Certificate:
    Data:
        Version: 3 (0x2)
        Serial Number: 256 (0x100)
    Signature Algorithm: sha1WithRSAEncryption
        Issuer: C=US, ST=CA, L=SanFrancisco, O=Pixglo, Inc., OU=VPN-CIE, CN=tunnel.pixglo.com/name=Bala Chandrasekaran/emailAddress=bala@pixglo.com
        Validity
            Not Before: Feb 14 06:29:23 2018 GMT
            Not After : Feb 12 06:29:23 2028 GMT
        Subject: C=US, ST=CA, L=SanFrancisco, O=Pixglo, Inc., OU=VPN-CIE, CN=cie255/name=Bala Chandrasekaran/emailAddress=bala@pixglo.com
        Subject Public Key Info:
            Public Key Algorithm: rsaEncryption
                Public-Key: (4096 bit)
                Modulus:
                    00:ce:f3:e4:ac:a4:5f:fd:aa:b4:d6:e9:4c:32:00:
                    6a:7d:a0:4c:45:90:68:9c:4f:d8:35:8c:64:be:71:
                    d8:6c:a3:29:c5:62:7d:ee:c2:f5:ee:52:35:35:d2:
                    6c:4e:d4:94:76:e4:af:d8:d0:cc:7b:df:2b:17:eb:
                    05:3c:8e:de:33:8f:9c:da:49:e1:de:af:35:24:07:
                    c1:11:36:43:81:7b:cb:5e:5f:10:0d:85:e4:b8:37:
                    27:16:6c:ba:2d:2a:9f:42:5a:f3:e4:8a:f3:9c:fb:
                    d7:f1:c3:ef:27:b3:bc:48:5f:de:c2:55:6b:94:8a:
                    49:33:aa:0d:4d:a6:04:81:45:75:5f:76:c0:67:96:
                    b2:a4:90:f1:bb:f1:87:39:7e:61:4e:d3:77:d5:cb:
                    ee:8a:e4:52:94:08:8c:f6:e7:d1:ca:c1:66:5b:1d:
                    5d:42:2e:3f:69:83:e0:62:a3:c2:be:87:30:97:0f:
                    71:47:29:33:b0:b7:5c:0f:70:29:f2:76:3f:17:31:
                    3b:58:8d:45:78:cd:6c:19:4c:d3:44:bb:92:49:8e:
                    70:75:c1:54:59:7f:3f:a4:39:59:32:7e:3d:a2:9f:
                    b5:4a:af:5d:98:15:54:6f:b8:e3:d4:00:e4:a5:12:
                    9e:f8:c5:a3:5e:a2:29:67:9a:1d:96:42:ed:ff:52:
                    53:0c:77:85:42:29:2c:59:e7:8d:52:ea:92:58:b2:
                    c2:d8:ca:6b:15:5d:21:59:3f:31:5c:17:6e:e1:e5:
                    17:b4:5c:f6:17:8d:ed:56:51:7c:de:5a:95:20:a4:
                    09:6e:23:77:29:61:84:d8:c6:40:21:ce:5e:7d:28:
                    72:cb:ca:d8:a5:51:43:16:79:95:c6:2f:90:94:30:
                    f1:1a:da:7b:6b:5e:aa:be:06:96:bf:55:95:48:19:
                    39:6b:ee:b9:71:f2:cc:44:b4:f9:73:ff:a3:43:67:
                    c2:c7:1e:ba:2b:3d:49:4f:f0:14:8d:39:e9:6a:09:
                    08:e4:93:12:e6:91:62:ca:c0:c4:73:e2:61:43:82:
                    8b:eb:44:e4:e8:d8:41:65:a5:43:b0:07:20:95:df:
                    df:e6:4f:58:54:26:4d:2d:34:b9:5b:d3:3b:d3:62:
                    ce:cb:43:4a:61:c8:ae:ef:8a:1c:69:f1:9c:ce:cc:
                    0f:8a:5c:8b:fd:8a:e8:ea:78:0a:84:2a:79:4d:bc:
                    c4:6e:12:50:b0:cf:10:66:c8:f9:47:e7:c0:20:ea:
                    4a:4f:97:1e:b1:cc:26:55:1f:a0:70:c7:90:01:ed:
                    51:9e:87:c3:37:24:79:70:3e:b4:2d:ac:e6:fe:57:
                    18:9e:0b:61:cb:7a:48:1b:e3:05:82:4d:d6:f1:a8:
                    6d:33:2f
                Exponent: 65537 (0x10001)
        X509v3 extensions:
            X509v3 Basic Constraints: 
                CA:FALSE
            Netscape Comment: 
                Easy-RSA Generated Certificate
            X509v3 Subject Key Identifier: 
                8D:DF:99:6E:B8:17:53:44:90:39:26:4C:29:12:B0:18:12:0A:F7:D3
            X509v3 Authority Key Identifier: 
                keyid:EF:38:8D:14:50:58:A7:5B:4D:9C:17:72:FC:DF:B9:AC:A7:51:B0:10
                DirName:/C=US/ST=CA/L=SanFrancisco/O=Pixglo, Inc./OU=VPN-CIE/CN=tunnel.pixglo.com/name=Bala Chandrasekaran/emailAddress=bala@pixglo.com
                serial:A6:DB:C6:83:80:E6:A0:79

            X509v3 Extended Key Usage: 
                TLS Web Client Authentication
            X509v3 Key Usage: 
                Digital Signature
    Signature Algorithm: sha1WithRSAEncryption
         84:81:52:5f:1e:1e:e1:3f:4f:b2:03:cc:86:68:d1:c5:32:af:
         58:63:8a:ed:d9:46:6a:a6:3e:cc:11:dd:12:7a:34:13:e8:6c:
         92:d4:a6:8d:73:78:a3:30:5c:88:c5:57:4e:13:02:e8:9c:44:
         c8:3e:44:e9:2d:f3:66:42:96:86:d8:6d:dd:c0:a6:47:51:a0:
         94:ca:10:67:b4:ec:83:c0:8d:26:d4:02:38:87:f7:37:c3:be:
         52:29:e3:fb:91:4e:cd:eb:fa:23:af:7d:59:b4:fe:14:c0:98:
         4b:c3:be:9f:ca:29:70:19:c3:1b:b0:4a:fa:be:91:07:f1:2b:
         6a:59:07:11:3e:b9:dc:31:40:ff:0e:37:07:13:52:2a:0e:1a:
         f0:47:6e:7d:a5:58:42:18:9e:3d:41:bf:97:f1:c4:1a:55:06:
         34:7b:ef:02:a0:c2:98:22:a1:aa:00:a7:c0:4c:9a:14:2a:3d:
         95:df:ba:12:e4:e8:43:ea:70:21:9f:85:df:1a:cd:35:de:0a:
         4e:56:5e:1b:3e:fd:37:25:d2:6c:6a:ce:18:e1:a8:20:fc:8b:
         ce:65:12:77:48:f3:3a:9b:86:f9:90:fc:9a:56:5d:a2:d1:d4:
         1c:b7:67:0b:31:5f:3d:1b:5f:57:6b:92:7c:ba:6c:1d:fe:14:
         22:44:00:f2:65:82:d9:fd:fe:42:9c:f1:aa:81:3e:83:a1:97:
         0c:b1:5d:20:f2:23:f4:aa:74:c8:28:2a:8e:e0:45:e2:6a:1c:
         6d:dc:21:97:c0:f1:11:53:d1:c3:bb:d3:d5:44:37:b1:ac:23:
         51:d5:4a:cd:cc:78:9d:b3:e8:27:d1:a5:c6:60:e4:46:c7:9d:
         99:6c:fd:f6:21:95:90:04:07:d2:0c:c2:a8:d6:42:ad:b1:4c:
         bb:b4:01:ca:f9:bb:9b:19:eb:60:cf:ac:a8:87:31:88:7a:6c:
         4e:7f:d6:b1:be:da:58:8f:59:86:7f:80:87:d3:1a:c6:e8:19:
         90:27:9e:04:f0:88:68:19:2a:8f:53:90:d7:37:3e:28:dd:9f:
         68:4e:9d:cb:f4:62:e1:14:a1:b5:cb:38:1f:7a:e1:cf:16:27:
         fa:d8:c1:9c:9a:fb:90:38:99:b9:fe:99:06:88:78:86:88:c6:
         81:2f:41:f8:d0:09:fd:82:34:0b:e3:b5:bf:f5:03:3a:c2:de:
         96:f9:4e:0f:29:cc:13:46:62:74:2b:6b:f3:e7:91:9c:82:04:
         51:c5:86:e7:79:2e:28:3a:64:df:78:55:cd:7f:71:23:2e:af:
         a6:b7:7d:13:a0:fe:6a:14:12:09:b2:fe:bc:fd:56:5b:59:d3:
         45:de:c6:73:b1:43:e5:26
-----BEGIN CERTIFICATE-----
MIIHSDCCBTCgAwIBAgICAQAwDQYJKoZIhvcNAQEFBQAwgbQxCzAJBgNVBAYTAlVT
MQswCQYDVQQIEwJDQTEVMBMGA1UEBxMMU2FuRnJhbmNpc2NvMRUwEwYDVQQKEwxQ
aXhnbG8sIEluYy4xEDAOBgNVBAsTB1ZQTi1DSUUxGjAYBgNVBAMTEXR1bm5lbC5w
aXhnbG8uY29tMRwwGgYDVQQpExNCYWxhIENoYW5kcmFzZWthcmFuMR4wHAYJKoZI
hvcNAQkBFg9iYWxhQHBpeGdsby5jb20wHhcNMTgwMjE0MDYyOTIzWhcNMjgwMjEy
MDYyOTIzWjCBqTELMAkGA1UEBhMCVVMxCzAJBgNVBAgTAkNBMRUwEwYDVQQHEwxT
YW5GcmFuY2lzY28xFTATBgNVBAoTDFBpeGdsbywgSW5jLjEQMA4GA1UECxMHVlBO
LUNJRTEPMA0GA1UEAxMGY2llMjU1MRwwGgYDVQQpExNCYWxhIENoYW5kcmFzZWth
cmFuMR4wHAYJKoZIhvcNAQkBFg9iYWxhQHBpeGdsby5jb20wggIiMA0GCSqGSIb3
DQEBAQUAA4ICDwAwggIKAoICAQDO8+SspF/9qrTW6UwyAGp9oExFkGicT9g1jGS+
cdhsoynFYn3uwvXuUjU10mxO1JR25K/Y0Mx73ysX6wU8jt4zj5zaSeHerzUkB8ER
NkOBe8teXxANheS4NycWbLotKp9CWvPkivOc+9fxw+8ns7xIX97CVWuUikkzqg1N
pgSBRXVfdsBnlrKkkPG78Yc5fmFO03fVy+6K5FKUCIz259HKwWZbHV1CLj9pg+Bi
o8K+hzCXD3FHKTOwt1wPcCnydj8XMTtYjUV4zWwZTNNEu5JJjnB1wVRZfz+kOVky
fj2in7VKr12YFVRvuOPUAOSlEp74xaNeoilnmh2WQu3/UlMMd4VCKSxZ541S6pJY
ssLYymsVXSFZPzFcF27h5Re0XPYXje1WUXzeWpUgpAluI3cpYYTYxkAhzl59KHLL
ytilUUMWeZXGL5CUMPEa2ntrXqq+Bpa/VZVIGTlr7rlx8sxEtPlz/6NDZ8LHHror
PUlP8BSNOelqCQjkkxLmkWLKwMRz4mFDgovrROTo2EFlpUOwByCV39/mT1hUJk0t
NLlb0zvTYs7LQ0phyK7vihxp8ZzOzA+KXIv9iujqeAqEKnlNvMRuElCwzxBmyPlH
58Ag6kpPlx6xzCZVH6Bwx5AB7VGeh8M3JHlwPrQtrOb+VxieC2HLekgb4wWCTdbx
qG0zLwIDAQABo4IBazCCAWcwCQYDVR0TBAIwADAtBglghkgBhvhCAQ0EIBYeRWFz
eS1SU0EgR2VuZXJhdGVkIENlcnRpZmljYXRlMB0GA1UdDgQWBBSN35luuBdTRJA5
JkwpErAYEgr30zCB6QYDVR0jBIHhMIHegBTvOI0UUFinW02cF3L837msp1GwEKGB
uqSBtzCBtDELMAkGA1UEBhMCVVMxCzAJBgNVBAgTAkNBMRUwEwYDVQQHEwxTYW5G
cmFuY2lzY28xFTATBgNVBAoTDFBpeGdsbywgSW5jLjEQMA4GA1UECxMHVlBOLUNJ
RTEaMBgGA1UEAxMRdHVubmVsLnBpeGdsby5jb20xHDAaBgNVBCkTE0JhbGEgQ2hh
bmRyYXNla2FyYW4xHjAcBgkqhkiG9w0BCQEWD2JhbGFAcGl4Z2xvLmNvbYIJAKbb
xoOA5qB5MBMGA1UdJQQMMAoGCCsGAQUFBwMCMAsGA1UdDwQEAwIHgDANBgkqhkiG
9w0BAQUFAAOCAgEAhIFSXx4e4T9PsgPMhmjRxTKvWGOK7dlGaqY+zBHdEno0E+hs
ktSmjXN4ozBciMVXThMC6JxEyD5E6S3zZkKWhtht3cCmR1GglMoQZ7Tsg8CNJtQC
OIf3N8O+Uinj+5FOzev6I699WbT+FMCYS8O+n8opcBnDG7BK+r6RB/EralkHET65
3DFA/w43BxNSKg4a8EdufaVYQhiePUG/l/HEGlUGNHvvAqDCmCKhqgCnwEyaFCo9
ld+6EuToQ+pwIZ+F3xrNNd4KTlZeGz79NyXSbGrOGOGoIPyLzmUSd0jzOpuG+ZD8
mlZdotHUHLdnCzFfPRtfV2uSfLpsHf4UIkQA8mWC2f3+QpzxqoE+g6GXDLFdIPIj
9Kp0yCgqjuBF4mocbdwhl8DxEVPRw7vT1UQ3sawjUdVKzcx4nbPoJ9GlxmDkRsed
mWz99iGVkAQH0gzCqNZCrbFMu7QByvm7mxnrYM+sqIcxiHpsTn/Wsb7aWI9Zhn+A
h9MaxugZkCeeBPCIaBkqj1OQ1zc+KN2faE6dy/Ri4RShtcs4H3rhzxYn+tjBnJr7
kDiZuf6ZBoh4hojGgS9B+NAJ/YI0C+O1v/UDOsLelvlODynME0ZidCtr8+eRnIIE
UcWG53kuKDpk33hVzX9xIy6vprd9E6D+ahQSCbL+vP1WW1nTRd7Gc7FD5SY=
-----END CERTIFICATE-----
