Certificate:
    Data:
        Version: 3 (0x2)
        Serial Number: 257 (0x101)
    Signature Algorithm: sha1WithRSAEncryption
        Issuer: C=US, ST=CA, L=SanFrancisco, O=Pixglo, Inc., OU=VPN-CIE, CN=tunnel.pixglo.com/name=Bala Chandrasekaran/emailAddress=bala@pixglo.com
        Validity
            Not Before: Feb 14 06:29:24 2018 GMT
            Not After : Feb 12 06:29:24 2028 GMT
        Subject: C=US, ST=CA, L=SanFrancisco, O=Pixglo, Inc., OU=VPN-CIE, CN=cie256/name=Bala Chandrasekaran/emailAddress=bala@pixglo.com
        Subject Public Key Info:
            Public Key Algorithm: rsaEncryption
                Public-Key: (4096 bit)
                Modulus:
                    00:ef:13:f0:b4:b6:d0:20:6d:0a:d9:36:47:36:bf:
                    ee:90:40:cf:78:bd:8d:af:96:a8:e7:ee:19:df:85:
                    49:e0:94:3c:0d:ba:b4:c3:c5:3c:0d:e2:5d:3e:7c:
                    2d:cb:ce:43:db:af:4c:23:23:57:30:b0:9f:c0:b2:
                    78:08:19:1b:61:1a:da:e0:fa:f9:a4:56:8b:99:60:
                    d2:de:ab:93:69:7b:de:64:d0:54:9e:4f:f8:c7:d9:
                    16:da:39:17:3a:97:3e:4d:2a:a4:0b:10:cd:a0:38:
                    28:87:34:b9:a8:73:14:24:96:bd:17:e3:fc:5a:09:
                    3f:1f:ef:c3:eb:46:d0:1b:b1:89:15:01:32:71:a9:
                    26:35:64:8e:bb:db:4e:6c:e0:5d:67:ac:5e:c0:35:
                    2d:a4:cd:c2:88:0b:38:22:7c:94:f1:0a:12:9c:ce:
                    c5:82:4e:dd:2b:9a:de:af:13:84:a9:20:62:e6:36:
                    b3:ad:09:c8:a0:c1:59:c0:3e:b6:c0:fd:3a:e0:61:
                    51:35:e0:29:b8:d9:49:43:bc:ac:f6:e6:d6:38:eb:
                    2e:04:6b:11:93:80:eb:f7:c9:a2:07:18:de:64:3a:
                    b1:2f:f5:82:36:d0:4c:60:81:4d:81:bb:44:f3:29:
                    fc:ef:73:d5:22:32:46:8f:29:6c:d9:4b:60:9b:e2:
                    fd:d6:ea:16:1e:e4:0e:e8:fd:02:ed:b5:62:f3:2c:
                    f4:8e:cb:fc:1e:c0:fe:cb:92:17:45:e3:a8:fa:32:
                    de:72:c2:a5:c9:28:28:62:ba:a6:04:1f:57:6c:c9:
                    7c:b7:38:d8:06:8d:d2:ca:e7:ea:cf:bf:5c:b1:c7:
                    52:3a:ee:b2:cb:0c:d5:e5:81:4d:2c:53:08:a6:0d:
                    68:f2:90:7f:d7:7a:ae:32:9b:f2:54:4e:65:53:99:
                    d5:c1:64:2c:cd:6c:a4:b6:23:3c:79:e0:01:75:2b:
                    70:22:fc:ac:7b:d0:47:20:34:42:29:57:d0:8c:b5:
                    b2:60:43:e0:47:91:1f:59:27:37:70:71:60:b5:20:
                    b4:23:25:44:93:97:48:47:1e:c2:2d:5e:a2:ff:c6:
                    60:1d:aa:c8:03:54:62:78:99:a1:01:de:91:ae:b4:
                    de:f3:99:2f:d7:ff:d4:9f:b7:69:96:f3:00:5b:3b:
                    c1:bb:7e:ca:e6:c8:60:a7:93:4f:41:01:a5:82:d4:
                    57:ce:38:4b:09:c0:4a:ab:aa:0d:4e:98:c8:79:4f:
                    11:aa:da:37:c5:6a:3a:45:0b:ec:ca:bb:50:ef:88:
                    f5:81:4b:b8:c3:01:00:4a:0e:d1:07:a5:aa:93:11:
                    ac:da:c2:e9:ec:ba:76:7d:95:7c:d4:1a:f0:a6:bb:
                    6e:ec:a1
                Exponent: 65537 (0x10001)
        X509v3 extensions:
            X509v3 Basic Constraints: 
                CA:FALSE
            Netscape Comment: 
                Easy-RSA Generated Certificate
            X509v3 Subject Key Identifier: 
                0F:E7:B5:89:8C:6D:D2:2A:F3:03:C4:2A:52:30:14:DC:6F:A3:37:96
            X509v3 Authority Key Identifier: 
                keyid:EF:38:8D:14:50:58:A7:5B:4D:9C:17:72:FC:DF:B9:AC:A7:51:B0:10
                DirName:/C=US/ST=CA/L=SanFrancisco/O=Pixglo, Inc./OU=VPN-CIE/CN=tunnel.pixglo.com/name=Bala Chandrasekaran/emailAddress=bala@pixglo.com
                serial:A6:DB:C6:83:80:E6:A0:79

            X509v3 Extended Key Usage: 
                TLS Web Client Authentication
            X509v3 Key Usage: 
                Digital Signature
    Signature Algorithm: sha1WithRSAEncryption
         1b:83:e2:6f:b3:7d:7f:e2:80:73:ac:b1:bf:8e:d3:45:31:89:
         b1:8f:dd:7d:83:e7:4f:71:28:5f:e3:da:e2:a7:b4:1c:40:81:
         2e:09:f8:e0:e0:97:07:ab:a0:e6:ca:50:48:75:c9:ea:ac:5b:
         a4:35:62:d2:0d:f9:7e:0d:13:8d:68:10:a2:35:b7:a9:df:2c:
         c5:ad:38:92:19:6e:ef:e9:47:7d:a5:3c:cd:4e:4c:1f:66:96:
         b5:27:44:41:2e:79:47:6d:57:d8:9a:ee:4b:70:42:15:0b:f6:
         db:fb:9b:62:21:ec:2d:b5:2e:35:99:76:f4:6e:3d:56:ba:09:
         f3:f9:ce:1a:c9:5f:17:24:32:d4:46:d3:8c:d5:e0:a0:7a:bc:
         a0:e7:2d:e0:14:9b:73:68:b6:f6:6b:d7:eb:cf:a9:c6:a4:d9:
         7f:98:50:d3:aa:e1:57:c9:03:7d:fd:35:91:39:35:40:5d:b7:
         a0:8f:b0:69:2f:02:9e:51:6b:61:71:cc:d4:89:c5:27:df:e5:
         f1:51:07:68:87:5c:52:17:c5:88:d5:57:6d:cf:79:d5:28:6d:
         d2:52:bd:a9:c7:2d:fa:d2:51:40:c4:92:29:fb:86:26:c1:d9:
         a5:63:a1:fc:eb:83:94:54:31:a0:9c:4b:04:c8:04:64:3d:ae:
         bf:7d:c1:3e:63:89:d9:12:b0:58:41:07:46:48:78:88:c0:40:
         e9:76:e4:09:d7:23:94:a2:82:9b:7b:19:e9:69:d1:d1:82:74:
         2c:0f:74:20:79:f2:e8:25:36:35:05:e6:c4:b1:4f:7f:d4:d2:
         19:dd:e6:7d:d7:a7:a3:4a:ac:7b:12:d7:4f:8e:20:99:0d:e8:
         1b:ae:45:a5:d4:a4:a1:63:16:04:3d:a8:14:ea:93:dc:0f:f9:
         cb:05:68:ec:6d:13:f1:a2:58:46:d4:0b:4b:1a:4c:1d:a4:38:
         d9:af:8d:02:15:c7:b0:1e:10:2d:c0:74:4b:9a:a8:ba:16:96:
         63:a1:e0:6d:c3:98:c4:7b:b0:4f:b2:22:64:0a:3b:d2:fd:4a:
         d6:6e:d3:31:b8:fb:02:cd:df:17:e3:63:d1:f9:b0:41:6f:cf:
         92:a5:99:48:82:b8:d2:36:b0:59:60:61:f7:af:6e:4b:50:a0:
         e5:c6:9c:15:a9:5a:10:0a:7a:40:5d:2b:54:09:19:d1:d5:30:
         3b:09:1b:88:9a:52:2a:72:3a:34:e9:4f:33:00:ff:08:63:74:
         bf:f5:7d:45:60:44:d8:1c:52:98:5e:36:b8:73:09:41:00:e5:
         40:0b:a3:81:58:78:ab:dd:b2:c4:d3:93:38:f8:12:48:13:10:
         bb:f6:26:e3:e4:fa:18:a6
-----BEGIN CERTIFICATE-----
MIIHSDCCBTCgAwIBAgICAQEwDQYJKoZIhvcNAQEFBQAwgbQxCzAJBgNVBAYTAlVT
MQswCQYDVQQIEwJDQTEVMBMGA1UEBxMMU2FuRnJhbmNpc2NvMRUwEwYDVQQKEwxQ
aXhnbG8sIEluYy4xEDAOBgNVBAsTB1ZQTi1DSUUxGjAYBgNVBAMTEXR1bm5lbC5w
aXhnbG8uY29tMRwwGgYDVQQpExNCYWxhIENoYW5kcmFzZWthcmFuMR4wHAYJKoZI
hvcNAQkBFg9iYWxhQHBpeGdsby5jb20wHhcNMTgwMjE0MDYyOTI0WhcNMjgwMjEy
MDYyOTI0WjCBqTELMAkGA1UEBhMCVVMxCzAJBgNVBAgTAkNBMRUwEwYDVQQHEwxT
YW5GcmFuY2lzY28xFTATBgNVBAoTDFBpeGdsbywgSW5jLjEQMA4GA1UECxMHVlBO
LUNJRTEPMA0GA1UEAxMGY2llMjU2MRwwGgYDVQQpExNCYWxhIENoYW5kcmFzZWth
cmFuMR4wHAYJKoZIhvcNAQkBFg9iYWxhQHBpeGdsby5jb20wggIiMA0GCSqGSIb3
DQEBAQUAA4ICDwAwggIKAoICAQDvE/C0ttAgbQrZNkc2v+6QQM94vY2vlqjn7hnf
hUnglDwNurTDxTwN4l0+fC3LzkPbr0wjI1cwsJ/AsngIGRthGtrg+vmkVouZYNLe
q5Npe95k0FSeT/jH2RbaORc6lz5NKqQLEM2gOCiHNLmocxQklr0X4/xaCT8f78Pr
RtAbsYkVATJxqSY1ZI67205s4F1nrF7ANS2kzcKICzgifJTxChKczsWCTt0rmt6v
E4SpIGLmNrOtCcigwVnAPrbA/TrgYVE14Cm42UlDvKz25tY46y4EaxGTgOv3yaIH
GN5kOrEv9YI20ExggU2Bu0TzKfzvc9UiMkaPKWzZS2Cb4v3W6hYe5A7o/QLttWLz
LPSOy/wewP7LkhdF46j6Mt5ywqXJKChiuqYEH1dsyXy3ONgGjdLK5+rPv1yxx1I6
7rLLDNXlgU0sUwimDWjykH/Xeq4ym/JUTmVTmdXBZCzNbKS2Izx54AF1K3Ai/Kx7
0EcgNEIpV9CMtbJgQ+BHkR9ZJzdwcWC1ILQjJUSTl0hHHsItXqL/xmAdqsgDVGJ4
maEB3pGutN7zmS/X/9Sft2mW8wBbO8G7fsrmyGCnk09BAaWC1FfOOEsJwEqrqg1O
mMh5TxGq2jfFajpFC+zKu1DviPWBS7jDAQBKDtEHpaqTEazawunsunZ9lXzUGvCm
u27soQIDAQABo4IBazCCAWcwCQYDVR0TBAIwADAtBglghkgBhvhCAQ0EIBYeRWFz
eS1SU0EgR2VuZXJhdGVkIENlcnRpZmljYXRlMB0GA1UdDgQWBBQP57WJjG3SKvMD
xCpSMBTcb6M3ljCB6QYDVR0jBIHhMIHegBTvOI0UUFinW02cF3L837msp1GwEKGB
uqSBtzCBtDELMAkGA1UEBhMCVVMxCzAJBgNVBAgTAkNBMRUwEwYDVQQHEwxTYW5G
cmFuY2lzY28xFTATBgNVBAoTDFBpeGdsbywgSW5jLjEQMA4GA1UECxMHVlBOLUNJ
RTEaMBgGA1UEAxMRdHVubmVsLnBpeGdsby5jb20xHDAaBgNVBCkTE0JhbGEgQ2hh
bmRyYXNla2FyYW4xHjAcBgkqhkiG9w0BCQEWD2JhbGFAcGl4Z2xvLmNvbYIJAKbb
xoOA5qB5MBMGA1UdJQQMMAoGCCsGAQUFBwMCMAsGA1UdDwQEAwIHgDANBgkqhkiG
9w0BAQUFAAOCAgEAG4Pib7N9f+KAc6yxv47TRTGJsY/dfYPnT3EoX+Pa4qe0HECB
Lgn44OCXB6ug5spQSHXJ6qxbpDVi0g35fg0TjWgQojW3qd8sxa04khlu7+lHfaU8
zU5MH2aWtSdEQS55R21X2JruS3BCFQv22/ubYiHsLbUuNZl29G49VroJ8/nOGslf
FyQy1EbTjNXgoHq8oOct4BSbc2i29mvX68+pxqTZf5hQ06rhV8kDff01kTk1QF23
oI+waS8CnlFrYXHM1InFJ9/l8VEHaIdcUhfFiNVXbc951Sht0lK9qcct+tJRQMSS
KfuGJsHZpWOh/OuDlFQxoJxLBMgEZD2uv33BPmOJ2RKwWEEHRkh4iMBA6XbkCdcj
lKKCm3sZ6WnR0YJ0LA90IHny6CU2NQXmxLFPf9TSGd3mfdeno0qsexLXT44gmQ3o
G65FpdSkoWMWBD2oFOqT3A/5ywVo7G0T8aJYRtQLSxpMHaQ42a+NAhXHsB4QLcB0
S5qouhaWY6HgbcOYxHuwT7IiZAo70v1K1m7TMbj7As3fF+Nj0fmwQW/PkqWZSIK4
0jawWWBh969uS1Cg5cacFalaEAp6QF0rVAkZ0dUwOwkbiJpSKnI6NOlPMwD/CGN0
v/V9RWBE2BxSmF42uHMJQQDlQAujgVh4q92yxNOTOPgSSBMQu/Ym4+T6GKY=
-----END CERTIFICATE-----
