Certificate:
    Data:
        Version: 3 (0x2)
        Serial Number: 259 (0x103)
    Signature Algorithm: sha1WithRSAEncryption
        Issuer: C=US, ST=CA, L=SanFrancisco, O=Pixglo, Inc., OU=VPN-CIE, CN=tunnel.pixglo.com/name=Bala Chandrasekaran/emailAddress=bala@pixglo.com
        Validity
            Not Before: Feb 14 06:29:26 2018 GMT
            Not After : Feb 12 06:29:26 2028 GMT
        Subject: C=US, ST=CA, L=SanFrancisco, O=Pixglo, Inc., OU=VPN-CIE, CN=cie258/name=Bala Chandrasekaran/emailAddress=bala@pixglo.com
        Subject Public Key Info:
            Public Key Algorithm: rsaEncryption
                Public-Key: (4096 bit)
                Modulus:
                    00:a8:cf:34:45:3a:3c:fe:c4:b1:5b:c7:8f:41:a4:
                    44:c0:c2:89:af:b5:bc:6a:38:a3:1b:3b:18:cd:f2:
                    2c:8f:db:f7:b2:88:fd:d4:ed:1b:72:b3:9e:e1:1e:
                    5a:0d:6a:a7:9b:9a:86:8a:ad:7b:2b:7c:04:a2:2e:
                    41:91:73:8b:39:a4:94:d1:05:ca:f3:88:cd:e5:66:
                    60:c6:c3:c4:60:55:76:8b:be:c7:52:9e:89:e8:5c:
                    fe:ee:a8:61:08:7b:74:f5:ec:b4:b4:d9:4b:f0:33:
                    3c:b0:bb:07:f3:d3:d0:4d:52:a2:96:17:16:1c:0f:
                    be:c7:08:8c:ed:83:ac:e3:4c:b0:96:bd:d6:85:4e:
                    6f:f0:4f:9f:58:9d:8e:cd:e1:a5:6b:d2:7e:09:d0:
                    ad:cd:c6:77:28:f8:58:b9:d2:eb:eb:df:5c:82:1a:
                    e5:77:32:ef:a3:0f:f3:d4:44:25:d3:66:05:97:ca:
                    ce:2d:0e:f7:e9:e8:85:98:fe:96:35:62:68:d4:de:
                    58:26:7d:a8:b4:17:55:b7:c6:38:b4:ac:fa:20:b9:
                    84:f9:4d:72:6c:06:7c:3d:b9:d5:ad:5b:bf:8b:b5:
                    f6:d2:8a:d7:82:07:ad:20:e7:a7:80:71:9e:09:99:
                    6a:e3:6d:bb:15:03:86:c5:dd:0b:cd:18:f5:e8:65:
                    b6:07:ed:6f:11:62:e4:7a:8f:84:13:fd:6f:72:93:
                    f6:db:a9:4a:32:b8:46:f4:61:ae:49:0e:0c:ba:ee:
                    5c:05:82:5e:52:8c:b1:29:9c:47:48:c1:1a:c9:61:
                    a9:59:05:62:eb:7e:38:81:2f:0b:5b:86:de:b7:d5:
                    f9:b8:70:94:99:54:60:6c:4d:df:24:7c:18:1f:31:
                    d0:f3:dc:75:8c:b0:3e:eb:ac:96:0b:f5:9e:92:57:
                    4d:05:65:e6:41:cb:36:90:01:9f:de:bc:78:08:9e:
                    e1:81:d6:52:33:3d:7d:0a:e1:6b:12:65:c3:41:62:
                    f4:f3:02:7f:a6:85:b7:22:02:d7:0d:84:ad:fe:11:
                    b8:da:ed:43:64:17:8b:55:82:1a:e8:c3:1f:fd:9f:
                    36:2f:91:b8:7b:fb:ea:0b:07:60:14:b7:01:32:c2:
                    1e:08:f7:e0:31:53:d7:b7:fe:4c:fc:94:a1:ee:4d:
                    de:2e:f3:4a:11:23:80:ae:1b:6d:62:c9:2b:95:ef:
                    c3:b6:93:ee:9b:a7:32:86:85:c6:4a:7a:98:2f:1d:
                    83:e9:83:ab:ac:67:e8:f7:f8:d0:7f:4a:47:ee:55:
                    b0:e5:bd:60:c2:87:da:8c:27:4e:0c:37:97:10:4b:
                    a5:b8:76:2b:87:a7:68:56:64:ae:4b:4a:17:5b:33:
                    43:7c:95
                Exponent: 65537 (0x10001)
        X509v3 extensions:
            X509v3 Basic Constraints: 
                CA:FALSE
            Netscape Comment: 
                Easy-RSA Generated Certificate
            X509v3 Subject Key Identifier: 
                1C:50:93:28:C7:6F:17:F5:F1:2E:21:2A:38:8C:FE:6D:46:B2:36:FB
            X509v3 Authority Key Identifier: 
                keyid:EF:38:8D:14:50:58:A7:5B:4D:9C:17:72:FC:DF:B9:AC:A7:51:B0:10
                DirName:/C=US/ST=CA/L=SanFrancisco/O=Pixglo, Inc./OU=VPN-CIE/CN=tunnel.pixglo.com/name=Bala Chandrasekaran/emailAddress=bala@pixglo.com
                serial:A6:DB:C6:83:80:E6:A0:79

            X509v3 Extended Key Usage: 
                TLS Web Client Authentication
            X509v3 Key Usage: 
                Digital Signature
    Signature Algorithm: sha1WithRSAEncryption
         d5:52:35:2f:b8:a3:a5:ed:8d:c3:16:c2:88:c4:35:01:c9:53:
         16:0c:11:d2:57:5d:9b:5c:42:f1:f6:7a:08:6e:53:c7:c1:e3:
         b9:50:46:57:bb:59:1e:c4:e2:aa:09:1e:63:e2:20:65:b5:83:
         9f:bf:6e:9f:71:23:6c:c7:d5:89:9f:02:9b:99:fb:c2:84:2b:
         2c:cd:0a:c1:56:70:66:24:3b:d4:54:41:4a:5d:82:36:d3:3b:
         b5:48:25:15:82:12:fa:0a:b6:41:b5:40:1e:86:65:21:19:5e:
         83:a6:0b:f5:01:e7:5a:21:b2:30:54:08:6f:88:8a:d5:77:d1:
         46:bf:7c:dd:31:50:00:77:d1:c5:77:5e:8d:a2:65:cd:f7:0b:
         08:ec:2f:8c:fb:96:b7:4d:17:29:71:2e:f7:20:c9:94:d5:e1:
         b0:aa:5c:c7:0d:9a:5e:07:72:44:7a:38:3b:c2:c8:be:64:14:
         48:26:1c:a4:ab:4c:40:69:94:3f:06:21:69:83:59:65:2e:ff:
         8e:59:c4:e1:89:51:f4:2c:c7:4b:27:34:c7:84:71:d4:c9:4c:
         b8:e7:d5:28:98:26:c3:94:e3:ed:38:95:ec:69:77:5d:1f:68:
         83:bd:04:3d:4c:65:f6:39:d7:3b:67:65:74:4e:c8:93:57:f3:
         3d:70:38:7e:71:96:11:8f:9e:9b:b6:54:cd:22:53:bd:81:7f:
         df:79:aa:be:c9:46:86:95:f3:88:3a:aa:75:3b:41:88:2f:66:
         5c:b1:ff:7e:8b:fc:7d:c5:3e:bd:80:3a:24:aa:43:0e:0a:d0:
         f9:0b:f3:86:ab:5b:28:5c:2b:83:4d:a3:de:06:12:e4:d9:50:
         60:32:0d:5c:32:2a:ea:c6:7b:28:bb:08:3d:be:41:89:98:6e:
         f6:cc:e2:01:7e:8b:9c:b6:c1:28:93:3d:49:ff:1e:40:86:6a:
         3c:83:ff:39:cc:0e:71:28:8a:88:21:ad:6e:96:19:a1:d0:63:
         17:d4:61:c5:c9:fa:f0:65:61:cf:fe:7a:ab:66:5e:00:c7:96:
         41:98:23:d7:16:72:20:9b:1b:0c:b7:cd:f9:b8:de:66:93:e7:
         37:aa:30:06:4c:e1:8c:ff:66:1c:80:bf:b4:a1:09:03:47:a6:
         73:cd:03:82:5a:f6:ce:87:9e:1e:24:62:3b:b3:3d:f1:df:af:
         db:e3:b3:a2:f4:ce:f1:e4:92:87:7f:22:0f:c6:60:4d:f6:ba:
         b0:ea:0e:0d:bd:55:71:c6:e9:3f:ce:4c:22:1d:98:e1:3e:c3:
         24:eb:25:43:f7:e4:50:96:c5:09:43:36:b6:6d:7c:ff:7b:15:
         77:c6:bc:fb:52:77:3c:73
-----BEGIN CERTIFICATE-----
MIIHSDCCBTCgAwIBAgICAQMwDQYJKoZIhvcNAQEFBQAwgbQxCzAJBgNVBAYTAlVT
MQswCQYDVQQIEwJDQTEVMBMGA1UEBxMMU2FuRnJhbmNpc2NvMRUwEwYDVQQKEwxQ
aXhnbG8sIEluYy4xEDAOBgNVBAsTB1ZQTi1DSUUxGjAYBgNVBAMTEXR1bm5lbC5w
aXhnbG8uY29tMRwwGgYDVQQpExNCYWxhIENoYW5kcmFzZWthcmFuMR4wHAYJKoZI
hvcNAQkBFg9iYWxhQHBpeGdsby5jb20wHhcNMTgwMjE0MDYyOTI2WhcNMjgwMjEy
MDYyOTI2WjCBqTELMAkGA1UEBhMCVVMxCzAJBgNVBAgTAkNBMRUwEwYDVQQHEwxT
YW5GcmFuY2lzY28xFTATBgNVBAoTDFBpeGdsbywgSW5jLjEQMA4GA1UECxMHVlBO
LUNJRTEPMA0GA1UEAxMGY2llMjU4MRwwGgYDVQQpExNCYWxhIENoYW5kcmFzZWth
cmFuMR4wHAYJKoZIhvcNAQkBFg9iYWxhQHBpeGdsby5jb20wggIiMA0GCSqGSIb3
DQEBAQUAA4ICDwAwggIKAoICAQCozzRFOjz+xLFbx49BpETAwomvtbxqOKMbOxjN
8iyP2/eyiP3U7Rtys57hHloNaqebmoaKrXsrfASiLkGRc4s5pJTRBcrziM3lZmDG
w8RgVXaLvsdSnonoXP7uqGEIe3T17LS02UvwMzywuwfz09BNUqKWFxYcD77HCIzt
g6zjTLCWvdaFTm/wT59YnY7N4aVr0n4J0K3Nxnco+Fi50uvr31yCGuV3Mu+jD/PU
RCXTZgWXys4tDvfp6IWY/pY1YmjU3lgmfai0F1W3xji0rPoguYT5TXJsBnw9udWt
W7+LtfbSiteCB60g56eAcZ4JmWrjbbsVA4bF3QvNGPXoZbYH7W8RYuR6j4QT/W9y
k/bbqUoyuEb0Ya5JDgy67lwFgl5SjLEpnEdIwRrJYalZBWLrfjiBLwtbht631fm4
cJSZVGBsTd8kfBgfMdDz3HWMsD7rrJYL9Z6SV00FZeZByzaQAZ/evHgInuGB1lIz
PX0K4WsSZcNBYvTzAn+mhbciAtcNhK3+Ebja7UNkF4tVghrowx/9nzYvkbh7++oL
B2AUtwEywh4I9+AxU9e3/kz8lKHuTd4u80oRI4CuG21iySuV78O2k+6bpzKGhcZK
epgvHYPpg6usZ+j3+NB/SkfuVbDlvWDCh9qMJ04MN5cQS6W4diuHp2hWZK5LShdb
M0N8lQIDAQABo4IBazCCAWcwCQYDVR0TBAIwADAtBglghkgBhvhCAQ0EIBYeRWFz
eS1SU0EgR2VuZXJhdGVkIENlcnRpZmljYXRlMB0GA1UdDgQWBBQcUJMox28X9fEu
ISo4jP5tRrI2+zCB6QYDVR0jBIHhMIHegBTvOI0UUFinW02cF3L837msp1GwEKGB
uqSBtzCBtDELMAkGA1UEBhMCVVMxCzAJBgNVBAgTAkNBMRUwEwYDVQQHEwxTYW5G
cmFuY2lzY28xFTATBgNVBAoTDFBpeGdsbywgSW5jLjEQMA4GA1UECxMHVlBOLUNJ
RTEaMBgGA1UEAxMRdHVubmVsLnBpeGdsby5jb20xHDAaBgNVBCkTE0JhbGEgQ2hh
bmRyYXNla2FyYW4xHjAcBgkqhkiG9w0BCQEWD2JhbGFAcGl4Z2xvLmNvbYIJAKbb
xoOA5qB5MBMGA1UdJQQMMAoGCCsGAQUFBwMCMAsGA1UdDwQEAwIHgDANBgkqhkiG
9w0BAQUFAAOCAgEA1VI1L7ijpe2NwxbCiMQ1AclTFgwR0lddm1xC8fZ6CG5Tx8Hj
uVBGV7tZHsTiqgkeY+IgZbWDn79un3EjbMfViZ8Cm5n7woQrLM0KwVZwZiQ71FRB
Sl2CNtM7tUglFYIS+gq2QbVAHoZlIRleg6YL9QHnWiGyMFQIb4iK1XfRRr983TFQ
AHfRxXdejaJlzfcLCOwvjPuWt00XKXEu9yDJlNXhsKpcxw2aXgdyRHo4O8LIvmQU
SCYcpKtMQGmUPwYhaYNZZS7/jlnE4YlR9CzHSyc0x4Rx1MlMuOfVKJgmw5Tj7TiV
7Gl3XR9og70EPUxl9jnXO2dldE7Ik1fzPXA4fnGWEY+em7ZUzSJTvYF/33mqvslG
hpXziDqqdTtBiC9mXLH/fov8fcU+vYA6JKpDDgrQ+QvzhqtbKFwrg02j3gYS5NlQ
YDINXDIq6sZ7KLsIPb5BiZhu9sziAX6LnLbBKJM9Sf8eQIZqPIP/OcwOcSiKiCGt
bpYZodBjF9Rhxcn68GVhz/56q2ZeAMeWQZgj1xZyIJsbDLfN+bjeZpPnN6owBkzh
jP9mHIC/tKEJA0emc80Dglr2zoeeHiRiO7M98d+v2+OzovTO8eSSh38iD8ZgTfa6
sOoODb1VccbpP85MIh2Y4T7DJOslQ/fkUJbFCUM2tm18/3sVd8a8+1J3PHM=
-----END CERTIFICATE-----
