Certificate:
    Data:
        Version: 3 (0x2)
        Serial Number: 260 (0x104)
    Signature Algorithm: sha1WithRSAEncryption
        Issuer: C=US, ST=CA, L=SanFrancisco, O=Pixglo, Inc., OU=VPN-CIE, CN=tunnel.pixglo.com/name=Bala Chandrasekaran/emailAddress=bala@pixglo.com
        Validity
            Not Before: Feb 14 06:29:26 2018 GMT
            Not After : Feb 12 06:29:26 2028 GMT
        Subject: C=US, ST=CA, L=SanFrancisco, O=Pixglo, Inc., OU=VPN-CIE, CN=cie259/name=Bala Chandrasekaran/emailAddress=bala@pixglo.com
        Subject Public Key Info:
            Public Key Algorithm: rsaEncryption
                Public-Key: (4096 bit)
                Modulus:
                    00:ae:bf:39:72:a2:86:6d:5a:c5:d0:c2:fd:63:dc:
                    89:11:7c:a6:26:2a:70:24:c4:85:67:6b:13:8a:5d:
                    9d:22:1d:7e:b5:55:4f:10:8c:b2:58:b1:71:e9:7a:
                    32:e0:70:6c:20:df:2d:37:0f:97:48:f2:27:8c:04:
                    6d:57:5f:35:a6:85:9f:31:f0:16:59:b9:8f:78:59:
                    e9:4b:85:3c:82:31:11:f3:7b:61:1c:35:fd:22:6c:
                    79:4a:08:2a:44:30:e1:81:02:03:27:e9:b2:54:4b:
                    1a:dc:ae:c3:21:f2:fb:5a:d0:4c:11:c1:e5:5f:97:
                    cc:c0:44:20:9e:4b:b0:14:14:64:ef:d8:48:f1:b9:
                    40:44:9e:24:74:06:f6:cd:7b:5e:4e:66:98:a3:00:
                    d3:9a:29:45:c2:f8:4a:e3:8d:3f:92:f2:eb:cd:32:
                    94:2b:b2:f3:c5:06:61:17:8e:69:bf:3c:90:3c:01:
                    b4:b8:4c:e9:9e:74:1e:02:15:8f:3f:31:1c:53:84:
                    a7:b6:4d:44:ac:3f:7c:a8:b6:5a:15:67:81:6f:2e:
                    e4:26:3f:15:f9:e2:f9:28:ca:10:63:7b:5d:bc:be:
                    39:5e:9f:a1:72:e8:3b:45:68:a7:0a:64:2b:31:5a:
                    2f:4d:72:52:72:3c:09:23:62:43:fb:ce:e4:2c:46:
                    de:70:1e:d4:99:07:ad:16:42:d5:25:ab:4a:f7:22:
                    d3:43:11:d4:fc:ba:52:65:61:53:f9:e9:80:ff:55:
                    3a:1d:7e:22:26:35:ba:f0:2f:7a:a3:b3:05:6c:55:
                    bc:a5:59:47:5e:be:86:2c:d1:12:5b:5d:6e:86:5a:
                    10:f0:d7:93:1f:04:99:da:d6:a3:a0:4b:05:38:8e:
                    5d:a4:3a:25:6d:c6:1d:52:26:8b:6a:d2:40:1b:9c:
                    8f:2f:88:d0:6f:a8:be:5c:9a:be:b0:76:e5:9a:c3:
                    c0:e9:d0:1a:52:03:46:e4:dc:2e:bd:44:3f:92:a1:
                    58:98:22:07:5a:c6:1e:63:66:a3:b0:f8:f8:cd:1f:
                    c0:7c:26:15:8f:a4:17:f6:78:ba:1c:85:0c:2e:ec:
                    fb:d1:a9:a5:c0:b3:ba:7f:93:f8:db:be:a8:1b:f1:
                    2a:a6:bb:52:64:f7:13:2c:45:92:e1:f0:45:db:68:
                    2d:f6:0a:40:49:e1:3f:b6:f9:86:37:25:7a:9c:67:
                    0c:32:56:56:28:a6:c3:7d:c2:63:8b:c6:7d:77:5f:
                    5c:e8:12:a2:6d:67:24:9e:47:72:85:17:f9:e7:71:
                    7e:3a:64:da:c6:55:6e:07:a7:6c:a1:7a:b6:b0:ad:
                    68:05:38:9c:22:57:29:54:a0:c7:fa:e5:ed:ce:40:
                    90:89:43
                Exponent: 65537 (0x10001)
        X509v3 extensions:
            X509v3 Basic Constraints: 
                CA:FALSE
            Netscape Comment: 
                Easy-RSA Generated Certificate
            X509v3 Subject Key Identifier: 
                5E:56:4F:14:43:6C:80:ED:C1:3A:78:01:A4:08:75:2C:08:14:0A:2F
            X509v3 Authority Key Identifier: 
                keyid:EF:38:8D:14:50:58:A7:5B:4D:9C:17:72:FC:DF:B9:AC:A7:51:B0:10
                DirName:/C=US/ST=CA/L=SanFrancisco/O=Pixglo, Inc./OU=VPN-CIE/CN=tunnel.pixglo.com/name=Bala Chandrasekaran/emailAddress=bala@pixglo.com
                serial:A6:DB:C6:83:80:E6:A0:79

            X509v3 Extended Key Usage: 
                TLS Web Client Authentication
            X509v3 Key Usage: 
                Digital Signature
    Signature Algorithm: sha1WithRSAEncryption
         31:21:83:95:82:03:95:2a:9c:61:60:08:4e:04:a1:0d:6e:f6:
         7e:a8:b0:17:15:1d:1b:cb:39:c7:6f:70:56:34:00:ac:e9:1c:
         46:82:ac:a0:77:7a:17:77:aa:1e:30:42:75:ac:19:5c:0e:32:
         28:19:b6:00:0e:96:97:f5:44:c8:e7:cf:b1:27:ba:99:38:22:
         0f:61:2a:78:54:72:cb:bc:76:49:8b:74:d8:e7:81:1a:63:26:
         17:f8:57:9f:5a:51:3e:d4:09:e2:26:6f:e9:e4:e7:7d:c8:ef:
         d1:46:80:15:41:3f:55:dd:0c:a7:60:a8:d4:42:b2:06:92:30:
         6d:50:90:cf:2c:df:b8:8a:3e:6d:e1:92:33:a8:8d:44:2c:45:
         66:7b:b8:9a:ae:b7:73:26:33:71:18:63:e6:d1:8b:97:43:ad:
         95:98:eb:e4:89:bd:97:30:d9:ff:d8:4f:68:78:19:3f:c5:6d:
         c4:3b:81:c7:c4:dc:d7:54:10:57:9c:a5:1d:a6:18:d2:ca:34:
         36:ad:2c:0a:24:ab:eb:d6:f4:5b:3c:3d:94:39:b8:5b:01:1c:
         9c:49:43:28:09:4d:1d:e9:5a:20:72:03:56:3f:42:28:bd:0b:
         04:95:03:1f:96:73:e8:b9:38:23:1c:ba:a6:cc:85:e0:46:cb:
         c6:73:92:63:1e:03:ad:25:25:c2:83:55:0e:66:be:33:99:b0:
         dd:38:df:77:ca:59:b0:18:c5:6a:5b:92:5e:3d:da:bd:6b:c9:
         7f:06:f2:04:86:01:d6:09:d3:8f:ac:75:e7:59:ba:64:38:c7:
         3f:3f:3c:58:33:c2:08:b7:8d:41:24:03:5b:66:2f:9d:fb:d1:
         10:60:95:dd:ee:6e:64:be:cd:a0:bb:c9:1f:d9:2a:91:c9:50:
         72:9a:8c:e9:44:e0:00:b4:34:35:a6:4a:a1:91:6e:48:9e:cc:
         8e:12:82:33:7a:ef:06:44:ab:59:23:98:dc:71:02:02:bc:74:
         af:ca:0b:ac:3e:9e:2e:c8:6b:1b:d5:57:70:9e:7d:09:3a:8d:
         10:16:4b:17:c7:f4:28:70:7c:d0:ea:f2:85:5d:73:ef:b6:60:
         f2:b6:7a:f6:be:40:e2:8b:05:a9:0e:dd:2b:b1:cd:f6:cf:9b:
         68:d5:ed:7f:c9:64:65:a5:72:48:de:b4:4f:20:f6:21:6e:27:
         4c:db:22:7c:55:c2:dd:65:5f:08:c0:cc:fa:73:9d:c2:2f:d7:
         20:14:8e:03:e1:78:da:00:15:80:ac:20:e4:9e:5d:ba:c7:19:
         89:11:8d:ad:b8:9b:c3:28:2c:e6:5d:49:c8:65:83:61:83:3d:
         eb:29:19:1f:31:c4:9a:1b
-----BEGIN CERTIFICATE-----
MIIHSDCCBTCgAwIBAgICAQQwDQYJKoZIhvcNAQEFBQAwgbQxCzAJBgNVBAYTAlVT
MQswCQYDVQQIEwJDQTEVMBMGA1UEBxMMU2FuRnJhbmNpc2NvMRUwEwYDVQQKEwxQ
aXhnbG8sIEluYy4xEDAOBgNVBAsTB1ZQTi1DSUUxGjAYBgNVBAMTEXR1bm5lbC5w
aXhnbG8uY29tMRwwGgYDVQQpExNCYWxhIENoYW5kcmFzZWthcmFuMR4wHAYJKoZI
hvcNAQkBFg9iYWxhQHBpeGdsby5jb20wHhcNMTgwMjE0MDYyOTI2WhcNMjgwMjEy
MDYyOTI2WjCBqTELMAkGA1UEBhMCVVMxCzAJBgNVBAgTAkNBMRUwEwYDVQQHEwxT
YW5GcmFuY2lzY28xFTATBgNVBAoTDFBpeGdsbywgSW5jLjEQMA4GA1UECxMHVlBO
LUNJRTEPMA0GA1UEAxMGY2llMjU5MRwwGgYDVQQpExNCYWxhIENoYW5kcmFzZWth
cmFuMR4wHAYJKoZIhvcNAQkBFg9iYWxhQHBpeGdsby5jb20wggIiMA0GCSqGSIb3
DQEBAQUAA4ICDwAwggIKAoICAQCuvzlyooZtWsXQwv1j3IkRfKYmKnAkxIVnaxOK
XZ0iHX61VU8QjLJYsXHpejLgcGwg3y03D5dI8ieMBG1XXzWmhZ8x8BZZuY94WelL
hTyCMRHze2EcNf0ibHlKCCpEMOGBAgMn6bJUSxrcrsMh8vta0EwRweVfl8zARCCe
S7AUFGTv2EjxuUBEniR0BvbNe15OZpijANOaKUXC+ErjjT+S8uvNMpQrsvPFBmEX
jmm/PJA8AbS4TOmedB4CFY8/MRxThKe2TUSsP3yotloVZ4FvLuQmPxX54vkoyhBj
e128vjlen6Fy6DtFaKcKZCsxWi9NclJyPAkjYkP7zuQsRt5wHtSZB60WQtUlq0r3
ItNDEdT8ulJlYVP56YD/VTodfiImNbrwL3qjswVsVbylWUdevoYs0RJbXW6GWhDw
15MfBJna1qOgSwU4jl2kOiVtxh1SJotq0kAbnI8viNBvqL5cmr6wduWaw8Dp0BpS
A0bk3C69RD+SoViYIgdaxh5jZqOw+PjNH8B8JhWPpBf2eLochQwu7PvRqaXAs7p/
k/jbvqgb8Sqmu1Jk9xMsRZLh8EXbaC32CkBJ4T+2+YY3JXqcZwwyVlYopsN9wmOL
xn13X1zoEqJtZySeR3KFF/nncX46ZNrGVW4Hp2yherawrWgFOJwiVylUoMf65e3O
QJCJQwIDAQABo4IBazCCAWcwCQYDVR0TBAIwADAtBglghkgBhvhCAQ0EIBYeRWFz
eS1SU0EgR2VuZXJhdGVkIENlcnRpZmljYXRlMB0GA1UdDgQWBBReVk8UQ2yA7cE6
eAGkCHUsCBQKLzCB6QYDVR0jBIHhMIHegBTvOI0UUFinW02cF3L837msp1GwEKGB
uqSBtzCBtDELMAkGA1UEBhMCVVMxCzAJBgNVBAgTAkNBMRUwEwYDVQQHEwxTYW5G
cmFuY2lzY28xFTATBgNVBAoTDFBpeGdsbywgSW5jLjEQMA4GA1UECxMHVlBOLUNJ
RTEaMBgGA1UEAxMRdHVubmVsLnBpeGdsby5jb20xHDAaBgNVBCkTE0JhbGEgQ2hh
bmRyYXNla2FyYW4xHjAcBgkqhkiG9w0BCQEWD2JhbGFAcGl4Z2xvLmNvbYIJAKbb
xoOA5qB5MBMGA1UdJQQMMAoGCCsGAQUFBwMCMAsGA1UdDwQEAwIHgDANBgkqhkiG
9w0BAQUFAAOCAgEAMSGDlYIDlSqcYWAITgShDW72fqiwFxUdG8s5x29wVjQArOkc
RoKsoHd6F3eqHjBCdawZXA4yKBm2AA6Wl/VEyOfPsSe6mTgiD2EqeFRyy7x2SYt0
2OeBGmMmF/hXn1pRPtQJ4iZv6eTnfcjv0UaAFUE/Vd0Mp2Co1EKyBpIwbVCQzyzf
uIo+beGSM6iNRCxFZnu4mq63cyYzcRhj5tGLl0OtlZjr5Im9lzDZ/9hPaHgZP8Vt
xDuBx8Tc11QQV5ylHaYY0so0Nq0sCiSr69b0Wzw9lDm4WwEcnElDKAlNHelaIHID
Vj9CKL0LBJUDH5Zz6Lk4Ixy6psyF4EbLxnOSYx4DrSUlwoNVDma+M5mw3Tjfd8pZ
sBjFaluSXj3avWvJfwbyBIYB1gnTj6x151m6ZDjHPz88WDPCCLeNQSQDW2YvnfvR
EGCV3e5uZL7NoLvJH9kqkclQcpqM6UTgALQ0NaZKoZFuSJ7MjhKCM3rvBkSrWSOY
3HECArx0r8oLrD6eLshrG9VXcJ59CTqNEBZLF8f0KHB80OryhV1z77Zg8rZ69r5A
4osFqQ7dK7HN9s+baNXtf8lkZaVySN60TyD2IW4nTNsifFXC3WVfCMDM+nOdwi/X
IBSOA+F42gAVgKwg5J5duscZiRGNrbibwygs5l1JyGWDYYM96ykZHzHEmhs=
-----END CERTIFICATE-----
