Certificate:
    Data:
        Version: 3 (0x2)
        Serial Number: 261 (0x105)
    Signature Algorithm: sha1WithRSAEncryption
        Issuer: C=US, ST=CA, L=SanFrancisco, O=Pixglo, Inc., OU=VPN-CIE, CN=tunnel.pixglo.com/name=Bala Chandrasekaran/emailAddress=bala@pixglo.com
        Validity
            Not Before: Feb 14 06:29:27 2018 GMT
            Not After : Feb 12 06:29:27 2028 GMT
        Subject: C=US, ST=CA, L=SanFrancisco, O=Pixglo, Inc., OU=VPN-CIE, CN=cie260/name=Bala Chandrasekaran/emailAddress=bala@pixglo.com
        Subject Public Key Info:
            Public Key Algorithm: rsaEncryption
                Public-Key: (4096 bit)
                Modulus:
                    00:a1:26:64:2c:9e:ba:9e:c5:bc:cd:3c:73:9d:bc:
                    1b:2c:97:92:23:3a:61:3e:9f:15:36:bd:74:1e:0d:
                    44:6c:c8:9e:30:51:16:b8:e4:2c:af:c3:9e:73:b5:
                    6b:90:54:d6:43:ab:dd:23:8f:9a:41:cb:f3:c8:73:
                    1a:9a:30:b9:a7:2a:ad:2e:36:ad:28:5b:5d:08:fd:
                    1f:32:3a:8e:b4:0c:81:ed:2f:76:51:15:51:2a:b5:
                    56:24:1a:89:3b:c6:08:66:97:76:6a:25:9f:41:d5:
                    6a:20:52:1c:a7:cd:b2:02:ae:9e:14:11:4c:c6:e4:
                    86:f3:c1:8b:96:0c:43:5d:bb:4d:37:8a:eb:68:cb:
                    85:86:28:f4:ff:c6:1e:5a:19:db:e0:1c:a9:e7:c1:
                    31:17:47:ae:da:35:6a:95:9c:24:7b:6c:78:eb:a5:
                    18:6d:0b:26:d3:0c:5d:f5:02:31:d9:f1:c1:c6:ef:
                    71:15:9f:d4:54:f4:a6:4e:4e:ea:e9:95:91:8e:ea:
                    2b:32:c7:b9:2d:e5:95:2b:7d:c7:62:3a:35:89:55:
                    c1:c6:62:15:ce:d6:e1:c5:5e:1c:4a:bf:d1:48:0d:
                    78:66:22:47:d1:db:29:0c:cd:8e:36:36:c2:4f:a6:
                    b7:49:ca:2d:eb:d6:7d:8a:60:d1:02:35:41:3f:ed:
                    5d:be:0c:8d:3c:2c:bb:72:d5:af:02:d5:95:50:a1:
                    1e:ad:af:39:0d:ef:c3:54:03:31:16:b0:99:70:bb:
                    9e:37:7f:b0:8a:fc:c3:cb:7d:13:55:c5:4a:60:ec:
                    f0:99:f0:f3:0a:98:5a:01:58:18:fd:d2:d7:25:86:
                    bb:72:ef:33:f9:d4:33:91:84:40:21:28:06:64:24:
                    6d:51:c5:f9:78:e9:5f:68:58:b7:2c:13:96:34:e0:
                    94:24:16:12:0d:35:be:d9:aa:35:96:99:18:00:8e:
                    d9:c0:1b:60:bd:45:54:20:82:95:3b:a2:86:1c:2b:
                    36:b3:9c:fa:f4:a6:81:eb:18:d1:5c:a7:0c:0e:ea:
                    91:99:91:0a:86:ba:fa:df:8d:02:ed:8f:47:83:7d:
                    3d:28:4a:01:64:11:9c:62:cb:4e:40:e2:19:0a:6c:
                    e2:ba:4f:9c:41:d5:08:da:d2:2b:7e:90:c9:dd:61:
                    ac:d1:0c:03:7a:c6:fd:f2:a6:b9:41:e5:e0:e4:d8:
                    98:90:84:2c:cb:fd:30:e8:a4:99:9a:bb:7e:36:99:
                    82:f2:3a:e4:96:12:a9:3e:16:97:6a:66:17:55:f1:
                    76:fe:07:2a:84:27:09:e6:cc:45:a6:65:a0:32:b4:
                    c7:9b:f7:15:1c:46:2f:4a:3a:24:30:81:ba:ac:14:
                    ab:f4:2b
                Exponent: 65537 (0x10001)
        X509v3 extensions:
            X509v3 Basic Constraints: 
                CA:FALSE
            Netscape Comment: 
                Easy-RSA Generated Certificate
            X509v3 Subject Key Identifier: 
                E1:CF:28:32:19:22:03:CA:92:25:B3:05:58:09:B4:56:81:7C:5B:E1
            X509v3 Authority Key Identifier: 
                keyid:EF:38:8D:14:50:58:A7:5B:4D:9C:17:72:FC:DF:B9:AC:A7:51:B0:10
                DirName:/C=US/ST=CA/L=SanFrancisco/O=Pixglo, Inc./OU=VPN-CIE/CN=tunnel.pixglo.com/name=Bala Chandrasekaran/emailAddress=bala@pixglo.com
                serial:A6:DB:C6:83:80:E6:A0:79

            X509v3 Extended Key Usage: 
                TLS Web Client Authentication
            X509v3 Key Usage: 
                Digital Signature
    Signature Algorithm: sha1WithRSAEncryption
         9a:ee:f0:1c:72:b0:3b:10:b0:b1:7a:7b:7f:87:63:eb:de:de:
         b5:18:d8:5c:e9:ad:d6:7d:74:f4:aa:a7:89:4b:13:20:80:ac:
         bc:34:e3:3d:8a:f0:6d:e3:fe:53:da:fc:36:51:f3:0c:54:00:
         6c:f6:b7:b6:5e:97:a4:ce:f2:62:74:ee:79:f9:b9:9a:9d:1a:
         d2:bc:12:3f:29:2e:d3:4c:3a:93:13:96:b5:1a:90:21:c3:bd:
         b2:84:f0:25:49:73:c3:9a:00:b4:52:74:3e:07:ff:70:d7:82:
         fd:41:4b:bd:fc:b9:f6:bb:2f:af:73:f1:ed:de:ea:87:91:5e:
         24:a9:5c:8c:06:19:b3:dd:e2:f3:7e:f7:e3:48:c5:83:4d:2e:
         0e:df:56:e5:11:27:de:9f:3a:a4:ce:ee:a4:de:6c:a4:f0:38:
         cb:62:f4:4a:69:f0:36:d8:5b:9d:77:dc:e1:28:66:50:b5:a0:
         10:a9:d3:66:18:81:c7:5b:77:c3:16:fd:0d:9a:07:ed:a0:dd:
         a2:92:32:44:c6:ba:e5:7e:70:38:87:36:97:70:7e:1d:b0:e3:
         62:73:62:37:09:78:3f:ba:52:80:67:a0:41:48:56:9d:40:2e:
         43:d4:90:72:45:5e:3e:80:91:a2:4b:78:7d:ed:31:88:1d:b2:
         5c:53:a4:f4:e0:b7:38:31:b8:7b:c7:ab:9a:27:25:31:03:84:
         af:9d:ff:80:73:65:62:d9:53:cc:f6:77:19:69:47:5f:56:ef:
         f0:94:52:5c:d9:36:83:ed:20:c7:6f:a9:7c:64:9e:26:d0:73:
         98:f8:24:79:b2:ff:8f:49:c9:93:a4:97:93:4a:fe:d4:54:2c:
         9e:0a:6e:88:10:a1:90:77:ca:0c:b4:e3:4e:2f:7a:49:0c:a6:
         e8:2b:16:bb:db:96:1f:ba:a6:aa:30:fa:37:5e:7e:30:f9:71:
         c9:a2:5e:fd:97:9f:3b:ca:ec:b6:86:1e:2c:20:53:e7:1d:1e:
         d1:99:be:86:df:52:c7:0d:23:be:2b:e6:9a:f9:8f:3b:b4:54:
         58:21:b8:61:97:39:38:e2:2c:9d:aa:79:12:19:55:a6:05:9f:
         45:20:6c:2e:a2:c3:fd:87:92:67:59:53:0e:4a:34:3e:0e:a0:
         3e:3e:67:5c:41:21:ab:2d:3e:0e:36:10:a0:90:10:45:2f:80:
         20:79:4a:50:12:8e:11:16:0f:9c:bc:0b:2b:c1:fc:e5:97:fb:
         bd:23:98:f3:36:26:68:12:7c:59:8a:2b:b1:bc:b5:30:3c:15:
         85:28:8b:5d:6d:94:da:93:de:47:02:cd:14:00:33:fa:1a:22:
         63:21:ed:76:c8:d6:95:71
-----BEGIN CERTIFICATE-----
MIIHSDCCBTCgAwIBAgICAQUwDQYJKoZIhvcNAQEFBQAwgbQxCzAJBgNVBAYTAlVT
MQswCQYDVQQIEwJDQTEVMBMGA1UEBxMMU2FuRnJhbmNpc2NvMRUwEwYDVQQKEwxQ
aXhnbG8sIEluYy4xEDAOBgNVBAsTB1ZQTi1DSUUxGjAYBgNVBAMTEXR1bm5lbC5w
aXhnbG8uY29tMRwwGgYDVQQpExNCYWxhIENoYW5kcmFzZWthcmFuMR4wHAYJKoZI
hvcNAQkBFg9iYWxhQHBpeGdsby5jb20wHhcNMTgwMjE0MDYyOTI3WhcNMjgwMjEy
MDYyOTI3WjCBqTELMAkGA1UEBhMCVVMxCzAJBgNVBAgTAkNBMRUwEwYDVQQHEwxT
YW5GcmFuY2lzY28xFTATBgNVBAoTDFBpeGdsbywgSW5jLjEQMA4GA1UECxMHVlBO
LUNJRTEPMA0GA1UEAxMGY2llMjYwMRwwGgYDVQQpExNCYWxhIENoYW5kcmFzZWth
cmFuMR4wHAYJKoZIhvcNAQkBFg9iYWxhQHBpeGdsby5jb20wggIiMA0GCSqGSIb3
DQEBAQUAA4ICDwAwggIKAoICAQChJmQsnrqexbzNPHOdvBssl5IjOmE+nxU2vXQe
DURsyJ4wURa45Cyvw55ztWuQVNZDq90jj5pBy/PIcxqaMLmnKq0uNq0oW10I/R8y
Oo60DIHtL3ZRFVEqtVYkGok7xghml3ZqJZ9B1WogUhynzbICrp4UEUzG5IbzwYuW
DENdu003iutoy4WGKPT/xh5aGdvgHKnnwTEXR67aNWqVnCR7bHjrpRhtCybTDF31
AjHZ8cHG73EVn9RU9KZOTurplZGO6isyx7kt5ZUrfcdiOjWJVcHGYhXO1uHFXhxK
v9FIDXhmIkfR2ykMzY42NsJPprdJyi3r1n2KYNECNUE/7V2+DI08LLty1a8C1ZVQ
oR6trzkN78NUAzEWsJlwu543f7CK/MPLfRNVxUpg7PCZ8PMKmFoBWBj90tclhrty
7zP51DORhEAhKAZkJG1Rxfl46V9oWLcsE5Y04JQkFhINNb7ZqjWWmRgAjtnAG2C9
RVQggpU7ooYcKzaznPr0poHrGNFcpwwO6pGZkQqGuvrfjQLtj0eDfT0oSgFkEZxi
y05A4hkKbOK6T5xB1Qja0it+kMndYazRDAN6xv3yprlB5eDk2JiQhCzL/TDopJma
u342mYLyOuSWEqk+FpdqZhdV8Xb+ByqEJwnmzEWmZaAytMeb9xUcRi9KOiQwgbqs
FKv0KwIDAQABo4IBazCCAWcwCQYDVR0TBAIwADAtBglghkgBhvhCAQ0EIBYeRWFz
eS1SU0EgR2VuZXJhdGVkIENlcnRpZmljYXRlMB0GA1UdDgQWBBThzygyGSIDypIl
swVYCbRWgXxb4TCB6QYDVR0jBIHhMIHegBTvOI0UUFinW02cF3L837msp1GwEKGB
uqSBtzCBtDELMAkGA1UEBhMCVVMxCzAJBgNVBAgTAkNBMRUwEwYDVQQHEwxTYW5G
cmFuY2lzY28xFTATBgNVBAoTDFBpeGdsbywgSW5jLjEQMA4GA1UECxMHVlBOLUNJ
RTEaMBgGA1UEAxMRdHVubmVsLnBpeGdsby5jb20xHDAaBgNVBCkTE0JhbGEgQ2hh
bmRyYXNla2FyYW4xHjAcBgkqhkiG9w0BCQEWD2JhbGFAcGl4Z2xvLmNvbYIJAKbb
xoOA5qB5MBMGA1UdJQQMMAoGCCsGAQUFBwMCMAsGA1UdDwQEAwIHgDANBgkqhkiG
9w0BAQUFAAOCAgEAmu7wHHKwOxCwsXp7f4dj697etRjYXOmt1n109KqniUsTIICs
vDTjPYrwbeP+U9r8NlHzDFQAbPa3tl6XpM7yYnTuefm5mp0a0rwSPyku00w6kxOW
tRqQIcO9soTwJUlzw5oAtFJ0Pgf/cNeC/UFLvfy59rsvr3Px7d7qh5FeJKlcjAYZ
s93i837340jFg00uDt9W5REn3p86pM7upN5spPA4y2L0SmnwNthbnXfc4ShmULWg
EKnTZhiBx1t3wxb9DZoH7aDdopIyRMa65X5wOIc2l3B+HbDjYnNiNwl4P7pSgGeg
QUhWnUAuQ9SQckVePoCRokt4fe0xiB2yXFOk9OC3ODG4e8ermiclMQOEr53/gHNl
YtlTzPZ3GWlHX1bv8JRSXNk2g+0gx2+pfGSeJtBzmPgkebL/j0nJk6SXk0r+1FQs
ngpuiBChkHfKDLTjTi96SQym6CsWu9uWH7qmqjD6N15+MPlxyaJe/ZefO8rstoYe
LCBT5x0e0Zm+ht9Sxw0jvivmmvmPO7RUWCG4YZc5OOIsnap5EhlVpgWfRSBsLqLD
/YeSZ1lTDko0Pg6gPj5nXEEhqy0+DjYQoJAQRS+AIHlKUBKOERYPnLwLK8H85Zf7
vSOY8zYmaBJ8WYorsby1MDwVhSiLXW2U2pPeRwLNFAAz+hoiYyHtdsjWlXE=
-----END CERTIFICATE-----
