Certificate:
    Data:
        Version: 3 (0x2)
        Serial Number: 268 (0x10c)
    Signature Algorithm: sha1WithRSAEncryption
        Issuer: C=US, ST=CA, L=SanFrancisco, O=Pixglo, Inc., OU=VPN-CIE, CN=tunnel.pixglo.com/name=Bala Chandrasekaran/emailAddress=bala@pixglo.com
        Validity
            Not Before: Feb 14 06:29:31 2018 GMT
            Not After : Feb 12 06:29:31 2028 GMT
        Subject: C=US, ST=CA, L=SanFrancisco, O=Pixglo, Inc., OU=VPN-CIE, CN=cie267/name=Bala Chandrasekaran/emailAddress=bala@pixglo.com
        Subject Public Key Info:
            Public Key Algorithm: rsaEncryption
                Public-Key: (4096 bit)
                Modulus:
                    00:91:41:c9:4f:56:ce:c3:fb:e8:d4:01:ad:f4:d2:
                    68:a0:a7:c0:89:15:20:66:56:7e:07:1d:f1:1f:25:
                    13:d6:12:a5:52:23:05:ee:ed:83:e0:f1:32:29:80:
                    57:e9:23:06:3b:e0:c1:79:82:af:ba:7e:d6:c9:dd:
                    8c:08:e2:ce:27:7c:f4:48:c6:06:97:8c:3c:59:b4:
                    5e:6e:ac:64:4e:f6:98:ee:88:fb:29:e4:67:34:90:
                    cc:9c:68:53:43:4f:b3:e2:23:bf:bb:04:18:a5:b2:
                    eb:05:66:ce:aa:a3:ee:2a:5e:2f:d8:9d:24:de:bf:
                    36:06:9e:ab:a4:c7:f4:c0:ba:03:4a:8c:e6:94:71:
                    fe:ba:a7:88:5d:62:73:e0:8c:60:ef:42:30:5e:c8:
                    24:76:e6:85:73:46:b9:8b:79:5d:46:f0:a9:71:25:
                    ae:68:0f:7d:d3:0c:a9:2c:0b:44:25:f2:62:da:86:
                    e9:24:64:2f:32:88:f9:17:19:33:75:11:7b:b5:7b:
                    4b:d6:1f:7f:7a:04:35:7e:e6:7e:8e:02:37:1a:49:
                    97:63:77:73:f2:8b:37:e0:31:c3:04:2f:92:41:b0:
                    2d:7b:36:bf:1e:4a:d7:59:eb:e0:80:90:17:50:ea:
                    f9:c8:31:20:e8:6a:97:7e:e1:f9:96:a1:7a:85:d1:
                    46:ac:4d:f8:21:b4:93:b6:99:2c:d0:28:88:c4:9f:
                    ad:e4:a1:18:f9:0c:f8:23:b0:ef:d0:15:a9:5d:3b:
                    b2:4d:19:8e:88:f7:f0:14:dc:d5:67:d2:66:0b:b5:
                    fa:58:78:86:6c:66:75:7e:47:0a:5c:29:e5:31:1a:
                    78:41:de:03:6c:4e:26:ef:e6:96:1f:93:98:87:a0:
                    f6:ee:76:5b:c9:b2:fd:a7:39:c7:b1:bc:79:ad:a7:
                    52:e6:40:01:5a:8c:e1:89:24:33:28:ee:3f:8e:10:
                    cb:80:aa:56:3d:81:ab:7b:f0:d0:af:2b:c1:4b:7d:
                    61:49:15:e6:ea:1d:50:25:15:ba:37:c0:52:45:b9:
                    db:5d:23:16:b1:ae:55:3f:b7:0f:40:82:9d:46:f0:
                    93:46:f1:0f:cb:10:52:4e:5c:46:d3:c0:ff:30:41:
                    6a:8c:6c:90:0a:2c:fa:f7:bf:5f:83:1c:43:13:b3:
                    4e:9f:8e:f6:00:b7:85:5b:33:4c:bb:8c:f6:6d:75:
                    c0:43:a8:0e:43:ec:12:3d:98:e3:f4:46:46:5a:b7:
                    87:a0:ba:46:9a:a9:2d:53:2b:96:95:5c:c5:8a:b1:
                    95:a8:ce:43:8c:4a:9e:9b:bd:80:a0:eb:8c:7c:26:
                    a9:dd:1a:81:d4:b4:74:a2:54:a0:74:80:b2:7a:9c:
                    28:33:99
                Exponent: 65537 (0x10001)
        X509v3 extensions:
            X509v3 Basic Constraints: 
                CA:FALSE
            Netscape Comment: 
                Easy-RSA Generated Certificate
            X509v3 Subject Key Identifier: 
                6C:B7:FA:E8:52:85:BB:8B:1F:AE:B1:8E:2A:AD:22:48:96:0D:B0:7B
            X509v3 Authority Key Identifier: 
                keyid:EF:38:8D:14:50:58:A7:5B:4D:9C:17:72:FC:DF:B9:AC:A7:51:B0:10
                DirName:/C=US/ST=CA/L=SanFrancisco/O=Pixglo, Inc./OU=VPN-CIE/CN=tunnel.pixglo.com/name=Bala Chandrasekaran/emailAddress=bala@pixglo.com
                serial:A6:DB:C6:83:80:E6:A0:79

            X509v3 Extended Key Usage: 
                TLS Web Client Authentication
            X509v3 Key Usage: 
                Digital Signature
    Signature Algorithm: sha1WithRSAEncryption
         aa:af:15:df:63:83:02:a3:8d:98:11:85:32:72:a2:66:a4:4a:
         f7:cd:8d:49:6f:9c:f5:13:ae:35:82:05:19:97:75:05:2d:4f:
         98:3e:cc:b4:df:2b:74:06:8d:e4:d0:a0:e4:2f:71:70:70:b1:
         68:e7:cd:6a:4b:18:aa:e1:0c:ff:5b:da:4d:5e:b8:95:a4:34:
         e2:98:69:22:61:85:1c:31:91:52:50:73:9a:d9:22:9b:a9:5b:
         2a:91:f3:41:64:7a:7b:e5:bd:8b:ed:57:ed:47:22:58:75:04:
         e7:00:94:50:8f:db:22:5a:69:84:6a:76:f6:8c:8c:a9:b1:09:
         60:57:90:7e:8e:2d:9e:77:f0:87:9d:22:0c:d1:5c:6d:23:3c:
         de:86:45:43:cc:91:11:49:7a:2c:4c:cf:40:16:f0:6d:f9:fe:
         b6:6a:57:04:1a:5f:d4:73:43:1e:0b:32:7b:69:53:4c:94:50:
         4b:f6:53:74:2d:d0:ef:28:98:14:fb:05:cb:7f:a1:a2:e8:d6:
         32:a7:31:0a:ba:19:11:24:0d:1a:a6:48:34:fb:6c:04:b6:34:
         b4:7b:9f:80:a2:82:eb:be:43:66:f3:7d:1f:16:3f:31:b1:84:
         fc:0a:ac:69:3b:ab:20:86:73:56:3f:8a:9e:a7:22:57:03:75:
         87:9c:29:ac:e6:d6:2d:b2:25:c9:81:b4:dc:e4:84:33:4b:d1:
         ab:3b:37:a1:a2:5f:ba:ee:7c:c8:e8:c1:ad:37:e9:db:14:e0:
         af:34:24:c4:d2:7d:53:1b:80:eb:01:4e:f3:89:c0:81:1a:da:
         49:82:4e:2e:7d:a9:cf:47:15:ec:da:bf:7c:4d:9f:6c:a7:cc:
         d3:3a:10:3b:f6:4b:87:c0:54:ab:d9:a3:d2:9a:5f:a8:18:b9:
         ee:b2:2b:a3:97:11:0f:74:aa:d5:d9:95:6d:1b:16:76:72:18:
         99:de:84:f2:02:09:75:9a:91:51:2e:a8:aa:07:76:68:3e:17:
         83:4c:de:e3:1d:c5:c9:54:3c:80:8d:5b:11:52:2c:a3:39:aa:
         07:8e:7c:eb:ff:34:8c:1b:62:87:ce:e1:e8:11:2a:96:61:7f:
         2d:c2:fb:04:94:ab:3e:cf:2f:27:01:e7:46:0a:8a:e6:4d:00:
         e8:3b:bb:57:4d:07:45:b3:c1:32:4c:5c:47:d0:2a:41:0c:7a:
         c4:59:aa:76:d3:36:c4:53:09:19:0b:44:d4:66:e1:9d:f3:26:
         e0:cf:a2:18:82:74:17:b4:8f:db:ca:0a:97:7b:82:2e:42:b6:
         4a:4a:69:5e:62:9f:e3:28:4d:0e:4a:ce:13:f2:3c:51:a7:36:
         49:16:84:54:b6:a9:a9:4e
-----BEGIN CERTIFICATE-----
MIIHSDCCBTCgAwIBAgICAQwwDQYJKoZIhvcNAQEFBQAwgbQxCzAJBgNVBAYTAlVT
MQswCQYDVQQIEwJDQTEVMBMGA1UEBxMMU2FuRnJhbmNpc2NvMRUwEwYDVQQKEwxQ
aXhnbG8sIEluYy4xEDAOBgNVBAsTB1ZQTi1DSUUxGjAYBgNVBAMTEXR1bm5lbC5w
aXhnbG8uY29tMRwwGgYDVQQpExNCYWxhIENoYW5kcmFzZWthcmFuMR4wHAYJKoZI
hvcNAQkBFg9iYWxhQHBpeGdsby5jb20wHhcNMTgwMjE0MDYyOTMxWhcNMjgwMjEy
MDYyOTMxWjCBqTELMAkGA1UEBhMCVVMxCzAJBgNVBAgTAkNBMRUwEwYDVQQHEwxT
YW5GcmFuY2lzY28xFTATBgNVBAoTDFBpeGdsbywgSW5jLjEQMA4GA1UECxMHVlBO
LUNJRTEPMA0GA1UEAxMGY2llMjY3MRwwGgYDVQQpExNCYWxhIENoYW5kcmFzZWth
cmFuMR4wHAYJKoZIhvcNAQkBFg9iYWxhQHBpeGdsby5jb20wggIiMA0GCSqGSIb3
DQEBAQUAA4ICDwAwggIKAoICAQCRQclPVs7D++jUAa300migp8CJFSBmVn4HHfEf
JRPWEqVSIwXu7YPg8TIpgFfpIwY74MF5gq+6ftbJ3YwI4s4nfPRIxgaXjDxZtF5u
rGRO9pjuiPsp5Gc0kMycaFNDT7PiI7+7BBilsusFZs6qo+4qXi/YnSTevzYGnquk
x/TAugNKjOaUcf66p4hdYnPgjGDvQjBeyCR25oVzRrmLeV1G8KlxJa5oD33TDKks
C0Ql8mLahukkZC8yiPkXGTN1EXu1e0vWH396BDV+5n6OAjcaSZdjd3PyizfgMcME
L5JBsC17Nr8eStdZ6+CAkBdQ6vnIMSDoapd+4fmWoXqF0UasTfghtJO2mSzQKIjE
n63koRj5DPgjsO/QFaldO7JNGY6I9/AU3NVn0mYLtfpYeIZsZnV+RwpcKeUxGnhB
3gNsTibv5pYfk5iHoPbudlvJsv2nOcexvHmtp1LmQAFajOGJJDMo7j+OEMuAqlY9
gat78NCvK8FLfWFJFebqHVAlFbo3wFJFudtdIxaxrlU/tw9Agp1G8JNG8Q/LEFJO
XEbTwP8wQWqMbJAKLPr3v1+DHEMTs06fjvYAt4VbM0y7jPZtdcBDqA5D7BI9mOP0
RkZat4egukaaqS1TK5aVXMWKsZWozkOMSp6bvYCg64x8JqndGoHUtHSiVKB0gLJ6
nCgzmQIDAQABo4IBazCCAWcwCQYDVR0TBAIwADAtBglghkgBhvhCAQ0EIBYeRWFz
eS1SU0EgR2VuZXJhdGVkIENlcnRpZmljYXRlMB0GA1UdDgQWBBRst/roUoW7ix+u
sY4qrSJIlg2wezCB6QYDVR0jBIHhMIHegBTvOI0UUFinW02cF3L837msp1GwEKGB
uqSBtzCBtDELMAkGA1UEBhMCVVMxCzAJBgNVBAgTAkNBMRUwEwYDVQQHEwxTYW5G
cmFuY2lzY28xFTATBgNVBAoTDFBpeGdsbywgSW5jLjEQMA4GA1UECxMHVlBOLUNJ
RTEaMBgGA1UEAxMRdHVubmVsLnBpeGdsby5jb20xHDAaBgNVBCkTE0JhbGEgQ2hh
bmRyYXNla2FyYW4xHjAcBgkqhkiG9w0BCQEWD2JhbGFAcGl4Z2xvLmNvbYIJAKbb
xoOA5qB5MBMGA1UdJQQMMAoGCCsGAQUFBwMCMAsGA1UdDwQEAwIHgDANBgkqhkiG
9w0BAQUFAAOCAgEAqq8V32ODAqONmBGFMnKiZqRK982NSW+c9ROuNYIFGZd1BS1P
mD7MtN8rdAaN5NCg5C9xcHCxaOfNaksYquEM/1vaTV64laQ04phpImGFHDGRUlBz
mtkim6lbKpHzQWR6e+W9i+1X7UciWHUE5wCUUI/bIlpphGp29oyMqbEJYFeQfo4t
nnfwh50iDNFcbSM83oZFQ8yREUl6LEzPQBbwbfn+tmpXBBpf1HNDHgsye2lTTJRQ
S/ZTdC3Q7yiYFPsFy3+houjWMqcxCroZESQNGqZINPtsBLY0tHufgKKC675DZvN9
HxY/MbGE/AqsaTurIIZzVj+KnqciVwN1h5wprObWLbIlyYG03OSEM0vRqzs3oaJf
uu58yOjBrTfp2xTgrzQkxNJ9UxuA6wFO84nAgRraSYJOLn2pz0cV7Nq/fE2fbKfM
0zoQO/ZLh8BUq9mj0ppfqBi57rIro5cRD3Sq1dmVbRsWdnIYmd6E8gIJdZqRUS6o
qgd2aD4Xg0ze4x3FyVQ8gI1bEVIsozmqB4586/80jBtih87h6BEqlmF/LcL7BJSr
Ps8vJwHnRgqK5k0A6Du7V00HRbPBMkxcR9AqQQx6xFmqdtM2xFMJGQtE1GbhnfMm
4M+iGIJ0F7SP28oKl3uCLkK2SkppXmKf4yhNDkrOE/I8Uac2SRaEVLapqU4=
-----END CERTIFICATE-----
