Certificate:
    Data:
        Version: 3 (0x2)
        Serial Number: 269 (0x10d)
    Signature Algorithm: sha1WithRSAEncryption
        Issuer: C=US, ST=CA, L=SanFrancisco, O=Pixglo, Inc., OU=VPN-CIE, CN=tunnel.pixglo.com/name=Bala Chandrasekaran/emailAddress=bala@pixglo.com
        Validity
            Not Before: Feb 14 06:29:33 2018 GMT
            Not After : Feb 12 06:29:33 2028 GMT
        Subject: C=US, ST=CA, L=SanFrancisco, O=Pixglo, Inc., OU=VPN-CIE, CN=cie268/name=Bala Chandrasekaran/emailAddress=bala@pixglo.com
        Subject Public Key Info:
            Public Key Algorithm: rsaEncryption
                Public-Key: (4096 bit)
                Modulus:
                    00:b6:6f:54:09:7e:e8:b6:1b:a8:c6:d1:d0:f8:a7:
                    3a:3c:85:fe:f2:15:34:a5:4c:e3:6f:92:68:2f:bb:
                    f7:a0:e5:a5:68:76:9a:22:1f:de:42:c3:4a:98:c6:
                    c4:60:22:d4:dc:96:11:cf:1a:95:74:ae:0a:65:b2:
                    0f:f8:bc:65:18:0c:93:f5:6b:aa:c1:cf:8c:87:0a:
                    6e:f3:06:34:f8:df:62:59:1a:5f:8f:85:7b:f5:32:
                    26:ac:07:20:32:26:11:7a:3f:6a:0f:dc:27:a5:cd:
                    73:f7:16:ba:67:9b:51:e7:b1:30:38:de:1f:80:33:
                    52:8d:36:a4:2a:0a:45:d2:af:b7:84:5a:a3:ba:48:
                    06:b6:cb:a5:cc:62:0d:99:63:b7:c4:84:05:c3:42:
                    5b:3a:f2:ab:1b:fa:7b:a9:f3:bc:83:64:b3:4a:39:
                    ec:0e:34:4d:68:67:18:d6:f1:1d:2a:e5:17:7c:4e:
                    39:c4:58:10:25:ba:23:d2:35:16:83:5b:eb:41:83:
                    07:f4:df:bc:d3:d8:a5:b5:c2:18:46:ae:39:8b:ff:
                    10:f6:1d:bc:03:f0:b7:d4:d1:08:8e:ec:9b:f6:d0:
                    07:88:0e:fb:d7:8f:04:0d:a0:ce:d9:f9:0f:ee:64:
                    5e:af:19:87:a3:8f:61:50:16:ae:e5:f7:2c:40:9c:
                    e1:fb:51:a7:56:11:a3:71:f3:8a:a8:92:24:30:a1:
                    9f:70:8c:e3:b4:5a:ee:6f:2c:fb:a4:5a:e7:5b:d1:
                    fb:5b:c1:ff:16:10:14:86:2c:53:fe:15:34:8f:ee:
                    4d:12:92:60:84:d8:85:73:06:55:ef:c0:eb:0f:b5:
                    32:fd:cd:23:45:21:50:39:2b:0f:64:8e:df:a7:eb:
                    db:98:c0:14:23:ff:49:b3:03:1b:fb:c8:30:09:d5:
                    71:ec:99:1d:f7:7e:91:27:ed:3a:bd:f1:74:20:b9:
                    be:07:c7:f2:37:3d:b3:ea:9b:60:50:31:f6:db:85:
                    c5:8b:ed:80:6b:0c:11:41:f6:58:c5:32:b4:4e:50:
                    7f:0c:4d:ba:0e:59:08:a1:15:d9:16:ac:ec:63:d6:
                    5c:d5:45:e5:60:15:46:a1:26:25:26:5a:16:36:81:
                    26:93:db:00:59:c6:e7:ba:80:8c:fc:35:c7:e1:d1:
                    7c:a7:e7:cb:60:65:19:4a:75:15:9e:d0:5e:e2:ed:
                    b1:8e:fb:31:93:c9:36:b5:01:3e:14:68:ed:a6:60:
                    03:e7:6c:03:fc:90:35:25:3f:0e:d0:63:cf:9c:62:
                    0f:40:47:12:07:5c:5d:0c:8e:57:78:e5:6e:7d:8f:
                    78:ce:d3:77:03:ac:32:fc:c6:e0:65:b8:b6:9c:26:
                    4f:c3:5d
                Exponent: 65537 (0x10001)
        X509v3 extensions:
            X509v3 Basic Constraints: 
                CA:FALSE
            Netscape Comment: 
                Easy-RSA Generated Certificate
            X509v3 Subject Key Identifier: 
                CA:D0:C7:41:68:8D:92:3E:D0:72:1F:FF:3A:53:53:A9:80:86:A8:A1
            X509v3 Authority Key Identifier: 
                keyid:EF:38:8D:14:50:58:A7:5B:4D:9C:17:72:FC:DF:B9:AC:A7:51:B0:10
                DirName:/C=US/ST=CA/L=SanFrancisco/O=Pixglo, Inc./OU=VPN-CIE/CN=tunnel.pixglo.com/name=Bala Chandrasekaran/emailAddress=bala@pixglo.com
                serial:A6:DB:C6:83:80:E6:A0:79

            X509v3 Extended Key Usage: 
                TLS Web Client Authentication
            X509v3 Key Usage: 
                Digital Signature
    Signature Algorithm: sha1WithRSAEncryption
         c7:0d:34:25:81:69:34:bd:9c:20:6b:80:88:fd:a1:1d:76:88:
         38:6f:ed:ae:98:d0:f9:0e:db:c2:24:1c:53:81:0f:85:ed:8d:
         5d:09:c3:5c:92:55:55:a1:bd:5d:1d:a2:7e:cc:12:2c:34:e3:
         92:c5:87:fc:2b:97:81:95:30:18:9f:d9:9e:d7:af:a0:a2:6f:
         7d:b0:e3:97:e3:cd:fb:d4:3b:66:07:db:00:cd:25:de:22:c8:
         f0:ed:bc:ec:a7:45:5a:36:fc:03:f6:6f:7b:b0:39:84:e5:0e:
         6f:07:07:28:70:ae:f6:6d:34:f0:ff:62:57:e5:be:2a:34:35:
         9e:e5:52:13:5f:4a:04:bb:26:5b:38:22:ea:14:de:dd:3c:95:
         06:6b:5e:4f:fa:1d:f3:a2:2d:d3:25:5a:b9:5e:b4:d6:f8:c3:
         3a:f7:10:66:3d:fb:df:e4:22:5f:34:88:4a:35:08:2d:08:eb:
         fe:e6:ea:32:18:8f:0e:e4:cc:02:b9:4f:51:67:f2:79:26:10:
         37:42:cc:aa:67:03:57:2d:ba:9b:d4:8d:08:a6:47:8b:49:2b:
         f8:64:57:45:34:4c:92:2b:1c:f2:f7:40:41:d8:82:d9:4a:4a:
         21:06:74:ba:93:ae:08:17:e5:75:20:45:87:8c:43:a0:f6:15:
         28:d4:59:d8:5d:4f:71:b4:8e:16:56:0f:24:f9:d5:14:d8:72:
         80:ba:7e:2d:32:92:60:d2:13:74:40:e1:92:fc:3a:c1:0c:ac:
         30:17:d8:d4:55:06:96:a6:05:9d:ba:c2:8e:6d:65:ea:98:e0:
         38:f2:ac:34:af:ac:cb:4b:8a:f9:b0:b4:0e:8f:a9:09:ac:98:
         5a:1c:f1:d4:cb:2c:1f:9f:52:b1:28:bd:ea:f3:40:eb:00:57:
         91:66:37:96:84:3e:54:b8:2c:e0:15:4b:f6:46:0f:57:d3:ee:
         96:f2:01:f9:db:35:30:c6:0c:77:2b:82:36:e4:bc:b3:ef:de:
         9f:0b:21:c7:2a:4b:a5:c7:37:04:b4:47:18:e0:35:ed:ba:76:
         aa:04:85:a5:0e:b3:2c:a7:dc:16:08:53:53:26:55:e1:e6:e4:
         37:aa:f8:2c:41:19:13:ae:11:33:69:ff:58:0b:87:c9:4c:0b:
         a9:a1:55:2f:97:5e:e1:19:94:1a:b7:d7:c1:68:59:4d:81:69:
         6a:20:31:35:8c:53:0c:27:c9:18:84:95:6c:96:73:db:01:4c:
         12:8d:36:b3:2b:54:ee:be:fc:af:da:ac:48:3c:49:e5:37:7e:
         9a:4f:04:b5:4f:c4:de:e0:b9:cb:34:b0:3c:2a:d8:5f:90:a7:
         08:c8:f7:a9:7b:60:25:1c
-----BEGIN CERTIFICATE-----
MIIHSDCCBTCgAwIBAgICAQ0wDQYJKoZIhvcNAQEFBQAwgbQxCzAJBgNVBAYTAlVT
MQswCQYDVQQIEwJDQTEVMBMGA1UEBxMMU2FuRnJhbmNpc2NvMRUwEwYDVQQKEwxQ
aXhnbG8sIEluYy4xEDAOBgNVBAsTB1ZQTi1DSUUxGjAYBgNVBAMTEXR1bm5lbC5w
aXhnbG8uY29tMRwwGgYDVQQpExNCYWxhIENoYW5kcmFzZWthcmFuMR4wHAYJKoZI
hvcNAQkBFg9iYWxhQHBpeGdsby5jb20wHhcNMTgwMjE0MDYyOTMzWhcNMjgwMjEy
MDYyOTMzWjCBqTELMAkGA1UEBhMCVVMxCzAJBgNVBAgTAkNBMRUwEwYDVQQHEwxT
YW5GcmFuY2lzY28xFTATBgNVBAoTDFBpeGdsbywgSW5jLjEQMA4GA1UECxMHVlBO
LUNJRTEPMA0GA1UEAxMGY2llMjY4MRwwGgYDVQQpExNCYWxhIENoYW5kcmFzZWth
cmFuMR4wHAYJKoZIhvcNAQkBFg9iYWxhQHBpeGdsby5jb20wggIiMA0GCSqGSIb3
DQEBAQUAA4ICDwAwggIKAoICAQC2b1QJfui2G6jG0dD4pzo8hf7yFTSlTONvkmgv
u/eg5aVodpoiH95Cw0qYxsRgItTclhHPGpV0rgplsg/4vGUYDJP1a6rBz4yHCm7z
BjT432JZGl+PhXv1MiasByAyJhF6P2oP3CelzXP3Frpnm1HnsTA43h+AM1KNNqQq
CkXSr7eEWqO6SAa2y6XMYg2ZY7fEhAXDQls68qsb+nup87yDZLNKOewONE1oZxjW
8R0q5Rd8TjnEWBAluiPSNRaDW+tBgwf037zT2KW1whhGrjmL/xD2HbwD8LfU0QiO
7Jv20AeIDvvXjwQNoM7Z+Q/uZF6vGYejj2FQFq7l9yxAnOH7UadWEaNx84qokiQw
oZ9wjOO0Wu5vLPukWudb0ftbwf8WEBSGLFP+FTSP7k0SkmCE2IVzBlXvwOsPtTL9
zSNFIVA5Kw9kjt+n69uYwBQj/0mzAxv7yDAJ1XHsmR33fpEn7Tq98XQgub4Hx/I3
PbPqm2BQMfbbhcWL7YBrDBFB9ljFMrROUH8MTboOWQihFdkWrOxj1lzVReVgFUah
JiUmWhY2gSaT2wBZxue6gIz8Ncfh0Xyn58tgZRlKdRWe0F7i7bGO+zGTyTa1AT4U
aO2mYAPnbAP8kDUlPw7QY8+cYg9ARxIHXF0Mjld45W59j3jO03cDrDL8xuBluLac
Jk/DXQIDAQABo4IBazCCAWcwCQYDVR0TBAIwADAtBglghkgBhvhCAQ0EIBYeRWFz
eS1SU0EgR2VuZXJhdGVkIENlcnRpZmljYXRlMB0GA1UdDgQWBBTK0MdBaI2SPtBy
H/86U1OpgIaooTCB6QYDVR0jBIHhMIHegBTvOI0UUFinW02cF3L837msp1GwEKGB
uqSBtzCBtDELMAkGA1UEBhMCVVMxCzAJBgNVBAgTAkNBMRUwEwYDVQQHEwxTYW5G
cmFuY2lzY28xFTATBgNVBAoTDFBpeGdsbywgSW5jLjEQMA4GA1UECxMHVlBOLUNJ
RTEaMBgGA1UEAxMRdHVubmVsLnBpeGdsby5jb20xHDAaBgNVBCkTE0JhbGEgQ2hh
bmRyYXNla2FyYW4xHjAcBgkqhkiG9w0BCQEWD2JhbGFAcGl4Z2xvLmNvbYIJAKbb
xoOA5qB5MBMGA1UdJQQMMAoGCCsGAQUFBwMCMAsGA1UdDwQEAwIHgDANBgkqhkiG
9w0BAQUFAAOCAgEAxw00JYFpNL2cIGuAiP2hHXaIOG/trpjQ+Q7bwiQcU4EPhe2N
XQnDXJJVVaG9XR2ifswSLDTjksWH/CuXgZUwGJ/ZntevoKJvfbDjl+PN+9Q7Zgfb
AM0l3iLI8O287KdFWjb8A/Zve7A5hOUObwcHKHCu9m008P9iV+W+KjQ1nuVSE19K
BLsmWzgi6hTe3TyVBmteT/od86It0yVauV601vjDOvcQZj373+QiXzSISjUILQjr
/ubqMhiPDuTMArlPUWfyeSYQN0LMqmcDVy26m9SNCKZHi0kr+GRXRTRMkisc8vdA
QdiC2UpKIQZ0upOuCBfldSBFh4xDoPYVKNRZ2F1PcbSOFlYPJPnVFNhygLp+LTKS
YNITdEDhkvw6wQysMBfY1FUGlqYFnbrCjm1l6pjgOPKsNK+sy0uK+bC0Do+pCayY
Whzx1MssH59SsSi96vNA6wBXkWY3loQ+VLgs4BVL9kYPV9PulvIB+ds1MMYMdyuC
NuS8s+/enwshxypLpcc3BLRHGOA17bp2qgSFpQ6zLKfcFghTUyZV4ebkN6r4LEEZ
E64RM2n/WAuHyUwLqaFVL5de4RmUGrfXwWhZTYFpaiAxNYxTDCfJGISVbJZz2wFM
Eo02sytU7r78r9qsSDxJ5Td+mk8EtU/E3uC5yzSwPCrYX5CnCMj3qXtgJRw=
-----END CERTIFICATE-----
