Certificate:
    Data:
        Version: 3 (0x2)
        Serial Number: 271 (0x10f)
    Signature Algorithm: sha1WithRSAEncryption
        Issuer: C=US, ST=CA, L=SanFrancisco, O=Pixglo, Inc., OU=VPN-CIE, CN=tunnel.pixglo.com/name=Bala Chandrasekaran/emailAddress=bala@pixglo.com
        Validity
            Not Before: Feb 14 06:29:36 2018 GMT
            Not After : Feb 12 06:29:36 2028 GMT
        Subject: C=US, ST=CA, L=SanFrancisco, O=Pixglo, Inc., OU=VPN-CIE, CN=cie270/name=Bala Chandrasekaran/emailAddress=bala@pixglo.com
        Subject Public Key Info:
            Public Key Algorithm: rsaEncryption
                Public-Key: (4096 bit)
                Modulus:
                    00:c7:c3:f2:1e:b5:36:c2:38:09:d8:f6:1c:a7:2b:
                    85:9c:54:fe:17:e8:54:3f:0f:ab:cf:43:20:ab:65:
                    91:6a:fe:4c:85:a8:72:0d:cf:ba:a9:8d:36:f5:47:
                    f9:c8:83:31:e1:a5:34:ad:e8:f6:68:56:f0:3b:c0:
                    aa:04:10:b2:42:65:6c:3d:bf:8f:e3:89:c8:14:c6:
                    e7:5a:03:72:ee:5a:8c:1a:43:cc:64:5e:a1:6b:4d:
                    bc:2b:6b:60:1e:e6:2d:cb:a5:39:23:d4:33:33:bc:
                    81:8b:ba:79:f7:79:13:6a:2f:43:dd:a8:14:21:49:
                    19:80:f8:0c:fd:53:72:58:51:c0:31:a8:e2:6c:82:
                    4b:4e:6a:4a:37:34:7f:e7:8c:cd:af:cd:95:2e:de:
                    ae:ce:66:a1:34:ff:85:58:e7:ae:c0:18:5d:79:92:
                    40:9c:8f:2c:38:ae:e6:62:ee:88:65:e7:71:c0:11:
                    74:3b:d4:50:fb:78:b9:29:77:ae:38:45:fa:49:37:
                    39:fb:9c:49:01:16:49:7f:57:13:21:04:bb:60:2b:
                    ac:81:f3:9a:2c:b6:9b:ee:7f:bd:00:dd:5f:2c:1e:
                    fa:3b:6a:29:42:ff:fb:20:5b:9a:3e:23:1b:06:10:
                    f7:58:e4:44:7a:53:13:c8:76:b8:8c:fb:f7:d1:1c:
                    d9:fd:81:df:e2:72:6d:61:fe:9c:fb:50:8f:42:5e:
                    56:5d:f0:ec:6e:37:4d:bd:79:c8:8b:39:16:2e:2d:
                    a4:12:62:7f:e9:5d:f7:30:a8:72:fb:d3:f5:a7:4a:
                    79:15:d4:86:b0:30:65:dc:9a:b1:59:e9:4a:08:72:
                    d4:00:4f:d6:e5:c7:ee:77:cf:37:2d:02:7a:0f:d8:
                    12:31:7d:cb:66:e8:db:3d:78:85:96:b3:27:13:a8:
                    55:ee:05:e7:ef:6f:42:58:fd:fe:95:d5:85:2b:65:
                    aa:1f:a4:ba:d3:a1:77:3f:c1:ce:94:05:bb:45:32:
                    2d:a9:fa:bb:da:a3:f5:c2:71:d7:98:b2:70:67:ba:
                    c5:ec:7c:1a:7f:af:5a:35:e3:35:a8:0d:e9:d4:c0:
                    78:85:30:17:53:a7:32:8c:39:f2:bc:d5:ee:c7:b9:
                    3c:8f:6f:64:68:f9:1e:15:8e:1d:31:01:36:b5:d7:
                    e9:8a:11:78:0f:e6:be:4f:fc:03:04:e2:16:10:cf:
                    91:1c:01:23:ff:71:aa:ba:82:c1:51:46:1a:0c:73:
                    00:07:0b:43:04:02:21:e9:1a:c1:d7:d0:b6:da:6f:
                    ce:78:91:87:e6:a4:8a:d7:5a:ab:03:11:ae:13:9a:
                    fe:24:62:91:f1:8f:cc:a7:4e:fc:09:ce:a6:d4:75:
                    e4:df:d5
                Exponent: 65537 (0x10001)
        X509v3 extensions:
            X509v3 Basic Constraints: 
                CA:FALSE
            Netscape Comment: 
                Easy-RSA Generated Certificate
            X509v3 Subject Key Identifier: 
                D2:30:F8:E7:85:99:FE:49:9A:EC:28:B7:56:15:37:AC:40:51:DE:5D
            X509v3 Authority Key Identifier: 
                keyid:EF:38:8D:14:50:58:A7:5B:4D:9C:17:72:FC:DF:B9:AC:A7:51:B0:10
                DirName:/C=US/ST=CA/L=SanFrancisco/O=Pixglo, Inc./OU=VPN-CIE/CN=tunnel.pixglo.com/name=Bala Chandrasekaran/emailAddress=bala@pixglo.com
                serial:A6:DB:C6:83:80:E6:A0:79

            X509v3 Extended Key Usage: 
                TLS Web Client Authentication
            X509v3 Key Usage: 
                Digital Signature
    Signature Algorithm: sha1WithRSAEncryption
         ad:1c:8b:fc:60:d5:47:21:bb:6f:25:dc:8d:75:b3:34:fc:10:
         8c:0c:bc:51:f9:01:62:01:22:34:0b:51:e2:3d:8b:27:5e:6d:
         65:a8:0a:a1:db:ce:f0:9c:87:88:58:03:15:a5:63:3d:23:f6:
         37:b7:67:2a:85:79:ec:67:36:23:6f:34:4a:67:0d:ee:89:24:
         6c:a2:97:10:16:06:aa:0a:91:eb:88:68:11:53:aa:5d:27:43:
         fe:cf:7c:83:54:7f:69:3b:38:d0:37:a5:a6:82:86:34:03:00:
         70:d3:f5:4b:85:d7:2b:c2:35:58:07:e2:4b:97:0a:5c:25:c7:
         11:67:f9:55:73:b7:07:cb:a6:9a:73:3a:23:c6:3b:eb:6a:7a:
         3f:a5:63:b9:09:56:78:91:57:6a:43:32:3d:5a:4d:b1:8d:2e:
         f7:9f:29:80:df:d2:3e:d0:d2:df:32:cb:b7:32:7b:f6:2a:2a:
         ef:55:a3:f2:90:fd:d4:ff:9e:fc:3e:00:48:64:37:8a:01:37:
         16:c3:08:5b:09:d7:93:5e:ee:98:5c:c6:a4:63:3a:ff:3a:27:
         2c:f1:22:66:22:d9:5f:8b:51:de:b5:ae:7a:da:ed:69:4e:6d:
         f9:3d:d3:b3:8c:da:6c:16:a0:ea:b8:71:c5:d6:37:3e:5a:2b:
         e3:8a:ed:de:4e:c4:14:84:5a:8a:fd:91:87:fd:ac:c9:f1:2d:
         00:68:fb:b8:50:df:3b:88:eb:9f:33:8e:55:f2:98:49:49:07:
         e0:bb:11:79:78:3c:be:5d:60:de:fa:5c:1a:d9:b2:3e:9e:05:
         e1:42:d0:63:43:b4:2e:c1:ba:b3:d5:13:61:b2:ed:5d:be:f4:
         29:71:29:08:b7:1d:b5:4a:e0:ae:80:e3:d8:2a:db:cd:b6:a6:
         d7:a2:eb:e2:a2:46:ee:63:c5:38:47:ed:c0:ff:b3:a2:bc:32:
         eb:5a:16:61:75:72:6f:41:de:33:b6:35:70:cc:5c:b0:df:fd:
         67:ea:ca:28:af:64:86:c0:74:b0:1a:8f:79:a9:fe:cc:4a:51:
         f5:02:41:ef:25:0a:2f:c4:be:15:b3:e6:12:fe:c1:1c:77:db:
         cb:f9:42:b0:34:98:29:95:f2:15:04:31:42:1a:63:c0:4c:58:
         c7:7a:c7:f1:1f:d4:3c:f8:e6:fe:fc:a1:20:02:df:35:29:61:
         53:d9:87:a6:a0:54:6e:7e:36:5d:fa:a1:f4:f1:1a:05:37:5b:
         15:11:e3:f3:3c:59:25:0a:eb:23:f5:ce:f4:6c:3f:67:36:bb:
         ed:45:30:17:e7:61:b7:d6:24:5c:97:91:31:68:d4:81:4f:84:
         21:58:a5:a7:01:4f:2c:ba
-----BEGIN CERTIFICATE-----
MIIHSDCCBTCgAwIBAgICAQ8wDQYJKoZIhvcNAQEFBQAwgbQxCzAJBgNVBAYTAlVT
MQswCQYDVQQIEwJDQTEVMBMGA1UEBxMMU2FuRnJhbmNpc2NvMRUwEwYDVQQKEwxQ
aXhnbG8sIEluYy4xEDAOBgNVBAsTB1ZQTi1DSUUxGjAYBgNVBAMTEXR1bm5lbC5w
aXhnbG8uY29tMRwwGgYDVQQpExNCYWxhIENoYW5kcmFzZWthcmFuMR4wHAYJKoZI
hvcNAQkBFg9iYWxhQHBpeGdsby5jb20wHhcNMTgwMjE0MDYyOTM2WhcNMjgwMjEy
MDYyOTM2WjCBqTELMAkGA1UEBhMCVVMxCzAJBgNVBAgTAkNBMRUwEwYDVQQHEwxT
YW5GcmFuY2lzY28xFTATBgNVBAoTDFBpeGdsbywgSW5jLjEQMA4GA1UECxMHVlBO
LUNJRTEPMA0GA1UEAxMGY2llMjcwMRwwGgYDVQQpExNCYWxhIENoYW5kcmFzZWth
cmFuMR4wHAYJKoZIhvcNAQkBFg9iYWxhQHBpeGdsby5jb20wggIiMA0GCSqGSIb3
DQEBAQUAA4ICDwAwggIKAoICAQDHw/IetTbCOAnY9hynK4WcVP4X6FQ/D6vPQyCr
ZZFq/kyFqHINz7qpjTb1R/nIgzHhpTSt6PZoVvA7wKoEELJCZWw9v4/jicgUxuda
A3LuWowaQ8xkXqFrTbwra2Ae5i3LpTkj1DMzvIGLunn3eRNqL0PdqBQhSRmA+Az9
U3JYUcAxqOJsgktOako3NH/njM2vzZUu3q7OZqE0/4VY567AGF15kkCcjyw4ruZi
7ohl53HAEXQ71FD7eLkpd644RfpJNzn7nEkBFkl/VxMhBLtgK6yB85ostpvuf70A
3V8sHvo7ailC//sgW5o+IxsGEPdY5ER6UxPIdriM+/fRHNn9gd/icm1h/pz7UI9C
XlZd8OxuN029eciLORYuLaQSYn/pXfcwqHL70/WnSnkV1IawMGXcmrFZ6UoIctQA
T9blx+53zzctAnoP2BIxfctm6Ns9eIWWsycTqFXuBefvb0JY/f6V1YUrZaofpLrT
oXc/wc6UBbtFMi2p+rvao/XCcdeYsnBnusXsfBp/r1o14zWoDenUwHiFMBdTpzKM
OfK81e7HuTyPb2Ro+R4Vjh0xATa11+mKEXgP5r5P/AME4hYQz5EcASP/caq6gsFR
RhoMcwAHC0MEAiHpGsHX0Lbab854kYfmpIrXWqsDEa4Tmv4kYpHxj8ynTvwJzqbU
deTf1QIDAQABo4IBazCCAWcwCQYDVR0TBAIwADAtBglghkgBhvhCAQ0EIBYeRWFz
eS1SU0EgR2VuZXJhdGVkIENlcnRpZmljYXRlMB0GA1UdDgQWBBTSMPjnhZn+SZrs
KLdWFTesQFHeXTCB6QYDVR0jBIHhMIHegBTvOI0UUFinW02cF3L837msp1GwEKGB
uqSBtzCBtDELMAkGA1UEBhMCVVMxCzAJBgNVBAgTAkNBMRUwEwYDVQQHEwxTYW5G
cmFuY2lzY28xFTATBgNVBAoTDFBpeGdsbywgSW5jLjEQMA4GA1UECxMHVlBOLUNJ
RTEaMBgGA1UEAxMRdHVubmVsLnBpeGdsby5jb20xHDAaBgNVBCkTE0JhbGEgQ2hh
bmRyYXNla2FyYW4xHjAcBgkqhkiG9w0BCQEWD2JhbGFAcGl4Z2xvLmNvbYIJAKbb
xoOA5qB5MBMGA1UdJQQMMAoGCCsGAQUFBwMCMAsGA1UdDwQEAwIHgDANBgkqhkiG
9w0BAQUFAAOCAgEArRyL/GDVRyG7byXcjXWzNPwQjAy8UfkBYgEiNAtR4j2LJ15t
ZagKodvO8JyHiFgDFaVjPSP2N7dnKoV57Gc2I280SmcN7okkbKKXEBYGqgqR64ho
EVOqXSdD/s98g1R/aTs40DelpoKGNAMAcNP1S4XXK8I1WAfiS5cKXCXHEWf5VXO3
B8ummnM6I8Y762p6P6VjuQlWeJFXakMyPVpNsY0u958pgN/SPtDS3zLLtzJ79ioq
71Wj8pD91P+e/D4ASGQ3igE3FsMIWwnXk17umFzGpGM6/zonLPEiZiLZX4tR3rWu
etrtaU5t+T3Ts4zabBag6rhxxdY3Plor44rt3k7EFIRaiv2Rh/2syfEtAGj7uFDf
O4jrnzOOVfKYSUkH4LsReXg8vl1g3vpcGtmyPp4F4ULQY0O0LsG6s9UTYbLtXb70
KXEpCLcdtUrgroDj2Crbzbam16Lr4qJG7mPFOEftwP+zorwy61oWYXVyb0HeM7Y1
cMxcsN/9Z+rKKK9khsB0sBqPean+zEpR9QJB7yUKL8S+FbPmEv7BHHfby/lCsDSY
KZXyFQQxQhpjwExYx3rH8R/UPPjm/vyhIALfNSlhU9mHpqBUbn42Xfqh9PEaBTdb
FRHj8zxZJQrrI/XO9Gw/Zza77UUwF+dht9YkXJeRMWjUgU+EIVilpwFPLLo=
-----END CERTIFICATE-----
