Certificate:
    Data:
        Version: 3 (0x2)
        Serial Number: 272 (0x110)
    Signature Algorithm: sha1WithRSAEncryption
        Issuer: C=US, ST=CA, L=SanFrancisco, O=Pixglo, Inc., OU=VPN-CIE, CN=tunnel.pixglo.com/name=Bala Chandrasekaran/emailAddress=bala@pixglo.com
        Validity
            Not Before: Feb 14 06:29:36 2018 GMT
            Not After : Feb 12 06:29:36 2028 GMT
        Subject: C=US, ST=CA, L=SanFrancisco, O=Pixglo, Inc., OU=VPN-CIE, CN=cie271/name=Bala Chandrasekaran/emailAddress=bala@pixglo.com
        Subject Public Key Info:
            Public Key Algorithm: rsaEncryption
                Public-Key: (4096 bit)
                Modulus:
                    00:bd:7c:fe:cf:3e:6d:30:26:5a:c1:7b:ea:c0:0f:
                    36:67:6e:3a:52:ed:ff:2b:2e:b1:c3:3f:65:36:06:
                    1e:60:5e:76:80:95:60:f2:ad:88:c1:7a:b8:49:ec:
                    ac:ee:40:b5:e3:6b:05:b2:a0:d8:08:11:31:8b:91:
                    38:48:54:8f:fa:d6:00:16:d8:23:a1:a2:d8:80:ee:
                    d6:34:05:15:a0:9f:b8:98:86:06:38:12:cd:1c:96:
                    64:e0:27:b3:58:bf:bc:74:d6:2e:a6:0a:95:b4:8a:
                    23:82:13:48:ac:ab:f0:7c:3b:d6:4b:5a:dc:d7:f8:
                    82:43:36:71:59:52:a3:89:99:21:dc:bb:4d:74:75:
                    46:97:b3:3e:88:d0:0c:e1:48:af:d1:21:a2:43:d6:
                    76:bf:4a:60:6d:c2:98:a6:0e:7f:26:a3:2c:43:d2:
                    44:5c:6a:8d:13:ba:85:61:ee:19:12:53:7c:17:9b:
                    6a:75:bd:01:63:1e:e4:ef:14:45:8c:be:06:6f:61:
                    5c:94:6d:07:55:0e:23:4f:a7:bf:4c:2d:41:ff:f1:
                    46:55:eb:6d:d1:c6:3c:ea:a0:a0:6c:9a:e1:77:94:
                    fd:8a:fe:e0:8d:ed:20:24:e4:c3:45:53:15:58:98:
                    3d:5e:fa:b0:0a:09:a7:8b:69:06:99:a6:81:07:13:
                    18:f1:08:a4:da:3d:2e:3c:a0:30:be:e6:21:c4:3b:
                    ea:0c:a8:c9:11:ea:28:b2:74:36:76:0e:ad:c1:6e:
                    8a:d5:5b:f4:50:9e:6e:0f:fc:d2:0a:5d:34:f5:4c:
                    1f:e9:a9:63:36:42:7a:6c:b1:82:85:cd:cd:3f:9b:
                    f8:ca:3a:b5:c9:09:1a:55:a3:e0:d3:b5:93:fe:95:
                    8d:14:87:25:cb:41:10:a6:0d:63:b7:e5:23:d9:92:
                    ff:6e:13:30:6b:ea:7e:d5:65:2c:03:a0:44:72:e6:
                    01:33:2e:41:c4:5a:ff:6d:f1:15:a1:47:8b:ed:e4:
                    50:dd:46:46:73:ed:71:fb:43:97:f5:71:6d:d8:99:
                    25:ef:21:71:cf:7b:ba:fb:6c:b6:05:66:65:8c:c9:
                    83:26:72:ef:c4:69:4a:9b:4f:ba:a0:ba:6c:4b:a1:
                    36:6c:96:9d:44:80:51:c1:a1:d6:e6:8a:f4:34:d8:
                    b8:e8:50:f2:f9:fb:5e:d3:50:1a:9c:b3:d1:25:79:
                    9f:6b:c5:6d:0f:6c:d4:77:4b:cc:22:7d:17:88:12:
                    13:5f:73:1e:8a:0f:1e:7a:2d:85:ce:72:8d:c9:26:
                    9e:8c:a8:33:a9:f6:ef:86:88:db:fe:82:36:db:1e:
                    a5:b8:b0:20:4d:18:40:32:94:d0:8f:f0:fe:37:ca:
                    51:9b:83
                Exponent: 65537 (0x10001)
        X509v3 extensions:
            X509v3 Basic Constraints: 
                CA:FALSE
            Netscape Comment: 
                Easy-RSA Generated Certificate
            X509v3 Subject Key Identifier: 
                77:0D:C8:66:7D:E0:9E:E2:E5:31:FA:DA:17:FA:85:B7:BA:2E:77:2D
            X509v3 Authority Key Identifier: 
                keyid:EF:38:8D:14:50:58:A7:5B:4D:9C:17:72:FC:DF:B9:AC:A7:51:B0:10
                DirName:/C=US/ST=CA/L=SanFrancisco/O=Pixglo, Inc./OU=VPN-CIE/CN=tunnel.pixglo.com/name=Bala Chandrasekaran/emailAddress=bala@pixglo.com
                serial:A6:DB:C6:83:80:E6:A0:79

            X509v3 Extended Key Usage: 
                TLS Web Client Authentication
            X509v3 Key Usage: 
                Digital Signature
    Signature Algorithm: sha1WithRSAEncryption
         58:9a:b7:bc:1c:d3:2c:0e:83:24:be:08:d7:57:2a:e5:e2:f3:
         9d:15:37:d3:3a:75:01:8e:4b:20:7a:f8:02:1f:d3:7d:9a:26:
         02:78:b0:15:09:43:a4:97:75:06:3e:4c:4c:15:82:d3:37:c5:
         d8:81:32:a8:92:4b:fb:82:9d:b2:cd:89:22:ec:b5:dc:4b:3c:
         4b:e8:1b:82:e2:03:74:4a:44:31:96:78:36:59:36:ba:76:b8:
         49:57:e7:20:61:4f:6d:69:c4:3a:b9:d7:7e:fb:d2:28:af:53:
         d0:42:56:c6:e9:1b:96:7f:b3:9a:55:78:d1:10:36:61:77:be:
         cd:c0:f5:f7:b2:a7:24:04:75:68:a1:2f:83:af:18:eb:f2:aa:
         2f:60:8c:74:b8:36:63:2e:3f:58:e8:7c:9e:82:40:46:10:22:
         1c:d8:4f:27:77:83:99:bc:a2:5d:74:7e:d3:96:e6:06:9e:02:
         dc:af:88:c8:b5:ac:c2:a6:df:86:bd:a4:d8:7a:f6:d0:3c:58:
         60:01:86:a2:ac:4f:f8:6d:cd:08:b3:2a:ba:37:86:b0:75:75:
         44:4c:1f:73:30:1e:ae:24:16:75:7c:95:35:4d:e1:66:5a:d9:
         f5:8f:37:ec:1d:2a:a9:b2:07:83:61:6c:98:6b:e0:26:f8:d6:
         57:99:1e:db:fb:70:31:a3:6f:ff:50:9b:82:1f:0f:1d:7e:60:
         40:c0:3a:67:bd:9c:e5:ce:3d:f6:54:cb:a1:ed:70:1f:fe:ba:
         4e:2c:63:3b:c5:82:25:09:2d:a3:7c:cc:4b:73:18:81:c2:0c:
         e4:05:fa:c9:18:12:3a:c0:a0:ab:08:73:75:2d:45:b0:fe:95:
         2f:d3:c7:45:f3:60:bb:06:c5:85:30:ad:d5:2e:04:89:04:46:
         4c:a6:7e:c9:35:53:ba:30:5a:d2:c1:0c:e9:f6:7f:e3:b8:02:
         54:4c:ff:9d:0a:1e:e1:48:df:13:88:6a:0b:ff:13:a5:31:f3:
         bb:3b:e1:86:4c:bd:56:d6:09:6e:0a:b9:0c:20:2e:c7:7e:5f:
         22:a0:02:5e:c6:f1:d3:fe:37:91:06:d0:68:3f:73:e3:83:3e:
         ac:26:bb:ad:4a:f9:7f:78:64:b8:eb:00:60:66:9a:20:a1:20:
         ee:e5:e9:27:ab:1e:fa:bb:ad:11:c1:da:dc:42:25:5d:df:83:
         8e:e2:93:5b:f6:df:7b:4e:0e:be:08:a6:73:cf:40:c7:02:77:
         c4:62:2a:6c:c1:b4:b6:e5:c5:aa:30:87:49:81:80:02:45:b8:
         bb:54:f2:ae:ee:21:78:1f:7d:54:16:b1:06:b4:da:59:14:20:
         a5:f8:b1:85:c3:95:71:d7
-----BEGIN CERTIFICATE-----
MIIHSDCCBTCgAwIBAgICARAwDQYJKoZIhvcNAQEFBQAwgbQxCzAJBgNVBAYTAlVT
MQswCQYDVQQIEwJDQTEVMBMGA1UEBxMMU2FuRnJhbmNpc2NvMRUwEwYDVQQKEwxQ
aXhnbG8sIEluYy4xEDAOBgNVBAsTB1ZQTi1DSUUxGjAYBgNVBAMTEXR1bm5lbC5w
aXhnbG8uY29tMRwwGgYDVQQpExNCYWxhIENoYW5kcmFzZWthcmFuMR4wHAYJKoZI
hvcNAQkBFg9iYWxhQHBpeGdsby5jb20wHhcNMTgwMjE0MDYyOTM2WhcNMjgwMjEy
MDYyOTM2WjCBqTELMAkGA1UEBhMCVVMxCzAJBgNVBAgTAkNBMRUwEwYDVQQHEwxT
YW5GcmFuY2lzY28xFTATBgNVBAoTDFBpeGdsbywgSW5jLjEQMA4GA1UECxMHVlBO
LUNJRTEPMA0GA1UEAxMGY2llMjcxMRwwGgYDVQQpExNCYWxhIENoYW5kcmFzZWth
cmFuMR4wHAYJKoZIhvcNAQkBFg9iYWxhQHBpeGdsby5jb20wggIiMA0GCSqGSIb3
DQEBAQUAA4ICDwAwggIKAoICAQC9fP7PPm0wJlrBe+rADzZnbjpS7f8rLrHDP2U2
Bh5gXnaAlWDyrYjBerhJ7KzuQLXjawWyoNgIETGLkThIVI/61gAW2COhotiA7tY0
BRWgn7iYhgY4Es0clmTgJ7NYv7x01i6mCpW0iiOCE0isq/B8O9ZLWtzX+IJDNnFZ
UqOJmSHcu010dUaXsz6I0AzhSK/RIaJD1na/SmBtwpimDn8moyxD0kRcao0TuoVh
7hkSU3wXm2p1vQFjHuTvFEWMvgZvYVyUbQdVDiNPp79MLUH/8UZV623RxjzqoKBs
muF3lP2K/uCN7SAk5MNFUxVYmD1e+rAKCaeLaQaZpoEHExjxCKTaPS48oDC+5iHE
O+oMqMkR6iiydDZ2Dq3BborVW/RQnm4P/NIKXTT1TB/pqWM2QnpssYKFzc0/m/jK
OrXJCRpVo+DTtZP+lY0UhyXLQRCmDWO35SPZkv9uEzBr6n7VZSwDoERy5gEzLkHE
Wv9t8RWhR4vt5FDdRkZz7XH7Q5f1cW3YmSXvIXHPe7r7bLYFZmWMyYMmcu/EaUqb
T7qgumxLoTZslp1EgFHBodbmivQ02LjoUPL5+17TUBqcs9EleZ9rxW0PbNR3S8wi
fReIEhNfcx6KDx56LYXOco3JJp6MqDOp9u+GiNv+gjbbHqW4sCBNGEAylNCP8P43
ylGbgwIDAQABo4IBazCCAWcwCQYDVR0TBAIwADAtBglghkgBhvhCAQ0EIBYeRWFz
eS1SU0EgR2VuZXJhdGVkIENlcnRpZmljYXRlMB0GA1UdDgQWBBR3DchmfeCe4uUx
+toX+oW3ui53LTCB6QYDVR0jBIHhMIHegBTvOI0UUFinW02cF3L837msp1GwEKGB
uqSBtzCBtDELMAkGA1UEBhMCVVMxCzAJBgNVBAgTAkNBMRUwEwYDVQQHEwxTYW5G
cmFuY2lzY28xFTATBgNVBAoTDFBpeGdsbywgSW5jLjEQMA4GA1UECxMHVlBOLUNJ
RTEaMBgGA1UEAxMRdHVubmVsLnBpeGdsby5jb20xHDAaBgNVBCkTE0JhbGEgQ2hh
bmRyYXNla2FyYW4xHjAcBgkqhkiG9w0BCQEWD2JhbGFAcGl4Z2xvLmNvbYIJAKbb
xoOA5qB5MBMGA1UdJQQMMAoGCCsGAQUFBwMCMAsGA1UdDwQEAwIHgDANBgkqhkiG
9w0BAQUFAAOCAgEAWJq3vBzTLA6DJL4I11cq5eLznRU30zp1AY5LIHr4Ah/TfZom
AniwFQlDpJd1Bj5MTBWC0zfF2IEyqJJL+4Kdss2JIuy13Es8S+gbguIDdEpEMZZ4
Nlk2una4SVfnIGFPbWnEOrnXfvvSKK9T0EJWxukbln+zmlV40RA2YXe+zcD197Kn
JAR1aKEvg68Y6/KqL2CMdLg2Yy4/WOh8noJARhAiHNhPJ3eDmbyiXXR+05bmBp4C
3K+IyLWswqbfhr2k2Hr20DxYYAGGoqxP+G3NCLMqujeGsHV1REwfczAeriQWdXyV
NU3hZlrZ9Y837B0qqbIHg2FsmGvgJvjWV5ke2/twMaNv/1Cbgh8PHX5gQMA6Z72c
5c499lTLoe1wH/66TixjO8WCJQkto3zMS3MYgcIM5AX6yRgSOsCgqwhzdS1FsP6V
L9PHRfNguwbFhTCt1S4EiQRGTKZ+yTVTujBa0sEM6fZ/47gCVEz/nQoe4UjfE4hq
C/8TpTHzuzvhhky9VtYJbgq5DCAux35fIqACXsbx0/43kQbQaD9z44M+rCa7rUr5
f3hkuOsAYGaaIKEg7uXpJ6se+rutEcHa3EIlXd+DjuKTW/bfe04Ovgimc89AxwJ3
xGIqbMG0tuXFqjCHSYGAAkW4u1Tyru4heB99VBaxBrTaWRQgpfixhcOVcdc=
-----END CERTIFICATE-----
