Certificate:
    Data:
        Version: 3 (0x2)
        Serial Number: 275 (0x113)
    Signature Algorithm: sha1WithRSAEncryption
        Issuer: C=US, ST=CA, L=SanFrancisco, O=Pixglo, Inc., OU=VPN-CIE, CN=tunnel.pixglo.com/name=Bala Chandrasekaran/emailAddress=bala@pixglo.com
        Validity
            Not Before: Feb 14 06:29:40 2018 GMT
            Not After : Feb 12 06:29:40 2028 GMT
        Subject: C=US, ST=CA, L=SanFrancisco, O=Pixglo, Inc., OU=VPN-CIE, CN=cie274/name=Bala Chandrasekaran/emailAddress=bala@pixglo.com
        Subject Public Key Info:
            Public Key Algorithm: rsaEncryption
                Public-Key: (4096 bit)
                Modulus:
                    00:b5:52:e4:8f:28:c2:f1:70:42:a2:65:d3:66:e8:
                    2e:60:af:90:ae:02:e1:29:51:19:ee:b3:5f:a9:db:
                    2b:9d:f7:25:eb:51:19:8c:00:34:d4:5e:37:1a:6b:
                    20:c7:d2:f7:67:8b:9e:ee:3a:13:b9:5b:cb:34:a8:
                    46:9f:b8:e4:c9:07:48:5a:11:02:71:3e:d7:84:a0:
                    ca:5c:02:51:67:5f:6a:9e:cf:45:11:62:64:2b:87:
                    9a:cf:cf:23:7a:5a:9a:b4:68:e2:48:52:14:13:8c:
                    2c:14:35:57:9e:54:2f:9a:fc:20:ac:70:9a:a7:ba:
                    2a:c0:96:c5:15:d3:22:2a:a1:04:30:2a:0c:ff:65:
                    a0:51:04:d3:9b:22:67:c5:79:56:5a:34:ba:f8:0a:
                    98:aa:cf:e0:0a:c7:af:56:df:6d:f2:da:0f:99:87:
                    00:f3:bc:05:c8:20:64:d8:de:88:dd:d0:e8:90:51:
                    f7:00:ba:57:fb:88:a0:37:f9:c9:8b:86:ad:29:85:
                    c6:b1:fc:c6:9b:70:f3:54:33:bc:4c:b9:df:39:83:
                    83:4e:78:7f:8d:68:5f:21:3d:ae:f2:12:88:a3:15:
                    3b:92:50:fc:4c:ae:34:e8:e0:94:f1:ab:5c:8f:4f:
                    29:10:0b:cb:a8:a5:8f:9c:b5:19:ad:19:97:7d:a5:
                    ad:29:1d:a8:e2:40:15:fb:d0:94:eb:0a:7c:18:da:
                    b6:65:70:ed:d5:7f:45:cb:81:4b:d5:85:8c:a5:7a:
                    0a:f8:93:06:49:32:de:d1:79:cf:1d:f6:36:83:4a:
                    7b:5a:5a:a2:74:b7:17:9e:a2:96:e2:8f:97:61:7f:
                    d1:5c:a8:f1:a4:e9:7d:eb:01:14:07:c4:53:20:e2:
                    56:34:e9:ed:bf:b2:ad:77:9c:ed:d4:5a:ee:b1:bb:
                    e9:f8:16:6f:04:21:6c:3b:6a:88:d8:0f:1c:d9:20:
                    0c:99:7a:32:83:1c:03:04:d0:57:76:dd:12:1c:80:
                    f5:02:fd:53:de:28:4e:3a:ed:a2:2a:ef:ba:7c:9b:
                    75:a6:03:9e:04:ca:22:38:6b:42:02:28:02:7a:e1:
                    1a:55:b0:19:b6:37:38:23:9f:c1:7c:6c:2a:03:d2:
                    6e:82:3b:c2:eb:84:e6:f1:9c:58:47:57:0b:69:12:
                    ed:e7:44:3f:e7:ec:5b:6a:e9:b5:05:39:29:01:8b:
                    dc:1c:81:c8:64:77:35:86:21:95:f5:1c:77:17:98:
                    72:ef:9b:d0:84:f1:f2:eb:e6:6a:84:c0:9f:83:f2:
                    f2:94:8a:bf:ef:38:f5:21:7c:55:39:e6:bd:87:d7:
                    79:d0:c5:eb:34:1d:8e:92:c8:da:35:65:d3:ed:e0:
                    27:21:c5
                Exponent: 65537 (0x10001)
        X509v3 extensions:
            X509v3 Basic Constraints: 
                CA:FALSE
            Netscape Comment: 
                Easy-RSA Generated Certificate
            X509v3 Subject Key Identifier: 
                B3:BD:0B:2C:A4:11:1C:92:A8:6D:71:0F:28:2B:71:80:40:B4:DD:96
            X509v3 Authority Key Identifier: 
                keyid:EF:38:8D:14:50:58:A7:5B:4D:9C:17:72:FC:DF:B9:AC:A7:51:B0:10
                DirName:/C=US/ST=CA/L=SanFrancisco/O=Pixglo, Inc./OU=VPN-CIE/CN=tunnel.pixglo.com/name=Bala Chandrasekaran/emailAddress=bala@pixglo.com
                serial:A6:DB:C6:83:80:E6:A0:79

            X509v3 Extended Key Usage: 
                TLS Web Client Authentication
            X509v3 Key Usage: 
                Digital Signature
    Signature Algorithm: sha1WithRSAEncryption
         3d:21:29:de:44:af:e6:e4:3b:a7:80:08:99:8c:6f:5e:a7:9a:
         d7:71:75:3c:6f:e8:e4:21:ec:4d:9e:e5:7f:70:36:3c:36:39:
         43:ac:9d:8c:5f:1a:95:85:68:a2:ad:a5:a6:18:a0:98:48:b2:
         1e:aa:0b:d3:10:16:57:8b:1b:b1:12:6d:7c:4a:9f:cd:22:6e:
         bc:be:88:43:8b:10:07:99:3c:95:91:02:86:d0:50:6b:f9:8d:
         3f:55:c1:48:89:bb:be:b4:f6:22:28:31:44:bf:35:d3:1c:36:
         d6:f0:27:e7:b3:1f:50:bb:52:ea:64:0c:d6:e8:50:f6:ad:0a:
         38:38:fb:36:e0:17:6e:db:bf:7a:11:bd:7c:90:00:45:21:89:
         de:c0:8f:e4:88:7c:30:85:e9:18:a8:b3:a8:57:73:0f:45:87:
         a9:46:2c:ae:2f:ed:cc:7e:86:c9:c7:24:6b:81:73:92:71:a1:
         ed:ea:d4:40:c3:e4:b7:41:7a:1b:5b:38:f7:05:85:57:b1:75:
         45:a6:87:90:6e:56:8c:6b:80:51:47:79:3b:78:18:98:49:3e:
         1c:43:0e:93:a8:f4:a7:ae:8d:c3:ef:09:95:08:4a:51:d9:10:
         1b:4e:a6:bc:3b:15:fb:e1:57:62:3e:03:b3:04:c3:cc:c4:66:
         09:f7:36:27:b8:96:6e:0c:ae:84:23:e5:69:66:a8:cf:3d:a2:
         ac:01:43:d8:4d:ff:52:22:a5:e4:d9:9d:68:ae:93:9a:15:d7:
         a2:bd:e7:11:57:f3:61:ae:cf:82:1b:5a:f1:35:80:18:48:f6:
         c1:7e:0a:0d:52:23:45:40:bf:76:12:12:7b:eb:33:5f:28:ff:
         cf:ad:6a:2a:52:0c:4b:17:d0:61:53:c7:2e:c3:11:64:a0:bb:
         19:f0:f8:97:cd:28:66:74:6d:58:a7:f8:bd:44:13:7c:79:77:
         81:65:59:58:7c:db:b4:0d:50:13:8c:3c:e6:a2:e3:69:7b:0e:
         a9:9f:3e:7d:84:7f:8b:e4:84:29:df:a1:e5:e6:1c:e3:8d:5a:
         89:ed:b8:ae:f8:1d:90:ba:66:0b:08:a3:84:8f:e3:b7:8d:a4:
         3c:8d:c4:05:48:0d:25:f1:51:77:a4:28:66:8c:9e:b5:db:9a:
         47:85:64:3d:fa:16:a8:a2:07:ba:b3:fd:f7:87:00:c9:87:fe:
         c0:30:60:4c:16:a5:98:8d:e1:46:53:1c:d8:bd:d2:94:5c:0a:
         54:c7:fa:4b:e3:ce:17:07:dc:12:d3:c7:97:cd:6f:6a:51:f4:
         81:cf:6d:ca:65:bd:73:ee:0c:fa:18:d4:ab:d0:1c:36:a4:b0:
         30:9c:6a:5c:7a:dd:88:f5
-----BEGIN CERTIFICATE-----
MIIHSDCCBTCgAwIBAgICARMwDQYJKoZIhvcNAQEFBQAwgbQxCzAJBgNVBAYTAlVT
MQswCQYDVQQIEwJDQTEVMBMGA1UEBxMMU2FuRnJhbmNpc2NvMRUwEwYDVQQKEwxQ
aXhnbG8sIEluYy4xEDAOBgNVBAsTB1ZQTi1DSUUxGjAYBgNVBAMTEXR1bm5lbC5w
aXhnbG8uY29tMRwwGgYDVQQpExNCYWxhIENoYW5kcmFzZWthcmFuMR4wHAYJKoZI
hvcNAQkBFg9iYWxhQHBpeGdsby5jb20wHhcNMTgwMjE0MDYyOTQwWhcNMjgwMjEy
MDYyOTQwWjCBqTELMAkGA1UEBhMCVVMxCzAJBgNVBAgTAkNBMRUwEwYDVQQHEwxT
YW5GcmFuY2lzY28xFTATBgNVBAoTDFBpeGdsbywgSW5jLjEQMA4GA1UECxMHVlBO
LUNJRTEPMA0GA1UEAxMGY2llMjc0MRwwGgYDVQQpExNCYWxhIENoYW5kcmFzZWth
cmFuMR4wHAYJKoZIhvcNAQkBFg9iYWxhQHBpeGdsby5jb20wggIiMA0GCSqGSIb3
DQEBAQUAA4ICDwAwggIKAoICAQC1UuSPKMLxcEKiZdNm6C5gr5CuAuEpURnus1+p
2yud9yXrURmMADTUXjcaayDH0vdni57uOhO5W8s0qEafuOTJB0haEQJxPteEoMpc
AlFnX2qez0URYmQrh5rPzyN6Wpq0aOJIUhQTjCwUNVeeVC+a/CCscJqnuirAlsUV
0yIqoQQwKgz/ZaBRBNObImfFeVZaNLr4Cpiqz+AKx69W323y2g+ZhwDzvAXIIGTY
3ojd0OiQUfcAulf7iKA3+cmLhq0phcax/MabcPNUM7xMud85g4NOeH+NaF8hPa7y
EoijFTuSUPxMrjTo4JTxq1yPTykQC8uopY+ctRmtGZd9pa0pHajiQBX70JTrCnwY
2rZlcO3Vf0XLgUvVhYylegr4kwZJMt7Rec8d9jaDSntaWqJ0txeeopbij5dhf9Fc
qPGk6X3rARQHxFMg4lY06e2/sq13nO3UWu6xu+n4Fm8EIWw7aojYDxzZIAyZejKD
HAME0Fd23RIcgPUC/VPeKE467aIq77p8m3WmA54EyiI4a0ICKAJ64RpVsBm2Nzgj
n8F8bCoD0m6CO8LrhObxnFhHVwtpEu3nRD/n7Ftq6bUFOSkBi9wcgchkdzWGIZX1
HHcXmHLvm9CE8fLr5mqEwJ+D8vKUir/vOPUhfFU55r2H13nQxes0HY6SyNo1ZdPt
4CchxQIDAQABo4IBazCCAWcwCQYDVR0TBAIwADAtBglghkgBhvhCAQ0EIBYeRWFz
eS1SU0EgR2VuZXJhdGVkIENlcnRpZmljYXRlMB0GA1UdDgQWBBSzvQsspBEckqht
cQ8oK3GAQLTdljCB6QYDVR0jBIHhMIHegBTvOI0UUFinW02cF3L837msp1GwEKGB
uqSBtzCBtDELMAkGA1UEBhMCVVMxCzAJBgNVBAgTAkNBMRUwEwYDVQQHEwxTYW5G
cmFuY2lzY28xFTATBgNVBAoTDFBpeGdsbywgSW5jLjEQMA4GA1UECxMHVlBOLUNJ
RTEaMBgGA1UEAxMRdHVubmVsLnBpeGdsby5jb20xHDAaBgNVBCkTE0JhbGEgQ2hh
bmRyYXNla2FyYW4xHjAcBgkqhkiG9w0BCQEWD2JhbGFAcGl4Z2xvLmNvbYIJAKbb
xoOA5qB5MBMGA1UdJQQMMAoGCCsGAQUFBwMCMAsGA1UdDwQEAwIHgDANBgkqhkiG
9w0BAQUFAAOCAgEAPSEp3kSv5uQ7p4AImYxvXqea13F1PG/o5CHsTZ7lf3A2PDY5
Q6ydjF8alYVooq2lphigmEiyHqoL0xAWV4sbsRJtfEqfzSJuvL6IQ4sQB5k8lZEC
htBQa/mNP1XBSIm7vrT2IigxRL810xw21vAn57MfULtS6mQM1uhQ9q0KODj7NuAX
btu/ehG9fJAARSGJ3sCP5Ih8MIXpGKizqFdzD0WHqUYsri/tzH6Gyccka4FzknGh
7erUQMPkt0F6G1s49wWFV7F1RaaHkG5WjGuAUUd5O3gYmEk+HEMOk6j0p66Nw+8J
lQhKUdkQG06mvDsV++FXYj4DswTDzMRmCfc2J7iWbgyuhCPlaWaozz2irAFD2E3/
UiKl5NmdaK6TmhXXor3nEVfzYa7Pghta8TWAGEj2wX4KDVIjRUC/dhISe+szXyj/
z61qKlIMSxfQYVPHLsMRZKC7GfD4l80oZnRtWKf4vUQTfHl3gWVZWHzbtA1QE4w8
5qLjaXsOqZ8+fYR/i+SEKd+h5eYc441aie24rvgdkLpmCwijhI/jt42kPI3EBUgN
JfFRd6QoZoyetduaR4VkPfoWqKIHurP994cAyYf+wDBgTBalmI3hRlMc2L3SlFwK
VMf6S+POFwfcEtPHl81valH0gc9tymW9c+4M+hjUq9AcNqSwMJxqXHrdiPU=
-----END CERTIFICATE-----
