Certificate:
    Data:
        Version: 3 (0x2)
        Serial Number: 276 (0x114)
    Signature Algorithm: sha1WithRSAEncryption
        Issuer: C=US, ST=CA, L=SanFrancisco, O=Pixglo, Inc., OU=VPN-CIE, CN=tunnel.pixglo.com/name=Bala Chandrasekaran/emailAddress=bala@pixglo.com
        Validity
            Not Before: Feb 14 06:29:40 2018 GMT
            Not After : Feb 12 06:29:40 2028 GMT
        Subject: C=US, ST=CA, L=SanFrancisco, O=Pixglo, Inc., OU=VPN-CIE, CN=cie275/name=Bala Chandrasekaran/emailAddress=bala@pixglo.com
        Subject Public Key Info:
            Public Key Algorithm: rsaEncryption
                Public-Key: (4096 bit)
                Modulus:
                    00:ab:8f:80:74:15:4b:25:7d:af:18:4b:ff:c3:eb:
                    ab:57:0c:38:b8:64:30:27:5e:b4:99:34:12:03:2f:
                    bb:07:c6:22:14:e1:d1:9d:11:31:fc:ad:0b:68:a7:
                    a1:d7:84:51:2b:1a:7d:a4:0c:67:e2:11:e9:06:93:
                    65:5d:08:78:a1:77:90:e5:4d:af:44:ca:fb:58:0d:
                    e1:d2:5a:d7:d2:ec:c1:46:f0:ce:7f:9a:c8:89:27:
                    34:cf:05:56:fd:ce:a0:11:56:af:7d:0a:04:0d:6b:
                    64:8d:cc:92:5f:f0:85:24:d4:e2:36:44:9b:ff:58:
                    72:0a:d6:a2:e4:15:1a:c1:a5:fa:94:28:2d:b9:87:
                    16:b2:36:d8:d4:59:aa:01:2c:d4:66:2f:39:0e:49:
                    e3:07:32:2b:99:17:c8:1a:78:05:c6:15:a1:19:74:
                    a8:57:27:ba:8e:f8:0b:02:d7:c7:d6:69:a0:9e:d6:
                    fc:0f:97:3b:1c:c3:db:62:73:6e:f6:a6:0c:de:d8:
                    f1:18:9b:19:0f:0e:9f:23:de:95:22:60:83:ee:75:
                    bb:a6:70:12:ce:75:75:ee:2a:b8:45:13:5c:b2:c3:
                    dc:66:57:4d:53:23:b7:08:6d:09:bc:cd:fc:c2:2c:
                    84:e8:6f:59:67:36:40:8d:da:05:ae:7d:aa:01:0e:
                    f2:56:57:f5:5f:88:1b:3e:15:a9:3c:60:fa:31:43:
                    24:3a:14:64:1a:b5:49:18:65:f0:5a:0e:4c:ad:ac:
                    e3:b9:73:e7:1f:c8:82:a5:af:be:c4:ab:48:83:84:
                    f9:7e:04:e4:0a:bd:bc:5e:a7:dc:b1:db:4e:0b:bc:
                    c4:65:fd:7b:5f:ab:66:2c:66:13:38:f9:03:bd:f7:
                    f3:0f:1a:6c:e2:ae:b4:ab:31:a6:2e:d1:02:ca:2a:
                    b0:06:0d:72:5e:2d:af:e4:b8:3d:ff:e5:9f:88:8b:
                    07:0a:75:21:a4:b3:43:fb:d1:10:12:96:94:a5:9d:
                    0d:2e:b7:7e:61:39:16:ff:80:aa:97:5b:a8:9e:09:
                    80:33:51:61:1e:56:b7:94:fd:ec:69:63:15:10:40:
                    de:c6:f6:8f:13:4e:7c:44:43:00:be:64:c9:e2:7d:
                    16:b0:7a:8b:ae:3e:37:f4:6b:1b:0d:c6:ad:16:62:
                    44:ec:0a:5d:af:a7:cb:6e:12:db:2c:9c:aa:3a:ff:
                    4f:49:79:c8:ef:64:85:80:73:76:83:2a:5b:e5:4b:
                    86:05:58:6f:aa:ea:c3:11:d7:07:5e:7c:8b:9b:bf:
                    49:74:7e:44:c7:fe:bc:72:e6:bb:69:1b:55:08:33:
                    e7:4d:1d:d1:43:e2:15:70:2f:52:81:3f:13:60:91:
                    43:44:9f
                Exponent: 65537 (0x10001)
        X509v3 extensions:
            X509v3 Basic Constraints: 
                CA:FALSE
            Netscape Comment: 
                Easy-RSA Generated Certificate
            X509v3 Subject Key Identifier: 
                97:EB:53:7D:0E:85:DC:EE:F3:65:7F:DF:35:93:93:F0:04:6E:A1:C2
            X509v3 Authority Key Identifier: 
                keyid:EF:38:8D:14:50:58:A7:5B:4D:9C:17:72:FC:DF:B9:AC:A7:51:B0:10
                DirName:/C=US/ST=CA/L=SanFrancisco/O=Pixglo, Inc./OU=VPN-CIE/CN=tunnel.pixglo.com/name=Bala Chandrasekaran/emailAddress=bala@pixglo.com
                serial:A6:DB:C6:83:80:E6:A0:79

            X509v3 Extended Key Usage: 
                TLS Web Client Authentication
            X509v3 Key Usage: 
                Digital Signature
    Signature Algorithm: sha1WithRSAEncryption
         9d:d6:9c:8a:21:d9:ba:b7:36:c3:ae:6e:05:e4:20:58:f6:d2:
         fe:e4:34:e9:b2:c7:33:71:47:e2:33:06:e7:b0:c2:ed:c6:83:
         5a:db:cc:ad:c9:22:5d:d2:4b:ec:5f:f8:75:6f:8c:5b:45:08:
         e3:9c:1a:65:81:b6:ac:11:12:e9:d2:c6:12:b9:c6:0d:0c:8f:
         bb:44:d8:e5:89:45:c0:6f:31:03:c9:8e:68:44:22:93:4e:86:
         9f:51:62:d2:b8:3d:05:2d:2a:75:42:42:e2:3b:f6:28:a7:78:
         0e:cc:cb:a7:49:43:b3:02:d6:39:91:0b:27:62:4a:6e:68:5e:
         5c:9a:9b:42:8d:e6:15:35:e7:12:ea:0d:8b:72:5b:cf:ab:ba:
         e9:d1:03:d3:b3:3f:5d:29:b5:b7:c7:ab:27:75:94:f3:21:35:
         84:a7:f5:4f:45:5e:d6:74:13:e9:17:7e:48:8e:47:76:ba:a7:
         d8:0d:74:2d:51:31:09:87:40:40:e4:96:2c:ae:a3:1c:2c:4c:
         d6:19:11:18:56:8a:f8:42:25:2f:9f:d9:1e:d0:64:0d:55:1c:
         15:23:9b:cb:dc:31:f8:dd:4c:d5:2b:2c:3d:0d:88:ea:a1:53:
         65:d6:3e:bf:ed:92:36:3c:36:1a:b5:99:44:c0:3c:2d:be:50:
         44:70:50:6a:48:9f:4a:dc:21:7b:ae:7b:b2:be:4c:5b:2a:4e:
         64:75:1b:67:de:c8:87:d1:f4:c0:1d:2f:72:90:c7:90:6b:23:
         01:20:08:f1:8d:c2:1c:1c:d7:fa:38:8c:d2:89:90:46:d4:97:
         5a:16:ba:a1:89:77:64:12:ab:2f:bd:45:f0:7d:f3:8c:59:bc:
         5c:74:70:80:f3:4c:50:74:55:6b:9d:31:80:17:8b:68:13:79:
         90:68:34:33:94:34:d2:2e:c3:ce:95:ee:36:69:56:39:0f:9d:
         3c:94:7a:9c:d9:8c:1e:99:ff:3a:15:d7:24:8f:f9:10:5e:f3:
         ee:e1:63:72:5b:d9:11:c3:0e:dc:f4:3e:8e:36:73:30:09:10:
         23:b8:14:3b:b7:f5:09:e4:54:6b:53:dd:ae:f0:19:38:ad:a2:
         17:fd:6c:72:f5:cc:92:9b:b9:22:79:9b:bc:3a:b4:fa:bd:8f:
         8e:fb:10:8b:03:cc:d4:ab:aa:52:6d:1a:51:a7:da:0d:44:ca:
         31:ea:11:5e:63:ca:de:78:9d:bd:7f:bf:e4:93:4b:e1:f7:9f:
         54:31:62:9e:4b:aa:76:15:dd:8e:8a:e5:db:2f:da:e1:bc:1b:
         ad:e6:7e:78:03:2c:df:47:a4:fd:e5:3d:d2:fd:3a:80:c6:48:
         ad:50:bc:f6:4c:4c:55:3e
-----BEGIN CERTIFICATE-----
MIIHSDCCBTCgAwIBAgICARQwDQYJKoZIhvcNAQEFBQAwgbQxCzAJBgNVBAYTAlVT
MQswCQYDVQQIEwJDQTEVMBMGA1UEBxMMU2FuRnJhbmNpc2NvMRUwEwYDVQQKEwxQ
aXhnbG8sIEluYy4xEDAOBgNVBAsTB1ZQTi1DSUUxGjAYBgNVBAMTEXR1bm5lbC5w
aXhnbG8uY29tMRwwGgYDVQQpExNCYWxhIENoYW5kcmFzZWthcmFuMR4wHAYJKoZI
hvcNAQkBFg9iYWxhQHBpeGdsby5jb20wHhcNMTgwMjE0MDYyOTQwWhcNMjgwMjEy
MDYyOTQwWjCBqTELMAkGA1UEBhMCVVMxCzAJBgNVBAgTAkNBMRUwEwYDVQQHEwxT
YW5GcmFuY2lzY28xFTATBgNVBAoTDFBpeGdsbywgSW5jLjEQMA4GA1UECxMHVlBO
LUNJRTEPMA0GA1UEAxMGY2llMjc1MRwwGgYDVQQpExNCYWxhIENoYW5kcmFzZWth
cmFuMR4wHAYJKoZIhvcNAQkBFg9iYWxhQHBpeGdsby5jb20wggIiMA0GCSqGSIb3
DQEBAQUAA4ICDwAwggIKAoICAQCrj4B0FUslfa8YS//D66tXDDi4ZDAnXrSZNBID
L7sHxiIU4dGdETH8rQtop6HXhFErGn2kDGfiEekGk2VdCHihd5DlTa9EyvtYDeHS
WtfS7MFG8M5/msiJJzTPBVb9zqARVq99CgQNa2SNzJJf8IUk1OI2RJv/WHIK1qLk
FRrBpfqUKC25hxayNtjUWaoBLNRmLzkOSeMHMiuZF8gaeAXGFaEZdKhXJ7qO+AsC
18fWaaCe1vwPlzscw9tic272pgze2PEYmxkPDp8j3pUiYIPudbumcBLOdXXuKrhF
E1yyw9xmV01TI7cIbQm8zfzCLITob1lnNkCN2gWufaoBDvJWV/VfiBs+Fak8YPox
QyQ6FGQatUkYZfBaDkytrOO5c+cfyIKlr77Eq0iDhPl+BOQKvbxep9yx204LvMRl
/Xtfq2YsZhM4+QO99/MPGmzirrSrMaYu0QLKKrAGDXJeLa/kuD3/5Z+IiwcKdSGk
s0P70RASlpSlnQ0ut35hORb/gKqXW6ieCYAzUWEeVreU/expYxUQQN7G9o8TTnxE
QwC+ZMnifRaweouuPjf0axsNxq0WYkTsCl2vp8tuEtssnKo6/09JecjvZIWAc3aD
KlvlS4YFWG+q6sMR1wdefIubv0l0fkTH/rxy5rtpG1UIM+dNHdFD4hVwL1KBPxNg
kUNEnwIDAQABo4IBazCCAWcwCQYDVR0TBAIwADAtBglghkgBhvhCAQ0EIBYeRWFz
eS1SU0EgR2VuZXJhdGVkIENlcnRpZmljYXRlMB0GA1UdDgQWBBSX61N9DoXc7vNl
f981k5PwBG6hwjCB6QYDVR0jBIHhMIHegBTvOI0UUFinW02cF3L837msp1GwEKGB
uqSBtzCBtDELMAkGA1UEBhMCVVMxCzAJBgNVBAgTAkNBMRUwEwYDVQQHEwxTYW5G
cmFuY2lzY28xFTATBgNVBAoTDFBpeGdsbywgSW5jLjEQMA4GA1UECxMHVlBOLUNJ
RTEaMBgGA1UEAxMRdHVubmVsLnBpeGdsby5jb20xHDAaBgNVBCkTE0JhbGEgQ2hh
bmRyYXNla2FyYW4xHjAcBgkqhkiG9w0BCQEWD2JhbGFAcGl4Z2xvLmNvbYIJAKbb
xoOA5qB5MBMGA1UdJQQMMAoGCCsGAQUFBwMCMAsGA1UdDwQEAwIHgDANBgkqhkiG
9w0BAQUFAAOCAgEAndaciiHZurc2w65uBeQgWPbS/uQ06bLHM3FH4jMG57DC7caD
WtvMrckiXdJL7F/4dW+MW0UI45waZYG2rBES6dLGErnGDQyPu0TY5YlFwG8xA8mO
aEQik06Gn1Fi0rg9BS0qdUJC4jv2KKd4DszLp0lDswLWOZELJ2JKbmheXJqbQo3m
FTXnEuoNi3Jbz6u66dED07M/XSm1t8erJ3WU8yE1hKf1T0Ve1nQT6Rd+SI5Hdrqn
2A10LVExCYdAQOSWLK6jHCxM1hkRGFaK+EIlL5/ZHtBkDVUcFSOby9wx+N1M1Sss
PQ2I6qFTZdY+v+2SNjw2GrWZRMA8Lb5QRHBQakifStwhe657sr5MWypOZHUbZ97I
h9H0wB0vcpDHkGsjASAI8Y3CHBzX+jiM0omQRtSXWha6oYl3ZBKrL71F8H3zjFm8
XHRwgPNMUHRVa50xgBeLaBN5kGg0M5Q00i7DzpXuNmlWOQ+dPJR6nNmMHpn/OhXX
JI/5EF7z7uFjclvZEcMO3PQ+jjZzMAkQI7gUO7f1CeRUa1PdrvAZOK2iF/1scvXM
kpu5InmbvDq0+r2PjvsQiwPM1KuqUm0aUafaDUTKMeoRXmPK3nidvX+/5JNL4fef
VDFinkuqdhXdjorl2y/a4bwbreZ+eAMs30ek/eU90v06gMZIrVC89kxMVT4=
-----END CERTIFICATE-----
