Certificate:
    Data:
        Version: 3 (0x2)
        Serial Number: 278 (0x116)
    Signature Algorithm: sha1WithRSAEncryption
        Issuer: C=US, ST=CA, L=SanFrancisco, O=Pixglo, Inc., OU=VPN-CIE, CN=tunnel.pixglo.com/name=Bala Chandrasekaran/emailAddress=bala@pixglo.com
        Validity
            Not Before: Feb 14 06:29:42 2018 GMT
            Not After : Feb 12 06:29:42 2028 GMT
        Subject: C=US, ST=CA, L=SanFrancisco, O=Pixglo, Inc., OU=VPN-CIE, CN=cie277/name=Bala Chandrasekaran/emailAddress=bala@pixglo.com
        Subject Public Key Info:
            Public Key Algorithm: rsaEncryption
                Public-Key: (4096 bit)
                Modulus:
                    00:f0:5c:49:59:db:22:29:87:82:9a:10:58:93:7e:
                    d9:29:13:b6:0e:eb:7f:4b:5a:03:4d:6f:d0:72:58:
                    ea:16:fb:ff:16:2e:10:8d:7a:c9:97:35:79:24:42:
                    03:48:f4:de:21:46:19:8d:16:f9:f1:37:2e:bb:82:
                    15:af:a8:6b:b2:48:15:f4:b4:4b:8d:ae:7f:8d:58:
                    28:e7:b5:f6:8a:6d:cd:9b:39:f4:47:28:7d:d4:34:
                    b1:ed:3a:14:6a:e2:61:13:1c:1b:79:19:4d:05:f8:
                    41:64:00:45:f1:5e:2d:d7:60:d6:a9:ea:a1:85:c6:
                    eb:83:c5:4f:b3:60:71:15:17:c2:f5:fd:dc:ee:ef:
                    5f:02:4a:ad:54:3f:47:6c:7c:6b:0b:2c:10:a7:b9:
                    8f:f7:e7:24:08:0f:23:cc:34:3c:6c:76:ab:4f:52:
                    f5:1b:c1:e6:d5:ec:e7:18:8c:75:29:d9:25:7f:83:
                    31:f5:3e:5a:0c:b7:1f:c1:24:ad:b9:d6:0e:c9:51:
                    27:49:9e:46:b9:b1:ad:43:01:25:f3:ba:04:6c:7e:
                    36:49:29:d3:d2:fc:fc:62:78:51:1b:11:49:d5:44:
                    9d:c6:63:da:fa:0d:82:14:12:51:d1:d6:a3:8e:16:
                    5e:90:d0:84:72:90:af:38:3b:04:d4:91:18:d6:87:
                    e0:e4:bf:12:66:09:ac:70:97:d8:1a:16:84:21:8b:
                    29:ac:8a:34:05:e7:88:78:ed:74:ac:37:e4:c9:cf:
                    64:68:14:fc:df:4e:b0:4f:47:76:df:7c:5e:f1:ff:
                    4f:63:ec:f4:c1:db:dc:df:a8:50:7f:6f:21:53:33:
                    b1:3a:a6:a2:3f:4e:ba:0f:c2:aa:8b:b1:9f:23:12:
                    1f:5d:cf:04:cb:90:97:dd:ae:22:76:ab:a7:c9:00:
                    07:c0:86:b0:40:75:46:65:2d:6d:8a:82:69:da:81:
                    45:dd:e7:62:5f:c8:2d:7d:02:8f:6d:eb:b2:f1:bd:
                    2f:a3:73:47:d2:c9:79:b4:87:89:62:35:34:8e:73:
                    bd:6c:7e:e3:27:9d:e6:0b:07:c1:72:5d:2d:c4:c9:
                    6d:5f:21:10:4b:93:fd:7d:f7:20:e2:9c:4e:ee:26:
                    95:67:fd:3d:a1:63:18:e1:c0:8c:e2:e0:80:7d:80:
                    2b:ee:2c:0e:72:f2:f8:b3:d7:5e:35:1d:52:4b:cc:
                    92:e4:b1:23:76:7c:cc:76:69:1e:16:eb:4b:3b:c7:
                    32:79:4c:8f:c1:b5:dd:70:28:c9:63:60:f8:60:43:
                    1a:2a:d7:b7:d6:d0:88:d5:5b:9c:a5:8d:b1:42:58:
                    8e:42:e2:28:2d:10:8a:9b:71:59:30:3b:c2:a4:89:
                    9c:d0:9b
                Exponent: 65537 (0x10001)
        X509v3 extensions:
            X509v3 Basic Constraints: 
                CA:FALSE
            Netscape Comment: 
                Easy-RSA Generated Certificate
            X509v3 Subject Key Identifier: 
                50:BA:3F:5E:35:45:76:F5:5C:05:FA:63:67:CD:26:7A:82:3A:1A:BC
            X509v3 Authority Key Identifier: 
                keyid:EF:38:8D:14:50:58:A7:5B:4D:9C:17:72:FC:DF:B9:AC:A7:51:B0:10
                DirName:/C=US/ST=CA/L=SanFrancisco/O=Pixglo, Inc./OU=VPN-CIE/CN=tunnel.pixglo.com/name=Bala Chandrasekaran/emailAddress=bala@pixglo.com
                serial:A6:DB:C6:83:80:E6:A0:79

            X509v3 Extended Key Usage: 
                TLS Web Client Authentication
            X509v3 Key Usage: 
                Digital Signature
    Signature Algorithm: sha1WithRSAEncryption
         4c:f8:c6:a2:01:ad:68:a1:22:c1:7b:a5:74:d7:71:1f:f5:69:
         d2:98:43:c0:0b:a7:78:84:39:b2:dd:10:72:ba:88:b3:b2:31:
         2b:f5:26:0c:59:a8:d8:15:e7:b9:ef:4a:a3:70:5d:b0:a3:98:
         02:4a:9a:0d:eb:ab:a5:fa:0a:34:e3:ff:a9:cb:20:44:7a:b1:
         35:7f:3e:37:9a:05:0a:1d:dc:f5:2a:94:bf:3d:3a:ab:bb:00:
         57:6a:fb:32:0c:bf:fa:51:69:71:2e:6b:e5:32:5e:1f:7b:bd:
         dd:90:ea:49:75:b0:37:22:58:30:95:bb:26:e6:2b:26:1e:7e:
         df:50:30:dc:07:47:b9:da:13:56:b1:40:cf:f3:1c:da:d8:e1:
         ab:75:19:f7:04:81:3e:e0:3e:75:44:b0:1b:ca:b1:de:22:cf:
         a5:c1:b6:41:f9:c0:38:f4:46:0f:3e:65:15:6e:7f:c3:f6:d7:
         ef:c4:50:a7:9b:89:ec:df:7d:8f:91:b9:a8:e3:8e:ae:1a:ab:
         2d:18:90:8d:49:bd:61:51:da:77:a6:ab:cc:a6:c2:0d:50:d5:
         15:a3:89:6e:7d:2e:c8:ab:a8:96:b3:50:52:51:d3:59:a4:af:
         85:20:c1:d1:e8:ea:5a:a3:2b:2d:e8:14:a1:16:13:fb:89:a7:
         10:44:c3:50:b8:49:e2:63:a2:6c:92:f6:a1:cb:93:8f:3c:2a:
         e0:f1:23:42:4c:b6:54:28:b4:05:e5:2e:80:b8:1f:93:f4:a3:
         0c:6b:12:4d:cb:53:57:8f:d1:7f:1b:27:72:0e:ee:30:df:f0:
         54:59:84:90:23:ab:ac:56:fd:b1:7e:c8:b5:d8:45:20:de:e9:
         05:25:99:f4:2e:a7:4a:a6:60:0f:f1:d1:e0:40:39:40:54:b4:
         4f:a1:03:2e:46:46:78:2d:51:a8:71:3b:30:b3:bb:4f:12:08:
         49:b0:f1:05:5a:b8:f7:96:50:cb:60:ec:ec:8a:b5:d9:b7:49:
         3d:fd:0d:7d:60:a1:84:3a:f4:92:7b:34:64:ff:08:61:fe:4a:
         18:87:cb:4b:6c:b1:96:cd:7d:49:aa:65:40:16:38:c8:40:4d:
         bc:86:98:0b:0c:d9:b0:9b:bc:9f:80:45:cf:56:4f:15:4f:8c:
         74:da:ac:4c:10:ad:cd:63:04:45:2d:fa:ff:7b:c7:21:1c:c0:
         f3:f8:5c:8e:4d:ef:38:53:28:07:e3:39:7f:13:8f:86:ec:5b:
         ca:5d:86:d4:6e:f9:79:96:b5:7a:d1:14:d6:09:7e:c2:37:55:
         b4:6b:3a:6a:32:88:d5:17:be:84:ec:22:ab:ad:81:8a:24:90:
         ba:17:df:11:ad:f4:70:4b
-----BEGIN CERTIFICATE-----
MIIHSDCCBTCgAwIBAgICARYwDQYJKoZIhvcNAQEFBQAwgbQxCzAJBgNVBAYTAlVT
MQswCQYDVQQIEwJDQTEVMBMGA1UEBxMMU2FuRnJhbmNpc2NvMRUwEwYDVQQKEwxQ
aXhnbG8sIEluYy4xEDAOBgNVBAsTB1ZQTi1DSUUxGjAYBgNVBAMTEXR1bm5lbC5w
aXhnbG8uY29tMRwwGgYDVQQpExNCYWxhIENoYW5kcmFzZWthcmFuMR4wHAYJKoZI
hvcNAQkBFg9iYWxhQHBpeGdsby5jb20wHhcNMTgwMjE0MDYyOTQyWhcNMjgwMjEy
MDYyOTQyWjCBqTELMAkGA1UEBhMCVVMxCzAJBgNVBAgTAkNBMRUwEwYDVQQHEwxT
YW5GcmFuY2lzY28xFTATBgNVBAoTDFBpeGdsbywgSW5jLjEQMA4GA1UECxMHVlBO
LUNJRTEPMA0GA1UEAxMGY2llMjc3MRwwGgYDVQQpExNCYWxhIENoYW5kcmFzZWth
cmFuMR4wHAYJKoZIhvcNAQkBFg9iYWxhQHBpeGdsby5jb20wggIiMA0GCSqGSIb3
DQEBAQUAA4ICDwAwggIKAoICAQDwXElZ2yIph4KaEFiTftkpE7YO639LWgNNb9By
WOoW+/8WLhCNesmXNXkkQgNI9N4hRhmNFvnxNy67ghWvqGuySBX0tEuNrn+NWCjn
tfaKbc2bOfRHKH3UNLHtOhRq4mETHBt5GU0F+EFkAEXxXi3XYNap6qGFxuuDxU+z
YHEVF8L1/dzu718CSq1UP0dsfGsLLBCnuY/35yQIDyPMNDxsdqtPUvUbwebV7OcY
jHUp2SV/gzH1PloMtx/BJK251g7JUSdJnka5sa1DASXzugRsfjZJKdPS/PxieFEb
EUnVRJ3GY9r6DYIUElHR1qOOFl6Q0IRykK84OwTUkRjWh+DkvxJmCaxwl9gaFoQh
iymsijQF54h47XSsN+TJz2RoFPzfTrBPR3bffF7x/09j7PTB29zfqFB/byFTM7E6
pqI/TroPwqqLsZ8jEh9dzwTLkJfdriJ2q6fJAAfAhrBAdUZlLW2KgmnagUXd52Jf
yC19Ao9t67LxvS+jc0fSyXm0h4liNTSOc71sfuMnneYLB8FyXS3EyW1fIRBLk/19
9yDinE7uJpVn/T2hYxjhwIzi4IB9gCvuLA5y8viz1141HVJLzJLksSN2fMx2aR4W
60s7xzJ5TI/Btd1wKMljYPhgQxoq17fW0IjVW5yljbFCWI5C4igtEIqbcVkwO8Kk
iZzQmwIDAQABo4IBazCCAWcwCQYDVR0TBAIwADAtBglghkgBhvhCAQ0EIBYeRWFz
eS1SU0EgR2VuZXJhdGVkIENlcnRpZmljYXRlMB0GA1UdDgQWBBRQuj9eNUV29VwF
+mNnzSZ6gjoavDCB6QYDVR0jBIHhMIHegBTvOI0UUFinW02cF3L837msp1GwEKGB
uqSBtzCBtDELMAkGA1UEBhMCVVMxCzAJBgNVBAgTAkNBMRUwEwYDVQQHEwxTYW5G
cmFuY2lzY28xFTATBgNVBAoTDFBpeGdsbywgSW5jLjEQMA4GA1UECxMHVlBOLUNJ
RTEaMBgGA1UEAxMRdHVubmVsLnBpeGdsby5jb20xHDAaBgNVBCkTE0JhbGEgQ2hh
bmRyYXNla2FyYW4xHjAcBgkqhkiG9w0BCQEWD2JhbGFAcGl4Z2xvLmNvbYIJAKbb
xoOA5qB5MBMGA1UdJQQMMAoGCCsGAQUFBwMCMAsGA1UdDwQEAwIHgDANBgkqhkiG
9w0BAQUFAAOCAgEATPjGogGtaKEiwXuldNdxH/Vp0phDwAuneIQ5st0QcrqIs7Ix
K/UmDFmo2BXnue9Ko3BdsKOYAkqaDeurpfoKNOP/qcsgRHqxNX8+N5oFCh3c9SqU
vz06q7sAV2r7Mgy/+lFpcS5r5TJeH3u93ZDqSXWwNyJYMJW7JuYrJh5+31Aw3AdH
udoTVrFAz/Mc2tjhq3UZ9wSBPuA+dUSwG8qx3iLPpcG2QfnAOPRGDz5lFW5/w/bX
78RQp5uJ7N99j5G5qOOOrhqrLRiQjUm9YVHad6arzKbCDVDVFaOJbn0uyKuolrNQ
UlHTWaSvhSDB0ejqWqMrLegUoRYT+4mnEETDULhJ4mOibJL2ocuTjzwq4PEjQky2
VCi0BeUugLgfk/SjDGsSTctTV4/Rfxsncg7uMN/wVFmEkCOrrFb9sX7ItdhFIN7p
BSWZ9C6nSqZgD/HR4EA5QFS0T6EDLkZGeC1RqHE7MLO7TxIISbDxBVq495ZQy2Ds
7Iq12bdJPf0NfWChhDr0kns0ZP8IYf5KGIfLS2yxls19SaplQBY4yEBNvIaYCwzZ
sJu8n4BFz1ZPFU+MdNqsTBCtzWMERS36/3vHIRzA8/hcjk3vOFMoB+M5fxOPhuxb
yl2G1G75eZa1etEU1gl+wjdVtGs6ajKI1Re+hOwiq62BiiSQuhffEa30cEs=
-----END CERTIFICATE-----
