Certificate:
    Data:
        Version: 3 (0x2)
        Serial Number: 279 (0x117)
    Signature Algorithm: sha1WithRSAEncryption
        Issuer: C=US, ST=CA, L=SanFrancisco, O=Pixglo, Inc., OU=VPN-CIE, CN=tunnel.pixglo.com/name=Bala Chandrasekaran/emailAddress=bala@pixglo.com
        Validity
            Not Before: Feb 14 06:29:44 2018 GMT
            Not After : Feb 12 06:29:44 2028 GMT
        Subject: C=US, ST=CA, L=SanFrancisco, O=Pixglo, Inc., OU=VPN-CIE, CN=cie278/name=Bala Chandrasekaran/emailAddress=bala@pixglo.com
        Subject Public Key Info:
            Public Key Algorithm: rsaEncryption
                Public-Key: (4096 bit)
                Modulus:
                    00:b8:d7:44:81:4d:84:70:e1:29:7f:d2:0b:5d:8e:
                    1d:1c:86:00:60:21:3d:32:b8:d6:1f:9f:11:d3:b5:
                    c6:a5:4a:22:53:08:a1:dd:ea:8a:f1:69:a3:c4:c4:
                    08:76:c5:2a:49:be:49:2d:b8:ff:a7:f5:a5:a9:d0:
                    eb:fa:91:d7:ca:1d:f2:ab:c2:c9:25:9a:50:4d:7f:
                    dc:34:28:6f:3e:ea:de:3d:bf:c2:ce:d4:91:29:69:
                    d8:b9:f7:8b:ae:ab:58:d1:84:5e:23:2f:9c:1b:ef:
                    23:ae:69:e3:55:2b:32:6e:8d:d3:48:6c:06:5d:b6:
                    08:fd:b5:41:ad:dc:36:b5:72:81:58:66:c9:b3:ef:
                    51:f0:17:93:db:ad:a1:50:4c:df:c9:c0:46:6d:42:
                    5b:4e:3e:24:ac:ae:0f:6b:49:75:18:cb:a2:31:e0:
                    ed:57:e7:56:0f:67:94:6d:a4:d5:50:17:6a:6d:e5:
                    a9:2b:f1:6b:16:33:ce:be:11:17:a7:40:31:ce:db:
                    05:37:b4:6a:99:07:e5:8d:32:77:cf:e4:e7:21:99:
                    2c:43:84:bf:ca:f8:5a:bd:e3:ad:85:d7:c6:a3:74:
                    08:7f:82:f7:b0:4f:a4:8b:b5:98:da:59:dd:14:ec:
                    0a:61:f9:c7:6d:a1:b7:7c:49:a1:03:27:36:43:c7:
                    07:0c:2d:5c:3e:5d:47:ea:44:5b:bd:fb:f2:24:63:
                    d0:68:92:37:96:8b:8a:2a:95:46:19:66:49:92:de:
                    67:72:00:71:ca:83:23:f6:fc:77:12:97:d8:92:d5:
                    70:22:a7:96:86:38:c2:44:35:fa:71:c3:5c:04:c4:
                    3f:a4:9c:3d:b8:9e:0e:5a:da:ad:92:07:4f:bf:06:
                    44:78:c5:2e:c9:3a:7d:24:e5:0f:9e:87:a9:5d:7c:
                    b3:b1:e6:38:38:f9:9c:b5:2d:ec:1a:cf:b7:7e:0e:
                    aa:cb:0f:77:15:0a:46:f3:aa:9c:2e:3e:5b:9b:df:
                    c6:7d:dc:74:e2:b6:36:0c:99:91:73:f4:2d:04:8e:
                    25:36:2c:bf:b2:2c:bd:5a:32:ed:99:2a:5d:75:63:
                    88:df:d6:dc:1a:4d:c4:bd:7b:d3:0e:75:9c:7e:27:
                    79:3a:be:b8:5e:d9:12:81:0c:d4:54:26:a0:2f:ef:
                    86:4b:9d:0f:a5:25:15:e7:b2:a5:b3:cf:16:39:cb:
                    8e:ab:ff:b7:8d:2f:9f:69:56:c4:d7:44:8d:a4:da:
                    2b:fc:b9:1b:22:c6:c6:dd:07:b4:70:89:00:b1:e2:
                    52:7b:d8:8c:4e:05:80:07:b8:be:9b:31:9e:dc:79:
                    0a:78:7f:25:eb:b8:8b:9f:23:b3:c0:84:9f:81:f1:
                    42:e9:6d
                Exponent: 65537 (0x10001)
        X509v3 extensions:
            X509v3 Basic Constraints: 
                CA:FALSE
            Netscape Comment: 
                Easy-RSA Generated Certificate
            X509v3 Subject Key Identifier: 
                F1:80:DD:4C:F3:FD:1A:62:8E:F9:4C:B3:8A:CD:1D:CD:F4:E6:70:EE
            X509v3 Authority Key Identifier: 
                keyid:EF:38:8D:14:50:58:A7:5B:4D:9C:17:72:FC:DF:B9:AC:A7:51:B0:10
                DirName:/C=US/ST=CA/L=SanFrancisco/O=Pixglo, Inc./OU=VPN-CIE/CN=tunnel.pixglo.com/name=Bala Chandrasekaran/emailAddress=bala@pixglo.com
                serial:A6:DB:C6:83:80:E6:A0:79

            X509v3 Extended Key Usage: 
                TLS Web Client Authentication
            X509v3 Key Usage: 
                Digital Signature
    Signature Algorithm: sha1WithRSAEncryption
         25:bf:d8:d0:72:98:05:90:3a:7c:67:0b:e3:2a:51:82:50:76:
         aa:64:9d:5f:01:e9:43:33:52:55:ce:1f:3b:cc:27:77:16:23:
         74:4b:bd:78:d8:a1:3d:97:fd:c0:38:85:65:89:98:f4:01:8e:
         92:ec:ef:4c:75:52:e7:60:6d:68:2c:75:04:fd:9f:42:d1:be:
         fb:ed:c4:31:b5:fa:ca:59:82:27:7a:6c:79:42:95:e2:5f:48:
         3f:88:03:9d:6f:98:83:a7:1f:3a:04:5f:12:22:7d:81:c5:00:
         0b:6f:d7:66:11:0c:49:b1:e8:9e:e4:c2:8b:e4:af:32:5f:46:
         46:a0:f2:e4:64:ea:3e:10:12:28:f7:6a:34:66:58:1b:70:cc:
         e8:6d:02:4f:3e:7e:7d:c0:6f:b2:c7:30:8a:8c:d5:22:3a:98:
         0f:34:3e:8a:8b:6a:4f:e8:3f:bc:93:d8:e8:56:60:9f:d5:7e:
         95:3c:3b:6f:b3:de:00:b7:c9:ba:d7:c2:63:82:e4:72:f5:09:
         1f:a2:03:28:0e:4c:b2:49:1a:f4:ef:23:6c:77:51:9e:81:74:
         2a:f7:2a:53:b9:0d:c5:91:93:bc:a4:02:ee:e9:7c:84:49:5a:
         3a:06:0b:45:b7:ec:10:ae:59:52:f0:07:40:ad:fe:70:78:10:
         29:8b:15:98:6f:1a:de:fa:ce:28:63:75:5f:a6:9b:02:5e:31:
         04:ac:15:21:e7:29:12:ae:91:e5:b5:70:5d:50:1d:f8:97:82:
         21:45:18:4b:6f:06:40:15:f1:08:b9:93:ee:f4:ee:6b:e7:3d:
         42:e8:c6:bd:5c:27:5a:5c:35:34:e7:18:3c:d1:76:99:50:94:
         f2:4c:ad:0d:64:41:a9:88:b0:6c:db:bb:8c:70:f1:ba:28:f7:
         1d:85:d2:8b:9d:66:5c:ed:ed:ba:6b:5e:dd:9e:22:77:16:b3:
         b2:30:df:72:1c:f6:2b:ad:55:9f:04:ee:2a:2e:68:a4:53:6f:
         c3:a9:1f:98:8a:69:50:47:88:7e:62:50:cb:0a:e6:67:31:68:
         f4:73:4c:25:ee:3c:c0:ef:de:4a:95:9c:84:43:1b:3e:d5:95:
         cc:28:a6:b8:b7:a1:34:ba:80:56:cd:c3:1b:17:c1:42:c2:ef:
         a3:ae:0d:cc:f5:ba:0e:08:d9:e4:9f:af:ac:bb:b6:45:0f:07:
         df:20:da:1a:05:6c:67:1d:ac:17:b6:fe:27:5b:ce:5f:2d:8f:
         b3:ed:11:e6:d6:43:79:c7:62:5b:c8:49:18:a7:1f:55:21:32:
         38:e4:62:85:37:02:6b:f6:80:a9:52:f9:92:4a:68:47:54:d1:
         af:bb:ae:99:03:04:42:b4
-----BEGIN CERTIFICATE-----
MIIHSDCCBTCgAwIBAgICARcwDQYJKoZIhvcNAQEFBQAwgbQxCzAJBgNVBAYTAlVT
MQswCQYDVQQIEwJDQTEVMBMGA1UEBxMMU2FuRnJhbmNpc2NvMRUwEwYDVQQKEwxQ
aXhnbG8sIEluYy4xEDAOBgNVBAsTB1ZQTi1DSUUxGjAYBgNVBAMTEXR1bm5lbC5w
aXhnbG8uY29tMRwwGgYDVQQpExNCYWxhIENoYW5kcmFzZWthcmFuMR4wHAYJKoZI
hvcNAQkBFg9iYWxhQHBpeGdsby5jb20wHhcNMTgwMjE0MDYyOTQ0WhcNMjgwMjEy
MDYyOTQ0WjCBqTELMAkGA1UEBhMCVVMxCzAJBgNVBAgTAkNBMRUwEwYDVQQHEwxT
YW5GcmFuY2lzY28xFTATBgNVBAoTDFBpeGdsbywgSW5jLjEQMA4GA1UECxMHVlBO
LUNJRTEPMA0GA1UEAxMGY2llMjc4MRwwGgYDVQQpExNCYWxhIENoYW5kcmFzZWth
cmFuMR4wHAYJKoZIhvcNAQkBFg9iYWxhQHBpeGdsby5jb20wggIiMA0GCSqGSIb3
DQEBAQUAA4ICDwAwggIKAoICAQC410SBTYRw4Sl/0gtdjh0chgBgIT0yuNYfnxHT
tcalSiJTCKHd6orxaaPExAh2xSpJvkktuP+n9aWp0Ov6kdfKHfKrwsklmlBNf9w0
KG8+6t49v8LO1JEpadi594uuq1jRhF4jL5wb7yOuaeNVKzJujdNIbAZdtgj9tUGt
3Da1coFYZsmz71HwF5PbraFQTN/JwEZtQltOPiSsrg9rSXUYy6Ix4O1X51YPZ5Rt
pNVQF2pt5akr8WsWM86+ERenQDHO2wU3tGqZB+WNMnfP5OchmSxDhL/K+Fq9462F
18ajdAh/gvewT6SLtZjaWd0U7Aph+cdtobd8SaEDJzZDxwcMLVw+XUfqRFu9+/Ik
Y9BokjeWi4oqlUYZZkmS3mdyAHHKgyP2/HcSl9iS1XAip5aGOMJENfpxw1wExD+k
nD24ng5a2q2SB0+/BkR4xS7JOn0k5Q+eh6ldfLOx5jg4+Zy1Lewaz7d+DqrLD3cV
CkbzqpwuPlub38Z93HTitjYMmZFz9C0EjiU2LL+yLL1aMu2ZKl11Y4jf1twaTcS9
e9MOdZx+J3k6vrhe2RKBDNRUJqAv74ZLnQ+lJRXnsqWzzxY5y46r/7eNL59pVsTX
RI2k2iv8uRsixsbdB7RwiQCx4lJ72IxOBYAHuL6bMZ7ceQp4fyXruIufI7PAhJ+B
8ULpbQIDAQABo4IBazCCAWcwCQYDVR0TBAIwADAtBglghkgBhvhCAQ0EIBYeRWFz
eS1SU0EgR2VuZXJhdGVkIENlcnRpZmljYXRlMB0GA1UdDgQWBBTxgN1M8/0aYo75
TLOKzR3N9OZw7jCB6QYDVR0jBIHhMIHegBTvOI0UUFinW02cF3L837msp1GwEKGB
uqSBtzCBtDELMAkGA1UEBhMCVVMxCzAJBgNVBAgTAkNBMRUwEwYDVQQHEwxTYW5G
cmFuY2lzY28xFTATBgNVBAoTDFBpeGdsbywgSW5jLjEQMA4GA1UECxMHVlBOLUNJ
RTEaMBgGA1UEAxMRdHVubmVsLnBpeGdsby5jb20xHDAaBgNVBCkTE0JhbGEgQ2hh
bmRyYXNla2FyYW4xHjAcBgkqhkiG9w0BCQEWD2JhbGFAcGl4Z2xvLmNvbYIJAKbb
xoOA5qB5MBMGA1UdJQQMMAoGCCsGAQUFBwMCMAsGA1UdDwQEAwIHgDANBgkqhkiG
9w0BAQUFAAOCAgEAJb/Y0HKYBZA6fGcL4ypRglB2qmSdXwHpQzNSVc4fO8wndxYj
dEu9eNihPZf9wDiFZYmY9AGOkuzvTHVS52BtaCx1BP2fQtG+++3EMbX6ylmCJ3ps
eUKV4l9IP4gDnW+Yg6cfOgRfEiJ9gcUAC2/XZhEMSbHonuTCi+SvMl9GRqDy5GTq
PhASKPdqNGZYG3DM6G0CTz5+fcBvsscwiozVIjqYDzQ+iotqT+g/vJPY6FZgn9V+
lTw7b7PeALfJutfCY4LkcvUJH6IDKA5Mskka9O8jbHdRnoF0KvcqU7kNxZGTvKQC
7ul8hElaOgYLRbfsEK5ZUvAHQK3+cHgQKYsVmG8a3vrOKGN1X6abAl4xBKwVIecp
Eq6R5bVwXVAd+JeCIUUYS28GQBXxCLmT7vTua+c9QujGvVwnWlw1NOcYPNF2mVCU
8kytDWRBqYiwbNu7jHDxuij3HYXSi51mXO3tumte3Z4idxazsjDfchz2K61VnwTu
Ki5opFNvw6kfmIppUEeIfmJQywrmZzFo9HNMJe48wO/eSpWchEMbPtWVzCimuLeh
NLqAVs3DGxfBQsLvo64NzPW6DgjZ5J+vrLu2RQ8H3yDaGgVsZx2sF7b+J1vOXy2P
s+0R5tZDecdiW8hJGKcfVSEyOORihTcCa/aAqVL5kkpoR1TRr7uumQMEQrQ=
-----END CERTIFICATE-----
