Certificate:
    Data:
        Version: 3 (0x2)
        Serial Number: 282 (0x11a)
    Signature Algorithm: sha1WithRSAEncryption
        Issuer: C=US, ST=CA, L=SanFrancisco, O=Pixglo, Inc., OU=VPN-CIE, CN=tunnel.pixglo.com/name=Bala Chandrasekaran/emailAddress=bala@pixglo.com
        Validity
            Not Before: Feb 14 06:29:46 2018 GMT
            Not After : Feb 12 06:29:46 2028 GMT
        Subject: C=US, ST=CA, L=SanFrancisco, O=Pixglo, Inc., OU=VPN-CIE, CN=cie281/name=Bala Chandrasekaran/emailAddress=bala@pixglo.com
        Subject Public Key Info:
            Public Key Algorithm: rsaEncryption
                Public-Key: (4096 bit)
                Modulus:
                    00:ef:e8:24:24:98:6e:9d:18:cf:51:bc:9c:11:7f:
                    f3:df:ec:16:26:85:fa:aa:96:f3:f5:8e:7d:80:1e:
                    ac:c2:4f:b0:f2:60:ac:bd:74:eb:3c:5f:68:4e:23:
                    e9:3d:88:f7:de:ff:a7:a4:cc:cc:3b:de:58:1c:1d:
                    6f:ab:9f:85:22:94:06:00:9e:c9:a6:ea:d3:8a:f8:
                    e2:e6:58:ae:85:e0:81:1f:1c:5c:87:e0:bc:42:61:
                    ad:54:a1:62:d6:d8:7b:84:82:8b:01:ee:af:ef:43:
                    6c:1a:1a:c3:8c:6e:e7:11:5f:f4:fb:ba:cc:02:14:
                    d9:3c:88:18:2e:0d:51:27:0f:c8:89:a8:eb:05:85:
                    11:14:20:9b:c6:dd:14:58:43:9f:07:a8:0c:98:d0:
                    4a:88:5a:0f:cf:8b:2b:81:8d:a7:f6:10:68:bf:20:
                    f9:92:54:ed:38:af:8d:bc:97:de:5b:d5:89:79:23:
                    04:25:d6:bf:1d:37:56:27:0b:8d:a4:09:7e:f4:36:
                    9c:ef:04:f4:67:5d:28:43:ae:3a:ca:a9:df:68:00:
                    99:42:65:a8:f5:16:16:46:86:65:c3:ee:35:f6:76:
                    2f:c2:26:ad:67:80:f1:93:0e:91:4f:45:05:72:bf:
                    ba:de:6f:99:54:84:68:50:89:fd:83:59:90:b0:41:
                    90:49:f6:c1:97:2a:d7:56:6f:48:0b:ae:66:c8:fc:
                    64:81:19:45:4f:bc:b0:de:4a:d0:98:e8:89:d7:86:
                    2c:cf:d2:dc:72:45:86:6b:fc:e2:15:9d:62:87:f8:
                    22:a2:fa:fe:53:cd:47:b6:e8:4b:fc:36:01:a1:ac:
                    2c:8c:2b:e8:7e:d9:66:1e:ff:3c:ad:d2:4e:ec:11:
                    07:a5:13:99:9b:46:cd:9c:4b:02:b1:63:0a:19:e4:
                    3f:1e:ba:dd:a2:9d:a2:cb:41:75:82:bd:da:dc:aa:
                    66:12:6d:3e:86:74:fa:a6:77:da:c8:8f:01:1f:5b:
                    16:e6:e9:35:8f:35:91:f6:5d:c4:22:4e:b4:4d:c7:
                    5e:c5:1c:ab:cd:94:54:20:98:e9:2d:6b:d5:cd:61:
                    49:3f:08:cb:7a:b7:84:26:74:cc:e7:a5:a3:3b:72:
                    ba:56:5d:7d:3a:a6:bf:b3:6e:8c:ae:5f:04:c5:39:
                    cc:69:20:41:7e:c1:d9:3e:25:b9:a6:20:ed:62:f2:
                    b0:9f:e3:ea:5c:14:c9:a5:5c:4a:6b:3d:69:43:5d:
                    f5:fb:fa:ea:e2:38:76:f2:23:6b:05:42:75:bc:2a:
                    dd:62:99:ab:36:b5:97:c2:0e:3e:77:fb:c7:65:96:
                    94:94:12:14:ea:d8:26:db:cb:1b:7d:ae:30:b0:7b:
                    d7:f4:cf
                Exponent: 65537 (0x10001)
        X509v3 extensions:
            X509v3 Basic Constraints: 
                CA:FALSE
            Netscape Comment: 
                Easy-RSA Generated Certificate
            X509v3 Subject Key Identifier: 
                E5:1B:ED:70:67:41:AF:E3:33:1C:B5:CD:6A:2F:26:1E:69:C4:11:10
            X509v3 Authority Key Identifier: 
                keyid:EF:38:8D:14:50:58:A7:5B:4D:9C:17:72:FC:DF:B9:AC:A7:51:B0:10
                DirName:/C=US/ST=CA/L=SanFrancisco/O=Pixglo, Inc./OU=VPN-CIE/CN=tunnel.pixglo.com/name=Bala Chandrasekaran/emailAddress=bala@pixglo.com
                serial:A6:DB:C6:83:80:E6:A0:79

            X509v3 Extended Key Usage: 
                TLS Web Client Authentication
            X509v3 Key Usage: 
                Digital Signature
    Signature Algorithm: sha1WithRSAEncryption
         1a:d0:50:26:b8:a2:d8:a2:b5:f4:31:2e:4f:33:c2:87:4b:39:
         7f:a8:82:c7:3e:ba:ce:c7:c6:fa:62:84:70:e7:26:a3:ad:4d:
         17:ff:7c:9b:f4:73:7f:5f:0a:48:db:e3:c0:6f:67:93:ad:0a:
         9b:59:27:21:f2:63:5a:8b:1a:c1:69:96:11:3f:3c:67:a1:50:
         a4:3d:cd:ac:bd:ec:25:52:59:6f:fd:a5:e3:ac:0e:27:e0:e2:
         39:55:fe:6b:a8:72:c7:be:16:64:0c:f2:51:29:54:bd:0e:4c:
         d0:68:9b:fd:ef:74:dc:6a:b3:2a:f8:70:3b:d2:58:01:d9:e5:
         38:1d:59:98:b7:f5:1a:bf:46:f1:c1:ee:90:69:8d:59:c7:d5:
         96:04:d2:94:65:c7:70:31:c2:54:32:64:29:da:79:5d:2c:3e:
         f0:b2:f6:2e:64:21:81:34:64:5f:f9:37:f4:28:fa:a7:86:ed:
         b7:30:88:eb:76:92:03:94:2b:c2:61:06:6e:80:f0:23:92:d8:
         a0:8b:ea:56:85:f8:de:52:12:cd:a4:bd:ee:58:01:71:7e:f2:
         98:bf:f9:be:67:6e:29:e5:a8:58:72:6f:ec:c4:96:24:fc:61:
         4b:6a:cc:f6:6b:21:d1:35:d9:62:e1:46:f4:50:0c:aa:dc:c9:
         26:c1:da:b6:40:6d:7a:be:67:de:56:54:fa:2f:9a:72:08:c5:
         2f:59:85:f5:74:45:ca:34:d4:4e:9d:dd:f6:be:c6:1e:11:ac:
         1e:44:87:7e:47:68:e3:cc:da:e0:24:e6:e6:7b:f9:cc:ad:85:
         f4:e8:38:5a:3d:bb:95:ab:19:e0:f6:0b:7d:85:c7:42:92:51:
         6d:f7:9f:1b:44:32:fd:d3:82:61:b6:49:17:50:39:5d:39:dc:
         51:5e:92:4d:65:18:2a:12:b8:a1:27:19:b0:6c:a9:99:c2:c4:
         b7:c6:e6:9a:f3:d2:9d:f3:e1:73:6c:4c:f9:c0:e0:08:af:09:
         6a:90:cb:7f:3e:23:9c:d9:b8:18:2e:41:9f:4d:91:c8:c1:d8:
         01:02:2b:3c:94:2c:69:f1:bc:e7:23:36:66:2e:49:c8:50:c6:
         6b:49:c5:69:a7:de:87:1a:7a:31:89:96:92:df:79:59:ed:79:
         ac:6a:79:8b:8b:9b:89:1c:ae:17:d5:3b:a7:87:34:69:5a:d8:
         d9:3e:8c:1e:40:9b:ea:92:54:f2:89:57:48:40:3a:9b:ea:25:
         14:68:9d:16:21:0f:01:66:82:8c:f5:ca:d9:f9:8e:aa:b0:0e:
         bf:ed:a7:d4:c6:24:8f:a0:0e:76:0f:e5:c5:82:3b:2d:41:e4:
         9a:ac:2a:65:d7:d1:c0:e7
-----BEGIN CERTIFICATE-----
MIIHSDCCBTCgAwIBAgICARowDQYJKoZIhvcNAQEFBQAwgbQxCzAJBgNVBAYTAlVT
MQswCQYDVQQIEwJDQTEVMBMGA1UEBxMMU2FuRnJhbmNpc2NvMRUwEwYDVQQKEwxQ
aXhnbG8sIEluYy4xEDAOBgNVBAsTB1ZQTi1DSUUxGjAYBgNVBAMTEXR1bm5lbC5w
aXhnbG8uY29tMRwwGgYDVQQpExNCYWxhIENoYW5kcmFzZWthcmFuMR4wHAYJKoZI
hvcNAQkBFg9iYWxhQHBpeGdsby5jb20wHhcNMTgwMjE0MDYyOTQ2WhcNMjgwMjEy
MDYyOTQ2WjCBqTELMAkGA1UEBhMCVVMxCzAJBgNVBAgTAkNBMRUwEwYDVQQHEwxT
YW5GcmFuY2lzY28xFTATBgNVBAoTDFBpeGdsbywgSW5jLjEQMA4GA1UECxMHVlBO
LUNJRTEPMA0GA1UEAxMGY2llMjgxMRwwGgYDVQQpExNCYWxhIENoYW5kcmFzZWth
cmFuMR4wHAYJKoZIhvcNAQkBFg9iYWxhQHBpeGdsby5jb20wggIiMA0GCSqGSIb3
DQEBAQUAA4ICDwAwggIKAoICAQDv6CQkmG6dGM9RvJwRf/Pf7BYmhfqqlvP1jn2A
HqzCT7DyYKy9dOs8X2hOI+k9iPfe/6ekzMw73lgcHW+rn4UilAYAnsmm6tOK+OLm
WK6F4IEfHFyH4LxCYa1UoWLW2HuEgosB7q/vQ2waGsOMbucRX/T7uswCFNk8iBgu
DVEnD8iJqOsFhREUIJvG3RRYQ58HqAyY0EqIWg/PiyuBjaf2EGi/IPmSVO04r428
l95b1Yl5IwQl1r8dN1YnC42kCX70NpzvBPRnXShDrjrKqd9oAJlCZaj1FhZGhmXD
7jX2di/CJq1ngPGTDpFPRQVyv7reb5lUhGhQif2DWZCwQZBJ9sGXKtdWb0gLrmbI
/GSBGUVPvLDeStCY6InXhizP0txyRYZr/OIVnWKH+CKi+v5TzUe26Ev8NgGhrCyM
K+h+2WYe/zyt0k7sEQelE5mbRs2cSwKxYwoZ5D8eut2inaLLQXWCvdrcqmYSbT6G
dPqmd9rIjwEfWxbm6TWPNZH2XcQiTrRNx17FHKvNlFQgmOkta9XNYUk/CMt6t4Qm
dMznpaM7crpWXX06pr+zboyuXwTFOcxpIEF+wdk+JbmmIO1i8rCf4+pcFMmlXEpr
PWlDXfX7+uriOHbyI2sFQnW8Kt1imas2tZfCDj53+8dllpSUEhTq2Cbbyxt9rjCw
e9f0zwIDAQABo4IBazCCAWcwCQYDVR0TBAIwADAtBglghkgBhvhCAQ0EIBYeRWFz
eS1SU0EgR2VuZXJhdGVkIENlcnRpZmljYXRlMB0GA1UdDgQWBBTlG+1wZ0Gv4zMc
tc1qLyYeacQREDCB6QYDVR0jBIHhMIHegBTvOI0UUFinW02cF3L837msp1GwEKGB
uqSBtzCBtDELMAkGA1UEBhMCVVMxCzAJBgNVBAgTAkNBMRUwEwYDVQQHEwxTYW5G
cmFuY2lzY28xFTATBgNVBAoTDFBpeGdsbywgSW5jLjEQMA4GA1UECxMHVlBOLUNJ
RTEaMBgGA1UEAxMRdHVubmVsLnBpeGdsby5jb20xHDAaBgNVBCkTE0JhbGEgQ2hh
bmRyYXNla2FyYW4xHjAcBgkqhkiG9w0BCQEWD2JhbGFAcGl4Z2xvLmNvbYIJAKbb
xoOA5qB5MBMGA1UdJQQMMAoGCCsGAQUFBwMCMAsGA1UdDwQEAwIHgDANBgkqhkiG
9w0BAQUFAAOCAgEAGtBQJrii2KK19DEuTzPCh0s5f6iCxz66zsfG+mKEcOcmo61N
F/98m/Rzf18KSNvjwG9nk60Km1knIfJjWosawWmWET88Z6FQpD3NrL3sJVJZb/2l
46wOJ+DiOVX+a6hyx74WZAzyUSlUvQ5M0Gib/e903GqzKvhwO9JYAdnlOB1ZmLf1
Gr9G8cHukGmNWcfVlgTSlGXHcDHCVDJkKdp5XSw+8LL2LmQhgTRkX/k39Cj6p4bt
tzCI63aSA5QrwmEGboDwI5LYoIvqVoX43lISzaS97lgBcX7ymL/5vmduKeWoWHJv
7MSWJPxhS2rM9msh0TXZYuFG9FAMqtzJJsHatkBter5n3lZU+i+acgjFL1mF9XRF
yjTUTp3d9r7GHhGsHkSHfkdo48za4CTm5nv5zK2F9Og4Wj27lasZ4PYLfYXHQpJR
bfefG0Qy/dOCYbZJF1A5XTncUV6STWUYKhK4oScZsGypmcLEt8bmmvPSnfPhc2xM
+cDgCK8JapDLfz4jnNm4GC5Bn02RyMHYAQIrPJQsafG85yM2Zi5JyFDGa0nFaafe
hxp6MYmWkt95We15rGp5i4ubiRyuF9U7p4c0aVrY2T6MHkCb6pJU8olXSEA6m+ol
FGidFiEPAWaCjPXK2fmOqrAOv+2n1MYkj6AOdg/lxYI7LUHkmqwqZdfRwOc=
-----END CERTIFICATE-----
