Certificate:
    Data:
        Version: 3 (0x2)
        Serial Number: 283 (0x11b)
    Signature Algorithm: sha1WithRSAEncryption
        Issuer: C=US, ST=CA, L=SanFrancisco, O=Pixglo, Inc., OU=VPN-CIE, CN=tunnel.pixglo.com/name=Bala Chandrasekaran/emailAddress=bala@pixglo.com
        Validity
            Not Before: Feb 14 06:29:47 2018 GMT
            Not After : Feb 12 06:29:47 2028 GMT
        Subject: C=US, ST=CA, L=SanFrancisco, O=Pixglo, Inc., OU=VPN-CIE, CN=cie282/name=Bala Chandrasekaran/emailAddress=bala@pixglo.com
        Subject Public Key Info:
            Public Key Algorithm: rsaEncryption
                Public-Key: (4096 bit)
                Modulus:
                    00:ca:80:9a:59:9b:42:62:61:e8:27:d9:70:4e:bb:
                    b2:3e:eb:d0:c3:04:69:0c:66:c6:75:3d:1e:0d:2b:
                    11:c6:52:22:a6:ea:50:d3:9b:5c:5e:da:7c:6b:d0:
                    a1:4a:7f:5a:d0:84:87:93:43:c8:e8:02:83:ad:97:
                    df:ba:74:51:e0:fe:c4:f7:94:bf:9e:c8:2c:78:34:
                    03:c1:a4:22:46:ba:c7:50:88:5a:72:c3:4c:d9:fc:
                    b5:84:1d:6e:21:34:d9:fe:6f:8a:02:84:6b:16:41:
                    ce:c6:a8:74:1d:bf:ab:95:66:bf:df:df:8b:7b:31:
                    fc:ea:6f:ad:cb:2d:d0:a6:86:89:c1:8c:20:01:00:
                    c4:46:cb:01:7a:f6:d3:0e:a1:01:8b:57:97:b6:69:
                    f6:e3:1a:8f:c6:9e:d1:17:f8:a6:19:7f:75:af:2f:
                    80:ed:8c:17:34:94:12:5a:8d:f5:ce:dd:4e:28:44:
                    d6:10:c0:dc:f1:73:05:4b:6c:da:a5:8f:92:1a:8b:
                    04:65:55:f0:37:b2:6a:e4:9d:7f:fe:ac:ef:3e:1c:
                    a9:e2:60:0a:cd:62:3f:73:ba:17:04:e6:61:21:01:
                    02:f5:09:66:f6:04:8f:f2:dc:b1:62:e0:76:34:48:
                    5d:ac:ce:88:3c:01:bb:e0:f4:95:cc:b2:05:50:46:
                    fc:cb:00:64:3c:69:24:54:39:ca:f3:90:9a:75:b0:
                    60:db:55:10:25:db:73:51:55:86:5a:a8:95:31:ce:
                    9d:cd:f3:78:e3:d7:a7:aa:2d:d5:ba:3b:bd:7c:72:
                    ad:67:ad:de:83:97:d7:9f:12:04:d1:6c:cd:81:fb:
                    30:89:fc:56:d1:c0:64:47:20:a1:63:a8:b0:95:c6:
                    86:dd:1f:d2:b1:0d:6a:3c:02:b9:5c:61:8f:2a:6c:
                    01:57:b9:51:ce:cd:af:9f:0e:b8:d9:db:3c:61:a7:
                    32:e5:b9:e0:75:ed:31:d2:9a:69:1c:63:e5:72:a7:
                    53:48:d8:0b:b2:fe:7f:b5:a4:27:2d:64:bc:31:72:
                    45:5b:08:8b:a6:74:4b:51:31:a3:f4:a5:a6:01:95:
                    2d:4a:8a:e3:2d:bb:3d:c9:f6:2c:0d:50:b5:cb:c4:
                    f0:7d:45:bd:8e:98:5a:55:a7:85:e4:4b:ff:72:73:
                    ce:1f:d1:e6:1a:bd:a6:3b:77:e9:0b:18:f7:f6:8a:
                    98:1a:18:0f:8e:c5:79:d1:29:f3:17:31:8f:56:12:
                    b0:5d:e1:c0:99:41:47:de:b9:63:19:73:10:ec:cf:
                    95:f4:e0:d4:8d:43:c4:14:a3:13:f8:52:b8:e7:88:
                    0c:ac:33:05:8e:7d:7c:c1:9f:c2:69:37:af:54:1a:
                    5a:83:b5
                Exponent: 65537 (0x10001)
        X509v3 extensions:
            X509v3 Basic Constraints: 
                CA:FALSE
            Netscape Comment: 
                Easy-RSA Generated Certificate
            X509v3 Subject Key Identifier: 
                2C:E2:2C:CF:57:FB:0D:83:79:C6:2E:62:F6:71:E8:F7:4C:06:03:ED
            X509v3 Authority Key Identifier: 
                keyid:EF:38:8D:14:50:58:A7:5B:4D:9C:17:72:FC:DF:B9:AC:A7:51:B0:10
                DirName:/C=US/ST=CA/L=SanFrancisco/O=Pixglo, Inc./OU=VPN-CIE/CN=tunnel.pixglo.com/name=Bala Chandrasekaran/emailAddress=bala@pixglo.com
                serial:A6:DB:C6:83:80:E6:A0:79

            X509v3 Extended Key Usage: 
                TLS Web Client Authentication
            X509v3 Key Usage: 
                Digital Signature
    Signature Algorithm: sha1WithRSAEncryption
         ad:dc:37:16:cc:0a:6d:3b:32:50:3f:ed:9a:ca:99:a2:4d:e4:
         e3:e5:16:7a:6b:56:7c:bc:87:44:f0:c0:b5:9a:9b:40:5e:e7:
         dd:b6:8e:0a:7b:44:62:64:08:d3:d0:2b:63:3c:c2:c5:84:b1:
         5e:b6:13:4d:77:92:97:a0:b3:6a:7c:05:a8:9b:f8:eb:2a:f8:
         82:38:81:33:a7:ad:a9:19:fd:d0:e2:50:3f:6b:2b:e3:9e:88:
         11:7a:90:69:34:db:18:c1:72:58:c9:bd:fb:37:e9:62:4d:25:
         a9:c6:24:10:43:db:fc:7b:96:e6:83:8f:df:4f:7d:23:db:74:
         c1:a5:0c:53:62:fa:28:3c:df:ff:f2:49:bd:be:e9:17:5a:e5:
         f2:17:65:dc:51:e1:63:b1:17:9a:c6:cd:91:dd:d4:43:87:85:
         bc:a6:43:a3:84:50:42:9f:84:fd:94:f6:2c:04:e9:bd:9d:63:
         59:ca:97:54:7b:68:68:84:18:de:d2:88:9b:87:28:f2:6e:58:
         0e:44:a1:79:a0:73:96:79:5e:69:2c:4a:c4:8c:b9:d8:28:e5:
         63:d1:98:e2:ce:e7:b3:46:9f:67:d8:d8:a9:23:45:39:20:f9:
         31:58:1e:82:4f:eb:83:83:a4:d2:89:a0:a7:72:98:18:91:9f:
         24:14:32:33:b1:f4:9b:59:70:c8:16:4f:cc:2d:b6:84:69:ae:
         87:b3:ef:b6:fe:6a:6c:37:6f:82:16:ea:16:cc:14:da:27:3e:
         0c:b9:15:92:09:d5:13:a4:b0:9d:75:ea:86:46:6c:77:40:d7:
         ae:de:05:7b:c6:bb:19:07:43:7a:ad:9c:ba:ae:20:c7:0b:2f:
         51:07:b0:7f:06:84:7e:e0:0e:ba:21:86:90:3d:e0:5b:e8:bc:
         c8:4b:33:f9:fa:52:90:cd:eb:74:f4:c2:2e:e1:51:e9:f7:d7:
         14:a3:19:c3:0f:00:c5:34:8a:4b:03:43:e2:61:8f:42:17:52:
         73:e5:f4:bf:6d:f5:e0:42:03:cc:d2:c5:b8:58:a3:ab:b3:66:
         3d:0f:71:f0:05:ba:d3:67:f0:40:1e:07:5d:72:f2:28:30:48:
         ac:00:f2:c9:57:db:bd:76:90:0d:69:0e:c7:4f:18:56:ba:e9:
         4f:26:6a:74:90:54:95:1f:6e:5d:52:f7:ea:5a:eb:aa:fa:28:
         ad:42:02:be:6a:c8:95:ec:5d:61:d0:19:1d:15:3a:44:8f:37:
         a9:f7:df:6c:86:5b:c0:cf:c3:9d:c5:b8:6c:af:1e:e8:b3:24:
         ea:7e:f9:49:31:80:20:2b:89:c2:2f:f2:4b:21:f0:47:93:2b:
         e0:67:55:89:e0:bf:3f:cf
-----BEGIN CERTIFICATE-----
MIIHSDCCBTCgAwIBAgICARswDQYJKoZIhvcNAQEFBQAwgbQxCzAJBgNVBAYTAlVT
MQswCQYDVQQIEwJDQTEVMBMGA1UEBxMMU2FuRnJhbmNpc2NvMRUwEwYDVQQKEwxQ
aXhnbG8sIEluYy4xEDAOBgNVBAsTB1ZQTi1DSUUxGjAYBgNVBAMTEXR1bm5lbC5w
aXhnbG8uY29tMRwwGgYDVQQpExNCYWxhIENoYW5kcmFzZWthcmFuMR4wHAYJKoZI
hvcNAQkBFg9iYWxhQHBpeGdsby5jb20wHhcNMTgwMjE0MDYyOTQ3WhcNMjgwMjEy
MDYyOTQ3WjCBqTELMAkGA1UEBhMCVVMxCzAJBgNVBAgTAkNBMRUwEwYDVQQHEwxT
YW5GcmFuY2lzY28xFTATBgNVBAoTDFBpeGdsbywgSW5jLjEQMA4GA1UECxMHVlBO
LUNJRTEPMA0GA1UEAxMGY2llMjgyMRwwGgYDVQQpExNCYWxhIENoYW5kcmFzZWth
cmFuMR4wHAYJKoZIhvcNAQkBFg9iYWxhQHBpeGdsby5jb20wggIiMA0GCSqGSIb3
DQEBAQUAA4ICDwAwggIKAoICAQDKgJpZm0JiYegn2XBOu7I+69DDBGkMZsZ1PR4N
KxHGUiKm6lDTm1xe2nxr0KFKf1rQhIeTQ8joAoOtl9+6dFHg/sT3lL+eyCx4NAPB
pCJGusdQiFpyw0zZ/LWEHW4hNNn+b4oChGsWQc7GqHQdv6uVZr/f34t7Mfzqb63L
LdCmhonBjCABAMRGywF69tMOoQGLV5e2afbjGo/GntEX+KYZf3WvL4DtjBc0lBJa
jfXO3U4oRNYQwNzxcwVLbNqlj5IaiwRlVfA3smrknX/+rO8+HKniYArNYj9zuhcE
5mEhAQL1CWb2BI/y3LFi4HY0SF2szog8Abvg9JXMsgVQRvzLAGQ8aSRUOcrzkJp1
sGDbVRAl23NRVYZaqJUxzp3N83jj16eqLdW6O718cq1nrd6Dl9efEgTRbM2B+zCJ
/FbRwGRHIKFjqLCVxobdH9KxDWo8ArlcYY8qbAFXuVHOza+fDrjZ2zxhpzLlueB1
7THSmmkcY+Vyp1NI2Auy/n+1pCctZLwxckVbCIumdEtRMaP0paYBlS1KiuMtuz3J
9iwNULXLxPB9Rb2OmFpVp4XkS/9yc84f0eYavaY7d+kLGPf2ipgaGA+OxXnRKfMX
MY9WErBd4cCZQUfeuWMZcxDsz5X04NSNQ8QUoxP4UrjniAysMwWOfXzBn8JpN69U
GlqDtQIDAQABo4IBazCCAWcwCQYDVR0TBAIwADAtBglghkgBhvhCAQ0EIBYeRWFz
eS1SU0EgR2VuZXJhdGVkIENlcnRpZmljYXRlMB0GA1UdDgQWBBQs4izPV/sNg3nG
LmL2cej3TAYD7TCB6QYDVR0jBIHhMIHegBTvOI0UUFinW02cF3L837msp1GwEKGB
uqSBtzCBtDELMAkGA1UEBhMCVVMxCzAJBgNVBAgTAkNBMRUwEwYDVQQHEwxTYW5G
cmFuY2lzY28xFTATBgNVBAoTDFBpeGdsbywgSW5jLjEQMA4GA1UECxMHVlBOLUNJ
RTEaMBgGA1UEAxMRdHVubmVsLnBpeGdsby5jb20xHDAaBgNVBCkTE0JhbGEgQ2hh
bmRyYXNla2FyYW4xHjAcBgkqhkiG9w0BCQEWD2JhbGFAcGl4Z2xvLmNvbYIJAKbb
xoOA5qB5MBMGA1UdJQQMMAoGCCsGAQUFBwMCMAsGA1UdDwQEAwIHgDANBgkqhkiG
9w0BAQUFAAOCAgEArdw3FswKbTsyUD/tmsqZok3k4+UWemtWfLyHRPDAtZqbQF7n
3baOCntEYmQI09ArYzzCxYSxXrYTTXeSl6CzanwFqJv46yr4gjiBM6etqRn90OJQ
P2sr456IEXqQaTTbGMFyWMm9+zfpYk0lqcYkEEPb/HuW5oOP3099I9t0waUMU2L6
KDzf//JJvb7pF1rl8hdl3FHhY7EXmsbNkd3UQ4eFvKZDo4RQQp+E/ZT2LATpvZ1j
WcqXVHtoaIQY3tKIm4co8m5YDkSheaBzlnleaSxKxIy52CjlY9GY4s7ns0afZ9jY
qSNFOSD5MVgegk/rg4Ok0omgp3KYGJGfJBQyM7H0m1lwyBZPzC22hGmuh7Pvtv5q
bDdvghbqFswU2ic+DLkVkgnVE6SwnXXqhkZsd0DXrt4Fe8a7GQdDeq2cuq4gxwsv
UQewfwaEfuAOuiGGkD3gW+i8yEsz+fpSkM3rdPTCLuFR6ffXFKMZww8AxTSKSwND
4mGPQhdSc+X0v2314EIDzNLFuFijq7NmPQ9x8AW602fwQB4HXXLyKDBIrADyyVfb
vXaQDWkOx08YVrrpTyZqdJBUlR9uXVL36lrrqvoorUICvmrIlexdYdAZHRU6RI83
qfffbIZbwM/DncW4bK8e6LMk6n75STGAICuJwi/ySyHwR5Mr4GdVieC/P88=
-----END CERTIFICATE-----
