Certificate:
    Data:
        Version: 3 (0x2)
        Serial Number: 285 (0x11d)
    Signature Algorithm: sha1WithRSAEncryption
        Issuer: C=US, ST=CA, L=SanFrancisco, O=Pixglo, Inc., OU=VPN-CIE, CN=tunnel.pixglo.com/name=Bala Chandrasekaran/emailAddress=bala@pixglo.com
        Validity
            Not Before: Feb 14 06:29:50 2018 GMT
            Not After : Feb 12 06:29:50 2028 GMT
        Subject: C=US, ST=CA, L=SanFrancisco, O=Pixglo, Inc., OU=VPN-CIE, CN=cie284/name=Bala Chandrasekaran/emailAddress=bala@pixglo.com
        Subject Public Key Info:
            Public Key Algorithm: rsaEncryption
                Public-Key: (4096 bit)
                Modulus:
                    00:d7:6b:2e:b8:14:b1:00:31:c9:c5:17:e0:1a:fc:
                    3b:f7:54:b3:c1:80:f8:fa:bf:fd:19:5d:b6:11:29:
                    d7:ae:c3:15:bb:fe:2e:fb:dd:b6:a7:5c:5b:53:6b:
                    0b:13:0d:1e:35:a8:52:c5:6b:84:2a:0f:4f:f4:15:
                    f4:22:7e:70:9d:04:84:78:56:0b:9e:42:cc:a9:34:
                    e9:b3:f8:7a:95:d1:2e:2c:4e:38:69:cd:b7:fd:58:
                    89:0a:e8:9b:25:5b:53:52:2f:11:6f:c3:1c:27:8e:
                    ae:25:d9:a0:40:7c:48:da:f6:b0:c8:09:8c:57:39:
                    66:c9:bd:67:3a:8c:3e:bd:46:34:d4:45:5a:22:0c:
                    df:44:15:f4:66:af:df:fe:7d:34:54:8b:d6:cf:6c:
                    86:6b:d5:ad:5f:42:7a:5b:6c:43:c2:69:79:b4:9c:
                    b8:0f:79:0b:f1:8a:5a:3d:23:5e:c5:b0:b0:7f:db:
                    36:ff:90:47:8c:d5:89:d3:05:ef:fa:af:86:b2:c3:
                    bf:cb:6d:59:b4:02:b1:e9:96:aa:ed:94:63:5d:17:
                    bd:58:3e:d7:49:b1:84:83:2b:ad:cf:89:b3:ba:24:
                    f5:76:76:7b:b2:e4:3b:a4:5f:42:1f:dc:a2:74:97:
                    4c:7d:9a:40:03:49:7b:2e:3a:3b:74:6c:1f:52:83:
                    76:c0:c1:05:36:ca:73:7a:35:34:8f:ff:9d:51:c0:
                    95:83:88:f7:f5:5d:5c:42:66:20:b8:f5:21:c1:59:
                    a8:2d:df:e7:89:d5:e1:a5:19:16:8e:d4:c4:47:98:
                    ce:65:27:cb:d2:83:52:f5:4d:1d:c5:5d:58:08:df:
                    db:8c:a4:dc:07:92:35:93:e2:bd:b7:9b:ee:04:db:
                    b8:45:9a:18:a4:8d:df:14:94:e5:74:22:df:3a:1e:
                    42:64:44:ea:f7:04:b9:8a:65:f1:bc:70:6c:56:6c:
                    48:01:a4:a0:c0:0f:87:6e:ad:2a:6b:ef:f3:f1:f4:
                    05:a9:b8:7a:cb:5b:f7:de:35:a7:30:d1:f1:70:aa:
                    6a:8a:5e:e7:d5:83:a7:cc:6b:09:5e:99:b7:81:04:
                    83:f0:60:02:35:07:1a:80:ef:54:6f:83:78:99:d2:
                    90:a5:a1:1c:87:6f:4a:42:eb:c1:07:52:f8:9b:39:
                    b0:77:e2:62:d2:73:0a:f9:e1:8b:bd:3a:b5:79:29:
                    d4:b9:d7:e0:b9:7c:7d:45:3d:2c:67:9f:56:a7:bd:
                    88:73:3a:21:98:db:6c:bd:4c:3d:97:22:41:09:c4:
                    c8:a6:1d:63:21:5e:df:21:d4:4a:bc:4c:79:e4:4d:
                    d0:b6:8b:e9:61:c9:6f:37:4f:b4:47:5c:3b:76:5b:
                    16:7b:b5
                Exponent: 65537 (0x10001)
        X509v3 extensions:
            X509v3 Basic Constraints: 
                CA:FALSE
            Netscape Comment: 
                Easy-RSA Generated Certificate
            X509v3 Subject Key Identifier: 
                1D:A7:8F:87:FA:01:57:C7:FE:CD:36:F9:CA:08:44:39:0F:9F:B5:2F
            X509v3 Authority Key Identifier: 
                keyid:EF:38:8D:14:50:58:A7:5B:4D:9C:17:72:FC:DF:B9:AC:A7:51:B0:10
                DirName:/C=US/ST=CA/L=SanFrancisco/O=Pixglo, Inc./OU=VPN-CIE/CN=tunnel.pixglo.com/name=Bala Chandrasekaran/emailAddress=bala@pixglo.com
                serial:A6:DB:C6:83:80:E6:A0:79

            X509v3 Extended Key Usage: 
                TLS Web Client Authentication
            X509v3 Key Usage: 
                Digital Signature
    Signature Algorithm: sha1WithRSAEncryption
         70:e6:c0:c0:50:84:39:f7:b0:7c:58:71:aa:0a:c1:be:a2:9e:
         f7:4e:2d:e0:1e:20:c2:4f:89:f4:96:67:5f:e6:f7:b0:1d:c1:
         d2:8e:ba:28:7e:11:e0:f2:3a:90:67:cc:40:b4:22:45:19:a0:
         00:3b:e8:65:28:5f:f7:3d:9c:9f:ff:05:50:ef:b8:94:ee:06:
         72:1a:50:0a:2e:c2:4d:b5:d7:18:e5:71:29:aa:84:bd:ec:9d:
         68:18:4d:fc:d7:8f:f3:fb:cf:e0:1b:29:97:fa:07:bf:cf:76:
         d6:ed:8d:e2:7f:9f:5c:06:d6:f7:23:aa:cd:45:f3:66:77:ac:
         07:ff:17:65:07:aa:d3:47:f7:93:4b:3a:30:9c:f2:80:3a:41:
         6c:4b:95:94:95:3e:6e:ea:a6:2d:47:fe:dc:da:23:f5:cc:79:
         e0:9e:a9:cb:c8:12:30:2c:91:89:35:8a:58:a1:19:94:11:35:
         8d:a0:1f:9c:d8:7d:50:46:a5:d4:f7:16:1e:dc:95:ae:ea:87:
         12:74:dc:9b:72:7b:bb:b6:a7:f1:a3:a1:dc:da:5c:66:2e:1c:
         4e:a2:7f:f9:32:70:53:8e:71:a6:2b:eb:5e:7d:0e:3a:4a:9c:
         69:74:97:e9:ad:0d:1d:ec:7a:f6:2e:12:41:c2:12:4c:3a:ec:
         10:51:eb:c1:d0:4e:0d:20:48:09:65:a3:a7:b0:f1:d7:a0:87:
         69:69:0b:de:a1:ce:77:49:50:c7:2f:34:01:22:ca:da:ff:a8:
         f2:ca:fe:48:01:00:0a:52:b8:bd:b5:6d:10:e1:9e:f4:db:6c:
         5e:c1:6d:de:0f:56:ea:21:fc:b5:97:3d:ae:38:e6:3c:fe:88:
         5e:4e:5e:b2:e3:63:14:35:44:5c:ea:8e:33:9b:7f:bc:f9:f7:
         a5:4e:96:ba:12:02:f2:d5:f2:02:61:7e:fc:c4:4a:56:89:7b:
         10:ee:14:6b:9b:76:eb:d4:e5:78:cb:38:bf:f7:06:b8:a5:a7:
         02:08:ce:aa:dc:a5:07:2f:65:aa:ad:ba:3b:e8:2b:64:f0:ba:
         ee:da:b6:ef:9c:28:25:e1:1b:fb:f5:ff:69:93:39:68:07:54:
         ee:00:a5:5d:2b:70:c7:19:90:48:c9:10:65:11:ee:ee:ae:85:
         68:1c:de:67:ec:29:f6:56:4c:b6:f8:1f:6c:67:0c:c2:1a:c3:
         d7:7e:73:8a:9a:36:6c:9f:5f:3f:a2:16:05:a7:06:7e:2d:9d:
         6a:94:48:40:7e:55:d4:0e:5a:7d:50:65:d7:5a:62:25:c0:fb:
         03:c7:aa:03:23:67:91:37:f8:36:34:b0:ff:cc:7d:4c:89:bf:
         53:ee:e2:20:ac:ae:82:1a
-----BEGIN CERTIFICATE-----
MIIHSDCCBTCgAwIBAgICAR0wDQYJKoZIhvcNAQEFBQAwgbQxCzAJBgNVBAYTAlVT
MQswCQYDVQQIEwJDQTEVMBMGA1UEBxMMU2FuRnJhbmNpc2NvMRUwEwYDVQQKEwxQ
aXhnbG8sIEluYy4xEDAOBgNVBAsTB1ZQTi1DSUUxGjAYBgNVBAMTEXR1bm5lbC5w
aXhnbG8uY29tMRwwGgYDVQQpExNCYWxhIENoYW5kcmFzZWthcmFuMR4wHAYJKoZI
hvcNAQkBFg9iYWxhQHBpeGdsby5jb20wHhcNMTgwMjE0MDYyOTUwWhcNMjgwMjEy
MDYyOTUwWjCBqTELMAkGA1UEBhMCVVMxCzAJBgNVBAgTAkNBMRUwEwYDVQQHEwxT
YW5GcmFuY2lzY28xFTATBgNVBAoTDFBpeGdsbywgSW5jLjEQMA4GA1UECxMHVlBO
LUNJRTEPMA0GA1UEAxMGY2llMjg0MRwwGgYDVQQpExNCYWxhIENoYW5kcmFzZWth
cmFuMR4wHAYJKoZIhvcNAQkBFg9iYWxhQHBpeGdsby5jb20wggIiMA0GCSqGSIb3
DQEBAQUAA4ICDwAwggIKAoICAQDXay64FLEAMcnFF+Aa/Dv3VLPBgPj6v/0ZXbYR
KdeuwxW7/i773banXFtTawsTDR41qFLFa4QqD0/0FfQifnCdBIR4VgueQsypNOmz
+HqV0S4sTjhpzbf9WIkK6JslW1NSLxFvwxwnjq4l2aBAfEja9rDICYxXOWbJvWc6
jD69RjTURVoiDN9EFfRmr9/+fTRUi9bPbIZr1a1fQnpbbEPCaXm0nLgPeQvxilo9
I17FsLB/2zb/kEeM1YnTBe/6r4ayw7/LbVm0ArHplqrtlGNdF71YPtdJsYSDK63P
ibO6JPV2dnuy5DukX0If3KJ0l0x9mkADSXsuOjt0bB9Sg3bAwQU2ynN6NTSP/51R
wJWDiPf1XVxCZiC49SHBWagt3+eJ1eGlGRaO1MRHmM5lJ8vSg1L1TR3FXVgI39uM
pNwHkjWT4r23m+4E27hFmhikjd8UlOV0It86HkJkROr3BLmKZfG8cGxWbEgBpKDA
D4durSpr7/Px9AWpuHrLW/feNacw0fFwqmqKXufVg6fMawlembeBBIPwYAI1BxqA
71Rvg3iZ0pCloRyHb0pC68EHUvibObB34mLScwr54Yu9OrV5KdS51+C5fH1FPSxn
n1anvYhzOiGY22y9TD2XIkEJxMimHWMhXt8h1Eq8THnkTdC2i+lhyW83T7RHXDt2
WxZ7tQIDAQABo4IBazCCAWcwCQYDVR0TBAIwADAtBglghkgBhvhCAQ0EIBYeRWFz
eS1SU0EgR2VuZXJhdGVkIENlcnRpZmljYXRlMB0GA1UdDgQWBBQdp4+H+gFXx/7N
NvnKCEQ5D5+1LzCB6QYDVR0jBIHhMIHegBTvOI0UUFinW02cF3L837msp1GwEKGB
uqSBtzCBtDELMAkGA1UEBhMCVVMxCzAJBgNVBAgTAkNBMRUwEwYDVQQHEwxTYW5G
cmFuY2lzY28xFTATBgNVBAoTDFBpeGdsbywgSW5jLjEQMA4GA1UECxMHVlBOLUNJ
RTEaMBgGA1UEAxMRdHVubmVsLnBpeGdsby5jb20xHDAaBgNVBCkTE0JhbGEgQ2hh
bmRyYXNla2FyYW4xHjAcBgkqhkiG9w0BCQEWD2JhbGFAcGl4Z2xvLmNvbYIJAKbb
xoOA5qB5MBMGA1UdJQQMMAoGCCsGAQUFBwMCMAsGA1UdDwQEAwIHgDANBgkqhkiG
9w0BAQUFAAOCAgEAcObAwFCEOfewfFhxqgrBvqKe904t4B4gwk+J9JZnX+b3sB3B
0o66KH4R4PI6kGfMQLQiRRmgADvoZShf9z2cn/8FUO+4lO4GchpQCi7CTbXXGOVx
KaqEveydaBhN/NeP8/vP4Bspl/oHv8921u2N4n+fXAbW9yOqzUXzZnesB/8XZQeq
00f3k0s6MJzygDpBbEuVlJU+buqmLUf+3Noj9cx54J6py8gSMCyRiTWKWKEZlBE1
jaAfnNh9UEal1PcWHtyVruqHEnTcm3J7u7an8aOh3NpcZi4cTqJ/+TJwU45xpivr
Xn0OOkqcaXSX6a0NHex69i4SQcISTDrsEFHrwdBODSBICWWjp7Dx16CHaWkL3qHO
d0lQxy80ASLK2v+o8sr+SAEAClK4vbVtEOGe9NtsXsFt3g9W6iH8tZc9rjjmPP6I
Xk5esuNjFDVEXOqOM5t/vPn3pU6WuhIC8tXyAmF+/MRKVol7EO4Ua5t269TleMs4
v/cGuKWnAgjOqtylBy9lqq26O+grZPC67tq275woJeEb+/X/aZM5aAdU7gClXStw
xxmQSMkQZRHu7q6FaBzeZ+wp9lZMtvgfbGcMwhrD135zipo2bJ9fP6IWBacGfi2d
apRIQH5V1A5afVBl11piJcD7A8eqAyNnkTf4NjSw/8x9TIm/U+7iIKyugho=
-----END CERTIFICATE-----
