Certificate:
    Data:
        Version: 3 (0x2)
        Serial Number: 288 (0x120)
    Signature Algorithm: sha1WithRSAEncryption
        Issuer: C=US, ST=CA, L=SanFrancisco, O=Pixglo, Inc., OU=VPN-CIE, CN=tunnel.pixglo.com/name=Bala Chandrasekaran/emailAddress=bala@pixglo.com
        Validity
            Not Before: Feb 14 06:29:51 2018 GMT
            Not After : Feb 12 06:29:51 2028 GMT
        Subject: C=US, ST=CA, L=SanFrancisco, O=Pixglo, Inc., OU=VPN-CIE, CN=cie287/name=Bala Chandrasekaran/emailAddress=bala@pixglo.com
        Subject Public Key Info:
            Public Key Algorithm: rsaEncryption
                Public-Key: (4096 bit)
                Modulus:
                    00:c4:7a:44:62:8c:6e:8b:c7:0a:5b:8f:54:3d:4e:
                    a0:ed:20:8d:e2:60:ea:48:04:29:f4:80:66:70:e7:
                    75:e9:41:33:b0:f6:01:b7:52:a6:14:a5:26:e9:06:
                    65:cc:c8:3a:f8:17:cb:67:1f:ad:ea:12:52:9e:f5:
                    6f:eb:ed:de:a6:3d:25:c2:2f:4b:6b:2d:17:cd:c1:
                    99:79:7e:b2:af:22:e1:86:49:76:7c:17:0b:78:fc:
                    e6:8b:1e:9f:aa:0c:97:10:39:ee:22:1f:b7:3e:fa:
                    fd:9b:b4:fa:ad:76:72:7d:de:8e:ed:e9:20:80:1c:
                    05:c4:a9:bf:2c:59:cd:d1:fe:bf:5d:c8:87:24:48:
                    63:8a:69:ff:3c:f6:89:1c:b7:76:6b:b9:38:13:dc:
                    b4:9e:fc:d3:93:11:df:41:8e:64:a5:89:13:aa:ce:
                    90:05:f9:eb:ef:2a:ab:6f:4e:fa:54:9f:d2:9b:40:
                    f6:04:cc:e1:ff:fd:3c:ae:4a:14:a6:48:e6:2a:cc:
                    a7:ba:dd:98:b7:27:ca:6f:b9:d8:a9:29:06:7f:b3:
                    db:d3:c5:25:3c:c8:a2:0b:dd:bd:61:74:a0:4b:35:
                    bf:3c:cd:0a:b5:21:86:e9:e5:6e:3e:45:09:06:bf:
                    af:e7:ec:ff:08:e5:7a:a4:fd:a1:31:61:0e:ac:5b:
                    6a:52:30:a9:cd:00:e0:bf:5e:a8:3e:8c:49:6d:7e:
                    ec:b3:ad:3f:69:2c:13:53:8e:55:5f:c0:4b:ec:87:
                    57:ae:8e:50:23:55:d9:8d:c1:6b:6b:f5:40:8b:46:
                    47:20:4b:60:88:7b:d1:cc:e4:d5:ca:65:df:95:82:
                    a2:4f:5e:ea:7d:3e:d8:db:c8:8b:52:e2:c4:eb:81:
                    56:88:63:a6:39:63:f8:31:58:a3:e4:01:45:07:a5:
                    e5:35:10:93:1d:8b:6e:58:c5:cf:94:3c:5a:46:e9:
                    d2:59:bb:c2:eb:92:23:35:75:1e:ad:c0:09:73:1f:
                    26:21:2b:3d:9d:5a:fd:72:8a:38:84:73:54:96:61:
                    d1:22:d2:a7:cc:79:76:05:15:32:7c:4f:56:88:62:
                    58:bf:d7:e1:04:26:82:20:96:52:ba:b1:45:8c:0a:
                    7e:cb:24:a3:e2:db:b9:bd:46:6f:b9:2a:e5:b5:5c:
                    9f:e5:13:6b:45:9c:d8:b3:9c:32:86:e2:36:cd:37:
                    8b:4a:f0:1c:3b:bc:91:ce:9c:10:0f:32:9d:37:bc:
                    bb:70:fc:ce:d4:cd:7f:23:b3:38:2d:48:20:f2:0a:
                    81:1f:9e:85:ae:1c:99:46:a4:f7:42:4d:68:9d:77:
                    de:6d:c2:f7:60:0e:67:70:d9:ce:2a:64:72:cf:f8:
                    51:87:33
                Exponent: 65537 (0x10001)
        X509v3 extensions:
            X509v3 Basic Constraints: 
                CA:FALSE
            Netscape Comment: 
                Easy-RSA Generated Certificate
            X509v3 Subject Key Identifier: 
                E1:DF:F3:63:7C:A0:7F:7A:05:E3:5E:3C:11:5D:9B:97:E4:CB:03:6E
            X509v3 Authority Key Identifier: 
                keyid:EF:38:8D:14:50:58:A7:5B:4D:9C:17:72:FC:DF:B9:AC:A7:51:B0:10
                DirName:/C=US/ST=CA/L=SanFrancisco/O=Pixglo, Inc./OU=VPN-CIE/CN=tunnel.pixglo.com/name=Bala Chandrasekaran/emailAddress=bala@pixglo.com
                serial:A6:DB:C6:83:80:E6:A0:79

            X509v3 Extended Key Usage: 
                TLS Web Client Authentication
            X509v3 Key Usage: 
                Digital Signature
    Signature Algorithm: sha1WithRSAEncryption
         bc:79:7f:fb:3d:b3:82:29:be:c8:26:7f:fb:1a:b3:51:83:cf:
         72:b1:23:07:63:ea:40:4d:8b:8b:2b:3b:84:e5:c4:f7:2f:5f:
         f7:9e:7b:58:16:ae:19:3e:79:41:7c:a7:e6:1c:e8:d1:c7:01:
         ef:60:80:6c:d8:59:01:95:2a:0d:dd:b2:cc:98:7e:65:88:91:
         4d:ce:3e:61:e3:58:c7:17:fc:d5:c6:2c:41:23:97:5d:55:40:
         e3:3a:2d:83:15:58:ac:8d:7e:4d:60:b4:c3:7e:ed:68:d4:26:
         5d:9d:18:08:37:a4:90:f7:f7:29:c1:67:c1:cb:0e:8b:9f:a1:
         09:58:82:70:98:3a:7b:d0:ef:79:5b:30:4b:48:b4:53:12:20:
         45:70:12:ae:71:81:9a:ef:e8:28:b7:6b:cb:08:81:ae:7d:b0:
         a3:ab:94:ef:34:15:54:20:af:3d:ad:ee:d3:ed:53:bc:b1:33:
         cd:f5:15:33:45:5a:16:10:c8:46:ce:f5:5a:c5:e0:c4:ca:c0:
         be:25:06:5d:04:c2:6b:ff:2b:6b:70:dd:ef:18:d0:55:97:cc:
         64:38:67:fa:6a:7f:25:b5:af:40:03:09:45:99:0b:39:a4:f9:
         a8:b1:80:a9:42:32:8e:5f:d5:a7:23:96:26:1c:b5:a6:da:6f:
         6a:5e:97:34:a4:22:e4:23:9f:9e:44:78:ad:bb:cd:6a:2f:ed:
         4e:73:a9:0c:18:bb:12:00:1e:37:49:47:54:ed:aa:30:75:84:
         9d:34:9c:37:ef:a3:ac:d7:10:7a:2e:0c:a1:37:fc:98:a6:18:
         a9:0d:9d:b7:01:78:3a:c6:d1:4c:ef:54:d4:ad:70:67:f4:02:
         7b:2e:41:f3:9c:66:27:54:47:35:df:b4:fd:5b:ba:ad:ee:fd:
         54:93:64:cd:eb:27:6d:56:7d:31:90:8d:fa:b2:aa:04:89:aa:
         b1:c8:49:e9:8d:85:a2:10:b1:de:76:e1:9f:18:34:8a:6f:69:
         e0:10:e3:ee:b3:46:d1:b6:90:a1:9c:12:ea:64:7f:dd:18:8b:
         ea:94:fc:07:03:c0:77:e7:6d:c6:47:7a:c4:82:2f:01:9b:32:
         38:5b:0e:bb:d7:b4:a6:2e:ba:a5:0d:9a:84:a7:64:a8:d3:04:
         bc:34:6f:62:84:e6:a9:ed:d7:7e:a4:af:2d:a6:2d:b5:99:7f:
         92:59:7c:ee:e7:1a:c9:ba:86:f1:bf:23:b8:1e:ea:d4:d0:1b:
         9f:37:91:e0:c0:f3:c0:b2:14:b0:3f:52:c2:a6:0b:b8:39:c7:
         08:48:53:b9:d5:9e:ea:9e:dc:55:6b:24:fc:9a:42:54:f1:c9:
         0d:2c:ef:aa:4f:f9:82:b6
-----BEGIN CERTIFICATE-----
MIIHSDCCBTCgAwIBAgICASAwDQYJKoZIhvcNAQEFBQAwgbQxCzAJBgNVBAYTAlVT
MQswCQYDVQQIEwJDQTEVMBMGA1UEBxMMU2FuRnJhbmNpc2NvMRUwEwYDVQQKEwxQ
aXhnbG8sIEluYy4xEDAOBgNVBAsTB1ZQTi1DSUUxGjAYBgNVBAMTEXR1bm5lbC5w
aXhnbG8uY29tMRwwGgYDVQQpExNCYWxhIENoYW5kcmFzZWthcmFuMR4wHAYJKoZI
hvcNAQkBFg9iYWxhQHBpeGdsby5jb20wHhcNMTgwMjE0MDYyOTUxWhcNMjgwMjEy
MDYyOTUxWjCBqTELMAkGA1UEBhMCVVMxCzAJBgNVBAgTAkNBMRUwEwYDVQQHEwxT
YW5GcmFuY2lzY28xFTATBgNVBAoTDFBpeGdsbywgSW5jLjEQMA4GA1UECxMHVlBO
LUNJRTEPMA0GA1UEAxMGY2llMjg3MRwwGgYDVQQpExNCYWxhIENoYW5kcmFzZWth
cmFuMR4wHAYJKoZIhvcNAQkBFg9iYWxhQHBpeGdsby5jb20wggIiMA0GCSqGSIb3
DQEBAQUAA4ICDwAwggIKAoICAQDEekRijG6Lxwpbj1Q9TqDtII3iYOpIBCn0gGZw
53XpQTOw9gG3UqYUpSbpBmXMyDr4F8tnH63qElKe9W/r7d6mPSXCL0trLRfNwZl5
frKvIuGGSXZ8Fwt4/OaLHp+qDJcQOe4iH7c++v2btPqtdnJ93o7t6SCAHAXEqb8s
Wc3R/r9dyIckSGOKaf889okct3ZruTgT3LSe/NOTEd9BjmSliROqzpAF+evvKqtv
TvpUn9KbQPYEzOH//TyuShSmSOYqzKe63Zi3J8pvudipKQZ/s9vTxSU8yKIL3b1h
dKBLNb88zQq1IYbp5W4+RQkGv6/n7P8I5Xqk/aExYQ6sW2pSMKnNAOC/Xqg+jElt
fuyzrT9pLBNTjlVfwEvsh1eujlAjVdmNwWtr9UCLRkcgS2CIe9HM5NXKZd+VgqJP
Xup9PtjbyItS4sTrgVaIY6Y5Y/gxWKPkAUUHpeU1EJMdi25Yxc+UPFpG6dJZu8Lr
kiM1dR6twAlzHyYhKz2dWv1yijiEc1SWYdEi0qfMeXYFFTJ8T1aIYli/1+EEJoIg
llK6sUWMCn7LJKPi27m9Rm+5KuW1XJ/lE2tFnNiznDKG4jbNN4tK8Bw7vJHOnBAP
Mp03vLtw/M7UzX8jszgtSCDyCoEfnoWuHJlGpPdCTWidd95twvdgDmdw2c4qZHLP
+FGHMwIDAQABo4IBazCCAWcwCQYDVR0TBAIwADAtBglghkgBhvhCAQ0EIBYeRWFz
eS1SU0EgR2VuZXJhdGVkIENlcnRpZmljYXRlMB0GA1UdDgQWBBTh3/NjfKB/egXj
XjwRXZuX5MsDbjCB6QYDVR0jBIHhMIHegBTvOI0UUFinW02cF3L837msp1GwEKGB
uqSBtzCBtDELMAkGA1UEBhMCVVMxCzAJBgNVBAgTAkNBMRUwEwYDVQQHEwxTYW5G
cmFuY2lzY28xFTATBgNVBAoTDFBpeGdsbywgSW5jLjEQMA4GA1UECxMHVlBOLUNJ
RTEaMBgGA1UEAxMRdHVubmVsLnBpeGdsby5jb20xHDAaBgNVBCkTE0JhbGEgQ2hh
bmRyYXNla2FyYW4xHjAcBgkqhkiG9w0BCQEWD2JhbGFAcGl4Z2xvLmNvbYIJAKbb
xoOA5qB5MBMGA1UdJQQMMAoGCCsGAQUFBwMCMAsGA1UdDwQEAwIHgDANBgkqhkiG
9w0BAQUFAAOCAgEAvHl/+z2zgim+yCZ/+xqzUYPPcrEjB2PqQE2Liys7hOXE9y9f
9557WBauGT55QXyn5hzo0ccB72CAbNhZAZUqDd2yzJh+ZYiRTc4+YeNYxxf81cYs
QSOXXVVA4zotgxVYrI1+TWC0w37taNQmXZ0YCDekkPf3KcFnwcsOi5+hCViCcJg6
e9DveVswS0i0UxIgRXASrnGBmu/oKLdrywiBrn2wo6uU7zQVVCCvPa3u0+1TvLEz
zfUVM0VaFhDIRs71WsXgxMrAviUGXQTCa/8ra3Dd7xjQVZfMZDhn+mp/JbWvQAMJ
RZkLOaT5qLGAqUIyjl/VpyOWJhy1ptpval6XNKQi5COfnkR4rbvNai/tTnOpDBi7
EgAeN0lHVO2qMHWEnTScN++jrNcQei4MoTf8mKYYqQ2dtwF4OsbRTO9U1K1wZ/QC
ey5B85xmJ1RHNd+0/Vu6re79VJNkzesnbVZ9MZCN+rKqBImqschJ6Y2FohCx3nbh
nxg0im9p4BDj7rNG0baQoZwS6mR/3RiL6pT8BwPAd+dtxkd6xIIvAZsyOFsOu9e0
pi66pQ2ahKdkqNMEvDRvYoTmqe3XfqSvLaYttZl/kll87ucaybqG8b8juB7q1NAb
nzeR4MDzwLIUsD9SwqYLuDnHCEhTudWe6p7cVWsk/JpCVPHJDSzvqk/5grY=
-----END CERTIFICATE-----
