Certificate:
    Data:
        Version: 3 (0x2)
        Serial Number: 289 (0x121)
    Signature Algorithm: sha1WithRSAEncryption
        Issuer: C=US, ST=CA, L=SanFrancisco, O=Pixglo, Inc., OU=VPN-CIE, CN=tunnel.pixglo.com/name=Bala Chandrasekaran/emailAddress=bala@pixglo.com
        Validity
            Not Before: Feb 14 06:29:52 2018 GMT
            Not After : Feb 12 06:29:52 2028 GMT
        Subject: C=US, ST=CA, L=SanFrancisco, O=Pixglo, Inc., OU=VPN-CIE, CN=cie288/name=Bala Chandrasekaran/emailAddress=bala@pixglo.com
        Subject Public Key Info:
            Public Key Algorithm: rsaEncryption
                Public-Key: (4096 bit)
                Modulus:
                    00:bf:52:ac:74:3d:ca:37:c6:6e:1e:9f:45:f3:1d:
                    95:c9:78:d6:29:5d:d2:cd:75:ec:35:ff:b6:35:0c:
                    52:91:d8:9e:c5:f8:fa:43:8e:21:38:97:91:cc:49:
                    4a:67:2b:5e:83:14:66:76:bf:40:f4:fc:cf:fa:6c:
                    d1:67:65:91:37:c7:4a:fe:ef:c8:58:1e:eb:ea:05:
                    6f:75:78:8e:8e:b2:63:25:93:16:02:da:5b:36:30:
                    fa:d2:29:f8:36:89:72:13:3c:1a:50:77:d9:ab:6c:
                    3f:50:57:d4:d2:7d:25:0c:1f:f5:f1:0c:7f:41:1d:
                    ef:bc:a1:70:c0:2b:68:79:35:36:d3:95:4d:42:98:
                    a9:59:f4:ce:5b:7c:55:8a:9e:a9:9e:29:86:af:ba:
                    09:62:93:88:99:a5:91:1a:30:70:5f:5c:5e:ee:09:
                    83:1e:90:16:16:a8:ba:02:11:84:f6:5a:8a:a8:4c:
                    de:18:02:20:27:80:a3:c9:08:c8:39:cd:4b:c7:0b:
                    62:73:61:61:e7:31:3e:e9:7d:7f:b3:93:a2:76:d5:
                    e1:62:ca:0c:e9:d3:42:73:c1:fe:18:ec:f6:86:8d:
                    06:f3:50:b8:cd:39:ee:5b:db:65:1d:e8:4c:e4:33:
                    88:ac:4e:4f:41:2e:bb:9d:9f:16:e6:f8:a1:14:16:
                    98:d9:48:fc:c1:f6:03:76:a8:a0:5a:94:8f:f5:0d:
                    28:63:4f:be:51:ec:3c:d8:6f:86:2b:6d:10:85:50:
                    f5:16:f8:dd:09:4f:26:92:7b:72:1f:73:d4:d7:44:
                    ac:a7:8c:b0:05:39:f8:bb:2f:d2:c9:96:5f:94:f9:
                    ce:93:ff:1e:df:28:ea:90:8a:5a:81:c2:a8:b2:42:
                    a2:10:8f:57:d6:8b:5d:5b:f9:c7:b7:5d:f1:eb:7d:
                    52:b5:e4:ac:6c:56:70:f0:41:c1:28:56:ab:e3:6d:
                    40:3e:45:c8:58:d9:86:08:5a:4a:a4:59:f7:2d:4b:
                    d0:4e:8c:18:ca:20:d3:ce:b6:65:de:79:f3:0d:f2:
                    50:30:53:f3:6c:b1:7d:1b:6f:ef:37:97:a6:1f:16:
                    11:60:1a:74:68:19:17:80:16:fe:50:ba:9e:58:d5:
                    6a:a3:2a:a2:d9:eb:ba:1e:9d:72:e4:3c:81:a9:c5:
                    f7:ab:73:52:c6:49:6e:6d:b9:06:62:ee:d1:a9:90:
                    d4:b1:68:67:f8:25:30:f6:ed:54:fb:0d:d6:0a:39:
                    f2:ef:27:6c:e5:79:fd:3e:38:fb:97:98:d4:47:b9:
                    c3:f5:7d:01:28:65:42:fa:f8:c8:7d:62:80:58:66:
                    bf:3e:cc:78:c3:6f:a5:34:5b:30:dd:1e:e9:bb:01:
                    25:2b:8d
                Exponent: 65537 (0x10001)
        X509v3 extensions:
            X509v3 Basic Constraints: 
                CA:FALSE
            Netscape Comment: 
                Easy-RSA Generated Certificate
            X509v3 Subject Key Identifier: 
                9B:FE:A0:DD:22:F6:23:20:78:54:60:71:F9:F3:29:DF:21:D4:C0:64
            X509v3 Authority Key Identifier: 
                keyid:EF:38:8D:14:50:58:A7:5B:4D:9C:17:72:FC:DF:B9:AC:A7:51:B0:10
                DirName:/C=US/ST=CA/L=SanFrancisco/O=Pixglo, Inc./OU=VPN-CIE/CN=tunnel.pixglo.com/name=Bala Chandrasekaran/emailAddress=bala@pixglo.com
                serial:A6:DB:C6:83:80:E6:A0:79

            X509v3 Extended Key Usage: 
                TLS Web Client Authentication
            X509v3 Key Usage: 
                Digital Signature
    Signature Algorithm: sha1WithRSAEncryption
         99:43:ca:19:92:d6:a3:a3:a0:ba:eb:33:f6:a4:3e:f4:18:24:
         07:7a:8a:48:63:93:b0:a1:46:50:47:d1:4f:9e:fc:6a:3e:59:
         80:78:bc:b3:d3:47:ad:53:76:eb:87:58:9b:5d:94:84:68:72:
         9d:5e:29:0d:af:84:3e:69:82:96:78:e6:76:da:ae:c5:21:79:
         c1:33:6d:43:25:45:74:f4:a8:57:e1:50:59:c0:48:bf:0f:40:
         61:f5:ad:3a:f5:ee:3e:b4:09:ef:25:10:fc:fb:69:97:ab:ae:
         95:05:49:93:bb:23:69:86:fa:88:36:b8:96:5f:82:e1:22:b0:
         c5:71:04:28:cc:2b:5b:d5:cd:9b:ff:47:4a:3c:03:bf:6a:ec:
         a1:6b:bb:40:19:e1:39:68:9f:be:04:b9:8e:61:ec:08:94:04:
         df:79:6a:05:ee:97:c4:06:b7:07:58:8b:65:1d:d5:72:5e:1d:
         f1:64:d2:6c:42:87:89:ee:b9:fd:6f:ac:d7:82:7d:0c:fb:28:
         8f:35:fd:6c:61:fb:15:37:50:d8:3a:bc:f5:7b:58:99:4c:bf:
         ce:db:37:ea:9a:c8:4e:c2:78:99:ac:85:e9:55:38:0e:36:69:
         fc:34:ae:4e:a5:5c:96:9b:3f:af:b5:6d:6a:c2:de:20:49:bc:
         06:18:24:8c:cd:a8:88:6c:c9:56:19:24:f3:1b:b1:98:81:dd:
         39:b2:ac:65:4f:c7:ed:c3:ad:a1:a9:bd:04:d3:9e:82:e9:93:
         48:fc:e6:2e:e0:58:1c:99:fe:db:eb:01:2d:2a:5c:e5:b4:e0:
         e6:78:c0:6d:7e:41:23:30:88:b1:a1:7e:ea:93:03:44:45:1f:
         19:94:34:db:c9:50:37:ba:22:5e:be:f4:ff:c9:a1:30:da:c6:
         23:89:85:f1:83:7f:f4:de:ff:c7:51:1e:0c:e1:a3:0b:c1:35:
         06:92:07:a0:db:6a:44:6f:83:52:08:3a:b4:0f:4f:07:18:3e:
         03:11:6a:7e:fe:0b:92:b3:bc:0a:02:28:22:ab:4d:56:60:92:
         ad:de:1d:a7:e0:32:e9:20:73:49:ee:00:5c:0f:96:4b:21:3b:
         96:e1:cb:b3:a9:91:10:c3:6e:a8:1d:ce:fb:7a:c8:3a:ab:b5:
         ee:d8:87:45:a2:0e:6f:b8:67:01:4d:a7:46:74:72:14:bb:d9:
         99:99:4b:e4:92:de:5c:b0:ba:be:05:33:fb:b1:58:90:f7:c4:
         6c:2b:1e:7a:35:8e:41:8f:d6:3a:5b:0a:0a:b9:93:95:0b:ee:
         7a:68:e8:ca:93:aa:2f:f0:62:00:34:1f:06:6d:62:19:f8:fa:
         5c:db:98:47:30:1f:b7:29
-----BEGIN CERTIFICATE-----
MIIHSDCCBTCgAwIBAgICASEwDQYJKoZIhvcNAQEFBQAwgbQxCzAJBgNVBAYTAlVT
MQswCQYDVQQIEwJDQTEVMBMGA1UEBxMMU2FuRnJhbmNpc2NvMRUwEwYDVQQKEwxQ
aXhnbG8sIEluYy4xEDAOBgNVBAsTB1ZQTi1DSUUxGjAYBgNVBAMTEXR1bm5lbC5w
aXhnbG8uY29tMRwwGgYDVQQpExNCYWxhIENoYW5kcmFzZWthcmFuMR4wHAYJKoZI
hvcNAQkBFg9iYWxhQHBpeGdsby5jb20wHhcNMTgwMjE0MDYyOTUyWhcNMjgwMjEy
MDYyOTUyWjCBqTELMAkGA1UEBhMCVVMxCzAJBgNVBAgTAkNBMRUwEwYDVQQHEwxT
YW5GcmFuY2lzY28xFTATBgNVBAoTDFBpeGdsbywgSW5jLjEQMA4GA1UECxMHVlBO
LUNJRTEPMA0GA1UEAxMGY2llMjg4MRwwGgYDVQQpExNCYWxhIENoYW5kcmFzZWth
cmFuMR4wHAYJKoZIhvcNAQkBFg9iYWxhQHBpeGdsby5jb20wggIiMA0GCSqGSIb3
DQEBAQUAA4ICDwAwggIKAoICAQC/Uqx0Pco3xm4en0XzHZXJeNYpXdLNdew1/7Y1
DFKR2J7F+PpDjiE4l5HMSUpnK16DFGZ2v0D0/M/6bNFnZZE3x0r+78hYHuvqBW91
eI6OsmMlkxYC2ls2MPrSKfg2iXITPBpQd9mrbD9QV9TSfSUMH/XxDH9BHe+8oXDA
K2h5NTbTlU1CmKlZ9M5bfFWKnqmeKYavuglik4iZpZEaMHBfXF7uCYMekBYWqLoC
EYT2WoqoTN4YAiAngKPJCMg5zUvHC2JzYWHnMT7pfX+zk6J21eFiygzp00Jzwf4Y
7PaGjQbzULjNOe5b22Ud6EzkM4isTk9BLrudnxbm+KEUFpjZSPzB9gN2qKBalI/1
DShjT75R7DzYb4YrbRCFUPUW+N0JTyaSe3Ifc9TXRKynjLAFOfi7L9LJll+U+c6T
/x7fKOqQilqBwqiyQqIQj1fWi11b+ce3XfHrfVK15KxsVnDwQcEoVqvjbUA+RchY
2YYIWkqkWfctS9BOjBjKINPOtmXeefMN8lAwU/NssX0bb+83l6YfFhFgGnRoGReA
Fv5Qup5Y1WqjKqLZ67oenXLkPIGpxferc1LGSW5tuQZi7tGpkNSxaGf4JTD27VT7
DdYKOfLvJ2zlef0+OPuXmNRHucP1fQEoZUL6+Mh9YoBYZr8+zHjDb6U0WzDdHum7
ASUrjQIDAQABo4IBazCCAWcwCQYDVR0TBAIwADAtBglghkgBhvhCAQ0EIBYeRWFz
eS1SU0EgR2VuZXJhdGVkIENlcnRpZmljYXRlMB0GA1UdDgQWBBSb/qDdIvYjIHhU
YHH58ynfIdTAZDCB6QYDVR0jBIHhMIHegBTvOI0UUFinW02cF3L837msp1GwEKGB
uqSBtzCBtDELMAkGA1UEBhMCVVMxCzAJBgNVBAgTAkNBMRUwEwYDVQQHEwxTYW5G
cmFuY2lzY28xFTATBgNVBAoTDFBpeGdsbywgSW5jLjEQMA4GA1UECxMHVlBOLUNJ
RTEaMBgGA1UEAxMRdHVubmVsLnBpeGdsby5jb20xHDAaBgNVBCkTE0JhbGEgQ2hh
bmRyYXNla2FyYW4xHjAcBgkqhkiG9w0BCQEWD2JhbGFAcGl4Z2xvLmNvbYIJAKbb
xoOA5qB5MBMGA1UdJQQMMAoGCCsGAQUFBwMCMAsGA1UdDwQEAwIHgDANBgkqhkiG
9w0BAQUFAAOCAgEAmUPKGZLWo6Oguusz9qQ+9BgkB3qKSGOTsKFGUEfRT578aj5Z
gHi8s9NHrVN264dYm12UhGhynV4pDa+EPmmClnjmdtquxSF5wTNtQyVFdPSoV+FQ
WcBIvw9AYfWtOvXuPrQJ7yUQ/Ptpl6uulQVJk7sjaYb6iDa4ll+C4SKwxXEEKMwr
W9XNm/9HSjwDv2rsoWu7QBnhOWifvgS5jmHsCJQE33lqBe6XxAa3B1iLZR3Vcl4d
8WTSbEKHie65/W+s14J9DPsojzX9bGH7FTdQ2Dq89XtYmUy/zts36prITsJ4mayF
6VU4DjZp/DSuTqVclps/r7VtasLeIEm8BhgkjM2oiGzJVhkk8xuxmIHdObKsZU/H
7cOtoam9BNOegumTSPzmLuBYHJn+2+sBLSpc5bTg5njAbX5BIzCIsaF+6pMDREUf
GZQ028lQN7oiXr70/8mhMNrGI4mF8YN/9N7/x1EeDOGjC8E1BpIHoNtqRG+DUgg6
tA9PBxg+AxFqfv4LkrO8CgIoIqtNVmCSrd4dp+Ay6SBzSe4AXA+WSyE7luHLs6mR
EMNuqB3O+3rIOqu17tiHRaIOb7hnAU2nRnRyFLvZmZlL5JLeXLC6vgUz+7FYkPfE
bCseejWOQY/WOlsKCrmTlQvuemjoypOqL/BiADQfBm1iGfj6XNuYRzAftyk=
-----END CERTIFICATE-----
