Certificate:
    Data:
        Version: 3 (0x2)
        Serial Number: 290 (0x122)
    Signature Algorithm: sha1WithRSAEncryption
        Issuer: C=US, ST=CA, L=SanFrancisco, O=Pixglo, Inc., OU=VPN-CIE, CN=tunnel.pixglo.com/name=Bala Chandrasekaran/emailAddress=bala@pixglo.com
        Validity
            Not Before: Feb 14 06:29:54 2018 GMT
            Not After : Feb 12 06:29:54 2028 GMT
        Subject: C=US, ST=CA, L=SanFrancisco, O=Pixglo, Inc., OU=VPN-CIE, CN=cie289/name=Bala Chandrasekaran/emailAddress=bala@pixglo.com
        Subject Public Key Info:
            Public Key Algorithm: rsaEncryption
                Public-Key: (4096 bit)
                Modulus:
                    00:bc:0e:a8:53:78:e0:28:69:3e:d6:64:6d:58:5c:
                    d3:b2:54:f9:34:e7:ca:7b:bf:e6:61:d6:2b:d5:db:
                    27:ea:b5:d4:2d:41:05:a3:99:f5:8b:53:1a:76:20:
                    67:05:99:5f:77:72:9b:51:5e:d7:63:34:be:e6:47:
                    15:de:4a:95:06:d4:f9:2d:0e:e6:a4:76:ce:4d:b9:
                    f8:cd:20:77:98:f4:29:11:b1:a3:03:4f:25:4b:a3:
                    d4:09:30:48:20:db:12:d9:6d:96:14:37:b2:fa:28:
                    67:26:4d:b1:fb:8e:e4:3e:d3:08:f0:8d:e6:81:67:
                    d4:d1:6a:6c:6c:72:74:f8:34:18:68:27:d8:46:77:
                    4e:3e:f6:fc:8e:0b:7d:51:da:79:78:1e:87:6d:f0:
                    98:e1:c5:41:a0:f8:05:64:e1:c2:d4:23:0e:f8:73:
                    8a:1d:73:45:65:1d:9f:69:33:e4:71:8e:8f:e6:27:
                    06:c8:5f:71:d9:63:b7:d5:fa:1b:fa:c7:9a:ce:97:
                    c0:7d:8e:b7:23:0d:d2:b7:d4:4b:9c:26:37:ca:5c:
                    e5:a2:66:3a:aa:2a:b3:c4:65:32:93:b7:b1:3f:e3:
                    6f:e5:24:c6:d6:01:7f:28:e8:63:c2:82:d1:f1:ca:
                    09:0f:f6:85:48:ee:36:9a:8b:59:78:88:b3:5a:06:
                    e4:4d:e4:09:03:b7:91:ff:74:06:6d:80:7c:71:b3:
                    82:da:20:76:ab:42:f8:2e:46:e3:ea:f4:24:64:e5:
                    78:c0:a4:c0:1a:b7:3c:e9:df:78:8e:97:2c:86:b2:
                    3d:42:8b:22:3c:83:37:3a:3b:80:b6:12:c2:65:14:
                    ed:7f:ae:2e:73:95:8b:d5:e7:22:db:f7:ea:57:1a:
                    66:46:ad:a9:ac:6a:1c:e7:8e:89:1e:0f:aa:32:2c:
                    35:ee:3d:e6:5a:dd:1c:e0:9d:b2:c3:5b:a9:e7:ea:
                    f9:6f:17:15:03:a9:48:4c:e8:07:6e:f1:a5:8d:ea:
                    42:6a:6b:4e:76:96:39:0c:6d:23:61:5d:37:0c:9c:
                    16:8d:6f:9c:68:39:a0:5c:db:ee:f6:b1:84:fc:16:
                    fd:30:fa:06:bd:ec:5a:22:fd:c9:2d:a8:ac:86:7e:
                    a3:cf:94:13:f8:59:f0:63:a7:75:4e:1c:c5:8e:3d:
                    e2:d9:e0:2b:16:5b:07:0d:0e:9c:ee:a4:51:ee:8c:
                    2c:1a:57:ce:40:2a:f7:80:3e:15:ac:8c:31:be:9e:
                    ed:62:4d:2b:5e:be:f8:00:0d:03:02:0e:a4:3d:1c:
                    0c:6b:ba:ef:6c:eb:54:5d:bc:14:1f:65:b1:29:ab:
                    9e:5d:bc:47:95:be:49:8c:70:1e:ad:c6:ac:31:35:
                    e3:6f:4f
                Exponent: 65537 (0x10001)
        X509v3 extensions:
            X509v3 Basic Constraints: 
                CA:FALSE
            Netscape Comment: 
                Easy-RSA Generated Certificate
            X509v3 Subject Key Identifier: 
                73:1D:2B:F1:51:1A:D3:F0:39:DF:CD:3A:26:98:C1:48:3E:90:F3:C5
            X509v3 Authority Key Identifier: 
                keyid:EF:38:8D:14:50:58:A7:5B:4D:9C:17:72:FC:DF:B9:AC:A7:51:B0:10
                DirName:/C=US/ST=CA/L=SanFrancisco/O=Pixglo, Inc./OU=VPN-CIE/CN=tunnel.pixglo.com/name=Bala Chandrasekaran/emailAddress=bala@pixglo.com
                serial:A6:DB:C6:83:80:E6:A0:79

            X509v3 Extended Key Usage: 
                TLS Web Client Authentication
            X509v3 Key Usage: 
                Digital Signature
    Signature Algorithm: sha1WithRSAEncryption
         a6:0d:fe:bc:95:ef:c8:24:d0:78:cb:cf:89:fa:d8:bd:e6:87:
         fc:54:62:b6:59:3b:90:6d:e5:b1:e7:59:a2:cf:74:c3:50:ef:
         0d:42:00:da:80:e8:78:4a:6a:ba:26:1f:af:f7:12:c4:03:05:
         1f:c3:96:24:f9:19:89:3f:45:6d:d7:16:7c:1c:3b:5b:d9:b9:
         09:1d:a3:6f:c6:e0:3c:4e:c2:d2:dc:28:41:bf:4d:6e:bb:f9:
         01:49:27:1d:69:9a:f2:a9:b5:5b:d8:66:63:08:68:62:0d:a3:
         cf:ba:80:1a:d8:34:6d:37:ab:c3:d4:e1:88:95:e2:65:90:23:
         ff:95:bc:1b:0a:0e:06:84:e4:cc:64:dd:a8:1c:aa:fa:11:a3:
         56:4c:6b:bb:de:84:b4:6d:03:5d:7a:18:c1:33:61:15:dd:8e:
         9b:48:95:91:0a:f1:9d:0c:7a:aa:74:df:c9:35:1f:cd:f3:c9:
         c4:90:14:d4:02:3c:cd:99:6f:81:20:45:5b:ff:4d:6c:ee:fa:
         ca:78:61:e1:44:c5:19:af:d1:03:2c:91:43:4d:cb:c2:fe:ee:
         47:cf:c3:89:5c:3a:07:01:06:4a:0f:21:15:1b:5b:aa:a2:94:
         f3:31:70:d7:66:3e:8e:12:90:52:6d:09:67:dc:19:e9:10:0b:
         42:a3:dc:37:76:a6:25:ac:ad:1a:b6:f8:b2:51:ab:09:47:dc:
         d5:7a:3f:43:2c:70:3c:26:33:e3:aa:34:31:9f:3c:3d:5c:c7:
         7f:b8:de:8e:e5:fc:2b:5e:0c:c4:6b:1c:60:1b:4a:f5:f8:29:
         8b:9c:f2:5b:0b:64:a7:bb:87:f3:61:21:d0:1e:a5:40:8e:b7:
         53:a9:61:b6:e5:bb:26:77:21:f0:02:86:1a:27:d9:39:61:42:
         dc:24:90:92:09:2d:ac:d2:94:22:05:4b:a8:fd:de:07:20:a8:
         83:06:0f:31:c8:48:fc:0d:e4:e1:e7:95:13:e4:ca:a3:9b:67:
         fd:bb:fe:8c:79:3a:d6:08:ce:f4:74:fa:57:53:b2:2e:33:9d:
         99:f2:2b:8c:5c:92:f7:d3:0d:b5:3d:a8:62:43:19:45:6d:5f:
         75:b0:42:1f:f4:57:2c:da:46:8f:80:5c:89:02:0c:94:1e:f8:
         eb:5e:da:1f:9e:db:73:2d:33:ba:a9:7c:dc:69:96:06:d8:b4:
         c6:ff:91:ce:89:08:09:dc:eb:ce:70:9d:28:6f:56:fc:99:37:
         d6:cd:4f:87:38:34:84:85:87:fc:3b:c8:35:6e:bf:e0:49:39:
         81:a9:bd:99:2f:00:46:ae:f2:b4:2a:00:34:3b:2f:1f:4d:fc:
         51:74:72:c8:60:cc:65:10
-----BEGIN CERTIFICATE-----
MIIHSDCCBTCgAwIBAgICASIwDQYJKoZIhvcNAQEFBQAwgbQxCzAJBgNVBAYTAlVT
MQswCQYDVQQIEwJDQTEVMBMGA1UEBxMMU2FuRnJhbmNpc2NvMRUwEwYDVQQKEwxQ
aXhnbG8sIEluYy4xEDAOBgNVBAsTB1ZQTi1DSUUxGjAYBgNVBAMTEXR1bm5lbC5w
aXhnbG8uY29tMRwwGgYDVQQpExNCYWxhIENoYW5kcmFzZWthcmFuMR4wHAYJKoZI
hvcNAQkBFg9iYWxhQHBpeGdsby5jb20wHhcNMTgwMjE0MDYyOTU0WhcNMjgwMjEy
MDYyOTU0WjCBqTELMAkGA1UEBhMCVVMxCzAJBgNVBAgTAkNBMRUwEwYDVQQHEwxT
YW5GcmFuY2lzY28xFTATBgNVBAoTDFBpeGdsbywgSW5jLjEQMA4GA1UECxMHVlBO
LUNJRTEPMA0GA1UEAxMGY2llMjg5MRwwGgYDVQQpExNCYWxhIENoYW5kcmFzZWth
cmFuMR4wHAYJKoZIhvcNAQkBFg9iYWxhQHBpeGdsby5jb20wggIiMA0GCSqGSIb3
DQEBAQUAA4ICDwAwggIKAoICAQC8DqhTeOAoaT7WZG1YXNOyVPk058p7v+Zh1ivV
2yfqtdQtQQWjmfWLUxp2IGcFmV93cptRXtdjNL7mRxXeSpUG1PktDuakds5NufjN
IHeY9CkRsaMDTyVLo9QJMEgg2xLZbZYUN7L6KGcmTbH7juQ+0wjwjeaBZ9TRamxs
cnT4NBhoJ9hGd04+9vyOC31R2nl4Hodt8JjhxUGg+AVk4cLUIw74c4odc0VlHZ9p
M+Rxjo/mJwbIX3HZY7fV+hv6x5rOl8B9jrcjDdK31EucJjfKXOWiZjqqKrPEZTKT
t7E/42/lJMbWAX8o6GPCgtHxygkP9oVI7jaai1l4iLNaBuRN5AkDt5H/dAZtgHxx
s4LaIHarQvguRuPq9CRk5XjApMAatzzp33iOlyyGsj1CiyI8gzc6O4C2EsJlFO1/
ri5zlYvV5yLb9+pXGmZGramsahznjokeD6oyLDXuPeZa3RzgnbLDW6nn6vlvFxUD
qUhM6Adu8aWN6kJqa052ljkMbSNhXTcMnBaNb5xoOaBc2+72sYT8Fv0w+ga97Foi
/cktqKyGfqPPlBP4WfBjp3VOHMWOPeLZ4CsWWwcNDpzupFHujCwaV85AKveAPhWs
jDG+nu1iTStevvgADQMCDqQ9HAxruu9s61RdvBQfZbEpq55dvEeVvkmMcB6txqwx
NeNvTwIDAQABo4IBazCCAWcwCQYDVR0TBAIwADAtBglghkgBhvhCAQ0EIBYeRWFz
eS1SU0EgR2VuZXJhdGVkIENlcnRpZmljYXRlMB0GA1UdDgQWBBRzHSvxURrT8Dnf
zTommMFIPpDzxTCB6QYDVR0jBIHhMIHegBTvOI0UUFinW02cF3L837msp1GwEKGB
uqSBtzCBtDELMAkGA1UEBhMCVVMxCzAJBgNVBAgTAkNBMRUwEwYDVQQHEwxTYW5G
cmFuY2lzY28xFTATBgNVBAoTDFBpeGdsbywgSW5jLjEQMA4GA1UECxMHVlBOLUNJ
RTEaMBgGA1UEAxMRdHVubmVsLnBpeGdsby5jb20xHDAaBgNVBCkTE0JhbGEgQ2hh
bmRyYXNla2FyYW4xHjAcBgkqhkiG9w0BCQEWD2JhbGFAcGl4Z2xvLmNvbYIJAKbb
xoOA5qB5MBMGA1UdJQQMMAoGCCsGAQUFBwMCMAsGA1UdDwQEAwIHgDANBgkqhkiG
9w0BAQUFAAOCAgEApg3+vJXvyCTQeMvPifrYveaH/FRitlk7kG3lsedZos90w1Dv
DUIA2oDoeEpquiYfr/cSxAMFH8OWJPkZiT9FbdcWfBw7W9m5CR2jb8bgPE7C0two
Qb9Nbrv5AUknHWma8qm1W9hmYwhoYg2jz7qAGtg0bTerw9ThiJXiZZAj/5W8GwoO
BoTkzGTdqByq+hGjVkxru96EtG0DXXoYwTNhFd2Om0iVkQrxnQx6qnTfyTUfzfPJ
xJAU1AI8zZlvgSBFW/9NbO76ynhh4UTFGa/RAyyRQ03Lwv7uR8/DiVw6BwEGSg8h
FRtbqqKU8zFw12Y+jhKQUm0JZ9wZ6RALQqPcN3amJaytGrb4slGrCUfc1Xo/Qyxw
PCYz46o0MZ88PVzHf7jejuX8K14MxGscYBtK9fgpi5zyWwtkp7uH82Eh0B6lQI63
U6lhtuW7Jnch8AKGGifZOWFC3CSQkgktrNKUIgVLqP3eByCogwYPMchI/A3k4eeV
E+TKo5tn/bv+jHk61gjO9HT6V1OyLjOdmfIrjFyS99MNtT2oYkMZRW1fdbBCH/RX
LNpGj4BciQIMlB74617aH57bcy0zuql83GmWBti0xv+RzokICdzrznCdKG9W/Jk3
1s1Phzg0hIWH/DvINW6/4Ek5gam9mS8ARq7ytCoANDsvH038UXRyyGDMZRA=
-----END CERTIFICATE-----
