Certificate:
    Data:
        Version: 3 (0x2)
        Serial Number: 291 (0x123)
    Signature Algorithm: sha1WithRSAEncryption
        Issuer: C=US, ST=CA, L=SanFrancisco, O=Pixglo, Inc., OU=VPN-CIE, CN=tunnel.pixglo.com/name=Bala Chandrasekaran/emailAddress=bala@pixglo.com
        Validity
            Not Before: Feb 14 06:29:55 2018 GMT
            Not After : Feb 12 06:29:55 2028 GMT
        Subject: C=US, ST=CA, L=SanFrancisco, O=Pixglo, Inc., OU=VPN-CIE, CN=cie290/name=Bala Chandrasekaran/emailAddress=bala@pixglo.com
        Subject Public Key Info:
            Public Key Algorithm: rsaEncryption
                Public-Key: (4096 bit)
                Modulus:
                    00:b5:26:0e:ab:c0:ac:14:b9:bc:8e:e9:ca:92:1a:
                    1f:c4:df:dc:c2:4e:0a:93:33:b8:3a:0c:e7:14:42:
                    67:5f:71:d0:1d:a8:f7:e6:b3:4f:ce:d1:9a:b0:a1:
                    c8:4a:1a:d0:38:b6:0c:ab:de:28:34:57:2f:4c:dc:
                    81:28:06:35:6b:29:82:fa:72:1f:79:41:96:1b:9a:
                    69:42:81:d8:c3:74:92:20:f9:5e:ae:41:94:4a:83:
                    73:73:ca:b1:43:d7:78:b4:7f:d3:84:6c:43:8d:49:
                    9d:30:78:1d:c9:22:44:e7:5d:c7:65:e1:11:05:44:
                    7a:55:d3:d7:b5:54:66:5d:c4:7f:d7:82:0c:77:00:
                    98:7e:a4:a2:5e:a1:2f:98:f9:14:cd:db:fa:60:cc:
                    cc:36:da:3a:d0:fb:32:1b:c8:c7:40:d0:8c:0f:51:
                    0f:f9:05:d7:2e:94:5a:bf:c2:ee:df:ee:fe:0a:71:
                    91:1d:92:ed:a0:e3:de:78:c8:ec:99:a2:59:6e:2a:
                    1f:8d:63:81:aa:ec:5e:9b:bd:a0:08:87:05:df:6a:
                    cc:85:95:96:2c:75:84:ca:e9:a3:b2:52:56:0f:e0:
                    9c:f0:57:3d:b1:26:68:47:75:12:4a:c0:22:a2:b0:
                    fc:c7:b9:98:04:d2:76:9b:6c:55:b3:b4:b6:f6:63:
                    e7:8a:05:3f:7c:6c:4d:ea:73:07:68:d9:83:e3:6f:
                    61:ab:67:83:fb:b3:0a:fc:0d:09:5e:32:bf:b8:e5:
                    da:82:1d:06:ea:88:41:e7:1b:a8:a7:82:a1:1f:0e:
                    22:51:c3:0e:fb:3d:1f:cb:5a:5c:10:5a:1e:08:81:
                    43:b0:2e:01:f5:41:ed:03:03:6a:68:d0:ee:7e:b2:
                    88:eb:6e:e6:47:bd:02:a4:c5:38:4a:e8:ff:37:22:
                    f4:bb:8e:fc:54:23:c8:ba:4f:dd:95:04:bf:68:cd:
                    fb:9f:14:73:6d:d2:46:b1:fa:1a:16:b4:e4:4f:89:
                    2b:ea:b1:d1:81:f2:ea:5b:f1:65:50:59:a8:d8:d9:
                    64:12:a2:11:b3:7f:19:ff:35:09:fa:c6:5f:5a:53:
                    f0:71:d7:4f:85:dc:74:89:08:6c:da:bd:43:ff:3c:
                    9a:3f:26:8e:20:2c:91:74:3f:15:a0:c1:1e:b6:b6:
                    e8:ea:2b:7f:8f:5a:49:a8:ff:88:13:24:3c:84:66:
                    57:7a:e8:13:ee:99:68:d8:71:48:9e:50:83:9e:a0:
                    ac:58:32:e9:13:39:6f:d2:6d:fa:11:4c:f2:f9:8e:
                    34:06:33:34:80:0f:6f:38:23:73:f0:d9:08:be:8d:
                    6f:bf:8c:e3:3f:89:01:ee:8d:9e:c9:00:e8:8b:30:
                    ab:d5:73
                Exponent: 65537 (0x10001)
        X509v3 extensions:
            X509v3 Basic Constraints: 
                CA:FALSE
            Netscape Comment: 
                Easy-RSA Generated Certificate
            X509v3 Subject Key Identifier: 
                1C:CD:F4:48:7E:3C:BC:28:A5:1B:2D:44:BF:0B:55:C8:F0:BE:7A:23
            X509v3 Authority Key Identifier: 
                keyid:EF:38:8D:14:50:58:A7:5B:4D:9C:17:72:FC:DF:B9:AC:A7:51:B0:10
                DirName:/C=US/ST=CA/L=SanFrancisco/O=Pixglo, Inc./OU=VPN-CIE/CN=tunnel.pixglo.com/name=Bala Chandrasekaran/emailAddress=bala@pixglo.com
                serial:A6:DB:C6:83:80:E6:A0:79

            X509v3 Extended Key Usage: 
                TLS Web Client Authentication
            X509v3 Key Usage: 
                Digital Signature
    Signature Algorithm: sha1WithRSAEncryption
         91:ad:a0:ce:d6:fa:de:32:b6:aa:f4:2d:72:56:a2:f5:d3:c0:
         22:20:25:c2:26:f5:9f:4e:1e:33:dd:b4:0d:d1:49:43:c9:91:
         cb:2a:24:2b:39:3f:e1:d3:1c:ee:75:da:b7:82:db:11:d9:9a:
         b9:cc:2b:be:ed:b2:e4:e3:96:e8:dd:56:2e:4a:70:6a:d1:5b:
         5d:25:e2:fc:ac:a4:fb:e4:5a:7c:25:97:fd:4e:17:0c:c5:eb:
         28:00:6b:fb:fe:cc:b9:20:8a:8e:2a:66:fd:04:42:bd:a9:5a:
         17:5d:3a:97:82:1b:2b:50:b1:17:b3:d3:c4:33:39:d4:1b:dd:
         f4:fd:4d:cf:58:7b:82:b9:d5:d6:6c:d7:c6:46:af:20:56:b4:
         df:ef:ab:d9:5c:1c:73:ca:93:25:16:3c:8c:e1:63:18:73:b8:
         47:7f:da:04:c1:09:27:11:41:61:96:05:6d:4a:c4:2d:6f:45:
         e4:ff:9a:79:df:32:c9:3c:97:90:88:be:a5:b7:c3:cf:44:23:
         f1:f8:c9:55:96:53:00:84:8c:17:6f:fd:2a:ba:49:c9:00:c3:
         cb:5f:4a:b5:d9:a4:0f:76:c7:b4:6a:91:d3:bf:f4:2e:93:3e:
         c5:9e:78:a1:9e:59:c4:8a:6b:a2:ee:b8:20:ee:c8:11:5a:a6:
         d7:33:52:4b:9d:73:06:ee:db:a3:b9:c6:29:ab:30:a4:e9:08:
         fa:c2:82:6f:00:aa:4c:79:a7:1d:92:c3:c0:ec:77:6d:2b:78:
         a7:e1:c7:51:f8:45:6f:f3:14:4c:b0:d3:de:4a:ed:c6:28:f9:
         c5:55:0b:71:78:62:0e:27:ba:15:c9:e5:e0:85:2d:b1:0b:30:
         6c:88:d8:8a:38:eb:84:f0:da:49:4d:5a:20:00:c1:95:10:15:
         14:81:d5:1e:64:46:ce:05:09:ad:12:4f:76:d0:49:f5:37:26:
         56:ef:72:a9:60:de:d1:e8:d2:33:22:6e:34:3e:f6:29:01:b7:
         3c:40:a2:08:cd:d3:9e:4c:cb:97:9f:6f:44:88:68:ff:d6:a9:
         d3:31:b6:c0:49:50:2a:bb:86:a4:5a:9d:65:7a:35:d8:59:28:
         22:23:2b:13:2f:62:f7:87:35:68:8c:ec:70:a9:68:6a:82:fe:
         98:b7:6d:fb:3e:a9:e6:03:e8:0f:6d:ab:d3:c3:53:fc:28:dd:
         e6:22:8f:fa:2c:84:55:d3:47:77:87:7a:d7:9e:43:58:12:32:
         1d:49:d6:e2:88:50:d4:f2:ae:ff:3f:38:1c:93:8f:87:fb:85:
         6c:76:87:ac:2c:f7:54:d1:2e:fc:06:6f:b5:e1:33:a9:e6:6a:
         48:a6:55:dc:a1:85:95:db
-----BEGIN CERTIFICATE-----
MIIHSDCCBTCgAwIBAgICASMwDQYJKoZIhvcNAQEFBQAwgbQxCzAJBgNVBAYTAlVT
MQswCQYDVQQIEwJDQTEVMBMGA1UEBxMMU2FuRnJhbmNpc2NvMRUwEwYDVQQKEwxQ
aXhnbG8sIEluYy4xEDAOBgNVBAsTB1ZQTi1DSUUxGjAYBgNVBAMTEXR1bm5lbC5w
aXhnbG8uY29tMRwwGgYDVQQpExNCYWxhIENoYW5kcmFzZWthcmFuMR4wHAYJKoZI
hvcNAQkBFg9iYWxhQHBpeGdsby5jb20wHhcNMTgwMjE0MDYyOTU1WhcNMjgwMjEy
MDYyOTU1WjCBqTELMAkGA1UEBhMCVVMxCzAJBgNVBAgTAkNBMRUwEwYDVQQHEwxT
YW5GcmFuY2lzY28xFTATBgNVBAoTDFBpeGdsbywgSW5jLjEQMA4GA1UECxMHVlBO
LUNJRTEPMA0GA1UEAxMGY2llMjkwMRwwGgYDVQQpExNCYWxhIENoYW5kcmFzZWth
cmFuMR4wHAYJKoZIhvcNAQkBFg9iYWxhQHBpeGdsby5jb20wggIiMA0GCSqGSIb3
DQEBAQUAA4ICDwAwggIKAoICAQC1Jg6rwKwUubyO6cqSGh/E39zCTgqTM7g6DOcU
QmdfcdAdqPfms0/O0ZqwochKGtA4tgyr3ig0Vy9M3IEoBjVrKYL6ch95QZYbmmlC
gdjDdJIg+V6uQZRKg3NzyrFD13i0f9OEbEONSZ0weB3JIkTnXcdl4REFRHpV09e1
VGZdxH/Xggx3AJh+pKJeoS+Y+RTN2/pgzMw22jrQ+zIbyMdA0IwPUQ/5BdculFq/
wu7f7v4KcZEdku2g4954yOyZolluKh+NY4Gq7F6bvaAIhwXfasyFlZYsdYTK6aOy
UlYP4JzwVz2xJmhHdRJKwCKisPzHuZgE0nabbFWztLb2Y+eKBT98bE3qcwdo2YPj
b2GrZ4P7swr8DQleMr+45dqCHQbqiEHnG6ingqEfDiJRww77PR/LWlwQWh4IgUOw
LgH1Qe0DA2po0O5+sojrbuZHvQKkxThK6P83IvS7jvxUI8i6T92VBL9ozfufFHNt
0kax+hoWtORPiSvqsdGB8upb8WVQWajY2WQSohGzfxn/NQn6xl9aU/Bx10+F3HSJ
CGzavUP/PJo/Jo4gLJF0PxWgwR62tujqK3+PWkmo/4gTJDyEZld66BPumWjYcUie
UIOeoKxYMukTOW/SbfoRTPL5jjQGMzSAD284I3Pw2Qi+jW+/jOM/iQHujZ7JAOiL
MKvVcwIDAQABo4IBazCCAWcwCQYDVR0TBAIwADAtBglghkgBhvhCAQ0EIBYeRWFz
eS1SU0EgR2VuZXJhdGVkIENlcnRpZmljYXRlMB0GA1UdDgQWBBQczfRIfjy8KKUb
LUS/C1XI8L56IzCB6QYDVR0jBIHhMIHegBTvOI0UUFinW02cF3L837msp1GwEKGB
uqSBtzCBtDELMAkGA1UEBhMCVVMxCzAJBgNVBAgTAkNBMRUwEwYDVQQHEwxTYW5G
cmFuY2lzY28xFTATBgNVBAoTDFBpeGdsbywgSW5jLjEQMA4GA1UECxMHVlBOLUNJ
RTEaMBgGA1UEAxMRdHVubmVsLnBpeGdsby5jb20xHDAaBgNVBCkTE0JhbGEgQ2hh
bmRyYXNla2FyYW4xHjAcBgkqhkiG9w0BCQEWD2JhbGFAcGl4Z2xvLmNvbYIJAKbb
xoOA5qB5MBMGA1UdJQQMMAoGCCsGAQUFBwMCMAsGA1UdDwQEAwIHgDANBgkqhkiG
9w0BAQUFAAOCAgEAka2gztb63jK2qvQtclai9dPAIiAlwib1n04eM920DdFJQ8mR
yyokKzk/4dMc7nXat4LbEdmaucwrvu2y5OOW6N1WLkpwatFbXSXi/Kyk++RafCWX
/U4XDMXrKABr+/7MuSCKjipm/QRCvalaF106l4IbK1CxF7PTxDM51Bvd9P1Nz1h7
grnV1mzXxkavIFa03++r2Vwcc8qTJRY8jOFjGHO4R3/aBMEJJxFBYZYFbUrELW9F
5P+aed8yyTyXkIi+pbfDz0Qj8fjJVZZTAISMF2/9KrpJyQDDy19KtdmkD3bHtGqR
07/0LpM+xZ54oZ5ZxIprou64IO7IEVqm1zNSS51zBu7bo7nGKaswpOkI+sKCbwCq
THmnHZLDwOx3bSt4p+HHUfhFb/MUTLDT3krtxij5xVULcXhiDie6Fcnl4IUtsQsw
bIjYijjrhPDaSU1aIADBlRAVFIHVHmRGzgUJrRJPdtBJ9TcmVu9yqWDe0ejSMyJu
ND72KQG3PECiCM3TnkzLl59vRIho/9ap0zG2wElQKruGpFqdZXo12FkoIiMrEy9i
94c1aIzscKloaoL+mLdt+z6p5gPoD22r08NT/Cjd5iKP+iyEVdNHd4d6155DWBIy
HUnW4ohQ1PKu/z84HJOPh/uFbHaHrCz3VNEu/AZvteEzqeZqSKZV3KGFlds=
-----END CERTIFICATE-----
