Certificate:
    Data:
        Version: 3 (0x2)
        Serial Number: 292 (0x124)
    Signature Algorithm: sha1WithRSAEncryption
        Issuer: C=US, ST=CA, L=SanFrancisco, O=Pixglo, Inc., OU=VPN-CIE, CN=tunnel.pixglo.com/name=Bala Chandrasekaran/emailAddress=bala@pixglo.com
        Validity
            Not Before: Feb 14 06:29:55 2018 GMT
            Not After : Feb 12 06:29:55 2028 GMT
        Subject: C=US, ST=CA, L=SanFrancisco, O=Pixglo, Inc., OU=VPN-CIE, CN=cie291/name=Bala Chandrasekaran/emailAddress=bala@pixglo.com
        Subject Public Key Info:
            Public Key Algorithm: rsaEncryption
                Public-Key: (4096 bit)
                Modulus:
                    00:c1:37:02:55:96:10:91:a6:41:4f:10:71:6f:8a:
                    59:f2:75:8c:95:d8:1d:f0:b8:2d:35:6d:e4:69:a6:
                    c5:8f:46:67:78:5d:ba:10:58:43:59:26:53:5e:81:
                    06:9d:52:ba:29:92:ef:7a:61:63:c9:d9:98:01:5b:
                    0b:77:d4:12:94:2d:9c:f8:40:6d:26:86:99:f0:ce:
                    c4:e2:b3:97:53:20:59:f4:cd:d2:43:29:f3:76:a5:
                    2e:28:94:3a:d8:2c:a4:a9:59:66:73:69:30:1b:7c:
                    62:8c:ca:13:00:5f:1d:d3:18:a9:bc:73:52:62:f7:
                    69:43:07:bc:04:a6:92:c9:ca:bd:74:43:aa:ff:46:
                    ec:99:14:f1:14:de:eb:30:41:e6:5d:3a:23:8f:4e:
                    51:df:a0:af:57:8a:07:e8:35:44:4b:0a:df:2d:90:
                    a1:3b:59:32:7d:54:60:d5:9e:76:67:92:49:3e:73:
                    19:c6:d6:92:ad:2b:c0:5a:0b:dc:9e:50:eb:9d:3d:
                    e6:80:ab:67:5d:32:2f:24:5a:7b:15:80:92:c2:9a:
                    86:9e:46:d3:61:09:51:74:2b:87:f5:dc:8b:6a:b3:
                    75:31:fd:c5:97:ee:d6:d1:18:f7:1a:ed:2a:01:22:
                    76:ea:50:66:04:40:95:56:54:c8:9d:48:43:48:2a:
                    ca:46:33:e5:a3:9a:58:c5:1c:ed:6b:da:e2:b5:ab:
                    4c:c7:38:fe:f9:a8:37:6a:f9:c4:cd:9d:2d:bf:42:
                    ec:c7:e5:44:d1:b9:ce:4f:b2:f9:7f:b8:66:f8:15:
                    71:78:dc:0c:77:75:a9:9f:9a:d3:9d:d7:23:b3:5a:
                    3d:19:93:5e:a9:52:f7:e6:96:82:a6:96:5a:7c:88:
                    9b:0a:e5:59:39:bf:36:06:ed:a8:5f:19:f1:7a:0d:
                    ba:13:85:99:22:36:1a:84:f3:d3:d7:0f:2b:88:79:
                    eb:b2:bd:e9:16:8a:e4:74:eb:74:e5:f1:8d:9f:49:
                    1e:14:aa:51:85:3a:76:1a:84:ee:a3:73:4f:4f:4c:
                    90:6a:bb:3d:36:21:19:e2:20:75:bf:16:81:4d:65:
                    97:32:a2:4d:be:d8:73:73:45:dd:49:96:21:99:9b:
                    d2:9d:08:df:01:71:f6:a6:6c:fb:38:d7:1d:88:f9:
                    b7:0c:13:c6:e1:b0:e7:eb:9d:6d:94:00:80:4a:2b:
                    c1:82:05:42:6d:58:de:c5:a9:5d:c2:be:2c:3a:a8:
                    d8:36:a8:d7:2b:c6:2f:33:95:ea:7e:db:18:24:32:
                    e6:02:26:79:ef:4e:16:8d:cb:4e:a8:92:e6:1e:3b:
                    9d:49:e5:e1:aa:33:6b:7f:4b:0f:0c:51:5d:6d:9f:
                    64:79:ef
                Exponent: 65537 (0x10001)
        X509v3 extensions:
            X509v3 Basic Constraints: 
                CA:FALSE
            Netscape Comment: 
                Easy-RSA Generated Certificate
            X509v3 Subject Key Identifier: 
                62:A8:BD:6D:77:1A:97:52:E3:B9:76:FC:63:7D:B9:5F:7A:4E:14:93
            X509v3 Authority Key Identifier: 
                keyid:EF:38:8D:14:50:58:A7:5B:4D:9C:17:72:FC:DF:B9:AC:A7:51:B0:10
                DirName:/C=US/ST=CA/L=SanFrancisco/O=Pixglo, Inc./OU=VPN-CIE/CN=tunnel.pixglo.com/name=Bala Chandrasekaran/emailAddress=bala@pixglo.com
                serial:A6:DB:C6:83:80:E6:A0:79

            X509v3 Extended Key Usage: 
                TLS Web Client Authentication
            X509v3 Key Usage: 
                Digital Signature
    Signature Algorithm: sha1WithRSAEncryption
         18:04:25:96:3a:42:cf:09:c9:a0:12:74:40:3e:09:cc:a9:8a:
         f9:7e:5a:7d:bf:dc:50:a9:28:e1:9b:d1:0b:b8:0a:b2:94:7a:
         c6:85:30:63:f8:75:3d:1f:f0:e5:8f:d6:68:78:45:d2:a6:36:
         4d:c1:60:ac:f0:39:9c:38:53:ee:fe:dc:80:b5:52:86:c4:8b:
         aa:0e:4e:69:42:6f:e9:5b:90:b1:16:88:3d:51:ea:5e:2d:91:
         20:50:95:34:b9:7b:06:13:d5:66:4b:80:59:d5:26:94:c8:03:
         db:03:e7:6d:72:0b:7b:e3:d5:40:df:33:77:14:a4:10:95:55:
         6f:59:0b:4a:23:b4:f2:8f:c0:84:21:2a:21:0a:0e:87:a3:9e:
         43:1b:d0:c3:81:65:12:e1:57:c7:2d:42:8d:93:5f:e8:b3:5e:
         95:20:a0:2d:29:65:98:3d:18:0e:24:26:04:84:05:c6:d9:44:
         b0:37:65:53:98:f4:78:2a:39:21:ba:91:24:70:18:7f:4c:32:
         ee:88:0e:51:ee:2d:2e:81:ba:df:00:90:00:ee:21:f2:c4:f2:
         d6:a8:54:f4:f2:53:c6:ec:4b:b0:87:06:24:bc:1c:53:0a:b6:
         2c:72:96:59:bf:30:63:68:36:02:93:8b:ad:28:63:67:81:71:
         04:90:ea:17:a1:60:a7:e2:0d:2c:a6:31:33:7f:f8:29:3d:bc:
         5f:af:7a:50:40:48:8f:15:44:d7:22:f6:68:db:77:ec:f7:8b:
         4a:ce:ab:aa:8a:86:22:6e:1c:5b:3b:ee:46:a1:98:a9:0b:2a:
         24:45:88:33:44:2c:46:4e:9c:95:2f:51:0d:7a:df:b5:30:b5:
         ef:95:bb:c3:d8:49:3d:70:35:66:a1:a0:90:73:09:48:41:11:
         4a:4b:03:fb:c9:3e:13:d2:2c:71:07:de:e9:2e:c1:50:f9:da:
         e3:14:74:94:54:8a:ac:e5:1a:22:79:9e:a2:e8:dd:0f:16:5f:
         cd:8e:36:6f:70:91:93:80:04:21:ed:31:2d:23:16:71:08:aa:
         37:b8:68:9e:85:d5:ac:91:f8:ec:b4:98:11:5c:26:0a:22:25:
         da:f8:f5:cb:3f:99:e0:fd:ae:a3:02:f3:cc:ed:63:83:0b:6a:
         1d:a3:f7:35:d1:55:5a:27:91:07:27:63:bc:8c:37:8d:a0:0a:
         ec:9d:e3:7f:58:d5:52:28:e5:4e:d9:be:c3:ed:43:b7:14:eb:
         fb:d9:33:5a:95:db:a3:fa:d3:61:ca:45:7f:d0:27:ec:89:20:
         fd:48:0f:04:14:95:96:9f:8e:35:eb:14:81:2d:4c:b5:c3:54:
         6c:ce:6f:02:7b:06:53:b6
-----BEGIN CERTIFICATE-----
MIIHSDCCBTCgAwIBAgICASQwDQYJKoZIhvcNAQEFBQAwgbQxCzAJBgNVBAYTAlVT
MQswCQYDVQQIEwJDQTEVMBMGA1UEBxMMU2FuRnJhbmNpc2NvMRUwEwYDVQQKEwxQ
aXhnbG8sIEluYy4xEDAOBgNVBAsTB1ZQTi1DSUUxGjAYBgNVBAMTEXR1bm5lbC5w
aXhnbG8uY29tMRwwGgYDVQQpExNCYWxhIENoYW5kcmFzZWthcmFuMR4wHAYJKoZI
hvcNAQkBFg9iYWxhQHBpeGdsby5jb20wHhcNMTgwMjE0MDYyOTU1WhcNMjgwMjEy
MDYyOTU1WjCBqTELMAkGA1UEBhMCVVMxCzAJBgNVBAgTAkNBMRUwEwYDVQQHEwxT
YW5GcmFuY2lzY28xFTATBgNVBAoTDFBpeGdsbywgSW5jLjEQMA4GA1UECxMHVlBO
LUNJRTEPMA0GA1UEAxMGY2llMjkxMRwwGgYDVQQpExNCYWxhIENoYW5kcmFzZWth
cmFuMR4wHAYJKoZIhvcNAQkBFg9iYWxhQHBpeGdsby5jb20wggIiMA0GCSqGSIb3
DQEBAQUAA4ICDwAwggIKAoICAQDBNwJVlhCRpkFPEHFvilnydYyV2B3wuC01beRp
psWPRmd4XboQWENZJlNegQadUropku96YWPJ2ZgBWwt31BKULZz4QG0mhpnwzsTi
s5dTIFn0zdJDKfN2pS4olDrYLKSpWWZzaTAbfGKMyhMAXx3TGKm8c1Ji92lDB7wE
ppLJyr10Q6r/RuyZFPEU3uswQeZdOiOPTlHfoK9XigfoNURLCt8tkKE7WTJ9VGDV
nnZnkkk+cxnG1pKtK8BaC9yeUOudPeaAq2ddMi8kWnsVgJLCmoaeRtNhCVF0K4f1
3Itqs3Ux/cWX7tbRGPca7SoBInbqUGYEQJVWVMidSENIKspGM+WjmljFHO1r2uK1
q0zHOP75qDdq+cTNnS2/QuzH5UTRuc5Psvl/uGb4FXF43Ax3damfmtOd1yOzWj0Z
k16pUvfmloKmllp8iJsK5Vk5vzYG7ahfGfF6DboThZkiNhqE89PXDyuIeeuyvekW
iuR063Tl8Y2fSR4UqlGFOnYahO6jc09PTJBquz02IRniIHW/FoFNZZcyok2+2HNz
Rd1JliGZm9KdCN8BcfambPs41x2I+bcME8bhsOfrnW2UAIBKK8GCBUJtWN7FqV3C
viw6qNg2qNcrxi8zlep+2xgkMuYCJnnvThaNy06okuYeO51J5eGqM2t/Sw8MUV1t
n2R57wIDAQABo4IBazCCAWcwCQYDVR0TBAIwADAtBglghkgBhvhCAQ0EIBYeRWFz
eS1SU0EgR2VuZXJhdGVkIENlcnRpZmljYXRlMB0GA1UdDgQWBBRiqL1tdxqXUuO5
dvxjfblfek4UkzCB6QYDVR0jBIHhMIHegBTvOI0UUFinW02cF3L837msp1GwEKGB
uqSBtzCBtDELMAkGA1UEBhMCVVMxCzAJBgNVBAgTAkNBMRUwEwYDVQQHEwxTYW5G
cmFuY2lzY28xFTATBgNVBAoTDFBpeGdsbywgSW5jLjEQMA4GA1UECxMHVlBOLUNJ
RTEaMBgGA1UEAxMRdHVubmVsLnBpeGdsby5jb20xHDAaBgNVBCkTE0JhbGEgQ2hh
bmRyYXNla2FyYW4xHjAcBgkqhkiG9w0BCQEWD2JhbGFAcGl4Z2xvLmNvbYIJAKbb
xoOA5qB5MBMGA1UdJQQMMAoGCCsGAQUFBwMCMAsGA1UdDwQEAwIHgDANBgkqhkiG
9w0BAQUFAAOCAgEAGAQlljpCzwnJoBJ0QD4JzKmK+X5afb/cUKko4ZvRC7gKspR6
xoUwY/h1PR/w5Y/WaHhF0qY2TcFgrPA5nDhT7v7cgLVShsSLqg5OaUJv6VuQsRaI
PVHqXi2RIFCVNLl7BhPVZkuAWdUmlMgD2wPnbXILe+PVQN8zdxSkEJVVb1kLSiO0
8o/AhCEqIQoOh6OeQxvQw4FlEuFXxy1CjZNf6LNelSCgLSllmD0YDiQmBIQFxtlE
sDdlU5j0eCo5IbqRJHAYf0wy7ogOUe4tLoG63wCQAO4h8sTy1qhU9PJTxuxLsIcG
JLwcUwq2LHKWWb8wY2g2ApOLrShjZ4FxBJDqF6Fgp+INLKYxM3/4KT28X696UEBI
jxVE1yL2aNt37PeLSs6rqoqGIm4cWzvuRqGYqQsqJEWIM0QsRk6clS9RDXrftTC1
75W7w9hJPXA1ZqGgkHMJSEERSksD+8k+E9IscQfe6S7BUPna4xR0lFSKrOUaInme
oujdDxZfzY42b3CRk4AEIe0xLSMWcQiqN7honoXVrJH47LSYEVwmCiIl2vj1yz+Z
4P2uowLzzO1jgwtqHaP3NdFVWieRBydjvIw3jaAK7J3jf1jVUijlTtm+w+1DtxTr
+9kzWpXbo/rTYcpFf9An7Ikg/UgPBBSVlp+ONesUgS1MtcNUbM5vAnsGU7Y=
-----END CERTIFICATE-----
