Certificate:
    Data:
        Version: 3 (0x2)
        Serial Number: 293 (0x125)
    Signature Algorithm: sha1WithRSAEncryption
        Issuer: C=US, ST=CA, L=SanFrancisco, O=Pixglo, Inc., OU=VPN-CIE, CN=tunnel.pixglo.com/name=Bala Chandrasekaran/emailAddress=bala@pixglo.com
        Validity
            Not Before: Feb 14 06:29:56 2018 GMT
            Not After : Feb 12 06:29:56 2028 GMT
        Subject: C=US, ST=CA, L=SanFrancisco, O=Pixglo, Inc., OU=VPN-CIE, CN=cie292/name=Bala Chandrasekaran/emailAddress=bala@pixglo.com
        Subject Public Key Info:
            Public Key Algorithm: rsaEncryption
                Public-Key: (4096 bit)
                Modulus:
                    00:d0:e7:72:dc:12:70:82:78:f5:bf:fa:de:92:f7:
                    e4:7a:9f:ca:fc:5d:c1:bc:55:13:0a:67:6d:b6:a2:
                    c9:eb:9f:2d:fa:a9:e0:07:77:31:2f:4a:58:a5:dd:
                    f0:c4:8a:b0:31:16:e7:69:7b:80:01:a2:3e:e2:b9:
                    64:cc:e5:1c:ed:85:45:d5:b4:a3:27:d5:0f:33:e5:
                    75:f3:4f:bd:e9:23:a6:70:48:b5:b4:1a:8b:d3:20:
                    fc:7f:58:0b:53:46:8a:01:c0:16:1b:b0:f4:56:53:
                    3c:b5:7c:f8:b9:69:c4:a1:83:15:00:e2:18:12:a5:
                    5c:ae:54:88:07:9c:3d:e8:3e:b0:7e:61:67:ee:53:
                    40:de:23:b3:1a:47:a3:34:11:41:b1:47:a0:de:77:
                    6a:df:24:21:d5:44:6d:e5:32:9c:dd:57:7a:5a:fd:
                    d4:f6:e2:13:64:b0:e5:7d:e9:c9:5c:00:a0:ef:9b:
                    b7:45:d3:fb:6e:0e:5b:26:ee:eb:91:7c:aa:ba:40:
                    c7:34:32:58:72:7d:cc:f8:a5:b4:b6:e4:5c:6e:f0:
                    4d:f5:07:c0:36:82:e3:07:9e:7d:b5:7a:a1:f4:26:
                    2f:30:ef:59:28:51:62:47:ff:1f:03:2e:a5:c6:63:
                    73:6a:00:1d:d4:a1:d8:a4:6c:70:02:2e:b0:ad:be:
                    4d:36:01:de:b8:97:d1:ca:e6:ce:1b:40:07:97:09:
                    2c:c1:63:68:62:55:93:54:33:d4:95:c1:51:0b:32:
                    43:6a:1b:de:60:c7:79:e7:bc:ca:a6:69:b6:4d:1b:
                    ac:92:16:80:26:f3:3a:3c:36:32:4b:76:44:fc:d6:
                    55:1b:2e:18:8d:95:a3:fc:5f:72:f1:4b:b3:86:27:
                    2b:11:9d:13:c2:c9:ba:b4:6b:bc:eb:9a:b8:71:ae:
                    42:89:bd:a5:bd:42:f4:47:38:6a:a9:19:80:b8:c2:
                    a7:a0:2f:ae:28:14:58:f8:66:df:9c:d1:8d:38:21:
                    58:03:ed:79:d4:ea:fe:f5:d2:8d:c3:e2:c1:6c:d8:
                    07:85:5b:64:3e:f9:f9:59:b3:06:0f:dc:8a:da:21:
                    9e:5f:d3:ec:a9:48:22:04:36:dd:33:17:01:a5:43:
                    bc:92:3c:fc:13:04:83:34:b0:b6:52:c4:de:6d:f4:
                    9d:05:42:db:82:1e:a2:eb:79:03:ca:b8:2a:ca:62:
                    89:0d:6a:98:b1:b4:06:7d:ec:5c:21:2f:e2:4f:1b:
                    fb:76:46:1a:1f:f7:f4:2c:68:6c:27:4f:ce:74:a1:
                    a1:f0:d9:f3:69:fb:1f:d9:3c:43:e9:7b:db:a6:29:
                    f8:76:3a:55:3a:ed:88:94:a0:b1:ee:c2:c6:2c:f0:
                    60:00:51
                Exponent: 65537 (0x10001)
        X509v3 extensions:
            X509v3 Basic Constraints: 
                CA:FALSE
            Netscape Comment: 
                Easy-RSA Generated Certificate
            X509v3 Subject Key Identifier: 
                78:1C:AC:CF:DC:4A:1C:46:D3:E5:CA:60:0C:BF:15:6C:68:A9:86:3F
            X509v3 Authority Key Identifier: 
                keyid:EF:38:8D:14:50:58:A7:5B:4D:9C:17:72:FC:DF:B9:AC:A7:51:B0:10
                DirName:/C=US/ST=CA/L=SanFrancisco/O=Pixglo, Inc./OU=VPN-CIE/CN=tunnel.pixglo.com/name=Bala Chandrasekaran/emailAddress=bala@pixglo.com
                serial:A6:DB:C6:83:80:E6:A0:79

            X509v3 Extended Key Usage: 
                TLS Web Client Authentication
            X509v3 Key Usage: 
                Digital Signature
    Signature Algorithm: sha1WithRSAEncryption
         de:76:1a:57:28:f1:85:c0:f4:03:cd:46:89:be:42:95:1c:6f:
         79:cd:ca:ab:7e:5b:28:cd:f4:cd:ef:d2:5e:4b:ac:4e:8a:12:
         74:85:82:c6:2b:38:bf:32:ea:08:ef:92:47:a9:5b:4a:50:ef:
         2b:e0:4b:d4:64:a4:66:9d:f7:a2:e3:3d:f9:51:56:59:71:c4:
         bd:06:fb:80:a6:19:31:70:af:71:1c:c7:80:2b:74:7f:03:02:
         f2:3d:4c:ce:fc:8d:2a:62:89:e8:e4:36:cb:9c:2a:46:30:18:
         de:95:e5:07:c8:5f:57:6b:8f:16:68:92:6f:65:11:a7:7e:b5:
         6f:07:6a:16:77:6b:0b:d2:bd:41:8d:39:b4:11:cf:fb:5f:61:
         1d:5a:fb:e9:f9:b2:bb:b1:4c:44:6e:f4:b4:95:f8:14:60:1e:
         31:a7:c6:41:4d:22:f1:9f:b9:bc:4b:3f:4b:38:de:85:97:7e:
         b0:02:d9:96:59:8a:ea:84:76:f9:74:38:2a:2a:d7:3f:2f:26:
         45:1b:df:ea:23:0d:5e:ba:a8:ba:9a:c0:25:ca:c6:65:82:94:
         d1:b3:95:08:8a:cc:e8:65:10:e5:01:55:36:c7:b9:68:e1:2a:
         9b:9d:4d:be:9b:26:de:f9:68:c8:11:93:5a:cc:f8:b1:8f:9f:
         2c:f1:dc:10:00:6b:4e:76:32:a3:6b:e8:f5:ae:df:9f:d0:32:
         a3:2f:2d:0c:36:41:75:fc:93:31:49:da:96:31:55:ce:40:16:
         d7:ed:57:24:06:f4:4d:c5:7d:26:e8:dd:85:6a:5a:d8:36:7a:
         e9:a9:ec:6d:7a:d7:8a:3b:d9:01:60:79:c2:23:e2:2b:15:6b:
         f0:88:49:4c:bc:f4:a6:ea:3c:71:f1:61:96:a4:54:89:f6:f0:
         59:5f:b8:3d:a1:6a:11:f4:dd:26:99:53:ed:69:9b:68:ca:d8:
         5e:38:02:3b:31:e3:b8:61:90:47:60:85:33:20:e9:f1:5a:b1:
         c8:49:68:2b:e6:5b:d4:ab:8e:47:bc:e7:23:b4:b3:09:5b:38:
         57:cf:d3:a0:4d:f7:11:f5:b6:37:6d:70:e1:7d:f9:8d:9b:b4:
         c1:f4:e0:eb:63:63:08:a3:14:bf:fa:ce:ea:f5:4e:5c:26:69:
         b1:32:64:ee:01:e4:58:ac:f7:aa:4d:b1:fe:2d:1d:cc:c7:bb:
         0b:08:89:83:06:97:b0:b7:7d:98:e9:7c:d6:5f:0c:b2:2c:6b:
         f0:49:7d:f2:21:ec:6c:59:e7:bd:8d:43:b1:7c:74:75:d8:ba:
         c9:84:37:05:f1:af:c6:36:fc:cd:b3:24:bd:e8:a7:e8:51:64:
         db:83:d5:95:b1:fe:ab:cb
-----BEGIN CERTIFICATE-----
MIIHSDCCBTCgAwIBAgICASUwDQYJKoZIhvcNAQEFBQAwgbQxCzAJBgNVBAYTAlVT
MQswCQYDVQQIEwJDQTEVMBMGA1UEBxMMU2FuRnJhbmNpc2NvMRUwEwYDVQQKEwxQ
aXhnbG8sIEluYy4xEDAOBgNVBAsTB1ZQTi1DSUUxGjAYBgNVBAMTEXR1bm5lbC5w
aXhnbG8uY29tMRwwGgYDVQQpExNCYWxhIENoYW5kcmFzZWthcmFuMR4wHAYJKoZI
hvcNAQkBFg9iYWxhQHBpeGdsby5jb20wHhcNMTgwMjE0MDYyOTU2WhcNMjgwMjEy
MDYyOTU2WjCBqTELMAkGA1UEBhMCVVMxCzAJBgNVBAgTAkNBMRUwEwYDVQQHEwxT
YW5GcmFuY2lzY28xFTATBgNVBAoTDFBpeGdsbywgSW5jLjEQMA4GA1UECxMHVlBO
LUNJRTEPMA0GA1UEAxMGY2llMjkyMRwwGgYDVQQpExNCYWxhIENoYW5kcmFzZWth
cmFuMR4wHAYJKoZIhvcNAQkBFg9iYWxhQHBpeGdsby5jb20wggIiMA0GCSqGSIb3
DQEBAQUAA4ICDwAwggIKAoICAQDQ53LcEnCCePW/+t6S9+R6n8r8XcG8VRMKZ222
osnrny36qeAHdzEvSlil3fDEirAxFudpe4ABoj7iuWTM5RzthUXVtKMn1Q8z5XXz
T73pI6ZwSLW0GovTIPx/WAtTRooBwBYbsPRWUzy1fPi5acShgxUA4hgSpVyuVIgH
nD3oPrB+YWfuU0DeI7MaR6M0EUGxR6Ded2rfJCHVRG3lMpzdV3pa/dT24hNksOV9
6clcAKDvm7dF0/tuDlsm7uuRfKq6QMc0Mlhyfcz4pbS25Fxu8E31B8A2guMHnn21
eqH0Ji8w71koUWJH/x8DLqXGY3NqAB3UodikbHACLrCtvk02Ad64l9HK5s4bQAeX
CSzBY2hiVZNUM9SVwVELMkNqG95gx3nnvMqmabZNG6ySFoAm8zo8NjJLdkT81lUb
LhiNlaP8X3LxS7OGJysRnRPCybq0a7zrmrhxrkKJvaW9QvRHOGqpGYC4wqegL64o
FFj4Zt+c0Y04IVgD7XnU6v710o3D4sFs2AeFW2Q++flZswYP3IraIZ5f0+ypSCIE
Nt0zFwGlQ7ySPPwTBIM0sLZSxN5t9J0FQtuCHqLreQPKuCrKYokNapixtAZ97Fwh
L+JPG/t2Rhof9/QsaGwnT850oaHw2fNp+x/ZPEPpe9umKfh2OlU67YiUoLHuwsYs
8GAAUQIDAQABo4IBazCCAWcwCQYDVR0TBAIwADAtBglghkgBhvhCAQ0EIBYeRWFz
eS1SU0EgR2VuZXJhdGVkIENlcnRpZmljYXRlMB0GA1UdDgQWBBR4HKzP3EocRtPl
ymAMvxVsaKmGPzCB6QYDVR0jBIHhMIHegBTvOI0UUFinW02cF3L837msp1GwEKGB
uqSBtzCBtDELMAkGA1UEBhMCVVMxCzAJBgNVBAgTAkNBMRUwEwYDVQQHEwxTYW5G
cmFuY2lzY28xFTATBgNVBAoTDFBpeGdsbywgSW5jLjEQMA4GA1UECxMHVlBOLUNJ
RTEaMBgGA1UEAxMRdHVubmVsLnBpeGdsby5jb20xHDAaBgNVBCkTE0JhbGEgQ2hh
bmRyYXNla2FyYW4xHjAcBgkqhkiG9w0BCQEWD2JhbGFAcGl4Z2xvLmNvbYIJAKbb
xoOA5qB5MBMGA1UdJQQMMAoGCCsGAQUFBwMCMAsGA1UdDwQEAwIHgDANBgkqhkiG
9w0BAQUFAAOCAgEA3nYaVyjxhcD0A81Gib5ClRxvec3Kq35bKM30ze/SXkusTooS
dIWCxis4vzLqCO+SR6lbSlDvK+BL1GSkZp33ouM9+VFWWXHEvQb7gKYZMXCvcRzH
gCt0fwMC8j1MzvyNKmKJ6OQ2y5wqRjAY3pXlB8hfV2uPFmiSb2URp361bwdqFndr
C9K9QY05tBHP+19hHVr76fmyu7FMRG70tJX4FGAeMafGQU0i8Z+5vEs/SzjehZd+
sALZllmK6oR2+XQ4KirXPy8mRRvf6iMNXrqouprAJcrGZYKU0bOVCIrM6GUQ5QFV
Nse5aOEqm51Nvpsm3vloyBGTWsz4sY+fLPHcEABrTnYyo2vo9a7fn9Ayoy8tDDZB
dfyTMUnaljFVzkAW1+1XJAb0TcV9JujdhWpa2DZ66ansbXrXijvZAWB5wiPiKxVr
8IhJTLz0puo8cfFhlqRUifbwWV+4PaFqEfTdJplT7WmbaMrYXjgCOzHjuGGQR2CF
MyDp8VqxyEloK+Zb1KuOR7znI7SzCVs4V8/ToE33EfW2N21w4X35jZu0wfTg62Nj
CKMUv/rO6vVOXCZpsTJk7gHkWKz3qk2x/i0dzMe7CwiJgwaXsLd9mOl81l8Msixr
8El98iHsbFnnvY1DsXx0ddi6yYQ3BfGvxjb8zbMkvein6FFk24PVlbH+q8s=
-----END CERTIFICATE-----
