Certificate:
    Data:
        Version: 3 (0x2)
        Serial Number: 295 (0x127)
    Signature Algorithm: sha1WithRSAEncryption
        Issuer: C=US, ST=CA, L=SanFrancisco, O=Pixglo, Inc., OU=VPN-CIE, CN=tunnel.pixglo.com/name=Bala Chandrasekaran/emailAddress=bala@pixglo.com
        Validity
            Not Before: Feb 14 06:29:57 2018 GMT
            Not After : Feb 12 06:29:57 2028 GMT
        Subject: C=US, ST=CA, L=SanFrancisco, O=Pixglo, Inc., OU=VPN-CIE, CN=cie294/name=Bala Chandrasekaran/emailAddress=bala@pixglo.com
        Subject Public Key Info:
            Public Key Algorithm: rsaEncryption
                Public-Key: (4096 bit)
                Modulus:
                    00:c6:d2:ed:5c:31:3d:d8:fc:1a:dd:53:13:82:2c:
                    d0:45:52:d9:62:bf:01:44:b2:4e:04:40:6f:79:17:
                    b1:1f:3f:5b:c4:f0:42:a7:19:13:ae:d1:ac:d5:1d:
                    3d:e2:b7:ce:ed:0c:7e:fb:83:ff:01:de:2d:2f:b3:
                    7d:65:c6:a9:b7:f7:9f:7a:f5:ad:e1:3b:cf:f3:e7:
                    08:86:9a:55:14:66:13:d3:f6:2b:4d:d4:d0:4c:1a:
                    68:f4:dd:89:0a:61:7a:90:90:d3:26:d0:f0:dc:84:
                    54:49:c7:25:a9:87:07:b9:bd:1a:30:8e:c8:7a:af:
                    6d:bc:e6:c1:21:8b:2e:54:81:73:cd:87:ed:87:8a:
                    19:c6:e6:d4:fb:02:53:7d:6d:28:b1:e7:f9:2f:20:
                    fd:76:61:18:7f:c2:eb:79:b4:45:48:21:a7:16:b7:
                    02:6b:f0:f9:50:63:b2:a1:e3:52:e4:42:45:90:a5:
                    20:e9:3d:0b:b5:d7:41:aa:46:d0:88:99:cb:51:29:
                    92:d7:c5:bf:88:3c:e5:f2:f1:bd:63:56:8d:28:0e:
                    60:7a:dd:cb:7c:5a:5d:6c:7b:90:e5:f0:a3:ae:69:
                    39:3a:ff:0e:a2:be:72:92:83:ff:9a:1b:32:4f:6f:
                    68:ec:82:96:da:e5:7f:a8:33:c3:cf:65:29:de:0f:
                    94:db:b1:93:8a:1c:cf:20:9a:fe:d5:b7:e9:0e:6a:
                    79:ef:a2:e4:36:b7:42:1e:40:37:c9:28:03:33:df:
                    2a:89:33:55:4f:e8:fc:c3:49:4a:8c:8e:6a:9e:55:
                    17:e3:ce:4a:5f:21:38:eb:70:66:8c:dc:5a:d7:1f:
                    f8:a4:f8:77:5c:4b:eb:6a:68:f7:0c:dd:0f:95:80:
                    1e:17:e1:95:12:6b:38:48:80:61:a9:d7:88:62:f0:
                    94:ad:52:4f:3d:e4:a4:24:39:06:8c:23:fa:0c:c4:
                    64:c5:c0:79:5b:bd:99:91:cc:82:0e:ec:0f:eb:8e:
                    31:7e:b4:64:a2:79:57:f7:b4:ee:b8:28:67:02:90:
                    aa:13:33:22:3d:97:ef:89:7c:96:06:7c:62:b4:44:
                    eb:6b:32:0e:3b:73:f5:09:2f:34:70:97:c7:38:53:
                    e3:66:7a:4e:0a:c7:23:b4:5d:5b:90:1a:68:9c:df:
                    57:69:1a:2c:f6:07:22:83:16:26:d3:a2:81:ae:3f:
                    61:ce:ce:bd:f7:ec:aa:4e:55:57:0f:6f:d5:e8:12:
                    1c:93:46:1e:f0:08:75:cc:1f:90:7e:07:e4:35:9b:
                    db:c5:6a:3f:35:ae:26:4a:83:3f:c9:08:9f:c7:e2:
                    d1:a9:2c:02:59:40:49:db:e0:c0:56:66:ea:97:5e:
                    23:7e:8d
                Exponent: 65537 (0x10001)
        X509v3 extensions:
            X509v3 Basic Constraints: 
                CA:FALSE
            Netscape Comment: 
                Easy-RSA Generated Certificate
            X509v3 Subject Key Identifier: 
                0E:C8:57:F6:EC:90:50:E6:A4:C6:FE:EC:DC:47:0D:F1:93:DB:63:54
            X509v3 Authority Key Identifier: 
                keyid:EF:38:8D:14:50:58:A7:5B:4D:9C:17:72:FC:DF:B9:AC:A7:51:B0:10
                DirName:/C=US/ST=CA/L=SanFrancisco/O=Pixglo, Inc./OU=VPN-CIE/CN=tunnel.pixglo.com/name=Bala Chandrasekaran/emailAddress=bala@pixglo.com
                serial:A6:DB:C6:83:80:E6:A0:79

            X509v3 Extended Key Usage: 
                TLS Web Client Authentication
            X509v3 Key Usage: 
                Digital Signature
    Signature Algorithm: sha1WithRSAEncryption
         4d:33:20:02:61:09:ae:eb:85:17:4b:89:a8:a0:e5:af:d3:03:
         49:96:6d:b3:7b:b1:bb:14:5f:f7:63:75:86:da:16:bf:58:d8:
         3e:99:09:2c:2f:c1:87:4d:b5:ef:ee:ea:07:a9:d3:9a:1a:51:
         c6:99:18:ec:66:cd:00:1b:2d:ab:3b:a3:08:b0:1c:4d:0f:2f:
         59:dc:1b:b3:7c:a1:cb:77:65:ce:8a:f7:cf:6f:09:54:73:d8:
         d8:54:70:f1:77:51:3e:72:f8:89:37:e3:91:31:a8:2c:9b:5a:
         b5:9d:b9:85:07:4b:05:e5:0c:f2:16:3d:66:32:62:fa:37:2c:
         c9:00:80:e3:fe:17:c8:2c:be:26:90:e8:cb:49:91:4a:4e:3d:
         e0:88:fd:12:03:d2:05:51:2f:e6:3c:90:de:a4:ec:f1:fa:17:
         26:aa:2f:52:55:7a:32:60:79:07:2d:26:9a:18:3d:a0:d4:1b:
         d8:fc:ce:ff:7a:45:c6:c0:4f:e1:08:b3:8b:da:5f:83:c9:b7:
         78:8a:fd:ea:29:e0:e8:e5:a2:aa:e0:51:4a:83:a2:5e:5c:d6:
         25:34:cf:61:cf:32:3e:78:24:65:2d:f1:f5:3a:9e:c4:90:42:
         7f:be:d0:d3:20:d2:6d:0b:05:7d:ae:a4:f0:7c:ba:fd:87:f1:
         e9:76:cf:8a:99:37:f6:22:39:74:0a:f9:38:eb:d1:f9:cc:c2:
         b9:7b:70:5b:2f:73:bf:18:aa:34:94:6a:1a:10:77:16:d2:ad:
         e8:3b:3d:4b:5f:8b:9b:69:f4:66:fe:5f:ec:a3:59:14:32:b6:
         b2:8a:a6:d8:e7:d7:b8:55:d7:c2:2f:6b:7b:b9:f0:fe:35:f1:
         17:5c:4e:cc:d4:55:04:72:7f:f6:69:e1:c2:0c:d6:f6:50:57:
         16:76:e2:17:ed:64:bd:fa:11:cd:b4:92:ac:bb:cc:03:6b:8f:
         39:fa:cd:19:c5:24:7b:fc:82:17:6c:12:31:e6:36:09:ab:59:
         42:5b:d9:81:b1:2e:16:0a:1b:1d:27:79:c1:09:2e:25:68:6a:
         aa:83:86:f6:a5:a9:e8:4d:ff:ff:8f:d7:49:1f:82:0c:3a:3c:
         c3:cd:d9:9e:d7:4c:a4:b2:bb:85:3c:50:90:82:7f:8d:4f:68:
         44:4f:c2:d8:8c:f1:08:e6:85:26:c8:32:a6:69:4a:f0:63:b4:
         7a:14:f6:12:c7:ad:1f:f4:d1:ff:49:8b:36:ec:c0:fa:73:9c:
         6a:99:26:3f:ee:42:45:43:91:de:9b:9d:c0:a1:c6:57:26:47:
         d2:99:bb:12:fc:5f:47:56:ae:9c:89:2b:a6:ff:d0:20:33:81:
         63:17:8b:b4:95:b4:2e:4f
-----BEGIN CERTIFICATE-----
MIIHSDCCBTCgAwIBAgICAScwDQYJKoZIhvcNAQEFBQAwgbQxCzAJBgNVBAYTAlVT
MQswCQYDVQQIEwJDQTEVMBMGA1UEBxMMU2FuRnJhbmNpc2NvMRUwEwYDVQQKEwxQ
aXhnbG8sIEluYy4xEDAOBgNVBAsTB1ZQTi1DSUUxGjAYBgNVBAMTEXR1bm5lbC5w
aXhnbG8uY29tMRwwGgYDVQQpExNCYWxhIENoYW5kcmFzZWthcmFuMR4wHAYJKoZI
hvcNAQkBFg9iYWxhQHBpeGdsby5jb20wHhcNMTgwMjE0MDYyOTU3WhcNMjgwMjEy
MDYyOTU3WjCBqTELMAkGA1UEBhMCVVMxCzAJBgNVBAgTAkNBMRUwEwYDVQQHEwxT
YW5GcmFuY2lzY28xFTATBgNVBAoTDFBpeGdsbywgSW5jLjEQMA4GA1UECxMHVlBO
LUNJRTEPMA0GA1UEAxMGY2llMjk0MRwwGgYDVQQpExNCYWxhIENoYW5kcmFzZWth
cmFuMR4wHAYJKoZIhvcNAQkBFg9iYWxhQHBpeGdsby5jb20wggIiMA0GCSqGSIb3
DQEBAQUAA4ICDwAwggIKAoICAQDG0u1cMT3Y/BrdUxOCLNBFUtlivwFEsk4EQG95
F7EfP1vE8EKnGROu0azVHT3it87tDH77g/8B3i0vs31lxqm395969a3hO8/z5wiG
mlUUZhPT9itN1NBMGmj03YkKYXqQkNMm0PDchFRJxyWphwe5vRowjsh6r2285sEh
iy5UgXPNh+2HihnG5tT7AlN9bSix5/kvIP12YRh/wut5tEVIIacWtwJr8PlQY7Kh
41LkQkWQpSDpPQu110GqRtCImctRKZLXxb+IPOXy8b1jVo0oDmB63ct8Wl1se5Dl
8KOuaTk6/w6ivnKSg/+aGzJPb2jsgpba5X+oM8PPZSneD5TbsZOKHM8gmv7Vt+kO
annvouQ2t0IeQDfJKAMz3yqJM1VP6PzDSUqMjmqeVRfjzkpfITjrcGaM3FrXH/ik
+HdcS+tqaPcM3Q+VgB4X4ZUSazhIgGGp14hi8JStUk895KQkOQaMI/oMxGTFwHlb
vZmRzIIO7A/rjjF+tGSieVf3tO64KGcCkKoTMyI9l++JfJYGfGK0ROtrMg47c/UJ
LzRwl8c4U+Nmek4KxyO0XVuQGmic31dpGiz2ByKDFibTooGuP2HOzr337KpOVVcP
b9XoEhyTRh7wCHXMH5B+B+Q1m9vFaj81riZKgz/JCJ/H4tGpLAJZQEnb4MBWZuqX
XiN+jQIDAQABo4IBazCCAWcwCQYDVR0TBAIwADAtBglghkgBhvhCAQ0EIBYeRWFz
eS1SU0EgR2VuZXJhdGVkIENlcnRpZmljYXRlMB0GA1UdDgQWBBQOyFf27JBQ5qTG
/uzcRw3xk9tjVDCB6QYDVR0jBIHhMIHegBTvOI0UUFinW02cF3L837msp1GwEKGB
uqSBtzCBtDELMAkGA1UEBhMCVVMxCzAJBgNVBAgTAkNBMRUwEwYDVQQHEwxTYW5G
cmFuY2lzY28xFTATBgNVBAoTDFBpeGdsbywgSW5jLjEQMA4GA1UECxMHVlBOLUNJ
RTEaMBgGA1UEAxMRdHVubmVsLnBpeGdsby5jb20xHDAaBgNVBCkTE0JhbGEgQ2hh
bmRyYXNla2FyYW4xHjAcBgkqhkiG9w0BCQEWD2JhbGFAcGl4Z2xvLmNvbYIJAKbb
xoOA5qB5MBMGA1UdJQQMMAoGCCsGAQUFBwMCMAsGA1UdDwQEAwIHgDANBgkqhkiG
9w0BAQUFAAOCAgEATTMgAmEJruuFF0uJqKDlr9MDSZZts3uxuxRf92N1htoWv1jY
PpkJLC/Bh0217+7qB6nTmhpRxpkY7GbNABstqzujCLAcTQ8vWdwbs3yhy3dlzor3
z28JVHPY2FRw8XdRPnL4iTfjkTGoLJtatZ25hQdLBeUM8hY9ZjJi+jcsyQCA4/4X
yCy+JpDoy0mRSk494Ij9EgPSBVEv5jyQ3qTs8foXJqovUlV6MmB5By0mmhg9oNQb
2PzO/3pFxsBP4Qizi9pfg8m3eIr96ing6OWiquBRSoOiXlzWJTTPYc8yPngkZS3x
9TqexJBCf77Q0yDSbQsFfa6k8Hy6/Yfx6XbPipk39iI5dAr5OOvR+czCuXtwWy9z
vxiqNJRqGhB3FtKt6Ds9S1+Lm2n0Zv5f7KNZFDK2soqm2OfXuFXXwi9re7nw/jXx
F1xOzNRVBHJ/9mnhwgzW9lBXFnbiF+1kvfoRzbSSrLvMA2uPOfrNGcUke/yCF2wS
MeY2CatZQlvZgbEuFgobHSd5wQkuJWhqqoOG9qWp6E3//4/XSR+CDDo8w83ZntdM
pLK7hTxQkIJ/jU9oRE/C2IzxCOaFJsgypmlK8GO0ehT2EsetH/TR/0mLNuzA+nOc
apkmP+5CRUOR3pudwKHGVyZH0pm7EvxfR1aunIkrpv/QIDOBYxeLtJW0Lk8=
-----END CERTIFICATE-----
