Certificate:
    Data:
        Version: 3 (0x2)
        Serial Number: 296 (0x128)
    Signature Algorithm: sha1WithRSAEncryption
        Issuer: C=US, ST=CA, L=SanFrancisco, O=Pixglo, Inc., OU=VPN-CIE, CN=tunnel.pixglo.com/name=Bala Chandrasekaran/emailAddress=bala@pixglo.com
        Validity
            Not Before: Feb 14 06:29:57 2018 GMT
            Not After : Feb 12 06:29:57 2028 GMT
        Subject: C=US, ST=CA, L=SanFrancisco, O=Pixglo, Inc., OU=VPN-CIE, CN=cie295/name=Bala Chandrasekaran/emailAddress=bala@pixglo.com
        Subject Public Key Info:
            Public Key Algorithm: rsaEncryption
                Public-Key: (4096 bit)
                Modulus:
                    00:b1:91:74:ba:eb:e5:b1:58:ec:bb:66:90:f0:df:
                    30:63:7c:52:7a:08:0d:8c:94:0e:22:96:33:87:87:
                    95:04:ab:98:9b:a7:da:17:72:50:1b:7c:67:b8:aa:
                    16:d2:e4:87:5f:eb:9e:14:22:2c:c9:81:aa:8f:61:
                    7e:30:e1:30:05:67:5f:e5:96:30:c1:51:91:fb:a7:
                    62:ac:be:43:9d:6a:07:f2:d6:6e:75:3a:b0:bb:bc:
                    56:b3:9c:f7:cd:ce:b8:a3:c0:0c:d7:1e:26:a2:fa:
                    31:c8:42:08:57:81:31:16:43:ca:8d:1b:c3:ee:08:
                    29:b6:53:b8:7f:a1:3c:3e:a5:a5:8e:4c:52:77:26:
                    c2:50:6a:05:5c:a3:a5:e2:ba:f8:bf:43:62:1f:3a:
                    0a:32:1d:11:3b:db:44:b0:60:8c:36:b3:2f:65:ad:
                    9b:20:d8:9c:73:fa:7e:f6:5e:0e:03:0d:bf:b4:79:
                    42:c0:9b:40:8a:84:96:50:f3:6c:01:9e:eb:5b:2a:
                    07:36:42:94:b7:df:6c:a1:e6:53:1d:f2:43:68:a3:
                    2b:b9:c6:33:7d:01:ee:2c:71:f7:3a:42:45:1f:f5:
                    68:3f:0c:ac:3b:d5:cb:44:b3:b3:49:f0:05:be:e3:
                    e5:5c:14:5a:c2:d6:6d:8f:0e:96:14:19:d3:36:57:
                    ad:f3:47:01:30:68:48:fd:68:c4:e4:b4:65:a6:45:
                    ba:58:cd:cb:3d:5b:4a:e2:72:dc:52:f9:22:76:6a:
                    ba:0a:f5:39:51:3d:fa:47:57:60:fb:03:24:2c:0e:
                    87:b6:d1:89:b2:5f:4f:2e:82:aa:c7:d8:9c:45:08:
                    d9:c8:74:f0:ab:09:eb:9d:48:69:35:00:19:a4:fa:
                    20:ad:20:46:20:f5:12:f4:e8:28:fb:50:c3:e0:e9:
                    e9:45:f0:4b:0a:1d:37:84:db:fa:d2:7f:44:a6:f8:
                    47:e4:c2:32:94:ea:dd:16:0e:ea:de:7f:da:66:fb:
                    d2:c5:eb:f2:1f:de:ad:46:14:63:97:29:f3:15:e2:
                    f9:6a:78:31:1d:91:81:a2:fb:a2:31:81:48:8f:3b:
                    8d:01:66:73:47:08:d9:8c:6e:fe:3d:ad:65:e4:cf:
                    a3:0f:80:04:db:b9:fe:50:c2:e8:25:2d:24:60:3d:
                    80:bd:e4:0a:ee:27:b4:ee:03:69:f3:e0:2b:18:3b:
                    4c:6f:0c:d6:b7:eb:d4:43:80:73:e2:05:89:c3:79:
                    5a:8f:62:e2:5d:0c:38:32:b0:a0:e5:0d:21:f8:5c:
                    af:a0:b2:d2:e6:06:b0:3b:83:a3:fb:61:26:64:39:
                    0d:ce:85:d8:ca:3a:fa:ad:e0:ca:60:56:5a:31:d1:
                    85:fd:a9
                Exponent: 65537 (0x10001)
        X509v3 extensions:
            X509v3 Basic Constraints: 
                CA:FALSE
            Netscape Comment: 
                Easy-RSA Generated Certificate
            X509v3 Subject Key Identifier: 
                11:50:6C:41:1F:FE:69:01:1B:DA:01:29:75:2A:77:8E:79:D2:CE:D1
            X509v3 Authority Key Identifier: 
                keyid:EF:38:8D:14:50:58:A7:5B:4D:9C:17:72:FC:DF:B9:AC:A7:51:B0:10
                DirName:/C=US/ST=CA/L=SanFrancisco/O=Pixglo, Inc./OU=VPN-CIE/CN=tunnel.pixglo.com/name=Bala Chandrasekaran/emailAddress=bala@pixglo.com
                serial:A6:DB:C6:83:80:E6:A0:79

            X509v3 Extended Key Usage: 
                TLS Web Client Authentication
            X509v3 Key Usage: 
                Digital Signature
    Signature Algorithm: sha1WithRSAEncryption
         4b:27:fa:a5:9c:a9:89:36:4f:99:6b:06:15:36:bb:db:73:ba:
         3b:bf:78:a3:9a:6d:88:cd:97:d1:13:44:7f:03:ad:a3:15:81:
         3e:92:24:70:0b:64:c0:40:1c:aa:e9:88:9e:49:40:3d:6c:c0:
         07:e8:3b:d0:56:80:b3:d7:ee:fc:af:d5:84:9b:7f:87:c2:c7:
         c7:43:bd:c4:8f:62:bb:0d:48:09:16:27:e8:e0:cd:e1:38:38:
         6e:1e:a1:01:af:08:54:a3:85:58:bf:d2:72:6f:31:12:fa:e5:
         59:ae:ae:17:c4:ec:18:22:21:f9:51:b2:c4:ad:85:05:9f:f1:
         df:af:38:0e:bf:9d:f6:2b:c7:73:b1:96:07:ff:18:5d:95:4e:
         1c:62:25:50:31:da:db:98:8b:4e:b2:5c:01:1a:57:fd:dd:dc:
         9e:6a:55:91:fc:89:61:df:3e:92:1d:a1:56:67:20:41:d7:c2:
         9f:9a:70:6c:92:75:8c:00:33:3a:ed:81:93:64:0f:9e:ba:4b:
         44:87:ed:38:1d:b7:f2:8b:47:b4:7b:df:67:a1:0d:0a:b0:7c:
         db:f7:d2:9e:7e:e0:ed:42:22:64:ca:3f:0b:42:dd:4c:4b:bf:
         02:5b:51:23:29:ef:d5:6b:f5:8c:14:f1:99:6e:93:52:27:b8:
         cd:07:bc:80:ab:18:be:3d:2c:e9:0d:ba:f7:e8:ce:2a:c2:bc:
         98:15:cf:1c:55:19:29:49:c3:d9:63:19:d3:19:f5:02:57:db:
         90:96:dc:d2:72:31:bb:31:57:89:84:d1:ee:53:47:e6:5e:4a:
         75:3c:44:df:e9:48:bd:3b:7c:77:c5:31:9d:da:5e:82:d3:aa:
         3e:0b:b5:0a:00:23:c2:83:d6:74:a9:17:ec:da:11:fc:f9:c2:
         cd:e9:c2:69:b9:6e:ce:19:ed:0a:06:b7:42:31:d0:02:ef:c8:
         4c:6d:66:ee:d5:97:08:c3:1c:d4:1c:0b:e5:05:4f:6a:59:e2:
         d0:96:d3:05:e3:b6:3b:21:a5:d0:5d:96:63:d3:0d:5d:af:77:
         d9:54:3a:81:83:ef:28:8b:60:b2:e5:46:00:27:9d:0f:98:20:
         ca:6e:a6:7c:74:bb:97:ee:c4:a1:61:5a:27:b8:fd:e9:d7:19:
         ca:1f:63:21:a1:c7:44:63:e0:bf:b1:60:7f:11:7a:25:18:c6:
         8c:0c:12:cf:2a:6c:ee:67:78:7a:91:03:57:c8:85:d5:bf:f0:
         30:fa:25:d7:cb:9e:57:38:5e:91:01:69:a7:97:f1:7d:4c:7c:
         61:df:4f:7e:19:fc:c2:e0:b1:5c:6e:6c:a9:81:56:3c:f8:2f:
         5d:a4:bf:a7:a9:df:4a:9f
-----BEGIN CERTIFICATE-----
MIIHSDCCBTCgAwIBAgICASgwDQYJKoZIhvcNAQEFBQAwgbQxCzAJBgNVBAYTAlVT
MQswCQYDVQQIEwJDQTEVMBMGA1UEBxMMU2FuRnJhbmNpc2NvMRUwEwYDVQQKEwxQ
aXhnbG8sIEluYy4xEDAOBgNVBAsTB1ZQTi1DSUUxGjAYBgNVBAMTEXR1bm5lbC5w
aXhnbG8uY29tMRwwGgYDVQQpExNCYWxhIENoYW5kcmFzZWthcmFuMR4wHAYJKoZI
hvcNAQkBFg9iYWxhQHBpeGdsby5jb20wHhcNMTgwMjE0MDYyOTU3WhcNMjgwMjEy
MDYyOTU3WjCBqTELMAkGA1UEBhMCVVMxCzAJBgNVBAgTAkNBMRUwEwYDVQQHEwxT
YW5GcmFuY2lzY28xFTATBgNVBAoTDFBpeGdsbywgSW5jLjEQMA4GA1UECxMHVlBO
LUNJRTEPMA0GA1UEAxMGY2llMjk1MRwwGgYDVQQpExNCYWxhIENoYW5kcmFzZWth
cmFuMR4wHAYJKoZIhvcNAQkBFg9iYWxhQHBpeGdsby5jb20wggIiMA0GCSqGSIb3
DQEBAQUAA4ICDwAwggIKAoICAQCxkXS66+WxWOy7ZpDw3zBjfFJ6CA2MlA4iljOH
h5UEq5ibp9oXclAbfGe4qhbS5Idf654UIizJgaqPYX4w4TAFZ1/lljDBUZH7p2Ks
vkOdagfy1m51OrC7vFaznPfNzrijwAzXHiai+jHIQghXgTEWQ8qNG8PuCCm2U7h/
oTw+paWOTFJ3JsJQagVco6Xiuvi/Q2IfOgoyHRE720SwYIw2sy9lrZsg2Jxz+n72
Xg4DDb+0eULAm0CKhJZQ82wBnutbKgc2QpS332yh5lMd8kNooyu5xjN9Ae4scfc6
QkUf9Wg/DKw71ctEs7NJ8AW+4+VcFFrC1m2PDpYUGdM2V63zRwEwaEj9aMTktGWm
RbpYzcs9W0rictxS+SJ2aroK9TlRPfpHV2D7AyQsDoe20YmyX08ugqrH2JxFCNnI
dPCrCeudSGk1ABmk+iCtIEYg9RL06Cj7UMPg6elF8EsKHTeE2/rSf0Sm+EfkwjKU
6t0WDuref9pm+9LF6/If3q1GFGOXKfMV4vlqeDEdkYGi+6IxgUiPO40BZnNHCNmM
bv49rWXkz6MPgATbuf5QwuglLSRgPYC95AruJ7TuA2nz4CsYO0xvDNa369RDgHPi
BYnDeVqPYuJdDDgysKDlDSH4XK+gstLmBrA7g6P7YSZkOQ3OhdjKOvqt4MpgVlox
0YX9qQIDAQABo4IBazCCAWcwCQYDVR0TBAIwADAtBglghkgBhvhCAQ0EIBYeRWFz
eS1SU0EgR2VuZXJhdGVkIENlcnRpZmljYXRlMB0GA1UdDgQWBBQRUGxBH/5pARva
ASl1KneOedLO0TCB6QYDVR0jBIHhMIHegBTvOI0UUFinW02cF3L837msp1GwEKGB
uqSBtzCBtDELMAkGA1UEBhMCVVMxCzAJBgNVBAgTAkNBMRUwEwYDVQQHEwxTYW5G
cmFuY2lzY28xFTATBgNVBAoTDFBpeGdsbywgSW5jLjEQMA4GA1UECxMHVlBOLUNJ
RTEaMBgGA1UEAxMRdHVubmVsLnBpeGdsby5jb20xHDAaBgNVBCkTE0JhbGEgQ2hh
bmRyYXNla2FyYW4xHjAcBgkqhkiG9w0BCQEWD2JhbGFAcGl4Z2xvLmNvbYIJAKbb
xoOA5qB5MBMGA1UdJQQMMAoGCCsGAQUFBwMCMAsGA1UdDwQEAwIHgDANBgkqhkiG
9w0BAQUFAAOCAgEASyf6pZypiTZPmWsGFTa723O6O794o5ptiM2X0RNEfwOtoxWB
PpIkcAtkwEAcqumInklAPWzAB+g70FaAs9fu/K/VhJt/h8LHx0O9xI9iuw1ICRYn
6ODN4Tg4bh6hAa8IVKOFWL/Scm8xEvrlWa6uF8TsGCIh+VGyxK2FBZ/x3684Dr+d
9ivHc7GWB/8YXZVOHGIlUDHa25iLTrJcARpX/d3cnmpVkfyJYd8+kh2hVmcgQdfC
n5pwbJJ1jAAzOu2Bk2QPnrpLRIftOB238otHtHvfZ6ENCrB82/fSnn7g7UIiZMo/
C0LdTEu/AltRIynv1Wv1jBTxmW6TUie4zQe8gKsYvj0s6Q269+jOKsK8mBXPHFUZ
KUnD2WMZ0xn1AlfbkJbc0nIxuzFXiYTR7lNH5l5KdTxE3+lIvTt8d8UxndpegtOq
Pgu1CgAjwoPWdKkX7NoR/PnCzenCabluzhntCga3QjHQAu/ITG1m7tWXCMMc1BwL
5QVPalni0JbTBeO2OyGl0F2WY9MNXa932VQ6gYPvKItgsuVGACedD5ggym6mfHS7
l+7EoWFaJ7j96dcZyh9jIaHHRGPgv7FgfxF6JRjGjAwSzyps7md4epEDV8iF1b/w
MPol18ueVzhekQFpp5fxfUx8Yd9Pfhn8wuCxXG5sqYFWPPgvXaS/p6nfSp8=
-----END CERTIFICATE-----
