Certificate:
    Data:
        Version: 3 (0x2)
        Serial Number: 297 (0x129)
    Signature Algorithm: sha1WithRSAEncryption
        Issuer: C=US, ST=CA, L=SanFrancisco, O=Pixglo, Inc., OU=VPN-CIE, CN=tunnel.pixglo.com/name=Bala Chandrasekaran/emailAddress=bala@pixglo.com
        Validity
            Not Before: Feb 14 06:29:58 2018 GMT
            Not After : Feb 12 06:29:58 2028 GMT
        Subject: C=US, ST=CA, L=SanFrancisco, O=Pixglo, Inc., OU=VPN-CIE, CN=cie296/name=Bala Chandrasekaran/emailAddress=bala@pixglo.com
        Subject Public Key Info:
            Public Key Algorithm: rsaEncryption
                Public-Key: (4096 bit)
                Modulus:
                    00:d8:27:83:28:39:92:88:0c:af:68:86:27:cf:c2:
                    8e:46:f6:46:1e:a0:b2:25:b7:c7:69:13:4a:db:dd:
                    1c:31:ca:2b:9d:6d:8a:c4:01:10:6e:0b:0b:f9:8d:
                    b7:90:62:c6:89:d9:44:35:7b:63:03:d8:96:b2:79:
                    f3:44:db:24:da:14:ff:09:8b:61:09:ce:21:ed:ac:
                    c0:35:c8:a3:eb:bb:4c:49:34:fe:2d:af:59:bd:56:
                    9f:40:00:e6:93:7f:0a:c7:ee:0d:df:d6:bc:b6:aa:
                    ed:4d:3e:d9:0d:27:50:03:10:de:fa:9c:90:b9:37:
                    8e:93:72:25:4d:a1:1d:a4:09:b1:a8:9c:1f:78:32:
                    bc:75:37:47:14:d0:13:49:31:19:f2:d8:6a:31:05:
                    e6:25:b4:ba:e8:4e:c2:33:83:c4:9c:9e:a1:6f:f3:
                    cd:fb:d1:8d:49:ae:77:16:2d:8e:77:1f:39:1e:60:
                    49:46:76:26:5e:47:ce:77:20:c8:cb:c2:49:aa:5c:
                    b1:d7:9e:35:5f:b6:e7:a5:bf:02:58:12:97:cf:86:
                    b3:3b:68:9d:a2:bb:0d:cf:45:8d:11:a0:7f:50:15:
                    c9:87:45:5e:ff:d0:41:8d:bd:78:8d:49:9d:ac:44:
                    02:7a:b4:42:16:b0:bb:6a:0e:31:7f:9c:b1:39:ea:
                    8e:51:13:f3:0a:e5:60:39:40:c1:10:7a:43:33:6c:
                    70:bf:cd:db:b3:6e:2b:b7:33:42:dd:1f:97:97:8e:
                    bf:d1:76:6d:73:23:b2:f0:41:15:ca:8f:a0:34:ad:
                    2a:cd:21:ee:de:8e:f2:ba:85:94:a2:4d:38:81:82:
                    09:25:94:6e:65:69:ae:40:d4:57:7a:e3:04:77:a9:
                    37:a8:c5:bf:bf:a8:7e:94:e4:84:25:3c:c1:df:c1:
                    79:9b:69:bf:f9:a9:80:ff:f1:03:f5:aa:a2:8a:3b:
                    90:e2:0d:b7:61:46:ab:96:84:47:b7:20:71:d1:ba:
                    58:f2:6e:38:a0:dd:2f:40:07:15:e1:98:f2:6c:0e:
                    84:31:3a:79:a0:29:0a:79:92:01:6d:eb:25:96:57:
                    52:3b:2a:40:0a:a6:c6:82:16:52:c3:a6:62:40:2c:
                    9a:aa:8c:b2:63:bf:86:c3:25:4c:4b:3c:0d:c3:25:
                    28:e8:01:b0:c9:70:38:1c:80:01:3d:a8:81:ef:2c:
                    49:ea:42:a1:e2:b0:20:39:67:d4:0a:46:db:e1:7f:
                    0e:82:63:97:49:23:ca:e1:09:01:17:1b:7a:39:31:
                    4a:20:10:a0:f8:44:94:89:77:39:d1:9d:c4:f5:c1:
                    9e:02:25:e0:19:0e:37:4a:53:26:89:84:46:80:e6:
                    f6:0d:0b
                Exponent: 65537 (0x10001)
        X509v3 extensions:
            X509v3 Basic Constraints: 
                CA:FALSE
            Netscape Comment: 
                Easy-RSA Generated Certificate
            X509v3 Subject Key Identifier: 
                5D:B2:30:5E:09:FA:80:02:C3:5B:95:18:38:FF:11:9C:ED:3C:69:FA
            X509v3 Authority Key Identifier: 
                keyid:EF:38:8D:14:50:58:A7:5B:4D:9C:17:72:FC:DF:B9:AC:A7:51:B0:10
                DirName:/C=US/ST=CA/L=SanFrancisco/O=Pixglo, Inc./OU=VPN-CIE/CN=tunnel.pixglo.com/name=Bala Chandrasekaran/emailAddress=bala@pixglo.com
                serial:A6:DB:C6:83:80:E6:A0:79

            X509v3 Extended Key Usage: 
                TLS Web Client Authentication
            X509v3 Key Usage: 
                Digital Signature
    Signature Algorithm: sha1WithRSAEncryption
         d3:3b:65:f4:34:5a:96:4a:98:57:50:70:5b:1a:1c:94:f8:9b:
         d2:6c:38:b9:4f:8a:76:44:46:74:74:39:57:7d:b8:a5:f2:08:
         8e:d3:18:c4:ad:68:d1:ba:99:34:42:19:3a:bd:05:00:fe:5d:
         7b:84:22:4e:00:60:48:32:fc:a1:ef:59:d1:61:51:a2:37:65:
         13:6f:42:44:65:94:54:b6:7e:26:69:f1:6d:d0:9c:62:59:76:
         9e:1b:7b:40:ea:1e:6d:68:6b:4b:11:56:12:12:0e:15:b0:8f:
         ab:a2:2a:3c:f0:c5:28:53:d5:b3:a7:d2:01:79:f6:66:eb:a3:
         f8:05:aa:01:ee:09:69:e1:04:84:4a:ee:6b:28:db:81:c3:a9:
         3c:7b:da:10:13:59:19:ea:4a:3f:1c:af:ef:55:34:3c:87:94:
         70:57:70:dd:46:55:f8:7d:5b:a2:c1:ca:89:f9:cd:e0:20:86:
         8e:e6:f8:14:43:2d:f3:e0:16:ac:b9:77:de:4d:f9:ca:ab:de:
         fa:3e:7b:c7:11:ef:13:e8:52:f0:51:b2:8e:3e:ac:4b:00:c6:
         d8:f6:44:ac:11:4b:ee:af:85:fc:b9:c3:ff:bb:15:31:99:61:
         b3:34:65:1d:fe:b7:04:e2:22:24:58:f9:89:0a:1f:3b:43:a4:
         13:98:ec:34:f9:95:45:d4:8e:0e:fc:de:42:dd:f3:14:e1:fb:
         1c:b0:74:15:53:bf:20:8d:63:57:14:00:cc:9d:5d:62:7c:dc:
         a7:03:79:a2:a1:1a:2b:aa:05:6d:ab:5e:4d:8b:bf:2b:b5:45:
         08:34:13:9c:34:2e:cf:97:94:6c:7d:9b:e5:5d:bd:99:26:77:
         c9:f9:ff:8e:a4:60:6f:d6:4c:1c:3e:84:4f:e5:55:71:51:c6:
         8d:8c:bb:26:a5:72:36:60:e9:24:d5:f0:16:3a:ed:17:17:3d:
         b1:e7:40:d5:87:2e:f6:13:9e:dd:69:29:ce:90:ea:07:b2:a4:
         4e:5e:2b:1f:32:c7:e6:cb:ee:fe:8b:f9:d4:6a:ce:47:1b:c6:
         58:54:f8:c1:ba:11:b7:f8:08:c9:24:91:9e:e6:b9:b0:ac:9c:
         d4:a3:55:23:66:db:1b:4c:64:04:63:c9:1b:d6:f2:f5:c1:41:
         36:28:a7:39:61:34:80:31:32:65:37:4d:c3:38:d4:b4:55:10:
         2b:f0:ef:56:90:d6:75:aa:1b:4c:03:ca:ca:b9:01:d3:18:b9:
         e7:17:3a:a9:34:14:36:5a:8a:34:14:31:cf:cf:d6:37:aa:0b:
         4d:fa:fc:66:05:e7:c0:ee:aa:68:40:c3:72:53:24:85:a0:c4:
         97:f0:51:b8:f9:c8:29:c4
-----BEGIN CERTIFICATE-----
MIIHSDCCBTCgAwIBAgICASkwDQYJKoZIhvcNAQEFBQAwgbQxCzAJBgNVBAYTAlVT
MQswCQYDVQQIEwJDQTEVMBMGA1UEBxMMU2FuRnJhbmNpc2NvMRUwEwYDVQQKEwxQ
aXhnbG8sIEluYy4xEDAOBgNVBAsTB1ZQTi1DSUUxGjAYBgNVBAMTEXR1bm5lbC5w
aXhnbG8uY29tMRwwGgYDVQQpExNCYWxhIENoYW5kcmFzZWthcmFuMR4wHAYJKoZI
hvcNAQkBFg9iYWxhQHBpeGdsby5jb20wHhcNMTgwMjE0MDYyOTU4WhcNMjgwMjEy
MDYyOTU4WjCBqTELMAkGA1UEBhMCVVMxCzAJBgNVBAgTAkNBMRUwEwYDVQQHEwxT
YW5GcmFuY2lzY28xFTATBgNVBAoTDFBpeGdsbywgSW5jLjEQMA4GA1UECxMHVlBO
LUNJRTEPMA0GA1UEAxMGY2llMjk2MRwwGgYDVQQpExNCYWxhIENoYW5kcmFzZWth
cmFuMR4wHAYJKoZIhvcNAQkBFg9iYWxhQHBpeGdsby5jb20wggIiMA0GCSqGSIb3
DQEBAQUAA4ICDwAwggIKAoICAQDYJ4MoOZKIDK9ohifPwo5G9kYeoLIlt8dpE0rb
3RwxyiudbYrEARBuCwv5jbeQYsaJ2UQ1e2MD2JayefNE2yTaFP8Ji2EJziHtrMA1
yKPru0xJNP4tr1m9Vp9AAOaTfwrH7g3f1ry2qu1NPtkNJ1ADEN76nJC5N46TciVN
oR2kCbGonB94Mrx1N0cU0BNJMRny2GoxBeYltLroTsIzg8ScnqFv88370Y1JrncW
LY53HzkeYElGdiZeR853IMjLwkmqXLHXnjVftuelvwJYEpfPhrM7aJ2iuw3PRY0R
oH9QFcmHRV7/0EGNvXiNSZ2sRAJ6tEIWsLtqDjF/nLE56o5RE/MK5WA5QMEQekMz
bHC/zduzbiu3M0LdH5eXjr/Rdm1zI7LwQRXKj6A0rSrNIe7ejvK6hZSiTTiBggkl
lG5laa5A1Fd64wR3qTeoxb+/qH6U5IQlPMHfwXmbab/5qYD/8QP1qqKKO5DiDbdh
RquWhEe3IHHRuljybjig3S9ABxXhmPJsDoQxOnmgKQp5kgFt6yWWV1I7KkAKpsaC
FlLDpmJALJqqjLJjv4bDJUxLPA3DJSjoAbDJcDgcgAE9qIHvLEnqQqHisCA5Z9QK
Rtvhfw6CY5dJI8rhCQEXG3o5MUogEKD4RJSJdznRncT1wZ4CJeAZDjdKUyaJhEaA
5vYNCwIDAQABo4IBazCCAWcwCQYDVR0TBAIwADAtBglghkgBhvhCAQ0EIBYeRWFz
eS1SU0EgR2VuZXJhdGVkIENlcnRpZmljYXRlMB0GA1UdDgQWBBRdsjBeCfqAAsNb
lRg4/xGc7Txp+jCB6QYDVR0jBIHhMIHegBTvOI0UUFinW02cF3L837msp1GwEKGB
uqSBtzCBtDELMAkGA1UEBhMCVVMxCzAJBgNVBAgTAkNBMRUwEwYDVQQHEwxTYW5G
cmFuY2lzY28xFTATBgNVBAoTDFBpeGdsbywgSW5jLjEQMA4GA1UECxMHVlBOLUNJ
RTEaMBgGA1UEAxMRdHVubmVsLnBpeGdsby5jb20xHDAaBgNVBCkTE0JhbGEgQ2hh
bmRyYXNla2FyYW4xHjAcBgkqhkiG9w0BCQEWD2JhbGFAcGl4Z2xvLmNvbYIJAKbb
xoOA5qB5MBMGA1UdJQQMMAoGCCsGAQUFBwMCMAsGA1UdDwQEAwIHgDANBgkqhkiG
9w0BAQUFAAOCAgEA0ztl9DRalkqYV1BwWxoclPib0mw4uU+KdkRGdHQ5V324pfII
jtMYxK1o0bqZNEIZOr0FAP5de4QiTgBgSDL8oe9Z0WFRojdlE29CRGWUVLZ+Jmnx
bdCcYll2nht7QOoebWhrSxFWEhIOFbCPq6IqPPDFKFPVs6fSAXn2Zuuj+AWqAe4J
aeEEhEruayjbgcOpPHvaEBNZGepKPxyv71U0PIeUcFdw3UZV+H1bosHKifnN4CCG
jub4FEMt8+AWrLl33k35yqve+j57xxHvE+hS8FGyjj6sSwDG2PZErBFL7q+F/LnD
/7sVMZlhszRlHf63BOIiJFj5iQofO0OkE5jsNPmVRdSODvzeQt3zFOH7HLB0FVO/
II1jVxQAzJ1dYnzcpwN5oqEaK6oFbateTYu/K7VFCDQTnDQuz5eUbH2b5V29mSZ3
yfn/jqRgb9ZMHD6ET+VVcVHGjYy7JqVyNmDpJNXwFjrtFxc9sedA1Ycu9hOe3Wkp
zpDqB7KkTl4rHzLH5svu/ov51GrORxvGWFT4wboRt/gIySSRnua5sKyc1KNVI2bb
G0xkBGPJG9by9cFBNiinOWE0gDEyZTdNwzjUtFUQK/DvVpDWdaobTAPKyrkB0xi5
5xc6qTQUNlqKNBQxz8/WN6oLTfr8ZgXnwO6qaEDDclMkhaDEl/BRuPnIKcQ=
-----END CERTIFICATE-----
