Certificate:
    Data:
        Version: 3 (0x2)
        Serial Number: 298 (0x12a)
    Signature Algorithm: sha1WithRSAEncryption
        Issuer: C=US, ST=CA, L=SanFrancisco, O=Pixglo, Inc., OU=VPN-CIE, CN=tunnel.pixglo.com/name=Bala Chandrasekaran/emailAddress=bala@pixglo.com
        Validity
            Not Before: Feb 14 06:29:58 2018 GMT
            Not After : Feb 12 06:29:58 2028 GMT
        Subject: C=US, ST=CA, L=SanFrancisco, O=Pixglo, Inc., OU=VPN-CIE, CN=cie297/name=Bala Chandrasekaran/emailAddress=bala@pixglo.com
        Subject Public Key Info:
            Public Key Algorithm: rsaEncryption
                Public-Key: (4096 bit)
                Modulus:
                    00:b8:0f:63:8d:85:58:ea:ab:02:7d:e5:91:0e:6c:
                    d3:8e:e1:77:8d:7a:56:f2:0e:ed:f1:aa:3e:3d:bc:
                    ce:9c:5d:13:0d:15:aa:78:23:84:6b:b5:50:2e:4c:
                    ba:e5:27:d9:ad:94:18:b1:8a:a4:d1:f9:7a:36:e9:
                    3a:e8:52:0e:17:2b:65:57:57:b8:d3:c2:83:05:aa:
                    b7:0b:d7:75:0c:89:b2:eb:20:1d:3a:65:64:fe:03:
                    4c:c5:4d:c3:1d:43:45:ea:97:03:e3:a0:e5:ca:06:
                    97:d1:ec:3f:e6:6b:8d:3d:71:d1:01:6a:4c:35:ae:
                    e8:c4:97:8d:f3:d9:c7:f7:11:61:71:0c:58:12:f2:
                    06:9b:24:a2:eb:3e:13:58:eb:e8:88:1e:2e:3f:81:
                    29:4b:5e:9a:c9:a8:47:a7:51:66:c6:ca:0d:3b:2c:
                    e7:d4:17:74:c3:58:98:b0:88:c1:9b:dd:00:ea:3e:
                    32:d4:5e:b9:a1:d6:90:92:23:d8:eb:bf:67:03:da:
                    89:e5:08:5f:dd:6f:20:4a:48:51:51:b3:de:98:09:
                    a8:6a:87:98:06:9d:f7:69:7e:68:45:2b:b5:d5:03:
                    51:b7:71:f4:7f:f8:ca:97:3b:08:39:ad:7a:0d:c5:
                    f7:c3:4d:8e:f5:ea:26:c5:f7:70:d5:38:c0:b1:09:
                    ed:f3:49:1d:ba:fd:d5:96:28:03:12:a1:01:a3:ec:
                    7f:4c:c6:69:58:d9:0a:9a:53:c4:97:ac:84:02:42:
                    d5:80:4e:9f:89:fe:47:40:a4:08:71:d9:8b:4c:8d:
                    c7:6f:2a:f8:61:6d:84:a1:c1:e6:ec:84:3e:9a:e8:
                    dc:bb:2a:f1:e5:90:f9:4c:c9:9d:b0:53:1d:38:d7:
                    84:09:55:07:43:73:bf:07:4e:bf:0f:fa:fa:fa:48:
                    70:ef:e3:ae:67:c7:0c:68:6b:95:2f:1d:81:7e:82:
                    7a:9b:1b:64:32:8f:d4:7a:4e:b4:d8:e3:69:f0:ca:
                    d6:29:ab:53:8f:dd:35:9b:2a:22:6e:be:ca:06:8e:
                    0b:8f:5c:bf:a6:e2:a3:0e:e2:55:fb:99:a1:23:6d:
                    7b:ef:f1:81:b0:e4:74:65:54:7a:cb:43:10:39:c5:
                    cf:f9:d5:1d:81:62:db:54:68:71:32:43:01:fa:ba:
                    11:38:58:70:55:d3:7c:be:2b:0e:38:23:40:9d:09:
                    2b:c7:5f:22:97:e8:2d:40:62:f6:f6:e2:eb:ef:51:
                    ac:55:2b:d9:ba:a9:15:da:e4:58:1a:c0:28:cb:7d:
                    46:c3:01:91:ac:b7:d2:e8:2c:3f:79:d0:fd:4e:35:
                    ef:7f:06:84:d5:eb:b9:d2:76:44:39:4a:9e:2b:8c:
                    d9:b9:4f
                Exponent: 65537 (0x10001)
        X509v3 extensions:
            X509v3 Basic Constraints: 
                CA:FALSE
            Netscape Comment: 
                Easy-RSA Generated Certificate
            X509v3 Subject Key Identifier: 
                03:88:CA:C7:7E:BA:8F:8C:FA:16:18:D8:1F:81:7C:DE:7A:21:0F:C5
            X509v3 Authority Key Identifier: 
                keyid:EF:38:8D:14:50:58:A7:5B:4D:9C:17:72:FC:DF:B9:AC:A7:51:B0:10
                DirName:/C=US/ST=CA/L=SanFrancisco/O=Pixglo, Inc./OU=VPN-CIE/CN=tunnel.pixglo.com/name=Bala Chandrasekaran/emailAddress=bala@pixglo.com
                serial:A6:DB:C6:83:80:E6:A0:79

            X509v3 Extended Key Usage: 
                TLS Web Client Authentication
            X509v3 Key Usage: 
                Digital Signature
    Signature Algorithm: sha1WithRSAEncryption
         7a:d2:5e:38:54:89:d5:0d:02:d2:d2:c7:7f:36:2d:7d:6e:db:
         21:dc:0c:5d:c8:89:fb:64:4d:bd:6f:eb:ad:71:34:5d:33:ee:
         20:95:12:fb:81:51:00:7b:67:09:67:01:3a:b3:bc:e8:4f:59:
         ab:af:e4:cb:be:ce:c4:61:e4:e0:9e:93:8d:41:4d:5f:2b:97:
         c9:1c:b3:8f:61:14:8f:a4:e9:0d:b3:e3:1f:d7:56:a2:5b:68:
         57:fb:80:1b:52:b7:8b:e3:64:ed:35:eb:fb:f4:ec:48:7a:f7:
         d7:36:5e:f6:76:1c:f6:3c:32:c2:b5:ff:5b:8e:d8:6e:64:b6:
         ff:22:57:d4:24:f5:22:47:dc:ba:df:45:8c:5b:9f:c8:bc:50:
         4f:41:18:79:c8:49:35:0b:32:cb:7e:91:37:a8:bc:a5:46:79:
         c1:96:6d:92:90:75:9f:b6:63:a7:fb:29:0c:f4:5e:39:c9:76:
         6b:ff:7a:f1:3c:c5:81:e8:0f:e7:7e:2e:e9:3a:68:e8:a9:75:
         52:a6:04:60:18:fb:52:ec:0f:9c:d6:f4:ef:4b:9f:f5:8f:44:
         c3:82:ce:c6:c3:b6:3c:72:4b:39:4f:62:74:96:bd:35:00:48:
         b9:77:d2:60:84:02:c9:81:1b:4d:02:ea:3c:49:36:36:3d:4f:
         4e:2e:39:d7:cb:41:93:6b:6e:5b:51:08:84:10:5c:85:57:50:
         9d:64:02:69:36:86:e9:89:5b:59:60:e4:fd:a5:47:d7:35:d5:
         7d:62:74:2e:f8:b3:34:58:7e:a1:d7:87:e8:8b:03:d9:d0:03:
         6a:55:12:80:27:64:80:f5:a7:77:d1:31:d2:d6:dc:3f:52:17:
         8f:3e:35:55:11:68:4a:8b:98:3b:b3:da:3a:75:41:99:4a:28:
         f4:9f:f9:94:e1:48:8a:12:6a:07:3a:ae:a3:65:86:20:72:f7:
         47:10:8d:72:07:17:78:06:2f:9e:3e:f1:c2:4b:81:23:b5:1b:
         ce:c0:8d:f4:ab:f4:49:9a:26:de:52:5e:9f:77:e7:d5:e7:1e:
         70:01:bf:3d:fc:5a:6c:c6:b3:96:7b:c7:6c:23:f3:14:3d:cc:
         8d:43:50:62:65:4c:e7:34:09:26:e9:39:ed:99:d6:e5:cb:c6:
         87:16:6a:5c:c1:90:af:a3:cb:f6:31:eb:de:a2:1a:e3:8d:b9:
         6f:d1:64:8b:97:6e:c9:d3:75:37:ce:29:31:d0:f1:27:49:71:
         d3:0b:a4:41:21:e8:58:10:c2:e7:6a:3a:e9:f6:d1:8c:9e:ca:
         c0:11:34:0d:a8:31:c6:4e:a6:7f:0d:42:16:d6:eb:5b:53:cd:
         8a:69:97:48:bb:60:a0:b3
-----BEGIN CERTIFICATE-----
MIIHSDCCBTCgAwIBAgICASowDQYJKoZIhvcNAQEFBQAwgbQxCzAJBgNVBAYTAlVT
MQswCQYDVQQIEwJDQTEVMBMGA1UEBxMMU2FuRnJhbmNpc2NvMRUwEwYDVQQKEwxQ
aXhnbG8sIEluYy4xEDAOBgNVBAsTB1ZQTi1DSUUxGjAYBgNVBAMTEXR1bm5lbC5w
aXhnbG8uY29tMRwwGgYDVQQpExNCYWxhIENoYW5kcmFzZWthcmFuMR4wHAYJKoZI
hvcNAQkBFg9iYWxhQHBpeGdsby5jb20wHhcNMTgwMjE0MDYyOTU4WhcNMjgwMjEy
MDYyOTU4WjCBqTELMAkGA1UEBhMCVVMxCzAJBgNVBAgTAkNBMRUwEwYDVQQHEwxT
YW5GcmFuY2lzY28xFTATBgNVBAoTDFBpeGdsbywgSW5jLjEQMA4GA1UECxMHVlBO
LUNJRTEPMA0GA1UEAxMGY2llMjk3MRwwGgYDVQQpExNCYWxhIENoYW5kcmFzZWth
cmFuMR4wHAYJKoZIhvcNAQkBFg9iYWxhQHBpeGdsby5jb20wggIiMA0GCSqGSIb3
DQEBAQUAA4ICDwAwggIKAoICAQC4D2ONhVjqqwJ95ZEObNOO4XeNelbyDu3xqj49
vM6cXRMNFap4I4RrtVAuTLrlJ9mtlBixiqTR+Xo26TroUg4XK2VXV7jTwoMFqrcL
13UMibLrIB06ZWT+A0zFTcMdQ0XqlwPjoOXKBpfR7D/ma409cdEBakw1rujEl43z
2cf3EWFxDFgS8gabJKLrPhNY6+iIHi4/gSlLXprJqEenUWbGyg07LOfUF3TDWJiw
iMGb3QDqPjLUXrmh1pCSI9jrv2cD2onlCF/dbyBKSFFRs96YCahqh5gGnfdpfmhF
K7XVA1G3cfR/+MqXOwg5rXoNxffDTY716ibF93DVOMCxCe3zSR26/dWWKAMSoQGj
7H9MxmlY2QqaU8SXrIQCQtWATp+J/kdApAhx2YtMjcdvKvhhbYShwebshD6a6Ny7
KvHlkPlMyZ2wUx0414QJVQdDc78HTr8P+vr6SHDv465nxwxoa5UvHYF+gnqbG2Qy
j9R6TrTY42nwytYpq1OP3TWbKiJuvsoGjguPXL+m4qMO4lX7maEjbXvv8YGw5HRl
VHrLQxA5xc/51R2BYttUaHEyQwH6uhE4WHBV03y+Kw44I0CdCSvHXyKX6C1AYvb2
4uvvUaxVK9m6qRXa5FgawCjLfUbDAZGst9LoLD950P1ONe9/BoTV67nSdkQ5Sp4r
jNm5TwIDAQABo4IBazCCAWcwCQYDVR0TBAIwADAtBglghkgBhvhCAQ0EIBYeRWFz
eS1SU0EgR2VuZXJhdGVkIENlcnRpZmljYXRlMB0GA1UdDgQWBBQDiMrHfrqPjPoW
GNgfgXzeeiEPxTCB6QYDVR0jBIHhMIHegBTvOI0UUFinW02cF3L837msp1GwEKGB
uqSBtzCBtDELMAkGA1UEBhMCVVMxCzAJBgNVBAgTAkNBMRUwEwYDVQQHEwxTYW5G
cmFuY2lzY28xFTATBgNVBAoTDFBpeGdsbywgSW5jLjEQMA4GA1UECxMHVlBOLUNJ
RTEaMBgGA1UEAxMRdHVubmVsLnBpeGdsby5jb20xHDAaBgNVBCkTE0JhbGEgQ2hh
bmRyYXNla2FyYW4xHjAcBgkqhkiG9w0BCQEWD2JhbGFAcGl4Z2xvLmNvbYIJAKbb
xoOA5qB5MBMGA1UdJQQMMAoGCCsGAQUFBwMCMAsGA1UdDwQEAwIHgDANBgkqhkiG
9w0BAQUFAAOCAgEAetJeOFSJ1Q0C0tLHfzYtfW7bIdwMXciJ+2RNvW/rrXE0XTPu
IJUS+4FRAHtnCWcBOrO86E9Zq6/ky77OxGHk4J6TjUFNXyuXyRyzj2EUj6TpDbPj
H9dWoltoV/uAG1K3i+Nk7TXr+/TsSHr31zZe9nYc9jwywrX/W47YbmS2/yJX1CT1
Ikfcut9FjFufyLxQT0EYechJNQsyy36RN6i8pUZ5wZZtkpB1n7Zjp/spDPReOcl2
a/968TzFgegP534u6Tpo6Kl1UqYEYBj7UuwPnNb070uf9Y9Ew4LOxsO2PHJLOU9i
dJa9NQBIuXfSYIQCyYEbTQLqPEk2Nj1PTi4518tBk2tuW1EIhBBchVdQnWQCaTaG
6YlbWWDk/aVH1zXVfWJ0LvizNFh+odeH6IsD2dADalUSgCdkgPWnd9Ex0tbcP1IX
jz41VRFoSouYO7PaOnVBmUoo9J/5lOFIihJqBzquo2WGIHL3RxCNcgcXeAYvnj7x
wkuBI7UbzsCN9Kv0SZom3lJen3fn1ececAG/PfxabMazlnvHbCPzFD3MjUNQYmVM
5zQJJuk57ZnW5cvGhxZqXMGQr6PL9jHr3qIa4425b9Fki5duydN1N84pMdDxJ0lx
0wukQSHoWBDC52o66fbRjJ7KwBE0Dagxxk6mfw1CFtbrW1PNimmXSLtgoLM=
-----END CERTIFICATE-----
