Certificate:
    Data:
        Version: 3 (0x2)
        Serial Number: 299 (0x12b)
    Signature Algorithm: sha1WithRSAEncryption
        Issuer: C=US, ST=CA, L=SanFrancisco, O=Pixglo, Inc., OU=VPN-CIE, CN=tunnel.pixglo.com/name=Bala Chandrasekaran/emailAddress=bala@pixglo.com
        Validity
            Not Before: Feb 14 06:29:59 2018 GMT
            Not After : Feb 12 06:29:59 2028 GMT
        Subject: C=US, ST=CA, L=SanFrancisco, O=Pixglo, Inc., OU=VPN-CIE, CN=cie298/name=Bala Chandrasekaran/emailAddress=bala@pixglo.com
        Subject Public Key Info:
            Public Key Algorithm: rsaEncryption
                Public-Key: (4096 bit)
                Modulus:
                    00:ca:17:06:42:27:21:e8:95:32:20:57:6f:4d:83:
                    6f:16:8a:06:67:63:52:fa:b9:8e:ca:d5:b3:b5:4e:
                    8c:42:7f:aa:d9:55:34:13:d4:e3:dd:1c:fe:de:0a:
                    da:bd:32:38:76:7d:8e:84:7d:3c:3a:a6:58:f5:57:
                    48:06:84:9e:ae:57:5f:80:5e:91:43:7f:1f:de:2d:
                    e6:60:16:65:d8:f7:b5:b2:0c:ca:6e:64:93:4c:74:
                    73:cf:53:3a:3f:b5:55:44:d6:6b:84:41:97:aa:17:
                    17:eb:82:e4:11:3d:53:33:13:a6:e3:bd:24:88:ef:
                    07:a1:07:f9:d4:20:46:da:a4:6b:21:9c:5a:43:26:
                    7e:91:33:76:1b:c0:80:e3:62:26:9a:f2:de:53:d4:
                    24:be:7f:94:9f:a8:05:d3:77:03:e2:ac:b0:b6:1b:
                    42:79:fc:d6:13:ec:4d:87:79:d4:26:9f:fb:2b:74:
                    4a:2d:32:f4:6d:16:52:81:fc:60:ec:5d:07:2d:db:
                    51:77:68:24:5b:76:82:91:a9:73:bd:79:6b:a3:fa:
                    ee:80:c5:82:2b:95:bd:20:eb:52:0c:7f:96:ed:5b:
                    c4:10:d7:57:6b:6b:57:5d:74:37:b3:c3:6a:b7:7a:
                    ff:4e:1f:81:3f:14:d6:ff:8b:66:3b:c4:aa:6d:53:
                    aa:09:7f:71:61:59:f1:97:6d:09:f3:60:e4:5c:55:
                    5d:a3:91:4d:f0:70:18:f0:28:0b:85:3b:d7:28:38:
                    f1:5e:6b:6b:a1:64:4c:d0:61:3a:a1:d9:12:84:d8:
                    91:62:f0:6f:12:c8:63:91:06:d8:e8:b4:61:0f:88:
                    ee:eb:d4:07:b0:fe:33:c9:b6:4b:3f:fc:4f:f3:ca:
                    3e:e3:43:ca:99:da:b1:2f:6c:0d:bd:be:9b:c9:63:
                    92:95:4b:66:4e:fd:1e:7e:46:84:f3:28:fd:26:52:
                    c1:69:49:09:08:00:68:cd:4f:1a:d0:d3:b4:d2:91:
                    56:7c:ce:e7:62:c5:13:40:56:0f:ba:2f:3b:d6:8e:
                    96:ab:02:fa:1a:b8:49:e4:7a:80:16:3b:61:e2:f4:
                    a4:d0:44:b4:51:78:69:b0:bf:31:4e:85:7f:99:2e:
                    31:f7:55:23:8f:6a:38:8b:ad:43:6f:99:6a:7b:9b:
                    d8:3b:31:d8:25:c3:9c:b1:4b:ff:40:fc:93:ab:bf:
                    07:60:95:ce:43:8d:30:17:12:72:8a:b5:2b:ba:8f:
                    f4:48:36:79:23:e6:9f:ba:ee:08:0f:4a:86:6b:d9:
                    ae:80:9f:53:38:a3:7b:3e:0c:20:8f:7f:f0:41:3e:
                    e4:6f:24:68:cf:df:c4:ea:ff:b9:ac:82:96:d8:17:
                    90:a9:d5
                Exponent: 65537 (0x10001)
        X509v3 extensions:
            X509v3 Basic Constraints: 
                CA:FALSE
            Netscape Comment: 
                Easy-RSA Generated Certificate
            X509v3 Subject Key Identifier: 
                D3:65:9D:65:B7:AD:1C:DB:02:CD:52:92:07:16:6C:F8:E7:45:86:FE
            X509v3 Authority Key Identifier: 
                keyid:EF:38:8D:14:50:58:A7:5B:4D:9C:17:72:FC:DF:B9:AC:A7:51:B0:10
                DirName:/C=US/ST=CA/L=SanFrancisco/O=Pixglo, Inc./OU=VPN-CIE/CN=tunnel.pixglo.com/name=Bala Chandrasekaran/emailAddress=bala@pixglo.com
                serial:A6:DB:C6:83:80:E6:A0:79

            X509v3 Extended Key Usage: 
                TLS Web Client Authentication
            X509v3 Key Usage: 
                Digital Signature
    Signature Algorithm: sha1WithRSAEncryption
         ad:fa:c1:70:9c:49:a7:0d:02:45:48:ce:ae:74:94:2e:c3:b6:
         2b:76:ce:3c:66:b6:cd:e3:0c:c7:b2:29:08:5b:53:94:93:68:
         6b:08:d7:77:68:6a:d1:02:4e:ad:80:46:ab:3f:d4:50:24:fb:
         70:1a:79:49:16:6c:41:b1:60:16:34:76:3e:9a:78:7f:ae:e2:
         b5:86:65:5b:2d:f4:5f:bc:8c:33:60:8c:de:db:69:a8:17:96:
         59:f5:02:df:4c:66:16:9a:95:3d:07:93:37:e7:d2:ea:51:a9:
         7e:97:c6:8a:fa:54:b3:b2:79:70:0d:c1:9a:03:a0:ed:b0:82:
         6b:6c:1f:ff:a7:61:6c:12:7d:d0:eb:20:d1:e2:4f:f2:68:38:
         5e:78:ea:37:78:a5:1c:80:b2:12:38:ad:f1:97:25:80:af:3e:
         58:e0:cd:61:d5:00:66:6f:69:87:94:64:77:ee:52:58:18:72:
         e2:96:b4:b5:ce:59:b3:55:bf:b9:e9:bb:2d:16:48:54:00:df:
         9e:78:f1:0e:94:bc:bb:44:d1:80:9c:89:ba:ca:0f:6c:1a:65:
         a6:fa:27:21:cf:d2:2f:48:4e:41:38:f3:79:44:b1:00:14:3d:
         09:5e:1d:51:0d:1e:7a:f7:e5:49:2e:06:da:8c:c5:75:a2:7a:
         61:4e:8c:55:99:7d:ae:c6:c2:7b:01:ef:59:ed:06:fa:84:0e:
         2b:30:95:f7:1c:85:74:c4:e6:94:a9:d6:82:35:71:5a:ab:55:
         d0:2b:14:02:33:ae:ce:a4:ec:95:10:d0:6c:dd:2d:7c:d9:65:
         c4:b3:e6:bb:94:17:cf:2d:46:6a:0f:cf:c0:60:84:af:75:e2:
         8d:22:48:df:a4:96:13:d7:84:be:d1:d1:40:61:99:95:bb:73:
         74:74:a0:54:0e:2c:53:0b:6f:2f:cb:80:98:bd:49:eb:ee:98:
         eb:58:de:ff:e3:fe:49:58:a8:c0:ec:17:c6:04:b5:d9:04:6b:
         df:ec:89:c5:b0:2b:6b:50:67:13:27:36:b9:b4:db:40:36:f0:
         20:23:a2:fc:84:56:2a:92:e3:46:fb:d8:0b:f5:bc:9d:50:e8:
         cb:1a:2a:3f:cd:e6:7a:ae:03:c2:87:82:e5:f4:b6:ac:6e:b1:
         85:88:f3:53:77:60:9f:20:58:77:48:4a:26:eb:30:8a:8c:37:
         bf:bf:32:8f:21:f6:69:da:d6:b7:98:f4:7e:01:b3:9d:95:be:
         5a:fc:f4:4f:e6:f9:f1:ea:07:13:b8:4e:c8:62:9b:bc:7f:b7:
         51:a3:4f:0f:19:51:de:cc:89:1c:8a:cf:f1:57:bc:fe:15:6d:
         9f:d1:32:8a:62:ff:53:0c
-----BEGIN CERTIFICATE-----
MIIHSDCCBTCgAwIBAgICASswDQYJKoZIhvcNAQEFBQAwgbQxCzAJBgNVBAYTAlVT
MQswCQYDVQQIEwJDQTEVMBMGA1UEBxMMU2FuRnJhbmNpc2NvMRUwEwYDVQQKEwxQ
aXhnbG8sIEluYy4xEDAOBgNVBAsTB1ZQTi1DSUUxGjAYBgNVBAMTEXR1bm5lbC5w
aXhnbG8uY29tMRwwGgYDVQQpExNCYWxhIENoYW5kcmFzZWthcmFuMR4wHAYJKoZI
hvcNAQkBFg9iYWxhQHBpeGdsby5jb20wHhcNMTgwMjE0MDYyOTU5WhcNMjgwMjEy
MDYyOTU5WjCBqTELMAkGA1UEBhMCVVMxCzAJBgNVBAgTAkNBMRUwEwYDVQQHEwxT
YW5GcmFuY2lzY28xFTATBgNVBAoTDFBpeGdsbywgSW5jLjEQMA4GA1UECxMHVlBO
LUNJRTEPMA0GA1UEAxMGY2llMjk4MRwwGgYDVQQpExNCYWxhIENoYW5kcmFzZWth
cmFuMR4wHAYJKoZIhvcNAQkBFg9iYWxhQHBpeGdsby5jb20wggIiMA0GCSqGSIb3
DQEBAQUAA4ICDwAwggIKAoICAQDKFwZCJyHolTIgV29Ng28WigZnY1L6uY7K1bO1
ToxCf6rZVTQT1OPdHP7eCtq9Mjh2fY6EfTw6plj1V0gGhJ6uV1+AXpFDfx/eLeZg
FmXY97WyDMpuZJNMdHPPUzo/tVVE1muEQZeqFxfrguQRPVMzE6bjvSSI7wehB/nU
IEbapGshnFpDJn6RM3YbwIDjYiaa8t5T1CS+f5SfqAXTdwPirLC2G0J5/NYT7E2H
edQmn/srdEotMvRtFlKB/GDsXQct21F3aCRbdoKRqXO9eWuj+u6AxYIrlb0g61IM
f5btW8QQ11dra1dddDezw2q3ev9OH4E/FNb/i2Y7xKptU6oJf3FhWfGXbQnzYORc
VV2jkU3wcBjwKAuFO9coOPFea2uhZEzQYTqh2RKE2JFi8G8SyGORBtjotGEPiO7r
1Aew/jPJtks//E/zyj7jQ8qZ2rEvbA29vpvJY5KVS2ZO/R5+RoTzKP0mUsFpSQkI
AGjNTxrQ07TSkVZ8zudixRNAVg+6LzvWjparAvoauEnkeoAWO2Hi9KTQRLRReGmw
vzFOhX+ZLjH3VSOPajiLrUNvmWp7m9g7Mdglw5yxS/9A/JOrvwdglc5DjTAXEnKK
tSu6j/RINnkj5p+67ggPSoZr2a6An1M4o3s+DCCPf/BBPuRvJGjP38Tq/7msgpbY
F5Cp1QIDAQABo4IBazCCAWcwCQYDVR0TBAIwADAtBglghkgBhvhCAQ0EIBYeRWFz
eS1SU0EgR2VuZXJhdGVkIENlcnRpZmljYXRlMB0GA1UdDgQWBBTTZZ1lt60c2wLN
UpIHFmz450WG/jCB6QYDVR0jBIHhMIHegBTvOI0UUFinW02cF3L837msp1GwEKGB
uqSBtzCBtDELMAkGA1UEBhMCVVMxCzAJBgNVBAgTAkNBMRUwEwYDVQQHEwxTYW5G
cmFuY2lzY28xFTATBgNVBAoTDFBpeGdsbywgSW5jLjEQMA4GA1UECxMHVlBOLUNJ
RTEaMBgGA1UEAxMRdHVubmVsLnBpeGdsby5jb20xHDAaBgNVBCkTE0JhbGEgQ2hh
bmRyYXNla2FyYW4xHjAcBgkqhkiG9w0BCQEWD2JhbGFAcGl4Z2xvLmNvbYIJAKbb
xoOA5qB5MBMGA1UdJQQMMAoGCCsGAQUFBwMCMAsGA1UdDwQEAwIHgDANBgkqhkiG
9w0BAQUFAAOCAgEArfrBcJxJpw0CRUjOrnSULsO2K3bOPGa2zeMMx7IpCFtTlJNo
awjXd2hq0QJOrYBGqz/UUCT7cBp5SRZsQbFgFjR2Ppp4f67itYZlWy30X7yMM2CM
3ttpqBeWWfUC30xmFpqVPQeTN+fS6lGpfpfGivpUs7J5cA3BmgOg7bCCa2wf/6dh
bBJ90Osg0eJP8mg4XnjqN3ilHICyEjit8ZclgK8+WODNYdUAZm9ph5Rkd+5SWBhy
4pa0tc5Zs1W/uem7LRZIVADfnnjxDpS8u0TRgJyJusoPbBplpvonIc/SL0hOQTjz
eUSxABQ9CV4dUQ0eevflSS4G2ozFdaJ6YU6MVZl9rsbCewHvWe0G+oQOKzCV9xyF
dMTmlKnWgjVxWqtV0CsUAjOuzqTslRDQbN0tfNllxLPmu5QXzy1Gag/PwGCEr3Xi
jSJI36SWE9eEvtHRQGGZlbtzdHSgVA4sUwtvL8uAmL1J6+6Y61je/+P+SViowOwX
xgS12QRr3+yJxbAra1BnEyc2ubTbQDbwICOi/IRWKpLjRvvYC/W8nVDoyxoqP83m
eq4DwoeC5fS2rG6xhYjzU3dgnyBYd0hKJuswiow3v78yjyH2adrWt5j0fgGznZW+
Wvz0T+b58eoHE7hOyGKbvH+3UaNPDxlR3syJHIrP8Ve8/hVtn9EyimL/Uww=
-----END CERTIFICATE-----
