Certificate:
    Data:
        Version: 3 (0x2)
        Serial Number: 300 (0x12c)
    Signature Algorithm: sha1WithRSAEncryption
        Issuer: C=US, ST=CA, L=SanFrancisco, O=Pixglo, Inc., OU=VPN-CIE, CN=tunnel.pixglo.com/name=Bala Chandrasekaran/emailAddress=bala@pixglo.com
        Validity
            Not Before: Feb 14 06:29:59 2018 GMT
            Not After : Feb 12 06:29:59 2028 GMT
        Subject: C=US, ST=CA, L=SanFrancisco, O=Pixglo, Inc., OU=VPN-CIE, CN=cie299/name=Bala Chandrasekaran/emailAddress=bala@pixglo.com
        Subject Public Key Info:
            Public Key Algorithm: rsaEncryption
                Public-Key: (4096 bit)
                Modulus:
                    00:be:89:ea:d4:64:bf:16:c3:c1:48:da:13:64:73:
                    80:ba:c6:33:7d:d9:29:c0:7c:ec:4c:81:53:6c:f2:
                    16:08:a8:95:fc:b2:80:5e:fe:a3:6b:99:29:8b:12:
                    bd:52:99:e9:f8:38:6c:82:5d:7b:55:cb:c5:bc:5d:
                    01:ce:47:8c:73:b3:b8:d9:c7:06:fa:ec:87:ad:b2:
                    d3:e3:f9:0a:93:96:c1:fc:75:9c:df:8e:21:b0:89:
                    ff:d8:f1:d0:47:35:e0:f1:b6:92:45:2e:b1:9e:00:
                    d8:32:47:0a:67:7a:fd:3b:79:f0:fe:b3:7c:c4:b7:
                    e4:ad:ef:73:74:f0:4f:93:50:77:ba:e2:c8:7a:5c:
                    7b:65:50:ea:28:5e:9d:a4:6c:bc:56:84:62:7c:e3:
                    73:f9:5e:e3:1f:2b:ea:66:51:5b:2d:24:98:fb:e6:
                    be:bc:31:b1:9f:c1:6f:39:52:b2:dd:77:56:07:09:
                    c5:ea:2e:6a:24:80:7b:e0:11:29:af:92:09:f0:46:
                    9e:e6:8c:ae:a7:e1:4d:11:1b:4f:ea:f2:7a:8d:6d:
                    0f:d1:2a:a9:7c:17:71:a8:b6:64:7d:d5:64:ff:75:
                    04:4e:78:9d:fb:3a:02:69:b3:66:89:6b:5c:e7:da:
                    0e:2b:1f:be:32:49:22:2e:aa:c7:71:22:4c:40:98:
                    aa:66:09:14:29:4f:3a:20:d5:20:fa:b9:17:49:b2:
                    62:96:2f:ec:8a:77:e4:57:f7:bf:43:ef:07:9f:3c:
                    a8:93:9e:07:24:38:9c:24:0a:82:5e:27:9e:34:19:
                    fa:91:ab:7b:ed:49:10:bb:b1:a3:a1:0e:58:01:ef:
                    5f:51:57:da:fe:79:4f:e4:15:25:15:2b:50:d5:48:
                    e8:ac:8c:39:46:e9:db:3b:c4:6e:ee:7e:1b:22:11:
                    4b:18:0b:3e:ef:c8:60:76:d5:41:e3:86:ee:64:88:
                    24:23:2a:62:d1:0d:ab:d5:42:59:53:a5:48:b5:e5:
                    3e:46:0f:8b:36:0c:ab:e2:87:bb:b8:76:10:4d:85:
                    ac:66:4d:8c:ef:09:16:bb:fc:4c:21:d1:0f:96:0c:
                    3a:94:33:02:a2:4c:37:8f:70:07:a5:69:73:45:44:
                    37:2c:dc:0f:09:47:79:82:b8:4f:76:b1:d1:71:14:
                    f8:3a:d7:01:e9:5c:86:ad:08:3e:c0:c2:03:a2:47:
                    0a:98:23:50:98:ed:aa:ed:a4:c0:64:37:b8:cb:d8:
                    59:da:fc:77:17:89:30:45:89:f0:0c:dd:1a:0f:9f:
                    5d:58:8e:69:52:d9:ed:79:d6:86:3b:0e:9d:6f:4c:
                    50:33:ef:00:f6:e2:1f:90:c6:73:f4:1c:1d:14:93:
                    c8:c1:d3
                Exponent: 65537 (0x10001)
        X509v3 extensions:
            X509v3 Basic Constraints: 
                CA:FALSE
            Netscape Comment: 
                Easy-RSA Generated Certificate
            X509v3 Subject Key Identifier: 
                24:FD:47:52:DE:61:10:01:63:21:D2:73:98:BA:63:3E:CA:20:19:47
            X509v3 Authority Key Identifier: 
                keyid:EF:38:8D:14:50:58:A7:5B:4D:9C:17:72:FC:DF:B9:AC:A7:51:B0:10
                DirName:/C=US/ST=CA/L=SanFrancisco/O=Pixglo, Inc./OU=VPN-CIE/CN=tunnel.pixglo.com/name=Bala Chandrasekaran/emailAddress=bala@pixglo.com
                serial:A6:DB:C6:83:80:E6:A0:79

            X509v3 Extended Key Usage: 
                TLS Web Client Authentication
            X509v3 Key Usage: 
                Digital Signature
    Signature Algorithm: sha1WithRSAEncryption
         b5:fc:2d:8b:bc:79:91:f6:74:aa:b2:cc:8e:11:05:46:29:31:
         cf:f5:7b:f2:ad:6f:80:7b:22:8a:22:7b:31:5f:13:63:5b:3f:
         af:3a:2f:05:22:e6:4b:59:31:72:f7:40:0d:1d:7b:3b:44:0e:
         49:5a:fd:cc:04:01:78:50:7b:c6:fd:b3:bd:f3:d2:81:33:2f:
         58:14:cb:0c:11:62:d4:75:d8:78:73:89:fc:27:d5:04:79:8a:
         bf:51:8f:6b:8e:49:28:c8:89:07:3e:d6:07:99:58:8a:b8:8e:
         3b:23:be:20:d5:39:5d:7b:5d:bc:43:7b:3f:6a:68:b3:f3:35:
         22:a5:9e:5c:32:09:e1:9f:f5:ea:a5:a0:64:56:f3:fe:af:03:
         8b:c2:32:81:b2:da:ed:94:78:66:f0:c3:21:ee:71:23:dd:49:
         c8:db:87:59:73:90:e4:5b:b8:f4:29:cc:bb:63:29:0f:9e:9f:
         24:30:4d:f9:ef:12:d1:59:58:96:fa:e9:9f:bf:7e:f1:2f:28:
         74:64:d1:cc:44:c8:f5:54:c2:83:10:b6:40:c5:d6:99:83:54:
         d9:17:50:0d:89:c9:f4:7e:8b:02:42:52:3e:20:f6:95:01:3e:
         45:cd:ff:5b:9f:d1:a5:5a:5a:69:c2:6d:ca:a3:15:16:44:ad:
         c0:fd:4c:3d:13:e6:54:7b:dd:d1:bd:79:12:90:1c:37:74:0c:
         12:17:ef:6b:97:88:a9:bf:be:91:a5:dc:87:88:d4:56:8a:b4:
         f4:a9:a8:df:bc:e7:25:61:21:38:2b:c8:0a:1b:f8:77:62:68:
         ff:6d:ea:1d:d0:06:de:36:83:cb:f4:c0:93:1d:6f:66:f1:9f:
         7b:90:3a:69:b3:71:37:a8:83:68:3c:e2:54:60:4a:a1:ad:23:
         8c:19:44:2c:e4:5c:16:a3:db:6a:37:89:ba:c1:d2:cb:9b:ac:
         0b:46:36:dd:e4:ac:9e:7c:90:9f:b4:de:71:d2:d0:0d:67:f6:
         e7:5f:30:64:e3:3c:8c:1e:ca:4d:35:56:53:19:0b:70:19:47:
         03:40:b3:f7:b6:d4:6a:39:90:ba:34:a4:08:40:8b:73:c3:d4:
         c1:92:d1:6c:2b:95:20:16:bb:c4:fa:06:f4:64:da:9c:58:5f:
         91:53:14:0f:73:e4:20:2b:b7:70:f9:ae:ca:7a:05:dc:86:19:
         64:ca:03:26:c0:7f:68:a6:03:cd:fc:7b:cd:54:80:66:dd:b5:
         42:96:b6:2b:c5:cd:51:00:48:4e:72:f8:7a:99:06:f5:b0:f6:
         88:f2:56:70:58:d3:06:75:f6:ee:ba:50:d5:c3:dd:71:1b:7d:
         7c:5f:b2:30:ad:3e:03:ec
-----BEGIN CERTIFICATE-----
MIIHSDCCBTCgAwIBAgICASwwDQYJKoZIhvcNAQEFBQAwgbQxCzAJBgNVBAYTAlVT
MQswCQYDVQQIEwJDQTEVMBMGA1UEBxMMU2FuRnJhbmNpc2NvMRUwEwYDVQQKEwxQ
aXhnbG8sIEluYy4xEDAOBgNVBAsTB1ZQTi1DSUUxGjAYBgNVBAMTEXR1bm5lbC5w
aXhnbG8uY29tMRwwGgYDVQQpExNCYWxhIENoYW5kcmFzZWthcmFuMR4wHAYJKoZI
hvcNAQkBFg9iYWxhQHBpeGdsby5jb20wHhcNMTgwMjE0MDYyOTU5WhcNMjgwMjEy
MDYyOTU5WjCBqTELMAkGA1UEBhMCVVMxCzAJBgNVBAgTAkNBMRUwEwYDVQQHEwxT
YW5GcmFuY2lzY28xFTATBgNVBAoTDFBpeGdsbywgSW5jLjEQMA4GA1UECxMHVlBO
LUNJRTEPMA0GA1UEAxMGY2llMjk5MRwwGgYDVQQpExNCYWxhIENoYW5kcmFzZWth
cmFuMR4wHAYJKoZIhvcNAQkBFg9iYWxhQHBpeGdsby5jb20wggIiMA0GCSqGSIb3
DQEBAQUAA4ICDwAwggIKAoICAQC+ierUZL8Ww8FI2hNkc4C6xjN92SnAfOxMgVNs
8hYIqJX8soBe/qNrmSmLEr1Smen4OGyCXXtVy8W8XQHOR4xzs7jZxwb67IetstPj
+QqTlsH8dZzfjiGwif/Y8dBHNeDxtpJFLrGeANgyRwpnev07efD+s3zEt+St73N0
8E+TUHe64sh6XHtlUOooXp2kbLxWhGJ843P5XuMfK+pmUVstJJj75r68MbGfwW85
UrLdd1YHCcXqLmokgHvgESmvkgnwRp7mjK6n4U0RG0/q8nqNbQ/RKql8F3GotmR9
1WT/dQROeJ37OgJps2aJa1zn2g4rH74ySSIuqsdxIkxAmKpmCRQpTzog1SD6uRdJ
smKWL+yKd+RX979D7wefPKiTngckOJwkCoJeJ540GfqRq3vtSRC7saOhDlgB719R
V9r+eU/kFSUVK1DVSOisjDlG6ds7xG7ufhsiEUsYCz7vyGB21UHjhu5kiCQjKmLR
DavVQllTpUi15T5GD4s2DKvih7u4dhBNhaxmTYzvCRa7/Ewh0Q+WDDqUMwKiTDeP
cAelaXNFRDcs3A8JR3mCuE92sdFxFPg61wHpXIatCD7AwgOiRwqYI1CY7artpMBk
N7jL2Fna/HcXiTBFifAM3RoPn11YjmlS2e151oY7Dp1vTFAz7wD24h+QxnP0HB0U
k8jB0wIDAQABo4IBazCCAWcwCQYDVR0TBAIwADAtBglghkgBhvhCAQ0EIBYeRWFz
eS1SU0EgR2VuZXJhdGVkIENlcnRpZmljYXRlMB0GA1UdDgQWBBQk/UdS3mEQAWMh
0nOYumM+yiAZRzCB6QYDVR0jBIHhMIHegBTvOI0UUFinW02cF3L837msp1GwEKGB
uqSBtzCBtDELMAkGA1UEBhMCVVMxCzAJBgNVBAgTAkNBMRUwEwYDVQQHEwxTYW5G
cmFuY2lzY28xFTATBgNVBAoTDFBpeGdsbywgSW5jLjEQMA4GA1UECxMHVlBOLUNJ
RTEaMBgGA1UEAxMRdHVubmVsLnBpeGdsby5jb20xHDAaBgNVBCkTE0JhbGEgQ2hh
bmRyYXNla2FyYW4xHjAcBgkqhkiG9w0BCQEWD2JhbGFAcGl4Z2xvLmNvbYIJAKbb
xoOA5qB5MBMGA1UdJQQMMAoGCCsGAQUFBwMCMAsGA1UdDwQEAwIHgDANBgkqhkiG
9w0BAQUFAAOCAgEAtfwti7x5kfZ0qrLMjhEFRikxz/V78q1vgHsiiiJ7MV8TY1s/
rzovBSLmS1kxcvdADR17O0QOSVr9zAQBeFB7xv2zvfPSgTMvWBTLDBFi1HXYeHOJ
/CfVBHmKv1GPa45JKMiJBz7WB5lYiriOOyO+INU5XXtdvEN7P2pos/M1IqWeXDIJ
4Z/16qWgZFbz/q8Di8IygbLa7ZR4ZvDDIe5xI91JyNuHWXOQ5Fu49CnMu2MpD56f
JDBN+e8S0VlYlvrpn79+8S8odGTRzETI9VTCgxC2QMXWmYNU2RdQDYnJ9H6LAkJS
PiD2lQE+Rc3/W5/RpVpaacJtyqMVFkStwP1MPRPmVHvd0b15EpAcN3QMEhfva5eI
qb++kaXch4jUVoq09Kmo37znJWEhOCvIChv4d2Jo/23qHdAG3jaDy/TAkx1vZvGf
e5A6abNxN6iDaDziVGBKoa0jjBlELORcFqPbajeJusHSy5usC0Y23eSsnnyQn7Te
cdLQDWf2518wZOM8jB7KTTVWUxkLcBlHA0Cz97bUajmQujSkCECLc8PUwZLRbCuV
IBa7xPoG9GTanFhfkVMUD3PkICu3cPmuynoF3IYZZMoDJsB/aKYDzfx7zVSAZt21
Qpa2K8XNUQBITnL4epkG9bD2iPJWcFjTBnX27rpQ1cPdcRt9fF+yMK0+A+w=
-----END CERTIFICATE-----
