Certificate:
    Data:
        Version: 3 (0x2)
        Serial Number: 301 (0x12d)
    Signature Algorithm: sha1WithRSAEncryption
        Issuer: C=US, ST=CA, L=SanFrancisco, O=Pixglo, Inc., OU=VPN-CIE, CN=tunnel.pixglo.com/name=Bala Chandrasekaran/emailAddress=bala@pixglo.com
        Validity
            Not Before: Feb 14 06:30:00 2018 GMT
            Not After : Feb 12 06:30:00 2028 GMT
        Subject: C=US, ST=CA, L=SanFrancisco, O=Pixglo, Inc., OU=VPN-CIE, CN=cie300/name=Bala Chandrasekaran/emailAddress=bala@pixglo.com
        Subject Public Key Info:
            Public Key Algorithm: rsaEncryption
                Public-Key: (4096 bit)
                Modulus:
                    00:ac:aa:db:68:b5:37:47:df:07:0c:88:9b:90:4a:
                    90:b7:07:c4:d4:73:c7:c5:91:80:1c:77:99:5a:68:
                    57:4d:61:b0:0e:40:42:70:ad:dd:62:78:a6:f4:37:
                    a7:a3:71:9c:12:78:52:56:0d:a3:41:ed:67:04:7b:
                    cd:0d:78:f0:a9:c6:79:59:0c:8a:bf:3a:52:09:ca:
                    b2:94:df:44:33:e8:b2:3f:12:78:66:0e:0b:2b:7b:
                    4e:d6:b2:67:ca:7d:bb:35:5e:8a:ba:ba:e1:6d:68:
                    1c:9e:5a:a9:65:54:5a:58:48:dd:54:14:6c:fa:f0:
                    60:a5:fa:42:8a:ad:18:4d:8a:e1:43:de:4c:78:ef:
                    c8:c2:7b:12:09:ea:28:33:09:8c:25:29:8d:3c:fe:
                    db:3f:4d:58:24:a4:5d:b0:a2:ee:b6:62:f2:91:f6:
                    05:e8:25:16:6f:fc:81:a0:60:08:fb:bc:89:94:c2:
                    5a:a0:c8:68:2e:75:c1:fd:0a:0f:e7:5c:21:cb:a1:
                    8f:c6:5d:14:68:83:80:5d:84:5f:99:3e:3f:ac:ea:
                    8d:b2:2f:db:5e:86:ae:dc:78:53:93:c5:99:cf:bb:
                    fc:8e:3f:4f:0b:0e:ed:aa:ef:51:34:be:19:80:0d:
                    fa:ac:6b:93:37:59:eb:5f:55:a0:88:a1:93:d3:02:
                    a8:ad:b1:11:88:3e:8e:d9:2f:62:2f:38:6d:9a:1c:
                    f9:52:e3:3b:51:61:d2:3d:1a:17:b0:b2:df:46:ca:
                    cd:21:76:cd:e4:c8:b7:b1:f1:48:d7:b6:f3:92:ff:
                    22:24:1a:18:6d:60:ed:10:33:2b:74:52:b1:fe:81:
                    6d:7d:34:d5:bb:85:22:19:5a:78:64:81:0b:b1:21:
                    12:ca:30:7d:99:bd:62:ce:51:bc:62:2f:c4:af:75:
                    6b:da:33:95:9b:19:14:7b:37:76:29:f5:68:d0:be:
                    af:e2:4e:b9:a7:56:98:6d:cf:a1:ec:d5:fc:68:5f:
                    6c:ce:f3:1e:4d:81:d0:1c:d5:f8:fd:58:43:bf:7e:
                    bb:81:3f:ee:7c:97:17:0e:52:80:e2:e3:85:03:aa:
                    af:b7:04:30:ff:43:10:d5:17:ab:e9:c1:5f:9b:83:
                    b3:28:ad:c2:44:9d:16:4b:ad:94:a4:1f:0f:12:b4:
                    4b:11:d9:84:1d:81:4a:79:81:6f:fe:22:79:18:bf:
                    1f:34:3e:eb:65:1b:83:6f:0d:4f:32:55:3d:7d:77:
                    cf:11:2a:9b:92:9c:97:0b:fa:38:3e:0b:15:d5:6a:
                    c1:6e:15:01:d6:23:36:9b:5a:52:de:9e:44:c3:58:
                    83:b1:d3:0f:87:f3:c3:c0:12:f7:c1:cf:35:18:dd:
                    26:d1:43
                Exponent: 65537 (0x10001)
        X509v3 extensions:
            X509v3 Basic Constraints: 
                CA:FALSE
            Netscape Comment: 
                Easy-RSA Generated Certificate
            X509v3 Subject Key Identifier: 
                28:AD:D6:E9:24:91:4E:C8:AB:DE:0D:B3:3F:53:8A:88:4B:9D:6D:23
            X509v3 Authority Key Identifier: 
                keyid:EF:38:8D:14:50:58:A7:5B:4D:9C:17:72:FC:DF:B9:AC:A7:51:B0:10
                DirName:/C=US/ST=CA/L=SanFrancisco/O=Pixglo, Inc./OU=VPN-CIE/CN=tunnel.pixglo.com/name=Bala Chandrasekaran/emailAddress=bala@pixglo.com
                serial:A6:DB:C6:83:80:E6:A0:79

            X509v3 Extended Key Usage: 
                TLS Web Client Authentication
            X509v3 Key Usage: 
                Digital Signature
    Signature Algorithm: sha1WithRSAEncryption
         03:fe:7a:a2:af:3d:b4:39:64:4a:26:da:ce:48:19:09:c5:b4:
         d3:c0:00:cd:e6:91:52:fa:ae:86:34:96:dc:cb:ae:59:a2:57:
         5f:13:6b:b8:45:19:42:bf:ab:8a:c1:7b:82:e5:03:29:73:5b:
         46:8d:14:1c:cd:92:26:6c:a8:73:cf:fb:82:41:59:66:c8:81:
         78:ca:fc:8d:83:3a:76:1c:6e:31:b6:02:ff:4a:89:dd:67:79:
         1f:7d:0d:44:e5:b9:4d:2b:4f:62:e9:54:f0:6f:14:b6:2a:9b:
         0f:19:a7:15:78:ad:b3:24:c4:53:2d:6c:3c:fc:88:b9:6f:c6:
         13:03:14:78:8c:8c:72:08:3a:13:f5:cb:e6:e0:d7:7e:97:62:
         67:10:ff:6f:d5:21:e9:25:82:9c:4f:59:66:be:42:ca:23:62:
         c2:4c:4f:da:5d:e2:c1:e8:41:3b:e5:47:b7:75:fc:f6:9b:5f:
         60:51:36:b5:9a:83:53:49:eb:5c:9f:1a:e9:9a:31:35:2d:c4:
         5d:36:42:b9:75:5f:5c:7a:06:8b:1c:ef:ca:51:23:fd:a9:0b:
         8c:7f:ca:4f:8e:b5:9b:4b:92:59:41:84:df:a6:3a:cf:7c:b1:
         fa:9d:df:b1:d7:15:8a:f5:fa:c9:db:67:31:a2:5d:f8:c3:15:
         26:3d:40:28:95:58:09:16:dd:24:b0:db:b8:18:01:2c:8c:d8:
         16:79:5c:5d:9a:0a:9f:e3:9d:ab:31:86:c4:3c:03:38:7e:06:
         73:97:b9:39:3f:fb:cb:44:bd:d6:b3:7c:72:97:63:8d:bb:ec:
         fa:ae:8e:e7:ad:a4:6a:b8:4a:db:d4:9c:a1:14:ff:e7:f6:0a:
         b8:db:fa:b6:ac:fc:28:05:7d:79:f6:4a:7f:dc:c9:5a:19:be:
         df:2e:94:34:bc:a7:63:e5:64:bc:af:b3:02:fb:53:b9:01:c3:
         84:3a:bd:c3:91:07:5f:35:29:73:65:47:3f:47:43:c2:95:76:
         f1:78:dc:79:a2:ec:dd:45:98:bb:2b:a1:93:1a:c6:1d:cf:fb:
         0a:89:ad:4d:27:02:5f:3c:d4:6e:0c:d2:2c:4c:b7:35:5a:c0:
         03:53:ad:55:97:86:ef:46:40:a2:09:b0:e9:64:ac:05:dc:9a:
         67:37:94:c1:b0:7e:08:4d:92:64:fc:7b:cc:1c:08:6a:84:43:
         e5:3d:21:5c:6a:ad:d0:d9:79:1f:53:d4:a2:ba:a0:b8:57:1c:
         57:8e:80:17:66:37:b4:e8:b6:f0:de:d1:38:a6:b9:c6:ea:4b:
         e8:e8:1d:5d:27:59:0d:43:18:e8:83:cc:89:48:82:b5:cc:75:
         ae:23:30:3c:a1:f5:e7:5d
-----BEGIN CERTIFICATE-----
MIIHSDCCBTCgAwIBAgICAS0wDQYJKoZIhvcNAQEFBQAwgbQxCzAJBgNVBAYTAlVT
MQswCQYDVQQIEwJDQTEVMBMGA1UEBxMMU2FuRnJhbmNpc2NvMRUwEwYDVQQKEwxQ
aXhnbG8sIEluYy4xEDAOBgNVBAsTB1ZQTi1DSUUxGjAYBgNVBAMTEXR1bm5lbC5w
aXhnbG8uY29tMRwwGgYDVQQpExNCYWxhIENoYW5kcmFzZWthcmFuMR4wHAYJKoZI
hvcNAQkBFg9iYWxhQHBpeGdsby5jb20wHhcNMTgwMjE0MDYzMDAwWhcNMjgwMjEy
MDYzMDAwWjCBqTELMAkGA1UEBhMCVVMxCzAJBgNVBAgTAkNBMRUwEwYDVQQHEwxT
YW5GcmFuY2lzY28xFTATBgNVBAoTDFBpeGdsbywgSW5jLjEQMA4GA1UECxMHVlBO
LUNJRTEPMA0GA1UEAxMGY2llMzAwMRwwGgYDVQQpExNCYWxhIENoYW5kcmFzZWth
cmFuMR4wHAYJKoZIhvcNAQkBFg9iYWxhQHBpeGdsby5jb20wggIiMA0GCSqGSIb3
DQEBAQUAA4ICDwAwggIKAoICAQCsqttotTdH3wcMiJuQSpC3B8TUc8fFkYAcd5la
aFdNYbAOQEJwrd1ieKb0N6ejcZwSeFJWDaNB7WcEe80NePCpxnlZDIq/OlIJyrKU
30Qz6LI/EnhmDgsre07WsmfKfbs1Xoq6uuFtaByeWqllVFpYSN1UFGz68GCl+kKK
rRhNiuFD3kx478jCexIJ6igzCYwlKY08/ts/TVgkpF2wou62YvKR9gXoJRZv/IGg
YAj7vImUwlqgyGgudcH9Cg/nXCHLoY/GXRRog4BdhF+ZPj+s6o2yL9tehq7ceFOT
xZnPu/yOP08LDu2q71E0vhmADfqsa5M3WetfVaCIoZPTAqitsRGIPo7ZL2IvOG2a
HPlS4ztRYdI9Ghewst9Gys0hds3kyLex8UjXtvOS/yIkGhhtYO0QMyt0UrH+gW19
NNW7hSIZWnhkgQuxIRLKMH2ZvWLOUbxiL8SvdWvaM5WbGRR7N3Yp9WjQvq/iTrmn
Vphtz6Hs1fxoX2zO8x5NgdAc1fj9WEO/fruBP+58lxcOUoDi44UDqq+3BDD/QxDV
F6vpwV+bg7MorcJEnRZLrZSkHw8StEsR2YQdgUp5gW/+InkYvx80PutlG4NvDU8y
VT19d88RKpuSnJcL+jg+CxXVasFuFQHWIzabWlLenkTDWIOx0w+H88PAEvfBzzUY
3SbRQwIDAQABo4IBazCCAWcwCQYDVR0TBAIwADAtBglghkgBhvhCAQ0EIBYeRWFz
eS1SU0EgR2VuZXJhdGVkIENlcnRpZmljYXRlMB0GA1UdDgQWBBQordbpJJFOyKve
DbM/U4qIS51tIzCB6QYDVR0jBIHhMIHegBTvOI0UUFinW02cF3L837msp1GwEKGB
uqSBtzCBtDELMAkGA1UEBhMCVVMxCzAJBgNVBAgTAkNBMRUwEwYDVQQHEwxTYW5G
cmFuY2lzY28xFTATBgNVBAoTDFBpeGdsbywgSW5jLjEQMA4GA1UECxMHVlBOLUNJ
RTEaMBgGA1UEAxMRdHVubmVsLnBpeGdsby5jb20xHDAaBgNVBCkTE0JhbGEgQ2hh
bmRyYXNla2FyYW4xHjAcBgkqhkiG9w0BCQEWD2JhbGFAcGl4Z2xvLmNvbYIJAKbb
xoOA5qB5MBMGA1UdJQQMMAoGCCsGAQUFBwMCMAsGA1UdDwQEAwIHgDANBgkqhkiG
9w0BAQUFAAOCAgEAA/56oq89tDlkSibazkgZCcW008AAzeaRUvquhjSW3MuuWaJX
XxNruEUZQr+risF7guUDKXNbRo0UHM2SJmyoc8/7gkFZZsiBeMr8jYM6dhxuMbYC
/0qJ3Wd5H30NROW5TStPYulU8G8UtiqbDxmnFXitsyTEUy1sPPyIuW/GEwMUeIyM
cgg6E/XL5uDXfpdiZxD/b9Uh6SWCnE9ZZr5CyiNiwkxP2l3iwehBO+VHt3X89ptf
YFE2tZqDU0nrXJ8a6ZoxNS3EXTZCuXVfXHoGixzvylEj/akLjH/KT461m0uSWUGE
36Y6z3yx+p3fsdcVivX6ydtnMaJd+MMVJj1AKJVYCRbdJLDbuBgBLIzYFnlcXZoK
n+OdqzGGxDwDOH4Gc5e5OT/7y0S91rN8cpdjjbvs+q6O562karhK29ScoRT/5/YK
uNv6tqz8KAV9efZKf9zJWhm+3y6UNLynY+VkvK+zAvtTuQHDhDq9w5EHXzUpc2VH
P0dDwpV28XjceaLs3UWYuyuhkxrGHc/7ComtTScCXzzUbgzSLEy3NVrAA1OtVZeG
70ZAogmw6WSsBdyaZzeUwbB+CE2SZPx7zBwIaoRD5T0hXGqt0Nl5H1PUorqguFcc
V46AF2Y3tOi28N7ROKa5xupL6OgdXSdZDUMY6IPMiUiCtcx1riMwPKH1510=
-----END CERTIFICATE-----
