Certificate:
    Data:
        Version: 3 (0x2)
        Serial Number: 303 (0x12f)
    Signature Algorithm: sha1WithRSAEncryption
        Issuer: C=US, ST=CA, L=SanFrancisco, O=Pixglo, Inc., OU=VPN-CIE, CN=tunnel.pixglo.com/name=Bala Chandrasekaran/emailAddress=bala@pixglo.com
        Validity
            Not Before: Feb 14 06:30:02 2018 GMT
            Not After : Feb 12 06:30:02 2028 GMT
        Subject: C=US, ST=CA, L=SanFrancisco, O=Pixglo, Inc., OU=VPN-CIE, CN=cie302/name=Bala Chandrasekaran/emailAddress=bala@pixglo.com
        Subject Public Key Info:
            Public Key Algorithm: rsaEncryption
                Public-Key: (4096 bit)
                Modulus:
                    00:a3:ee:09:c2:dd:1d:3f:4d:38:b4:0b:92:b2:89:
                    a2:88:d8:79:6c:66:12:ea:f6:7b:d2:62:af:27:0e:
                    07:87:2c:28:bc:af:84:f0:3d:67:2f:79:d2:c8:4b:
                    0c:af:ee:04:db:e7:53:8f:cd:5a:7d:73:68:4c:93:
                    78:57:c7:7b:17:3a:11:6e:83:de:d6:2f:26:1e:a5:
                    a3:d3:f0:1c:bb:42:d1:ba:e9:80:64:fc:a6:1e:0d:
                    ba:f8:2f:2b:f5:da:26:6a:1f:07:e7:7b:8a:fd:68:
                    dd:22:e3:dc:e2:f5:96:da:69:b9:a8:63:52:30:e9:
                    48:e5:2d:34:82:78:7e:94:15:64:2e:f7:1b:dd:47:
                    1d:1b:33:13:a8:d7:4c:b4:58:ae:1f:f8:6c:ca:be:
                    40:07:4f:7d:44:ce:df:24:57:8c:82:e0:39:aa:57:
                    4f:28:c9:c1:75:29:78:db:43:98:51:75:be:19:5f:
                    b8:64:bd:bc:ac:61:07:7f:6b:b5:4f:b8:b5:fc:ec:
                    ce:a8:09:86:aa:e6:af:1f:e0:57:81:ac:7b:53:09:
                    88:f0:b2:1d:a4:89:8b:fe:af:b4:32:87:56:49:2b:
                    df:51:f6:9a:5f:c6:60:3a:9a:7a:61:c6:86:de:ae:
                    20:60:92:58:57:91:b9:b6:2f:81:e3:49:1b:50:cf:
                    68:9d:aa:29:d2:84:d6:03:5b:49:87:51:96:75:53:
                    d9:18:fa:e2:14:ba:75:29:b4:9e:37:44:c9:a8:9f:
                    b1:3f:af:81:fc:c2:4a:e2:b7:96:6a:8c:28:e7:75:
                    1e:b5:38:fc:d8:50:43:f3:07:52:b8:ee:7c:27:8a:
                    52:72:a9:b1:2c:cd:d8:e9:e1:31:2d:28:09:b2:bb:
                    bb:15:77:cb:51:d7:06:0d:9e:60:74:cf:60:12:f7:
                    85:39:9b:08:09:0b:87:db:67:2e:7f:6d:ba:23:75:
                    a9:2d:ca:51:0a:80:40:f1:de:1d:25:11:da:bb:66:
                    fd:8a:b4:53:6e:d6:42:13:c6:1a:33:d9:b4:64:64:
                    62:c9:fe:1c:de:20:4a:01:28:63:18:fb:13:5b:a0:
                    f7:79:5b:f5:11:ad:19:d4:99:b7:3d:d1:b3:ba:4a:
                    3d:31:93:3b:61:20:94:56:9a:f0:7c:0f:92:08:5d:
                    49:77:37:51:2e:69:d2:e8:5a:c5:33:c4:f4:07:b2:
                    4b:0b:20:77:5c:f3:13:53:18:21:4d:8c:d9:62:67:
                    b0:e3:9c:1f:45:6c:41:c1:2b:c8:b5:24:a6:6e:1b:
                    bd:48:e3:62:15:9b:56:5a:4b:7b:c7:c2:9a:a3:19:
                    e7:c5:60:86:95:b9:d0:a8:0b:64:cd:83:a5:98:4d:
                    81:49:09
                Exponent: 65537 (0x10001)
        X509v3 extensions:
            X509v3 Basic Constraints: 
                CA:FALSE
            Netscape Comment: 
                Easy-RSA Generated Certificate
            X509v3 Subject Key Identifier: 
                11:31:E3:6B:5B:96:2A:80:05:92:0E:F0:BC:34:21:18:1F:A8:BD:5E
            X509v3 Authority Key Identifier: 
                keyid:EF:38:8D:14:50:58:A7:5B:4D:9C:17:72:FC:DF:B9:AC:A7:51:B0:10
                DirName:/C=US/ST=CA/L=SanFrancisco/O=Pixglo, Inc./OU=VPN-CIE/CN=tunnel.pixglo.com/name=Bala Chandrasekaran/emailAddress=bala@pixglo.com
                serial:A6:DB:C6:83:80:E6:A0:79

            X509v3 Extended Key Usage: 
                TLS Web Client Authentication
            X509v3 Key Usage: 
                Digital Signature
    Signature Algorithm: sha1WithRSAEncryption
         5b:69:3d:8f:bc:03:8a:76:34:eb:f9:01:bb:3e:ec:88:26:88:
         26:fb:6b:f4:a3:10:98:9b:dd:05:0d:ce:63:10:13:d1:78:11:
         50:a9:c6:e7:85:b9:f8:a4:af:0b:5a:1a:3c:13:ee:8c:d0:fa:
         48:7e:07:c9:e8:15:9e:45:9f:a9:32:ac:9d:28:f0:9f:2b:04:
         18:c8:71:0e:51:54:97:d2:42:d2:50:7c:3b:a3:ca:c2:75:f8:
         b0:88:00:a1:92:1d:cb:6a:29:c7:bc:22:b8:cd:80:60:fe:8a:
         e6:0b:a1:3b:52:48:42:d3:17:1d:01:81:9f:06:2c:41:5c:e7:
         78:1b:42:75:d4:68:09:35:ba:dc:c6:2e:07:92:78:40:05:cf:
         d1:a4:ef:6d:f9:1e:bd:0e:85:c1:77:31:03:70:e2:8d:7d:08:
         05:c3:15:b0:34:d2:68:3f:87:f4:7e:3d:32:b4:bb:6a:b0:2f:
         03:c6:f7:56:87:fd:f1:40:19:a1:20:b6:e3:89:da:19:b2:0e:
         0a:2c:c6:0c:a8:ea:ec:31:fc:ed:90:29:53:db:d1:83:50:b6:
         39:7e:71:18:73:e1:b1:4c:47:f0:76:ed:62:09:06:66:cf:be:
         29:91:61:e0:2b:79:56:9a:72:15:81:7c:1f:f2:69:ba:45:20:
         16:1b:00:35:e7:5a:f5:55:98:18:a6:99:b4:bf:78:4e:d5:bb:
         bd:88:48:f3:68:d3:b9:df:39:fb:dc:d4:60:7a:9c:dd:b3:17:
         93:5e:69:61:af:fc:6c:98:65:7a:53:ae:e2:d7:b3:8a:fe:c4:
         71:86:36:0e:7b:bb:93:47:d0:fd:a2:4e:0e:93:3d:d1:f9:7d:
         5d:31:80:be:b0:af:dc:b0:8d:12:af:f2:1c:89:76:d6:7f:8a:
         11:75:a4:c1:37:3e:f6:7b:ff:9b:28:de:ce:34:6a:b3:d8:bc:
         1c:13:98:23:f6:3b:14:ce:e5:31:4c:1d:99:57:55:a9:00:ba:
         01:25:ff:e9:bc:66:6d:93:5f:64:16:e7:1d:fb:97:70:4c:19:
         ea:e2:e8:0e:84:be:55:00:e4:5c:59:ad:2b:50:83:a2:43:2a:
         fb:2b:ac:49:07:e2:5a:f2:32:d9:d0:2e:70:b6:31:d1:5c:b6:
         e6:c2:c0:f6:7e:a6:40:cc:6a:0c:28:7a:00:c3:42:ae:e7:1a:
         c2:23:40:f2:52:5e:a5:3c:cd:e8:48:ab:f6:0b:7e:22:9e:7a:
         b0:08:09:ba:c3:2c:54:e6:66:34:cd:8d:bc:9a:70:be:0a:95:
         36:8b:fa:04:76:29:8e:13:a3:7b:4c:94:7b:f3:38:a5:ef:c4:
         e1:77:df:f2:76:a5:9f:ba
-----BEGIN CERTIFICATE-----
MIIHSDCCBTCgAwIBAgICAS8wDQYJKoZIhvcNAQEFBQAwgbQxCzAJBgNVBAYTAlVT
MQswCQYDVQQIEwJDQTEVMBMGA1UEBxMMU2FuRnJhbmNpc2NvMRUwEwYDVQQKEwxQ
aXhnbG8sIEluYy4xEDAOBgNVBAsTB1ZQTi1DSUUxGjAYBgNVBAMTEXR1bm5lbC5w
aXhnbG8uY29tMRwwGgYDVQQpExNCYWxhIENoYW5kcmFzZWthcmFuMR4wHAYJKoZI
hvcNAQkBFg9iYWxhQHBpeGdsby5jb20wHhcNMTgwMjE0MDYzMDAyWhcNMjgwMjEy
MDYzMDAyWjCBqTELMAkGA1UEBhMCVVMxCzAJBgNVBAgTAkNBMRUwEwYDVQQHEwxT
YW5GcmFuY2lzY28xFTATBgNVBAoTDFBpeGdsbywgSW5jLjEQMA4GA1UECxMHVlBO
LUNJRTEPMA0GA1UEAxMGY2llMzAyMRwwGgYDVQQpExNCYWxhIENoYW5kcmFzZWth
cmFuMR4wHAYJKoZIhvcNAQkBFg9iYWxhQHBpeGdsby5jb20wggIiMA0GCSqGSIb3
DQEBAQUAA4ICDwAwggIKAoICAQCj7gnC3R0/TTi0C5KyiaKI2HlsZhLq9nvSYq8n
DgeHLCi8r4TwPWcvedLISwyv7gTb51OPzVp9c2hMk3hXx3sXOhFug97WLyYepaPT
8By7QtG66YBk/KYeDbr4Lyv12iZqHwfne4r9aN0i49zi9ZbaabmoY1Iw6UjlLTSC
eH6UFWQu9xvdRx0bMxOo10y0WK4f+GzKvkAHT31Ezt8kV4yC4DmqV08oycF1KXjb
Q5hRdb4ZX7hkvbysYQd/a7VPuLX87M6oCYaq5q8f4FeBrHtTCYjwsh2kiYv+r7Qy
h1ZJK99R9ppfxmA6mnphxoberiBgklhXkbm2L4HjSRtQz2idqinShNYDW0mHUZZ1
U9kY+uIUunUptJ43RMmon7E/r4H8wkrit5ZqjCjndR61OPzYUEPzB1K47nwnilJy
qbEszdjp4TEtKAmyu7sVd8tR1wYNnmB0z2AS94U5mwgJC4fbZy5/bbojdaktylEK
gEDx3h0lEdq7Zv2KtFNu1kITxhoz2bRkZGLJ/hzeIEoBKGMY+xNboPd5W/URrRnU
mbc90bO6Sj0xkzthIJRWmvB8D5IIXUl3N1EuadLoWsUzxPQHsksLIHdc8xNTGCFN
jNliZ7DjnB9FbEHBK8i1JKZuG71I42IVm1ZaS3vHwpqjGefFYIaVudCoC2TNg6WY
TYFJCQIDAQABo4IBazCCAWcwCQYDVR0TBAIwADAtBglghkgBhvhCAQ0EIBYeRWFz
eS1SU0EgR2VuZXJhdGVkIENlcnRpZmljYXRlMB0GA1UdDgQWBBQRMeNrW5YqgAWS
DvC8NCEYH6i9XjCB6QYDVR0jBIHhMIHegBTvOI0UUFinW02cF3L837msp1GwEKGB
uqSBtzCBtDELMAkGA1UEBhMCVVMxCzAJBgNVBAgTAkNBMRUwEwYDVQQHEwxTYW5G
cmFuY2lzY28xFTATBgNVBAoTDFBpeGdsbywgSW5jLjEQMA4GA1UECxMHVlBOLUNJ
RTEaMBgGA1UEAxMRdHVubmVsLnBpeGdsby5jb20xHDAaBgNVBCkTE0JhbGEgQ2hh
bmRyYXNla2FyYW4xHjAcBgkqhkiG9w0BCQEWD2JhbGFAcGl4Z2xvLmNvbYIJAKbb
xoOA5qB5MBMGA1UdJQQMMAoGCCsGAQUFBwMCMAsGA1UdDwQEAwIHgDANBgkqhkiG
9w0BAQUFAAOCAgEAW2k9j7wDinY06/kBuz7siCaIJvtr9KMQmJvdBQ3OYxAT0XgR
UKnG54W5+KSvC1oaPBPujND6SH4HyegVnkWfqTKsnSjwnysEGMhxDlFUl9JC0lB8
O6PKwnX4sIgAoZIdy2opx7wiuM2AYP6K5guhO1JIQtMXHQGBnwYsQVzneBtCddRo
CTW63MYuB5J4QAXP0aTvbfkevQ6FwXcxA3DijX0IBcMVsDTSaD+H9H49MrS7arAv
A8b3Vof98UAZoSC244naGbIOCizGDKjq7DH87ZApU9vRg1C2OX5xGHPhsUxH8Hbt
YgkGZs++KZFh4Ct5VppyFYF8H/JpukUgFhsANeda9VWYGKaZtL94TtW7vYhI82jT
ud85+9zUYHqc3bMXk15pYa/8bJhlelOu4teziv7EcYY2Dnu7k0fQ/aJODpM90fl9
XTGAvrCv3LCNEq/yHIl21n+KEXWkwTc+9nv/myjezjRqs9i8HBOYI/Y7FM7lMUwd
mVdVqQC6ASX/6bxmbZNfZBbnHfuXcEwZ6uLoDoS+VQDkXFmtK1CDokMq+yusSQfi
WvIy2dAucLYx0Vy25sLA9n6mQMxqDCh6AMNCrucawiNA8lJepTzN6Eir9gt+Ip56
sAgJusMsVOZmNM2NvJpwvgqVNov6BHYpjhOje0yUe/M4pe/E4Xff8naln7o=
-----END CERTIFICATE-----
