Certificate:
    Data:
        Version: 3 (0x2)
        Serial Number: 304 (0x130)
    Signature Algorithm: sha1WithRSAEncryption
        Issuer: C=US, ST=CA, L=SanFrancisco, O=Pixglo, Inc., OU=VPN-CIE, CN=tunnel.pixglo.com/name=Bala Chandrasekaran/emailAddress=bala@pixglo.com
        Validity
            Not Before: Feb 14 06:30:03 2018 GMT
            Not After : Feb 12 06:30:03 2028 GMT
        Subject: C=US, ST=CA, L=SanFrancisco, O=Pixglo, Inc., OU=VPN-CIE, CN=cie303/name=Bala Chandrasekaran/emailAddress=bala@pixglo.com
        Subject Public Key Info:
            Public Key Algorithm: rsaEncryption
                Public-Key: (4096 bit)
                Modulus:
                    00:dd:f8:92:10:a4:0b:7f:4e:ca:14:e8:b9:ac:70:
                    6d:82:9d:e4:d1:85:d3:6b:d6:2c:6c:8d:b8:e5:44:
                    a7:d6:d3:4b:79:6f:28:8d:78:f8:55:bd:b4:1d:32:
                    b6:ca:e7:5a:ff:b8:61:a5:62:19:13:dd:da:b3:ad:
                    84:f5:6b:f8:5d:17:4b:87:bc:fb:1b:58:b2:30:25:
                    32:06:07:23:fc:4b:92:4e:15:f2:63:09:f3:0e:94:
                    4c:de:d4:89:55:cc:57:0a:cf:e1:98:6e:03:1b:44:
                    74:80:9b:ba:54:87:33:78:99:83:90:54:0a:e8:d4:
                    3b:ad:ed:4a:17:2a:94:8a:48:e1:5f:64:29:e1:00:
                    bd:77:e2:ae:6f:68:1d:9b:e4:46:35:b7:9e:a5:53:
                    15:27:ff:dc:a0:4e:a5:b7:8a:7c:28:55:05:d6:26:
                    a9:08:df:d4:e4:f1:b5:61:cf:8d:62:4c:7f:0c:f2:
                    5c:db:74:a0:cb:34:87:99:8b:a7:12:20:42:3b:63:
                    4e:1c:22:0d:af:e3:37:af:85:71:12:9b:57:12:d9:
                    f1:bd:3a:f3:0d:b7:b7:69:ea:8c:df:68:18:9e:27:
                    63:33:45:11:39:e6:cf:d9:51:69:45:d2:f8:96:ab:
                    69:80:20:7b:4e:18:0e:55:e1:a0:33:6c:ee:e5:ad:
                    d6:25:99:33:75:ad:7e:4c:20:8b:57:de:65:81:c3:
                    30:57:a2:55:71:20:02:5c:44:ed:8b:14:41:24:c1:
                    17:70:12:c6:a3:68:ae:d9:4a:fc:98:3c:0c:38:3f:
                    a3:e4:80:61:5f:30:54:60:d7:ad:49:39:42:da:15:
                    60:f2:0c:22:2b:c8:b0:46:94:ef:7a:0f:ff:dd:a1:
                    81:2e:3a:89:a9:a0:d6:a9:78:cc:a4:a3:23:48:7e:
                    23:ab:61:b5:9e:15:e0:b8:4a:79:b8:bc:38:65:23:
                    3f:26:df:77:9f:62:94:28:27:81:31:90:14:11:64:
                    19:85:2a:5f:6a:e4:0f:95:e1:14:f9:c2:19:77:11:
                    cd:9e:c1:bf:41:8d:f0:ad:5d:88:ed:e1:9f:c2:68:
                    98:d0:14:71:dc:e5:9d:22:b9:f1:8a:10:a0:cf:03:
                    ba:ec:14:0c:f8:cf:04:d4:50:d6:1a:9f:38:1f:ef:
                    45:93:0f:2f:67:bd:eb:74:b1:0b:03:eb:ad:36:66:
                    1d:f6:11:d7:9e:b9:f5:13:1a:39:b6:64:b7:52:dd:
                    bf:82:4a:3e:7b:49:cf:c7:43:31:91:d6:f6:b7:e7:
                    c0:1b:6d:69:c5:60:15:4a:92:8e:a5:53:5d:9f:e7:
                    68:fc:ab:0f:03:17:bb:e4:b0:d2:fe:d5:3c:fe:58:
                    3a:46:7f
                Exponent: 65537 (0x10001)
        X509v3 extensions:
            X509v3 Basic Constraints: 
                CA:FALSE
            Netscape Comment: 
                Easy-RSA Generated Certificate
            X509v3 Subject Key Identifier: 
                42:22:A8:05:0C:D1:DF:36:98:B1:C2:C0:11:81:F7:0B:66:31:8A:03
            X509v3 Authority Key Identifier: 
                keyid:EF:38:8D:14:50:58:A7:5B:4D:9C:17:72:FC:DF:B9:AC:A7:51:B0:10
                DirName:/C=US/ST=CA/L=SanFrancisco/O=Pixglo, Inc./OU=VPN-CIE/CN=tunnel.pixglo.com/name=Bala Chandrasekaran/emailAddress=bala@pixglo.com
                serial:A6:DB:C6:83:80:E6:A0:79

            X509v3 Extended Key Usage: 
                TLS Web Client Authentication
            X509v3 Key Usage: 
                Digital Signature
    Signature Algorithm: sha1WithRSAEncryption
         a8:5e:b7:19:94:72:fe:0e:91:bb:92:48:cf:f0:ed:dc:33:a9:
         1a:de:36:7d:58:5d:a3:50:7b:d7:1b:05:26:a7:66:9b:e4:41:
         f5:f7:e6:6a:75:f6:13:a6:83:05:07:8c:b4:c8:f2:3f:69:cb:
         45:9f:2a:01:55:9c:f6:73:39:86:83:fe:bb:be:d5:29:c2:81:
         1b:f9:bf:db:ef:a6:93:00:7b:0c:6a:c4:cf:4a:35:48:42:56:
         0f:b6:ec:e0:44:45:45:c0:94:d5:33:53:52:22:ea:ec:d4:ea:
         e8:77:ae:52:10:cc:ee:8d:dc:cc:2c:06:75:6a:ed:59:c8:7f:
         97:b9:cf:51:4e:28:1d:01:7a:77:93:fa:77:9d:63:d7:47:d5:
         76:fd:4b:9f:aa:da:2e:09:42:d1:67:2d:21:cb:09:13:d0:e0:
         86:da:9f:36:58:53:48:78:88:de:91:ad:98:bd:cf:6e:67:62:
         5f:6d:d0:12:16:3c:93:ae:88:50:e2:29:dc:e2:e6:48:1e:20:
         dc:19:ec:51:27:e4:7a:2b:69:b9:60:a2:a5:6e:b7:eb:32:01:
         a5:ce:01:ff:15:73:c8:58:a6:d1:04:0f:d5:63:f3:85:b4:cf:
         41:ed:e1:46:87:5e:ec:1f:05:bc:3b:5f:ba:4a:d3:e9:cc:e6:
         68:dc:a3:db:00:de:d7:2f:a3:3b:b5:08:d7:84:bf:5d:38:06:
         fc:ad:a5:4d:6b:88:43:63:0e:35:e4:99:bd:48:95:0b:ae:6c:
         7b:25:29:7a:37:92:80:db:4b:b3:45:ce:c1:2c:c0:6d:34:f9:
         75:67:90:69:26:f6:ae:30:9b:e8:63:9f:8c:3e:49:3e:e9:93:
         16:ae:2c:cb:a5:88:22:19:d2:ad:02:58:e2:66:ec:52:62:1f:
         b5:ec:10:db:23:de:01:73:10:42:3f:9c:90:fd:3e:c7:65:93:
         a6:3b:e7:71:1d:01:d6:d0:80:1f:f8:d5:b3:89:9f:35:77:f3:
         09:8b:a1:ce:f3:d2:7b:5c:c5:f3:89:0f:18:2b:d3:2b:58:3d:
         44:ed:0a:a7:88:c2:67:c6:f0:a5:01:94:c3:02:bc:b8:6c:0b:
         f0:a5:37:a7:fb:bf:e2:e0:3a:46:2b:84:3a:e1:21:d4:0d:ac:
         a6:a9:4e:47:d5:2c:bd:05:24:8c:d9:f9:e5:d3:6b:d7:74:94:
         a4:a1:cf:a5:70:b4:30:2d:4a:40:04:e3:aa:c4:16:f5:39:07:
         a2:62:07:03:1b:2d:30:b4:bb:a4:7b:1e:5f:50:d0:f0:d6:49:
         22:f4:e6:c8:76:03:cf:77:7e:a2:bf:89:d3:1f:7f:de:0d:3d:
         25:43:af:a8:30:17:cf:c4
-----BEGIN CERTIFICATE-----
MIIHSDCCBTCgAwIBAgICATAwDQYJKoZIhvcNAQEFBQAwgbQxCzAJBgNVBAYTAlVT
MQswCQYDVQQIEwJDQTEVMBMGA1UEBxMMU2FuRnJhbmNpc2NvMRUwEwYDVQQKEwxQ
aXhnbG8sIEluYy4xEDAOBgNVBAsTB1ZQTi1DSUUxGjAYBgNVBAMTEXR1bm5lbC5w
aXhnbG8uY29tMRwwGgYDVQQpExNCYWxhIENoYW5kcmFzZWthcmFuMR4wHAYJKoZI
hvcNAQkBFg9iYWxhQHBpeGdsby5jb20wHhcNMTgwMjE0MDYzMDAzWhcNMjgwMjEy
MDYzMDAzWjCBqTELMAkGA1UEBhMCVVMxCzAJBgNVBAgTAkNBMRUwEwYDVQQHEwxT
YW5GcmFuY2lzY28xFTATBgNVBAoTDFBpeGdsbywgSW5jLjEQMA4GA1UECxMHVlBO
LUNJRTEPMA0GA1UEAxMGY2llMzAzMRwwGgYDVQQpExNCYWxhIENoYW5kcmFzZWth
cmFuMR4wHAYJKoZIhvcNAQkBFg9iYWxhQHBpeGdsby5jb20wggIiMA0GCSqGSIb3
DQEBAQUAA4ICDwAwggIKAoICAQDd+JIQpAt/TsoU6LmscG2CneTRhdNr1ixsjbjl
RKfW00t5byiNePhVvbQdMrbK51r/uGGlYhkT3dqzrYT1a/hdF0uHvPsbWLIwJTIG
ByP8S5JOFfJjCfMOlEze1IlVzFcKz+GYbgMbRHSAm7pUhzN4mYOQVAro1Dut7UoX
KpSKSOFfZCnhAL134q5vaB2b5EY1t56lUxUn/9ygTqW3inwoVQXWJqkI39Tk8bVh
z41iTH8M8lzbdKDLNIeZi6cSIEI7Y04cIg2v4zevhXESm1cS2fG9OvMNt7dp6ozf
aBieJ2MzRRE55s/ZUWlF0viWq2mAIHtOGA5V4aAzbO7lrdYlmTN1rX5MIItX3mWB
wzBXolVxIAJcRO2LFEEkwRdwEsajaK7ZSvyYPAw4P6PkgGFfMFRg161JOULaFWDy
DCIryLBGlO96D//doYEuOompoNapeMykoyNIfiOrYbWeFeC4Snm4vDhlIz8m33ef
YpQoJ4ExkBQRZBmFKl9q5A+V4RT5whl3Ec2ewb9BjfCtXYjt4Z/CaJjQFHHc5Z0i
ufGKEKDPA7rsFAz4zwTUUNYanzgf70WTDy9nvet0sQsD6602Zh32EdeeufUTGjm2
ZLdS3b+CSj57Sc/HQzGR1va358AbbWnFYBVKko6lU12f52j8qw8DF7vksNL+1Tz+
WDpGfwIDAQABo4IBazCCAWcwCQYDVR0TBAIwADAtBglghkgBhvhCAQ0EIBYeRWFz
eS1SU0EgR2VuZXJhdGVkIENlcnRpZmljYXRlMB0GA1UdDgQWBBRCIqgFDNHfNpix
wsARgfcLZjGKAzCB6QYDVR0jBIHhMIHegBTvOI0UUFinW02cF3L837msp1GwEKGB
uqSBtzCBtDELMAkGA1UEBhMCVVMxCzAJBgNVBAgTAkNBMRUwEwYDVQQHEwxTYW5G
cmFuY2lzY28xFTATBgNVBAoTDFBpeGdsbywgSW5jLjEQMA4GA1UECxMHVlBOLUNJ
RTEaMBgGA1UEAxMRdHVubmVsLnBpeGdsby5jb20xHDAaBgNVBCkTE0JhbGEgQ2hh
bmRyYXNla2FyYW4xHjAcBgkqhkiG9w0BCQEWD2JhbGFAcGl4Z2xvLmNvbYIJAKbb
xoOA5qB5MBMGA1UdJQQMMAoGCCsGAQUFBwMCMAsGA1UdDwQEAwIHgDANBgkqhkiG
9w0BAQUFAAOCAgEAqF63GZRy/g6Ru5JIz/Dt3DOpGt42fVhdo1B71xsFJqdmm+RB
9ffmanX2E6aDBQeMtMjyP2nLRZ8qAVWc9nM5hoP+u77VKcKBG/m/2++mkwB7DGrE
z0o1SEJWD7bs4ERFRcCU1TNTUiLq7NTq6HeuUhDM7o3czCwGdWrtWch/l7nPUU4o
HQF6d5P6d51j10fVdv1Ln6raLglC0WctIcsJE9DghtqfNlhTSHiI3pGtmL3Pbmdi
X23QEhY8k66IUOIp3OLmSB4g3BnsUSfkeitpuWCipW636zIBpc4B/xVzyFim0QQP
1WPzhbTPQe3hRode7B8FvDtfukrT6czmaNyj2wDe1y+jO7UI14S/XTgG/K2lTWuI
Q2MONeSZvUiVC65seyUpejeSgNtLs0XOwSzAbTT5dWeQaSb2rjCb6GOfjD5JPumT
Fq4sy6WIIhnSrQJY4mbsUmIftewQ2yPeAXMQQj+ckP0+x2WTpjvncR0B1tCAH/jV
s4mfNXfzCYuhzvPSe1zF84kPGCvTK1g9RO0Kp4jCZ8bwpQGUwwK8uGwL8KU3p/u/
4uA6RiuEOuEh1A2spqlOR9UsvQUkjNn55dNr13SUpKHPpXC0MC1KQATjqsQW9TkH
omIHAxstMLS7pHseX1DQ8NZJIvTmyHYDz3d+or+J0x9/3g09JUOvqDAXz8Q=
-----END CERTIFICATE-----
