Certificate:
    Data:
        Version: 3 (0x2)
        Serial Number: 306 (0x132)
    Signature Algorithm: sha1WithRSAEncryption
        Issuer: C=US, ST=CA, L=SanFrancisco, O=Pixglo, Inc., OU=VPN-CIE, CN=tunnel.pixglo.com/name=Bala Chandrasekaran/emailAddress=bala@pixglo.com
        Validity
            Not Before: Feb 14 06:30:04 2018 GMT
            Not After : Feb 12 06:30:04 2028 GMT
        Subject: C=US, ST=CA, L=SanFrancisco, O=Pixglo, Inc., OU=VPN-CIE, CN=cie305/name=Bala Chandrasekaran/emailAddress=bala@pixglo.com
        Subject Public Key Info:
            Public Key Algorithm: rsaEncryption
                Public-Key: (4096 bit)
                Modulus:
                    00:db:34:c9:71:a9:f0:f2:18:eb:59:43:98:31:7e:
                    d4:d1:ac:a5:d4:a1:f0:78:a2:e9:2a:b7:74:58:ff:
                    97:86:ff:66:e9:73:68:3a:ab:a5:dc:b0:67:11:7d:
                    c2:e1:f2:9c:4c:f4:88:4e:c3:f5:94:05:4b:bb:56:
                    8f:10:be:71:7c:12:9b:a4:c9:a4:b7:ec:17:ea:a0:
                    5b:8f:9e:2d:f5:7e:1b:ba:6b:5b:c3:b0:a6:32:04:
                    ec:81:c4:44:5e:58:36:66:21:52:22:ae:46:32:5d:
                    61:f9:29:2b:64:44:0d:ef:5e:ef:d9:d7:a5:d4:73:
                    33:ec:44:8c:69:fc:cd:92:a7:b2:6c:d0:b2:4b:99:
                    5b:eb:b9:16:30:e5:4a:ca:d0:00:ab:f6:08:33:c1:
                    74:02:68:fe:cd:60:5f:f7:04:74:31:6e:79:da:7d:
                    02:31:6c:09:75:a5:b2:23:95:42:27:91:60:82:2d:
                    9c:bf:da:b7:d5:60:9e:f9:83:85:9e:01:36:60:09:
                    8e:51:81:41:96:26:5a:bc:bb:e8:70:ac:03:22:2a:
                    a6:c1:20:72:a7:d8:1a:18:0b:e0:35:16:7f:18:9c:
                    11:3d:10:85:de:fe:a1:8a:6b:1b:ff:26:8c:1c:cb:
                    8a:c4:4b:f1:7d:c1:b4:f4:14:22:81:67:2f:a2:d7:
                    d7:fd:07:dd:ab:d5:c1:ba:db:68:27:0a:57:5d:62:
                    b8:74:33:a2:55:11:ff:01:d7:d2:50:02:73:63:d4:
                    c3:d8:0d:6b:ca:1c:dd:b2:6c:e6:bc:0d:9a:c7:38:
                    ca:5d:e4:2f:4e:a0:d9:c4:bf:4f:04:0d:8f:14:0f:
                    92:c8:27:83:77:27:81:73:1c:8f:55:b5:b0:7c:b0:
                    7e:eb:03:1d:97:f2:d8:3a:2a:e0:52:c9:00:7f:63:
                    47:2b:10:76:1a:bc:9e:99:ec:03:99:ca:03:71:82:
                    e6:91:53:aa:93:53:aa:2a:dd:6e:3a:d3:57:82:c7:
                    0d:c3:3e:c9:2b:e8:41:19:ad:ca:f6:5f:24:2d:1d:
                    5e:fc:0b:d0:d9:27:b3:d5:f7:bf:bb:37:1f:eb:89:
                    4f:3a:a3:18:b6:0f:1a:48:a9:f0:cb:0c:55:03:a4:
                    ab:05:a9:1a:db:5d:cc:53:1b:7b:2b:f5:02:b1:17:
                    fa:c3:d8:3b:88:8d:c2:5a:88:00:05:4c:23:4a:7a:
                    b5:0f:65:9f:d4:93:57:5e:06:90:d8:3a:88:c2:7f:
                    c4:4c:01:c2:2c:b2:f2:c8:30:4d:ca:0f:0b:2d:d7:
                    a9:2d:74:96:dc:70:57:ad:fd:ab:57:0e:7e:a0:65:
                    97:22:c2:ff:85:93:4e:67:65:eb:8a:73:7a:96:4b:
                    e6:d0:27
                Exponent: 65537 (0x10001)
        X509v3 extensions:
            X509v3 Basic Constraints: 
                CA:FALSE
            Netscape Comment: 
                Easy-RSA Generated Certificate
            X509v3 Subject Key Identifier: 
                B9:67:6B:56:55:3E:BC:BF:51:7A:B4:B2:BA:53:42:05:61:7E:73:D9
            X509v3 Authority Key Identifier: 
                keyid:EF:38:8D:14:50:58:A7:5B:4D:9C:17:72:FC:DF:B9:AC:A7:51:B0:10
                DirName:/C=US/ST=CA/L=SanFrancisco/O=Pixglo, Inc./OU=VPN-CIE/CN=tunnel.pixglo.com/name=Bala Chandrasekaran/emailAddress=bala@pixglo.com
                serial:A6:DB:C6:83:80:E6:A0:79

            X509v3 Extended Key Usage: 
                TLS Web Client Authentication
            X509v3 Key Usage: 
                Digital Signature
    Signature Algorithm: sha1WithRSAEncryption
         8e:8f:ba:d7:49:f5:9d:85:13:a9:a2:66:40:93:b4:f6:83:f4:
         6c:39:55:4d:5e:04:1f:b7:53:79:00:67:ec:54:f3:19:f5:0c:
         a2:76:54:03:98:ff:c7:77:4a:bb:e1:f2:53:c0:aa:7e:08:43:
         37:d2:21:6d:36:e5:0c:78:76:22:d4:83:b9:87:d5:d7:93:65:
         83:a4:d9:0b:82:1c:7f:91:80:02:0e:bd:92:5d:ba:71:dd:e9:
         44:7d:61:96:19:03:09:49:c8:25:2d:d8:23:cf:c8:24:dd:3c:
         d8:85:48:ea:b9:f7:e3:0b:e2:a1:06:70:24:ef:09:81:43:64:
         de:6c:0a:52:7d:15:46:ff:41:d4:5b:7f:39:1d:fd:c9:3e:91:
         f9:45:45:dc:67:e1:46:d1:9d:36:38:46:59:38:74:ba:c2:ff:
         97:2f:bf:f4:9f:1f:a4:94:d4:9c:91:ce:fe:a9:47:2b:42:9d:
         d4:a4:61:9e:12:cf:b5:2d:ac:92:75:b2:b9:c3:19:73:83:44:
         3d:1f:8d:64:f7:a1:a5:04:06:de:40:01:0f:fb:80:18:90:89:
         85:05:03:f4:f5:f7:00:2e:19:e2:31:3b:5d:b4:c3:b7:b7:71:
         22:c0:2b:60:5c:c2:5b:30:42:ab:b1:c6:f5:c5:7a:d2:62:68:
         70:6a:8d:d5:8d:c7:3b:86:e7:2b:49:19:89:e3:4b:bd:7d:49:
         b4:fc:69:69:73:b9:c8:9b:a6:e6:82:e6:8c:fd:f9:3d:58:ad:
         cc:7a:51:9b:70:8a:03:d1:3d:ab:66:8b:de:6f:0a:8b:31:1a:
         fb:9e:33:26:87:30:a0:3b:f1:b0:bb:46:74:5b:99:7c:4f:97:
         ed:cd:e0:a1:76:5b:f5:23:8e:49:67:4d:e3:c3:4f:aa:12:90:
         72:41:d6:0e:c4:d3:63:39:5e:6f:f8:8a:c8:21:c7:af:55:a7:
         8b:bc:c3:e2:3c:f9:d6:00:d3:1b:a1:f5:e0:8d:fb:67:f1:93:
         76:c0:81:0c:1e:e2:dd:30:9d:e9:2f:75:4a:f1:cb:16:8f:8d:
         f5:2c:2a:90:80:e1:90:a9:26:fa:43:df:f2:29:7d:56:9b:1b:
         b3:10:e0:80:5b:ff:f4:ed:89:52:5c:3a:17:ff:ae:4c:3c:e8:
         09:05:61:c1:cd:42:de:d9:b9:2d:f0:f4:b3:d6:85:63:05:af:
         92:25:88:b5:d0:50:1a:bb:f2:74:e8:41:cc:c0:24:e4:c6:32:
         d0:0d:02:22:43:d4:36:9c:9c:e9:ce:61:bd:44:17:f3:0b:84:
         25:c6:6f:d5:2a:2f:d7:3f:ba:65:8e:2d:38:2f:5a:28:50:ff:
         14:c3:99:36:aa:36:5d:a8
-----BEGIN CERTIFICATE-----
MIIHSDCCBTCgAwIBAgICATIwDQYJKoZIhvcNAQEFBQAwgbQxCzAJBgNVBAYTAlVT
MQswCQYDVQQIEwJDQTEVMBMGA1UEBxMMU2FuRnJhbmNpc2NvMRUwEwYDVQQKEwxQ
aXhnbG8sIEluYy4xEDAOBgNVBAsTB1ZQTi1DSUUxGjAYBgNVBAMTEXR1bm5lbC5w
aXhnbG8uY29tMRwwGgYDVQQpExNCYWxhIENoYW5kcmFzZWthcmFuMR4wHAYJKoZI
hvcNAQkBFg9iYWxhQHBpeGdsby5jb20wHhcNMTgwMjE0MDYzMDA0WhcNMjgwMjEy
MDYzMDA0WjCBqTELMAkGA1UEBhMCVVMxCzAJBgNVBAgTAkNBMRUwEwYDVQQHEwxT
YW5GcmFuY2lzY28xFTATBgNVBAoTDFBpeGdsbywgSW5jLjEQMA4GA1UECxMHVlBO
LUNJRTEPMA0GA1UEAxMGY2llMzA1MRwwGgYDVQQpExNCYWxhIENoYW5kcmFzZWth
cmFuMR4wHAYJKoZIhvcNAQkBFg9iYWxhQHBpeGdsby5jb20wggIiMA0GCSqGSIb3
DQEBAQUAA4ICDwAwggIKAoICAQDbNMlxqfDyGOtZQ5gxftTRrKXUofB4oukqt3RY
/5eG/2bpc2g6q6XcsGcRfcLh8pxM9IhOw/WUBUu7Vo8QvnF8EpukyaS37BfqoFuP
ni31fhu6a1vDsKYyBOyBxEReWDZmIVIirkYyXWH5KStkRA3vXu/Z16XUczPsRIxp
/M2Sp7Js0LJLmVvruRYw5UrK0ACr9ggzwXQCaP7NYF/3BHQxbnnafQIxbAl1pbIj
lUInkWCCLZy/2rfVYJ75g4WeATZgCY5RgUGWJlq8u+hwrAMiKqbBIHKn2BoYC+A1
Fn8YnBE9EIXe/qGKaxv/Jowcy4rES/F9wbT0FCKBZy+i19f9B92r1cG622gnCldd
Yrh0M6JVEf8B19JQAnNj1MPYDWvKHN2ybOa8DZrHOMpd5C9OoNnEv08EDY8UD5LI
J4N3J4FzHI9VtbB8sH7rAx2X8tg6KuBSyQB/Y0crEHYavJ6Z7AOZygNxguaRU6qT
U6oq3W4601eCxw3DPskr6EEZrcr2XyQtHV78C9DZJ7PV97+7Nx/riU86oxi2DxpI
qfDLDFUDpKsFqRrbXcxTG3sr9QKxF/rD2DuIjcJaiAAFTCNKerUPZZ/Uk1deBpDY
OojCf8RMAcIssvLIME3KDwst16ktdJbccFet/atXDn6gZZciwv+Fk05nZeuKc3qW
S+bQJwIDAQABo4IBazCCAWcwCQYDVR0TBAIwADAtBglghkgBhvhCAQ0EIBYeRWFz
eS1SU0EgR2VuZXJhdGVkIENlcnRpZmljYXRlMB0GA1UdDgQWBBS5Z2tWVT68v1F6
tLK6U0IFYX5z2TCB6QYDVR0jBIHhMIHegBTvOI0UUFinW02cF3L837msp1GwEKGB
uqSBtzCBtDELMAkGA1UEBhMCVVMxCzAJBgNVBAgTAkNBMRUwEwYDVQQHEwxTYW5G
cmFuY2lzY28xFTATBgNVBAoTDFBpeGdsbywgSW5jLjEQMA4GA1UECxMHVlBOLUNJ
RTEaMBgGA1UEAxMRdHVubmVsLnBpeGdsby5jb20xHDAaBgNVBCkTE0JhbGEgQ2hh
bmRyYXNla2FyYW4xHjAcBgkqhkiG9w0BCQEWD2JhbGFAcGl4Z2xvLmNvbYIJAKbb
xoOA5qB5MBMGA1UdJQQMMAoGCCsGAQUFBwMCMAsGA1UdDwQEAwIHgDANBgkqhkiG
9w0BAQUFAAOCAgEAjo+610n1nYUTqaJmQJO09oP0bDlVTV4EH7dTeQBn7FTzGfUM
onZUA5j/x3dKu+HyU8CqfghDN9IhbTblDHh2ItSDuYfV15Nlg6TZC4Icf5GAAg69
kl26cd3pRH1hlhkDCUnIJS3YI8/IJN082IVI6rn34wvioQZwJO8JgUNk3mwKUn0V
Rv9B1Ft/OR39yT6R+UVF3GfhRtGdNjhGWTh0usL/ly+/9J8fpJTUnJHO/qlHK0Kd
1KRhnhLPtS2sknWyucMZc4NEPR+NZPehpQQG3kABD/uAGJCJhQUD9PX3AC4Z4jE7
XbTDt7dxIsArYFzCWzBCq7HG9cV60mJocGqN1Y3HO4bnK0kZieNLvX1JtPxpaXO5
yJum5oLmjP35PVitzHpRm3CKA9E9q2aL3m8KizEa+54zJocwoDvxsLtGdFuZfE+X
7c3goXZb9SOOSWdN48NPqhKQckHWDsTTYzleb/iKyCHHr1Wni7zD4jz51gDTG6H1
4I37Z/GTdsCBDB7i3TCd6S91SvHLFo+N9SwqkIDhkKkm+kPf8il9VpsbsxDggFv/
9O2JUlw6F/+uTDzoCQVhwc1C3tm5LfD0s9aFYwWvkiWItdBQGrvydOhBzMAk5MYy
0A0CIkPUNpyc6c5hvUQX8wuEJcZv1Sov1z+6ZY4tOC9aKFD/FMOZNqo2Xag=
-----END CERTIFICATE-----
