Certificate:
    Data:
        Version: 3 (0x2)
        Serial Number: 307 (0x133)
    Signature Algorithm: sha1WithRSAEncryption
        Issuer: C=US, ST=CA, L=SanFrancisco, O=Pixglo, Inc., OU=VPN-CIE, CN=tunnel.pixglo.com/name=Bala Chandrasekaran/emailAddress=bala@pixglo.com
        Validity
            Not Before: Feb 14 06:30:05 2018 GMT
            Not After : Feb 12 06:30:05 2028 GMT
        Subject: C=US, ST=CA, L=SanFrancisco, O=Pixglo, Inc., OU=VPN-CIE, CN=cie306/name=Bala Chandrasekaran/emailAddress=bala@pixglo.com
        Subject Public Key Info:
            Public Key Algorithm: rsaEncryption
                Public-Key: (4096 bit)
                Modulus:
                    00:aa:d7:47:c2:02:ac:99:bf:69:4a:a4:16:bf:6a:
                    28:5e:09:c6:91:7f:ae:27:e7:22:40:ac:f5:1c:5c:
                    a0:40:b1:8f:47:88:31:da:74:43:06:77:f7:f0:5f:
                    8d:f8:ab:c1:30:05:fe:01:a9:1d:37:f2:7d:41:c7:
                    7f:b1:57:ea:99:a1:da:e8:1f:cf:7e:34:64:3b:80:
                    64:10:df:73:79:35:4a:44:ae:73:4d:25:71:b0:99:
                    06:87:f4:24:c1:7e:b4:55:71:ea:ec:00:e8:36:cb:
                    a6:07:d2:be:af:fb:f2:5e:23:5d:55:c4:66:85:b0:
                    2d:84:2c:58:98:8a:73:3a:a0:24:05:91:1e:48:68:
                    87:22:73:09:07:12:e8:ec:3d:6b:6f:66:44:38:6d:
                    be:84:ca:b1:fe:80:e0:ab:e4:29:62:ad:98:ca:b0:
                    7f:b4:e1:08:f5:8c:36:45:b3:71:83:4b:b8:bc:9b:
                    ab:bb:70:7d:83:a1:2a:9c:54:50:5c:4c:1c:47:91:
                    2b:fc:9b:05:93:3f:39:84:c6:2a:77:cd:57:2d:c7:
                    7c:74:3d:13:aa:6c:25:5e:3b:af:33:b6:46:6b:5c:
                    66:ef:99:c4:5a:5f:0d:2c:7c:1a:e8:4b:e7:fe:c8:
                    18:3e:cf:17:a4:ea:bb:76:b5:ba:54:b5:43:a5:7b:
                    c5:d0:b0:b3:ea:4c:09:36:df:02:1a:f0:d9:18:28:
                    ed:fc:c5:e1:ec:9b:92:1e:94:48:8e:c3:f0:e7:fd:
                    cd:37:1e:3c:06:6d:de:d8:c1:b6:d0:ba:46:f1:ab:
                    08:33:09:dc:a0:23:86:29:60:2b:fb:74:78:94:00:
                    e0:da:e5:2b:a0:71:61:8e:f4:5c:99:55:36:4a:82:
                    b6:c9:a6:50:58:17:87:94:b9:5a:3e:37:25:f2:68:
                    b9:b7:93:78:ec:0d:b1:77:ce:e6:bc:84:20:41:f5:
                    0a:66:fd:97:d5:15:52:32:c6:94:5c:72:8b:52:82:
                    12:75:3c:e7:ed:cf:a2:ef:fc:2d:79:2d:fd:bf:75:
                    9e:2d:dd:7e:59:e9:a9:92:98:84:d2:88:e4:94:86:
                    91:f4:2e:14:9d:0f:f7:6a:79:28:92:a9:90:98:e7:
                    35:02:4f:28:57:3b:5e:aa:25:d1:8a:ad:d5:de:8e:
                    03:e6:b1:c5:31:5e:87:02:e1:e3:bb:4a:90:ad:51:
                    e1:e8:bf:53:7f:5b:c3:65:2a:f0:88:7b:fa:86:20:
                    c8:17:6e:2a:97:bf:82:6c:73:1d:8f:11:b0:0f:a1:
                    7d:f9:13:1f:a8:6f:dc:52:22:37:84:6a:c9:a9:49:
                    d3:b1:87:91:8e:2c:95:c7:4c:ec:d0:b8:67:9f:f4:
                    e6:59:79
                Exponent: 65537 (0x10001)
        X509v3 extensions:
            X509v3 Basic Constraints: 
                CA:FALSE
            Netscape Comment: 
                Easy-RSA Generated Certificate
            X509v3 Subject Key Identifier: 
                CF:3B:92:23:32:5F:14:A9:7D:A4:25:99:3A:59:F2:8F:D1:17:78:BA
            X509v3 Authority Key Identifier: 
                keyid:EF:38:8D:14:50:58:A7:5B:4D:9C:17:72:FC:DF:B9:AC:A7:51:B0:10
                DirName:/C=US/ST=CA/L=SanFrancisco/O=Pixglo, Inc./OU=VPN-CIE/CN=tunnel.pixglo.com/name=Bala Chandrasekaran/emailAddress=bala@pixglo.com
                serial:A6:DB:C6:83:80:E6:A0:79

            X509v3 Extended Key Usage: 
                TLS Web Client Authentication
            X509v3 Key Usage: 
                Digital Signature
    Signature Algorithm: sha1WithRSAEncryption
         20:31:65:6d:1f:ac:62:25:19:8c:b4:60:93:57:0d:c6:c0:c1:
         b7:b7:a0:6e:a3:bb:63:0b:6f:5b:03:9a:c3:cc:75:95:0d:6a:
         d7:b3:9f:bf:aa:bd:05:2c:74:d6:87:46:be:5f:45:c0:24:6b:
         50:af:dd:aa:23:52:a9:f5:1b:cb:a4:e6:4e:a4:86:58:93:1e:
         d1:d5:cc:3b:5f:73:47:53:42:27:29:04:b1:08:53:f6:e2:6c:
         24:29:65:e7:66:f8:6c:40:09:dd:b4:46:ba:72:f4:34:3c:65:
         08:78:0e:72:87:6a:40:3d:f4:d0:2c:82:6e:9a:6c:b4:f1:b6:
         9f:49:a6:f0:6f:c5:d2:a3:58:3c:aa:e4:2a:a0:9c:fd:f3:83:
         65:5e:65:7d:56:b7:74:4c:93:22:ba:57:ea:9a:74:a4:e4:32:
         47:78:85:17:d1:d3:46:73:f1:a7:4c:bc:bf:9c:8a:b4:8c:50:
         2d:6c:ed:d4:d6:d5:7a:be:2f:37:dc:12:72:7e:92:c1:75:8c:
         6e:9e:54:b2:67:94:b5:f9:4a:2a:00:73:a6:d5:7b:1d:3d:26:
         a2:81:c7:a3:99:83:4f:0e:b2:ed:d1:e0:57:45:e3:ae:7a:97:
         d6:26:79:da:dd:ea:50:7e:d6:48:a2:9a:f7:df:d2:f8:0b:04:
         e1:e8:d6:7d:9b:ca:3a:16:84:c0:3c:bd:b7:b8:4a:8c:af:ea:
         1d:27:01:61:9e:ca:52:ba:02:d9:1b:d5:01:f5:14:5b:9e:4f:
         a2:08:eb:64:90:4b:a3:ca:26:d7:4b:ae:9f:56:6a:6b:8b:03:
         61:ed:6c:f2:a8:76:9d:c1:96:66:67:dc:fa:12:fb:a4:3f:60:
         45:4b:3c:4a:5b:c9:a7:d4:6e:59:fd:e1:8c:8c:8f:85:85:4b:
         6f:d7:1b:2e:bf:14:94:90:86:2b:46:6a:b7:b4:2e:08:ec:20:
         aa:44:bd:d3:32:83:17:2b:53:fe:d1:1f:2e:d6:d0:bf:ae:b3:
         b6:d3:30:96:1a:5a:d9:6b:61:23:e1:be:d2:c3:ce:e6:71:67:
         03:8a:b2:62:8f:dd:0b:90:63:40:3a:13:40:66:f3:18:f9:e9:
         b5:55:10:64:ce:79:59:5b:d7:86:cd:4a:2c:48:f3:e7:04:8d:
         09:bd:0e:44:14:e4:30:d2:a0:5b:df:3a:33:b2:0e:6a:64:94:
         19:77:f1:af:21:99:98:c3:a5:4a:b8:92:58:db:f4:32:f6:84:
         be:35:ec:27:66:39:25:8e:34:79:99:f7:21:87:a3:95:d1:b2:
         27:c2:56:28:bb:8b:1b:b9:c0:11:38:54:f1:5b:73:fc:53:be:
         c8:43:61:ad:91:ea:c0:4a
-----BEGIN CERTIFICATE-----
MIIHSDCCBTCgAwIBAgICATMwDQYJKoZIhvcNAQEFBQAwgbQxCzAJBgNVBAYTAlVT
MQswCQYDVQQIEwJDQTEVMBMGA1UEBxMMU2FuRnJhbmNpc2NvMRUwEwYDVQQKEwxQ
aXhnbG8sIEluYy4xEDAOBgNVBAsTB1ZQTi1DSUUxGjAYBgNVBAMTEXR1bm5lbC5w
aXhnbG8uY29tMRwwGgYDVQQpExNCYWxhIENoYW5kcmFzZWthcmFuMR4wHAYJKoZI
hvcNAQkBFg9iYWxhQHBpeGdsby5jb20wHhcNMTgwMjE0MDYzMDA1WhcNMjgwMjEy
MDYzMDA1WjCBqTELMAkGA1UEBhMCVVMxCzAJBgNVBAgTAkNBMRUwEwYDVQQHEwxT
YW5GcmFuY2lzY28xFTATBgNVBAoTDFBpeGdsbywgSW5jLjEQMA4GA1UECxMHVlBO
LUNJRTEPMA0GA1UEAxMGY2llMzA2MRwwGgYDVQQpExNCYWxhIENoYW5kcmFzZWth
cmFuMR4wHAYJKoZIhvcNAQkBFg9iYWxhQHBpeGdsby5jb20wggIiMA0GCSqGSIb3
DQEBAQUAA4ICDwAwggIKAoICAQCq10fCAqyZv2lKpBa/aiheCcaRf64n5yJArPUc
XKBAsY9HiDHadEMGd/fwX434q8EwBf4BqR038n1Bx3+xV+qZodroH89+NGQ7gGQQ
33N5NUpErnNNJXGwmQaH9CTBfrRVcersAOg2y6YH0r6v+/JeI11VxGaFsC2ELFiY
inM6oCQFkR5IaIcicwkHEujsPWtvZkQ4bb6EyrH+gOCr5ClirZjKsH+04Qj1jDZF
s3GDS7i8m6u7cH2DoSqcVFBcTBxHkSv8mwWTPzmExip3zVctx3x0PROqbCVeO68z
tkZrXGbvmcRaXw0sfBroS+f+yBg+zxek6rt2tbpUtUOle8XQsLPqTAk23wIa8NkY
KO38xeHsm5IelEiOw/Dn/c03HjwGbd7YwbbQukbxqwgzCdygI4YpYCv7dHiUAODa
5SugcWGO9FyZVTZKgrbJplBYF4eUuVo+NyXyaLm3k3jsDbF3zua8hCBB9Qpm/ZfV
FVIyxpRccotSghJ1POftz6Lv/C15Lf2/dZ4t3X5Z6amSmITSiOSUhpH0LhSdD/dq
eSiSqZCY5zUCTyhXO16qJdGKrdXejgPmscUxXocC4eO7SpCtUeHov1N/W8NlKvCI
e/qGIMgXbiqXv4Jscx2PEbAPoX35Ex+ob9xSIjeEasmpSdOxh5GOLJXHTOzQuGef
9OZZeQIDAQABo4IBazCCAWcwCQYDVR0TBAIwADAtBglghkgBhvhCAQ0EIBYeRWFz
eS1SU0EgR2VuZXJhdGVkIENlcnRpZmljYXRlMB0GA1UdDgQWBBTPO5IjMl8UqX2k
JZk6WfKP0Rd4ujCB6QYDVR0jBIHhMIHegBTvOI0UUFinW02cF3L837msp1GwEKGB
uqSBtzCBtDELMAkGA1UEBhMCVVMxCzAJBgNVBAgTAkNBMRUwEwYDVQQHEwxTYW5G
cmFuY2lzY28xFTATBgNVBAoTDFBpeGdsbywgSW5jLjEQMA4GA1UECxMHVlBOLUNJ
RTEaMBgGA1UEAxMRdHVubmVsLnBpeGdsby5jb20xHDAaBgNVBCkTE0JhbGEgQ2hh
bmRyYXNla2FyYW4xHjAcBgkqhkiG9w0BCQEWD2JhbGFAcGl4Z2xvLmNvbYIJAKbb
xoOA5qB5MBMGA1UdJQQMMAoGCCsGAQUFBwMCMAsGA1UdDwQEAwIHgDANBgkqhkiG
9w0BAQUFAAOCAgEAIDFlbR+sYiUZjLRgk1cNxsDBt7egbqO7YwtvWwOaw8x1lQ1q
17Ofv6q9BSx01odGvl9FwCRrUK/dqiNSqfUby6TmTqSGWJMe0dXMO19zR1NCJykE
sQhT9uJsJCll52b4bEAJ3bRGunL0NDxlCHgOcodqQD300CyCbppstPG2n0mm8G/F
0qNYPKrkKqCc/fODZV5lfVa3dEyTIrpX6pp0pOQyR3iFF9HTRnPxp0y8v5yKtIxQ
LWzt1NbVer4vN9wScn6SwXWMbp5UsmeUtflKKgBzptV7HT0mooHHo5mDTw6y7dHg
V0XjrnqX1iZ52t3qUH7WSKKa99/S+AsE4ejWfZvKOhaEwDy9t7hKjK/qHScBYZ7K
UroC2RvVAfUUW55PogjrZJBLo8om10uun1Zqa4sDYe1s8qh2ncGWZmfc+hL7pD9g
RUs8SlvJp9RuWf3hjIyPhYVLb9cbLr8UlJCGK0Zqt7QuCOwgqkS90zKDFytT/tEf
LtbQv66zttMwlhpa2WthI+G+0sPO5nFnA4qyYo/dC5BjQDoTQGbzGPnptVUQZM55
WVvXhs1KLEjz5wSNCb0ORBTkMNKgW986M7IOamSUGXfxryGZmMOlSriSWNv0MvaE
vjXsJ2Y5JY40eZn3IYejldGyJ8JWKLuLG7nAEThU8Vtz/FO+yENhrZHqwEo=
-----END CERTIFICATE-----
