Certificate:
    Data:
        Version: 3 (0x2)
        Serial Number: 308 (0x134)
    Signature Algorithm: sha1WithRSAEncryption
        Issuer: C=US, ST=CA, L=SanFrancisco, O=Pixglo, Inc., OU=VPN-CIE, CN=tunnel.pixglo.com/name=Bala Chandrasekaran/emailAddress=bala@pixglo.com
        Validity
            Not Before: Feb 14 06:30:05 2018 GMT
            Not After : Feb 12 06:30:05 2028 GMT
        Subject: C=US, ST=CA, L=SanFrancisco, O=Pixglo, Inc., OU=VPN-CIE, CN=cie307/name=Bala Chandrasekaran/emailAddress=bala@pixglo.com
        Subject Public Key Info:
            Public Key Algorithm: rsaEncryption
                Public-Key: (4096 bit)
                Modulus:
                    00:ab:59:20:fd:d3:b4:df:e8:c2:81:e1:38:a9:21:
                    32:c3:0e:6f:35:41:37:4c:72:1b:2c:35:0b:bc:90:
                    7d:e6:83:a7:c0:cb:de:70:6f:16:28:59:bf:4a:ac:
                    e9:6b:b7:09:15:da:c0:3d:5d:02:20:68:95:cd:2a:
                    f6:8d:b7:40:34:01:db:92:6e:ab:db:ca:62:aa:54:
                    47:b7:bf:b4:8c:2a:92:87:00:ed:9c:78:24:c1:68:
                    0d:c4:9c:21:c5:0e:97:61:88:d5:98:f2:a1:6a:f1:
                    ed:7b:3c:28:a3:fa:3f:1b:54:3c:e4:2f:6f:d2:52:
                    fe:0d:c9:eb:db:6a:b0:b5:9c:03:f0:0c:f4:d2:a3:
                    05:29:47:c2:33:56:fb:d9:f5:2c:65:82:aa:d5:01:
                    10:51:f1:da:45:58:31:e0:6a:f1:cb:29:7c:a6:eb:
                    86:7c:b9:56:3f:27:a5:3d:18:17:ed:55:3a:2c:14:
                    ef:fa:cd:86:8b:96:c8:dd:a9:bf:07:65:9d:56:19:
                    a0:04:f3:3e:ed:8d:26:fb:17:26:b2:7d:fe:ca:59:
                    ba:c5:c8:c4:ce:43:b8:7d:a0:69:8e:82:25:60:fa:
                    3c:9f:60:c4:27:bc:44:81:29:9b:d2:18:aa:13:32:
                    24:ab:f8:c9:ad:8a:86:00:21:db:c6:a0:9c:f7:4f:
                    69:77:85:ee:c1:1d:8f:98:08:4a:66:b6:bd:1c:b6:
                    ba:41:08:8f:54:cb:28:5c:ce:7e:0d:9e:b6:a0:2b:
                    b6:3a:17:5a:0d:0b:5c:c3:00:b6:22:a3:e2:42:23:
                    9d:11:a5:30:d7:d6:86:fb:3b:2e:5a:c8:c8:79:1e:
                    fa:d5:3e:28:10:53:9b:87:02:63:12:62:6b:2e:76:
                    00:10:d6:9f:d2:6e:b5:ae:8c:72:8d:14:d8:8e:38:
                    1a:44:76:c4:c8:62:fa:15:e4:83:3f:bf:61:73:9b:
                    98:df:39:96:d2:48:9a:f2:f4:00:24:8c:44:e8:39:
                    c2:cb:15:3e:2a:3c:b0:eb:8e:38:bf:24:b7:a8:f8:
                    5e:49:ca:15:c8:6d:b2:30:98:b3:74:e4:a9:44:09:
                    06:1e:c1:e2:c2:36:bc:9e:41:ab:b7:bc:fa:c8:de:
                    dc:ef:0f:bb:ab:f6:1d:e3:8d:de:da:70:d1:73:33:
                    d2:da:46:21:38:01:31:39:54:76:f2:90:1c:7e:d2:
                    d4:78:ea:29:c0:3e:09:0b:47:fb:77:a3:86:88:5f:
                    e5:df:d3:4f:46:27:bd:7a:8a:3b:4f:01:e6:2c:c5:
                    f4:21:8e:c5:e0:00:2a:77:33:a0:7f:71:fb:57:15:
                    07:80:24:7c:83:1b:fc:49:f9:92:37:4a:56:43:75:
                    23:f0:7f
                Exponent: 65537 (0x10001)
        X509v3 extensions:
            X509v3 Basic Constraints: 
                CA:FALSE
            Netscape Comment: 
                Easy-RSA Generated Certificate
            X509v3 Subject Key Identifier: 
                36:1F:35:27:D7:D9:42:96:BA:52:5D:43:38:8C:33:A9:F1:96:26:A0
            X509v3 Authority Key Identifier: 
                keyid:EF:38:8D:14:50:58:A7:5B:4D:9C:17:72:FC:DF:B9:AC:A7:51:B0:10
                DirName:/C=US/ST=CA/L=SanFrancisco/O=Pixglo, Inc./OU=VPN-CIE/CN=tunnel.pixglo.com/name=Bala Chandrasekaran/emailAddress=bala@pixglo.com
                serial:A6:DB:C6:83:80:E6:A0:79

            X509v3 Extended Key Usage: 
                TLS Web Client Authentication
            X509v3 Key Usage: 
                Digital Signature
    Signature Algorithm: sha1WithRSAEncryption
         b5:32:22:f1:0f:8f:6f:6d:26:80:7c:95:45:62:c5:88:2c:83:
         f2:1b:ca:24:8c:fe:d7:aa:15:5d:9a:e5:ad:26:45:3b:fa:74:
         67:e8:3a:67:13:11:9e:6f:77:2b:bc:d5:d2:c0:bc:31:3a:2f:
         56:c8:fd:be:15:07:4c:17:40:5e:1d:e8:7f:82:21:16:c6:68:
         45:a6:7d:cc:48:24:82:5c:d7:be:b0:75:ba:b4:f5:c0:8e:80:
         88:9e:9c:8f:76:dd:40:e6:ea:ba:14:fe:77:76:82:97:cc:71:
         fb:9f:b2:01:18:da:9d:06:06:64:bd:97:37:60:54:31:42:5f:
         93:ff:fe:67:de:3e:f6:a1:26:8e:15:c8:79:ba:75:f9:21:92:
         07:7b:e6:e8:58:f4:3e:88:dd:08:33:2a:c9:f1:9d:e2:2f:07:
         d5:20:69:c0:ac:86:11:0f:23:27:fa:4f:1c:dd:a2:4c:68:fe:
         5c:9a:a8:65:6a:cc:23:a5:2c:60:7b:36:26:b0:21:5b:fd:70:
         4c:d1:87:6e:79:5c:f8:a1:4a:75:74:90:5a:fa:82:6c:c1:41:
         41:f0:26:a9:3e:2e:59:dc:bc:9d:ec:b3:7d:c6:dc:c4:4a:76:
         08:3d:7c:d1:31:76:90:b2:d7:62:d0:e0:e9:3c:28:6b:b9:95:
         ab:ce:63:6a:5c:3a:1d:f6:bb:13:31:59:0a:17:8f:b4:98:04:
         30:43:0a:88:e0:ac:8b:15:9d:36:e5:3c:79:64:9e:f2:36:6b:
         d9:91:27:81:fe:b9:24:0e:96:8e:86:70:57:22:3e:3a:d7:57:
         e8:7b:73:67:9f:53:66:9c:62:3f:64:36:b9:91:5a:40:2d:8e:
         7c:41:78:01:ae:0c:0a:11:df:1b:41:cf:b9:51:c3:cd:56:37:
         05:49:87:f7:40:26:dc:47:58:1c:78:ae:c3:30:e3:05:84:ab:
         b2:62:69:1d:9f:41:bb:e6:d4:10:71:58:85:bc:5b:31:0c:45:
         20:eb:44:04:34:71:a1:67:de:6b:53:66:fe:e9:1c:15:c8:cb:
         e0:89:c1:21:90:1e:76:b5:ff:36:4b:b2:7d:a6:3d:99:61:3b:
         1c:7c:ad:44:06:92:0d:fc:fb:cc:ed:0c:67:2a:35:f6:34:e9:
         28:23:b1:ca:c2:11:f1:20:f9:67:f9:dd:b3:bf:73:54:60:da:
         19:b3:e9:6e:40:86:d8:b8:97:ab:c4:73:4c:52:0c:d2:da:cf:
         80:a1:76:df:54:1b:fc:5a:a3:b8:b4:ae:9c:4f:eb:b7:fc:90:
         c6:9a:60:05:9a:39:44:b4:af:27:9b:2b:11:c5:41:5f:c7:22:
         34:f9:34:b4:2b:dc:2c:7a
-----BEGIN CERTIFICATE-----
MIIHSDCCBTCgAwIBAgICATQwDQYJKoZIhvcNAQEFBQAwgbQxCzAJBgNVBAYTAlVT
MQswCQYDVQQIEwJDQTEVMBMGA1UEBxMMU2FuRnJhbmNpc2NvMRUwEwYDVQQKEwxQ
aXhnbG8sIEluYy4xEDAOBgNVBAsTB1ZQTi1DSUUxGjAYBgNVBAMTEXR1bm5lbC5w
aXhnbG8uY29tMRwwGgYDVQQpExNCYWxhIENoYW5kcmFzZWthcmFuMR4wHAYJKoZI
hvcNAQkBFg9iYWxhQHBpeGdsby5jb20wHhcNMTgwMjE0MDYzMDA1WhcNMjgwMjEy
MDYzMDA1WjCBqTELMAkGA1UEBhMCVVMxCzAJBgNVBAgTAkNBMRUwEwYDVQQHEwxT
YW5GcmFuY2lzY28xFTATBgNVBAoTDFBpeGdsbywgSW5jLjEQMA4GA1UECxMHVlBO
LUNJRTEPMA0GA1UEAxMGY2llMzA3MRwwGgYDVQQpExNCYWxhIENoYW5kcmFzZWth
cmFuMR4wHAYJKoZIhvcNAQkBFg9iYWxhQHBpeGdsby5jb20wggIiMA0GCSqGSIb3
DQEBAQUAA4ICDwAwggIKAoICAQCrWSD907Tf6MKB4TipITLDDm81QTdMchssNQu8
kH3mg6fAy95wbxYoWb9KrOlrtwkV2sA9XQIgaJXNKvaNt0A0AduSbqvbymKqVEe3
v7SMKpKHAO2ceCTBaA3EnCHFDpdhiNWY8qFq8e17PCij+j8bVDzkL2/SUv4Nyevb
arC1nAPwDPTSowUpR8IzVvvZ9SxlgqrVARBR8dpFWDHgavHLKXym64Z8uVY/J6U9
GBftVTosFO/6zYaLlsjdqb8HZZ1WGaAE8z7tjSb7Fyayff7KWbrFyMTOQ7h9oGmO
giVg+jyfYMQnvESBKZvSGKoTMiSr+MmtioYAIdvGoJz3T2l3he7BHY+YCEpmtr0c
trpBCI9Uyyhczn4NnragK7Y6F1oNC1zDALYio+JCI50RpTDX1ob7Oy5ayMh5HvrV
PigQU5uHAmMSYmsudgAQ1p/SbrWujHKNFNiOOBpEdsTIYvoV5IM/v2Fzm5jfOZbS
SJry9AAkjEToOcLLFT4qPLDrjji/JLeo+F5JyhXIbbIwmLN05KlECQYeweLCNrye
Qau3vPrI3tzvD7ur9h3jjd7acNFzM9LaRiE4ATE5VHbykBx+0tR46inAPgkLR/t3
o4aIX+Xf009GJ716ijtPAeYsxfQhjsXgACp3M6B/cftXFQeAJHyDG/xJ+ZI3SlZD
dSPwfwIDAQABo4IBazCCAWcwCQYDVR0TBAIwADAtBglghkgBhvhCAQ0EIBYeRWFz
eS1SU0EgR2VuZXJhdGVkIENlcnRpZmljYXRlMB0GA1UdDgQWBBQ2HzUn19lClrpS
XUM4jDOp8ZYmoDCB6QYDVR0jBIHhMIHegBTvOI0UUFinW02cF3L837msp1GwEKGB
uqSBtzCBtDELMAkGA1UEBhMCVVMxCzAJBgNVBAgTAkNBMRUwEwYDVQQHEwxTYW5G
cmFuY2lzY28xFTATBgNVBAoTDFBpeGdsbywgSW5jLjEQMA4GA1UECxMHVlBOLUNJ
RTEaMBgGA1UEAxMRdHVubmVsLnBpeGdsby5jb20xHDAaBgNVBCkTE0JhbGEgQ2hh
bmRyYXNla2FyYW4xHjAcBgkqhkiG9w0BCQEWD2JhbGFAcGl4Z2xvLmNvbYIJAKbb
xoOA5qB5MBMGA1UdJQQMMAoGCCsGAQUFBwMCMAsGA1UdDwQEAwIHgDANBgkqhkiG
9w0BAQUFAAOCAgEAtTIi8Q+Pb20mgHyVRWLFiCyD8hvKJIz+16oVXZrlrSZFO/p0
Z+g6ZxMRnm93K7zV0sC8MTovVsj9vhUHTBdAXh3of4IhFsZoRaZ9zEgkglzXvrB1
urT1wI6AiJ6cj3bdQObquhT+d3aCl8xx+5+yARjanQYGZL2XN2BUMUJfk//+Z94+
9qEmjhXIebp1+SGSB3vm6Fj0PojdCDMqyfGd4i8H1SBpwKyGEQ8jJ/pPHN2iTGj+
XJqoZWrMI6UsYHs2JrAhW/1wTNGHbnlc+KFKdXSQWvqCbMFBQfAmqT4uWdy8neyz
fcbcxEp2CD180TF2kLLXYtDg6Twoa7mVq85jalw6Hfa7EzFZChePtJgEMEMKiOCs
ixWdNuU8eWSe8jZr2ZEngf65JA6WjoZwVyI+OtdX6HtzZ59TZpxiP2Q2uZFaQC2O
fEF4Aa4MChHfG0HPuVHDzVY3BUmH90Am3EdYHHiuwzDjBYSrsmJpHZ9Bu+bUEHFY
hbxbMQxFIOtEBDRxoWfea1Nm/ukcFcjL4InBIZAedrX/NkuyfaY9mWE7HHytRAaS
Dfz7zO0MZyo19jTpKCOxysIR8SD5Z/nds79zVGDaGbPpbkCG2LiXq8RzTFIM0trP
gKF231Qb/FqjuLSunE/rt/yQxppgBZo5RLSvJ5srEcVBX8ciNPk0tCvcLHo=
-----END CERTIFICATE-----
