Certificate:
    Data:
        Version: 3 (0x2)
        Serial Number: 309 (0x135)
    Signature Algorithm: sha1WithRSAEncryption
        Issuer: C=US, ST=CA, L=SanFrancisco, O=Pixglo, Inc., OU=VPN-CIE, CN=tunnel.pixglo.com/name=Bala Chandrasekaran/emailAddress=bala@pixglo.com
        Validity
            Not Before: Feb 14 06:30:06 2018 GMT
            Not After : Feb 12 06:30:06 2028 GMT
        Subject: C=US, ST=CA, L=SanFrancisco, O=Pixglo, Inc., OU=VPN-CIE, CN=cie308/name=Bala Chandrasekaran/emailAddress=bala@pixglo.com
        Subject Public Key Info:
            Public Key Algorithm: rsaEncryption
                Public-Key: (4096 bit)
                Modulus:
                    00:d8:44:31:9c:d4:d8:4e:d0:5d:d2:f6:26:f8:41:
                    1e:b5:49:40:94:52:83:02:75:45:dc:4d:e3:f5:ef:
                    73:b4:1f:e2:21:88:53:4e:b3:6c:65:ad:4d:07:f8:
                    0b:93:9f:df:66:58:6d:f4:6f:f9:25:09:e4:05:a0:
                    1d:3a:fb:88:80:8c:15:d5:5f:01:d2:12:de:70:02:
                    b2:5e:2b:cd:2a:30:05:1e:85:ca:87:d7:c0:d6:29:
                    19:0a:50:08:6c:f2:60:bd:52:da:52:45:1e:df:f2:
                    ca:42:51:ca:40:f2:37:1d:a9:c4:90:66:76:43:f5:
                    0b:92:a2:88:c1:0b:a0:d9:57:3f:c8:2b:1c:d1:61:
                    26:e0:09:be:db:b5:9e:20:75:8b:44:a7:fb:43:06:
                    51:3a:81:3f:a5:3c:61:07:5a:71:5d:aa:e1:e7:90:
                    c9:e5:14:2a:7d:80:85:4a:72:25:26:96:77:1e:c2:
                    f6:31:1e:31:1b:67:ef:cc:7d:1b:72:f9:fa:bb:c6:
                    ba:47:cd:07:80:b4:36:cd:74:c1:9b:7a:5d:1d:21:
                    8b:cb:0c:49:4c:f7:7d:8d:c3:a6:3e:3e:89:e8:70:
                    70:41:46:2b:71:20:fb:84:c6:1e:4f:1b:42:da:9a:
                    b0:9f:70:26:f0:28:14:aa:30:0d:8d:97:5f:1a:ae:
                    88:35:cc:ee:12:82:1d:ae:4c:93:db:87:8d:f6:f3:
                    d6:6e:a2:f5:57:32:b5:f0:6b:16:1a:f4:81:94:a7:
                    44:32:ee:71:7a:e6:78:03:13:06:ff:b6:b2:f2:a2:
                    fc:3f:28:9f:7f:14:cb:ce:1b:bc:5b:54:0c:d4:ef:
                    f9:b1:db:f4:56:57:fd:c9:38:97:24:e8:a1:04:4b:
                    44:8b:08:38:f4:6d:5d:6a:09:12:ee:76:7c:fd:18:
                    40:cc:ae:60:a9:89:70:1a:3b:b5:42:30:7d:81:27:
                    ef:81:2b:f2:97:10:04:1a:7f:51:7e:10:2b:04:2b:
                    16:69:1b:3f:3c:92:1d:a2:26:32:2f:5a:33:2f:36:
                    45:ef:c6:38:7f:b7:23:23:d2:f3:91:4d:6c:02:ba:
                    88:fc:0b:5a:8f:f5:04:ad:0f:37:16:ff:b2:08:21:
                    89:4b:9a:a8:af:4a:5e:f0:c5:88:c5:aa:ce:d0:e7:
                    05:bb:4a:bb:5a:59:9c:c4:09:f7:04:eb:3a:45:49:
                    0b:04:0e:cc:0c:61:b5:a8:f1:0a:e2:fb:d7:42:71:
                    1e:e3:a9:5e:d5:b2:27:cf:d3:16:e3:70:df:af:de:
                    b6:eb:4e:3a:ef:e3:2e:f4:ef:76:07:ba:1c:7d:1a:
                    b5:ff:d5:66:7e:93:d0:14:de:f6:de:8c:f0:0b:05:
                    82:ff:f9
                Exponent: 65537 (0x10001)
        X509v3 extensions:
            X509v3 Basic Constraints: 
                CA:FALSE
            Netscape Comment: 
                Easy-RSA Generated Certificate
            X509v3 Subject Key Identifier: 
                DC:77:DE:4C:73:7B:C7:37:28:C9:90:0C:4D:14:9A:76:17:AD:32:05
            X509v3 Authority Key Identifier: 
                keyid:EF:38:8D:14:50:58:A7:5B:4D:9C:17:72:FC:DF:B9:AC:A7:51:B0:10
                DirName:/C=US/ST=CA/L=SanFrancisco/O=Pixglo, Inc./OU=VPN-CIE/CN=tunnel.pixglo.com/name=Bala Chandrasekaran/emailAddress=bala@pixglo.com
                serial:A6:DB:C6:83:80:E6:A0:79

            X509v3 Extended Key Usage: 
                TLS Web Client Authentication
            X509v3 Key Usage: 
                Digital Signature
    Signature Algorithm: sha1WithRSAEncryption
         e0:db:31:22:22:09:50:31:cb:c9:b0:50:0b:cf:e6:5d:4e:8d:
         17:f2:dd:c4:97:61:73:69:df:3b:18:27:d0:8e:20:dc:7a:c1:
         31:69:13:25:99:0f:02:cc:48:d6:6e:eb:55:db:7e:e1:eb:00:
         83:d1:bd:af:58:12:85:ee:17:9b:96:60:78:38:39:47:44:1f:
         f8:f4:28:94:1b:e0:f8:10:5d:8d:dc:b5:af:ab:a8:f5:3d:1f:
         2a:ac:0c:64:bb:36:85:99:e6:62:37:c3:69:45:99:75:6b:6b:
         e1:2e:c1:ee:ac:2c:c9:f3:ee:8e:54:f9:18:c1:8d:2a:fd:a2:
         90:01:3f:ec:bf:a7:af:ce:36:0f:00:ab:8c:4d:ad:d1:eb:97:
         9e:58:6e:4f:cd:cf:09:61:6d:66:0f:48:1b:9c:5f:ce:d1:f2:
         e9:a1:b5:e1:09:39:4b:f1:5d:29:99:52:49:d5:55:bd:fa:76:
         f7:07:5f:9f:6b:2a:79:56:65:25:c5:09:fe:35:6d:a2:5a:0e:
         dc:de:7f:5d:cc:e9:17:b9:d2:0d:e2:3a:30:64:fa:41:b4:ce:
         08:da:45:c1:70:2b:13:4b:2c:87:11:03:fc:20:68:b3:c5:45:
         fc:3b:70:34:33:e7:8c:dd:f1:49:cc:91:98:52:c5:98:82:88:
         f4:a8:1d:6f:6c:8a:eb:93:e3:c2:3e:cf:e4:c0:f4:94:02:e7:
         2a:a3:d2:e5:7a:b5:35:91:b5:99:e6:64:75:9c:5d:3d:56:da:
         5d:7e:92:2d:51:a0:62:c3:af:f2:1a:b2:d9:ad:cd:75:63:3f:
         e2:9c:13:25:12:f1:4b:02:46:29:34:ae:d3:78:01:f3:9f:65:
         e3:84:0f:70:97:c1:9d:5d:d1:30:fa:a2:de:0d:3c:0a:67:1b:
         32:5b:f7:52:63:cd:93:e6:91:d6:e0:f8:80:60:1c:a0:ea:b9:
         3c:9b:dd:4e:56:00:29:fa:bd:9c:ba:36:e4:33:d3:fc:1f:2c:
         cc:42:41:2e:6e:cb:cf:87:46:1f:30:9c:61:e5:1a:9f:c0:fc:
         9c:4a:66:87:fe:94:06:b9:d4:fb:c9:79:4c:98:5e:1a:4f:4e:
         80:e4:a0:5e:3b:ff:5b:9e:58:2f:dd:c7:c7:3e:87:b2:03:a9:
         ef:fc:d9:d5:a9:25:ed:6a:37:a0:92:4f:73:b7:ce:f9:cb:14:
         96:ca:e4:be:55:34:d8:f1:8a:10:68:eb:79:21:e7:cb:8c:82:
         14:5e:2e:31:0d:1e:3f:4d:5f:af:b2:d1:4b:64:fa:5b:1f:75:
         85:21:e8:e1:88:38:25:5d:20:5c:72:06:52:78:07:85:d0:41:
         bc:03:96:a3:5e:73:3d:e2
-----BEGIN CERTIFICATE-----
MIIHSDCCBTCgAwIBAgICATUwDQYJKoZIhvcNAQEFBQAwgbQxCzAJBgNVBAYTAlVT
MQswCQYDVQQIEwJDQTEVMBMGA1UEBxMMU2FuRnJhbmNpc2NvMRUwEwYDVQQKEwxQ
aXhnbG8sIEluYy4xEDAOBgNVBAsTB1ZQTi1DSUUxGjAYBgNVBAMTEXR1bm5lbC5w
aXhnbG8uY29tMRwwGgYDVQQpExNCYWxhIENoYW5kcmFzZWthcmFuMR4wHAYJKoZI
hvcNAQkBFg9iYWxhQHBpeGdsby5jb20wHhcNMTgwMjE0MDYzMDA2WhcNMjgwMjEy
MDYzMDA2WjCBqTELMAkGA1UEBhMCVVMxCzAJBgNVBAgTAkNBMRUwEwYDVQQHEwxT
YW5GcmFuY2lzY28xFTATBgNVBAoTDFBpeGdsbywgSW5jLjEQMA4GA1UECxMHVlBO
LUNJRTEPMA0GA1UEAxMGY2llMzA4MRwwGgYDVQQpExNCYWxhIENoYW5kcmFzZWth
cmFuMR4wHAYJKoZIhvcNAQkBFg9iYWxhQHBpeGdsby5jb20wggIiMA0GCSqGSIb3
DQEBAQUAA4ICDwAwggIKAoICAQDYRDGc1NhO0F3S9ib4QR61SUCUUoMCdUXcTeP1
73O0H+IhiFNOs2xlrU0H+AuTn99mWG30b/klCeQFoB06+4iAjBXVXwHSEt5wArJe
K80qMAUehcqH18DWKRkKUAhs8mC9UtpSRR7f8spCUcpA8jcdqcSQZnZD9QuSoojB
C6DZVz/IKxzRYSbgCb7btZ4gdYtEp/tDBlE6gT+lPGEHWnFdquHnkMnlFCp9gIVK
ciUmlncewvYxHjEbZ+/MfRty+fq7xrpHzQeAtDbNdMGbel0dIYvLDElM932Nw6Y+
PonocHBBRitxIPuExh5PG0LamrCfcCbwKBSqMA2Nl18arog1zO4Sgh2uTJPbh432
89ZuovVXMrXwaxYa9IGUp0Qy7nF65ngDEwb/trLyovw/KJ9/FMvOG7xbVAzU7/mx
2/RWV/3JOJck6KEES0SLCDj0bV1qCRLudnz9GEDMrmCpiXAaO7VCMH2BJ++BK/KX
EAQaf1F+ECsEKxZpGz88kh2iJjIvWjMvNkXvxjh/tyMj0vORTWwCuoj8C1qP9QSt
DzcW/7IIIYlLmqivSl7wxYjFqs7Q5wW7SrtaWZzECfcE6zpFSQsEDswMYbWo8Qri
+9dCcR7jqV7VsifP0xbjcN+v3rbrTjrv4y7073YHuhx9GrX/1WZ+k9AU3vbejPAL
BYL/+QIDAQABo4IBazCCAWcwCQYDVR0TBAIwADAtBglghkgBhvhCAQ0EIBYeRWFz
eS1SU0EgR2VuZXJhdGVkIENlcnRpZmljYXRlMB0GA1UdDgQWBBTcd95Mc3vHNyjJ
kAxNFJp2F60yBTCB6QYDVR0jBIHhMIHegBTvOI0UUFinW02cF3L837msp1GwEKGB
uqSBtzCBtDELMAkGA1UEBhMCVVMxCzAJBgNVBAgTAkNBMRUwEwYDVQQHEwxTYW5G
cmFuY2lzY28xFTATBgNVBAoTDFBpeGdsbywgSW5jLjEQMA4GA1UECxMHVlBOLUNJ
RTEaMBgGA1UEAxMRdHVubmVsLnBpeGdsby5jb20xHDAaBgNVBCkTE0JhbGEgQ2hh
bmRyYXNla2FyYW4xHjAcBgkqhkiG9w0BCQEWD2JhbGFAcGl4Z2xvLmNvbYIJAKbb
xoOA5qB5MBMGA1UdJQQMMAoGCCsGAQUFBwMCMAsGA1UdDwQEAwIHgDANBgkqhkiG
9w0BAQUFAAOCAgEA4NsxIiIJUDHLybBQC8/mXU6NF/LdxJdhc2nfOxgn0I4g3HrB
MWkTJZkPAsxI1m7rVdt+4esAg9G9r1gShe4Xm5ZgeDg5R0Qf+PQolBvg+BBdjdy1
r6uo9T0fKqwMZLs2hZnmYjfDaUWZdWtr4S7B7qwsyfPujlT5GMGNKv2ikAE/7L+n
r842DwCrjE2t0euXnlhuT83PCWFtZg9IG5xfztHy6aG14Qk5S/FdKZlSSdVVvfp2
9wdfn2sqeVZlJcUJ/jVtoloO3N5/XczpF7nSDeI6MGT6QbTOCNpFwXArE0sshxED
/CBos8VF/DtwNDPnjN3xScyRmFLFmIKI9Kgdb2yK65Pjwj7P5MD0lALnKqPS5Xq1
NZG1meZkdZxdPVbaXX6SLVGgYsOv8hqy2a3NdWM/4pwTJRLxSwJGKTSu03gB859l
44QPcJfBnV3RMPqi3g08CmcbMlv3UmPNk+aR1uD4gGAcoOq5PJvdTlYAKfq9nLo2
5DPT/B8szEJBLm7Lz4dGHzCcYeUan8D8nEpmh/6UBrnU+8l5TJheGk9OgOSgXjv/
W55YL93Hxz6HsgOp7/zZ1akl7Wo3oJJPc7fO+csUlsrkvlU02PGKEGjreSHny4yC
FF4uMQ0eP01fr7LRS2T6Wx91hSHo4Yg4JV0gXHIGUngHhdBBvAOWo15zPeI=
-----END CERTIFICATE-----
