Certificate:
    Data:
        Version: 3 (0x2)
        Serial Number: 310 (0x136)
    Signature Algorithm: sha1WithRSAEncryption
        Issuer: C=US, ST=CA, L=SanFrancisco, O=Pixglo, Inc., OU=VPN-CIE, CN=tunnel.pixglo.com/name=Bala Chandrasekaran/emailAddress=bala@pixglo.com
        Validity
            Not Before: Feb 14 06:30:08 2018 GMT
            Not After : Feb 12 06:30:08 2028 GMT
        Subject: C=US, ST=CA, L=SanFrancisco, O=Pixglo, Inc., OU=VPN-CIE, CN=cie309/name=Bala Chandrasekaran/emailAddress=bala@pixglo.com
        Subject Public Key Info:
            Public Key Algorithm: rsaEncryption
                Public-Key: (4096 bit)
                Modulus:
                    00:d6:bd:93:5b:d0:1b:31:12:6d:00:9e:10:55:1e:
                    b8:bf:a4:0b:49:51:47:68:f7:cf:9e:b8:66:45:46:
                    c1:de:7b:f0:fd:61:bb:25:e4:72:28:3f:fe:b8:c5:
                    0f:50:ae:96:11:1a:00:8d:62:48:5f:a1:b8:ad:82:
                    9a:a0:a3:70:47:ca:72:7c:cf:cc:18:7b:2d:50:dd:
                    2a:40:97:a5:98:62:cb:a2:bb:3d:bd:2e:27:cc:12:
                    aa:71:a7:1b:a0:ca:47:2a:d1:ae:50:46:18:0e:15:
                    7f:24:54:b5:5c:96:e4:dd:33:8f:85:e5:60:3d:00:
                    c1:d7:19:37:e3:84:be:03:74:e2:30:b6:1f:f6:9e:
                    d2:fe:e6:ea:77:e5:a5:75:3d:df:82:f0:c4:3a:04:
                    ea:25:40:e4:14:4f:91:2b:95:ce:c3:81:d4:4a:07:
                    8e:bb:d6:bf:c9:a7:69:79:ed:fe:32:9f:57:1e:bf:
                    79:42:00:8e:c3:44:ad:e3:64:c2:eb:53:a6:79:cc:
                    1b:63:81:89:20:aa:75:aa:68:c3:d3:9b:37:2b:82:
                    58:ca:23:66:71:43:b1:e7:df:9e:46:b5:18:4e:78:
                    ff:24:9b:64:28:2f:67:ca:b7:5e:7b:fa:5e:f3:ad:
                    36:54:75:d9:f2:db:2c:97:19:12:e6:84:77:be:4a:
                    18:3c:80:9d:da:8b:b9:5d:40:42:da:98:fb:08:9d:
                    b4:37:51:c0:fd:26:1f:6b:47:1d:c4:d4:ed:cd:b4:
                    26:a7:dc:3a:69:ba:2c:15:87:a5:5a:88:6d:76:fa:
                    38:3a:43:28:59:82:92:53:28:b3:65:81:c8:d2:b1:
                    e9:37:be:fb:2f:6e:00:24:94:a9:02:95:97:c6:97:
                    52:a6:9e:40:af:1f:bd:6a:c3:a5:1c:0c:79:bf:3e:
                    02:09:ee:d3:51:0f:1c:e9:bf:b4:f2:b9:04:6a:9b:
                    1f:b8:57:24:49:87:23:ce:4b:b3:d4:cf:8f:58:ba:
                    9f:18:c7:09:6a:53:e4:3b:a0:ae:e5:7c:d7:0b:6d:
                    30:e8:7f:3b:1f:a2:6a:92:6b:a0:85:8e:d5:93:ea:
                    0b:85:76:07:d4:d7:75:2c:b2:d5:ed:12:77:b6:d1:
                    58:f6:65:a3:e6:e8:98:1d:91:9d:84:e4:bf:15:4e:
                    08:80:9b:31:a6:91:bc:d4:91:f3:97:69:34:f1:88:
                    4d:0b:78:78:60:42:26:e5:35:1f:6d:76:be:11:3d:
                    b5:81:2a:48:37:e8:8a:86:82:f1:f2:e9:a6:c5:ef:
                    1d:64:8f:33:84:7a:b2:3d:5e:75:97:64:f8:77:db:
                    a7:ec:37:93:85:fe:1d:c9:e0:54:a2:45:3b:75:80:
                    58:54:e5
                Exponent: 65537 (0x10001)
        X509v3 extensions:
            X509v3 Basic Constraints: 
                CA:FALSE
            Netscape Comment: 
                Easy-RSA Generated Certificate
            X509v3 Subject Key Identifier: 
                E2:07:72:EF:BB:C8:4B:DE:2B:6F:7C:57:73:E0:DD:99:30:D5:06:9C
            X509v3 Authority Key Identifier: 
                keyid:EF:38:8D:14:50:58:A7:5B:4D:9C:17:72:FC:DF:B9:AC:A7:51:B0:10
                DirName:/C=US/ST=CA/L=SanFrancisco/O=Pixglo, Inc./OU=VPN-CIE/CN=tunnel.pixglo.com/name=Bala Chandrasekaran/emailAddress=bala@pixglo.com
                serial:A6:DB:C6:83:80:E6:A0:79

            X509v3 Extended Key Usage: 
                TLS Web Client Authentication
            X509v3 Key Usage: 
                Digital Signature
    Signature Algorithm: sha1WithRSAEncryption
         4e:fe:c8:d3:ee:8b:14:87:62:4c:ac:59:e2:88:37:59:08:e7:
         e0:59:f0:fc:0f:05:66:39:ab:40:6e:7f:c1:84:12:37:d7:12:
         7b:f3:f9:25:a1:93:e9:82:63:cf:ce:24:1b:f6:10:ab:aa:61:
         f1:6e:58:29:16:1c:66:d6:19:14:79:3a:89:52:01:25:7e:0d:
         f0:a5:da:40:50:3a:d5:dc:54:7a:cf:27:6e:be:f5:66:ae:c6:
         c1:bb:d0:8a:b0:9d:46:98:f9:e3:fb:fc:39:b4:99:9d:0f:22:
         87:53:03:8e:e1:48:62:c0:b1:ce:c2:b8:84:cd:03:2a:39:d3:
         60:51:04:72:14:96:2f:81:54:89:8f:ef:79:e8:29:7f:ff:91:
         5f:4e:d7:5f:69:1f:d4:a9:c4:ed:46:b1:b7:cf:da:62:6b:43:
         a9:11:3b:71:7c:51:a7:1d:1b:32:93:c5:44:50:b9:e3:6c:3f:
         d1:95:1d:ac:ec:af:9a:3d:48:51:e9:cd:9d:eb:0e:ec:f9:a1:
         73:9f:74:bc:89:ee:43:ed:e5:67:25:a5:24:d3:49:35:ae:28:
         97:b5:0c:47:e6:e5:9d:2b:40:86:c3:d1:e0:cd:25:1b:09:8a:
         48:6b:7d:ff:c4:0e:ee:9a:de:5d:df:a5:1b:24:de:b8:bb:ad:
         cb:76:0e:52:23:c9:34:a7:90:d4:40:98:ed:c2:db:b1:b6:8e:
         14:77:c4:57:89:da:2d:65:2e:a6:00:2d:a3:bc:d3:7b:ef:3a:
         f2:0e:ad:e1:e9:d7:aa:05:85:6a:a4:00:10:19:87:ff:10:18:
         db:3f:01:6a:07:e3:3d:bb:f3:68:ab:98:5a:e3:22:09:bb:5e:
         79:64:76:cf:8f:22:77:b0:93:ee:49:47:ea:19:37:61:48:6c:
         d8:0d:ec:78:86:0a:2c:ce:a0:90:97:c4:d9:8e:8e:89:cc:5f:
         63:43:92:ab:1b:77:4d:42:50:ce:e5:54:44:e3:c3:96:d6:ef:
         fb:c0:51:ef:a2:2c:ae:71:52:a6:3d:94:a0:41:0e:9a:78:2f:
         38:f3:ae:fe:51:9c:17:cc:21:b5:f1:e4:d3:a8:4a:25:d2:a2:
         9f:a2:55:ac:39:41:39:4c:3b:db:cf:c1:db:d5:af:a4:46:d7:
         34:44:e1:8e:0d:ed:87:d4:25:33:49:a5:b8:fd:31:6e:b7:1f:
         4a:00:ae:ab:15:c8:9f:65:04:7d:76:ca:fe:ef:ce:fe:fb:fc:
         79:2c:b3:b6:e8:df:63:f5:02:61:30:11:07:7c:fd:2d:64:02:
         7a:09:90:bd:b0:24:62:77:3d:5f:f2:0e:99:66:83:cd:90:5e:
         db:6d:d6:31:9f:c5:7d:4b
-----BEGIN CERTIFICATE-----
MIIHSDCCBTCgAwIBAgICATYwDQYJKoZIhvcNAQEFBQAwgbQxCzAJBgNVBAYTAlVT
MQswCQYDVQQIEwJDQTEVMBMGA1UEBxMMU2FuRnJhbmNpc2NvMRUwEwYDVQQKEwxQ
aXhnbG8sIEluYy4xEDAOBgNVBAsTB1ZQTi1DSUUxGjAYBgNVBAMTEXR1bm5lbC5w
aXhnbG8uY29tMRwwGgYDVQQpExNCYWxhIENoYW5kcmFzZWthcmFuMR4wHAYJKoZI
hvcNAQkBFg9iYWxhQHBpeGdsby5jb20wHhcNMTgwMjE0MDYzMDA4WhcNMjgwMjEy
MDYzMDA4WjCBqTELMAkGA1UEBhMCVVMxCzAJBgNVBAgTAkNBMRUwEwYDVQQHEwxT
YW5GcmFuY2lzY28xFTATBgNVBAoTDFBpeGdsbywgSW5jLjEQMA4GA1UECxMHVlBO
LUNJRTEPMA0GA1UEAxMGY2llMzA5MRwwGgYDVQQpExNCYWxhIENoYW5kcmFzZWth
cmFuMR4wHAYJKoZIhvcNAQkBFg9iYWxhQHBpeGdsby5jb20wggIiMA0GCSqGSIb3
DQEBAQUAA4ICDwAwggIKAoICAQDWvZNb0BsxEm0AnhBVHri/pAtJUUdo98+euGZF
RsHee/D9Ybsl5HIoP/64xQ9QrpYRGgCNYkhfobitgpqgo3BHynJ8z8wYey1Q3SpA
l6WYYsuiuz29LifMEqpxpxugykcq0a5QRhgOFX8kVLVcluTdM4+F5WA9AMHXGTfj
hL4DdOIwth/2ntL+5up35aV1Pd+C8MQ6BOolQOQUT5Erlc7DgdRKB4671r/Jp2l5
7f4yn1cev3lCAI7DRK3jZMLrU6Z5zBtjgYkgqnWqaMPTmzcrgljKI2ZxQ7Hn355G
tRhOeP8km2QoL2fKt157+l7zrTZUddny2yyXGRLmhHe+Shg8gJ3ai7ldQELamPsI
nbQ3UcD9Jh9rRx3E1O3NtCan3DppuiwVh6VaiG12+jg6QyhZgpJTKLNlgcjSsek3
vvsvbgAklKkClZfGl1KmnkCvH71qw6UcDHm/PgIJ7tNRDxzpv7TyuQRqmx+4VyRJ
hyPOS7PUz49Yup8YxwlqU+Q7oK7lfNcLbTDofzsfomqSa6CFjtWT6guFdgfU13Us
stXtEne20Vj2ZaPm6JgdkZ2E5L8VTgiAmzGmkbzUkfOXaTTxiE0LeHhgQiblNR9t
dr4RPbWBKkg36IqGgvHy6abF7x1kjzOEerI9XnWXZPh326fsN5OF/h3J4FSiRTt1
gFhU5QIDAQABo4IBazCCAWcwCQYDVR0TBAIwADAtBglghkgBhvhCAQ0EIBYeRWFz
eS1SU0EgR2VuZXJhdGVkIENlcnRpZmljYXRlMB0GA1UdDgQWBBTiB3Lvu8hL3itv
fFdz4N2ZMNUGnDCB6QYDVR0jBIHhMIHegBTvOI0UUFinW02cF3L837msp1GwEKGB
uqSBtzCBtDELMAkGA1UEBhMCVVMxCzAJBgNVBAgTAkNBMRUwEwYDVQQHEwxTYW5G
cmFuY2lzY28xFTATBgNVBAoTDFBpeGdsbywgSW5jLjEQMA4GA1UECxMHVlBOLUNJ
RTEaMBgGA1UEAxMRdHVubmVsLnBpeGdsby5jb20xHDAaBgNVBCkTE0JhbGEgQ2hh
bmRyYXNla2FyYW4xHjAcBgkqhkiG9w0BCQEWD2JhbGFAcGl4Z2xvLmNvbYIJAKbb
xoOA5qB5MBMGA1UdJQQMMAoGCCsGAQUFBwMCMAsGA1UdDwQEAwIHgDANBgkqhkiG
9w0BAQUFAAOCAgEATv7I0+6LFIdiTKxZ4og3WQjn4Fnw/A8FZjmrQG5/wYQSN9cS
e/P5JaGT6YJjz84kG/YQq6ph8W5YKRYcZtYZFHk6iVIBJX4N8KXaQFA61dxUes8n
br71Zq7GwbvQirCdRpj54/v8ObSZnQ8ih1MDjuFIYsCxzsK4hM0DKjnTYFEEchSW
L4FUiY/veegpf/+RX07XX2kf1KnE7Uaxt8/aYmtDqRE7cXxRpx0bMpPFRFC542w/
0ZUdrOyvmj1IUenNnesO7Pmhc590vInuQ+3lZyWlJNNJNa4ol7UMR+blnStAhsPR
4M0lGwmKSGt9/8QO7preXd+lGyTeuLuty3YOUiPJNKeQ1ECY7cLbsbaOFHfEV4na
LWUupgAto7zTe+868g6t4enXqgWFaqQAEBmH/xAY2z8BagfjPbvzaKuYWuMiCbte
eWR2z48id7CT7klH6hk3YUhs2A3seIYKLM6gkJfE2Y6OicxfY0OSqxt3TUJQzuVU
ROPDltbv+8BR76IsrnFSpj2UoEEOmngvOPOu/lGcF8whtfHk06hKJdKin6JVrDlB
OUw728/B29WvpEbXNEThjg3th9QlM0mluP0xbrcfSgCuqxXIn2UEfXbK/u/O/vv8
eSyztujfY/UCYTARB3z9LWQCegmQvbAkYnc9X/IOmWaDzZBe223WMZ/FfUs=
-----END CERTIFICATE-----
