Certificate:
    Data:
        Version: 3 (0x2)
        Serial Number: 313 (0x139)
    Signature Algorithm: sha1WithRSAEncryption
        Issuer: C=US, ST=CA, L=SanFrancisco, O=Pixglo, Inc., OU=VPN-CIE, CN=tunnel.pixglo.com/name=Bala Chandrasekaran/emailAddress=bala@pixglo.com
        Validity
            Not Before: Feb 14 06:30:11 2018 GMT
            Not After : Feb 12 06:30:11 2028 GMT
        Subject: C=US, ST=CA, L=SanFrancisco, O=Pixglo, Inc., OU=VPN-CIE, CN=cie312/name=Bala Chandrasekaran/emailAddress=bala@pixglo.com
        Subject Public Key Info:
            Public Key Algorithm: rsaEncryption
                Public-Key: (4096 bit)
                Modulus:
                    00:cd:c1:9e:6a:ee:33:03:43:77:ee:20:4b:56:79:
                    3c:31:d9:f6:a4:f1:4c:f1:47:ba:e6:f1:a4:65:ff:
                    c1:99:81:9e:76:2a:ba:44:2a:05:02:76:ec:b9:62:
                    d1:16:78:19:cc:11:3a:08:1f:82:7b:1a:d6:d3:2f:
                    75:8f:ec:19:b4:f9:93:88:48:be:fd:14:03:87:87:
                    f9:3f:65:8d:e3:db:cb:d6:4b:48:f5:71:ad:26:aa:
                    6e:8e:12:68:50:54:af:0e:de:09:db:97:e7:e7:f2:
                    b6:4e:4a:06:8f:ac:38:79:0f:04:bc:0a:db:e3:4f:
                    75:49:f0:27:e1:fe:e1:f5:f7:32:80:08:62:2a:31:
                    35:eb:71:48:aa:f6:21:9f:82:7e:19:94:0a:a5:09:
                    3a:13:ed:bd:f7:bf:d3:1b:b7:05:c0:67:62:fe:f4:
                    7c:19:66:ca:3a:31:04:a6:62:b7:be:d6:3a:05:cd:
                    23:07:ff:e2:00:ce:b1:ad:5a:71:00:6b:f0:2b:14:
                    3a:6f:d5:a4:9e:f1:fb:a0:7f:f1:3a:0c:84:11:58:
                    e4:ae:e9:05:f6:50:6a:6d:07:98:12:ce:23:2e:c4:
                    a3:87:b5:68:ad:98:f4:f9:01:78:c9:1d:fc:88:d3:
                    b1:fa:ab:9a:c6:32:b4:81:a6:f0:66:d7:3c:85:48:
                    05:cf:65:08:7d:3c:0b:77:0d:4b:3e:7d:28:53:46:
                    65:8e:97:60:0a:aa:38:69:a0:e6:ca:17:11:a2:e7:
                    c2:87:28:b9:e2:fd:86:e2:a8:57:fe:03:12:33:e3:
                    91:76:59:3a:3f:df:6a:97:07:2f:7e:01:19:97:ec:
                    70:9a:dd:3a:fd:ba:be:26:a2:9c:ad:58:ca:a4:68:
                    28:48:5f:99:00:60:f0:e3:fc:2d:ea:f5:19:1b:6d:
                    58:05:96:95:2e:be:3c:72:62:a6:b3:11:bc:ec:20:
                    5e:8f:76:f1:fb:1e:52:fd:f9:79:32:8e:8e:43:0b:
                    bd:0f:69:d9:c2:4e:bd:f3:ee:fe:d1:0d:63:b2:f9:
                    b0:75:66:89:37:3c:50:cf:5e:66:42:ad:85:59:bf:
                    9d:ca:5c:23:48:be:8a:a0:2a:10:c9:11:e6:d8:ea:
                    95:be:99:7f:bd:25:ec:31:62:87:e8:be:d9:cd:47:
                    88:53:4f:60:a0:90:49:8a:e2:aa:99:90:c9:7c:b4:
                    3f:1f:6b:15:b9:d5:16:50:1b:60:da:ab:91:a1:e6:
                    c2:2f:82:3e:3d:68:9a:f4:e4:2c:f0:1f:60:df:e1:
                    18:c8:b5:c5:bc:43:b0:a6:f8:22:64:92:7a:8a:8d:
                    de:46:fa:14:a9:fc:f2:4f:c1:b8:e7:5d:bd:1f:84:
                    5e:a6:c1
                Exponent: 65537 (0x10001)
        X509v3 extensions:
            X509v3 Basic Constraints: 
                CA:FALSE
            Netscape Comment: 
                Easy-RSA Generated Certificate
            X509v3 Subject Key Identifier: 
                37:8B:B6:72:53:E7:40:05:B9:91:3D:F3:E0:42:4F:D5:7C:DF:3E:98
            X509v3 Authority Key Identifier: 
                keyid:EF:38:8D:14:50:58:A7:5B:4D:9C:17:72:FC:DF:B9:AC:A7:51:B0:10
                DirName:/C=US/ST=CA/L=SanFrancisco/O=Pixglo, Inc./OU=VPN-CIE/CN=tunnel.pixglo.com/name=Bala Chandrasekaran/emailAddress=bala@pixglo.com
                serial:A6:DB:C6:83:80:E6:A0:79

            X509v3 Extended Key Usage: 
                TLS Web Client Authentication
            X509v3 Key Usage: 
                Digital Signature
    Signature Algorithm: sha1WithRSAEncryption
         b1:22:22:14:0e:ed:84:c8:5f:63:9d:b2:70:3e:12:d3:39:9f:
         00:25:24:28:5d:2c:47:32:c2:56:e2:3d:09:86:1e:da:1a:21:
         5e:43:00:cc:b9:05:ec:ca:4b:12:dc:5f:8f:21:f5:9c:89:58:
         55:50:34:85:de:a4:a2:94:95:64:ef:ad:d8:41:a5:07:f7:27:
         2b:71:7b:58:50:04:3f:5a:55:e7:0b:85:a7:26:7b:3b:7e:e2:
         a4:ae:3f:55:d8:08:5c:8a:7f:ba:c2:28:2f:fe:0c:67:a0:e3:
         b0:3d:ef:3b:83:1f:17:0f:4a:3b:73:38:70:4b:0b:8b:99:a2:
         2c:a1:a8:9d:db:91:8b:93:6a:8f:2b:7d:1e:4c:74:8a:18:60:
         47:b6:39:88:2f:8c:bb:34:f0:13:cc:ed:a5:d5:23:56:f7:55:
         6b:ed:df:a4:68:a6:52:84:ee:41:97:62:6d:c4:b5:39:1d:8a:
         78:aa:ec:77:7b:7e:84:f8:4a:63:7a:d5:95:9b:5f:44:db:14:
         3c:06:68:05:95:94:85:bd:08:74:be:34:f7:65:19:dd:1e:a1:
         5d:43:4a:a8:e5:6f:4f:3a:6c:76:9b:7a:24:20:54:78:45:98:
         58:b7:57:18:24:0f:4b:5e:22:f2:53:b7:61:f1:52:85:86:e8:
         13:db:96:f7:c8:5a:4b:38:90:38:c5:9f:79:46:0a:61:c5:33:
         1e:64:ac:1d:6a:f2:c8:c2:89:b0:f1:3a:fd:c9:a3:bf:0e:02:
         84:68:d3:bb:34:56:72:0a:fb:6b:3a:5e:39:7c:ba:07:fa:f2:
         4e:a3:5c:77:e3:16:22:68:07:09:c0:df:41:51:9f:61:0a:b8:
         08:56:cb:8e:30:24:92:ed:27:4f:80:3a:d9:11:39:c8:b6:8f:
         ed:f1:d7:81:0f:ef:af:ff:df:dc:53:0e:02:ec:27:9c:b1:ba:
         5d:2e:6e:1e:ea:68:06:68:7e:52:87:34:43:5e:52:98:ce:10:
         f6:c5:a4:b6:11:e0:0b:bf:a2:b4:4e:2a:8d:b4:42:f9:17:58:
         f8:0e:ec:d6:3b:17:5b:14:a2:f7:fc:4b:a5:53:88:93:74:9d:
         50:a1:66:00:76:3a:c7:9e:23:7f:d7:ba:f2:7e:cb:c4:57:a8:
         04:9d:42:5b:a8:1f:29:77:a0:5c:74:ec:11:57:9c:82:c8:a5:
         3e:3c:80:6b:3c:75:76:cd:36:63:74:a3:77:20:5a:34:15:93:
         68:9f:30:b6:b3:52:48:ec:8e:e6:81:9e:d0:eb:d9:b0:da:c0:
         24:57:ef:c6:1e:be:06:46:87:e2:58:8d:42:4d:75:0a:ce:3e:
         ab:6b:20:2b:58:85:1c:7d
-----BEGIN CERTIFICATE-----
MIIHSDCCBTCgAwIBAgICATkwDQYJKoZIhvcNAQEFBQAwgbQxCzAJBgNVBAYTAlVT
MQswCQYDVQQIEwJDQTEVMBMGA1UEBxMMU2FuRnJhbmNpc2NvMRUwEwYDVQQKEwxQ
aXhnbG8sIEluYy4xEDAOBgNVBAsTB1ZQTi1DSUUxGjAYBgNVBAMTEXR1bm5lbC5w
aXhnbG8uY29tMRwwGgYDVQQpExNCYWxhIENoYW5kcmFzZWthcmFuMR4wHAYJKoZI
hvcNAQkBFg9iYWxhQHBpeGdsby5jb20wHhcNMTgwMjE0MDYzMDExWhcNMjgwMjEy
MDYzMDExWjCBqTELMAkGA1UEBhMCVVMxCzAJBgNVBAgTAkNBMRUwEwYDVQQHEwxT
YW5GcmFuY2lzY28xFTATBgNVBAoTDFBpeGdsbywgSW5jLjEQMA4GA1UECxMHVlBO
LUNJRTEPMA0GA1UEAxMGY2llMzEyMRwwGgYDVQQpExNCYWxhIENoYW5kcmFzZWth
cmFuMR4wHAYJKoZIhvcNAQkBFg9iYWxhQHBpeGdsby5jb20wggIiMA0GCSqGSIb3
DQEBAQUAA4ICDwAwggIKAoICAQDNwZ5q7jMDQ3fuIEtWeTwx2fak8UzxR7rm8aRl
/8GZgZ52KrpEKgUCduy5YtEWeBnMEToIH4J7GtbTL3WP7Bm0+ZOISL79FAOHh/k/
ZY3j28vWS0j1ca0mqm6OEmhQVK8O3gnbl+fn8rZOSgaPrDh5DwS8CtvjT3VJ8Cfh
/uH19zKACGIqMTXrcUiq9iGfgn4ZlAqlCToT7b33v9MbtwXAZ2L+9HwZZso6MQSm
Yre+1joFzSMH/+IAzrGtWnEAa/ArFDpv1aSe8fugf/E6DIQRWOSu6QX2UGptB5gS
ziMuxKOHtWitmPT5AXjJHfyI07H6q5rGMrSBpvBm1zyFSAXPZQh9PAt3DUs+fShT
RmWOl2AKqjhpoObKFxGi58KHKLni/YbiqFf+AxIz45F2WTo/32qXBy9+ARmX7HCa
3Tr9ur4mopytWMqkaChIX5kAYPDj/C3q9RkbbVgFlpUuvjxyYqazEbzsIF6PdvH7
HlL9+Xkyjo5DC70PadnCTr3z7v7RDWOy+bB1Zok3PFDPXmZCrYVZv53KXCNIvoqg
KhDJEebY6pW+mX+9JewxYofovtnNR4hTT2CgkEmK4qqZkMl8tD8faxW51RZQG2Da
q5Gh5sIvgj49aJr05CzwH2Df4RjItcW8Q7Cm+CJkknqKjd5G+hSp/PJPwbjnXb0f
hF6mwQIDAQABo4IBazCCAWcwCQYDVR0TBAIwADAtBglghkgBhvhCAQ0EIBYeRWFz
eS1SU0EgR2VuZXJhdGVkIENlcnRpZmljYXRlMB0GA1UdDgQWBBQ3i7ZyU+dABbmR
PfPgQk/VfN8+mDCB6QYDVR0jBIHhMIHegBTvOI0UUFinW02cF3L837msp1GwEKGB
uqSBtzCBtDELMAkGA1UEBhMCVVMxCzAJBgNVBAgTAkNBMRUwEwYDVQQHEwxTYW5G
cmFuY2lzY28xFTATBgNVBAoTDFBpeGdsbywgSW5jLjEQMA4GA1UECxMHVlBOLUNJ
RTEaMBgGA1UEAxMRdHVubmVsLnBpeGdsby5jb20xHDAaBgNVBCkTE0JhbGEgQ2hh
bmRyYXNla2FyYW4xHjAcBgkqhkiG9w0BCQEWD2JhbGFAcGl4Z2xvLmNvbYIJAKbb
xoOA5qB5MBMGA1UdJQQMMAoGCCsGAQUFBwMCMAsGA1UdDwQEAwIHgDANBgkqhkiG
9w0BAQUFAAOCAgEAsSIiFA7thMhfY52ycD4S0zmfACUkKF0sRzLCVuI9CYYe2hoh
XkMAzLkF7MpLEtxfjyH1nIlYVVA0hd6kopSVZO+t2EGlB/cnK3F7WFAEP1pV5wuF
pyZ7O37ipK4/VdgIXIp/usIoL/4MZ6DjsD3vO4MfFw9KO3M4cEsLi5miLKGonduR
i5Nqjyt9Hkx0ihhgR7Y5iC+MuzTwE8ztpdUjVvdVa+3fpGimUoTuQZdibcS1OR2K
eKrsd3t+hPhKY3rVlZtfRNsUPAZoBZWUhb0IdL4092UZ3R6hXUNKqOVvTzpsdpt6
JCBUeEWYWLdXGCQPS14i8lO3YfFShYboE9uW98haSziQOMWfeUYKYcUzHmSsHWry
yMKJsPE6/cmjvw4ChGjTuzRWcgr7azpeOXy6B/ryTqNcd+MWImgHCcDfQVGfYQq4
CFbLjjAkku0nT4A62RE5yLaP7fHXgQ/vr//f3FMOAuwnnLG6XS5uHupoBmh+Uoc0
Q15SmM4Q9sWkthHgC7+itE4qjbRC+RdY+A7s1jsXWxSi9/xLpVOIk3SdUKFmAHY6
x54jf9e68n7LxFeoBJ1CW6gfKXegXHTsEVecgsilPjyAazx1ds02Y3SjdyBaNBWT
aJ8wtrNSSOyO5oGe0OvZsNrAJFfvxh6+BkaH4liNQk11Cs4+q2sgK1iFHH0=
-----END CERTIFICATE-----
