Certificate:
    Data:
        Version: 3 (0x2)
        Serial Number: 315 (0x13b)
    Signature Algorithm: sha1WithRSAEncryption
        Issuer: C=US, ST=CA, L=SanFrancisco, O=Pixglo, Inc., OU=VPN-CIE, CN=tunnel.pixglo.com/name=Bala Chandrasekaran/emailAddress=bala@pixglo.com
        Validity
            Not Before: Feb 14 06:30:13 2018 GMT
            Not After : Feb 12 06:30:13 2028 GMT
        Subject: C=US, ST=CA, L=SanFrancisco, O=Pixglo, Inc., OU=VPN-CIE, CN=cie314/name=Bala Chandrasekaran/emailAddress=bala@pixglo.com
        Subject Public Key Info:
            Public Key Algorithm: rsaEncryption
                Public-Key: (4096 bit)
                Modulus:
                    00:a7:b2:12:84:85:46:31:75:0d:55:f3:3a:9d:12:
                    2f:18:94:3e:89:03:14:70:f7:e9:1a:31:f0:3e:00:
                    89:7c:35:d4:46:28:f3:77:64:22:c3:12:8a:9d:16:
                    b9:15:06:92:a5:9a:fe:d8:0b:f1:f8:86:6f:b6:c4:
                    b8:ec:3e:0d:1d:97:86:4c:6d:94:81:5f:18:c8:00:
                    fd:d2:22:93:16:ee:c7:36:3c:8d:f3:bb:e8:8c:cb:
                    1d:4f:16:16:00:77:dd:17:60:50:7c:3d:30:82:f5:
                    69:94:b0:3b:db:e2:c8:0b:22:78:da:3c:e2:a2:b8:
                    ac:60:05:da:cc:1a:06:ac:d9:34:ff:38:d2:cc:c7:
                    6f:b9:6f:77:77:22:cd:98:59:6e:5c:9a:8a:79:a0:
                    ef:bd:90:93:4d:54:24:ed:70:96:8d:2c:ee:23:b0:
                    40:89:08:de:39:a9:22:46:72:ef:28:fc:0f:65:10:
                    92:98:77:cd:3e:38:d5:3e:0a:27:9e:78:7a:fb:26:
                    2d:b0:a2:e4:f7:85:a1:40:a8:0d:b8:1a:53:5a:df:
                    6c:65:93:3c:3b:1c:f7:71:ff:8b:42:de:ba:ff:8d:
                    28:f3:39:73:ce:38:e4:db:75:09:1c:2d:fb:7d:8b:
                    57:f8:a8:e2:73:69:7c:42:68:aa:78:48:db:72:85:
                    a7:ef:d6:13:87:94:ce:2b:64:0f:6d:b3:21:4d:de:
                    d5:9b:44:64:ff:5c:a0:e1:b3:7d:bc:67:37:ba:8e:
                    2f:11:cf:e6:c9:92:bd:4b:59:76:0d:f8:bb:09:60:
                    25:83:8c:5c:78:42:28:92:db:ff:e0:29:1c:35:04:
                    4d:b1:a0:33:e4:59:87:dc:d4:0b:a8:27:e5:cd:87:
                    86:37:79:3e:f4:ce:0a:85:59:e3:cc:44:eb:be:91:
                    43:26:b0:0c:88:35:af:96:dd:0c:1c:7a:cd:df:dd:
                    98:90:92:3f:13:cc:be:b2:bf:a9:d9:66:af:33:ab:
                    5b:7c:24:59:1e:ce:16:85:5a:2f:53:04:a4:ad:41:
                    f3:65:b2:59:d7:28:83:3f:2f:58:27:a0:0a:c5:c2:
                    80:65:f9:f9:f3:41:47:28:88:02:ce:1c:04:f6:d7:
                    58:34:f3:e4:ea:2a:5b:2b:c7:28:2d:77:eb:ab:8d:
                    49:61:f7:2a:aa:f7:ee:4e:ea:1f:4f:3b:34:91:35:
                    86:95:ae:6e:b9:4b:32:b4:82:4b:57:ff:ae:35:26:
                    f9:3f:f9:da:e0:e4:63:6e:bb:54:49:f3:a7:3d:a0:
                    0f:2e:c0:d5:07:66:90:ce:ba:6d:ce:08:03:0c:04:
                    05:ba:7c:41:8b:75:36:8e:db:6a:75:c1:ed:4c:43:
                    02:7e:bd
                Exponent: 65537 (0x10001)
        X509v3 extensions:
            X509v3 Basic Constraints: 
                CA:FALSE
            Netscape Comment: 
                Easy-RSA Generated Certificate
            X509v3 Subject Key Identifier: 
                F5:C3:2F:0F:53:95:58:F3:CF:7E:F9:E2:CE:83:D9:92:E4:C3:85:3E
            X509v3 Authority Key Identifier: 
                keyid:EF:38:8D:14:50:58:A7:5B:4D:9C:17:72:FC:DF:B9:AC:A7:51:B0:10
                DirName:/C=US/ST=CA/L=SanFrancisco/O=Pixglo, Inc./OU=VPN-CIE/CN=tunnel.pixglo.com/name=Bala Chandrasekaran/emailAddress=bala@pixglo.com
                serial:A6:DB:C6:83:80:E6:A0:79

            X509v3 Extended Key Usage: 
                TLS Web Client Authentication
            X509v3 Key Usage: 
                Digital Signature
    Signature Algorithm: sha1WithRSAEncryption
         0b:ee:b5:5e:84:55:de:21:d3:1a:c2:2b:fc:87:8b:f5:a2:f8:
         6b:ad:64:86:d9:6e:e9:26:9c:a8:ad:07:d7:d9:67:6b:34:8e:
         91:df:38:18:5c:da:d4:e1:11:cc:36:78:7e:36:e8:6e:1f:45:
         2a:43:50:3a:2c:c5:01:42:ae:95:b2:8c:6e:e2:bc:f2:4c:6d:
         d6:f1:ec:0f:87:b2:53:aa:fd:c1:0d:37:14:d4:20:4c:c2:c3:
         9a:12:dc:d8:14:23:7a:bc:15:34:49:e8:1e:dc:26:b1:54:00:
         e6:5c:64:e6:2e:aa:e2:28:d4:25:6b:4c:17:8c:a9:8e:0a:53:
         ac:bb:26:64:17:19:1b:3b:e1:13:6c:a2:34:af:94:c3:d4:30:
         2a:f4:e3:b3:42:ed:11:07:6e:b5:9b:a3:2f:e7:2e:42:13:7b:
         30:c3:30:e8:d9:30:f2:aa:69:ff:e1:7d:86:96:5b:b6:0d:d6:
         e1:5a:07:c4:09:8d:74:9d:02:42:84:fa:cd:9a:58:6d:31:90:
         05:ee:5b:69:29:66:09:ef:95:ad:66:a3:22:70:41:4e:13:d1:
         a8:16:84:78:fd:e1:e2:57:53:9d:a8:0d:f2:df:c3:18:0f:5c:
         c1:5f:67:88:7b:32:76:6a:69:60:df:04:85:86:a8:08:83:78:
         e0:03:3c:f6:ae:b1:5a:a4:0d:24:1c:10:7d:fb:c8:1f:bf:7c:
         24:2a:51:df:07:44:ef:90:ba:29:3b:2c:90:64:4a:47:55:1e:
         f8:16:04:7f:88:2d:7c:d3:47:05:82:2d:e5:9c:8a:1f:9a:96:
         73:8e:39:81:71:8f:16:57:3d:85:b6:55:bf:f9:ec:67:c3:e2:
         fd:13:ba:0b:c7:68:86:ac:b8:94:13:95:a7:05:72:e5:b6:c1:
         6b:b5:6b:f1:61:5c:17:6a:14:3b:a0:ba:c2:4f:48:61:0b:b6:
         60:d1:2f:9e:53:4d:8c:3b:4d:2a:01:4b:ae:20:0d:5f:22:a3:
         51:44:ee:9a:61:bb:3b:ef:10:2a:bc:39:da:a9:f0:ba:25:43:
         81:89:1c:4b:0d:ee:7b:09:6e:f4:29:aa:7d:50:9b:7e:23:d7:
         07:f2:cc:cf:fe:83:91:eb:13:a7:e8:d9:3c:73:dd:67:0f:02:
         fa:e5:b6:76:2d:a7:bd:8c:5c:be:ad:89:0a:39:b8:99:16:10:
         5a:62:ec:63:56:2e:66:1b:a8:06:74:ea:57:21:11:e7:a2:38:
         f0:e0:75:bb:c2:27:60:77:8d:d0:0a:8b:9c:62:b3:2f:79:2b:
         a1:03:e0:b0:f7:0f:85:71:f4:c1:fe:94:02:15:07:5b:e1:b8:
         7f:c7:68:a5:a8:c7:5a:00
-----BEGIN CERTIFICATE-----
MIIHSDCCBTCgAwIBAgICATswDQYJKoZIhvcNAQEFBQAwgbQxCzAJBgNVBAYTAlVT
MQswCQYDVQQIEwJDQTEVMBMGA1UEBxMMU2FuRnJhbmNpc2NvMRUwEwYDVQQKEwxQ
aXhnbG8sIEluYy4xEDAOBgNVBAsTB1ZQTi1DSUUxGjAYBgNVBAMTEXR1bm5lbC5w
aXhnbG8uY29tMRwwGgYDVQQpExNCYWxhIENoYW5kcmFzZWthcmFuMR4wHAYJKoZI
hvcNAQkBFg9iYWxhQHBpeGdsby5jb20wHhcNMTgwMjE0MDYzMDEzWhcNMjgwMjEy
MDYzMDEzWjCBqTELMAkGA1UEBhMCVVMxCzAJBgNVBAgTAkNBMRUwEwYDVQQHEwxT
YW5GcmFuY2lzY28xFTATBgNVBAoTDFBpeGdsbywgSW5jLjEQMA4GA1UECxMHVlBO
LUNJRTEPMA0GA1UEAxMGY2llMzE0MRwwGgYDVQQpExNCYWxhIENoYW5kcmFzZWth
cmFuMR4wHAYJKoZIhvcNAQkBFg9iYWxhQHBpeGdsby5jb20wggIiMA0GCSqGSIb3
DQEBAQUAA4ICDwAwggIKAoICAQCnshKEhUYxdQ1V8zqdEi8YlD6JAxRw9+kaMfA+
AIl8NdRGKPN3ZCLDEoqdFrkVBpKlmv7YC/H4hm+2xLjsPg0dl4ZMbZSBXxjIAP3S
IpMW7sc2PI3zu+iMyx1PFhYAd90XYFB8PTCC9WmUsDvb4sgLInjaPOKiuKxgBdrM
Ggas2TT/ONLMx2+5b3d3Is2YWW5cmop5oO+9kJNNVCTtcJaNLO4jsECJCN45qSJG
cu8o/A9lEJKYd80+ONU+CieeeHr7Ji2wouT3haFAqA24GlNa32xlkzw7HPdx/4tC
3rr/jSjzOXPOOOTbdQkcLft9i1f4qOJzaXxCaKp4SNtyhafv1hOHlM4rZA9tsyFN
3tWbRGT/XKDhs328Zze6ji8Rz+bJkr1LWXYN+LsJYCWDjFx4QiiS2//gKRw1BE2x
oDPkWYfc1AuoJ+XNh4Y3eT70zgqFWePMROu+kUMmsAyINa+W3Qwces3f3ZiQkj8T
zL6yv6nZZq8zq1t8JFkezhaFWi9TBKStQfNlslnXKIM/L1gnoArFwoBl+fnzQUco
iALOHAT211g08+TqKlsrxygtd+urjUlh9yqq9+5O6h9POzSRNYaVrm65SzK0gktX
/641Jvk/+drg5GNuu1RJ86c9oA8uwNUHZpDOum3OCAMMBAW6fEGLdTaO22p1we1M
QwJ+vQIDAQABo4IBazCCAWcwCQYDVR0TBAIwADAtBglghkgBhvhCAQ0EIBYeRWFz
eS1SU0EgR2VuZXJhdGVkIENlcnRpZmljYXRlMB0GA1UdDgQWBBT1wy8PU5VY889+
+eLOg9mS5MOFPjCB6QYDVR0jBIHhMIHegBTvOI0UUFinW02cF3L837msp1GwEKGB
uqSBtzCBtDELMAkGA1UEBhMCVVMxCzAJBgNVBAgTAkNBMRUwEwYDVQQHEwxTYW5G
cmFuY2lzY28xFTATBgNVBAoTDFBpeGdsbywgSW5jLjEQMA4GA1UECxMHVlBOLUNJ
RTEaMBgGA1UEAxMRdHVubmVsLnBpeGdsby5jb20xHDAaBgNVBCkTE0JhbGEgQ2hh
bmRyYXNla2FyYW4xHjAcBgkqhkiG9w0BCQEWD2JhbGFAcGl4Z2xvLmNvbYIJAKbb
xoOA5qB5MBMGA1UdJQQMMAoGCCsGAQUFBwMCMAsGA1UdDwQEAwIHgDANBgkqhkiG
9w0BAQUFAAOCAgEAC+61XoRV3iHTGsIr/IeL9aL4a61khtlu6SacqK0H19lnazSO
kd84GFza1OERzDZ4fjbobh9FKkNQOizFAUKulbKMbuK88kxt1vHsD4eyU6r9wQ03
FNQgTMLDmhLc2BQjerwVNEnoHtwmsVQA5lxk5i6q4ijUJWtMF4ypjgpTrLsmZBcZ
GzvhE2yiNK+Uw9QwKvTjs0LtEQdutZujL+cuQhN7MMMw6Nkw8qpp/+F9hpZbtg3W
4VoHxAmNdJ0CQoT6zZpYbTGQBe5baSlmCe+VrWajInBBThPRqBaEeP3h4ldTnagN
8t/DGA9cwV9niHsydmppYN8EhYaoCIN44AM89q6xWqQNJBwQffvIH798JCpR3wdE
75C6KTsskGRKR1Ue+BYEf4gtfNNHBYIt5ZyKH5qWc445gXGPFlc9hbZVv/nsZ8Pi
/RO6C8dohqy4lBOVpwVy5bbBa7Vr8WFcF2oUO6C6wk9IYQu2YNEvnlNNjDtNKgFL
riANXyKjUUTummG7O+8QKrw52qnwuiVDgYkcSw3uewlu9CmqfVCbfiPXB/LMz/6D
kesTp+jZPHPdZw8C+uW2di2nvYxcvq2JCjm4mRYQWmLsY1YuZhuoBnTqVyER56I4
8OB1u8InYHeN0AqLnGKzL3kroQPgsPcPhXH0wf6UAhUHW+G4f8dopajHWgA=
-----END CERTIFICATE-----
