Certificate:
    Data:
        Version: 3 (0x2)
        Serial Number: 316 (0x13c)
    Signature Algorithm: sha1WithRSAEncryption
        Issuer: C=US, ST=CA, L=SanFrancisco, O=Pixglo, Inc., OU=VPN-CIE, CN=tunnel.pixglo.com/name=Bala Chandrasekaran/emailAddress=bala@pixglo.com
        Validity
            Not Before: Feb 14 06:30:15 2018 GMT
            Not After : Feb 12 06:30:15 2028 GMT
        Subject: C=US, ST=CA, L=SanFrancisco, O=Pixglo, Inc., OU=VPN-CIE, CN=cie315/name=Bala Chandrasekaran/emailAddress=bala@pixglo.com
        Subject Public Key Info:
            Public Key Algorithm: rsaEncryption
                Public-Key: (4096 bit)
                Modulus:
                    00:a3:be:f5:ca:18:68:b7:2f:c0:99:9d:4c:43:35:
                    b3:c9:41:f3:15:91:fc:e6:0c:13:5a:25:1a:59:cb:
                    98:52:64:0c:dd:b3:ba:b6:e8:30:44:01:42:7c:0b:
                    ce:df:88:29:f2:a0:9b:ce:ee:e3:00:26:53:b1:32:
                    77:60:75:05:0e:91:b5:7b:be:3e:2d:86:63:65:4a:
                    72:62:3e:a9:58:e3:30:31:04:59:71:1e:ec:e5:2e:
                    4f:f2:e7:9a:a0:85:53:50:5d:35:5d:8e:ac:a5:98:
                    89:0d:67:88:99:15:1c:ed:5d:e1:03:e4:12:76:7f:
                    15:5c:c0:3d:52:85:37:ad:9a:0f:5b:e9:4d:8f:02:
                    bd:19:b0:e7:12:87:ff:ab:38:27:5a:46:fb:4c:8b:
                    d0:70:d1:d9:61:b8:70:b4:2c:f7:95:50:44:ca:d0:
                    27:ec:e8:74:d1:46:1e:f7:5a:fb:d0:58:b7:65:83:
                    af:13:7f:1a:86:7e:c8:cd:69:48:b6:48:f4:06:c1:
                    76:39:7e:cb:7b:19:36:8a:ca:5c:52:87:d2:6d:dd:
                    25:77:33:33:86:c7:7a:ed:32:aa:31:6e:58:4f:24:
                    30:c8:75:b7:9d:af:14:64:50:bc:f6:b2:8e:83:6f:
                    65:e7:c1:42:70:30:b8:fa:33:4c:69:88:9c:70:a2:
                    ff:92:e4:8c:ba:38:48:60:c6:a4:71:6c:c1:1e:18:
                    67:e3:e9:ac:77:1e:04:bb:00:ea:8f:bd:95:82:e6:
                    43:35:15:a3:67:52:55:a1:1c:4c:a2:82:2b:8c:12:
                    21:8b:40:83:45:fa:d1:09:3d:a4:31:bf:f7:b8:0e:
                    cb:b2:b1:07:f7:f2:8b:38:05:f4:a3:1a:1d:7c:7c:
                    81:33:fe:77:44:01:c7:a7:21:00:dd:d2:cc:3d:2d:
                    75:30:94:28:ae:e8:75:1f:0e:ad:e2:ef:73:31:c3:
                    13:68:e0:51:81:99:92:ad:2a:18:ba:72:dc:14:3a:
                    1b:e8:0c:65:e2:02:e2:36:6e:d5:be:50:87:f4:dd:
                    f9:e3:98:cb:f7:bb:7a:8b:8e:f7:2d:bb:a0:89:39:
                    d4:a2:c4:4c:70:b5:96:d1:3b:4f:4e:f4:d4:8e:0b:
                    e1:0c:26:1f:36:99:c9:b7:db:8a:e1:9e:41:93:4a:
                    4e:52:1f:74:db:5e:d9:1e:dc:01:f4:17:4f:23:4e:
                    f7:e0:95:19:36:48:97:49:42:b7:48:05:da:08:55:
                    d5:53:1d:ad:41:66:c8:10:86:b4:b5:1c:aa:0b:51:
                    9a:81:76:49:3e:79:90:46:07:8e:f7:a9:f7:0b:2e:
                    2a:b0:38:a5:9d:34:93:84:ef:ce:93:48:26:6c:03:
                    01:2f:bf
                Exponent: 65537 (0x10001)
        X509v3 extensions:
            X509v3 Basic Constraints: 
                CA:FALSE
            Netscape Comment: 
                Easy-RSA Generated Certificate
            X509v3 Subject Key Identifier: 
                E6:02:7D:03:1A:7E:27:ED:E0:D4:0C:C0:AC:9D:95:02:7A:3A:44:E5
            X509v3 Authority Key Identifier: 
                keyid:EF:38:8D:14:50:58:A7:5B:4D:9C:17:72:FC:DF:B9:AC:A7:51:B0:10
                DirName:/C=US/ST=CA/L=SanFrancisco/O=Pixglo, Inc./OU=VPN-CIE/CN=tunnel.pixglo.com/name=Bala Chandrasekaran/emailAddress=bala@pixglo.com
                serial:A6:DB:C6:83:80:E6:A0:79

            X509v3 Extended Key Usage: 
                TLS Web Client Authentication
            X509v3 Key Usage: 
                Digital Signature
    Signature Algorithm: sha1WithRSAEncryption
         3d:74:31:13:0a:92:fe:af:1b:46:b1:d0:e3:d7:d6:e2:da:aa:
         d6:05:e2:b6:96:6b:61:ab:6f:f9:3a:34:a8:0f:70:7b:27:e4:
         f3:c0:ed:17:73:a5:b6:20:a4:29:fa:33:2a:89:1f:d9:98:1b:
         2d:ba:d9:39:54:3e:cb:06:f3:e2:7d:f7:48:25:07:0c:f5:8a:
         95:c5:52:4b:c2:90:39:74:30:05:d8:c1:51:85:0d:cb:cc:81:
         a5:3e:c3:2c:69:5b:b4:a9:13:2d:45:73:d5:e5:3b:70:fa:25:
         de:f5:3e:8a:36:87:c7:92:d3:a2:7e:6b:43:f9:3e:f3:fe:10:
         03:37:86:d7:79:27:54:60:87:1a:51:82:f0:46:5a:7a:c4:6d:
         af:b0:47:3b:bc:8c:1c:e8:2a:09:57:db:d7:64:d5:e7:0e:46:
         88:5c:65:41:b4:79:1c:fc:41:04:af:b6:a6:24:3f:c7:1f:c7:
         21:ef:1e:c3:69:6c:4a:d9:47:99:cf:a0:bf:95:55:ed:6a:4c:
         f3:9d:35:ef:71:17:90:f9:3d:24:de:66:ef:3a:9c:66:77:1d:
         4b:6c:b8:22:db:f6:a3:10:cf:b0:90:09:9b:ba:ff:2e:a1:fe:
         eb:3f:49:f7:90:8d:49:1a:af:0c:82:93:9f:7e:98:3e:6a:a3:
         8a:5b:9a:64:49:3a:51:52:c3:48:f2:94:dd:50:bf:b6:8d:de:
         01:e4:33:07:1d:5d:08:0f:7a:22:6f:0b:c5:3f:d8:7d:e0:85:
         dc:e0:9d:cd:11:b1:f4:03:9f:72:3d:bf:cf:7a:fd:3e:47:05:
         01:29:e1:20:74:8c:b1:ad:3e:11:af:35:f9:ee:d8:7e:91:d5:
         af:61:74:80:3c:46:7c:a1:12:14:d5:be:f8:94:7d:af:a2:78:
         5f:4a:a9:52:0f:10:ac:1f:7b:6f:5d:0f:d6:3e:19:4c:4a:c0:
         64:5d:54:8f:25:33:68:43:7c:07:91:03:ab:ea:eb:00:45:f5:
         18:59:13:1f:e4:eb:1f:f6:3c:80:62:5e:0a:7a:7e:c4:45:e4:
         21:f7:f3:c1:f2:a0:ed:54:c2:7d:8a:d3:29:c9:2b:26:1a:26:
         e7:ab:d9:38:4f:2f:5d:84:b2:f5:05:bc:cb:a2:31:c0:1b:e9:
         20:e1:a6:47:1b:c3:59:13:2a:21:c8:6a:69:68:01:ac:8b:b4:
         db:98:bc:1b:43:bf:1a:e3:37:c6:70:ab:46:e6:85:21:c0:76:
         d1:5c:9e:f8:1b:14:0b:a2:5a:1e:4b:8d:cb:66:5a:4b:0e:12:
         64:2e:66:20:49:54:86:cf:6e:d3:b1:a9:ec:05:f2:07:38:3f:
         8c:fc:8f:1a:ba:3c:98:b5
-----BEGIN CERTIFICATE-----
MIIHSDCCBTCgAwIBAgICATwwDQYJKoZIhvcNAQEFBQAwgbQxCzAJBgNVBAYTAlVT
MQswCQYDVQQIEwJDQTEVMBMGA1UEBxMMU2FuRnJhbmNpc2NvMRUwEwYDVQQKEwxQ
aXhnbG8sIEluYy4xEDAOBgNVBAsTB1ZQTi1DSUUxGjAYBgNVBAMTEXR1bm5lbC5w
aXhnbG8uY29tMRwwGgYDVQQpExNCYWxhIENoYW5kcmFzZWthcmFuMR4wHAYJKoZI
hvcNAQkBFg9iYWxhQHBpeGdsby5jb20wHhcNMTgwMjE0MDYzMDE1WhcNMjgwMjEy
MDYzMDE1WjCBqTELMAkGA1UEBhMCVVMxCzAJBgNVBAgTAkNBMRUwEwYDVQQHEwxT
YW5GcmFuY2lzY28xFTATBgNVBAoTDFBpeGdsbywgSW5jLjEQMA4GA1UECxMHVlBO
LUNJRTEPMA0GA1UEAxMGY2llMzE1MRwwGgYDVQQpExNCYWxhIENoYW5kcmFzZWth
cmFuMR4wHAYJKoZIhvcNAQkBFg9iYWxhQHBpeGdsby5jb20wggIiMA0GCSqGSIb3
DQEBAQUAA4ICDwAwggIKAoICAQCjvvXKGGi3L8CZnUxDNbPJQfMVkfzmDBNaJRpZ
y5hSZAzds7q26DBEAUJ8C87fiCnyoJvO7uMAJlOxMndgdQUOkbV7vj4thmNlSnJi
PqlY4zAxBFlxHuzlLk/y55qghVNQXTVdjqylmIkNZ4iZFRztXeED5BJ2fxVcwD1S
hTetmg9b6U2PAr0ZsOcSh/+rOCdaRvtMi9Bw0dlhuHC0LPeVUETK0Cfs6HTRRh73
WvvQWLdlg68TfxqGfsjNaUi2SPQGwXY5fst7GTaKylxSh9Jt3SV3MzOGx3rtMqox
blhPJDDIdbedrxRkULz2so6Db2XnwUJwMLj6M0xpiJxwov+S5Iy6OEhgxqRxbMEe
GGfj6ax3HgS7AOqPvZWC5kM1FaNnUlWhHEyigiuMEiGLQINF+tEJPaQxv/e4Dsuy
sQf38os4BfSjGh18fIEz/ndEAcenIQDd0sw9LXUwlCiu6HUfDq3i73MxwxNo4FGB
mZKtKhi6ctwUOhvoDGXiAuI2btW+UIf03fnjmMv3u3qLjvctu6CJOdSixExwtZbR
O09O9NSOC+EMJh82mcm324rhnkGTSk5SH3TbXtke3AH0F08jTvfglRk2SJdJQrdI
BdoIVdVTHa1BZsgQhrS1HKoLUZqBdkk+eZBGB473qfcLLiqwOKWdNJOE786TSCZs
AwEvvwIDAQABo4IBazCCAWcwCQYDVR0TBAIwADAtBglghkgBhvhCAQ0EIBYeRWFz
eS1SU0EgR2VuZXJhdGVkIENlcnRpZmljYXRlMB0GA1UdDgQWBBTmAn0DGn4n7eDU
DMCsnZUCejpE5TCB6QYDVR0jBIHhMIHegBTvOI0UUFinW02cF3L837msp1GwEKGB
uqSBtzCBtDELMAkGA1UEBhMCVVMxCzAJBgNVBAgTAkNBMRUwEwYDVQQHEwxTYW5G
cmFuY2lzY28xFTATBgNVBAoTDFBpeGdsbywgSW5jLjEQMA4GA1UECxMHVlBOLUNJ
RTEaMBgGA1UEAxMRdHVubmVsLnBpeGdsby5jb20xHDAaBgNVBCkTE0JhbGEgQ2hh
bmRyYXNla2FyYW4xHjAcBgkqhkiG9w0BCQEWD2JhbGFAcGl4Z2xvLmNvbYIJAKbb
xoOA5qB5MBMGA1UdJQQMMAoGCCsGAQUFBwMCMAsGA1UdDwQEAwIHgDANBgkqhkiG
9w0BAQUFAAOCAgEAPXQxEwqS/q8bRrHQ49fW4tqq1gXitpZrYatv+To0qA9weyfk
88DtF3OltiCkKfozKokf2ZgbLbrZOVQ+ywbz4n33SCUHDPWKlcVSS8KQOXQwBdjB
UYUNy8yBpT7DLGlbtKkTLUVz1eU7cPol3vU+ijaHx5LTon5rQ/k+8/4QAzeG13kn
VGCHGlGC8EZaesRtr7BHO7yMHOgqCVfb12TV5w5GiFxlQbR5HPxBBK+2piQ/xx/H
Ie8ew2lsStlHmc+gv5VV7WpM850173EXkPk9JN5m7zqcZncdS2y4Itv2oxDPsJAJ
m7r/LqH+6z9J95CNSRqvDIKTn36YPmqjiluaZEk6UVLDSPKU3VC/to3eAeQzBx1d
CA96Im8LxT/YfeCF3OCdzRGx9AOfcj2/z3r9PkcFASnhIHSMsa0+Ea81+e7YfpHV
r2F0gDxGfKESFNW++JR9r6J4X0qpUg8QrB97b10P1j4ZTErAZF1UjyUzaEN8B5ED
q+rrAEX1GFkTH+TrH/Y8gGJeCnp+xEXkIffzwfKg7VTCfYrTKckrJhom56vZOE8v
XYSy9QW8y6IxwBvpIOGmRxvDWRMqIchqaWgBrIu025i8G0O/GuM3xnCrRuaFIcB2
0Vye+BsUC6JaHkuNy2ZaSw4SZC5mIElUhs9u07Gp7AXyBzg/jPyPGro8mLU=
-----END CERTIFICATE-----
