Certificate:
    Data:
        Version: 3 (0x2)
        Serial Number: 318 (0x13e)
    Signature Algorithm: sha1WithRSAEncryption
        Issuer: C=US, ST=CA, L=SanFrancisco, O=Pixglo, Inc., OU=VPN-CIE, CN=tunnel.pixglo.com/name=Bala Chandrasekaran/emailAddress=bala@pixglo.com
        Validity
            Not Before: Feb 14 06:30:17 2018 GMT
            Not After : Feb 12 06:30:17 2028 GMT
        Subject: C=US, ST=CA, L=SanFrancisco, O=Pixglo, Inc., OU=VPN-CIE, CN=cie317/name=Bala Chandrasekaran/emailAddress=bala@pixglo.com
        Subject Public Key Info:
            Public Key Algorithm: rsaEncryption
                Public-Key: (4096 bit)
                Modulus:
                    00:b6:65:42:f9:b7:4a:56:4e:15:ae:2c:29:0f:71:
                    54:9d:4c:64:82:38:02:47:92:89:a4:d1:a3:23:71:
                    37:5c:a8:81:c9:25:47:c6:0e:a9:85:77:e3:6c:c4:
                    db:f9:e0:eb:c4:08:92:c3:12:01:0a:77:53:eb:88:
                    bf:5d:11:29:08:99:81:ca:87:0d:dd:47:e4:d4:76:
                    8f:9c:53:96:fa:30:4f:39:92:ed:07:15:8d:e4:63:
                    57:0d:a1:2c:bf:78:51:17:20:7d:44:97:4a:e8:e3:
                    ee:63:36:ce:0b:69:ea:3c:23:32:10:ce:93:08:cc:
                    cb:d7:11:60:71:cb:f5:13:37:c5:cf:50:a3:2d:38:
                    a8:07:14:d6:9d:ac:13:bc:a2:9f:df:d4:2f:16:61:
                    64:c0:01:c6:2d:74:07:1d:b0:28:e7:5f:58:3b:80:
                    86:d0:0e:9c:57:85:1e:4e:cc:5b:43:ae:08:4f:5a:
                    fb:d7:d0:73:3f:95:2b:34:76:96:ec:40:e3:0e:df:
                    22:e0:65:03:2c:a8:ed:85:05:9c:69:e8:04:0f:a7:
                    05:94:f2:df:9c:c7:6f:81:09:4b:2b:c3:ba:ca:e5:
                    2e:3b:92:1a:39:da:f5:ab:42:8f:c8:20:d0:8e:9a:
                    9d:b8:ac:65:8b:41:65:c9:f2:37:4d:17:28:b6:8e:
                    09:16:61:07:78:4f:f5:f2:1b:13:8c:7b:71:0b:81:
                    4c:10:f6:4c:30:01:bf:0a:88:5e:8b:fb:60:6b:8f:
                    64:7c:c9:70:4a:98:00:3a:6f:4e:8c:46:d8:06:8a:
                    d5:c9:4d:17:96:1e:7e:2f:14:da:b4:30:83:40:62:
                    24:2a:d3:a0:c6:43:31:ef:3b:1a:86:8b:c3:9e:96:
                    d2:cf:e1:70:a3:ff:d7:66:4b:a1:08:49:2e:c7:f4:
                    3e:60:ac:1a:5b:9e:aa:cd:13:33:29:5c:1a:c7:52:
                    00:d2:f0:9b:71:d4:9f:8b:cf:aa:34:19:46:9a:9a:
                    64:5b:1a:09:36:49:de:56:43:80:75:21:cf:79:a9:
                    4f:8d:34:89:c8:9e:31:da:e8:f0:6e:d7:1a:93:2d:
                    c6:0b:05:b1:9a:9c:8f:cf:14:40:9b:c6:24:fb:db:
                    01:4e:11:82:b0:19:85:75:af:7d:15:74:fb:eb:46:
                    a7:13:de:35:20:ef:de:08:7f:57:76:d9:94:10:59:
                    d4:f3:b4:cb:0e:f5:fd:43:c5:f1:ce:89:1d:80:60:
                    66:22:d3:db:cd:3e:8b:db:b7:a5:96:eb:af:d8:31:
                    30:8b:be:42:b6:42:5b:da:1c:60:8d:af:c1:fe:d8:
                    e5:a7:95:95:ff:00:18:71:7d:18:c5:c5:4e:b9:9c:
                    79:8c:c1
                Exponent: 65537 (0x10001)
        X509v3 extensions:
            X509v3 Basic Constraints: 
                CA:FALSE
            Netscape Comment: 
                Easy-RSA Generated Certificate
            X509v3 Subject Key Identifier: 
                D7:FA:7B:BE:26:65:94:0D:66:E7:0E:73:BE:3A:0C:1F:50:AD:68:19
            X509v3 Authority Key Identifier: 
                keyid:EF:38:8D:14:50:58:A7:5B:4D:9C:17:72:FC:DF:B9:AC:A7:51:B0:10
                DirName:/C=US/ST=CA/L=SanFrancisco/O=Pixglo, Inc./OU=VPN-CIE/CN=tunnel.pixglo.com/name=Bala Chandrasekaran/emailAddress=bala@pixglo.com
                serial:A6:DB:C6:83:80:E6:A0:79

            X509v3 Extended Key Usage: 
                TLS Web Client Authentication
            X509v3 Key Usage: 
                Digital Signature
    Signature Algorithm: sha1WithRSAEncryption
         3e:af:2a:f5:ba:b2:4e:59:96:6f:21:20:7d:3a:6b:e4:07:e8:
         89:5a:d7:bd:c0:e6:9e:43:28:07:3f:67:66:36:7e:46:68:a7:
         5e:91:1f:21:9c:3e:2b:73:33:d4:be:4b:7e:ca:06:f1:49:fe:
         ce:29:2e:bd:8a:9e:04:c7:62:d2:2d:d4:35:39:6b:4a:6b:f5:
         dd:4e:5e:88:4e:f9:3a:10:c3:f2:55:53:31:ce:cc:37:f3:18:
         ea:b4:e3:66:a2:4c:e3:31:6d:0f:c3:24:52:0a:b9:13:a5:6b:
         fc:82:08:ca:a1:87:06:52:a4:1c:33:35:db:53:ff:73:1a:c4:
         fa:2a:28:be:76:1e:f7:c7:48:49:0a:ae:83:1b:3f:2e:2f:b8:
         a8:de:61:5a:34:88:79:2d:70:8c:38:4c:37:b1:0f:85:1e:a3:
         15:a3:f1:a3:ca:f1:67:bc:0f:83:6d:e7:4d:d0:70:b2:23:85:
         35:b1:d8:6c:e0:af:18:e3:ad:d2:f4:0c:bc:d8:4f:82:c2:19:
         a3:fa:0b:76:f0:2c:e5:1d:bb:f6:14:63:07:4c:7d:61:41:22:
         37:59:9c:a5:10:3b:25:e4:40:8a:49:d3:34:4e:c1:b7:d4:86:
         f8:a9:ce:35:43:d4:90:c0:ed:19:9a:55:a6:5e:6c:de:f7:6a:
         84:da:18:e4:c8:a5:81:68:4c:9f:e0:eb:67:46:a4:94:2a:da:
         32:eb:54:70:6b:a8:e2:b0:c0:f4:ee:24:76:f8:99:00:6a:d4:
         a1:50:8d:12:1e:b5:05:6d:f3:fe:71:04:40:64:b1:bf:dd:94:
         10:e8:51:6e:6a:a9:53:68:bd:40:79:29:25:d8:4e:d7:b9:6c:
         90:06:0a:ae:5a:ca:46:fa:fd:6d:42:06:4b:c2:00:ae:d1:8d:
         9e:53:4a:d5:38:d0:3c:02:74:3f:d1:4c:ef:7d:86:71:37:1e:
         65:a7:75:7d:f2:6c:11:59:d1:31:02:aa:59:44:65:73:55:f0:
         4f:40:24:48:f3:86:84:3c:44:7c:e4:66:20:bd:d6:ea:90:69:
         cc:d2:0b:df:31:b7:49:dd:d4:ff:99:d5:21:48:af:ad:8d:48:
         83:b2:e9:27:d3:6a:d5:08:57:f5:f0:6f:3b:3a:07:98:04:21:
         7f:fb:73:b5:37:a1:05:8d:65:7f:d5:99:28:35:14:98:13:30:
         75:95:fd:cb:7b:19:9f:e3:c9:a7:e6:38:6b:78:a7:f3:ff:02:
         71:c2:2b:54:34:dd:14:3c:df:40:e8:e6:b3:87:b7:bf:c2:75:
         47:5c:48:72:75:9c:8a:53:03:e9:59:59:65:01:eb:31:9e:70:
         d1:2a:23:d9:71:28:f9:c6
-----BEGIN CERTIFICATE-----
MIIHSDCCBTCgAwIBAgICAT4wDQYJKoZIhvcNAQEFBQAwgbQxCzAJBgNVBAYTAlVT
MQswCQYDVQQIEwJDQTEVMBMGA1UEBxMMU2FuRnJhbmNpc2NvMRUwEwYDVQQKEwxQ
aXhnbG8sIEluYy4xEDAOBgNVBAsTB1ZQTi1DSUUxGjAYBgNVBAMTEXR1bm5lbC5w
aXhnbG8uY29tMRwwGgYDVQQpExNCYWxhIENoYW5kcmFzZWthcmFuMR4wHAYJKoZI
hvcNAQkBFg9iYWxhQHBpeGdsby5jb20wHhcNMTgwMjE0MDYzMDE3WhcNMjgwMjEy
MDYzMDE3WjCBqTELMAkGA1UEBhMCVVMxCzAJBgNVBAgTAkNBMRUwEwYDVQQHEwxT
YW5GcmFuY2lzY28xFTATBgNVBAoTDFBpeGdsbywgSW5jLjEQMA4GA1UECxMHVlBO
LUNJRTEPMA0GA1UEAxMGY2llMzE3MRwwGgYDVQQpExNCYWxhIENoYW5kcmFzZWth
cmFuMR4wHAYJKoZIhvcNAQkBFg9iYWxhQHBpeGdsby5jb20wggIiMA0GCSqGSIb3
DQEBAQUAA4ICDwAwggIKAoICAQC2ZUL5t0pWThWuLCkPcVSdTGSCOAJHkomk0aMj
cTdcqIHJJUfGDqmFd+NsxNv54OvECJLDEgEKd1PriL9dESkImYHKhw3dR+TUdo+c
U5b6ME85ku0HFY3kY1cNoSy/eFEXIH1El0ro4+5jNs4Laeo8IzIQzpMIzMvXEWBx
y/UTN8XPUKMtOKgHFNadrBO8op/f1C8WYWTAAcYtdAcdsCjnX1g7gIbQDpxXhR5O
zFtDrghPWvvX0HM/lSs0dpbsQOMO3yLgZQMsqO2FBZxp6AQPpwWU8t+cx2+BCUsr
w7rK5S47kho52vWrQo/IINCOmp24rGWLQWXJ8jdNFyi2jgkWYQd4T/XyGxOMe3EL
gUwQ9kwwAb8KiF6L+2Brj2R8yXBKmAA6b06MRtgGitXJTReWHn4vFNq0MINAYiQq
06DGQzHvOxqGi8OeltLP4XCj/9dmS6EISS7H9D5grBpbnqrNEzMpXBrHUgDS8Jtx
1J+Lz6o0GUaammRbGgk2Sd5WQ4B1Ic95qU+NNInInjHa6PBu1xqTLcYLBbGanI/P
FECbxiT72wFOEYKwGYV1r30VdPvrRqcT3jUg794If1d22ZQQWdTztMsO9f1DxfHO
iR2AYGYi09vNPovbt6WW66/YMTCLvkK2QlvaHGCNr8H+2OWnlZX/ABhxfRjFxU65
nHmMwQIDAQABo4IBazCCAWcwCQYDVR0TBAIwADAtBglghkgBhvhCAQ0EIBYeRWFz
eS1SU0EgR2VuZXJhdGVkIENlcnRpZmljYXRlMB0GA1UdDgQWBBTX+nu+JmWUDWbn
DnO+OgwfUK1oGTCB6QYDVR0jBIHhMIHegBTvOI0UUFinW02cF3L837msp1GwEKGB
uqSBtzCBtDELMAkGA1UEBhMCVVMxCzAJBgNVBAgTAkNBMRUwEwYDVQQHEwxTYW5G
cmFuY2lzY28xFTATBgNVBAoTDFBpeGdsbywgSW5jLjEQMA4GA1UECxMHVlBOLUNJ
RTEaMBgGA1UEAxMRdHVubmVsLnBpeGdsby5jb20xHDAaBgNVBCkTE0JhbGEgQ2hh
bmRyYXNla2FyYW4xHjAcBgkqhkiG9w0BCQEWD2JhbGFAcGl4Z2xvLmNvbYIJAKbb
xoOA5qB5MBMGA1UdJQQMMAoGCCsGAQUFBwMCMAsGA1UdDwQEAwIHgDANBgkqhkiG
9w0BAQUFAAOCAgEAPq8q9bqyTlmWbyEgfTpr5AfoiVrXvcDmnkMoBz9nZjZ+Rmin
XpEfIZw+K3Mz1L5LfsoG8Un+zikuvYqeBMdi0i3UNTlrSmv13U5eiE75OhDD8lVT
Mc7MN/MY6rTjZqJM4zFtD8MkUgq5E6Vr/IIIyqGHBlKkHDM121P/cxrE+ioovnYe
98dISQqugxs/Li+4qN5hWjSIeS1wjDhMN7EPhR6jFaPxo8rxZ7wPg23nTdBwsiOF
NbHYbOCvGOOt0vQMvNhPgsIZo/oLdvAs5R279hRjB0x9YUEiN1mcpRA7JeRAiknT
NE7Bt9SG+KnONUPUkMDtGZpVpl5s3vdqhNoY5MilgWhMn+DrZ0aklCraMutUcGuo
4rDA9O4kdviZAGrUoVCNEh61BW3z/nEEQGSxv92UEOhRbmqpU2i9QHkpJdhO17ls
kAYKrlrKRvr9bUIGS8IArtGNnlNK1TjQPAJ0P9FM732GcTceZad1ffJsEVnRMQKq
WURlc1XwT0AkSPOGhDxEfORmIL3W6pBpzNIL3zG3Sd3U/5nVIUivrY1Ig7LpJ9Nq
1QhX9fBvOzoHmAQhf/tztTehBY1lf9WZKDUUmBMwdZX9y3sZn+PJp+Y4a3in8/8C
ccIrVDTdFDzfQOjms4e3v8J1R1xIcnWcilMD6VlZZQHrMZ5w0Soj2XEo+cY=
-----END CERTIFICATE-----
