Certificate:
    Data:
        Version: 3 (0x2)
        Serial Number: 319 (0x13f)
    Signature Algorithm: sha1WithRSAEncryption
        Issuer: C=US, ST=CA, L=SanFrancisco, O=Pixglo, Inc., OU=VPN-CIE, CN=tunnel.pixglo.com/name=Bala Chandrasekaran/emailAddress=bala@pixglo.com
        Validity
            Not Before: Feb 14 06:30:17 2018 GMT
            Not After : Feb 12 06:30:17 2028 GMT
        Subject: C=US, ST=CA, L=SanFrancisco, O=Pixglo, Inc., OU=VPN-CIE, CN=cie318/name=Bala Chandrasekaran/emailAddress=bala@pixglo.com
        Subject Public Key Info:
            Public Key Algorithm: rsaEncryption
                Public-Key: (4096 bit)
                Modulus:
                    00:e5:fb:c6:f1:1f:b9:e4:3f:8c:84:dd:30:2f:98:
                    0f:20:23:16:94:d3:4e:08:4a:df:83:81:60:05:e4:
                    67:f9:55:3c:e4:b9:ce:60:29:62:93:36:a7:0c:c0:
                    38:b0:30:ac:a2:a8:c6:d9:20:0f:4b:d7:94:12:5d:
                    78:30:d2:0d:e7:cf:1d:3a:11:75:35:84:3b:6a:2d:
                    dd:83:69:12:77:a9:76:3a:ca:f4:93:d5:8e:97:d1:
                    bc:e8:ef:56:e5:45:eb:08:5f:25:c7:22:de:1a:42:
                    bb:49:45:5e:76:c6:8f:45:3d:1c:4d:f3:25:25:fe:
                    36:8d:07:dc:0c:ce:e1:b7:f6:9a:fc:01:f7:b3:6c:
                    b6:de:e4:7b:c7:ec:67:e9:b1:77:4d:6c:9c:d7:40:
                    ec:a8:6e:a9:f5:a3:1d:2d:e9:b1:28:e2:ac:4a:ff:
                    70:e1:0b:0c:b3:c7:94:56:d3:8d:04:23:48:0e:89:
                    d9:4f:35:b1:ed:9f:56:59:9f:fd:4b:a5:ec:ba:14:
                    d3:06:36:48:10:ab:00:7c:1c:08:9e:e4:a4:6b:75:
                    cf:c5:c5:b6:ce:ba:8c:6f:9b:7f:20:be:67:0c:74:
                    db:05:55:ef:75:2a:4e:54:24:ad:83:3f:e3:2e:5f:
                    88:32:ff:98:c9:23:39:2b:41:10:cf:4c:cf:0c:32:
                    d2:e9:40:90:64:3b:52:f3:bb:aa:fa:a9:f0:ef:1f:
                    00:df:69:85:1d:92:aa:23:d5:e7:2f:f5:c7:20:a3:
                    ac:c9:70:23:ba:f8:7a:a8:9e:a9:64:03:23:ed:5f:
                    fb:0d:cb:c6:72:8f:93:c2:96:89:71:af:1f:c1:ab:
                    2e:7e:fc:15:07:a3:33:71:90:ae:a6:71:b6:43:dc:
                    16:eb:1f:cb:cb:9d:75:87:ba:da:78:8c:37:96:1d:
                    cb:d7:85:c3:c1:87:78:8d:8b:4d:e6:b7:15:cc:3d:
                    c0:35:b0:56:4a:6d:24:67:3d:1a:9d:62:59:83:61:
                    b3:ee:87:ca:c8:10:f2:d7:b0:04:b2:e9:80:3c:d2:
                    b0:61:ce:2c:cf:6f:0c:e1:b7:88:dd:64:6a:a1:1f:
                    29:fe:d6:30:50:74:0a:c3:11:81:c0:4b:ac:8d:9b:
                    68:a4:a6:87:1a:93:4a:21:0d:ac:9d:87:1a:45:a5:
                    69:77:70:c5:55:11:98:be:d6:8c:e6:a1:ab:4a:c6:
                    68:88:21:cf:08:a8:41:e6:b4:07:51:8f:79:0e:ad:
                    56:18:22:e0:78:95:1d:1c:7a:24:01:16:94:b0:5d:
                    d5:c2:3b:35:df:ad:6a:0e:77:c1:5d:c6:e4:b1:26:
                    dc:b5:c2:ad:c9:76:c5:88:1f:4b:a3:46:9f:05:b2:
                    f9:6c:9f
                Exponent: 65537 (0x10001)
        X509v3 extensions:
            X509v3 Basic Constraints: 
                CA:FALSE
            Netscape Comment: 
                Easy-RSA Generated Certificate
            X509v3 Subject Key Identifier: 
                9C:05:1D:15:67:DC:24:84:32:AC:B9:A4:51:7A:F3:92:F0:CF:70:E2
            X509v3 Authority Key Identifier: 
                keyid:EF:38:8D:14:50:58:A7:5B:4D:9C:17:72:FC:DF:B9:AC:A7:51:B0:10
                DirName:/C=US/ST=CA/L=SanFrancisco/O=Pixglo, Inc./OU=VPN-CIE/CN=tunnel.pixglo.com/name=Bala Chandrasekaran/emailAddress=bala@pixglo.com
                serial:A6:DB:C6:83:80:E6:A0:79

            X509v3 Extended Key Usage: 
                TLS Web Client Authentication
            X509v3 Key Usage: 
                Digital Signature
    Signature Algorithm: sha1WithRSAEncryption
         b0:f2:37:67:31:19:54:c7:e5:58:7c:1c:c8:ca:ea:02:e6:2c:
         fd:d4:5c:c4:80:5f:bb:b4:4a:a2:7e:7d:7c:1e:51:a5:1e:8a:
         11:8c:5c:91:6c:17:58:f8:28:50:7e:cb:9b:11:50:d9:32:d5:
         c4:2d:ae:6b:b9:a4:d8:df:57:a5:b2:ec:99:27:c9:56:e8:50:
         b4:98:af:84:8b:1d:ea:bb:62:47:60:70:74:e2:8e:84:c6:31:
         cd:79:d6:7c:69:35:21:18:f2:76:cc:8e:ec:ff:58:12:32:29:
         0c:76:42:1b:bc:ce:38:8d:aa:51:5e:ab:1f:32:f7:4f:70:5f:
         08:ae:27:7f:eb:2e:db:0b:fc:23:07:f6:a0:e4:4c:c4:68:11:
         be:f1:3c:fa:2a:cd:8e:d8:77:1e:b4:83:e0:d9:eb:10:ec:94:
         c6:7b:b5:d9:2e:94:eb:ed:d8:cb:47:1c:25:ea:3d:c8:73:c3:
         b0:69:80:f3:4b:64:4b:d9:03:ce:d9:1e:d9:55:ca:8f:f1:b9:
         27:99:40:58:ca:25:16:19:66:d7:b5:fe:51:8c:00:75:e3:42:
         f6:67:13:db:df:47:f0:46:b1:b0:4b:5f:70:f8:c1:f4:98:c0:
         ce:19:14:0c:ca:96:c0:8d:ad:ef:7f:1b:3c:c6:27:76:fb:d2:
         e2:e2:43:e9:e2:36:ca:de:74:6b:f7:c3:64:15:f0:eb:de:81:
         5b:fc:9e:4f:af:5f:a9:c4:9a:00:e0:d8:40:92:e1:28:51:bb:
         08:e1:7d:dd:70:02:c3:af:db:52:1a:f3:ac:2a:a4:d6:2d:da:
         96:c4:0a:e4:89:8c:2c:8a:78:a1:4e:b3:2f:80:ac:b8:13:4e:
         fd:5b:6a:cc:d5:97:4e:13:e2:12:35:3f:39:74:b7:09:28:41:
         b7:47:4e:1c:a6:4f:96:64:11:f4:36:21:34:35:3b:df:40:0b:
         1a:4b:05:31:18:a9:ad:b6:26:0d:4e:80:81:4a:ff:5a:05:2f:
         1d:4a:78:0c:0c:fe:2c:57:13:25:18:de:8d:f8:d4:7b:84:f3:
         5d:cd:f4:92:aa:ce:1f:64:28:98:42:bd:20:64:d7:91:dd:35:
         24:55:5e:81:e4:4e:47:83:d8:4c:a5:d1:34:38:f7:25:a7:04:
         a9:53:fe:2c:17:6b:15:08:f7:cc:df:12:cc:9c:19:31:52:11:
         cc:ef:56:37:c7:7a:cf:f0:92:ff:7a:07:cc:ca:84:62:7d:3a:
         f0:8d:f8:75:bd:7d:69:55:23:aa:80:75:85:89:10:70:ac:f9:
         a7:c6:66:78:4b:35:07:58:c8:70:11:62:2f:0b:51:41:b0:15:
         4e:09:cf:2f:76:68:83:fe
-----BEGIN CERTIFICATE-----
MIIHSDCCBTCgAwIBAgICAT8wDQYJKoZIhvcNAQEFBQAwgbQxCzAJBgNVBAYTAlVT
MQswCQYDVQQIEwJDQTEVMBMGA1UEBxMMU2FuRnJhbmNpc2NvMRUwEwYDVQQKEwxQ
aXhnbG8sIEluYy4xEDAOBgNVBAsTB1ZQTi1DSUUxGjAYBgNVBAMTEXR1bm5lbC5w
aXhnbG8uY29tMRwwGgYDVQQpExNCYWxhIENoYW5kcmFzZWthcmFuMR4wHAYJKoZI
hvcNAQkBFg9iYWxhQHBpeGdsby5jb20wHhcNMTgwMjE0MDYzMDE3WhcNMjgwMjEy
MDYzMDE3WjCBqTELMAkGA1UEBhMCVVMxCzAJBgNVBAgTAkNBMRUwEwYDVQQHEwxT
YW5GcmFuY2lzY28xFTATBgNVBAoTDFBpeGdsbywgSW5jLjEQMA4GA1UECxMHVlBO
LUNJRTEPMA0GA1UEAxMGY2llMzE4MRwwGgYDVQQpExNCYWxhIENoYW5kcmFzZWth
cmFuMR4wHAYJKoZIhvcNAQkBFg9iYWxhQHBpeGdsby5jb20wggIiMA0GCSqGSIb3
DQEBAQUAA4ICDwAwggIKAoICAQDl+8bxH7nkP4yE3TAvmA8gIxaU004ISt+DgWAF
5Gf5VTzkuc5gKWKTNqcMwDiwMKyiqMbZIA9L15QSXXgw0g3nzx06EXU1hDtqLd2D
aRJ3qXY6yvST1Y6X0bzo71blResIXyXHIt4aQrtJRV52xo9FPRxN8yUl/jaNB9wM
zuG39pr8AfezbLbe5HvH7GfpsXdNbJzXQOyobqn1ox0t6bEo4qxK/3DhCwyzx5RW
040EI0gOidlPNbHtn1ZZn/1Lpey6FNMGNkgQqwB8HAie5KRrdc/FxbbOuoxvm38g
vmcMdNsFVe91Kk5UJK2DP+MuX4gy/5jJIzkrQRDPTM8MMtLpQJBkO1Lzu6r6qfDv
HwDfaYUdkqoj1ecv9ccgo6zJcCO6+HqonqlkAyPtX/sNy8Zyj5PClolxrx/Bqy5+
/BUHozNxkK6mcbZD3BbrH8vLnXWHutp4jDeWHcvXhcPBh3iNi03mtxXMPcA1sFZK
bSRnPRqdYlmDYbPuh8rIEPLXsASy6YA80rBhzizPbwzht4jdZGqhHyn+1jBQdArD
EYHAS6yNm2ikpocak0ohDaydhxpFpWl3cMVVEZi+1ozmoatKxmiIIc8IqEHmtAdR
j3kOrVYYIuB4lR0ceiQBFpSwXdXCOzXfrWoOd8FdxuSxJty1wq3JdsWIH0ujRp8F
svlsnwIDAQABo4IBazCCAWcwCQYDVR0TBAIwADAtBglghkgBhvhCAQ0EIBYeRWFz
eS1SU0EgR2VuZXJhdGVkIENlcnRpZmljYXRlMB0GA1UdDgQWBBScBR0VZ9wkhDKs
uaRRevOS8M9w4jCB6QYDVR0jBIHhMIHegBTvOI0UUFinW02cF3L837msp1GwEKGB
uqSBtzCBtDELMAkGA1UEBhMCVVMxCzAJBgNVBAgTAkNBMRUwEwYDVQQHEwxTYW5G
cmFuY2lzY28xFTATBgNVBAoTDFBpeGdsbywgSW5jLjEQMA4GA1UECxMHVlBOLUNJ
RTEaMBgGA1UEAxMRdHVubmVsLnBpeGdsby5jb20xHDAaBgNVBCkTE0JhbGEgQ2hh
bmRyYXNla2FyYW4xHjAcBgkqhkiG9w0BCQEWD2JhbGFAcGl4Z2xvLmNvbYIJAKbb
xoOA5qB5MBMGA1UdJQQMMAoGCCsGAQUFBwMCMAsGA1UdDwQEAwIHgDANBgkqhkiG
9w0BAQUFAAOCAgEAsPI3ZzEZVMflWHwcyMrqAuYs/dRcxIBfu7RKon59fB5RpR6K
EYxckWwXWPgoUH7LmxFQ2TLVxC2ua7mk2N9XpbLsmSfJVuhQtJivhIsd6rtiR2Bw
dOKOhMYxzXnWfGk1IRjydsyO7P9YEjIpDHZCG7zOOI2qUV6rHzL3T3BfCK4nf+su
2wv8Iwf2oORMxGgRvvE8+irNjth3HrSD4NnrEOyUxnu12S6U6+3Yy0ccJeo9yHPD
sGmA80tkS9kDztke2VXKj/G5J5lAWMolFhlm17X+UYwAdeNC9mcT299H8EaxsEtf
cPjB9JjAzhkUDMqWwI2t738bPMYndvvS4uJD6eI2yt50a/fDZBXw696BW/yeT69f
qcSaAODYQJLhKFG7COF93XACw6/bUhrzrCqk1i3alsQK5ImMLIp4oU6zL4CsuBNO
/VtqzNWXThPiEjU/OXS3CShBt0dOHKZPlmQR9DYhNDU730ALGksFMRiprbYmDU6A
gUr/WgUvHUp4DAz+LFcTJRjejfjUe4TzXc30kqrOH2QomEK9IGTXkd01JFVegeRO
R4PYTKXRNDj3JacEqVP+LBdrFQj3zN8SzJwZMVIRzO9WN8d6z/CS/3oHzMqEYn06
8I34db19aVUjqoB1hYkQcKz5p8ZmeEs1B1jIcBFiLwtRQbAVTgnPL3Zog/4=
-----END CERTIFICATE-----
