Certificate:
    Data:
        Version: 3 (0x2)
        Serial Number: 323 (0x143)
    Signature Algorithm: sha1WithRSAEncryption
        Issuer: C=US, ST=CA, L=SanFrancisco, O=Pixglo, Inc., OU=VPN-CIE, CN=tunnel.pixglo.com/name=Bala Chandrasekaran/emailAddress=bala@pixglo.com
        Validity
            Not Before: Feb 14 06:30:22 2018 GMT
            Not After : Feb 12 06:30:22 2028 GMT
        Subject: C=US, ST=CA, L=SanFrancisco, O=Pixglo, Inc., OU=VPN-CIE, CN=cie322/name=Bala Chandrasekaran/emailAddress=bala@pixglo.com
        Subject Public Key Info:
            Public Key Algorithm: rsaEncryption
                Public-Key: (4096 bit)
                Modulus:
                    00:b6:dd:ef:5c:e8:86:91:1b:93:d6:f2:02:8f:8d:
                    ec:e6:65:6f:14:af:cc:ad:1a:85:2e:eb:53:f1:e2:
                    e1:f2:20:fe:b5:80:bc:59:6d:de:a2:e2:9f:fc:75:
                    79:cb:ae:7f:c8:b4:69:10:a5:d5:68:5e:c1:05:66:
                    7a:ce:d4:56:05:91:1d:1e:66:76:8d:43:a4:3e:2b:
                    72:47:2e:e7:32:57:18:9b:66:a7:8a:a7:34:ff:a9:
                    db:19:a2:cf:16:1c:9b:43:9b:c0:9e:f8:a0:f9:5c:
                    b5:95:02:74:ab:a1:b5:b4:97:65:dd:e0:3f:7c:b4:
                    52:23:64:60:fb:53:f8:ce:11:f2:8e:c3:9e:42:9e:
                    4d:9c:80:5e:16:f4:be:01:cb:a0:b9:4f:e4:2f:9e:
                    d5:cf:2a:02:20:af:d1:a7:a7:90:19:36:a5:2f:a2:
                    f7:b4:59:d5:94:18:7c:bb:cd:59:8f:f6:d8:f7:fb:
                    39:51:39:e4:d2:10:08:16:70:df:4c:64:ca:8f:e0:
                    32:b6:d8:94:f3:7a:2e:69:c1:eb:24:94:d2:be:d7:
                    fe:32:0b:d3:c0:8c:36:f9:96:60:05:03:9c:f2:5c:
                    43:20:02:67:df:17:00:2a:45:84:49:06:bb:43:bb:
                    3b:b5:4a:54:5f:43:9c:4e:7e:69:4d:89:0a:72:2b:
                    bd:d4:53:c4:ba:a9:cd:ca:dd:cb:ff:82:7c:46:7a:
                    fa:86:b8:89:69:f6:97:c6:bc:24:c1:0f:0f:ab:ec:
                    f0:71:ff:a9:58:d9:50:80:c0:eb:5c:0b:bc:be:b0:
                    1a:5f:5a:91:da:86:f8:78:80:e3:3d:37:f6:7e:e5:
                    1f:53:68:9e:dd:07:c4:55:1c:4c:fc:f3:19:82:9f:
                    4c:6f:eb:c1:1a:ce:12:6f:e0:d8:3c:2f:ef:c5:06:
                    a5:d0:f1:2a:22:61:c0:2c:25:30:e7:a8:e8:9f:12:
                    b6:88:7d:5d:02:8a:94:ee:1f:31:d6:b0:85:ff:01:
                    b8:29:2f:8a:d5:4c:8e:ab:75:ff:0f:c9:c7:1d:44:
                    fe:b9:6e:8e:af:bf:96:99:04:5f:b8:9b:ea:1c:f9:
                    b1:47:50:6e:89:80:b1:b3:65:c0:b5:ab:2f:83:c1:
                    46:8e:29:4c:65:06:b9:ab:ac:db:9b:ef:bf:44:68:
                    36:62:5f:3f:8c:0a:c5:20:11:d7:e4:d0:cc:8b:3b:
                    af:76:83:53:e9:31:1e:f8:7f:e7:e9:b6:6b:00:7f:
                    76:f2:83:84:dd:a1:e8:56:3e:55:d1:5e:1e:19:fd:
                    9f:27:b5:13:f9:7f:f8:25:10:49:3a:91:29:87:8f:
                    7d:c5:22:58:6f:b8:5f:25:52:09:fd:2c:ce:1a:77:
                    d7:5b:cd
                Exponent: 65537 (0x10001)
        X509v3 extensions:
            X509v3 Basic Constraints: 
                CA:FALSE
            Netscape Comment: 
                Easy-RSA Generated Certificate
            X509v3 Subject Key Identifier: 
                94:57:A5:9A:31:6D:B0:CE:19:30:E5:89:FD:9E:E3:9B:57:02:89:A1
            X509v3 Authority Key Identifier: 
                keyid:EF:38:8D:14:50:58:A7:5B:4D:9C:17:72:FC:DF:B9:AC:A7:51:B0:10
                DirName:/C=US/ST=CA/L=SanFrancisco/O=Pixglo, Inc./OU=VPN-CIE/CN=tunnel.pixglo.com/name=Bala Chandrasekaran/emailAddress=bala@pixglo.com
                serial:A6:DB:C6:83:80:E6:A0:79

            X509v3 Extended Key Usage: 
                TLS Web Client Authentication
            X509v3 Key Usage: 
                Digital Signature
    Signature Algorithm: sha1WithRSAEncryption
         c2:14:01:e9:c0:5f:ac:7a:77:04:3b:e5:72:5c:74:59:16:a9:
         8f:ae:27:e6:b9:9e:e6:cc:d5:a5:e0:f2:b7:2d:47:9e:e8:b6:
         ec:6c:fc:60:8a:5f:55:df:a9:d1:5a:bf:38:85:90:38:ff:f1:
         06:54:e3:fb:5f:78:34:06:19:0a:a1:00:d0:5b:a4:bb:64:51:
         73:10:d6:5f:0f:12:48:77:76:f2:03:be:bb:27:36:b8:e3:a1:
         2f:e6:06:36:f6:b9:c7:e7:a4:1e:91:c7:f6:f7:1b:b7:7d:ee:
         9f:2f:59:e4:7a:98:c4:ad:d3:fd:67:d7:0e:9c:62:40:0c:ec:
         0e:e5:fd:19:17:d2:38:45:39:90:d7:83:ec:f1:3f:28:f7:d4:
         9f:e5:9f:14:90:e7:2e:c8:7c:1c:96:33:e3:39:2e:a5:85:0b:
         63:25:d4:53:f2:08:cb:c0:b6:80:c6:22:3f:32:74:70:7f:26:
         d3:9d:00:80:5c:68:b4:bd:62:48:ce:b2:2e:3c:35:e8:56:c7:
         31:d1:43:a5:63:16:93:d4:45:f3:b9:a6:74:65:2c:8f:7a:1e:
         30:87:17:f8:b9:c8:b6:de:fb:b3:f7:70:10:4c:02:ac:1d:54:
         98:41:63:cc:c8:2f:88:97:f5:1c:b3:7a:96:0f:f3:59:06:09:
         ef:ac:f0:bc:76:38:e7:f5:80:a5:c5:b7:97:ce:29:5d:1b:5c:
         9e:6d:29:cd:6f:15:af:1f:01:ba:7d:d3:73:c8:09:9f:e5:ad:
         22:00:28:0f:0d:20:d7:fb:04:a3:f2:b8:ae:5d:9e:2d:52:04:
         82:26:91:8b:e3:50:95:d6:ac:e2:a5:5e:ac:67:19:20:c5:67:
         8d:94:e4:f5:5b:a8:69:af:02:42:7a:4f:a5:0b:46:01:2f:a5:
         76:59:ce:74:c3:d8:b0:bf:de:08:23:0a:92:c3:ad:b6:3d:e8:
         4f:ce:44:fc:33:68:b6:9f:6b:21:ac:c9:19:df:cb:0f:2e:2f:
         15:39:93:68:16:de:8f:2e:03:2a:30:5f:cd:14:9f:16:8d:a5:
         73:c1:b4:5a:54:a7:18:3e:83:2f:2b:1c:ee:1d:28:ad:b9:cd:
         4b:23:f6:83:dd:c0:31:1d:d7:46:65:43:f8:80:6a:d5:4f:7f:
         48:84:c3:f9:57:9b:ca:d3:2c:5b:50:21:10:b3:0c:3b:da:57:
         51:16:b4:70:c6:16:1c:e8:fd:06:60:92:20:d4:9e:54:f9:e9:
         6c:29:1c:cc:44:58:9d:d3:4a:64:ef:e1:af:fc:5b:70:a5:40:
         99:96:11:45:1f:1a:2c:26:20:7e:f4:69:55:40:0d:b4:10:d6:
         e0:e7:94:11:6d:a4:b0:23
-----BEGIN CERTIFICATE-----
MIIHSDCCBTCgAwIBAgICAUMwDQYJKoZIhvcNAQEFBQAwgbQxCzAJBgNVBAYTAlVT
MQswCQYDVQQIEwJDQTEVMBMGA1UEBxMMU2FuRnJhbmNpc2NvMRUwEwYDVQQKEwxQ
aXhnbG8sIEluYy4xEDAOBgNVBAsTB1ZQTi1DSUUxGjAYBgNVBAMTEXR1bm5lbC5w
aXhnbG8uY29tMRwwGgYDVQQpExNCYWxhIENoYW5kcmFzZWthcmFuMR4wHAYJKoZI
hvcNAQkBFg9iYWxhQHBpeGdsby5jb20wHhcNMTgwMjE0MDYzMDIyWhcNMjgwMjEy
MDYzMDIyWjCBqTELMAkGA1UEBhMCVVMxCzAJBgNVBAgTAkNBMRUwEwYDVQQHEwxT
YW5GcmFuY2lzY28xFTATBgNVBAoTDFBpeGdsbywgSW5jLjEQMA4GA1UECxMHVlBO
LUNJRTEPMA0GA1UEAxMGY2llMzIyMRwwGgYDVQQpExNCYWxhIENoYW5kcmFzZWth
cmFuMR4wHAYJKoZIhvcNAQkBFg9iYWxhQHBpeGdsby5jb20wggIiMA0GCSqGSIb3
DQEBAQUAA4ICDwAwggIKAoICAQC23e9c6IaRG5PW8gKPjezmZW8Ur8ytGoUu61Px
4uHyIP61gLxZbd6i4p/8dXnLrn/ItGkQpdVoXsEFZnrO1FYFkR0eZnaNQ6Q+K3JH
LucyVxibZqeKpzT/qdsZos8WHJtDm8Ce+KD5XLWVAnSrobW0l2Xd4D98tFIjZGD7
U/jOEfKOw55Cnk2cgF4W9L4By6C5T+QvntXPKgIgr9Gnp5AZNqUvove0WdWUGHy7
zVmP9tj3+zlROeTSEAgWcN9MZMqP4DK22JTzei5pwesklNK+1/4yC9PAjDb5lmAF
A5zyXEMgAmffFwAqRYRJBrtDuzu1SlRfQ5xOfmlNiQpyK73UU8S6qc3K3cv/gnxG
evqGuIlp9pfGvCTBDw+r7PBx/6lY2VCAwOtcC7y+sBpfWpHahvh4gOM9N/Z+5R9T
aJ7dB8RVHEz88xmCn0xv68EazhJv4Ng8L+/FBqXQ8SoiYcAsJTDnqOifEraIfV0C
ipTuHzHWsIX/AbgpL4rVTI6rdf8PyccdRP65bo6vv5aZBF+4m+oc+bFHUG6JgLGz
ZcC1qy+DwUaOKUxlBrmrrNub779EaDZiXz+MCsUgEdfk0MyLO692g1PpMR74f+fp
tmsAf3byg4TdoehWPlXRXh4Z/Z8ntRP5f/glEEk6kSmHj33FIlhvuF8lUgn9LM4a
d9dbzQIDAQABo4IBazCCAWcwCQYDVR0TBAIwADAtBglghkgBhvhCAQ0EIBYeRWFz
eS1SU0EgR2VuZXJhdGVkIENlcnRpZmljYXRlMB0GA1UdDgQWBBSUV6WaMW2wzhkw
5Yn9nuObVwKJoTCB6QYDVR0jBIHhMIHegBTvOI0UUFinW02cF3L837msp1GwEKGB
uqSBtzCBtDELMAkGA1UEBhMCVVMxCzAJBgNVBAgTAkNBMRUwEwYDVQQHEwxTYW5G
cmFuY2lzY28xFTATBgNVBAoTDFBpeGdsbywgSW5jLjEQMA4GA1UECxMHVlBOLUNJ
RTEaMBgGA1UEAxMRdHVubmVsLnBpeGdsby5jb20xHDAaBgNVBCkTE0JhbGEgQ2hh
bmRyYXNla2FyYW4xHjAcBgkqhkiG9w0BCQEWD2JhbGFAcGl4Z2xvLmNvbYIJAKbb
xoOA5qB5MBMGA1UdJQQMMAoGCCsGAQUFBwMCMAsGA1UdDwQEAwIHgDANBgkqhkiG
9w0BAQUFAAOCAgEAwhQB6cBfrHp3BDvlclx0WRapj64n5rme5szVpeDyty1Hnui2
7Gz8YIpfVd+p0Vq/OIWQOP/xBlTj+194NAYZCqEA0Fuku2RRcxDWXw8SSHd28gO+
uyc2uOOhL+YGNva5x+ekHpHH9vcbt33uny9Z5HqYxK3T/WfXDpxiQAzsDuX9GRfS
OEU5kNeD7PE/KPfUn+WfFJDnLsh8HJYz4zkupYULYyXUU/IIy8C2gMYiPzJ0cH8m
050AgFxotL1iSM6yLjw16FbHMdFDpWMWk9RF87mmdGUsj3oeMIcX+LnItt77s/dw
EEwCrB1UmEFjzMgviJf1HLN6lg/zWQYJ76zwvHY45/WApcW3l84pXRtcnm0pzW8V
rx8Bun3Tc8gJn+WtIgAoDw0g1/sEo/K4rl2eLVIEgiaRi+NQldas4qVerGcZIMVn
jZTk9Vuoaa8CQnpPpQtGAS+ldlnOdMPYsL/eCCMKksOttj3oT85E/DNotp9rIazJ
Gd/LDy4vFTmTaBbejy4DKjBfzRSfFo2lc8G0WlSnGD6DLysc7h0orbnNSyP2g93A
MR3XRmVD+IBq1U9/SITD+VebytMsW1AhELMMO9pXURa0cMYWHOj9BmCSINSeVPnp
bCkczERYndNKZO/hr/xbcKVAmZYRRR8aLCYgfvRpVUANtBDW4OeUEW2ksCM=
-----END CERTIFICATE-----
