Certificate:
    Data:
        Version: 3 (0x2)
        Serial Number: 325 (0x145)
    Signature Algorithm: sha1WithRSAEncryption
        Issuer: C=US, ST=CA, L=SanFrancisco, O=Pixglo, Inc., OU=VPN-CIE, CN=tunnel.pixglo.com/name=Bala Chandrasekaran/emailAddress=bala@pixglo.com
        Validity
            Not Before: Feb 14 06:30:24 2018 GMT
            Not After : Feb 12 06:30:24 2028 GMT
        Subject: C=US, ST=CA, L=SanFrancisco, O=Pixglo, Inc., OU=VPN-CIE, CN=cie324/name=Bala Chandrasekaran/emailAddress=bala@pixglo.com
        Subject Public Key Info:
            Public Key Algorithm: rsaEncryption
                Public-Key: (4096 bit)
                Modulus:
                    00:c7:b8:e0:5f:e2:36:56:bf:98:4d:1a:1d:52:b2:
                    33:fc:9d:5d:02:26:8d:ba:43:f1:70:96:47:40:07:
                    94:56:f3:73:66:1e:85:60:00:d5:83:56:76:2d:f1:
                    20:d3:06:10:1f:30:94:5a:b3:7e:cc:5d:62:51:f2:
                    2c:50:97:e8:7d:a1:44:d2:23:7d:8e:22:e7:81:15:
                    d8:5f:1e:95:fa:fe:3b:31:f3:5c:3f:96:cd:97:1a:
                    32:17:ea:21:a6:ea:ab:94:3d:ad:f0:25:49:d5:1d:
                    03:f5:24:cf:8c:be:7d:a9:90:90:61:25:73:99:7a:
                    91:2d:14:22:7e:40:33:10:7f:da:f9:8d:5b:8d:ab:
                    92:7c:63:63:08:a2:95:87:d4:15:ba:c5:94:18:e2:
                    58:96:22:b3:bc:00:bd:93:02:c6:05:25:7b:ae:ff:
                    25:6a:a8:24:18:b8:4d:83:ef:6d:c3:a3:b5:c9:c0:
                    8d:a0:70:08:62:53:95:80:f6:6e:b3:0d:6e:68:fa:
                    32:d8:01:3c:60:82:ec:44:7a:29:89:8e:41:84:1a:
                    45:a0:0a:fc:2b:3c:1b:77:20:ad:95:0f:20:ca:4c:
                    5e:8e:22:f9:a3:13:59:c9:8e:c3:b0:a5:39:80:ac:
                    89:20:e1:f1:b8:eb:f3:89:17:00:70:11:d9:2c:03:
                    21:3c:99:ed:c5:07:dd:af:35:26:74:5c:63:53:92:
                    c5:0a:82:28:63:40:74:24:68:3b:6c:d7:4b:22:3c:
                    11:d3:f3:0d:8e:c1:be:4e:83:8f:b2:15:dd:11:16:
                    51:f3:c8:b4:7e:43:79:3a:79:7f:9f:64:27:ef:a5:
                    82:a6:13:0d:cf:1f:1a:c5:b4:b9:9f:03:25:5d:a5:
                    88:4f:45:ea:26:9e:a3:d9:33:05:ea:3d:1e:10:ba:
                    92:ef:55:0e:a7:d3:62:b3:98:6d:28:7d:02:f4:6f:
                    38:71:17:f6:50:eb:08:10:11:9d:71:73:31:50:6b:
                    4f:d6:23:b5:fb:88:e4:01:1b:84:bd:22:e9:f8:46:
                    e9:a9:15:09:b4:fb:99:f9:05:af:ee:ef:55:fe:15:
                    e4:18:0e:cb:38:d2:bd:63:f0:df:36:f2:42:31:fb:
                    9c:fa:15:d2:55:20:87:97:15:63:7c:3d:a1:d0:b1:
                    52:f9:10:7c:4f:22:16:8c:8e:1f:7c:af:11:fd:22:
                    3b:50:59:29:21:3e:57:2e:45:16:f4:8d:c5:8f:82:
                    58:15:e2:79:09:bd:da:63:ec:50:fd:a3:80:d9:28:
                    7f:71:bc:55:b9:61:bd:45:60:6b:e2:64:49:15:3f:
                    56:48:24:6a:e8:5a:8f:76:52:12:0b:e2:e7:c1:ee:
                    f7:40:fd
                Exponent: 65537 (0x10001)
        X509v3 extensions:
            X509v3 Basic Constraints: 
                CA:FALSE
            Netscape Comment: 
                Easy-RSA Generated Certificate
            X509v3 Subject Key Identifier: 
                BC:0B:00:25:A9:73:5D:AA:21:F1:53:45:A3:D9:35:C8:3A:8A:19:94
            X509v3 Authority Key Identifier: 
                keyid:EF:38:8D:14:50:58:A7:5B:4D:9C:17:72:FC:DF:B9:AC:A7:51:B0:10
                DirName:/C=US/ST=CA/L=SanFrancisco/O=Pixglo, Inc./OU=VPN-CIE/CN=tunnel.pixglo.com/name=Bala Chandrasekaran/emailAddress=bala@pixglo.com
                serial:A6:DB:C6:83:80:E6:A0:79

            X509v3 Extended Key Usage: 
                TLS Web Client Authentication
            X509v3 Key Usage: 
                Digital Signature
    Signature Algorithm: sha1WithRSAEncryption
         d3:32:95:7e:6a:eb:87:17:61:fa:5f:d6:b8:39:a7:88:a1:69:
         9d:a6:c5:73:12:98:85:a0:62:e0:a3:e9:7c:2d:aa:d0:ee:c3:
         68:19:56:3c:35:eb:54:96:f8:34:b8:9e:f0:10:d1:3e:f9:e2:
         5c:a6:e0:26:7d:1a:05:de:77:bc:07:5d:55:59:34:52:4a:80:
         8a:00:53:63:de:0f:94:0b:2b:f6:45:8d:d8:ac:f4:bb:65:53:
         c8:b8:ce:8b:ac:43:a8:4e:6e:c5:22:4c:53:45:e3:1e:6b:b5:
         78:8e:b6:f4:fb:ad:ac:51:1a:8e:a8:09:c6:33:1d:ad:a8:ce:
         43:65:96:b3:ee:8b:c2:1d:0c:f9:24:0e:9a:95:49:05:77:17:
         b3:32:a5:81:aa:5f:2a:31:44:fc:18:c9:ca:dd:66:9c:fa:f9:
         a3:1f:1f:cb:d8:69:1f:67:53:19:1b:b2:b6:48:13:19:ce:b8:
         f2:ba:ac:9a:4e:77:f6:87:c9:c0:75:8e:5b:b8:e2:9a:4f:85:
         54:c4:a0:ff:6c:39:39:3d:51:d2:c4:ca:37:44:a0:a5:04:79:
         57:6d:ec:3b:ba:21:41:29:a3:d9:4d:5f:28:8b:13:a1:51:14:
         47:59:52:f5:35:a4:e3:be:50:e2:87:ea:0e:f6:f4:9c:8c:a0:
         af:c2:51:ec:8d:d1:e4:1f:51:e5:7c:c3:ee:d2:00:e0:3d:47:
         2a:74:1a:65:04:66:d7:2d:c2:b1:ac:0c:bc:24:27:16:ba:e8:
         1d:3b:38:fd:5a:e6:84:bd:f1:ac:55:81:9a:d2:cd:90:97:bf:
         25:2c:4e:b0:7f:cf:0d:93:a1:c5:40:be:71:18:e8:98:4b:56:
         5e:67:87:39:d6:94:61:fc:1b:d5:6c:38:3c:8a:03:c9:4e:14:
         a5:c3:01:cf:39:7a:9b:c1:59:d4:92:01:64:9a:29:c5:ca:e9:
         9f:b0:84:ee:e2:64:33:fe:7e:db:36:4c:6b:cc:63:1d:59:c6:
         ec:85:cb:a1:e5:5f:6a:c2:b4:93:f2:a8:e8:67:65:47:05:fe:
         cc:94:1f:07:c1:45:66:54:70:ba:ed:c5:67:79:00:98:f8:3c:
         64:94:5e:57:d2:b9:fc:bc:a4:45:72:93:4e:2a:b8:d7:6b:68:
         2f:cf:c5:b8:7e:c8:7a:76:31:80:3d:e8:7f:52:e7:f2:f4:fa:
         1d:44:cf:bf:71:c9:3c:97:ea:9a:60:ad:a4:54:ca:18:99:08:
         c8:20:40:83:bd:73:99:d5:de:07:af:63:e3:99:1d:bc:03:53:
         ca:00:61:65:61:22:d1:07:3a:0d:5b:68:ee:53:e6:1b:d2:eb:
         c8:b9:d9:52:d8:cf:e2:6f
-----BEGIN CERTIFICATE-----
MIIHSDCCBTCgAwIBAgICAUUwDQYJKoZIhvcNAQEFBQAwgbQxCzAJBgNVBAYTAlVT
MQswCQYDVQQIEwJDQTEVMBMGA1UEBxMMU2FuRnJhbmNpc2NvMRUwEwYDVQQKEwxQ
aXhnbG8sIEluYy4xEDAOBgNVBAsTB1ZQTi1DSUUxGjAYBgNVBAMTEXR1bm5lbC5w
aXhnbG8uY29tMRwwGgYDVQQpExNCYWxhIENoYW5kcmFzZWthcmFuMR4wHAYJKoZI
hvcNAQkBFg9iYWxhQHBpeGdsby5jb20wHhcNMTgwMjE0MDYzMDI0WhcNMjgwMjEy
MDYzMDI0WjCBqTELMAkGA1UEBhMCVVMxCzAJBgNVBAgTAkNBMRUwEwYDVQQHEwxT
YW5GcmFuY2lzY28xFTATBgNVBAoTDFBpeGdsbywgSW5jLjEQMA4GA1UECxMHVlBO
LUNJRTEPMA0GA1UEAxMGY2llMzI0MRwwGgYDVQQpExNCYWxhIENoYW5kcmFzZWth
cmFuMR4wHAYJKoZIhvcNAQkBFg9iYWxhQHBpeGdsby5jb20wggIiMA0GCSqGSIb3
DQEBAQUAA4ICDwAwggIKAoICAQDHuOBf4jZWv5hNGh1SsjP8nV0CJo26Q/FwlkdA
B5RW83NmHoVgANWDVnYt8SDTBhAfMJRas37MXWJR8ixQl+h9oUTSI32OIueBFdhf
HpX6/jsx81w/ls2XGjIX6iGm6quUPa3wJUnVHQP1JM+Mvn2pkJBhJXOZepEtFCJ+
QDMQf9r5jVuNq5J8Y2MIopWH1BW6xZQY4liWIrO8AL2TAsYFJXuu/yVqqCQYuE2D
723Do7XJwI2gcAhiU5WA9m6zDW5o+jLYATxgguxEeimJjkGEGkWgCvwrPBt3IK2V
DyDKTF6OIvmjE1nJjsOwpTmArIkg4fG46/OJFwBwEdksAyE8me3FB92vNSZ0XGNT
ksUKgihjQHQkaDts10siPBHT8w2Owb5Og4+yFd0RFlHzyLR+Q3k6eX+fZCfvpYKm
Ew3PHxrFtLmfAyVdpYhPReomnqPZMwXqPR4QupLvVQ6n02KzmG0ofQL0bzhxF/ZQ
6wgQEZ1xczFQa0/WI7X7iOQBG4S9Iun4RumpFQm0+5n5Ba/u71X+FeQYDss40r1j
8N828kIx+5z6FdJVIIeXFWN8PaHQsVL5EHxPIhaMjh98rxH9IjtQWSkhPlcuRRb0
jcWPglgV4nkJvdpj7FD9o4DZKH9xvFW5Yb1FYGviZEkVP1ZIJGroWo92UhIL4ufB
7vdA/QIDAQABo4IBazCCAWcwCQYDVR0TBAIwADAtBglghkgBhvhCAQ0EIBYeRWFz
eS1SU0EgR2VuZXJhdGVkIENlcnRpZmljYXRlMB0GA1UdDgQWBBS8CwAlqXNdqiHx
U0Wj2TXIOooZlDCB6QYDVR0jBIHhMIHegBTvOI0UUFinW02cF3L837msp1GwEKGB
uqSBtzCBtDELMAkGA1UEBhMCVVMxCzAJBgNVBAgTAkNBMRUwEwYDVQQHEwxTYW5G
cmFuY2lzY28xFTATBgNVBAoTDFBpeGdsbywgSW5jLjEQMA4GA1UECxMHVlBOLUNJ
RTEaMBgGA1UEAxMRdHVubmVsLnBpeGdsby5jb20xHDAaBgNVBCkTE0JhbGEgQ2hh
bmRyYXNla2FyYW4xHjAcBgkqhkiG9w0BCQEWD2JhbGFAcGl4Z2xvLmNvbYIJAKbb
xoOA5qB5MBMGA1UdJQQMMAoGCCsGAQUFBwMCMAsGA1UdDwQEAwIHgDANBgkqhkiG
9w0BAQUFAAOCAgEA0zKVfmrrhxdh+l/WuDmniKFpnabFcxKYhaBi4KPpfC2q0O7D
aBlWPDXrVJb4NLie8BDRPvniXKbgJn0aBd53vAddVVk0UkqAigBTY94PlAsr9kWN
2Kz0u2VTyLjOi6xDqE5uxSJMU0XjHmu1eI629PutrFEajqgJxjMdrajOQ2WWs+6L
wh0M+SQOmpVJBXcXszKlgapfKjFE/BjJyt1mnPr5ox8fy9hpH2dTGRuytkgTGc64
8rqsmk539ofJwHWOW7jimk+FVMSg/2w5OT1R0sTKN0SgpQR5V23sO7ohQSmj2U1f
KIsToVEUR1lS9TWk475Q4ofqDvb0nIygr8JR7I3R5B9R5XzD7tIA4D1HKnQaZQRm
1y3CsawMvCQnFrroHTs4/VrmhL3xrFWBmtLNkJe/JSxOsH/PDZOhxUC+cRjomEtW
XmeHOdaUYfwb1Ww4PIoDyU4UpcMBzzl6m8FZ1JIBZJopxcrpn7CE7uJkM/5+2zZM
a8xjHVnG7IXLoeVfasK0k/Ko6GdlRwX+zJQfB8FFZlRwuu3FZ3kAmPg8ZJReV9K5
/LykRXKTTiq412toL8/FuH7IenYxgD3of1Ln8vT6HUTPv3HJPJfqmmCtpFTKGJkI
yCBAg71zmdXeB69j45kdvANTygBhZWEi0Qc6DVto7lPmG9LryLnZUtjP4m8=
-----END CERTIFICATE-----
