Certificate:
    Data:
        Version: 3 (0x2)
        Serial Number: 326 (0x146)
    Signature Algorithm: sha1WithRSAEncryption
        Issuer: C=US, ST=CA, L=SanFrancisco, O=Pixglo, Inc., OU=VPN-CIE, CN=tunnel.pixglo.com/name=Bala Chandrasekaran/emailAddress=bala@pixglo.com
        Validity
            Not Before: Feb 14 06:30:25 2018 GMT
            Not After : Feb 12 06:30:25 2028 GMT
        Subject: C=US, ST=CA, L=SanFrancisco, O=Pixglo, Inc., OU=VPN-CIE, CN=cie325/name=Bala Chandrasekaran/emailAddress=bala@pixglo.com
        Subject Public Key Info:
            Public Key Algorithm: rsaEncryption
                Public-Key: (4096 bit)
                Modulus:
                    00:f2:1e:20:9d:c9:c0:38:76:a8:20:f0:20:9f:fb:
                    30:79:e7:aa:c1:a3:2c:f6:f1:81:5b:c7:94:42:6c:
                    3b:db:59:9a:04:71:7b:7a:e4:fa:5f:a3:e5:7a:23:
                    e5:ee:ee:ad:13:7a:28:91:5d:df:dc:2c:fb:a3:5b:
                    55:7e:2a:b6:5d:49:8a:d7:ff:17:38:66:92:75:fe:
                    b8:e1:3a:03:54:a0:c1:63:ae:10:62:a2:0e:0e:c4:
                    8e:46:4c:9b:71:96:dd:1d:ec:69:d2:2a:44:9c:6a:
                    de:13:ee:95:78:59:29:ef:32:03:e8:cc:7d:29:76:
                    bb:ce:69:83:2d:81:0a:c0:1e:be:b8:d2:97:37:fe:
                    5b:63:3d:6e:86:b8:eb:f0:e9:c5:c5:e7:9b:8c:14:
                    9e:e6:80:75:7e:da:ae:82:5e:2a:e7:e0:75:5f:be:
                    b0:d5:f4:d0:6d:41:6d:0d:55:8c:60:25:4b:87:ea:
                    54:fc:aa:df:27:68:86:cf:a3:f3:2a:d9:8d:dc:80:
                    00:61:89:bb:34:a2:76:af:73:b8:53:0c:5a:d1:a0:
                    75:5f:40:b7:62:98:2e:5f:f6:c6:33:78:4a:07:6d:
                    20:9e:eb:75:86:57:a4:8c:5b:67:01:ff:ed:c3:68:
                    51:a0:b6:b8:f8:03:90:00:58:f9:44:8f:c5:0a:a3:
                    4b:37:9d:2c:92:d8:02:66:ff:c1:eb:e8:6c:13:69:
                    f9:ba:4d:5f:8a:f8:30:67:b7:9d:90:82:d8:9c:fa:
                    e3:66:fe:61:2f:5e:de:a9:77:37:6f:5d:c8:1a:4d:
                    f3:70:1c:e3:f0:10:02:32:c1:f2:75:57:36:b2:c7:
                    b1:fd:e6:d6:24:78:11:82:45:77:69:c8:ce:43:0a:
                    c8:e3:0d:50:2b:1e:ef:9b:34:8c:12:44:12:00:44:
                    c6:f4:74:69:bb:1f:2f:75:8e:b1:04:4b:c6:92:67:
                    55:74:69:c8:88:f0:24:c7:a9:f2:17:a7:2f:99:f3:
                    72:64:0a:76:d6:4f:c7:7f:42:db:f4:b9:7e:be:b7:
                    12:56:c0:84:c7:ad:14:90:65:bd:2f:62:84:6b:02:
                    e0:af:16:2e:0a:f7:93:54:f6:0f:fc:ea:11:40:2d:
                    56:ab:56:ce:dd:b8:93:08:81:3a:08:c0:ad:df:73:
                    3d:14:03:4c:72:19:fb:fc:61:91:3c:f7:81:9e:b7:
                    4b:07:0c:27:6b:91:65:02:b9:a6:04:25:cf:30:57:
                    e0:a2:18:bb:7b:38:cd:03:02:a5:18:d7:37:70:12:
                    2a:61:58:dc:fd:ae:a5:5f:7d:80:00:a0:93:c5:fd:
                    55:6d:27:f5:21:e8:e0:6f:32:6b:2f:34:01:31:0c:
                    fb:b4:05
                Exponent: 65537 (0x10001)
        X509v3 extensions:
            X509v3 Basic Constraints: 
                CA:FALSE
            Netscape Comment: 
                Easy-RSA Generated Certificate
            X509v3 Subject Key Identifier: 
                9C:4D:E8:50:EB:5D:3C:97:D8:63:97:66:66:56:02:7D:71:6F:E0:C6
            X509v3 Authority Key Identifier: 
                keyid:EF:38:8D:14:50:58:A7:5B:4D:9C:17:72:FC:DF:B9:AC:A7:51:B0:10
                DirName:/C=US/ST=CA/L=SanFrancisco/O=Pixglo, Inc./OU=VPN-CIE/CN=tunnel.pixglo.com/name=Bala Chandrasekaran/emailAddress=bala@pixglo.com
                serial:A6:DB:C6:83:80:E6:A0:79

            X509v3 Extended Key Usage: 
                TLS Web Client Authentication
            X509v3 Key Usage: 
                Digital Signature
    Signature Algorithm: sha1WithRSAEncryption
         c6:55:41:6e:44:50:b0:a5:a2:0b:24:c4:1e:d0:e5:a2:04:b3:
         b0:8c:a5:26:6f:3c:d6:1c:81:be:a1:a5:11:fe:8f:05:5f:90:
         1d:c2:e1:38:d7:75:54:8e:e9:86:45:b0:e2:14:26:d2:17:03:
         c1:70:d2:4f:cf:92:b6:4c:c5:5f:e2:31:05:83:90:01:ca:b5:
         17:e2:df:15:56:c4:d6:3c:f8:1f:44:70:f9:f1:33:ae:a9:c5:
         56:1b:91:8c:5b:5b:6a:e0:66:b5:7f:38:0e:70:db:e1:17:0f:
         22:7a:5a:08:80:6e:64:b6:85:4c:13:f7:69:cb:65:1e:f4:9c:
         dd:48:16:57:95:b6:d0:bd:a4:29:d7:78:b4:b9:ac:10:cc:3e:
         9e:66:f3:c7:07:bb:0b:4c:51:5e:63:b8:7a:d9:8a:c8:13:58:
         db:2f:1c:72:08:c4:bc:21:db:5e:58:a3:f6:6c:1a:d7:91:22:
         ca:e9:69:c6:3c:9d:cb:e6:d9:b7:6a:a2:78:ec:a8:ab:9f:9b:
         5a:23:d0:e3:13:95:3d:b4:67:9a:a1:23:56:25:5a:3d:12:5c:
         aa:82:33:47:c7:f6:2d:c5:65:39:dd:86:db:bc:a8:29:fb:d8:
         29:08:42:93:9f:e7:f3:59:15:be:7b:be:87:83:7d:63:39:0a:
         01:4e:4e:d2:f5:32:8c:0a:f4:9c:8f:8f:b0:66:ee:5e:d3:32:
         01:38:47:be:d0:0f:cc:9c:f5:40:41:01:93:81:7a:d0:92:7c:
         f0:50:6b:59:34:1b:a8:7e:19:6e:21:24:42:4a:37:64:9e:6b:
         b7:31:50:0e:db:90:39:ec:57:11:5c:62:07:b8:d8:41:4e:93:
         83:a2:bc:23:b6:2e:2b:08:71:67:c8:08:bc:c9:7b:c4:8d:3f:
         13:74:aa:63:11:e0:4c:dc:f7:35:77:e6:20:5b:a3:57:d9:d6:
         8f:86:e5:cf:85:a9:c4:05:55:e3:1e:35:9d:a7:75:9c:b4:fc:
         af:fe:c4:1b:8d:77:56:9f:9f:98:a1:d7:65:a8:8d:44:04:8e:
         91:4e:b7:ec:f4:c9:06:b2:ad:31:1b:b5:bc:31:48:5a:e3:ab:
         b4:58:e8:3c:7f:96:a6:71:ea:b6:3e:e6:b0:94:d6:26:e1:51:
         6b:9d:9f:eb:2d:6f:5d:41:53:db:58:d9:99:61:4e:d9:a1:c3:
         0a:44:c1:45:d2:eb:a6:02:e3:e3:ae:54:00:52:02:9c:a8:2b:
         4f:33:95:b6:69:4f:7f:16:6b:a8:bd:29:67:61:f2:a7:9a:b2:
         a0:e8:52:51:76:ef:c1:4a:b2:64:7b:e1:a5:b6:52:61:dd:80:
         2d:fd:f0:fd:29:da:2d:00
-----BEGIN CERTIFICATE-----
MIIHSDCCBTCgAwIBAgICAUYwDQYJKoZIhvcNAQEFBQAwgbQxCzAJBgNVBAYTAlVT
MQswCQYDVQQIEwJDQTEVMBMGA1UEBxMMU2FuRnJhbmNpc2NvMRUwEwYDVQQKEwxQ
aXhnbG8sIEluYy4xEDAOBgNVBAsTB1ZQTi1DSUUxGjAYBgNVBAMTEXR1bm5lbC5w
aXhnbG8uY29tMRwwGgYDVQQpExNCYWxhIENoYW5kcmFzZWthcmFuMR4wHAYJKoZI
hvcNAQkBFg9iYWxhQHBpeGdsby5jb20wHhcNMTgwMjE0MDYzMDI1WhcNMjgwMjEy
MDYzMDI1WjCBqTELMAkGA1UEBhMCVVMxCzAJBgNVBAgTAkNBMRUwEwYDVQQHEwxT
YW5GcmFuY2lzY28xFTATBgNVBAoTDFBpeGdsbywgSW5jLjEQMA4GA1UECxMHVlBO
LUNJRTEPMA0GA1UEAxMGY2llMzI1MRwwGgYDVQQpExNCYWxhIENoYW5kcmFzZWth
cmFuMR4wHAYJKoZIhvcNAQkBFg9iYWxhQHBpeGdsby5jb20wggIiMA0GCSqGSIb3
DQEBAQUAA4ICDwAwggIKAoICAQDyHiCdycA4dqgg8CCf+zB556rBoyz28YFbx5RC
bDvbWZoEcXt65Ppfo+V6I+Xu7q0TeiiRXd/cLPujW1V+KrZdSYrX/xc4ZpJ1/rjh
OgNUoMFjrhBiog4OxI5GTJtxlt0d7GnSKkScat4T7pV4WSnvMgPozH0pdrvOaYMt
gQrAHr640pc3/ltjPW6GuOvw6cXF55uMFJ7mgHV+2q6CXirn4HVfvrDV9NBtQW0N
VYxgJUuH6lT8qt8naIbPo/Mq2Y3cgABhibs0onavc7hTDFrRoHVfQLdimC5f9sYz
eEoHbSCe63WGV6SMW2cB/+3DaFGgtrj4A5AAWPlEj8UKo0s3nSyS2AJm/8Hr6GwT
afm6TV+K+DBnt52Qgtic+uNm/mEvXt6pdzdvXcgaTfNwHOPwEAIywfJ1Vzayx7H9
5tYkeBGCRXdpyM5DCsjjDVArHu+bNIwSRBIARMb0dGm7Hy91jrEES8aSZ1V0aciI
8CTHqfIXpy+Z83JkCnbWT8d/Qtv0uX6+txJWwITHrRSQZb0vYoRrAuCvFi4K95NU
9g/86hFALVarVs7duJMIgToIwK3fcz0UA0xyGfv8YZE894Get0sHDCdrkWUCuaYE
Jc8wV+CiGLt7OM0DAqUY1zdwEiphWNz9rqVffYAAoJPF/VVtJ/Uh6OBvMmsvNAEx
DPu0BQIDAQABo4IBazCCAWcwCQYDVR0TBAIwADAtBglghkgBhvhCAQ0EIBYeRWFz
eS1SU0EgR2VuZXJhdGVkIENlcnRpZmljYXRlMB0GA1UdDgQWBBScTehQ6108l9hj
l2ZmVgJ9cW/gxjCB6QYDVR0jBIHhMIHegBTvOI0UUFinW02cF3L837msp1GwEKGB
uqSBtzCBtDELMAkGA1UEBhMCVVMxCzAJBgNVBAgTAkNBMRUwEwYDVQQHEwxTYW5G
cmFuY2lzY28xFTATBgNVBAoTDFBpeGdsbywgSW5jLjEQMA4GA1UECxMHVlBOLUNJ
RTEaMBgGA1UEAxMRdHVubmVsLnBpeGdsby5jb20xHDAaBgNVBCkTE0JhbGEgQ2hh
bmRyYXNla2FyYW4xHjAcBgkqhkiG9w0BCQEWD2JhbGFAcGl4Z2xvLmNvbYIJAKbb
xoOA5qB5MBMGA1UdJQQMMAoGCCsGAQUFBwMCMAsGA1UdDwQEAwIHgDANBgkqhkiG
9w0BAQUFAAOCAgEAxlVBbkRQsKWiCyTEHtDlogSzsIylJm881hyBvqGlEf6PBV+Q
HcLhONd1VI7phkWw4hQm0hcDwXDST8+StkzFX+IxBYOQAcq1F+LfFVbE1jz4H0Rw
+fEzrqnFVhuRjFtbauBmtX84DnDb4RcPInpaCIBuZLaFTBP3actlHvSc3UgWV5W2
0L2kKdd4tLmsEMw+nmbzxwe7C0xRXmO4etmKyBNY2y8ccgjEvCHbXlij9mwa15Ei
yulpxjydy+bZt2qieOyoq5+bWiPQ4xOVPbRnmqEjViVaPRJcqoIzR8f2LcVlOd2G
27yoKfvYKQhCk5/n81kVvnu+h4N9YzkKAU5O0vUyjAr0nI+PsGbuXtMyAThHvtAP
zJz1QEEBk4F60JJ88FBrWTQbqH4ZbiEkQko3ZJ5rtzFQDtuQOexXEVxiB7jYQU6T
g6K8I7YuKwhxZ8gIvMl7xI0/E3SqYxHgTNz3NXfmIFujV9nWj4blz4WpxAVV4x41
nad1nLT8r/7EG413Vp+fmKHXZaiNRASOkU637PTJBrKtMRu1vDFIWuOrtFjoPH+W
pnHqtj7msJTWJuFRa52f6y1vXUFT21jZmWFO2aHDCkTBRdLrpgLj465UAFICnKgr
TzOVtmlPfxZrqL0pZ2Hyp5qyoOhSUXbvwUqyZHvhpbZSYd2ALf3w/SnaLQA=
-----END CERTIFICATE-----
