Certificate:
    Data:
        Version: 3 (0x2)
        Serial Number: 327 (0x147)
    Signature Algorithm: sha1WithRSAEncryption
        Issuer: C=US, ST=CA, L=SanFrancisco, O=Pixglo, Inc., OU=VPN-CIE, CN=tunnel.pixglo.com/name=Bala Chandrasekaran/emailAddress=bala@pixglo.com
        Validity
            Not Before: Feb 14 06:30:25 2018 GMT
            Not After : Feb 12 06:30:25 2028 GMT
        Subject: C=US, ST=CA, L=SanFrancisco, O=Pixglo, Inc., OU=VPN-CIE, CN=cie326/name=Bala Chandrasekaran/emailAddress=bala@pixglo.com
        Subject Public Key Info:
            Public Key Algorithm: rsaEncryption
                Public-Key: (4096 bit)
                Modulus:
                    00:b4:6b:85:79:6f:12:df:38:f6:81:56:9a:3f:3f:
                    50:04:69:79:8d:8a:c1:86:16:de:6f:8d:d0:5f:ce:
                    83:a7:ca:65:e5:cf:32:4a:f1:af:f8:b6:f8:41:f9:
                    5c:c3:18:0c:10:c6:1c:2c:37:ed:fb:d4:d4:9e:46:
                    b5:75:e0:2c:b0:5c:54:7b:80:aa:ca:31:31:10:77:
                    9e:f2:b4:d7:b5:af:51:9a:0b:da:5f:49:d2:fd:db:
                    60:83:7c:eb:46:36:83:fa:64:14:cf:4b:6f:b6:00:
                    81:53:a8:56:70:43:39:b7:05:e1:94:20:bf:7d:fb:
                    4d:8e:99:0c:04:2e:cb:3b:75:af:39:50:6b:51:da:
                    11:7f:ba:55:92:58:9e:b3:76:47:ed:49:17:e7:41:
                    5e:db:34:f0:a3:f6:6f:ad:84:6a:ad:70:f2:b2:77:
                    6c:c8:13:1e:d9:df:50:cb:0d:83:c2:4c:58:03:f5:
                    81:91:fe:db:14:c6:81:98:fc:63:36:de:d0:30:39:
                    8b:75:af:65:80:8b:23:c0:c3:7a:c8:08:1b:5c:0f:
                    5b:8f:63:1d:3d:7f:7c:8f:8b:05:ef:73:3e:75:82:
                    89:fc:22:24:51:65:e7:5c:70:3c:38:c4:47:e0:db:
                    28:96:02:cb:bf:66:3c:a2:2a:de:b6:24:92:69:73:
                    b9:40:b7:aa:ad:54:75:6c:41:33:78:e3:ff:20:8e:
                    3e:54:d9:43:7c:da:fd:72:ff:65:62:b4:db:c3:95:
                    11:df:50:88:92:20:c0:3c:b7:a8:ab:73:2a:12:58:
                    04:74:28:94:93:18:16:2c:e0:6e:44:95:e1:e2:4b:
                    94:da:a0:66:7b:95:91:f9:d7:38:61:57:c8:1d:bc:
                    02:a7:01:75:d1:6a:18:0c:b5:df:07:14:41:b8:2e:
                    6f:e9:e9:f6:3a:88:db:ca:e2:9f:66:ee:17:94:b2:
                    78:9e:dc:2a:e1:9e:da:1d:e4:55:cb:72:0a:eb:fb:
                    73:85:75:66:8a:73:6c:52:b1:d8:91:b8:c0:1d:86:
                    86:c8:21:5d:da:48:67:02:21:3a:08:e4:d1:c3:8a:
                    b4:cf:96:26:26:e7:b8:4c:a9:66:6d:d2:6b:f2:90:
                    31:fb:1d:6c:f8:7a:a6:5e:00:f0:c3:68:ed:fe:68:
                    3f:f6:e9:68:06:d3:d0:f1:ea:df:6b:fb:ef:08:f2:
                    49:cf:6d:31:bd:73:02:c7:c3:33:9a:02:30:fb:21:
                    97:a7:da:57:3e:4f:2c:11:3b:a3:c8:20:75:90:57:
                    92:03:12:c1:5e:ed:af:5c:da:9c:1a:9b:e0:b5:3b:
                    cb:6b:9e:59:3f:52:b4:fb:6e:d0:3f:1f:d2:fa:19:
                    91:08:5d
                Exponent: 65537 (0x10001)
        X509v3 extensions:
            X509v3 Basic Constraints: 
                CA:FALSE
            Netscape Comment: 
                Easy-RSA Generated Certificate
            X509v3 Subject Key Identifier: 
                56:44:AE:22:A6:00:DF:C0:1E:29:A1:58:FB:4B:D2:83:7B:D4:D1:18
            X509v3 Authority Key Identifier: 
                keyid:EF:38:8D:14:50:58:A7:5B:4D:9C:17:72:FC:DF:B9:AC:A7:51:B0:10
                DirName:/C=US/ST=CA/L=SanFrancisco/O=Pixglo, Inc./OU=VPN-CIE/CN=tunnel.pixglo.com/name=Bala Chandrasekaran/emailAddress=bala@pixglo.com
                serial:A6:DB:C6:83:80:E6:A0:79

            X509v3 Extended Key Usage: 
                TLS Web Client Authentication
            X509v3 Key Usage: 
                Digital Signature
    Signature Algorithm: sha1WithRSAEncryption
         1f:93:06:70:11:20:cd:33:5b:ec:be:b5:38:52:59:1c:0f:92:
         5c:25:cd:b9:9e:8f:3c:15:33:bf:ff:d5:63:7f:c8:f7:0c:41:
         be:58:bc:9c:ac:6a:c9:98:21:78:3c:4f:53:89:d9:7e:6b:3b:
         ec:2d:36:43:5b:ee:32:59:e3:f0:dd:4e:59:42:92:5e:13:67:
         28:d4:70:5e:42:aa:13:8b:a0:11:da:9e:2f:c8:b5:d8:e5:e7:
         53:e3:65:27:38:00:21:49:8a:88:07:47:7d:43:c2:e8:72:14:
         46:08:f0:0f:71:40:8c:09:ff:8d:19:c4:49:62:00:ca:cc:8a:
         df:5b:bd:a7:ca:5f:b0:12:d8:9b:ed:26:41:81:58:af:df:43:
         a9:a8:4f:70:43:fb:31:8b:dc:e5:69:6a:72:d5:86:42:67:52:
         cc:09:4c:3b:fe:eb:a6:08:9d:f0:fb:ae:03:eb:a0:e2:55:71:
         d7:ba:a3:2b:01:fa:94:7e:11:bf:72:9d:4e:80:70:82:7b:d4:
         ba:2a:89:13:20:4a:45:18:3c:2a:1f:b9:5e:a1:c3:cf:ef:2d:
         32:24:26:a4:c9:cf:a9:de:44:b4:0d:9c:f3:28:e4:65:4b:08:
         6f:3e:d9:27:07:9f:17:97:45:00:97:74:ea:43:46:68:47:a2:
         a9:94:11:b9:72:1a:aa:b2:5c:fd:1f:ff:14:b0:45:2d:d6:92:
         71:67:64:53:63:86:94:d2:d8:cf:51:db:b0:6b:d9:6d:ed:b5:
         78:25:e5:1c:9f:ba:e5:97:00:0d:16:5a:2d:4d:80:23:ab:41:
         90:01:10:df:d7:3b:66:bf:75:75:df:eb:b7:cf:28:49:cb:55:
         db:9a:3b:f9:5a:02:b2:84:ac:b2:ed:93:2d:db:6d:94:69:27:
         12:bc:03:23:b3:be:75:f3:c5:c6:b1:18:28:7a:ca:d4:2d:8e:
         2c:7d:33:9e:08:c9:95:cf:08:07:3e:dc:b7:dd:17:88:2b:e0:
         d1:9a:ae:dc:a9:49:68:9e:7e:38:fa:3d:e4:de:20:5c:d1:e2:
         09:8c:83:64:df:37:75:50:f9:b1:bd:74:e7:f6:d9:b0:61:c5:
         66:fd:9c:e1:4c:7d:6b:7f:39:a9:06:38:d3:51:54:d7:7a:4c:
         e4:9b:2d:16:82:ff:e2:c7:60:f7:50:f1:84:fa:0a:36:d2:ce:
         18:45:c4:6e:bd:09:c4:d9:53:1d:52:8f:cb:a3:3a:d0:d2:4b:
         f8:2a:0f:c7:64:18:19:2a:00:eb:ff:20:f2:af:c0:41:c5:c5:
         89:34:74:f1:f9:45:06:ef:ca:ce:40:ac:bd:bc:bc:04:da:44:
         4e:35:46:0b:be:98:4c:26
-----BEGIN CERTIFICATE-----
MIIHSDCCBTCgAwIBAgICAUcwDQYJKoZIhvcNAQEFBQAwgbQxCzAJBgNVBAYTAlVT
MQswCQYDVQQIEwJDQTEVMBMGA1UEBxMMU2FuRnJhbmNpc2NvMRUwEwYDVQQKEwxQ
aXhnbG8sIEluYy4xEDAOBgNVBAsTB1ZQTi1DSUUxGjAYBgNVBAMTEXR1bm5lbC5w
aXhnbG8uY29tMRwwGgYDVQQpExNCYWxhIENoYW5kcmFzZWthcmFuMR4wHAYJKoZI
hvcNAQkBFg9iYWxhQHBpeGdsby5jb20wHhcNMTgwMjE0MDYzMDI1WhcNMjgwMjEy
MDYzMDI1WjCBqTELMAkGA1UEBhMCVVMxCzAJBgNVBAgTAkNBMRUwEwYDVQQHEwxT
YW5GcmFuY2lzY28xFTATBgNVBAoTDFBpeGdsbywgSW5jLjEQMA4GA1UECxMHVlBO
LUNJRTEPMA0GA1UEAxMGY2llMzI2MRwwGgYDVQQpExNCYWxhIENoYW5kcmFzZWth
cmFuMR4wHAYJKoZIhvcNAQkBFg9iYWxhQHBpeGdsby5jb20wggIiMA0GCSqGSIb3
DQEBAQUAA4ICDwAwggIKAoICAQC0a4V5bxLfOPaBVpo/P1AEaXmNisGGFt5vjdBf
zoOnymXlzzJK8a/4tvhB+VzDGAwQxhwsN+371NSeRrV14CywXFR7gKrKMTEQd57y
tNe1r1GaC9pfSdL922CDfOtGNoP6ZBTPS2+2AIFTqFZwQzm3BeGUIL99+02OmQwE
Lss7da85UGtR2hF/ulWSWJ6zdkftSRfnQV7bNPCj9m+thGqtcPKyd2zIEx7Z31DL
DYPCTFgD9YGR/tsUxoGY/GM23tAwOYt1r2WAiyPAw3rICBtcD1uPYx09f3yPiwXv
cz51gon8IiRRZedccDw4xEfg2yiWAsu/ZjyiKt62JJJpc7lAt6qtVHVsQTN44/8g
jj5U2UN82v1y/2VitNvDlRHfUIiSIMA8t6ircyoSWAR0KJSTGBYs4G5EleHiS5Ta
oGZ7lZH51zhhV8gdvAKnAXXRahgMtd8HFEG4Lm/p6fY6iNvK4p9m7heUsnie3Crh
ntod5FXLcgrr+3OFdWaKc2xSsdiRuMAdhobIIV3aSGcCIToI5NHDirTPliYm57hM
qWZt0mvykDH7HWz4eqZeAPDDaO3+aD/26WgG09Dx6t9r++8I8knPbTG9cwLHwzOa
AjD7IZen2lc+TywRO6PIIHWQV5IDEsFe7a9c2pwam+C1O8trnlk/UrT7btA/H9L6
GZEIXQIDAQABo4IBazCCAWcwCQYDVR0TBAIwADAtBglghkgBhvhCAQ0EIBYeRWFz
eS1SU0EgR2VuZXJhdGVkIENlcnRpZmljYXRlMB0GA1UdDgQWBBRWRK4ipgDfwB4p
oVj7S9KDe9TRGDCB6QYDVR0jBIHhMIHegBTvOI0UUFinW02cF3L837msp1GwEKGB
uqSBtzCBtDELMAkGA1UEBhMCVVMxCzAJBgNVBAgTAkNBMRUwEwYDVQQHEwxTYW5G
cmFuY2lzY28xFTATBgNVBAoTDFBpeGdsbywgSW5jLjEQMA4GA1UECxMHVlBOLUNJ
RTEaMBgGA1UEAxMRdHVubmVsLnBpeGdsby5jb20xHDAaBgNVBCkTE0JhbGEgQ2hh
bmRyYXNla2FyYW4xHjAcBgkqhkiG9w0BCQEWD2JhbGFAcGl4Z2xvLmNvbYIJAKbb
xoOA5qB5MBMGA1UdJQQMMAoGCCsGAQUFBwMCMAsGA1UdDwQEAwIHgDANBgkqhkiG
9w0BAQUFAAOCAgEAH5MGcBEgzTNb7L61OFJZHA+SXCXNuZ6PPBUzv//VY3/I9wxB
vli8nKxqyZgheDxPU4nZfms77C02Q1vuMlnj8N1OWUKSXhNnKNRwXkKqE4ugEdqe
L8i12OXnU+NlJzgAIUmKiAdHfUPC6HIURgjwD3FAjAn/jRnESWIAysyK31u9p8pf
sBLYm+0mQYFYr99DqahPcEP7MYvc5WlqctWGQmdSzAlMO/7rpgid8PuuA+ug4lVx
17qjKwH6lH4Rv3KdToBwgnvUuiqJEyBKRRg8Kh+5XqHDz+8tMiQmpMnPqd5EtA2c
8yjkZUsIbz7ZJwefF5dFAJd06kNGaEeiqZQRuXIaqrJc/R//FLBFLdaScWdkU2OG
lNLYz1HbsGvZbe21eCXlHJ+65ZcADRZaLU2AI6tBkAEQ39c7Zr91dd/rt88oSctV
25o7+VoCsoSssu2TLdttlGknErwDI7O+dfPFxrEYKHrK1C2OLH0zngjJlc8IBz7c
t90XiCvg0Zqu3KlJaJ5+OPo95N4gXNHiCYyDZN83dVD5sb105/bZsGHFZv2c4Ux9
a385qQY401FU13pM5JstFoL/4sdg91DxhPoKNtLOGEXEbr0JxNlTHVKPy6M60NJL
+CoPx2QYGSoA6/8g8q/AQcXFiTR08flFBu/KzkCsvby8BNpETjVGC76YTCY=
-----END CERTIFICATE-----
