Certificate:
    Data:
        Version: 3 (0x2)
        Serial Number: 330 (0x14a)
    Signature Algorithm: sha1WithRSAEncryption
        Issuer: C=US, ST=CA, L=SanFrancisco, O=Pixglo, Inc., OU=VPN-CIE, CN=tunnel.pixglo.com/name=Bala Chandrasekaran/emailAddress=bala@pixglo.com
        Validity
            Not Before: Feb 14 06:30:27 2018 GMT
            Not After : Feb 12 06:30:27 2028 GMT
        Subject: C=US, ST=CA, L=SanFrancisco, O=Pixglo, Inc., OU=VPN-CIE, CN=cie329/name=Bala Chandrasekaran/emailAddress=bala@pixglo.com
        Subject Public Key Info:
            Public Key Algorithm: rsaEncryption
                Public-Key: (4096 bit)
                Modulus:
                    00:97:ce:b5:fe:db:01:da:f7:ce:09:63:a9:07:02:
                    be:cb:a5:62:8d:73:14:ff:34:ec:eb:18:7c:97:95:
                    36:70:35:88:ef:6c:83:3d:a2:f1:df:01:a3:3b:49:
                    0f:21:10:f2:fd:d7:c7:80:e8:15:2a:42:4c:6e:27:
                    7e:c4:09:ef:82:9d:8b:81:fb:66:28:80:07:7b:be:
                    cb:02:a3:ca:60:0f:39:2b:46:a0:41:9c:0a:23:0d:
                    cb:6a:8a:4f:bb:b0:91:35:41:59:e9:2e:94:94:1b:
                    4e:e5:5a:cd:85:5b:4f:6e:4d:b8:ff:1b:b5:26:73:
                    dd:e5:1c:f8:77:d6:2b:15:d2:4b:73:ec:b3:ad:98:
                    49:f1:a3:24:12:77:49:ac:cd:36:c7:6c:86:be:30:
                    83:44:97:e2:53:c1:47:78:c7:4f:88:43:87:82:af:
                    09:28:e9:5b:e7:ab:04:f9:9f:73:66:55:fd:a8:cd:
                    bf:48:19:f2:de:0b:e1:2c:a9:e0:4b:ba:d5:bb:0c:
                    82:6e:ef:b8:d4:64:92:69:4f:80:82:c1:71:3d:52:
                    57:d5:19:7d:84:c2:98:19:8c:bf:7a:fd:18:66:cc:
                    7b:ca:96:50:51:bc:0e:d3:a1:c0:5f:51:b3:d4:97:
                    57:88:c0:f7:5c:0a:ab:96:d8:81:86:19:db:aa:bf:
                    5b:cf:c9:4a:03:19:7f:3b:f8:b1:53:63:31:3d:10:
                    1e:94:b8:60:eb:a5:27:c6:58:5b:02:e7:ae:49:8f:
                    a6:4a:69:52:f0:b7:ce:18:fe:44:3e:26:08:28:f8:
                    81:62:8d:f4:ca:a6:6d:67:cc:f5:ee:7a:c3:ee:32:
                    41:e6:4f:3d:25:eb:a0:50:02:10:18:fa:14:8f:2e:
                    45:06:27:2c:de:ad:62:b0:c9:c6:f1:9f:a9:f4:db:
                    3a:1f:53:cc:6e:a7:1a:e3:37:32:39:73:fa:ae:86:
                    22:8c:08:f2:6a:2d:6b:62:74:12:f0:aa:00:08:04:
                    38:d0:de:17:1b:1b:6f:b8:0f:44:e6:ba:36:2e:7a:
                    2b:61:ca:18:c0:53:48:13:db:c3:86:c5:0a:81:cb:
                    da:9b:d8:42:05:59:07:28:61:6f:7b:d7:21:23:3f:
                    f7:4f:03:a3:f0:f7:8f:ac:24:be:b0:0d:a6:0c:fc:
                    d2:c5:5d:0b:de:85:eb:ff:60:76:7a:be:01:10:d5:
                    c4:f2:c1:97:00:1a:ef:24:86:82:4c:73:86:3b:55:
                    23:33:6f:af:0f:cd:df:31:b1:73:6d:d2:0a:1c:d0:
                    4f:97:59:64:a7:74:ff:e6:e1:e8:6d:57:17:ca:ef:
                    f3:42:f9:cb:04:0f:8b:75:d9:5f:6a:a4:d4:32:e8:
                    d7:54:d9
                Exponent: 65537 (0x10001)
        X509v3 extensions:
            X509v3 Basic Constraints: 
                CA:FALSE
            Netscape Comment: 
                Easy-RSA Generated Certificate
            X509v3 Subject Key Identifier: 
                F8:39:BB:48:B6:A3:82:53:8E:04:24:2A:EF:A9:FC:9B:42:59:7D:45
            X509v3 Authority Key Identifier: 
                keyid:EF:38:8D:14:50:58:A7:5B:4D:9C:17:72:FC:DF:B9:AC:A7:51:B0:10
                DirName:/C=US/ST=CA/L=SanFrancisco/O=Pixglo, Inc./OU=VPN-CIE/CN=tunnel.pixglo.com/name=Bala Chandrasekaran/emailAddress=bala@pixglo.com
                serial:A6:DB:C6:83:80:E6:A0:79

            X509v3 Extended Key Usage: 
                TLS Web Client Authentication
            X509v3 Key Usage: 
                Digital Signature
    Signature Algorithm: sha1WithRSAEncryption
         60:bb:68:54:37:e8:fb:72:2c:3d:cc:14:6e:c9:8b:e2:23:e3:
         1e:25:fd:d3:fc:1e:e4:44:e0:28:6c:1b:a8:7d:87:02:b7:2e:
         d8:27:71:65:03:0f:5e:e9:35:c9:ec:d6:5f:87:ad:6a:5c:3c:
         d3:82:65:de:88:26:02:c7:26:b4:2e:68:36:f3:81:28:90:00:
         d4:4e:1d:fc:3f:dc:fc:9f:73:24:36:0a:24:9d:b6:2a:db:8d:
         68:57:b1:41:47:9d:0a:e3:67:61:03:87:1c:25:64:4f:ca:a1:
         13:1f:0f:9a:83:34:1f:cc:d4:cf:29:08:8e:8e:6e:8d:39:e1:
         15:91:b9:80:2b:0f:48:1d:1f:fb:a5:10:fb:3c:06:4a:28:ca:
         32:b6:4b:26:d2:99:e4:3e:0a:a5:5e:90:37:1b:78:29:39:78:
         ff:7f:18:cd:96:87:b4:91:48:d1:f6:e5:99:e5:45:d3:a6:0c:
         90:99:c1:86:70:3a:e5:2c:73:d1:d5:55:f4:4b:1a:a2:49:cc:
         7b:54:68:4c:6e:da:fe:b1:1b:65:e5:f5:e7:ef:08:c0:dc:56:
         45:65:db:af:8b:86:0b:03:dd:d1:20:d6:b2:72:74:ba:16:3a:
         a5:71:86:6d:80:71:65:f5:fc:39:6e:86:ef:fb:0a:11:01:6d:
         8d:2b:fd:f7:eb:8d:8d:73:40:e5:66:c7:65:9c:fd:d4:4d:d7:
         44:0e:9d:0b:6d:a7:63:7b:11:66:63:fd:35:34:c0:04:a0:44:
         e7:85:d3:85:f8:4b:a6:6a:3e:c7:e0:23:57:f0:00:16:24:fe:
         0a:2d:67:61:44:4d:c5:16:b9:85:11:d3:6c:11:04:14:fa:87:
         4f:e7:80:4e:0a:2d:df:3e:c0:b0:f4:0b:38:95:21:83:82:1a:
         0a:37:5b:6c:78:84:48:42:a0:29:44:41:8c:0f:33:40:cc:e8:
         8b:e9:42:09:d0:1d:0d:af:39:3c:56:c6:15:5a:44:d2:b1:35:
         77:45:54:b1:e1:e5:e6:e8:9f:e8:f7:9b:f0:7a:86:ea:34:6e:
         94:67:f4:e1:e2:6b:18:c7:4f:6a:90:8f:b4:9a:36:3a:ce:bd:
         0f:bd:05:e5:1a:10:07:8b:8f:62:cf:36:70:cd:1d:95:9b:f1:
         7a:4c:86:1f:23:ab:75:09:01:0b:cb:1d:41:53:2f:17:12:ca:
         bf:0b:8d:26:36:5f:b0:96:22:8c:76:07:c8:1e:12:2c:ec:77:
         c9:77:47:36:05:a1:8b:62:b2:56:c8:61:3b:bb:f5:93:12:e9:
         a6:95:c7:1b:70:69:87:ca:88:93:56:8b:0f:1a:dc:57:65:23:
         db:43:b5:04:7f:f0:1b:06
-----BEGIN CERTIFICATE-----
MIIHSDCCBTCgAwIBAgICAUowDQYJKoZIhvcNAQEFBQAwgbQxCzAJBgNVBAYTAlVT
MQswCQYDVQQIEwJDQTEVMBMGA1UEBxMMU2FuRnJhbmNpc2NvMRUwEwYDVQQKEwxQ
aXhnbG8sIEluYy4xEDAOBgNVBAsTB1ZQTi1DSUUxGjAYBgNVBAMTEXR1bm5lbC5w
aXhnbG8uY29tMRwwGgYDVQQpExNCYWxhIENoYW5kcmFzZWthcmFuMR4wHAYJKoZI
hvcNAQkBFg9iYWxhQHBpeGdsby5jb20wHhcNMTgwMjE0MDYzMDI3WhcNMjgwMjEy
MDYzMDI3WjCBqTELMAkGA1UEBhMCVVMxCzAJBgNVBAgTAkNBMRUwEwYDVQQHEwxT
YW5GcmFuY2lzY28xFTATBgNVBAoTDFBpeGdsbywgSW5jLjEQMA4GA1UECxMHVlBO
LUNJRTEPMA0GA1UEAxMGY2llMzI5MRwwGgYDVQQpExNCYWxhIENoYW5kcmFzZWth
cmFuMR4wHAYJKoZIhvcNAQkBFg9iYWxhQHBpeGdsby5jb20wggIiMA0GCSqGSIb3
DQEBAQUAA4ICDwAwggIKAoICAQCXzrX+2wHa984JY6kHAr7LpWKNcxT/NOzrGHyX
lTZwNYjvbIM9ovHfAaM7SQ8hEPL918eA6BUqQkxuJ37ECe+CnYuB+2YogAd7vssC
o8pgDzkrRqBBnAojDctqik+7sJE1QVnpLpSUG07lWs2FW09uTbj/G7Umc93lHPh3
1isV0ktz7LOtmEnxoyQSd0mszTbHbIa+MINEl+JTwUd4x0+IQ4eCrwko6VvnqwT5
n3NmVf2ozb9IGfLeC+EsqeBLutW7DIJu77jUZJJpT4CCwXE9UlfVGX2EwpgZjL96
/RhmzHvKllBRvA7TocBfUbPUl1eIwPdcCquW2IGGGduqv1vPyUoDGX87+LFTYzE9
EB6UuGDrpSfGWFsC565Jj6ZKaVLwt84Y/kQ+Jggo+IFijfTKpm1nzPXuesPuMkHm
Tz0l66BQAhAY+hSPLkUGJyzerWKwycbxn6n02zofU8xupxrjNzI5c/quhiKMCPJq
LWtidBLwqgAIBDjQ3hcbG2+4D0TmujYueithyhjAU0gT28OGxQqBy9qb2EIFWQco
YW971yEjP/dPA6Pw94+sJL6wDaYM/NLFXQvehev/YHZ6vgEQ1cTywZcAGu8khoJM
c4Y7VSMzb68Pzd8xsXNt0goc0E+XWWSndP/m4ehtVxfK7/NC+csED4t12V9qpNQy
6NdU2QIDAQABo4IBazCCAWcwCQYDVR0TBAIwADAtBglghkgBhvhCAQ0EIBYeRWFz
eS1SU0EgR2VuZXJhdGVkIENlcnRpZmljYXRlMB0GA1UdDgQWBBT4ObtItqOCU44E
JCrvqfybQll9RTCB6QYDVR0jBIHhMIHegBTvOI0UUFinW02cF3L837msp1GwEKGB
uqSBtzCBtDELMAkGA1UEBhMCVVMxCzAJBgNVBAgTAkNBMRUwEwYDVQQHEwxTYW5G
cmFuY2lzY28xFTATBgNVBAoTDFBpeGdsbywgSW5jLjEQMA4GA1UECxMHVlBOLUNJ
RTEaMBgGA1UEAxMRdHVubmVsLnBpeGdsby5jb20xHDAaBgNVBCkTE0JhbGEgQ2hh
bmRyYXNla2FyYW4xHjAcBgkqhkiG9w0BCQEWD2JhbGFAcGl4Z2xvLmNvbYIJAKbb
xoOA5qB5MBMGA1UdJQQMMAoGCCsGAQUFBwMCMAsGA1UdDwQEAwIHgDANBgkqhkiG
9w0BAQUFAAOCAgEAYLtoVDfo+3IsPcwUbsmL4iPjHiX90/we5ETgKGwbqH2HArcu
2CdxZQMPXuk1yezWX4etalw804Jl3ogmAscmtC5oNvOBKJAA1E4d/D/c/J9zJDYK
JJ22KtuNaFexQUedCuNnYQOHHCVkT8qhEx8PmoM0H8zUzykIjo5ujTnhFZG5gCsP
SB0f+6UQ+zwGSijKMrZLJtKZ5D4KpV6QNxt4KTl4/38YzZaHtJFI0fblmeVF06YM
kJnBhnA65Sxz0dVV9EsaoknMe1RoTG7a/rEbZeX15+8IwNxWRWXbr4uGCwPd0SDW
snJ0uhY6pXGGbYBxZfX8OW6G7/sKEQFtjSv99+uNjXNA5WbHZZz91E3XRA6dC22n
Y3sRZmP9NTTABKBE54XThfhLpmo+x+AjV/AAFiT+Ci1nYURNxRa5hRHTbBEEFPqH
T+eATgot3z7AsPQLOJUhg4IaCjdbbHiESEKgKURBjA8zQMzoi+lCCdAdDa85PFbG
FVpE0rE1d0VUseHl5uif6Peb8HqG6jRulGf04eJrGMdPapCPtJo2Os69D70F5RoQ
B4uPYs82cM0dlZvxekyGHyOrdQkBC8sdQVMvFxLKvwuNJjZfsJYijHYHyB4SLOx3
yXdHNgWhi2KyVshhO7v1kxLpppXHG3Bph8qIk1aLDxrcV2Uj20O1BH/wGwY=
-----END CERTIFICATE-----
