Certificate:
    Data:
        Version: 3 (0x2)
        Serial Number: 331 (0x14b)
    Signature Algorithm: sha1WithRSAEncryption
        Issuer: C=US, ST=CA, L=SanFrancisco, O=Pixglo, Inc., OU=VPN-CIE, CN=tunnel.pixglo.com/name=Bala Chandrasekaran/emailAddress=bala@pixglo.com
        Validity
            Not Before: Feb 14 06:30:27 2018 GMT
            Not After : Feb 12 06:30:27 2028 GMT
        Subject: C=US, ST=CA, L=SanFrancisco, O=Pixglo, Inc., OU=VPN-CIE, CN=cie330/name=Bala Chandrasekaran/emailAddress=bala@pixglo.com
        Subject Public Key Info:
            Public Key Algorithm: rsaEncryption
                Public-Key: (4096 bit)
                Modulus:
                    00:a0:5a:5d:52:88:9d:2b:75:7f:ad:1b:16:05:3e:
                    6b:16:1d:c5:dd:83:8d:16:29:5e:f4:25:2b:86:69:
                    e3:d5:bd:b6:04:40:75:3d:7d:9d:c0:74:64:4a:0f:
                    45:c8:3f:15:36:df:3c:60:57:87:03:84:be:f0:04:
                    92:dd:a5:cb:eb:eb:65:dd:c4:d6:b0:55:05:9f:50:
                    e0:3e:75:4b:a7:57:b2:53:9e:6c:b4:41:eb:a7:15:
                    ab:f4:1a:07:34:8f:08:e5:b3:25:cb:ce:8a:c9:ac:
                    4d:52:87:20:9d:15:7c:82:38:95:6f:8d:5f:ca:2f:
                    29:00:7b:56:b8:b9:0e:2e:c8:e2:06:04:44:26:09:
                    30:e5:5c:5d:c9:64:ef:02:f3:62:e5:ec:68:08:6e:
                    9e:b8:0f:f1:cf:e8:fa:67:63:3c:f7:15:b1:35:80:
                    2c:ac:39:f1:6a:40:b0:19:83:ee:fe:e9:af:2e:17:
                    f4:41:73:6e:cb:07:2d:6d:bb:ec:d4:85:8c:34:64:
                    a0:1f:39:d2:a7:1f:f5:f6:a6:56:1b:ac:65:5d:92:
                    7f:10:7c:24:88:f1:fa:3e:03:05:5d:3e:a1:0d:5e:
                    59:46:97:f8:ed:0b:38:f7:a8:cd:24:46:56:b7:b6:
                    cc:e5:12:ef:19:c9:35:27:2d:08:64:8a:d4:03:41:
                    29:06:97:8e:3e:b2:d9:9e:ff:5d:77:51:12:4b:ea:
                    e7:25:d1:f7:98:80:a0:56:21:21:10:24:c2:b3:5c:
                    58:67:70:16:70:bf:de:32:29:33:02:42:bd:dc:be:
                    4a:50:a5:0b:79:e5:c6:a1:27:ac:d5:74:3b:4c:6f:
                    7d:ea:f4:3d:9a:6d:52:ce:88:91:ad:6a:27:e1:62:
                    c4:4d:b4:7d:16:3d:f0:7e:b6:94:3f:bb:0e:3d:50:
                    6b:02:15:2e:0b:cd:04:02:ab:80:3f:94:38:8b:b7:
                    74:80:c0:30:16:e5:65:89:ef:fe:6b:89:b1:26:ee:
                    53:c3:31:bb:35:18:d8:f1:ad:eb:fe:d4:cb:4d:ce:
                    c2:34:9f:22:f6:b3:77:40:8e:a2:e9:0c:92:4b:77:
                    05:fe:2c:99:a9:86:5f:ca:10:22:7e:45:dc:0a:ef:
                    57:6c:01:0a:1e:00:4c:90:11:18:a9:27:87:88:dc:
                    7d:54:d1:53:d9:e0:42:06:ee:55:7d:a8:ea:a6:36:
                    41:01:86:53:36:63:78:b3:b5:53:96:08:65:74:36:
                    75:98:e3:d8:0c:75:ff:5f:f3:72:ee:bb:8d:ca:1c:
                    44:72:40:4e:84:ef:6e:19:e1:96:2e:1e:30:72:f3:
                    ff:fb:d1:f7:0e:e6:0e:01:47:63:98:2e:70:6f:da:
                    02:6a:d1
                Exponent: 65537 (0x10001)
        X509v3 extensions:
            X509v3 Basic Constraints: 
                CA:FALSE
            Netscape Comment: 
                Easy-RSA Generated Certificate
            X509v3 Subject Key Identifier: 
                EB:30:83:FF:0F:B9:58:59:1D:77:01:3D:5B:B5:89:0C:CB:43:FB:E7
            X509v3 Authority Key Identifier: 
                keyid:EF:38:8D:14:50:58:A7:5B:4D:9C:17:72:FC:DF:B9:AC:A7:51:B0:10
                DirName:/C=US/ST=CA/L=SanFrancisco/O=Pixglo, Inc./OU=VPN-CIE/CN=tunnel.pixglo.com/name=Bala Chandrasekaran/emailAddress=bala@pixglo.com
                serial:A6:DB:C6:83:80:E6:A0:79

            X509v3 Extended Key Usage: 
                TLS Web Client Authentication
            X509v3 Key Usage: 
                Digital Signature
    Signature Algorithm: sha1WithRSAEncryption
         a0:4d:e9:5a:6b:bc:ff:63:66:2d:86:a2:22:3f:a4:58:d0:b7:
         e3:47:d7:f5:ba:9a:31:d3:02:cd:35:29:05:b5:0f:84:5e:a1:
         1d:c2:b7:aa:14:6d:01:80:97:fb:ce:56:07:2d:d8:43:2f:d7:
         7d:94:3c:fc:eb:e8:da:e1:68:29:70:82:8d:e3:36:36:9c:ac:
         de:a0:62:14:b1:e7:cb:1e:c3:95:c9:7d:bf:55:df:58:3d:44:
         cf:00:99:c1:2d:01:ce:c4:68:b0:48:61:7c:84:e7:f0:c9:4b:
         41:48:03:9f:92:d5:31:cd:f2:12:25:fa:ca:1a:69:aa:6f:78:
         40:14:94:4a:5d:b2:4b:5c:d6:cd:b9:20:31:5a:b9:12:c4:66:
         7e:c4:e8:d5:21:f8:2a:6d:12:3d:03:1f:20:4d:b2:06:39:b9:
         18:e3:e4:3d:9e:0e:58:d5:e9:e2:53:6b:72:dd:03:15:40:6d:
         a1:c5:18:7c:cb:4d:fe:b4:a4:f2:0e:fe:6b:83:85:7f:fb:dc:
         21:fc:4b:2c:c6:18:cf:75:e6:0a:49:85:23:d8:89:1e:5d:20:
         c3:45:8a:87:74:27:b2:69:f9:57:40:1f:8e:13:8e:58:7c:f1:
         e6:98:ba:20:d0:d5:05:e8:c8:4b:ed:69:46:e1:3b:9d:05:a5:
         51:92:59:4e:ee:5e:87:60:df:c7:99:cc:1a:23:01:1d:5f:29:
         99:10:d7:43:34:fd:d9:bf:70:e3:35:8b:97:e1:91:39:48:a6:
         79:fe:2c:b2:f6:e9:6a:32:6e:2a:a8:f5:40:25:cd:da:d9:f1:
         39:e1:c3:73:93:f5:e9:31:d5:e5:1c:2f:85:c8:c7:7a:8a:83:
         f6:0b:c3:2b:16:c8:b5:2f:50:4c:01:1e:77:a1:19:8e:f7:d1:
         4e:a2:96:1f:06:95:ce:f7:e3:4f:8f:8e:ea:3d:36:df:ed:62:
         6e:02:b8:80:cb:c8:87:ee:04:2b:16:24:d3:46:9b:e1:83:7c:
         c6:46:df:89:16:a8:6b:6c:1b:83:dd:ab:6c:b9:1c:3c:91:77:
         e6:c0:54:77:f3:69:7d:59:ba:21:a8:93:08:0b:4d:de:4e:b3:
         44:d3:a4:3e:00:2b:71:36:fb:c6:a7:e0:04:34:28:d2:c1:bb:
         95:dd:4c:e6:7b:7e:9a:e7:a0:cb:d4:4d:34:f5:e0:52:2f:d0:
         57:ea:0d:06:c5:58:5a:44:6f:3f:b1:cf:35:a7:6c:2a:73:da:
         2e:4e:f9:81:75:3a:64:05:af:03:6d:eb:15:45:d9:73:dd:a7:
         99:79:1d:cd:cb:4d:81:23:2f:f4:64:f4:e2:aa:cb:34:cc:6f:
         5f:f3:94:54:10:d9:bd:49
-----BEGIN CERTIFICATE-----
MIIHSDCCBTCgAwIBAgICAUswDQYJKoZIhvcNAQEFBQAwgbQxCzAJBgNVBAYTAlVT
MQswCQYDVQQIEwJDQTEVMBMGA1UEBxMMU2FuRnJhbmNpc2NvMRUwEwYDVQQKEwxQ
aXhnbG8sIEluYy4xEDAOBgNVBAsTB1ZQTi1DSUUxGjAYBgNVBAMTEXR1bm5lbC5w
aXhnbG8uY29tMRwwGgYDVQQpExNCYWxhIENoYW5kcmFzZWthcmFuMR4wHAYJKoZI
hvcNAQkBFg9iYWxhQHBpeGdsby5jb20wHhcNMTgwMjE0MDYzMDI3WhcNMjgwMjEy
MDYzMDI3WjCBqTELMAkGA1UEBhMCVVMxCzAJBgNVBAgTAkNBMRUwEwYDVQQHEwxT
YW5GcmFuY2lzY28xFTATBgNVBAoTDFBpeGdsbywgSW5jLjEQMA4GA1UECxMHVlBO
LUNJRTEPMA0GA1UEAxMGY2llMzMwMRwwGgYDVQQpExNCYWxhIENoYW5kcmFzZWth
cmFuMR4wHAYJKoZIhvcNAQkBFg9iYWxhQHBpeGdsby5jb20wggIiMA0GCSqGSIb3
DQEBAQUAA4ICDwAwggIKAoICAQCgWl1SiJ0rdX+tGxYFPmsWHcXdg40WKV70JSuG
aePVvbYEQHU9fZ3AdGRKD0XIPxU23zxgV4cDhL7wBJLdpcvr62XdxNawVQWfUOA+
dUunV7JTnmy0QeunFav0Ggc0jwjlsyXLzorJrE1ShyCdFXyCOJVvjV/KLykAe1a4
uQ4uyOIGBEQmCTDlXF3JZO8C82Ll7GgIbp64D/HP6PpnYzz3FbE1gCysOfFqQLAZ
g+7+6a8uF/RBc27LBy1tu+zUhYw0ZKAfOdKnH/X2plYbrGVdkn8QfCSI8fo+AwVd
PqENXllGl/jtCzj3qM0kRla3tszlEu8ZyTUnLQhkitQDQSkGl44+stme/113URJL
6ucl0feYgKBWISEQJMKzXFhncBZwv94yKTMCQr3cvkpQpQt55cahJ6zVdDtMb33q
9D2abVLOiJGtaifhYsRNtH0WPfB+tpQ/uw49UGsCFS4LzQQCq4A/lDiLt3SAwDAW
5WWJ7/5ribEm7lPDMbs1GNjxrev+1MtNzsI0nyL2s3dAjqLpDJJLdwX+LJmphl/K
ECJ+RdwK71dsAQoeAEyQERipJ4eI3H1U0VPZ4EIG7lV9qOqmNkEBhlM2Y3iztVOW
CGV0NnWY49gMdf9f83Luu43KHERyQE6E724Z4ZYuHjBy8//70fcO5g4BR2OYLnBv
2gJq0QIDAQABo4IBazCCAWcwCQYDVR0TBAIwADAtBglghkgBhvhCAQ0EIBYeRWFz
eS1SU0EgR2VuZXJhdGVkIENlcnRpZmljYXRlMB0GA1UdDgQWBBTrMIP/D7lYWR13
AT1btYkMy0P75zCB6QYDVR0jBIHhMIHegBTvOI0UUFinW02cF3L837msp1GwEKGB
uqSBtzCBtDELMAkGA1UEBhMCVVMxCzAJBgNVBAgTAkNBMRUwEwYDVQQHEwxTYW5G
cmFuY2lzY28xFTATBgNVBAoTDFBpeGdsbywgSW5jLjEQMA4GA1UECxMHVlBOLUNJ
RTEaMBgGA1UEAxMRdHVubmVsLnBpeGdsby5jb20xHDAaBgNVBCkTE0JhbGEgQ2hh
bmRyYXNla2FyYW4xHjAcBgkqhkiG9w0BCQEWD2JhbGFAcGl4Z2xvLmNvbYIJAKbb
xoOA5qB5MBMGA1UdJQQMMAoGCCsGAQUFBwMCMAsGA1UdDwQEAwIHgDANBgkqhkiG
9w0BAQUFAAOCAgEAoE3pWmu8/2NmLYaiIj+kWNC340fX9bqaMdMCzTUpBbUPhF6h
HcK3qhRtAYCX+85WBy3YQy/XfZQ8/Ovo2uFoKXCCjeM2Npys3qBiFLHnyx7Dlcl9
v1XfWD1EzwCZwS0BzsRosEhhfITn8MlLQUgDn5LVMc3yEiX6yhppqm94QBSUSl2y
S1zWzbkgMVq5EsRmfsTo1SH4Km0SPQMfIE2yBjm5GOPkPZ4OWNXp4lNrct0DFUBt
ocUYfMtN/rSk8g7+a4OFf/vcIfxLLMYYz3XmCkmFI9iJHl0gw0WKh3Qnsmn5V0Af
jhOOWHzx5pi6INDVBejIS+1pRuE7nQWlUZJZTu5eh2Dfx5nMGiMBHV8pmRDXQzT9
2b9w4zWLl+GROUimef4ssvbpajJuKqj1QCXN2tnxOeHDc5P16THV5RwvhcjHeoqD
9gvDKxbItS9QTAEed6EZjvfRTqKWHwaVzvfjT4+O6j023+1ibgK4gMvIh+4EKxYk
00ab4YN8xkbfiRaoa2wbg92rbLkcPJF35sBUd/NpfVm6IaiTCAtN3k6zRNOkPgAr
cTb7xqfgBDQo0sG7ld1M5nt+muegy9RNNPXgUi/QV+oNBsVYWkRvP7HPNadsKnPa
Lk75gXU6ZAWvA23rFUXZc92nmXkdzctNgSMv9GT04qrLNMxvX/OUVBDZvUk=
-----END CERTIFICATE-----
