Certificate:
    Data:
        Version: 3 (0x2)
        Serial Number: 332 (0x14c)
    Signature Algorithm: sha1WithRSAEncryption
        Issuer: C=US, ST=CA, L=SanFrancisco, O=Pixglo, Inc., OU=VPN-CIE, CN=tunnel.pixglo.com/name=Bala Chandrasekaran/emailAddress=bala@pixglo.com
        Validity
            Not Before: Feb 14 06:30:29 2018 GMT
            Not After : Feb 12 06:30:29 2028 GMT
        Subject: C=US, ST=CA, L=SanFrancisco, O=Pixglo, Inc., OU=VPN-CIE, CN=cie331/name=Bala Chandrasekaran/emailAddress=bala@pixglo.com
        Subject Public Key Info:
            Public Key Algorithm: rsaEncryption
                Public-Key: (4096 bit)
                Modulus:
                    00:d3:1e:64:46:95:a3:e4:b9:5c:f4:d3:be:3f:f9:
                    07:3d:c6:1a:c0:8a:14:5d:8b:a0:3b:a6:09:0e:67:
                    87:c8:bb:2a:db:94:20:74:a9:d7:02:2d:14:63:af:
                    7b:5d:20:58:69:f0:71:28:9f:8b:30:87:a9:77:9c:
                    f3:61:13:14:e7:cb:82:fb:ca:4c:6b:7b:50:8f:97:
                    0a:e5:d7:a4:fc:67:4c:f5:a6:4b:45:75:66:a0:28:
                    61:40:ec:a7:19:ef:c2:df:a4:c2:4f:24:d9:4b:46:
                    3a:b3:1f:d8:21:e0:cf:32:95:e1:e6:53:34:c8:cb:
                    32:eb:cb:60:9d:c9:33:9b:ed:0c:1c:39:9a:0d:15:
                    08:88:6e:fc:0b:15:a5:ed:b0:e5:b3:69:7c:60:63:
                    f5:8c:1c:6d:1f:9f:78:1d:1e:f2:9b:dc:c8:fe:5b:
                    4a:f8:de:cc:cb:c8:2d:3d:18:4a:7d:93:50:18:40:
                    c2:0a:00:69:f7:39:36:a2:6c:f6:bd:01:c1:3c:59:
                    a6:5d:1d:1a:62:21:df:92:31:1c:1d:77:05:8a:47:
                    db:1f:8d:44:33:d4:96:db:4e:41:38:f5:e7:ae:98:
                    ef:81:63:20:c9:e6:89:cd:99:8d:11:2e:d5:96:67:
                    f7:c8:65:f1:7a:79:26:45:65:6d:7b:b1:6f:88:4a:
                    02:0d:42:17:93:70:11:1a:ab:a0:62:e6:88:13:fb:
                    bf:70:4f:89:5e:da:00:93:b4:cb:0a:10:a2:fc:14:
                    b2:41:15:74:78:56:b6:ab:70:ce:44:19:2b:8f:b7:
                    fd:ca:0a:f2:ee:2e:a0:fa:aa:03:6f:02:9e:87:8c:
                    0b:c5:52:84:0f:26:e7:11:f3:34:71:ed:20:cd:e0:
                    1a:34:27:0b:4a:4b:c5:fc:bb:83:84:f1:b0:2f:b1:
                    89:5f:9f:76:9e:d8:85:59:e2:04:38:44:13:0c:ad:
                    de:fc:d2:57:8e:bb:de:45:8e:93:8f:3f:1e:f2:fb:
                    a0:8a:a4:75:7b:f2:c3:ff:28:fd:3b:60:f8:ec:2b:
                    be:4f:49:89:bb:ac:58:41:89:06:9b:74:35:c5:ac:
                    a0:7a:50:f1:85:cf:bf:11:69:f4:1e:8a:21:6e:f2:
                    41:17:34:99:cc:22:7b:0d:97:19:d2:e9:8e:df:54:
                    1d:35:81:49:19:05:3f:88:c9:03:bc:fb:ba:39:2d:
                    f7:47:ff:34:c9:4a:03:e2:0d:ee:83:e4:4e:e1:fc:
                    c9:87:c5:16:a3:31:86:f8:fa:21:e1:9e:50:d4:6e:
                    2d:83:45:b6:69:20:7e:3c:1d:87:9f:e2:f0:4a:e7:
                    6e:41:3f:2d:5e:37:d6:75:96:9c:1a:05:7b:f9:cb:
                    73:c2:31
                Exponent: 65537 (0x10001)
        X509v3 extensions:
            X509v3 Basic Constraints: 
                CA:FALSE
            Netscape Comment: 
                Easy-RSA Generated Certificate
            X509v3 Subject Key Identifier: 
                86:C0:27:F4:F6:39:BE:3B:12:AB:A3:46:7C:67:87:C3:F6:D6:AC:21
            X509v3 Authority Key Identifier: 
                keyid:EF:38:8D:14:50:58:A7:5B:4D:9C:17:72:FC:DF:B9:AC:A7:51:B0:10
                DirName:/C=US/ST=CA/L=SanFrancisco/O=Pixglo, Inc./OU=VPN-CIE/CN=tunnel.pixglo.com/name=Bala Chandrasekaran/emailAddress=bala@pixglo.com
                serial:A6:DB:C6:83:80:E6:A0:79

            X509v3 Extended Key Usage: 
                TLS Web Client Authentication
            X509v3 Key Usage: 
                Digital Signature
    Signature Algorithm: sha1WithRSAEncryption
         56:dc:42:22:40:e8:a8:6c:ca:3a:0a:79:a4:7c:bc:d7:65:b5:
         62:44:ee:79:ef:90:3e:bf:98:69:49:6e:c5:52:cc:4d:34:fb:
         75:6f:ec:d2:6b:90:9c:9a:56:2c:14:ab:4b:14:2f:5d:c9:ec:
         20:2a:64:32:08:b7:6e:2d:18:be:5b:f1:02:09:39:a0:71:47:
         a6:8c:53:bf:66:a6:7f:15:87:0a:cf:b2:e5:ab:04:66:af:28:
         24:f5:10:68:fb:1c:92:e8:60:6e:42:85:83:b5:dc:3c:ba:90:
         49:39:f0:99:ac:3b:f7:9e:05:2a:d5:c6:5f:3c:eb:c1:3c:96:
         26:3b:84:54:14:18:58:cf:f7:86:c6:80:30:de:09:88:d9:54:
         99:b9:ac:99:c6:8b:11:c9:09:fa:fb:7c:ee:43:06:bf:0f:21:
         8c:ce:74:82:55:f5:c4:04:c0:88:c6:b9:0c:78:53:6d:42:b2:
         7b:fb:28:e4:86:d8:27:32:16:d4:4c:9c:c6:fe:48:f0:67:f8:
         0e:07:a6:02:4c:50:e6:6e:e3:fe:73:68:07:66:fe:8e:b3:fe:
         ce:78:d3:ac:b3:29:bb:ad:61:8a:84:92:56:e4:37:2e:89:24:
         90:3a:51:12:07:c8:2d:0d:09:2b:67:31:af:34:cc:0c:eb:e4:
         59:2d:ec:1e:fc:f4:d5:7d:1e:74:e4:28:63:63:04:95:0f:7a:
         4e:8b:59:6a:ba:40:73:92:13:8e:b4:b1:dd:e1:37:f5:8b:77:
         22:1d:5b:29:1a:f4:63:a9:57:5d:fb:25:77:26:43:8c:bc:86:
         68:05:ea:94:ac:ac:ff:1f:c4:9b:63:aa:8f:4b:d8:c1:df:9f:
         ad:37:70:e9:7a:fb:74:6a:17:2f:6d:a6:8e:00:c6:a2:70:59:
         a8:da:fb:ce:be:40:0b:db:29:8c:2d:b0:f4:bb:de:da:52:ce:
         b8:7d:97:a7:12:bd:97:a6:cd:57:1c:0c:36:d6:15:c9:af:08:
         df:d0:f9:f4:a5:df:5d:aa:61:b9:73:74:2d:bf:d4:a5:34:dd:
         4b:fd:9d:16:7d:4a:73:32:99:b3:62:3e:f2:34:59:fb:e1:3f:
         10:ea:b3:5d:44:62:a8:fe:60:9e:57:57:c0:4c:48:c2:41:33:
         03:7a:32:0c:c3:ff:fd:b7:b1:63:d9:5d:ed:a8:fa:20:31:fe:
         35:d4:5f:40:c3:b2:59:18:96:06:53:4f:4f:95:70:c4:cd:18:
         9b:75:ae:85:d1:94:0e:5f:b0:9d:7d:f5:5a:d9:14:76:75:51:
         97:d7:90:89:94:55:44:0e:f1:04:cf:56:fa:17:66:ff:cc:c8:
         6f:ce:78:85:bb:5d:57:30
-----BEGIN CERTIFICATE-----
MIIHSDCCBTCgAwIBAgICAUwwDQYJKoZIhvcNAQEFBQAwgbQxCzAJBgNVBAYTAlVT
MQswCQYDVQQIEwJDQTEVMBMGA1UEBxMMU2FuRnJhbmNpc2NvMRUwEwYDVQQKEwxQ
aXhnbG8sIEluYy4xEDAOBgNVBAsTB1ZQTi1DSUUxGjAYBgNVBAMTEXR1bm5lbC5w
aXhnbG8uY29tMRwwGgYDVQQpExNCYWxhIENoYW5kcmFzZWthcmFuMR4wHAYJKoZI
hvcNAQkBFg9iYWxhQHBpeGdsby5jb20wHhcNMTgwMjE0MDYzMDI5WhcNMjgwMjEy
MDYzMDI5WjCBqTELMAkGA1UEBhMCVVMxCzAJBgNVBAgTAkNBMRUwEwYDVQQHEwxT
YW5GcmFuY2lzY28xFTATBgNVBAoTDFBpeGdsbywgSW5jLjEQMA4GA1UECxMHVlBO
LUNJRTEPMA0GA1UEAxMGY2llMzMxMRwwGgYDVQQpExNCYWxhIENoYW5kcmFzZWth
cmFuMR4wHAYJKoZIhvcNAQkBFg9iYWxhQHBpeGdsby5jb20wggIiMA0GCSqGSIb3
DQEBAQUAA4ICDwAwggIKAoICAQDTHmRGlaPkuVz0074/+Qc9xhrAihRdi6A7pgkO
Z4fIuyrblCB0qdcCLRRjr3tdIFhp8HEon4swh6l3nPNhExTny4L7ykxre1CPlwrl
16T8Z0z1pktFdWagKGFA7KcZ78LfpMJPJNlLRjqzH9gh4M8yleHmUzTIyzLry2Cd
yTOb7QwcOZoNFQiIbvwLFaXtsOWzaXxgY/WMHG0fn3gdHvKb3Mj+W0r43szLyC09
GEp9k1AYQMIKAGn3OTaibPa9AcE8WaZdHRpiId+SMRwddwWKR9sfjUQz1JbbTkE4
9eeumO+BYyDJ5onNmY0RLtWWZ/fIZfF6eSZFZW17sW+ISgINQheTcBEaq6Bi5ogT
+79wT4le2gCTtMsKEKL8FLJBFXR4VrarcM5EGSuPt/3KCvLuLqD6qgNvAp6HjAvF
UoQPJucR8zRx7SDN4Bo0JwtKS8X8u4OE8bAvsYlfn3ae2IVZ4gQ4RBMMrd780leO
u95FjpOPPx7y+6CKpHV78sP/KP07YPjsK75PSYm7rFhBiQabdDXFrKB6UPGFz78R
afQeiiFu8kEXNJnMInsNlxnS6Y7fVB01gUkZBT+IyQO8+7o5LfdH/zTJSgPiDe6D
5E7h/MmHxRajMYb4+iHhnlDUbi2DRbZpIH48HYef4vBK525BPy1eN9Z1lpwaBXv5
y3PCMQIDAQABo4IBazCCAWcwCQYDVR0TBAIwADAtBglghkgBhvhCAQ0EIBYeRWFz
eS1SU0EgR2VuZXJhdGVkIENlcnRpZmljYXRlMB0GA1UdDgQWBBSGwCf09jm+OxKr
o0Z8Z4fD9tasITCB6QYDVR0jBIHhMIHegBTvOI0UUFinW02cF3L837msp1GwEKGB
uqSBtzCBtDELMAkGA1UEBhMCVVMxCzAJBgNVBAgTAkNBMRUwEwYDVQQHEwxTYW5G
cmFuY2lzY28xFTATBgNVBAoTDFBpeGdsbywgSW5jLjEQMA4GA1UECxMHVlBOLUNJ
RTEaMBgGA1UEAxMRdHVubmVsLnBpeGdsby5jb20xHDAaBgNVBCkTE0JhbGEgQ2hh
bmRyYXNla2FyYW4xHjAcBgkqhkiG9w0BCQEWD2JhbGFAcGl4Z2xvLmNvbYIJAKbb
xoOA5qB5MBMGA1UdJQQMMAoGCCsGAQUFBwMCMAsGA1UdDwQEAwIHgDANBgkqhkiG
9w0BAQUFAAOCAgEAVtxCIkDoqGzKOgp5pHy812W1YkTuee+QPr+YaUluxVLMTTT7
dW/s0muQnJpWLBSrSxQvXcnsICpkMgi3bi0YvlvxAgk5oHFHpoxTv2amfxWHCs+y
5asEZq8oJPUQaPsckuhgbkKFg7XcPLqQSTnwmaw7954FKtXGXzzrwTyWJjuEVBQY
WM/3hsaAMN4JiNlUmbmsmcaLEckJ+vt87kMGvw8hjM50glX1xATAiMa5DHhTbUKy
e/so5IbYJzIW1Eycxv5I8Gf4DgemAkxQ5m7j/nNoB2b+jrP+znjTrLMpu61hioSS
VuQ3LokkkDpREgfILQ0JK2cxrzTMDOvkWS3sHvz01X0edOQoY2MElQ96TotZarpA
c5ITjrSx3eE39Yt3Ih1bKRr0Y6lXXfsldyZDjLyGaAXqlKys/x/Em2Oqj0vYwd+f
rTdw6Xr7dGoXL22mjgDGonBZqNr7zr5AC9spjC2w9Lve2lLOuH2XpxK9l6bNVxwM
NtYVya8I39D59KXfXaphuXN0Lb/UpTTdS/2dFn1KczKZs2I+8jRZ++E/EOqzXURi
qP5gnldXwExIwkEzA3oyDMP//bexY9ld7aj6IDH+NdRfQMOyWRiWBlNPT5VwxM0Y
m3WuhdGUDl+wnX31WtkUdnVRl9eQiZRVRA7xBM9W+hdm/8zIb854hbtdVzA=
-----END CERTIFICATE-----
