Certificate:
    Data:
        Version: 3 (0x2)
        Serial Number: 334 (0x14e)
    Signature Algorithm: sha1WithRSAEncryption
        Issuer: C=US, ST=CA, L=SanFrancisco, O=Pixglo, Inc., OU=VPN-CIE, CN=tunnel.pixglo.com/name=Bala Chandrasekaran/emailAddress=bala@pixglo.com
        Validity
            Not Before: Feb 14 06:30:30 2018 GMT
            Not After : Feb 12 06:30:30 2028 GMT
        Subject: C=US, ST=CA, L=SanFrancisco, O=Pixglo, Inc., OU=VPN-CIE, CN=cie333/name=Bala Chandrasekaran/emailAddress=bala@pixglo.com
        Subject Public Key Info:
            Public Key Algorithm: rsaEncryption
                Public-Key: (4096 bit)
                Modulus:
                    00:9a:23:cd:b1:f3:66:25:53:0f:2d:30:88:82:12:
                    9a:4b:b7:8c:81:4f:ed:85:6c:78:33:ad:6c:f9:51:
                    63:c2:5d:4a:8b:d5:c4:f2:87:f6:c4:68:73:b9:69:
                    c8:03:c3:79:d5:c2:0d:00:b9:e8:34:31:1f:7a:e2:
                    ef:e0:bc:b1:68:e7:1b:65:bb:b7:27:c4:4b:66:f9:
                    f4:f7:14:35:81:e1:49:4f:02:54:8e:e2:a8:6b:37:
                    aa:9a:b3:9d:9e:b0:23:52:9f:28:ed:e7:b0:c1:c8:
                    e1:b0:08:9e:64:b2:f6:68:36:09:dd:44:11:e6:dc:
                    e2:e1:2e:1c:11:72:9d:08:ff:77:fc:9a:17:e6:05:
                    45:1b:ab:7d:70:2e:a5:5a:51:c9:03:96:45:90:03:
                    e8:20:e4:17:95:4d:3f:bc:f4:c8:2e:80:2b:dd:76:
                    85:45:f5:20:91:e6:1f:ad:c5:be:49:87:ba:6e:e2:
                    13:9f:a9:6d:65:61:89:97:85:c2:14:e0:d8:c9:96:
                    ef:2d:76:82:33:c5:1e:fc:cb:3e:23:4d:91:e8:76:
                    29:fb:e5:14:e7:22:12:c0:c7:43:b5:b2:2f:bf:59:
                    ec:f8:24:a1:02:cd:7f:6d:e0:4e:a0:db:64:6a:0b:
                    c2:06:b7:35:13:a1:00:68:d6:21:83:e6:e1:0e:54:
                    50:2a:b3:f7:f4:a3:41:9a:86:04:0e:49:f5:0a:e2:
                    66:6c:4e:40:5e:09:6f:de:52:da:c5:a9:65:db:7d:
                    0d:79:69:7d:23:61:34:2d:5a:3f:e6:78:2f:09:7f:
                    ac:7a:b0:bc:52:ac:1a:ab:31:10:80:79:c1:91:30:
                    55:70:4a:5b:05:25:f5:33:83:ef:df:b6:9b:d0:df:
                    fa:6e:c5:30:ba:2a:52:b7:2f:e9:2a:30:11:6a:56:
                    b4:b1:88:e1:53:f4:d6:1d:9e:b9:3d:00:f8:aa:7f:
                    21:ec:75:4e:01:71:73:5e:47:d7:85:1e:d4:51:22:
                    59:60:c3:fa:36:d4:c4:04:31:63:26:b7:20:f0:05:
                    a5:27:89:6d:81:26:cc:d2:d3:99:0a:5b:5d:6f:5b:
                    4f:4c:c6:ea:c2:39:d0:28:66:45:c0:52:fa:d3:c8:
                    1e:8a:70:43:a4:89:e6:1c:5e:ea:1f:c7:5f:03:a9:
                    a7:ff:98:09:ca:37:5a:b0:33:89:78:88:e4:f4:2b:
                    f1:9a:90:0a:b5:35:46:1f:6c:e6:bc:b7:27:b4:27:
                    36:26:87:d5:4b:fe:1d:e9:79:98:2f:27:63:68:ff:
                    41:e9:9d:fd:42:28:6c:fd:94:e4:2e:96:f6:05:18:
                    40:8b:6a:e0:0a:87:0e:8d:0d:36:05:c4:b3:5b:65:
                    aa:64:6d
                Exponent: 65537 (0x10001)
        X509v3 extensions:
            X509v3 Basic Constraints: 
                CA:FALSE
            Netscape Comment: 
                Easy-RSA Generated Certificate
            X509v3 Subject Key Identifier: 
                DE:1A:1A:45:DC:E2:6A:4C:08:4C:A2:10:B9:4E:FE:74:4B:87:36:18
            X509v3 Authority Key Identifier: 
                keyid:EF:38:8D:14:50:58:A7:5B:4D:9C:17:72:FC:DF:B9:AC:A7:51:B0:10
                DirName:/C=US/ST=CA/L=SanFrancisco/O=Pixglo, Inc./OU=VPN-CIE/CN=tunnel.pixglo.com/name=Bala Chandrasekaran/emailAddress=bala@pixglo.com
                serial:A6:DB:C6:83:80:E6:A0:79

            X509v3 Extended Key Usage: 
                TLS Web Client Authentication
            X509v3 Key Usage: 
                Digital Signature
    Signature Algorithm: sha1WithRSAEncryption
         1b:a8:a5:57:fc:66:60:c4:e9:46:40:10:41:60:c2:7e:49:fb:
         f7:67:01:cb:a2:59:60:2a:f9:43:ae:6b:98:a0:db:5e:fd:17:
         2c:4c:52:69:ef:9d:9a:eb:80:eb:7e:45:09:8c:fc:f0:b4:eb:
         11:79:27:06:3c:32:4d:45:fe:f5:3d:f5:21:2f:05:87:96:fd:
         c0:82:f7:23:3f:91:11:fe:8b:b7:e6:ec:62:0c:b5:ed:9d:ab:
         cc:d7:47:f4:05:de:f9:cf:0c:1e:d9:2f:c7:d2:ec:9a:7c:67:
         c1:b0:4c:40:ba:2d:1b:04:26:76:24:7a:44:e2:7c:b7:c8:a8:
         7f:ae:7c:b6:3d:c0:9d:e0:b9:4d:3d:17:fa:73:14:a0:84:a0:
         36:7e:23:27:48:53:5d:e3:81:3c:f0:dc:41:9b:5a:50:47:04:
         5e:6e:38:26:2d:43:f5:f8:67:35:ec:2c:13:64:ec:07:ce:0d:
         4c:6f:1c:37:1b:70:25:4d:a2:13:50:95:8f:95:fa:8a:50:db:
         75:4e:c4:33:d5:5b:64:13:f0:bd:68:09:c5:ee:ec:52:53:b8:
         10:b1:55:de:e3:c5:c8:22:7b:2e:67:ff:c5:20:19:51:17:53:
         f9:c2:57:16:7a:5b:df:cb:6e:86:01:2e:b0:3e:92:5c:21:46:
         05:16:c2:e0:91:4e:1d:af:fe:8d:6c:fd:a5:af:e5:24:7d:4f:
         c6:24:a7:5c:21:78:ae:ba:a9:99:2d:bf:85:f1:ad:9b:a1:b7:
         b6:83:3f:f4:b5:63:68:29:d2:bc:d2:8f:82:ee:f6:78:e4:09:
         0d:b6:35:12:8e:93:20:a7:0c:71:f6:d4:c4:3a:71:e6:84:8a:
         95:1d:eb:f9:94:e9:29:fc:97:ed:80:d5:d3:8f:ea:23:68:80:
         9b:8a:17:6a:df:ab:62:3d:2b:ac:1a:93:c1:cc:78:d7:1b:7b:
         fa:06:b6:d1:70:92:72:41:85:06:aa:36:41:1c:67:37:bf:e0:
         46:c6:c6:5f:1a:98:1e:0f:ca:e9:d3:96:d3:b8:4f:00:f7:78:
         db:90:60:82:fc:fa:35:0c:5e:e1:6b:c4:06:85:b7:c5:a8:d6:
         a5:56:a5:ea:d1:34:1c:d3:e7:81:6c:ec:e3:cb:1f:4c:3c:fe:
         15:3f:66:1e:a8:be:1b:5d:17:f6:9c:57:ba:67:bb:da:b2:26:
         43:49:a3:bc:13:73:1d:aa:1c:41:2c:d7:12:60:84:63:65:eb:
         08:72:ed:b1:10:c1:11:7b:ae:cc:94:26:76:e7:45:04:e0:e4:
         e8:3a:36:9a:e9:15:06:07:8c:f8:d8:e5:21:f9:93:d1:2a:95:
         bc:02:86:81:61:fa:18:9d
-----BEGIN CERTIFICATE-----
MIIHSDCCBTCgAwIBAgICAU4wDQYJKoZIhvcNAQEFBQAwgbQxCzAJBgNVBAYTAlVT
MQswCQYDVQQIEwJDQTEVMBMGA1UEBxMMU2FuRnJhbmNpc2NvMRUwEwYDVQQKEwxQ
aXhnbG8sIEluYy4xEDAOBgNVBAsTB1ZQTi1DSUUxGjAYBgNVBAMTEXR1bm5lbC5w
aXhnbG8uY29tMRwwGgYDVQQpExNCYWxhIENoYW5kcmFzZWthcmFuMR4wHAYJKoZI
hvcNAQkBFg9iYWxhQHBpeGdsby5jb20wHhcNMTgwMjE0MDYzMDMwWhcNMjgwMjEy
MDYzMDMwWjCBqTELMAkGA1UEBhMCVVMxCzAJBgNVBAgTAkNBMRUwEwYDVQQHEwxT
YW5GcmFuY2lzY28xFTATBgNVBAoTDFBpeGdsbywgSW5jLjEQMA4GA1UECxMHVlBO
LUNJRTEPMA0GA1UEAxMGY2llMzMzMRwwGgYDVQQpExNCYWxhIENoYW5kcmFzZWth
cmFuMR4wHAYJKoZIhvcNAQkBFg9iYWxhQHBpeGdsby5jb20wggIiMA0GCSqGSIb3
DQEBAQUAA4ICDwAwggIKAoICAQCaI82x82YlUw8tMIiCEppLt4yBT+2FbHgzrWz5
UWPCXUqL1cTyh/bEaHO5acgDw3nVwg0Aueg0MR964u/gvLFo5xtlu7cnxEtm+fT3
FDWB4UlPAlSO4qhrN6qas52esCNSnyjt57DByOGwCJ5ksvZoNgndRBHm3OLhLhwR
cp0I/3f8mhfmBUUbq31wLqVaUckDlkWQA+gg5BeVTT+89MgugCvddoVF9SCR5h+t
xb5Jh7pu4hOfqW1lYYmXhcIU4NjJlu8tdoIzxR78yz4jTZHodin75RTnIhLAx0O1
si+/Wez4JKECzX9t4E6g22RqC8IGtzUToQBo1iGD5uEOVFAqs/f0o0GahgQOSfUK
4mZsTkBeCW/eUtrFqWXbfQ15aX0jYTQtWj/meC8Jf6x6sLxSrBqrMRCAecGRMFVw
SlsFJfUzg+/ftpvQ3/puxTC6KlK3L+kqMBFqVrSxiOFT9NYdnrk9APiqfyHsdU4B
cXNeR9eFHtRRIllgw/o21MQEMWMmtyDwBaUniW2BJszS05kKW11vW09MxurCOdAo
ZkXAUvrTyB6KcEOkieYcXuofx18Dqaf/mAnKN1qwM4l4iOT0K/GakAq1NUYfbOa8
tye0JzYmh9VL/h3peZgvJ2No/0Hpnf1CKGz9lOQulvYFGECLauAKhw6NDTYFxLNb
ZapkbQIDAQABo4IBazCCAWcwCQYDVR0TBAIwADAtBglghkgBhvhCAQ0EIBYeRWFz
eS1SU0EgR2VuZXJhdGVkIENlcnRpZmljYXRlMB0GA1UdDgQWBBTeGhpF3OJqTAhM
ohC5Tv50S4c2GDCB6QYDVR0jBIHhMIHegBTvOI0UUFinW02cF3L837msp1GwEKGB
uqSBtzCBtDELMAkGA1UEBhMCVVMxCzAJBgNVBAgTAkNBMRUwEwYDVQQHEwxTYW5G
cmFuY2lzY28xFTATBgNVBAoTDFBpeGdsbywgSW5jLjEQMA4GA1UECxMHVlBOLUNJ
RTEaMBgGA1UEAxMRdHVubmVsLnBpeGdsby5jb20xHDAaBgNVBCkTE0JhbGEgQ2hh
bmRyYXNla2FyYW4xHjAcBgkqhkiG9w0BCQEWD2JhbGFAcGl4Z2xvLmNvbYIJAKbb
xoOA5qB5MBMGA1UdJQQMMAoGCCsGAQUFBwMCMAsGA1UdDwQEAwIHgDANBgkqhkiG
9w0BAQUFAAOCAgEAG6ilV/xmYMTpRkAQQWDCfkn792cBy6JZYCr5Q65rmKDbXv0X
LExSae+dmuuA635FCYz88LTrEXknBjwyTUX+9T31IS8Fh5b9wIL3Iz+REf6Lt+bs
Ygy17Z2rzNdH9AXe+c8MHtkvx9LsmnxnwbBMQLotGwQmdiR6ROJ8t8iof658tj3A
neC5TT0X+nMUoISgNn4jJ0hTXeOBPPDcQZtaUEcEXm44Ji1D9fhnNewsE2TsB84N
TG8cNxtwJU2iE1CVj5X6ilDbdU7EM9VbZBPwvWgJxe7sUlO4ELFV3uPFyCJ7Lmf/
xSAZURdT+cJXFnpb38tuhgEusD6SXCFGBRbC4JFOHa/+jWz9pa/lJH1PxiSnXCF4
rrqpmS2/hfGtm6G3toM/9LVjaCnSvNKPgu72eOQJDbY1Eo6TIKcMcfbUxDpx5oSK
lR3r+ZTpKfyX7YDV04/qI2iAm4oXat+rYj0rrBqTwcx41xt7+ga20XCSckGFBqo2
QRxnN7/gRsbGXxqYHg/K6dOW07hPAPd425Bggvz6NQxe4WvEBoW3xajWpVal6tE0
HNPngWzs48sfTDz+FT9mHqi+G10X9pxXume72rImQ0mjvBNzHaocQSzXEmCEY2Xr
CHLtsRDBEXuuzJQmdudFBODk6Do2mukVBgeM+NjlIfmT0SqVvAKGgWH6GJ0=
-----END CERTIFICATE-----
