Certificate:
    Data:
        Version: 3 (0x2)
        Serial Number: 335 (0x14f)
    Signature Algorithm: sha1WithRSAEncryption
        Issuer: C=US, ST=CA, L=SanFrancisco, O=Pixglo, Inc., OU=VPN-CIE, CN=tunnel.pixglo.com/name=Bala Chandrasekaran/emailAddress=bala@pixglo.com
        Validity
            Not Before: Feb 14 06:30:33 2018 GMT
            Not After : Feb 12 06:30:33 2028 GMT
        Subject: C=US, ST=CA, L=SanFrancisco, O=Pixglo, Inc., OU=VPN-CIE, CN=cie334/name=Bala Chandrasekaran/emailAddress=bala@pixglo.com
        Subject Public Key Info:
            Public Key Algorithm: rsaEncryption
                Public-Key: (4096 bit)
                Modulus:
                    00:c3:ce:4f:b8:e7:c1:bb:b9:df:40:e9:d3:cd:c9:
                    4b:73:fb:4f:5b:51:20:c8:bb:a6:09:e0:bc:a3:32:
                    f7:3b:38:9b:ce:80:7e:70:ba:58:80:4a:b2:7a:9a:
                    1e:70:ce:30:9c:02:47:10:0b:b7:0d:dc:04:f4:ee:
                    28:81:4a:f5:05:90:18:e8:0b:bd:f1:f9:91:22:3a:
                    5e:b3:c3:1b:e6:0a:50:8d:10:64:33:93:98:f3:fd:
                    0a:6f:fa:f0:04:32:08:dd:0c:7f:4e:78:c7:91:fb:
                    94:81:80:38:ac:ac:db:39:da:5b:da:81:b9:a9:56:
                    5a:74:96:47:94:10:52:b2:4a:b5:24:19:4f:b1:53:
                    c5:53:fe:77:da:35:29:75:5c:0d:73:c5:40:c3:0d:
                    2e:a3:45:18:4c:9d:2d:ff:4d:11:c5:da:33:38:8b:
                    ee:d2:ee:71:4a:f6:51:f5:1d:e8:99:af:ff:5a:7b:
                    b4:df:71:02:73:1b:4e:c2:74:42:cd:ec:0a:12:6d:
                    b0:53:88:44:6c:7a:2c:5f:30:b9:9f:bf:9a:f4:da:
                    99:d8:59:90:95:ff:0c:4d:0d:0e:e2:6b:6a:42:32:
                    19:de:6d:39:82:f1:66:d1:16:a0:aa:d8:51:97:16:
                    60:71:ab:29:e1:36:9a:50:17:d5:7c:28:ea:ba:ee:
                    d5:2a:d0:08:df:4e:ae:89:30:e6:d0:d9:88:e5:22:
                    77:90:cc:84:cf:54:21:61:40:47:35:a2:35:ec:e8:
                    cc:bd:aa:2a:bd:e5:50:60:8a:c9:1c:4e:14:a8:26:
                    8b:9b:1d:70:b2:59:6d:9a:6f:1d:fb:62:f6:e8:eb:
                    6e:c7:85:a1:03:c1:80:29:31:2f:2b:d1:2a:30:71:
                    05:7e:9e:b7:8d:ba:54:d2:4f:f1:56:36:d4:13:d1:
                    47:5e:ee:6d:ec:6c:0c:91:ea:8c:63:b0:49:8f:65:
                    be:e3:4e:51:b7:df:30:ab:af:6e:20:8b:e3:ac:f9:
                    09:e4:09:10:a8:cf:d6:2f:d8:b2:ee:64:5d:b1:f0:
                    13:b6:e9:05:55:f1:40:27:74:40:1e:7f:a4:58:2a:
                    0b:02:6a:7c:49:86:6a:ce:5c:66:0a:c4:9a:e4:11:
                    18:7e:cd:6b:3d:70:f7:61:d1:ab:6e:c5:0f:2e:7d:
                    53:a2:a3:61:eb:c3:0a:5e:fa:96:ab:1b:b0:a3:8b:
                    46:46:ec:34:68:f6:ba:07:fd:b1:97:a1:9b:15:fc:
                    32:11:06:02:a5:b1:73:ce:0b:52:0b:cc:2c:ea:6a:
                    fd:81:fa:e5:0e:84:a4:3d:aa:d7:85:d4:cf:e6:ee:
                    7e:b2:0d:ea:0f:1f:7f:69:25:e8:7f:f8:19:cc:aa:
                    df:7f:9d
                Exponent: 65537 (0x10001)
        X509v3 extensions:
            X509v3 Basic Constraints: 
                CA:FALSE
            Netscape Comment: 
                Easy-RSA Generated Certificate
            X509v3 Subject Key Identifier: 
                6A:94:75:77:3C:F9:38:A3:A9:F2:A7:E5:2A:1D:F3:38:78:E5:8B:04
            X509v3 Authority Key Identifier: 
                keyid:EF:38:8D:14:50:58:A7:5B:4D:9C:17:72:FC:DF:B9:AC:A7:51:B0:10
                DirName:/C=US/ST=CA/L=SanFrancisco/O=Pixglo, Inc./OU=VPN-CIE/CN=tunnel.pixglo.com/name=Bala Chandrasekaran/emailAddress=bala@pixglo.com
                serial:A6:DB:C6:83:80:E6:A0:79

            X509v3 Extended Key Usage: 
                TLS Web Client Authentication
            X509v3 Key Usage: 
                Digital Signature
    Signature Algorithm: sha1WithRSAEncryption
         0f:68:fd:30:0e:58:88:8a:d9:27:79:da:52:ac:c2:9e:06:56:
         54:69:8c:78:ff:57:f6:01:3a:7d:3f:f4:fc:0d:51:0c:e7:5c:
         cf:72:3f:80:9e:b0:d5:4b:f6:52:fd:02:8b:15:bc:1d:72:51:
         95:82:e9:0c:de:ae:4e:31:83:49:5e:ad:e9:58:74:39:3c:ec:
         f4:81:dd:b1:a5:5b:bb:db:fc:ad:b9:88:a5:a2:a6:36:5e:06:
         26:c4:d8:20:50:14:ab:d9:fc:7e:21:b3:85:73:65:f3:6c:4d:
         12:a6:75:d4:58:c4:10:df:aa:8b:b1:49:ce:5d:80:ee:7c:0f:
         61:da:e8:ae:07:0d:25:25:05:3d:f4:1f:70:b9:4c:72:c7:c8:
         d6:31:9f:52:29:6c:98:83:0e:37:4e:66:a7:63:49:72:f3:0f:
         3b:5a:5e:8e:ec:54:26:b5:20:6d:32:56:bc:71:b9:54:51:54:
         49:0a:da:a0:96:0d:af:15:23:0d:28:30:9e:b7:a5:cf:6c:6a:
         1a:0c:1f:f7:9c:3b:4c:a9:10:2e:42:ca:13:ef:f0:b2:ca:17:
         ea:1f:d4:2a:4f:c4:6a:d1:2e:3a:6b:d9:c8:31:e1:6b:2a:7d:
         42:8b:0f:02:42:61:bc:b1:24:22:a0:5f:5b:96:48:29:0c:27:
         1f:0d:85:67:2d:fd:45:26:ea:00:e7:ab:7b:9a:64:10:db:b6:
         7e:be:0e:fb:4f:d3:8c:74:a1:bf:12:c5:e9:be:bb:0e:40:29:
         87:7e:0c:b8:10:93:2c:df:92:90:90:1b:51:85:b2:94:a2:72:
         d8:c3:de:a0:db:32:74:75:6a:5b:8d:1c:0b:f8:b1:af:bf:69:
         f6:16:d9:fc:07:54:24:db:0b:69:97:4e:c4:a3:e5:e8:92:a9:
         5c:ab:53:bc:c8:94:cc:8c:5e:d4:ca:91:3e:14:62:d7:38:d0:
         a4:88:f0:78:32:20:bb:77:02:36:9e:1a:71:76:44:fc:42:a7:
         0e:29:96:d8:b0:5a:97:ac:0b:9e:50:9c:ee:bf:77:f2:d5:54:
         dc:0c:4a:39:39:b8:0c:1f:93:8c:68:b5:dc:13:4e:b9:70:12:
         45:77:e6:40:e2:75:ad:b2:ed:9b:38:e5:51:d8:80:31:e4:30:
         3f:46:ff:d8:26:fc:dc:56:cb:87:38:7d:4f:c5:29:4f:b7:29:
         7e:f4:c9:d0:a0:14:29:df:fe:6c:7f:e8:2e:9a:72:e8:79:08:
         0f:10:07:5f:85:08:ad:91:11:ec:3d:44:89:d8:cd:a8:0c:c3:
         85:57:8f:51:3d:a9:a0:d8:24:18:fc:5f:4c:a2:c5:6f:dd:0d:
         20:65:39:d9:ea:3a:db:1b
-----BEGIN CERTIFICATE-----
MIIHSDCCBTCgAwIBAgICAU8wDQYJKoZIhvcNAQEFBQAwgbQxCzAJBgNVBAYTAlVT
MQswCQYDVQQIEwJDQTEVMBMGA1UEBxMMU2FuRnJhbmNpc2NvMRUwEwYDVQQKEwxQ
aXhnbG8sIEluYy4xEDAOBgNVBAsTB1ZQTi1DSUUxGjAYBgNVBAMTEXR1bm5lbC5w
aXhnbG8uY29tMRwwGgYDVQQpExNCYWxhIENoYW5kcmFzZWthcmFuMR4wHAYJKoZI
hvcNAQkBFg9iYWxhQHBpeGdsby5jb20wHhcNMTgwMjE0MDYzMDMzWhcNMjgwMjEy
MDYzMDMzWjCBqTELMAkGA1UEBhMCVVMxCzAJBgNVBAgTAkNBMRUwEwYDVQQHEwxT
YW5GcmFuY2lzY28xFTATBgNVBAoTDFBpeGdsbywgSW5jLjEQMA4GA1UECxMHVlBO
LUNJRTEPMA0GA1UEAxMGY2llMzM0MRwwGgYDVQQpExNCYWxhIENoYW5kcmFzZWth
cmFuMR4wHAYJKoZIhvcNAQkBFg9iYWxhQHBpeGdsby5jb20wggIiMA0GCSqGSIb3
DQEBAQUAA4ICDwAwggIKAoICAQDDzk+458G7ud9A6dPNyUtz+09bUSDIu6YJ4Lyj
Mvc7OJvOgH5wuliASrJ6mh5wzjCcAkcQC7cN3AT07iiBSvUFkBjoC73x+ZEiOl6z
wxvmClCNEGQzk5jz/Qpv+vAEMgjdDH9OeMeR+5SBgDisrNs52lvagbmpVlp0lkeU
EFKySrUkGU+xU8VT/nfaNSl1XA1zxUDDDS6jRRhMnS3/TRHF2jM4i+7S7nFK9lH1
HeiZr/9ae7TfcQJzG07CdELN7AoSbbBTiERseixfMLmfv5r02pnYWZCV/wxNDQ7i
a2pCMhnebTmC8WbRFqCq2FGXFmBxqynhNppQF9V8KOq67tUq0AjfTq6JMObQ2Yjl
IneQzITPVCFhQEc1ojXs6My9qiq95VBgiskcThSoJoubHXCyWW2abx37Yvbo627H
haEDwYApMS8r0SowcQV+nreNulTST/FWNtQT0Ude7m3sbAyR6oxjsEmPZb7jTlG3
3zCrr24gi+Os+QnkCRCoz9Yv2LLuZF2x8BO26QVV8UAndEAef6RYKgsCanxJhmrO
XGYKxJrkERh+zWs9cPdh0atuxQ8ufVOio2Hrwwpe+parG7Cji0ZG7DRo9roH/bGX
oZsV/DIRBgKlsXPOC1ILzCzqav2B+uUOhKQ9qteF1M/m7n6yDeoPH39pJeh/+BnM
qt9/nQIDAQABo4IBazCCAWcwCQYDVR0TBAIwADAtBglghkgBhvhCAQ0EIBYeRWFz
eS1SU0EgR2VuZXJhdGVkIENlcnRpZmljYXRlMB0GA1UdDgQWBBRqlHV3PPk4o6ny
p+UqHfM4eOWLBDCB6QYDVR0jBIHhMIHegBTvOI0UUFinW02cF3L837msp1GwEKGB
uqSBtzCBtDELMAkGA1UEBhMCVVMxCzAJBgNVBAgTAkNBMRUwEwYDVQQHEwxTYW5G
cmFuY2lzY28xFTATBgNVBAoTDFBpeGdsbywgSW5jLjEQMA4GA1UECxMHVlBOLUNJ
RTEaMBgGA1UEAxMRdHVubmVsLnBpeGdsby5jb20xHDAaBgNVBCkTE0JhbGEgQ2hh
bmRyYXNla2FyYW4xHjAcBgkqhkiG9w0BCQEWD2JhbGFAcGl4Z2xvLmNvbYIJAKbb
xoOA5qB5MBMGA1UdJQQMMAoGCCsGAQUFBwMCMAsGA1UdDwQEAwIHgDANBgkqhkiG
9w0BAQUFAAOCAgEAD2j9MA5YiIrZJ3naUqzCngZWVGmMeP9X9gE6fT/0/A1RDOdc
z3I/gJ6w1Uv2Uv0CixW8HXJRlYLpDN6uTjGDSV6t6Vh0OTzs9IHdsaVbu9v8rbmI
paKmNl4GJsTYIFAUq9n8fiGzhXNl82xNEqZ11FjEEN+qi7FJzl2A7nwPYdrorgcN
JSUFPfQfcLlMcsfI1jGfUilsmIMON05mp2NJcvMPO1pejuxUJrUgbTJWvHG5VFFU
SQraoJYNrxUjDSgwnrelz2xqGgwf95w7TKkQLkLKE+/wssoX6h/UKk/EatEuOmvZ
yDHhayp9QosPAkJhvLEkIqBfW5ZIKQwnHw2FZy39RSbqAOere5pkENu2fr4O+0/T
jHShvxLF6b67DkAph34MuBCTLN+SkJAbUYWylKJy2MPeoNsydHVqW40cC/ixr79p
9hbZ/AdUJNsLaZdOxKPl6JKpXKtTvMiUzIxe1MqRPhRi1zjQpIjweDIgu3cCNp4a
cXZE/EKnDimW2LBal6wLnlCc7r938tVU3AxKOTm4DB+TjGi13BNOuXASRXfmQOJ1
rbLtmzjlUdiAMeQwP0b/2Cb83FbLhzh9T8UpT7cpfvTJ0KAUKd/+bH/oLppy6HkI
DxAHX4UIrZER7D1EidjNqAzDhVePUT2poNgkGPxfTKLFb90NIGU52eo62xs=
-----END CERTIFICATE-----
