Certificate:
    Data:
        Version: 3 (0x2)
        Serial Number: 336 (0x150)
    Signature Algorithm: sha1WithRSAEncryption
        Issuer: C=US, ST=CA, L=SanFrancisco, O=Pixglo, Inc., OU=VPN-CIE, CN=tunnel.pixglo.com/name=Bala Chandrasekaran/emailAddress=bala@pixglo.com
        Validity
            Not Before: Feb 14 06:30:34 2018 GMT
            Not After : Feb 12 06:30:34 2028 GMT
        Subject: C=US, ST=CA, L=SanFrancisco, O=Pixglo, Inc., OU=VPN-CIE, CN=cie335/name=Bala Chandrasekaran/emailAddress=bala@pixglo.com
        Subject Public Key Info:
            Public Key Algorithm: rsaEncryption
                Public-Key: (4096 bit)
                Modulus:
                    00:e0:a1:2d:9e:5f:8e:05:48:fa:6f:cd:61:f3:eb:
                    31:fd:a9:de:c3:2f:4b:9a:60:8d:1a:0a:69:c6:19:
                    26:38:bc:67:13:0a:bc:8b:91:9d:99:da:4c:24:89:
                    07:e2:59:2d:41:d2:0a:50:4e:d0:1a:13:a8:c5:e5:
                    99:3d:37:bf:35:99:bb:d7:87:14:60:52:13:93:4b:
                    b8:2b:52:c1:37:87:d0:b3:b8:1f:67:f8:e2:7c:7d:
                    01:5d:8f:a6:27:8d:b1:05:9d:8d:57:68:b3:55:65:
                    1c:44:c0:02:a2:54:3b:ef:7c:15:24:e1:42:93:0b:
                    04:c1:69:45:d9:39:88:4b:19:2d:f5:96:5e:8e:e9:
                    de:05:18:b6:7b:89:86:a2:c4:0e:0f:dc:64:77:40:
                    88:5d:ef:66:37:50:da:79:00:c1:c7:65:96:52:b1:
                    f8:14:43:8d:6a:02:ac:33:a6:73:74:ec:5f:44:a0:
                    10:0e:cf:95:a6:9d:2b:e4:29:cf:df:f3:cd:c9:ca:
                    a5:fe:95:98:af:63:78:f6:31:a9:1a:9c:31:50:03:
                    cb:43:7e:fa:52:48:98:c8:da:0e:4a:09:48:48:89:
                    45:48:38:8b:00:b1:99:f7:e0:93:5b:e5:22:b3:17:
                    05:ca:94:cc:c4:4a:19:52:8b:1b:f2:f6:f4:b7:d0:
                    69:fe:4c:04:d8:db:e6:97:91:f2:f2:de:60:85:da:
                    bf:16:fb:32:dd:3f:86:68:01:c2:27:d6:8c:d1:1e:
                    56:0b:1c:13:dc:04:78:ca:76:77:58:aa:05:8b:0f:
                    73:16:42:1b:86:8d:de:9b:0e:d1:c2:d3:ee:7d:cb:
                    c5:1a:90:d1:24:8e:7a:82:e0:5e:a0:e0:db:a7:fa:
                    58:55:20:e7:1d:dc:61:7c:7f:4c:2e:b3:d0:63:c4:
                    f1:b6:29:b0:e2:7d:53:80:c3:79:b5:a0:9d:91:14:
                    b1:7e:82:e9:d0:96:1e:4c:33:e2:d9:f9:4d:7d:e1:
                    1c:f1:8e:ec:5e:ec:bf:ef:64:88:0a:f1:b8:36:8a:
                    df:1d:ed:5e:04:b9:7f:b5:d5:5d:71:55:75:4d:63:
                    da:0f:c0:30:2f:89:ef:f0:45:48:4d:2b:a8:dc:b1:
                    3c:4e:80:dc:a2:07:6c:39:f6:84:1d:c8:c0:0b:82:
                    73:35:15:7e:c5:7e:3d:d4:86:3a:50:e9:8c:f2:58:
                    93:97:56:2e:4f:d9:b5:f7:59:83:ee:94:4d:1b:ff:
                    15:ad:6e:3e:21:df:56:12:15:fd:2b:89:ff:29:df:
                    12:7f:cd:4f:60:a1:0a:5f:2f:2d:09:60:4a:fa:ca:
                    bf:8c:55:f2:bc:7b:49:f3:df:d1:4f:49:f8:93:27:
                    64:5c:4d
                Exponent: 65537 (0x10001)
        X509v3 extensions:
            X509v3 Basic Constraints: 
                CA:FALSE
            Netscape Comment: 
                Easy-RSA Generated Certificate
            X509v3 Subject Key Identifier: 
                58:A5:4A:62:D9:99:2A:16:47:D7:CB:3F:EE:8A:8E:0E:2D:15:9A:67
            X509v3 Authority Key Identifier: 
                keyid:EF:38:8D:14:50:58:A7:5B:4D:9C:17:72:FC:DF:B9:AC:A7:51:B0:10
                DirName:/C=US/ST=CA/L=SanFrancisco/O=Pixglo, Inc./OU=VPN-CIE/CN=tunnel.pixglo.com/name=Bala Chandrasekaran/emailAddress=bala@pixglo.com
                serial:A6:DB:C6:83:80:E6:A0:79

            X509v3 Extended Key Usage: 
                TLS Web Client Authentication
            X509v3 Key Usage: 
                Digital Signature
    Signature Algorithm: sha1WithRSAEncryption
         93:a9:9e:b0:cd:52:cf:af:b0:d1:e0:21:da:54:f4:34:ab:e6:
         55:99:29:b2:2e:12:db:c6:aa:e7:f2:77:51:86:9e:8a:40:3b:
         d1:3f:13:10:33:af:d8:5d:4d:8b:4b:34:2c:86:c9:31:61:b1:
         aa:ba:34:b1:28:ba:b5:89:83:cd:ce:34:32:25:c4:06:5d:fb:
         df:cd:39:4b:1d:c1:89:84:87:a5:7a:c9:77:e2:a2:90:78:b2:
         8d:64:ca:06:b2:4c:c6:0e:a6:60:54:d1:8c:89:7e:36:66:a0:
         88:2d:b1:8f:9d:dc:6c:9a:5c:85:71:ff:95:6f:62:58:8c:00:
         43:f4:0c:69:b8:37:40:c9:1f:37:9d:ab:13:b9:a7:2f:e0:f8:
         bc:1c:a0:54:60:09:3a:b2:f3:0f:1b:92:71:e7:af:68:48:af:
         e5:28:46:fd:5c:ef:1f:70:b4:ca:f3:c1:4a:31:d8:63:8d:0d:
         2a:25:9b:70:0c:57:31:71:bd:06:9b:5d:03:4c:af:9a:ee:38:
         c5:73:4f:4c:1b:de:f8:d8:15:2f:26:77:15:46:1d:80:ab:97:
         c6:93:cf:e8:44:b1:36:1c:71:35:62:cf:ca:8b:f2:77:a8:ee:
         21:c7:be:1c:14:1f:f5:32:2a:f0:dd:12:ac:ce:4f:fd:e5:ee:
         0f:e6:19:a5:7e:ec:cf:3c:c6:f4:98:d8:e6:b2:0d:46:14:4b:
         7f:0a:4a:6b:42:25:a5:25:91:4d:1d:0b:84:47:4a:23:4c:6e:
         d0:a9:62:51:d9:0e:ee:54:fb:4b:8d:09:c8:e9:ad:49:e5:4c:
         68:60:2e:ae:ed:04:14:f3:52:a4:13:a3:7d:cd:40:82:f5:29:
         39:9e:1f:f9:87:97:b9:d4:5d:de:92:61:15:ac:ae:ef:f1:b1:
         12:46:ef:17:48:f9:e2:59:00:1b:95:cd:c9:ad:72:8a:be:72:
         9b:14:6d:79:a0:eb:e3:03:0c:61:f4:eb:5b:d9:04:7f:81:63:
         33:88:f8:d9:53:2b:28:f2:bd:0c:b8:4c:a5:65:92:0b:41:20:
         c2:6f:fd:b1:e5:20:ab:99:59:03:a5:6a:25:9f:eb:3c:f7:08:
         0e:97:e2:a4:7a:f6:a4:6f:af:05:66:7c:cd:ad:7b:89:c1:43:
         6d:6c:04:e3:e6:03:40:00:1f:60:89:1d:e5:84:42:11:12:50:
         38:86:02:c1:be:e5:08:82:94:67:d5:a7:4a:e1:d9:96:2c:17:
         34:96:97:64:38:fd:f2:4d:f2:44:e6:cb:01:3a:ff:fe:28:78:
         04:f6:63:e9:91:e0:6d:64:d6:73:1f:ab:ae:94:b5:db:17:e6:
         cb:a3:6e:09:4d:9b:ee:17
-----BEGIN CERTIFICATE-----
MIIHSDCCBTCgAwIBAgICAVAwDQYJKoZIhvcNAQEFBQAwgbQxCzAJBgNVBAYTAlVT
MQswCQYDVQQIEwJDQTEVMBMGA1UEBxMMU2FuRnJhbmNpc2NvMRUwEwYDVQQKEwxQ
aXhnbG8sIEluYy4xEDAOBgNVBAsTB1ZQTi1DSUUxGjAYBgNVBAMTEXR1bm5lbC5w
aXhnbG8uY29tMRwwGgYDVQQpExNCYWxhIENoYW5kcmFzZWthcmFuMR4wHAYJKoZI
hvcNAQkBFg9iYWxhQHBpeGdsby5jb20wHhcNMTgwMjE0MDYzMDM0WhcNMjgwMjEy
MDYzMDM0WjCBqTELMAkGA1UEBhMCVVMxCzAJBgNVBAgTAkNBMRUwEwYDVQQHEwxT
YW5GcmFuY2lzY28xFTATBgNVBAoTDFBpeGdsbywgSW5jLjEQMA4GA1UECxMHVlBO
LUNJRTEPMA0GA1UEAxMGY2llMzM1MRwwGgYDVQQpExNCYWxhIENoYW5kcmFzZWth
cmFuMR4wHAYJKoZIhvcNAQkBFg9iYWxhQHBpeGdsby5jb20wggIiMA0GCSqGSIb3
DQEBAQUAA4ICDwAwggIKAoICAQDgoS2eX44FSPpvzWHz6zH9qd7DL0uaYI0aCmnG
GSY4vGcTCryLkZ2Z2kwkiQfiWS1B0gpQTtAaE6jF5Zk9N781mbvXhxRgUhOTS7gr
UsE3h9CzuB9n+OJ8fQFdj6YnjbEFnY1XaLNVZRxEwAKiVDvvfBUk4UKTCwTBaUXZ
OYhLGS31ll6O6d4FGLZ7iYaixA4P3GR3QIhd72Y3UNp5AMHHZZZSsfgUQ41qAqwz
pnN07F9EoBAOz5WmnSvkKc/f883JyqX+lZivY3j2MakanDFQA8tDfvpSSJjI2g5K
CUhIiUVIOIsAsZn34JNb5SKzFwXKlMzEShlSixvy9vS30Gn+TATY2+aXkfLy3mCF
2r8W+zLdP4ZoAcIn1ozRHlYLHBPcBHjKdndYqgWLD3MWQhuGjd6bDtHC0+59y8Ua
kNEkjnqC4F6g4Nun+lhVIOcd3GF8f0wus9BjxPG2KbDifVOAw3m1oJ2RFLF+gunQ
lh5MM+LZ+U194Rzxjuxe7L/vZIgK8bg2it8d7V4EuX+11V1xVXVNY9oPwDAvie/w
RUhNK6jcsTxOgNyiB2w59oQdyMALgnM1FX7Ffj3UhjpQ6YzyWJOXVi5P2bX3WYPu
lE0b/xWtbj4h31YSFf0rif8p3xJ/zU9goQpfLy0JYEr6yr+MVfK8e0nz39FPSfiT
J2RcTQIDAQABo4IBazCCAWcwCQYDVR0TBAIwADAtBglghkgBhvhCAQ0EIBYeRWFz
eS1SU0EgR2VuZXJhdGVkIENlcnRpZmljYXRlMB0GA1UdDgQWBBRYpUpi2ZkqFkfX
yz/uio4OLRWaZzCB6QYDVR0jBIHhMIHegBTvOI0UUFinW02cF3L837msp1GwEKGB
uqSBtzCBtDELMAkGA1UEBhMCVVMxCzAJBgNVBAgTAkNBMRUwEwYDVQQHEwxTYW5G
cmFuY2lzY28xFTATBgNVBAoTDFBpeGdsbywgSW5jLjEQMA4GA1UECxMHVlBOLUNJ
RTEaMBgGA1UEAxMRdHVubmVsLnBpeGdsby5jb20xHDAaBgNVBCkTE0JhbGEgQ2hh
bmRyYXNla2FyYW4xHjAcBgkqhkiG9w0BCQEWD2JhbGFAcGl4Z2xvLmNvbYIJAKbb
xoOA5qB5MBMGA1UdJQQMMAoGCCsGAQUFBwMCMAsGA1UdDwQEAwIHgDANBgkqhkiG
9w0BAQUFAAOCAgEAk6mesM1Sz6+w0eAh2lT0NKvmVZkpsi4S28aq5/J3UYaeikA7
0T8TEDOv2F1Ni0s0LIbJMWGxqro0sSi6tYmDzc40MiXEBl373805Sx3BiYSHpXrJ
d+KikHiyjWTKBrJMxg6mYFTRjIl+NmagiC2xj53cbJpchXH/lW9iWIwAQ/QMabg3
QMkfN52rE7mnL+D4vBygVGAJOrLzDxuSceevaEiv5ShG/VzvH3C0yvPBSjHYY40N
KiWbcAxXMXG9BptdA0yvmu44xXNPTBve+NgVLyZ3FUYdgKuXxpPP6ESxNhxxNWLP
yovyd6juIce+HBQf9TIq8N0SrM5P/eXuD+YZpX7szzzG9JjY5rINRhRLfwpKa0Il
pSWRTR0LhEdKI0xu0KliUdkO7lT7S40JyOmtSeVMaGAuru0EFPNSpBOjfc1AgvUp
OZ4f+YeXudRd3pJhFayu7/GxEkbvF0j54lkAG5XNya1yir5ymxRteaDr4wMMYfTr
W9kEf4FjM4j42VMrKPK9DLhMpWWSC0Egwm/9seUgq5lZA6VqJZ/rPPcIDpfipHr2
pG+vBWZ8za17icFDbWwE4+YDQAAfYIkd5YRCERJQOIYCwb7lCIKUZ9WnSuHZliwX
NJaXZDj98k3yRObLATr//ih4BPZj6ZHgbWTWcx+rrpS12xfmy6NuCU2b7hc=
-----END CERTIFICATE-----
