Certificate:
    Data:
        Version: 3 (0x2)
        Serial Number: 337 (0x151)
    Signature Algorithm: sha1WithRSAEncryption
        Issuer: C=US, ST=CA, L=SanFrancisco, O=Pixglo, Inc., OU=VPN-CIE, CN=tunnel.pixglo.com/name=Bala Chandrasekaran/emailAddress=bala@pixglo.com
        Validity
            Not Before: Feb 14 06:30:35 2018 GMT
            Not After : Feb 12 06:30:35 2028 GMT
        Subject: C=US, ST=CA, L=SanFrancisco, O=Pixglo, Inc., OU=VPN-CIE, CN=cie336/name=Bala Chandrasekaran/emailAddress=bala@pixglo.com
        Subject Public Key Info:
            Public Key Algorithm: rsaEncryption
                Public-Key: (4096 bit)
                Modulus:
                    00:94:13:19:24:e9:23:4f:ef:a1:65:03:a5:d0:dd:
                    16:86:e7:8c:26:0e:b6:a4:3e:13:9a:34:d2:7d:b8:
                    67:e8:61:e7:21:bf:64:d4:c1:d5:1e:93:df:ef:49:
                    80:66:00:c4:9a:f8:e7:bb:fe:e9:66:45:1c:ec:e6:
                    88:96:9d:43:cf:4a:e4:38:37:dc:59:54:24:f7:ef:
                    70:d3:46:76:96:fa:0a:be:d3:1a:bc:9f:1d:fb:8b:
                    d7:2d:6e:66:ec:c3:c0:bc:28:c5:d5:74:8c:6d:d7:
                    b2:e9:ea:b1:a2:92:1a:91:57:68:1c:91:2b:60:28:
                    8c:d7:22:5d:33:2e:d7:c8:d0:95:c3:12:25:fe:c2:
                    8d:4f:b2:54:da:c4:01:08:68:65:7f:44:0a:5a:1d:
                    65:e3:ac:9b:1f:4e:f4:4c:e2:c1:32:bb:36:24:b5:
                    4c:a2:ce:7d:05:b2:57:4a:e7:ab:a0:5d:92:22:c5:
                    90:30:81:e8:dc:cb:7a:44:04:d1:47:f5:2e:a6:0c:
                    15:1e:a4:00:69:8e:e1:07:8d:05:43:7e:b7:25:dc:
                    6c:e8:cd:96:fe:e8:cb:38:83:93:52:79:2d:3a:e3:
                    af:26:73:93:0e:fe:1a:b2:de:40:bf:1d:5f:68:5c:
                    fe:ee:94:14:e1:88:a4:36:32:17:a2:fe:ab:ca:d3:
                    22:cf:be:32:e9:e1:9b:3c:33:8c:d1:1f:96:31:b2:
                    1e:4b:97:82:cc:b6:42:c0:c0:4e:ef:9b:82:93:46:
                    f6:7d:17:c2:40:d0:8c:66:86:f7:e2:e0:e1:b1:31:
                    a2:bf:6b:ce:d2:a1:2f:19:c6:9a:45:39:08:53:5e:
                    c4:e0:ae:51:3c:72:a6:5a:30:8d:a2:70:3e:49:f6:
                    f0:85:e2:ef:91:ed:31:21:8f:62:2e:3b:47:9c:ef:
                    7e:bb:47:b3:f5:e8:f9:31:e2:87:2c:d6:95:05:57:
                    4a:47:22:74:3d:04:c0:8f:53:d4:db:de:cf:6c:d1:
                    3f:55:66:e9:8d:96:d2:fe:1b:24:a8:5b:0e:35:81:
                    d7:08:c8:a6:8c:42:74:f1:ee:05:7b:30:be:4c:38:
                    3b:2f:d8:3c:2f:38:69:d6:e0:83:5d:0c:95:b1:f1:
                    c5:47:f2:1e:7a:de:5f:30:eb:99:c4:9d:86:b3:dc:
                    c5:56:8f:c9:8f:93:7d:09:23:2a:bf:3a:4f:f8:63:
                    be:e1:c0:d3:38:09:af:2e:1b:71:b8:67:4d:20:4f:
                    e7:42:af:31:d4:59:58:19:79:64:2f:b4:93:5c:94:
                    f6:94:2b:15:b2:a5:4c:c7:0d:7a:0e:5b:ba:36:a5:
                    b2:13:62:0d:39:7a:36:8d:33:8c:cd:7f:06:49:56:
                    2c:3f:87
                Exponent: 65537 (0x10001)
        X509v3 extensions:
            X509v3 Basic Constraints: 
                CA:FALSE
            Netscape Comment: 
                Easy-RSA Generated Certificate
            X509v3 Subject Key Identifier: 
                B9:59:7B:8C:3B:55:C8:84:00:A0:99:35:9B:4A:50:61:16:B6:B2:1A
            X509v3 Authority Key Identifier: 
                keyid:EF:38:8D:14:50:58:A7:5B:4D:9C:17:72:FC:DF:B9:AC:A7:51:B0:10
                DirName:/C=US/ST=CA/L=SanFrancisco/O=Pixglo, Inc./OU=VPN-CIE/CN=tunnel.pixglo.com/name=Bala Chandrasekaran/emailAddress=bala@pixglo.com
                serial:A6:DB:C6:83:80:E6:A0:79

            X509v3 Extended Key Usage: 
                TLS Web Client Authentication
            X509v3 Key Usage: 
                Digital Signature
    Signature Algorithm: sha1WithRSAEncryption
         14:a1:ae:7c:cc:0a:69:1f:d4:38:69:26:a1:13:5f:8c:4e:7f:
         8d:a4:d4:0d:0c:fb:c1:a9:04:fb:15:64:c9:ed:35:c7:04:3d:
         da:7e:75:3e:3b:c6:fd:34:16:3e:ed:3f:a5:a5:42:03:e8:47:
         45:2b:68:1f:05:9b:60:88:a9:f4:5d:d8:a6:26:5d:76:c4:77:
         5f:bb:89:c8:e9:4b:63:25:e8:7c:bf:6c:eb:b1:ea:10:e0:d7:
         49:f6:6d:ec:cd:e4:bc:76:dc:79:3c:4f:0e:25:03:46:c5:2d:
         7f:a8:eb:cc:c9:b0:98:66:cd:bd:be:c3:36:4f:63:05:02:d8:
         a1:56:03:95:c0:3e:58:51:36:f4:b9:da:a1:3b:72:f7:df:6d:
         49:67:9c:6a:32:6c:79:dd:72:8b:4b:96:2a:ab:7b:d5:7e:85:
         2b:20:c5:03:03:e6:ca:f0:63:83:e3:fa:07:96:11:c8:23:b4:
         c4:48:65:1a:d1:a9:d8:01:84:0b:f5:c6:50:7d:da:2d:45:d5:
         e4:37:de:0c:f0:3a:6f:27:1b:4d:8b:19:9e:8b:75:d4:8b:a9:
         e3:2a:b3:30:c5:77:ef:5f:90:61:9a:57:76:34:af:b9:5b:10:
         b9:b3:7c:28:50:98:2f:4a:ef:9a:82:e7:09:37:7c:fb:09:8a:
         34:83:35:3b:68:64:41:d2:7f:4e:55:7f:c8:87:5e:10:fb:4b:
         ce:30:20:79:3a:e9:40:84:06:3a:86:9d:fe:cc:ab:4b:f7:39:
         4a:99:c2:a0:52:87:cf:d2:cf:f4:92:2c:fc:fe:16:f5:b6:8a:
         b6:72:24:82:34:d8:8e:c2:94:0a:b3:95:c1:8e:09:89:bb:34:
         6f:69:64:30:66:0c:e4:e6:45:17:4e:f1:85:7c:ee:94:94:b6:
         73:a5:59:26:62:c9:b4:6f:64:09:bc:d0:e3:7b:a4:45:af:8c:
         cd:80:32:b0:27:08:d6:27:7e:31:52:7c:9d:94:40:03:89:aa:
         fd:70:e9:34:7b:3e:54:62:19:77:2a:a9:2c:8c:8d:12:11:5c:
         e5:db:f2:2e:6e:88:53:8c:44:67:1e:34:39:b4:9d:b3:fb:e1:
         27:75:a2:84:c7:04:9d:60:b0:0f:75:53:93:dc:4f:3e:51:e4:
         60:d9:53:b7:11:f7:0f:b6:c7:22:e9:c9:3f:6b:83:c3:de:61:
         e6:ee:dc:fd:ff:69:8d:48:e7:79:a6:76:55:3f:63:8e:38:d8:
         68:5a:35:28:75:d8:be:b6:8a:c9:da:57:fa:7f:73:74:c2:0c:
         e7:2e:28:df:b5:c7:03:da:03:13:c6:52:f9:00:8c:84:74:c5:
         bc:ae:77:8c:8a:c9:36:87
-----BEGIN CERTIFICATE-----
MIIHSDCCBTCgAwIBAgICAVEwDQYJKoZIhvcNAQEFBQAwgbQxCzAJBgNVBAYTAlVT
MQswCQYDVQQIEwJDQTEVMBMGA1UEBxMMU2FuRnJhbmNpc2NvMRUwEwYDVQQKEwxQ
aXhnbG8sIEluYy4xEDAOBgNVBAsTB1ZQTi1DSUUxGjAYBgNVBAMTEXR1bm5lbC5w
aXhnbG8uY29tMRwwGgYDVQQpExNCYWxhIENoYW5kcmFzZWthcmFuMR4wHAYJKoZI
hvcNAQkBFg9iYWxhQHBpeGdsby5jb20wHhcNMTgwMjE0MDYzMDM1WhcNMjgwMjEy
MDYzMDM1WjCBqTELMAkGA1UEBhMCVVMxCzAJBgNVBAgTAkNBMRUwEwYDVQQHEwxT
YW5GcmFuY2lzY28xFTATBgNVBAoTDFBpeGdsbywgSW5jLjEQMA4GA1UECxMHVlBO
LUNJRTEPMA0GA1UEAxMGY2llMzM2MRwwGgYDVQQpExNCYWxhIENoYW5kcmFzZWth
cmFuMR4wHAYJKoZIhvcNAQkBFg9iYWxhQHBpeGdsby5jb20wggIiMA0GCSqGSIb3
DQEBAQUAA4ICDwAwggIKAoICAQCUExkk6SNP76FlA6XQ3RaG54wmDrakPhOaNNJ9
uGfoYechv2TUwdUek9/vSYBmAMSa+Oe7/ulmRRzs5oiWnUPPSuQ4N9xZVCT373DT
RnaW+gq+0xq8nx37i9ctbmbsw8C8KMXVdIxt17Lp6rGikhqRV2gckStgKIzXIl0z
LtfI0JXDEiX+wo1PslTaxAEIaGV/RApaHWXjrJsfTvRM4sEyuzYktUyizn0FsldK
56ugXZIixZAwgejcy3pEBNFH9S6mDBUepABpjuEHjQVDfrcl3GzozZb+6Ms4g5NS
eS06468mc5MO/hqy3kC/HV9oXP7ulBThiKQ2Mhei/qvK0yLPvjLp4Zs8M4zRH5Yx
sh5Ll4LMtkLAwE7vm4KTRvZ9F8JA0Ixmhvfi4OGxMaK/a87SoS8ZxppFOQhTXsTg
rlE8cqZaMI2icD5J9vCF4u+R7TEhj2IuO0ec7367R7P16Pkx4ocs1pUFV0pHInQ9
BMCPU9Tb3s9s0T9VZumNltL+GySoWw41gdcIyKaMQnTx7gV7ML5MODsv2DwvOGnW
4INdDJWx8cVH8h563l8w65nEnYaz3MVWj8mPk30JIyq/Ok/4Y77hwNM4Ca8uG3G4
Z00gT+dCrzHUWVgZeWQvtJNclPaUKxWypUzHDXoOW7o2pbITYg05ejaNM4zNfwZJ
Viw/hwIDAQABo4IBazCCAWcwCQYDVR0TBAIwADAtBglghkgBhvhCAQ0EIBYeRWFz
eS1SU0EgR2VuZXJhdGVkIENlcnRpZmljYXRlMB0GA1UdDgQWBBS5WXuMO1XIhACg
mTWbSlBhFrayGjCB6QYDVR0jBIHhMIHegBTvOI0UUFinW02cF3L837msp1GwEKGB
uqSBtzCBtDELMAkGA1UEBhMCVVMxCzAJBgNVBAgTAkNBMRUwEwYDVQQHEwxTYW5G
cmFuY2lzY28xFTATBgNVBAoTDFBpeGdsbywgSW5jLjEQMA4GA1UECxMHVlBOLUNJ
RTEaMBgGA1UEAxMRdHVubmVsLnBpeGdsby5jb20xHDAaBgNVBCkTE0JhbGEgQ2hh
bmRyYXNla2FyYW4xHjAcBgkqhkiG9w0BCQEWD2JhbGFAcGl4Z2xvLmNvbYIJAKbb
xoOA5qB5MBMGA1UdJQQMMAoGCCsGAQUFBwMCMAsGA1UdDwQEAwIHgDANBgkqhkiG
9w0BAQUFAAOCAgEAFKGufMwKaR/UOGkmoRNfjE5/jaTUDQz7wakE+xVkye01xwQ9
2n51PjvG/TQWPu0/paVCA+hHRStoHwWbYIip9F3YpiZddsR3X7uJyOlLYyXofL9s
67HqEODXSfZt7M3kvHbceTxPDiUDRsUtf6jrzMmwmGbNvb7DNk9jBQLYoVYDlcA+
WFE29LnaoTty999tSWecajJsed1yi0uWKqt71X6FKyDFAwPmyvBjg+P6B5YRyCO0
xEhlGtGp2AGEC/XGUH3aLUXV5DfeDPA6bycbTYsZnot11Iup4yqzMMV371+QYZpX
djSvuVsQubN8KFCYL0rvmoLnCTd8+wmKNIM1O2hkQdJ/TlV/yIdeEPtLzjAgeTrp
QIQGOoad/syrS/c5SpnCoFKHz9LP9JIs/P4W9baKtnIkgjTYjsKUCrOVwY4Jibs0
b2lkMGYM5OZFF07xhXzulJS2c6VZJmLJtG9kCbzQ43ukRa+MzYAysCcI1id+MVJ8
nZRAA4mq/XDpNHs+VGIZdyqpLIyNEhFc5dvyLm6IU4xEZx40ObSds/vhJ3WihMcE
nWCwD3VTk9xPPlHkYNlTtxH3D7bHIunJP2uDw95h5u7c/f9pjUjneaZ2VT9jjjjY
aFo1KHXYvraKydpX+n9zdMIM5y4o37XHA9oDE8ZS+QCMhHTFvK53jIrJNoc=
-----END CERTIFICATE-----
