Certificate:
    Data:
        Version: 3 (0x2)
        Serial Number: 338 (0x152)
    Signature Algorithm: sha1WithRSAEncryption
        Issuer: C=US, ST=CA, L=SanFrancisco, O=Pixglo, Inc., OU=VPN-CIE, CN=tunnel.pixglo.com/name=Bala Chandrasekaran/emailAddress=bala@pixglo.com
        Validity
            Not Before: Feb 14 06:30:37 2018 GMT
            Not After : Feb 12 06:30:37 2028 GMT
        Subject: C=US, ST=CA, L=SanFrancisco, O=Pixglo, Inc., OU=VPN-CIE, CN=cie337/name=Bala Chandrasekaran/emailAddress=bala@pixglo.com
        Subject Public Key Info:
            Public Key Algorithm: rsaEncryption
                Public-Key: (4096 bit)
                Modulus:
                    00:a4:9d:2b:ee:a7:2c:b0:7f:b9:20:31:a7:0d:16:
                    bf:62:7e:7e:fd:2a:7b:c9:5f:e1:11:40:dd:0c:0a:
                    1a:6a:ba:5d:54:56:88:41:6e:dc:bc:82:9e:b7:94:
                    88:00:32:22:8c:4c:1d:2c:d4:b2:28:9e:81:39:a2:
                    03:4f:a1:25:9b:13:0b:36:f3:53:37:b2:3c:81:b8:
                    77:f5:61:15:cf:72:42:7c:89:02:ae:6f:74:ce:45:
                    7c:8d:dd:1b:0d:05:31:f8:b7:d1:25:25:f3:c0:c6:
                    24:91:12:2a:84:5c:8d:b6:57:91:6b:fc:f5:45:09:
                    f9:f8:ca:0d:eb:13:8d:ab:6d:e6:c4:42:7f:2a:58:
                    69:db:bb:e9:b2:29:a7:bc:07:9f:d6:0c:ee:a9:40:
                    42:a0:2f:3b:d9:86:cc:1d:fd:8d:49:80:38:58:54:
                    2d:ed:5b:36:0c:79:07:f8:3e:be:75:14:bd:6a:33:
                    f8:44:50:95:32:65:fc:26:04:ee:e5:94:c9:ec:93:
                    93:88:6f:e1:83:ed:81:d6:7f:d6:4a:44:d1:fe:ca:
                    f1:2b:7c:75:03:45:60:4b:78:b3:fd:a0:76:ab:76:
                    79:a8:d1:c3:5a:7f:d9:aa:39:55:e5:68:13:b8:cb:
                    3c:77:bc:21:ee:79:95:b8:20:fe:37:b1:9e:33:37:
                    cb:4b:93:52:02:8b:9c:8b:ad:b9:37:0a:ba:51:7a:
                    6e:aa:30:d3:32:25:4f:4e:27:d9:74:bf:23:ba:8a:
                    5c:9e:6c:82:1a:05:4c:5a:6c:93:63:6a:82:01:6f:
                    ee:d7:c7:06:d2:f3:b7:ab:54:28:1e:89:1e:57:d5:
                    07:4e:16:1e:43:aa:be:86:24:d4:aa:9a:98:79:a5:
                    70:25:01:a7:06:1f:5a:63:18:86:5a:ba:c7:f5:70:
                    f4:a8:f6:8f:97:ce:6b:c9:88:9c:c4:50:96:ee:85:
                    02:aa:6b:91:5f:ad:9a:37:df:21:6c:6c:a7:d3:12:
                    42:b5:28:1a:19:10:9e:2f:50:d3:2e:0c:67:dd:10:
                    f5:cc:97:f2:e2:43:00:89:2c:0e:80:ad:fc:dc:50:
                    95:67:02:69:88:1f:97:d6:8f:1b:9a:15:ed:49:1d:
                    a0:ba:68:cf:56:97:06:12:21:81:b5:ab:99:32:05:
                    b3:6f:18:ce:76:e2:4c:9c:f8:25:52:a1:63:2a:3d:
                    0a:dd:1b:ed:0f:52:60:5a:e8:61:d1:5e:31:d1:94:
                    f6:5c:a6:f6:4a:42:36:f3:86:d7:96:a8:8b:53:a7:
                    24:ee:e7:7e:71:ed:15:e8:c3:ed:a6:7b:d0:3f:c9:
                    ac:ea:13:5c:45:12:af:82:cb:e1:27:73:e1:f1:83:
                    a0:e2:b9
                Exponent: 65537 (0x10001)
        X509v3 extensions:
            X509v3 Basic Constraints: 
                CA:FALSE
            Netscape Comment: 
                Easy-RSA Generated Certificate
            X509v3 Subject Key Identifier: 
                54:B1:88:12:A7:1A:F5:F2:A6:8C:5C:C8:60:57:9C:C8:0A:DF:8B:E2
            X509v3 Authority Key Identifier: 
                keyid:EF:38:8D:14:50:58:A7:5B:4D:9C:17:72:FC:DF:B9:AC:A7:51:B0:10
                DirName:/C=US/ST=CA/L=SanFrancisco/O=Pixglo, Inc./OU=VPN-CIE/CN=tunnel.pixglo.com/name=Bala Chandrasekaran/emailAddress=bala@pixglo.com
                serial:A6:DB:C6:83:80:E6:A0:79

            X509v3 Extended Key Usage: 
                TLS Web Client Authentication
            X509v3 Key Usage: 
                Digital Signature
    Signature Algorithm: sha1WithRSAEncryption
         79:5f:42:89:c4:94:d7:41:f4:16:9b:ac:05:b4:f9:77:49:17:
         7a:3e:bd:d8:4f:ac:ab:14:77:a7:70:b4:68:22:d2:ce:88:b3:
         fe:3b:87:5e:66:2d:fa:2e:5a:85:dd:9c:74:5b:5d:5a:0d:c0:
         46:93:4b:0e:2e:75:f1:aa:92:86:1f:df:aa:1b:a0:b7:56:28:
         b2:7c:56:48:87:40:9b:9d:18:26:7d:20:c8:bb:8c:b0:e6:07:
         91:bf:95:e7:19:f4:75:be:6f:87:b6:0f:9d:a9:54:8e:49:b8:
         0b:a6:10:6c:be:cf:7a:43:6c:10:bf:dd:83:be:59:02:29:0a:
         41:9d:44:f1:e5:cc:ec:0a:82:c6:85:59:7e:31:d0:bd:9e:ca:
         9d:48:70:5d:80:82:bf:b3:e2:85:8b:aa:a3:58:59:65:67:2c:
         b8:1b:e3:a2:6e:d5:b0:89:41:59:73:22:77:11:08:0d:91:e5:
         fc:43:f1:6f:2f:80:39:94:f5:e6:0d:3d:84:6c:d8:66:db:a0:
         70:b2:25:74:48:00:5f:82:bf:d9:39:a0:05:58:19:21:5f:63:
         3a:fc:a5:79:7a:98:93:e6:2f:4d:1e:c6:74:31:9c:5d:d3:c6:
         de:12:42:91:16:f3:91:4a:6b:09:79:ed:94:ff:07:de:02:c4:
         a6:7c:99:30:1d:4c:08:50:17:d1:4d:13:0c:0b:1c:78:33:76:
         9e:71:ae:7f:08:f4:67:05:dc:4c:fb:cc:29:e1:a5:b7:88:3b:
         e5:28:3d:3f:75:4a:4f:66:db:96:5c:22:2b:7e:3c:a1:07:b5:
         e1:d8:03:68:6e:f1:8a:48:50:dd:07:31:58:ea:e6:87:31:59:
         a2:b2:b3:3c:09:ff:2b:aa:df:96:35:f6:45:b0:bd:c6:e1:38:
         3c:7c:3c:bc:81:27:67:e7:61:e2:22:15:ef:9a:29:be:02:59:
         fa:34:ef:38:f1:1e:61:b8:33:0b:4c:33:64:85:3f:70:cc:6b:
         26:b0:8b:01:94:ed:ec:f7:f1:67:41:35:2d:44:11:f6:ed:65:
         93:15:11:fe:2e:e4:d1:a6:c6:29:93:69:b2:e4:6e:88:b9:5d:
         65:81:2f:84:e3:c0:0f:85:9b:67:22:0b:98:68:95:5c:aa:17:
         db:0e:c4:42:3a:73:df:55:c2:67:5f:1f:55:af:b8:fa:6c:6a:
         47:a9:45:4b:23:89:30:78:e0:aa:03:36:ac:88:7f:bc:e9:b8:
         a1:db:e2:ef:af:27:6c:ef:55:96:41:1d:0b:8d:59:98:d1:e9:
         37:f5:8e:df:a0:96:f7:08:ce:47:5e:5e:f8:c2:11:47:6d:b4:
         43:1c:5f:d4:38:3a:86:b2
-----BEGIN CERTIFICATE-----
MIIHSDCCBTCgAwIBAgICAVIwDQYJKoZIhvcNAQEFBQAwgbQxCzAJBgNVBAYTAlVT
MQswCQYDVQQIEwJDQTEVMBMGA1UEBxMMU2FuRnJhbmNpc2NvMRUwEwYDVQQKEwxQ
aXhnbG8sIEluYy4xEDAOBgNVBAsTB1ZQTi1DSUUxGjAYBgNVBAMTEXR1bm5lbC5w
aXhnbG8uY29tMRwwGgYDVQQpExNCYWxhIENoYW5kcmFzZWthcmFuMR4wHAYJKoZI
hvcNAQkBFg9iYWxhQHBpeGdsby5jb20wHhcNMTgwMjE0MDYzMDM3WhcNMjgwMjEy
MDYzMDM3WjCBqTELMAkGA1UEBhMCVVMxCzAJBgNVBAgTAkNBMRUwEwYDVQQHEwxT
YW5GcmFuY2lzY28xFTATBgNVBAoTDFBpeGdsbywgSW5jLjEQMA4GA1UECxMHVlBO
LUNJRTEPMA0GA1UEAxMGY2llMzM3MRwwGgYDVQQpExNCYWxhIENoYW5kcmFzZWth
cmFuMR4wHAYJKoZIhvcNAQkBFg9iYWxhQHBpeGdsby5jb20wggIiMA0GCSqGSIb3
DQEBAQUAA4ICDwAwggIKAoICAQCknSvupyywf7kgMacNFr9ifn79KnvJX+ERQN0M
Chpqul1UVohBbty8gp63lIgAMiKMTB0s1LIonoE5ogNPoSWbEws281M3sjyBuHf1
YRXPckJ8iQKub3TORXyN3RsNBTH4t9ElJfPAxiSREiqEXI22V5Fr/PVFCfn4yg3r
E42rbebEQn8qWGnbu+myKae8B5/WDO6pQEKgLzvZhswd/Y1JgDhYVC3tWzYMeQf4
Pr51FL1qM/hEUJUyZfwmBO7llMnsk5OIb+GD7YHWf9ZKRNH+yvErfHUDRWBLeLP9
oHardnmo0cNaf9mqOVXlaBO4yzx3vCHueZW4IP43sZ4zN8tLk1ICi5yLrbk3CrpR
em6qMNMyJU9OJ9l0vyO6ilyebIIaBUxabJNjaoIBb+7XxwbS87erVCgeiR5X1QdO
Fh5Dqr6GJNSqmph5pXAlAacGH1pjGIZausf1cPSo9o+XzmvJiJzEUJbuhQKqa5Ff
rZo33yFsbKfTEkK1KBoZEJ4vUNMuDGfdEPXMl/LiQwCJLA6ArfzcUJVnAmmIH5fW
jxuaFe1JHaC6aM9WlwYSIYG1q5kyBbNvGM524kyc+CVSoWMqPQrdG+0PUmBa6GHR
XjHRlPZcpvZKQjbzhteWqItTpyTu535x7RXow+2me9A/yazqE1xFEq+Cy+Enc+Hx
g6DiuQIDAQABo4IBazCCAWcwCQYDVR0TBAIwADAtBglghkgBhvhCAQ0EIBYeRWFz
eS1SU0EgR2VuZXJhdGVkIENlcnRpZmljYXRlMB0GA1UdDgQWBBRUsYgSpxr18qaM
XMhgV5zICt+L4jCB6QYDVR0jBIHhMIHegBTvOI0UUFinW02cF3L837msp1GwEKGB
uqSBtzCBtDELMAkGA1UEBhMCVVMxCzAJBgNVBAgTAkNBMRUwEwYDVQQHEwxTYW5G
cmFuY2lzY28xFTATBgNVBAoTDFBpeGdsbywgSW5jLjEQMA4GA1UECxMHVlBOLUNJ
RTEaMBgGA1UEAxMRdHVubmVsLnBpeGdsby5jb20xHDAaBgNVBCkTE0JhbGEgQ2hh
bmRyYXNla2FyYW4xHjAcBgkqhkiG9w0BCQEWD2JhbGFAcGl4Z2xvLmNvbYIJAKbb
xoOA5qB5MBMGA1UdJQQMMAoGCCsGAQUFBwMCMAsGA1UdDwQEAwIHgDANBgkqhkiG
9w0BAQUFAAOCAgEAeV9CicSU10H0FpusBbT5d0kXej692E+sqxR3p3C0aCLSzoiz
/juHXmYt+i5ahd2cdFtdWg3ARpNLDi518aqShh/fqhugt1YosnxWSIdAm50YJn0g
yLuMsOYHkb+V5xn0db5vh7YPnalUjkm4C6YQbL7PekNsEL/dg75ZAikKQZ1E8eXM
7AqCxoVZfjHQvZ7KnUhwXYCCv7PihYuqo1hZZWcsuBvjom7VsIlBWXMidxEIDZHl
/EPxby+AOZT15g09hGzYZtugcLIldEgAX4K/2TmgBVgZIV9jOvyleXqYk+YvTR7G
dDGcXdPG3hJCkRbzkUprCXntlP8H3gLEpnyZMB1MCFAX0U0TDAsceDN2nnGufwj0
ZwXcTPvMKeGlt4g75Sg9P3VKT2bbllwiK348oQe14dgDaG7xikhQ3QcxWOrmhzFZ
orKzPAn/K6rfljX2RbC9xuE4PHw8vIEnZ+dh4iIV75opvgJZ+jTvOPEeYbgzC0wz
ZIU/cMxrJrCLAZTt7PfxZ0E1LUQR9u1lkxUR/i7k0abGKZNpsuRuiLldZYEvhOPA
D4WbZyILmGiVXKoX2w7EQjpz31XCZ18fVa+4+mxqR6lFSyOJMHjgqgM2rIh/vOm4
odvi768nbO9VlkEdC41ZmNHpN/WO36CW9wjOR15e+MIRR220Qxxf1Dg6hrI=
-----END CERTIFICATE-----
