Certificate:
    Data:
        Version: 3 (0x2)
        Serial Number: 339 (0x153)
    Signature Algorithm: sha1WithRSAEncryption
        Issuer: C=US, ST=CA, L=SanFrancisco, O=Pixglo, Inc., OU=VPN-CIE, CN=tunnel.pixglo.com/name=Bala Chandrasekaran/emailAddress=bala@pixglo.com
        Validity
            Not Before: Feb 14 06:30:38 2018 GMT
            Not After : Feb 12 06:30:38 2028 GMT
        Subject: C=US, ST=CA, L=SanFrancisco, O=Pixglo, Inc., OU=VPN-CIE, CN=cie338/name=Bala Chandrasekaran/emailAddress=bala@pixglo.com
        Subject Public Key Info:
            Public Key Algorithm: rsaEncryption
                Public-Key: (4096 bit)
                Modulus:
                    00:ba:21:69:6e:53:a7:5f:22:b0:c3:5a:f8:f9:c1:
                    ad:b3:bf:ac:77:2a:60:0e:73:12:c9:dc:e1:44:c1:
                    e7:cc:cd:10:0d:fe:58:c7:ea:16:c9:3d:0a:f0:4d:
                    95:5a:85:49:46:39:89:dd:d6:22:96:70:f1:19:ab:
                    4d:95:dd:9c:01:6c:32:0a:55:da:72:36:36:03:ed:
                    16:29:bd:01:c5:68:0f:9d:30:9a:f6:c1:ab:a4:bd:
                    db:3a:c8:7c:20:e6:50:ef:63:8d:54:0c:10:94:70:
                    64:3c:4e:d2:d3:5c:f9:a9:2a:d8:a6:d3:d2:8b:80:
                    03:96:92:45:df:cf:44:f4:eb:27:17:f1:9b:19:e1:
                    99:f9:25:e3:7d:9b:49:75:d3:41:73:b1:b9:61:0d:
                    aa:b3:34:39:84:4c:5f:10:4a:fc:d4:35:68:39:d5:
                    58:58:a4:66:a8:09:95:99:6f:28:31:0b:d0:5e:d8:
                    f6:79:ff:19:fe:a1:2d:7d:a8:3f:82:27:98:e1:bd:
                    87:51:97:04:c7:26:0e:b5:ec:f0:10:76:50:ba:1b:
                    74:6d:b8:71:1e:9f:69:e9:ca:4c:d8:5b:de:6f:ab:
                    b7:6e:7b:00:79:64:26:65:de:e4:a2:51:16:1a:72:
                    ff:55:e6:36:29:33:be:52:b0:e5:47:e5:45:5b:29:
                    41:90:5a:99:3e:70:dd:26:81:18:b3:6e:c4:86:56:
                    8f:19:b7:36:93:2f:f1:fd:6b:9f:cb:d7:bb:dd:0f:
                    cc:be:0e:a0:76:0e:80:c5:55:12:a6:13:2d:e2:fe:
                    a2:33:ea:87:1c:e0:92:45:7f:f9:48:49:dd:6a:66:
                    1f:53:23:0c:77:4b:02:46:aa:fd:11:d1:9f:1c:97:
                    3d:c3:99:94:93:34:34:3c:3e:87:ad:51:79:57:bd:
                    c7:42:05:33:0a:9e:1a:ef:2f:1b:6e:e3:e9:e1:5e:
                    40:b0:a5:e0:2e:3f:ba:d1:87:73:99:7d:8a:5b:19:
                    e7:1b:58:7a:15:9f:80:1a:a8:13:01:70:83:01:8c:
                    2d:cf:83:20:df:9d:37:40:68:60:1d:53:54:52:fc:
                    99:20:63:c3:57:07:ef:e0:83:cc:69:b1:25:5d:18:
                    1a:1d:96:e9:e0:ae:ce:48:28:52:24:b1:e2:5d:a5:
                    58:4a:ac:9b:62:4f:e3:bf:9f:8b:c3:47:c0:c4:f6:
                    bf:e5:1b:98:ac:9c:95:7f:07:56:97:a2:c4:a8:13:
                    c2:15:5a:11:fc:cf:29:c8:c5:f2:73:46:30:1d:0a:
                    45:82:4a:23:cd:6d:2a:88:66:84:53:16:04:f0:39:
                    f0:12:bb:87:d5:ce:39:16:c5:cd:b8:b4:04:37:fc:
                    dd:f6:7b
                Exponent: 65537 (0x10001)
        X509v3 extensions:
            X509v3 Basic Constraints: 
                CA:FALSE
            Netscape Comment: 
                Easy-RSA Generated Certificate
            X509v3 Subject Key Identifier: 
                AC:1D:B5:4A:09:3C:F5:F8:5A:DD:F0:8C:EC:18:90:1F:9A:61:5B:F5
            X509v3 Authority Key Identifier: 
                keyid:EF:38:8D:14:50:58:A7:5B:4D:9C:17:72:FC:DF:B9:AC:A7:51:B0:10
                DirName:/C=US/ST=CA/L=SanFrancisco/O=Pixglo, Inc./OU=VPN-CIE/CN=tunnel.pixglo.com/name=Bala Chandrasekaran/emailAddress=bala@pixglo.com
                serial:A6:DB:C6:83:80:E6:A0:79

            X509v3 Extended Key Usage: 
                TLS Web Client Authentication
            X509v3 Key Usage: 
                Digital Signature
    Signature Algorithm: sha1WithRSAEncryption
         b4:1f:22:ad:cd:e3:67:78:7f:e2:ba:70:0b:5b:7d:24:76:e9:
         19:53:1a:f5:75:b2:96:92:8a:e9:c6:46:3f:ef:9b:d2:32:5c:
         5a:b4:c0:f2:b2:10:22:34:70:bd:0f:95:87:22:01:af:18:99:
         68:f5:fc:3e:5f:62:b2:02:6b:dc:92:3f:58:bf:53:49:30:a2:
         70:87:61:97:6e:d0:68:9e:b2:b9:b3:54:93:77:2e:91:4e:69:
         32:04:cc:53:67:da:db:a8:12:03:e6:86:6c:35:b9:a3:bb:6b:
         a2:d2:ff:26:c6:e2:38:a9:62:f3:ed:c6:f9:4d:d0:be:5e:a1:
         8c:26:bb:87:5f:e3:44:83:e7:fb:e9:98:1d:78:33:b1:53:27:
         45:38:e8:3f:cc:35:a1:0d:c5:1e:54:c9:66:4b:64:29:86:91:
         87:b7:89:32:68:f9:0c:d6:3c:89:1f:71:93:89:7a:db:60:57:
         9f:09:c8:6d:4e:f3:b2:01:b3:4a:ea:7f:42:c5:41:9c:7b:be:
         f1:ec:ec:b3:3b:c3:83:8c:9b:85:5b:c9:4b:43:0b:c5:14:23:
         94:98:36:2e:67:09:44:53:b6:2d:38:c4:3a:82:49:66:29:98:
         e2:2f:37:53:72:29:0f:3b:27:12:e7:e6:cc:2d:3b:37:c1:2b:
         34:a6:01:5c:62:30:21:d5:09:28:60:fa:61:80:3f:29:43:22:
         bd:4f:56:e0:9d:17:bf:52:59:f9:10:51:12:fc:56:56:1f:10:
         a6:12:87:1a:04:a8:d2:7a:82:77:69:04:b3:b9:85:a6:47:f9:
         89:95:68:99:19:da:94:18:34:e3:a3:63:ec:ce:6f:59:c4:61:
         2f:9b:97:7f:cb:0c:b3:81:07:49:9e:e3:d9:07:29:b0:b4:2d:
         48:4b:7c:44:4d:f0:fa:66:94:9e:ac:19:52:00:5a:d6:cb:bc:
         a4:23:f2:89:0f:f5:bf:c5:1f:b1:ce:f1:e8:0d:e1:07:b3:67:
         c8:bc:32:c3:33:9b:ba:04:fa:55:d5:da:1d:9e:9a:78:8a:7e:
         f0:c2:ed:b9:7c:88:3f:20:ad:a4:f6:06:df:40:81:a3:81:64:
         26:fb:32:3d:ab:f6:c6:22:a6:30:35:63:32:67:b7:96:e3:74:
         e2:a8:99:78:80:d8:4c:52:b1:bf:b4:0f:4a:b6:34:fb:0e:60:
         b6:49:df:d7:9f:71:19:c8:01:a0:33:31:28:8d:f1:02:d1:7b:
         71:e6:61:e2:ad:80:ea:b2:5a:02:1c:5b:a4:18:8d:95:eb:f9:
         83:8a:cf:2f:63:02:fd:30:f8:46:ae:f5:cf:6e:d4:b9:ae:78:
         33:5c:d6:5f:e8:40:4e:1f
-----BEGIN CERTIFICATE-----
MIIHSDCCBTCgAwIBAgICAVMwDQYJKoZIhvcNAQEFBQAwgbQxCzAJBgNVBAYTAlVT
MQswCQYDVQQIEwJDQTEVMBMGA1UEBxMMU2FuRnJhbmNpc2NvMRUwEwYDVQQKEwxQ
aXhnbG8sIEluYy4xEDAOBgNVBAsTB1ZQTi1DSUUxGjAYBgNVBAMTEXR1bm5lbC5w
aXhnbG8uY29tMRwwGgYDVQQpExNCYWxhIENoYW5kcmFzZWthcmFuMR4wHAYJKoZI
hvcNAQkBFg9iYWxhQHBpeGdsby5jb20wHhcNMTgwMjE0MDYzMDM4WhcNMjgwMjEy
MDYzMDM4WjCBqTELMAkGA1UEBhMCVVMxCzAJBgNVBAgTAkNBMRUwEwYDVQQHEwxT
YW5GcmFuY2lzY28xFTATBgNVBAoTDFBpeGdsbywgSW5jLjEQMA4GA1UECxMHVlBO
LUNJRTEPMA0GA1UEAxMGY2llMzM4MRwwGgYDVQQpExNCYWxhIENoYW5kcmFzZWth
cmFuMR4wHAYJKoZIhvcNAQkBFg9iYWxhQHBpeGdsby5jb20wggIiMA0GCSqGSIb3
DQEBAQUAA4ICDwAwggIKAoICAQC6IWluU6dfIrDDWvj5wa2zv6x3KmAOcxLJ3OFE
wefMzRAN/ljH6hbJPQrwTZVahUlGOYnd1iKWcPEZq02V3ZwBbDIKVdpyNjYD7RYp
vQHFaA+dMJr2waukvds6yHwg5lDvY41UDBCUcGQ8TtLTXPmpKtim09KLgAOWkkXf
z0T06ycX8ZsZ4Zn5JeN9m0l100FzsblhDaqzNDmETF8QSvzUNWg51VhYpGaoCZWZ
bygxC9Be2PZ5/xn+oS19qD+CJ5jhvYdRlwTHJg617PAQdlC6G3RtuHEen2npykzY
W95vq7duewB5ZCZl3uSiURYacv9V5jYpM75SsOVH5UVbKUGQWpk+cN0mgRizbsSG
Vo8ZtzaTL/H9a5/L17vdD8y+DqB2DoDFVRKmEy3i/qIz6occ4JJFf/lISd1qZh9T
Iwx3SwJGqv0R0Z8clz3DmZSTNDQ8PoetUXlXvcdCBTMKnhrvLxtu4+nhXkCwpeAu
P7rRh3OZfYpbGecbWHoVn4AaqBMBcIMBjC3PgyDfnTdAaGAdU1RS/JkgY8NXB+/g
g8xpsSVdGBodlungrs5IKFIkseJdpVhKrJtiT+O/n4vDR8DE9r/lG5isnJV/B1aX
osSoE8IVWhH8zynIxfJzRjAdCkWCSiPNbSqIZoRTFgTwOfASu4fVzjkWxc24tAQ3
/N32ewIDAQABo4IBazCCAWcwCQYDVR0TBAIwADAtBglghkgBhvhCAQ0EIBYeRWFz
eS1SU0EgR2VuZXJhdGVkIENlcnRpZmljYXRlMB0GA1UdDgQWBBSsHbVKCTz1+Frd
8IzsGJAfmmFb9TCB6QYDVR0jBIHhMIHegBTvOI0UUFinW02cF3L837msp1GwEKGB
uqSBtzCBtDELMAkGA1UEBhMCVVMxCzAJBgNVBAgTAkNBMRUwEwYDVQQHEwxTYW5G
cmFuY2lzY28xFTATBgNVBAoTDFBpeGdsbywgSW5jLjEQMA4GA1UECxMHVlBOLUNJ
RTEaMBgGA1UEAxMRdHVubmVsLnBpeGdsby5jb20xHDAaBgNVBCkTE0JhbGEgQ2hh
bmRyYXNla2FyYW4xHjAcBgkqhkiG9w0BCQEWD2JhbGFAcGl4Z2xvLmNvbYIJAKbb
xoOA5qB5MBMGA1UdJQQMMAoGCCsGAQUFBwMCMAsGA1UdDwQEAwIHgDANBgkqhkiG
9w0BAQUFAAOCAgEAtB8irc3jZ3h/4rpwC1t9JHbpGVMa9XWylpKK6cZGP++b0jJc
WrTA8rIQIjRwvQ+VhyIBrxiZaPX8Pl9isgJr3JI/WL9TSTCicIdhl27QaJ6yubNU
k3cukU5pMgTMU2fa26gSA+aGbDW5o7trotL/JsbiOKli8+3G+U3Qvl6hjCa7h1/j
RIPn++mYHXgzsVMnRTjoP8w1oQ3FHlTJZktkKYaRh7eJMmj5DNY8iR9xk4l622BX
nwnIbU7zsgGzSup/QsVBnHu+8ezsszvDg4ybhVvJS0MLxRQjlJg2LmcJRFO2LTjE
OoJJZimY4i83U3IpDzsnEufmzC07N8ErNKYBXGIwIdUJKGD6YYA/KUMivU9W4J0X
v1JZ+RBREvxWVh8QphKHGgSo0nqCd2kEs7mFpkf5iZVomRnalBg046Nj7M5vWcRh
L5uXf8sMs4EHSZ7j2QcpsLQtSEt8RE3w+maUnqwZUgBa1su8pCPyiQ/1v8Ufsc7x
6A3hB7NnyLwywzObugT6VdXaHZ6aeIp+8MLtuXyIPyCtpPYG30CBo4FkJvsyPav2
xiKmMDVjMme3luN04qiZeIDYTFKxv7QPSrY0+w5gtknf159xGcgBoDMxKI3xAtF7
ceZh4q2A6rJaAhxbpBiNlev5g4rPL2MC/TD4Rq71z27Uua54M1zWX+hATh8=
-----END CERTIFICATE-----
