Certificate:
    Data:
        Version: 3 (0x2)
        Serial Number: 341 (0x155)
    Signature Algorithm: sha1WithRSAEncryption
        Issuer: C=US, ST=CA, L=SanFrancisco, O=Pixglo, Inc., OU=VPN-CIE, CN=tunnel.pixglo.com/name=Bala Chandrasekaran/emailAddress=bala@pixglo.com
        Validity
            Not Before: Feb 14 06:30:42 2018 GMT
            Not After : Feb 12 06:30:42 2028 GMT
        Subject: C=US, ST=CA, L=SanFrancisco, O=Pixglo, Inc., OU=VPN-CIE, CN=cie340/name=Bala Chandrasekaran/emailAddress=bala@pixglo.com
        Subject Public Key Info:
            Public Key Algorithm: rsaEncryption
                Public-Key: (4096 bit)
                Modulus:
                    00:bd:ce:a1:e4:7e:4a:35:b8:b9:c4:e4:7f:fc:f4:
                    1f:8b:47:29:67:5e:dc:94:84:39:22:09:1b:35:35:
                    74:fb:40:1f:0a:bf:a2:af:d9:80:08:61:02:37:8c:
                    8f:d6:5a:13:7c:f9:5a:4e:db:65:1e:60:79:0a:b1:
                    04:48:06:70:8e:8a:63:c9:31:2d:b5:c3:51:af:c9:
                    64:75:14:8d:dd:12:e0:4c:ba:1c:e1:ca:c7:33:da:
                    bb:3d:af:a4:03:cb:58:9a:1e:ed:49:ce:e8:99:cf:
                    e3:82:16:41:94:e1:70:52:f5:97:d9:c0:0a:d8:39:
                    e3:16:57:6f:b9:5f:87:d5:27:2f:71:35:12:13:89:
                    16:b8:e2:15:4b:88:c8:0a:18:6e:55:0a:66:49:99:
                    41:05:4f:e5:81:4d:a4:f6:ab:ed:c5:23:90:a8:f4:
                    62:72:f8:c1:48:84:5e:3b:0b:5e:da:0a:2e:45:69:
                    c8:2d:3b:99:09:3d:95:d1:04:02:31:94:ba:76:10:
                    8a:ba:8a:c7:ec:35:0b:37:89:1f:50:25:7d:56:2c:
                    f3:e4:41:71:52:b6:6b:cf:3e:7f:c7:5d:f4:95:8c:
                    42:d3:79:a2:0f:c2:cc:17:8f:15:02:73:89:03:ae:
                    c8:9e:23:87:f3:8d:86:d6:96:18:ca:d5:a5:8a:03:
                    c2:f9:e9:c5:46:3e:7d:ab:cb:44:fb:6e:b1:c3:ac:
                    97:c6:30:60:ea:91:a0:25:b6:31:00:a1:fa:63:10:
                    78:46:cf:23:5b:af:b8:e3:39:dd:18:17:8c:83:30:
                    50:08:fa:71:63:43:ad:e4:ed:96:a8:e7:2c:cd:c1:
                    65:d2:21:e7:79:7e:29:08:4d:e5:e6:30:28:85:31:
                    c3:b3:28:e4:03:77:e4:12:ee:75:65:62:d2:da:79:
                    b9:e6:48:2f:79:ac:27:c1:15:0e:61:df:42:27:db:
                    c0:85:d7:30:7b:84:11:bb:c3:41:85:21:52:21:4f:
                    a3:f0:96:7d:a4:ea:d4:0b:8c:9b:a5:27:31:f6:25:
                    00:62:2c:12:f0:65:77:82:84:98:53:c8:40:5a:0d:
                    39:d6:1f:9f:5f:37:8a:eb:61:10:ba:ae:86:0b:16:
                    c4:6e:dc:92:2d:99:03:80:d1:6a:08:45:44:c0:f7:
                    e9:bb:bd:1d:e4:92:d8:db:83:fc:97:93:5e:a4:1b:
                    65:4c:1a:3e:27:f2:0c:a9:2d:ff:b3:2c:6c:0d:5d:
                    3f:06:be:e0:62:00:30:f5:e5:c2:58:f4:79:49:1d:
                    1b:84:93:fb:5c:23:4d:04:0f:91:e7:a1:f0:43:4d:
                    52:f1:b7:76:ec:f7:75:e4:14:74:e7:7a:cd:e0:67:
                    93:a1:b9
                Exponent: 65537 (0x10001)
        X509v3 extensions:
            X509v3 Basic Constraints: 
                CA:FALSE
            Netscape Comment: 
                Easy-RSA Generated Certificate
            X509v3 Subject Key Identifier: 
                16:BE:EB:4E:B3:96:54:3D:4F:B1:92:6E:9D:16:17:39:C1:C2:BC:72
            X509v3 Authority Key Identifier: 
                keyid:EF:38:8D:14:50:58:A7:5B:4D:9C:17:72:FC:DF:B9:AC:A7:51:B0:10
                DirName:/C=US/ST=CA/L=SanFrancisco/O=Pixglo, Inc./OU=VPN-CIE/CN=tunnel.pixglo.com/name=Bala Chandrasekaran/emailAddress=bala@pixglo.com
                serial:A6:DB:C6:83:80:E6:A0:79

            X509v3 Extended Key Usage: 
                TLS Web Client Authentication
            X509v3 Key Usage: 
                Digital Signature
    Signature Algorithm: sha1WithRSAEncryption
         1f:62:2d:d3:0f:09:f0:f9:43:5a:18:d4:15:7c:c5:21:37:e2:
         ef:25:9c:95:ef:97:83:80:74:d8:4f:33:5f:6d:9f:b2:32:39:
         d5:2c:39:9d:e0:26:23:41:7c:36:b8:d8:5b:ab:7d:dc:70:52:
         34:72:9b:ac:50:6f:aa:e8:20:a9:f6:83:7d:8c:c1:b2:80:3c:
         15:e6:8f:05:86:8d:15:ff:a0:7d:37:b3:ed:03:62:7b:a0:22:
         df:9f:f1:fd:a3:85:54:b8:ac:b7:d8:f9:19:71:ed:16:96:0a:
         e5:98:f9:ab:ca:17:01:df:cc:45:44:9b:ac:5c:70:86:4e:f3:
         b8:5b:1f:6f:3f:2b:bb:87:43:51:e6:81:eb:8c:1c:d9:79:bc:
         7b:d9:ad:96:aa:c8:10:ce:7a:03:b8:71:68:e9:9b:b7:73:ce:
         56:9d:dc:06:bf:06:21:45:ba:b2:5e:4e:c5:b4:a2:b2:3a:0d:
         cc:5d:e3:5e:51:f2:c0:75:21:86:a7:aa:6c:c7:8c:61:2b:2c:
         2e:47:c4:e1:b2:6c:01:7a:14:1c:61:25:4d:3e:3f:ff:69:59:
         97:35:af:18:14:32:b9:02:a1:fd:9c:df:90:b3:6a:05:40:79:
         fb:39:f6:cd:ee:3e:d8:97:22:eb:c3:69:3c:72:13:80:d3:fb:
         76:93:a2:68:ce:7b:cb:d5:cc:26:72:8c:23:5c:68:b8:59:23:
         8c:7b:e0:66:4d:3c:94:36:fa:6c:66:4a:e6:42:07:f4:eb:7e:
         56:6b:c7:10:0d:e9:5b:99:a6:17:ae:1d:f6:8d:6a:46:44:13:
         0c:cf:4b:d9:d0:ca:29:f2:e5:8c:d8:ce:ef:89:6a:9c:f7:23:
         24:c0:86:d9:b2:77:88:f1:76:06:88:56:10:dd:78:4a:75:04:
         b4:7c:f9:3e:9c:35:7c:77:51:38:51:d1:a1:c9:86:aa:40:9d:
         97:14:f5:67:d1:f8:7a:7e:c4:bb:6c:27:68:1e:51:9f:5e:18:
         63:62:43:00:e4:22:b5:c1:f9:0a:9e:57:8f:98:ce:f7:65:bb:
         ca:b0:24:dd:f0:ac:ae:2f:d3:74:f1:22:b8:e0:e4:95:f5:41:
         23:e7:62:44:07:d4:11:57:75:db:2e:50:2f:46:23:20:e7:c7:
         dd:21:66:33:8f:13:a2:48:8a:4c:01:7e:76:0d:4a:ea:07:8c:
         5a:e9:19:b1:e4:ce:82:e3:7a:32:e3:b6:15:40:27:eb:22:fc:
         a0:ef:c7:e6:39:e9:c2:5f:69:3d:1a:a2:ce:50:00:7a:ee:50:
         7c:6a:62:3e:6f:29:81:28:61:f2:4c:36:2d:72:e1:a9:ed:bc:
         af:0c:87:77:10:55:aa:8e
-----BEGIN CERTIFICATE-----
MIIHSDCCBTCgAwIBAgICAVUwDQYJKoZIhvcNAQEFBQAwgbQxCzAJBgNVBAYTAlVT
MQswCQYDVQQIEwJDQTEVMBMGA1UEBxMMU2FuRnJhbmNpc2NvMRUwEwYDVQQKEwxQ
aXhnbG8sIEluYy4xEDAOBgNVBAsTB1ZQTi1DSUUxGjAYBgNVBAMTEXR1bm5lbC5w
aXhnbG8uY29tMRwwGgYDVQQpExNCYWxhIENoYW5kcmFzZWthcmFuMR4wHAYJKoZI
hvcNAQkBFg9iYWxhQHBpeGdsby5jb20wHhcNMTgwMjE0MDYzMDQyWhcNMjgwMjEy
MDYzMDQyWjCBqTELMAkGA1UEBhMCVVMxCzAJBgNVBAgTAkNBMRUwEwYDVQQHEwxT
YW5GcmFuY2lzY28xFTATBgNVBAoTDFBpeGdsbywgSW5jLjEQMA4GA1UECxMHVlBO
LUNJRTEPMA0GA1UEAxMGY2llMzQwMRwwGgYDVQQpExNCYWxhIENoYW5kcmFzZWth
cmFuMR4wHAYJKoZIhvcNAQkBFg9iYWxhQHBpeGdsby5jb20wggIiMA0GCSqGSIb3
DQEBAQUAA4ICDwAwggIKAoICAQC9zqHkfko1uLnE5H/89B+LRylnXtyUhDkiCRs1
NXT7QB8Kv6Kv2YAIYQI3jI/WWhN8+VpO22UeYHkKsQRIBnCOimPJMS21w1GvyWR1
FI3dEuBMuhzhyscz2rs9r6QDy1iaHu1JzuiZz+OCFkGU4XBS9ZfZwArYOeMWV2+5
X4fVJy9xNRITiRa44hVLiMgKGG5VCmZJmUEFT+WBTaT2q+3FI5Co9GJy+MFIhF47
C17aCi5FacgtO5kJPZXRBAIxlLp2EIq6isfsNQs3iR9QJX1WLPPkQXFStmvPPn/H
XfSVjELTeaIPwswXjxUCc4kDrsieI4fzjYbWlhjK1aWKA8L56cVGPn2ry0T7brHD
rJfGMGDqkaAltjEAofpjEHhGzyNbr7jjOd0YF4yDMFAI+nFjQ63k7Zao5yzNwWXS
Ied5fikITeXmMCiFMcOzKOQDd+QS7nVlYtLaebnmSC95rCfBFQ5h30In28CF1zB7
hBG7w0GFIVIhT6Pwln2k6tQLjJulJzH2JQBiLBLwZXeChJhTyEBaDTnWH59fN4rr
YRC6roYLFsRu3JItmQOA0WoIRUTA9+m7vR3kktjbg/yXk16kG2VMGj4n8gypLf+z
LGwNXT8GvuBiADD15cJY9HlJHRuEk/tcI00ED5HnofBDTVLxt3bs93XkFHTnes3g
Z5OhuQIDAQABo4IBazCCAWcwCQYDVR0TBAIwADAtBglghkgBhvhCAQ0EIBYeRWFz
eS1SU0EgR2VuZXJhdGVkIENlcnRpZmljYXRlMB0GA1UdDgQWBBQWvutOs5ZUPU+x
km6dFhc5wcK8cjCB6QYDVR0jBIHhMIHegBTvOI0UUFinW02cF3L837msp1GwEKGB
uqSBtzCBtDELMAkGA1UEBhMCVVMxCzAJBgNVBAgTAkNBMRUwEwYDVQQHEwxTYW5G
cmFuY2lzY28xFTATBgNVBAoTDFBpeGdsbywgSW5jLjEQMA4GA1UECxMHVlBOLUNJ
RTEaMBgGA1UEAxMRdHVubmVsLnBpeGdsby5jb20xHDAaBgNVBCkTE0JhbGEgQ2hh
bmRyYXNla2FyYW4xHjAcBgkqhkiG9w0BCQEWD2JhbGFAcGl4Z2xvLmNvbYIJAKbb
xoOA5qB5MBMGA1UdJQQMMAoGCCsGAQUFBwMCMAsGA1UdDwQEAwIHgDANBgkqhkiG
9w0BAQUFAAOCAgEAH2It0w8J8PlDWhjUFXzFITfi7yWcle+Xg4B02E8zX22fsjI5
1Sw5neAmI0F8NrjYW6t93HBSNHKbrFBvquggqfaDfYzBsoA8FeaPBYaNFf+gfTez
7QNie6Ai35/x/aOFVList9j5GXHtFpYK5Zj5q8oXAd/MRUSbrFxwhk7zuFsfbz8r
u4dDUeaB64wc2Xm8e9mtlqrIEM56A7hxaOmbt3POVp3cBr8GIUW6sl5OxbSisjoN
zF3jXlHywHUhhqeqbMeMYSssLkfE4bJsAXoUHGElTT4//2lZlzWvGBQyuQKh/Zzf
kLNqBUB5+zn2ze4+2Jci68NpPHITgNP7dpOiaM57y9XMJnKMI1xouFkjjHvgZk08
lDb6bGZK5kIH9Ot+VmvHEA3pW5mmF64d9o1qRkQTDM9L2dDKKfLljNjO74lqnPcj
JMCG2bJ3iPF2BohWEN14SnUEtHz5Ppw1fHdROFHRocmGqkCdlxT1Z9H4en7Eu2wn
aB5Rn14YY2JDAOQitcH5Cp5Xj5jO92W7yrAk3fCsri/TdPEiuODklfVBI+diRAfU
EVd12y5QL0YjIOfH3SFmM48TokiKTAF+dg1K6geMWukZseTOguN6MuO2FUAn6yL8
oO/H5jnpwl9pPRqizlAAeu5QfGpiPm8pgShh8kw2LXLhqe28rwyHdxBVqo4=
-----END CERTIFICATE-----
