Certificate:
    Data:
        Version: 3 (0x2)
        Serial Number: 342 (0x156)
    Signature Algorithm: sha1WithRSAEncryption
        Issuer: C=US, ST=CA, L=SanFrancisco, O=Pixglo, Inc., OU=VPN-CIE, CN=tunnel.pixglo.com/name=Bala Chandrasekaran/emailAddress=bala@pixglo.com
        Validity
            Not Before: Feb 14 06:30:44 2018 GMT
            Not After : Feb 12 06:30:44 2028 GMT
        Subject: C=US, ST=CA, L=SanFrancisco, O=Pixglo, Inc., OU=VPN-CIE, CN=cie341/name=Bala Chandrasekaran/emailAddress=bala@pixglo.com
        Subject Public Key Info:
            Public Key Algorithm: rsaEncryption
                Public-Key: (4096 bit)
                Modulus:
                    00:b2:73:55:61:c1:54:9b:1a:a0:9b:f7:29:42:6c:
                    eb:67:c8:ed:72:ca:5d:21:0f:64:e5:9f:4a:cd:26:
                    3d:bc:80:49:32:5e:78:6b:a2:84:b9:5e:04:52:bc:
                    fb:c5:a1:e2:9b:11:58:4e:f9:23:cf:e5:86:16:76:
                    66:e0:56:31:a9:ef:dd:45:5a:6f:bb:3d:52:03:fd:
                    c1:93:3d:24:ad:b8:cb:90:66:a3:aa:c6:e2:b6:54:
                    92:37:db:43:9f:ed:ee:03:2a:e8:db:ff:ea:f3:8b:
                    41:a0:e3:df:3d:83:f7:7d:0c:ae:ef:09:27:07:9d:
                    f5:9e:21:5c:54:b8:b5:7a:3a:07:d5:6c:85:7f:20:
                    85:7a:f0:92:29:bc:37:b9:3c:2c:a8:da:4e:c8:48:
                    88:34:7c:b2:c4:3b:08:f6:30:f6:4d:37:28:fe:58:
                    8e:d4:61:6e:34:5b:96:2a:19:53:47:ab:5a:20:35:
                    4c:8a:83:0e:52:f4:73:09:df:1d:09:7d:de:8a:db:
                    51:61:09:7d:8f:e7:ef:57:8d:bf:b7:af:ef:a9:c4:
                    64:11:91:29:39:e6:64:b8:3e:1e:0a:1d:33:89:33:
                    11:ea:aa:b1:b6:d9:4d:77:1c:b3:8c:75:42:7a:03:
                    0c:5d:5a:08:01:e7:af:7a:ee:af:80:0c:de:34:37:
                    0f:63:c9:f2:60:de:6f:b8:5b:04:07:c4:a6:8c:79:
                    57:b5:4f:b6:19:56:d8:58:b6:3a:d7:5f:e8:ee:a3:
                    cb:3e:fc:f4:44:f6:fb:f0:b3:7a:b4:16:5f:6d:2f:
                    da:b0:08:36:9f:3d:8c:58:11:17:ba:f0:af:a2:62:
                    6b:e5:2f:5e:33:74:24:f0:a8:ff:d5:25:c6:e0:41:
                    b9:6e:c7:bc:16:7c:0c:10:3d:42:98:0e:ba:80:6e:
                    e8:2a:2d:5f:e6:84:a4:22:b7:c7:e4:f3:04:fc:0d:
                    2f:3c:75:e7:b3:da:2b:4e:8b:b4:1c:3b:a9:62:5a:
                    83:d1:f0:f4:88:74:9b:dd:9f:4d:86:92:cd:13:e2:
                    0c:52:fb:04:43:1e:ad:b3:a6:c8:15:fc:70:ef:3f:
                    d2:61:3d:fa:10:78:89:b3:a4:70:dd:d2:ef:47:47:
                    ec:ba:22:61:08:7f:50:fd:fc:00:74:89:9e:10:94:
                    8b:d7:56:67:55:3f:ec:c3:04:3d:cc:7d:9f:0d:77:
                    13:42:a9:2a:c7:c4:d5:00:37:fc:1c:c3:6d:08:86:
                    3f:80:a0:b4:c2:c0:05:fe:05:3f:9f:52:34:ad:35:
                    30:df:29:a3:20:18:1b:c8:72:6b:51:c9:a1:57:f5:
                    23:3c:a8:8b:b7:ef:9d:8d:a9:be:88:ca:79:d2:ad:
                    40:14:89
                Exponent: 65537 (0x10001)
        X509v3 extensions:
            X509v3 Basic Constraints: 
                CA:FALSE
            Netscape Comment: 
                Easy-RSA Generated Certificate
            X509v3 Subject Key Identifier: 
                3B:59:7E:AF:58:64:A6:65:6A:EA:A2:F1:A0:0B:6A:1E:04:CA:4C:24
            X509v3 Authority Key Identifier: 
                keyid:EF:38:8D:14:50:58:A7:5B:4D:9C:17:72:FC:DF:B9:AC:A7:51:B0:10
                DirName:/C=US/ST=CA/L=SanFrancisco/O=Pixglo, Inc./OU=VPN-CIE/CN=tunnel.pixglo.com/name=Bala Chandrasekaran/emailAddress=bala@pixglo.com
                serial:A6:DB:C6:83:80:E6:A0:79

            X509v3 Extended Key Usage: 
                TLS Web Client Authentication
            X509v3 Key Usage: 
                Digital Signature
    Signature Algorithm: sha1WithRSAEncryption
         94:34:33:84:74:28:11:02:e2:5a:4d:53:10:28:63:7e:96:7f:
         6f:93:ac:1b:56:1b:ec:11:bd:0f:7e:ac:56:d8:1e:8d:dd:d3:
         f6:fc:9f:ad:f1:7b:09:12:92:63:e6:8f:35:ef:3f:fb:65:1f:
         8f:20:d1:65:da:c5:a9:03:ff:b2:68:87:e6:ea:cb:4f:e1:96:
         15:c3:14:39:f2:fe:0f:6e:5d:55:c6:c9:56:ba:80:ee:d1:24:
         0c:81:55:72:4d:03:80:f5:9a:aa:61:29:ec:16:1a:72:e9:8c:
         84:84:a9:86:7a:a0:bd:ab:54:99:d3:01:2b:04:3d:6b:96:e5:
         fa:f0:a3:bb:21:ae:04:95:68:18:29:cc:dd:8f:63:a8:74:71:
         2d:0b:58:5a:53:b6:b2:79:6b:ef:83:e6:c3:21:3f:aa:bd:1d:
         70:99:9f:7c:db:a1:9d:4f:85:5f:18:e8:ff:e1:be:50:91:8a:
         2e:86:35:c7:fb:c7:a7:60:64:73:ef:e5:e3:17:44:7b:5b:85:
         d4:21:da:50:22:87:0a:8d:b6:4f:d8:38:c5:54:91:ff:59:b2:
         46:16:c4:2b:91:c5:d5:89:82:13:bb:67:3b:8e:70:45:7a:ef:
         2f:e4:56:0c:69:ee:a3:a1:16:f9:7a:c2:ca:46:5b:9b:61:9d:
         af:38:ec:0d:5e:de:44:ca:16:19:19:f5:3c:96:53:60:6e:9e:
         c9:36:dd:fe:54:00:cb:c1:70:32:a0:e6:d5:08:29:19:71:8b:
         ec:40:69:b9:c2:14:a2:03:aa:8c:30:c6:c6:96:94:6a:8f:10:
         a2:b1:3d:c5:99:8a:24:73:60:08:89:ab:b0:f6:bd:9f:33:c7:
         8e:8c:97:b0:fd:0a:f5:9d:0a:f4:71:05:4e:1b:72:9e:39:33:
         a1:e3:ee:20:4d:c8:b2:43:46:9b:46:2c:21:7d:4b:f6:4b:ec:
         8d:1f:2d:a7:d2:0b:87:cf:0c:fc:eb:df:0b:5b:00:0c:8c:61:
         0d:3b:f2:e2:a2:e1:60:29:7b:2a:d2:69:16:a9:ea:82:be:a0:
         35:3c:0a:25:f9:b6:f6:c3:30:68:0a:21:29:09:58:08:6e:f4:
         5d:a2:21:ca:9b:9a:45:72:77:2d:dc:b0:d7:93:ea:bc:b5:64:
         4a:09:a4:89:7a:79:c0:f1:7d:21:d3:86:60:d4:63:2f:3a:8b:
         da:37:5e:dc:5f:53:ff:b0:00:95:a7:85:5a:ba:21:f8:92:d4:
         9c:25:93:9f:db:5b:3c:8c:b8:d0:ad:70:b5:f3:09:6a:6f:97:
         ab:6e:b0:bd:90:10:dd:72:c7:44:0b:0d:81:00:b7:78:7d:bc:
         fd:8f:26:3a:50:41:01:1a
-----BEGIN CERTIFICATE-----
MIIHSDCCBTCgAwIBAgICAVYwDQYJKoZIhvcNAQEFBQAwgbQxCzAJBgNVBAYTAlVT
MQswCQYDVQQIEwJDQTEVMBMGA1UEBxMMU2FuRnJhbmNpc2NvMRUwEwYDVQQKEwxQ
aXhnbG8sIEluYy4xEDAOBgNVBAsTB1ZQTi1DSUUxGjAYBgNVBAMTEXR1bm5lbC5w
aXhnbG8uY29tMRwwGgYDVQQpExNCYWxhIENoYW5kcmFzZWthcmFuMR4wHAYJKoZI
hvcNAQkBFg9iYWxhQHBpeGdsby5jb20wHhcNMTgwMjE0MDYzMDQ0WhcNMjgwMjEy
MDYzMDQ0WjCBqTELMAkGA1UEBhMCVVMxCzAJBgNVBAgTAkNBMRUwEwYDVQQHEwxT
YW5GcmFuY2lzY28xFTATBgNVBAoTDFBpeGdsbywgSW5jLjEQMA4GA1UECxMHVlBO
LUNJRTEPMA0GA1UEAxMGY2llMzQxMRwwGgYDVQQpExNCYWxhIENoYW5kcmFzZWth
cmFuMR4wHAYJKoZIhvcNAQkBFg9iYWxhQHBpeGdsby5jb20wggIiMA0GCSqGSIb3
DQEBAQUAA4ICDwAwggIKAoICAQCyc1VhwVSbGqCb9ylCbOtnyO1yyl0hD2Tln0rN
Jj28gEkyXnhrooS5XgRSvPvFoeKbEVhO+SPP5YYWdmbgVjGp791FWm+7PVID/cGT
PSStuMuQZqOqxuK2VJI320Of7e4DKujb/+rzi0Gg4989g/d9DK7vCScHnfWeIVxU
uLV6OgfVbIV/IIV68JIpvDe5PCyo2k7ISIg0fLLEOwj2MPZNNyj+WI7UYW40W5Yq
GVNHq1ogNUyKgw5S9HMJ3x0Jfd6K21FhCX2P5+9Xjb+3r++pxGQRkSk55mS4Ph4K
HTOJMxHqqrG22U13HLOMdUJ6AwxdWggB56967q+ADN40Nw9jyfJg3m+4WwQHxKaM
eVe1T7YZVthYtjrXX+juo8s+/PRE9vvws3q0Fl9tL9qwCDafPYxYERe68K+iYmvl
L14zdCTwqP/VJcbgQblux7wWfAwQPUKYDrqAbugqLV/mhKQit8fk8wT8DS88deez
2itOi7QcO6liWoPR8PSIdJvdn02Gks0T4gxS+wRDHq2zpsgV/HDvP9JhPfoQeImz
pHDd0u9HR+y6ImEIf1D9/AB0iZ4QlIvXVmdVP+zDBD3MfZ8NdxNCqSrHxNUAN/wc
w20Ihj+AoLTCwAX+BT+fUjStNTDfKaMgGBvIcmtRyaFX9SM8qIu3752Nqb6IynnS
rUAUiQIDAQABo4IBazCCAWcwCQYDVR0TBAIwADAtBglghkgBhvhCAQ0EIBYeRWFz
eS1SU0EgR2VuZXJhdGVkIENlcnRpZmljYXRlMB0GA1UdDgQWBBQ7WX6vWGSmZWrq
ovGgC2oeBMpMJDCB6QYDVR0jBIHhMIHegBTvOI0UUFinW02cF3L837msp1GwEKGB
uqSBtzCBtDELMAkGA1UEBhMCVVMxCzAJBgNVBAgTAkNBMRUwEwYDVQQHEwxTYW5G
cmFuY2lzY28xFTATBgNVBAoTDFBpeGdsbywgSW5jLjEQMA4GA1UECxMHVlBOLUNJ
RTEaMBgGA1UEAxMRdHVubmVsLnBpeGdsby5jb20xHDAaBgNVBCkTE0JhbGEgQ2hh
bmRyYXNla2FyYW4xHjAcBgkqhkiG9w0BCQEWD2JhbGFAcGl4Z2xvLmNvbYIJAKbb
xoOA5qB5MBMGA1UdJQQMMAoGCCsGAQUFBwMCMAsGA1UdDwQEAwIHgDANBgkqhkiG
9w0BAQUFAAOCAgEAlDQzhHQoEQLiWk1TEChjfpZ/b5OsG1Yb7BG9D36sVtgejd3T
9vyfrfF7CRKSY+aPNe8/+2UfjyDRZdrFqQP/smiH5urLT+GWFcMUOfL+D25dVcbJ
VrqA7tEkDIFVck0DgPWaqmEp7BYacumMhISphnqgvatUmdMBKwQ9a5bl+vCjuyGu
BJVoGCnM3Y9jqHRxLQtYWlO2snlr74PmwyE/qr0dcJmffNuhnU+FXxjo/+G+UJGK
LoY1x/vHp2Bkc+/l4xdEe1uF1CHaUCKHCo22T9g4xVSR/1myRhbEK5HF1YmCE7tn
O45wRXrvL+RWDGnuo6EW+XrCykZbm2GdrzjsDV7eRMoWGRn1PJZTYG6eyTbd/lQA
y8FwMqDm1QgpGXGL7EBpucIUogOqjDDGxpaUao8QorE9xZmKJHNgCImrsPa9nzPH
joyXsP0K9Z0K9HEFThtynjkzoePuIE3IskNGm0YsIX1L9kvsjR8tp9ILh88M/Ovf
C1sADIxhDTvy4qLhYCl7KtJpFqnqgr6gNTwKJfm29sMwaAohKQlYCG70XaIhypua
RXJ3Ldyw15PqvLVkSgmkiXp5wPF9IdOGYNRjLzqL2jde3F9T/7AAlaeFWroh+JLU
nCWTn9tbPIy40K1wtfMJam+Xq26wvZAQ3XLHRAsNgQC3eH28/Y8mOlBBARo=
-----END CERTIFICATE-----
