Certificate:
    Data:
        Version: 3 (0x2)
        Serial Number: 344 (0x158)
    Signature Algorithm: sha1WithRSAEncryption
        Issuer: C=US, ST=CA, L=SanFrancisco, O=Pixglo, Inc., OU=VPN-CIE, CN=tunnel.pixglo.com/name=Bala Chandrasekaran/emailAddress=bala@pixglo.com
        Validity
            Not Before: Feb 14 06:30:47 2018 GMT
            Not After : Feb 12 06:30:47 2028 GMT
        Subject: C=US, ST=CA, L=SanFrancisco, O=Pixglo, Inc., OU=VPN-CIE, CN=cie343/name=Bala Chandrasekaran/emailAddress=bala@pixglo.com
        Subject Public Key Info:
            Public Key Algorithm: rsaEncryption
                Public-Key: (4096 bit)
                Modulus:
                    00:a9:7b:52:19:07:33:3d:cc:1d:bf:45:f2:b3:f9:
                    3d:54:b6:b9:be:94:dd:91:a2:bb:ca:b0:52:c7:c4:
                    a6:31:e8:db:5a:b0:ba:e4:81:5a:d2:ae:ff:7e:e5:
                    2c:fd:09:fd:6b:17:89:b2:59:49:91:1b:6b:c1:ce:
                    e2:82:f5:3c:47:5a:3c:a7:71:db:82:df:2f:03:c9:
                    a6:91:7d:2a:a5:13:6c:1a:3d:14:33:ae:08:5a:ab:
                    7c:18:ca:39:e1:d8:1a:c7:78:9c:9d:42:7f:90:10:
                    ff:08:94:8d:33:de:d3:61:24:6b:9b:37:fe:f8:36:
                    7a:f2:bc:ed:bc:f7:8b:01:93:bb:7d:ba:95:7b:19:
                    8c:5d:83:d3:a0:c7:09:a7:b5:11:11:ad:25:d2:cb:
                    89:f1:02:f0:27:49:aa:23:5b:7d:66:17:da:b9:8e:
                    0b:0f:7c:c4:8e:3a:18:ee:3b:34:64:24:ce:48:f0:
                    40:1e:b3:d6:49:a2:fc:ba:91:f9:dd:cb:c9:81:74:
                    2d:85:a7:6b:c4:76:fa:83:b6:72:cd:ae:44:7c:f8:
                    21:1a:bb:ec:93:35:64:6f:a3:eb:db:d0:6c:b3:89:
                    7e:fc:8b:8a:52:01:5e:43:3a:8f:c5:a3:c0:ff:9a:
                    99:fa:b6:b2:93:ce:88:8d:35:d5:29:24:22:ba:5e:
                    25:41:08:5a:6a:05:9a:24:8f:35:39:fd:f0:20:0a:
                    59:2d:c7:22:78:0e:21:5c:9c:17:0b:af:c3:fa:4e:
                    4b:67:71:f9:74:4e:01:41:91:c8:6a:e9:56:af:83:
                    23:45:e7:b7:5d:60:32:0f:65:00:a4:5f:51:6c:a8:
                    fb:f8:5a:9f:d9:77:f1:b8:23:e0:63:49:5b:77:ee:
                    42:fb:39:31:c7:3b:b1:d5:9d:49:5d:5e:c9:08:af:
                    b0:f7:65:7e:df:82:00:7e:14:29:42:7d:9d:81:42:
                    57:50:60:91:9e:d3:35:d9:b5:00:35:6f:d3:a4:af:
                    3c:b5:1e:19:a9:46:15:50:21:67:28:4a:af:f0:17:
                    20:c9:d3:db:60:02:aa:5e:7f:4b:23:2a:e8:ff:2f:
                    52:03:ed:32:ec:42:3a:53:b1:a9:eb:1d:55:17:60:
                    05:63:bb:1c:02:e2:69:9a:a3:e5:c8:f0:fe:87:90:
                    b8:6e:41:2b:d2:e1:30:68:e1:43:36:b8:aa:29:0e:
                    06:f8:2a:3b:21:44:04:24:d0:7c:09:4a:6f:b9:08:
                    e1:d1:fa:fa:b1:20:9f:5b:3a:0f:dc:98:ec:11:b0:
                    a5:2c:11:40:cd:1f:25:a1:7d:b9:14:a1:2a:2c:d3:
                    8c:10:d4:f9:00:9b:79:c5:eb:fc:b8:7a:4e:0d:35:
                    ac:69:59
                Exponent: 65537 (0x10001)
        X509v3 extensions:
            X509v3 Basic Constraints: 
                CA:FALSE
            Netscape Comment: 
                Easy-RSA Generated Certificate
            X509v3 Subject Key Identifier: 
                80:76:65:B3:64:F9:D8:C0:5C:D7:76:26:BC:9D:4D:2B:EB:31:4A:13
            X509v3 Authority Key Identifier: 
                keyid:EF:38:8D:14:50:58:A7:5B:4D:9C:17:72:FC:DF:B9:AC:A7:51:B0:10
                DirName:/C=US/ST=CA/L=SanFrancisco/O=Pixglo, Inc./OU=VPN-CIE/CN=tunnel.pixglo.com/name=Bala Chandrasekaran/emailAddress=bala@pixglo.com
                serial:A6:DB:C6:83:80:E6:A0:79

            X509v3 Extended Key Usage: 
                TLS Web Client Authentication
            X509v3 Key Usage: 
                Digital Signature
    Signature Algorithm: sha1WithRSAEncryption
         bf:05:fe:fa:7f:9b:0e:33:46:1c:a1:71:b3:5c:f5:ca:f6:c4:
         b9:ad:11:ac:12:0e:68:05:76:fc:ef:24:3f:2e:e4:b3:99:61:
         fa:65:cf:45:24:db:4e:cd:b0:58:9f:78:30:d8:b7:a7:5b:d3:
         da:8d:4c:da:7a:27:30:71:cd:9f:7c:2e:b5:a4:03:4f:fc:d1:
         6c:8e:39:3f:ac:91:ae:1a:4e:b5:b8:e1:d8:62:87:00:de:2d:
         5d:9b:84:a3:d1:05:a9:cd:c5:9f:9d:f2:e2:9c:10:01:05:95:
         97:f9:74:34:90:cd:4c:96:09:2b:dd:4d:d5:e9:ba:5f:72:16:
         28:a2:d5:f6:a8:29:d1:40:67:93:2f:cc:bd:a9:03:25:01:43:
         62:6f:b8:4a:07:e4:e2:8c:c3:91:16:87:5a:a2:6f:72:dd:09:
         cd:25:9e:7f:56:90:7c:82:c2:49:bb:d9:50:b9:d6:58:92:f7:
         26:08:ec:06:24:3f:8f:00:32:9c:5f:8d:3a:47:ee:f9:1b:f7:
         65:8b:29:4b:70:98:01:06:c8:6a:6f:c8:dc:16:6f:77:0d:7d:
         df:61:00:39:06:04:02:ab:79:fd:3e:d7:26:13:82:c4:d9:bf:
         3d:45:9d:96:49:e2:b5:ac:4a:db:b7:9a:fe:85:0d:9e:c9:0a:
         81:1e:a5:26:63:0d:a5:cc:a2:89:f6:91:aa:62:41:19:1b:50:
         4c:8c:cf:54:32:b9:ce:b2:d9:0c:78:70:3a:3c:a9:de:ca:ea:
         ae:cc:a2:6c:8a:ad:6d:ea:45:64:e9:77:3b:55:00:cd:f7:c0:
         cf:1b:76:75:66:f1:fc:e2:f4:25:9d:db:ef:d0:4a:73:99:9e:
         89:ba:65:89:cb:7b:d8:48:10:86:48:cf:ca:f1:e6:e3:fa:75:
         40:8e:2a:82:88:cc:2a:12:f8:3e:f2:75:56:6f:da:bb:89:d8:
         04:94:a1:38:7c:89:7d:e4:2d:79:7f:f7:d1:d0:4f:64:1c:7b:
         31:35:10:76:66:8e:5e:b0:2d:00:b5:c2:45:b8:e4:62:e4:78:
         e3:70:15:cb:c9:db:81:74:70:c9:52:d4:80:35:9e:79:38:26:
         40:ef:02:0b:7b:ef:31:31:c9:ef:e0:dc:d2:ba:ff:8d:45:e0:
         0f:ab:9e:aa:1a:13:ad:ea:ad:3e:a7:90:17:8d:c7:b2:b7:ed:
         a3:42:1a:9d:0a:1b:ba:35:1e:e6:b8:40:a8:66:3b:6c:96:1c:
         b9:34:1e:d9:83:89:e2:0e:c8:16:ee:49:dd:e0:bf:25:fb:8c:
         8b:93:9f:eb:d0:f6:ab:85:c1:42:72:dd:c3:6f:bc:04:9b:f1:
         34:28:c3:98:d7:e9:0e:1a
-----BEGIN CERTIFICATE-----
MIIHSDCCBTCgAwIBAgICAVgwDQYJKoZIhvcNAQEFBQAwgbQxCzAJBgNVBAYTAlVT
MQswCQYDVQQIEwJDQTEVMBMGA1UEBxMMU2FuRnJhbmNpc2NvMRUwEwYDVQQKEwxQ
aXhnbG8sIEluYy4xEDAOBgNVBAsTB1ZQTi1DSUUxGjAYBgNVBAMTEXR1bm5lbC5w
aXhnbG8uY29tMRwwGgYDVQQpExNCYWxhIENoYW5kcmFzZWthcmFuMR4wHAYJKoZI
hvcNAQkBFg9iYWxhQHBpeGdsby5jb20wHhcNMTgwMjE0MDYzMDQ3WhcNMjgwMjEy
MDYzMDQ3WjCBqTELMAkGA1UEBhMCVVMxCzAJBgNVBAgTAkNBMRUwEwYDVQQHEwxT
YW5GcmFuY2lzY28xFTATBgNVBAoTDFBpeGdsbywgSW5jLjEQMA4GA1UECxMHVlBO
LUNJRTEPMA0GA1UEAxMGY2llMzQzMRwwGgYDVQQpExNCYWxhIENoYW5kcmFzZWth
cmFuMR4wHAYJKoZIhvcNAQkBFg9iYWxhQHBpeGdsby5jb20wggIiMA0GCSqGSIb3
DQEBAQUAA4ICDwAwggIKAoICAQCpe1IZBzM9zB2/RfKz+T1Utrm+lN2RorvKsFLH
xKYx6NtasLrkgVrSrv9+5Sz9Cf1rF4myWUmRG2vBzuKC9TxHWjyncduC3y8DyaaR
fSqlE2waPRQzrghaq3wYyjnh2BrHeJydQn+QEP8IlI0z3tNhJGubN/74NnryvO28
94sBk7t9upV7GYxdg9OgxwmntRERrSXSy4nxAvAnSaojW31mF9q5jgsPfMSOOhju
OzRkJM5I8EAes9ZJovy6kfndy8mBdC2Fp2vEdvqDtnLNrkR8+CEau+yTNWRvo+vb
0GyziX78i4pSAV5DOo/Fo8D/mpn6trKTzoiNNdUpJCK6XiVBCFpqBZokjzU5/fAg
ClktxyJ4DiFcnBcLr8P6Tktncfl0TgFBkchq6VavgyNF57ddYDIPZQCkX1FsqPv4
Wp/Zd/G4I+BjSVt37kL7OTHHO7HVnUldXskIr7D3ZX7fggB+FClCfZ2BQldQYJGe
0zXZtQA1b9Okrzy1HhmpRhVQIWcoSq/wFyDJ09tgAqpef0sjKuj/L1ID7TLsQjpT
sanrHVUXYAVjuxwC4mmao+XI8P6HkLhuQSvS4TBo4UM2uKopDgb4KjshRAQk0HwJ
Sm+5COHR+vqxIJ9bOg/cmOwRsKUsEUDNHyWhfbkUoSos04wQ1PkAm3nF6/y4ek4N
NaxpWQIDAQABo4IBazCCAWcwCQYDVR0TBAIwADAtBglghkgBhvhCAQ0EIBYeRWFz
eS1SU0EgR2VuZXJhdGVkIENlcnRpZmljYXRlMB0GA1UdDgQWBBSAdmWzZPnYwFzX
dia8nU0r6zFKEzCB6QYDVR0jBIHhMIHegBTvOI0UUFinW02cF3L837msp1GwEKGB
uqSBtzCBtDELMAkGA1UEBhMCVVMxCzAJBgNVBAgTAkNBMRUwEwYDVQQHEwxTYW5G
cmFuY2lzY28xFTATBgNVBAoTDFBpeGdsbywgSW5jLjEQMA4GA1UECxMHVlBOLUNJ
RTEaMBgGA1UEAxMRdHVubmVsLnBpeGdsby5jb20xHDAaBgNVBCkTE0JhbGEgQ2hh
bmRyYXNla2FyYW4xHjAcBgkqhkiG9w0BCQEWD2JhbGFAcGl4Z2xvLmNvbYIJAKbb
xoOA5qB5MBMGA1UdJQQMMAoGCCsGAQUFBwMCMAsGA1UdDwQEAwIHgDANBgkqhkiG
9w0BAQUFAAOCAgEAvwX++n+bDjNGHKFxs1z1yvbEua0RrBIOaAV2/O8kPy7ks5lh
+mXPRSTbTs2wWJ94MNi3p1vT2o1M2nonMHHNn3wutaQDT/zRbI45P6yRrhpOtbjh
2GKHAN4tXZuEo9EFqc3Fn53y4pwQAQWVl/l0NJDNTJYJK91N1em6X3IWKKLV9qgp
0UBnky/MvakDJQFDYm+4Sgfk4ozDkRaHWqJvct0JzSWef1aQfILCSbvZULnWWJL3
JgjsBiQ/jwAynF+NOkfu+Rv3ZYspS3CYAQbIam/I3BZvdw1932EAOQYEAqt5/T7X
JhOCxNm/PUWdlknitaxK27ea/oUNnskKgR6lJmMNpcyiifaRqmJBGRtQTIzPVDK5
zrLZDHhwOjyp3srqrsyibIqtbepFZOl3O1UAzffAzxt2dWbx/OL0JZ3b79BKc5me
ibplict72EgQhkjPyvHm4/p1QI4qgojMKhL4PvJ1Vm/au4nYBJShOHyJfeQteX/3
0dBPZBx7MTUQdmaOXrAtALXCRbjkYuR443AVy8nbgXRwyVLUgDWeeTgmQO8CC3vv
MTHJ7+Dc0rr/jUXgD6ueqhoTreqtPqeQF43Hsrfto0IanQobujUe5rhAqGY7bJYc
uTQe2YOJ4g7IFu5J3eC/JfuMi5Of69D2q4XBQnLdw2+8BJvxNCjDmNfpDho=
-----END CERTIFICATE-----
