Certificate:
    Data:
        Version: 3 (0x2)
        Serial Number: 347 (0x15b)
    Signature Algorithm: sha1WithRSAEncryption
        Issuer: C=US, ST=CA, L=SanFrancisco, O=Pixglo, Inc., OU=VPN-CIE, CN=tunnel.pixglo.com/name=Bala Chandrasekaran/emailAddress=bala@pixglo.com
        Validity
            Not Before: Feb 14 06:30:52 2018 GMT
            Not After : Feb 12 06:30:52 2028 GMT
        Subject: C=US, ST=CA, L=SanFrancisco, O=Pixglo, Inc., OU=VPN-CIE, CN=cie346/name=Bala Chandrasekaran/emailAddress=bala@pixglo.com
        Subject Public Key Info:
            Public Key Algorithm: rsaEncryption
                Public-Key: (4096 bit)
                Modulus:
                    00:b5:b2:ed:69:10:66:4f:38:c9:fe:e7:41:46:2d:
                    e8:c3:2e:0a:cc:2b:b3:79:d3:7b:ff:d9:70:eb:22:
                    50:f1:8c:4d:68:3d:11:7a:cc:04:a1:9a:cb:97:81:
                    0f:7f:e3:35:5e:24:d4:7f:e5:4c:cf:24:6e:41:16:
                    f5:6a:93:f7:a9:37:25:26:91:44:11:64:b6:0c:a8:
                    a4:5a:6c:00:9f:ce:24:14:5b:89:a3:01:e9:fe:b6:
                    6f:ff:26:64:7a:61:bc:b7:0e:75:46:2a:a7:4b:1d:
                    b7:5f:2e:ae:2d:f0:d8:39:d2:51:6d:f4:58:9c:ce:
                    f4:91:ff:c5:6e:ac:ed:f4:c4:f0:64:fe:c2:93:cc:
                    db:1c:17:b9:67:ff:f8:ba:86:28:0c:c6:ff:77:4f:
                    d0:31:a4:0f:49:d4:a5:5b:31:c6:59:3c:f5:a8:d8:
                    93:85:fb:43:b6:09:12:62:55:fc:28:37:7f:e3:62:
                    b7:c6:cf:ba:f7:1d:bd:d0:b6:35:b5:5d:84:b2:8a:
                    5d:37:1f:0b:3f:b5:0c:6c:d4:70:d0:54:78:aa:fb:
                    93:16:52:00:96:28:97:39:23:67:c9:1c:04:87:f0:
                    05:cf:99:d2:3e:13:df:b7:b0:52:28:7e:f2:8b:c6:
                    11:8e:3c:2a:9c:97:78:8d:88:04:cb:a5:a8:c0:ed:
                    e1:29:8e:c6:2c:4f:0b:12:bf:15:ed:dd:32:c9:c6:
                    91:19:12:12:49:4e:74:b1:81:f4:4b:1b:c4:4e:38:
                    95:a1:57:8a:0b:57:f1:2e:63:98:f1:1a:d2:4f:1a:
                    11:6f:38:7d:be:bc:9c:3c:1a:7b:1c:4e:b3:15:c1:
                    53:c4:07:a6:52:7f:e0:80:85:5f:08:8e:07:8e:b5:
                    fd:2f:a1:c3:d8:f8:0e:d5:48:46:d7:45:b1:ec:29:
                    2f:de:42:bb:72:99:d0:d7:1b:4d:48:b4:b2:6b:cd:
                    15:be:36:be:d8:6b:c1:67:c0:d2:a1:5c:bc:9b:08:
                    6b:7e:e8:1e:17:8f:fd:c1:1d:eb:e2:80:e7:36:41:
                    2a:e1:16:bb:4f:f4:be:35:90:bb:11:62:b9:d1:8f:
                    26:00:ee:9a:7f:f1:62:72:76:e2:e4:1a:2d:53:da:
                    2d:ed:62:2d:b7:fc:4f:88:f0:7d:1a:ee:85:f1:f6:
                    70:f3:aa:51:d3:26:6e:23:77:55:46:24:12:e9:e8:
                    ff:37:70:a4:1a:d7:8f:9a:11:0e:86:e9:74:64:47:
                    44:39:f5:4b:9f:4c:24:ec:ee:79:42:80:fc:e7:15:
                    1c:c4:07:41:ac:13:b0:e2:64:0c:18:2e:b8:68:ec:
                    c6:ef:16:2b:bf:b5:69:27:26:08:74:bc:ee:81:bb:
                    6c:1e:81
                Exponent: 65537 (0x10001)
        X509v3 extensions:
            X509v3 Basic Constraints: 
                CA:FALSE
            Netscape Comment: 
                Easy-RSA Generated Certificate
            X509v3 Subject Key Identifier: 
                70:EE:0D:57:1D:2F:66:D2:3A:98:C5:90:FF:7F:46:14:7E:D7:2E:47
            X509v3 Authority Key Identifier: 
                keyid:EF:38:8D:14:50:58:A7:5B:4D:9C:17:72:FC:DF:B9:AC:A7:51:B0:10
                DirName:/C=US/ST=CA/L=SanFrancisco/O=Pixglo, Inc./OU=VPN-CIE/CN=tunnel.pixglo.com/name=Bala Chandrasekaran/emailAddress=bala@pixglo.com
                serial:A6:DB:C6:83:80:E6:A0:79

            X509v3 Extended Key Usage: 
                TLS Web Client Authentication
            X509v3 Key Usage: 
                Digital Signature
    Signature Algorithm: sha1WithRSAEncryption
         9a:00:0a:e5:c6:c5:86:41:d2:20:08:62:60:3b:6d:6b:80:c8:
         82:03:09:74:f3:e5:01:da:10:87:b5:56:d0:79:47:20:76:4e:
         00:9a:3e:c1:1b:42:f5:70:bd:75:a7:a7:0d:1a:81:73:55:e9:
         54:cd:0e:0e:f9:d4:14:98:bd:0b:24:c9:3d:c2:31:46:33:9e:
         4e:c0:12:0b:83:2f:8c:a5:22:9c:b8:3d:d2:ed:c1:d7:57:90:
         5d:fd:ac:d4:a9:6d:6e:24:44:86:6b:7c:76:95:a8:6d:37:44:
         02:4d:20:1d:b6:c9:62:7e:a7:6f:79:fc:81:fd:e3:5a:6e:82:
         b5:b4:3a:51:5a:58:1c:ad:98:ec:7c:c4:b7:f2:84:cf:12:a9:
         76:3a:e6:9b:9a:44:c7:f0:02:31:33:4d:6a:8c:9c:6e:ce:43:
         73:48:86:ec:8d:a2:60:9d:94:02:f8:47:6b:a4:7a:1a:1a:f6:
         6d:50:9a:9a:35:d0:fb:45:02:0f:e8:75:76:52:54:d2:0b:23:
         47:f4:13:fc:74:13:9d:e2:69:03:ff:25:c7:7c:44:cf:45:2d:
         01:95:3f:f9:b5:6e:96:7b:3f:9c:38:f9:5c:93:8c:1c:10:08:
         77:c3:0d:be:13:af:d6:76:c5:c9:11:02:91:3a:97:61:de:3b:
         5b:d4:6d:52:3f:32:84:36:f2:4c:e6:b0:e2:f9:32:17:d9:6b:
         c2:f9:79:1e:02:0b:7e:22:9c:e3:a9:18:82:21:34:cf:0f:16:
         ea:75:19:91:f4:4d:af:f9:bb:75:9e:73:17:da:07:89:67:33:
         f0:2d:7c:7f:95:d6:ec:68:4c:93:0a:9c:ca:6c:df:28:68:f9:
         e4:33:a8:4d:e0:6f:bf:7b:9e:49:9e:52:bf:87:4b:b2:81:fd:
         f0:54:39:f5:f9:58:76:54:99:d4:a2:cd:e1:c8:fc:c0:aa:56:
         81:d5:79:91:d4:5b:cf:b3:53:c7:f6:21:67:29:92:32:bd:1e:
         4b:43:b9:d0:e1:8c:78:fa:0e:59:fc:c0:42:e8:77:2d:3d:66:
         54:f5:cc:3f:aa:87:68:e8:65:7a:66:a6:67:b6:55:a9:4d:bc:
         67:de:a1:b2:aa:c1:e4:ac:56:3c:8e:19:49:ff:32:3e:56:56:
         f4:9c:54:c3:36:d5:6e:46:b9:d6:da:01:cf:74:1e:10:26:9b:
         02:1d:eb:06:40:b8:64:03:38:4b:e4:81:84:cb:df:90:f9:d4:
         bf:a2:a9:dc:98:6f:bf:72:bc:47:40:1c:f5:9e:65:65:5c:4f:
         47:20:ae:ad:78:9d:77:51:95:d8:fd:5a:df:4d:32:e9:0f:bc:
         84:33:0c:ae:65:91:44:17
-----BEGIN CERTIFICATE-----
MIIHSDCCBTCgAwIBAgICAVswDQYJKoZIhvcNAQEFBQAwgbQxCzAJBgNVBAYTAlVT
MQswCQYDVQQIEwJDQTEVMBMGA1UEBxMMU2FuRnJhbmNpc2NvMRUwEwYDVQQKEwxQ
aXhnbG8sIEluYy4xEDAOBgNVBAsTB1ZQTi1DSUUxGjAYBgNVBAMTEXR1bm5lbC5w
aXhnbG8uY29tMRwwGgYDVQQpExNCYWxhIENoYW5kcmFzZWthcmFuMR4wHAYJKoZI
hvcNAQkBFg9iYWxhQHBpeGdsby5jb20wHhcNMTgwMjE0MDYzMDUyWhcNMjgwMjEy
MDYzMDUyWjCBqTELMAkGA1UEBhMCVVMxCzAJBgNVBAgTAkNBMRUwEwYDVQQHEwxT
YW5GcmFuY2lzY28xFTATBgNVBAoTDFBpeGdsbywgSW5jLjEQMA4GA1UECxMHVlBO
LUNJRTEPMA0GA1UEAxMGY2llMzQ2MRwwGgYDVQQpExNCYWxhIENoYW5kcmFzZWth
cmFuMR4wHAYJKoZIhvcNAQkBFg9iYWxhQHBpeGdsby5jb20wggIiMA0GCSqGSIb3
DQEBAQUAA4ICDwAwggIKAoICAQC1su1pEGZPOMn+50FGLejDLgrMK7N503v/2XDr
IlDxjE1oPRF6zAShmsuXgQ9/4zVeJNR/5UzPJG5BFvVqk/epNyUmkUQRZLYMqKRa
bACfziQUW4mjAen+tm//JmR6Yby3DnVGKqdLHbdfLq4t8Ng50lFt9FiczvSR/8Vu
rO30xPBk/sKTzNscF7ln//i6higMxv93T9AxpA9J1KVbMcZZPPWo2JOF+0O2CRJi
VfwoN3/jYrfGz7r3Hb3QtjW1XYSyil03Hws/tQxs1HDQVHiq+5MWUgCWKJc5I2fJ
HASH8AXPmdI+E9+3sFIofvKLxhGOPCqcl3iNiATLpajA7eEpjsYsTwsSvxXt3TLJ
xpEZEhJJTnSxgfRLG8ROOJWhV4oLV/EuY5jxGtJPGhFvOH2+vJw8GnscTrMVwVPE
B6ZSf+CAhV8IjgeOtf0vocPY+A7VSEbXRbHsKS/eQrtymdDXG01ItLJrzRW+Nr7Y
a8FnwNKhXLybCGt+6B4Xj/3BHevigOc2QSrhFrtP9L41kLsRYrnRjyYA7pp/8WJy
duLkGi1T2i3tYi23/E+I8H0a7oXx9nDzqlHTJm4jd1VGJBLp6P83cKQa14+aEQ6G
6XRkR0Q59UufTCTs7nlCgPznFRzEB0GsE7DiZAwYLrho7MbvFiu/tWknJgh0vO6B
u2wegQIDAQABo4IBazCCAWcwCQYDVR0TBAIwADAtBglghkgBhvhCAQ0EIBYeRWFz
eS1SU0EgR2VuZXJhdGVkIENlcnRpZmljYXRlMB0GA1UdDgQWBBRw7g1XHS9m0jqY
xZD/f0YUftcuRzCB6QYDVR0jBIHhMIHegBTvOI0UUFinW02cF3L837msp1GwEKGB
uqSBtzCBtDELMAkGA1UEBhMCVVMxCzAJBgNVBAgTAkNBMRUwEwYDVQQHEwxTYW5G
cmFuY2lzY28xFTATBgNVBAoTDFBpeGdsbywgSW5jLjEQMA4GA1UECxMHVlBOLUNJ
RTEaMBgGA1UEAxMRdHVubmVsLnBpeGdsby5jb20xHDAaBgNVBCkTE0JhbGEgQ2hh
bmRyYXNla2FyYW4xHjAcBgkqhkiG9w0BCQEWD2JhbGFAcGl4Z2xvLmNvbYIJAKbb
xoOA5qB5MBMGA1UdJQQMMAoGCCsGAQUFBwMCMAsGA1UdDwQEAwIHgDANBgkqhkiG
9w0BAQUFAAOCAgEAmgAK5cbFhkHSIAhiYDtta4DIggMJdPPlAdoQh7VW0HlHIHZO
AJo+wRtC9XC9daenDRqBc1XpVM0ODvnUFJi9CyTJPcIxRjOeTsASC4MvjKUinLg9
0u3B11eQXf2s1KltbiREhmt8dpWobTdEAk0gHbbJYn6nb3n8gf3jWm6CtbQ6UVpY
HK2Y7HzEt/KEzxKpdjrmm5pEx/ACMTNNaoycbs5Dc0iG7I2iYJ2UAvhHa6R6Ghr2
bVCamjXQ+0UCD+h1dlJU0gsjR/QT/HQTneJpA/8lx3xEz0UtAZU/+bVulns/nDj5
XJOMHBAId8MNvhOv1nbFyRECkTqXYd47W9RtUj8yhDbyTOaw4vkyF9lrwvl5HgIL
fiKc46kYgiE0zw8W6nUZkfRNr/m7dZ5zF9oHiWcz8C18f5XW7GhMkwqcymzfKGj5
5DOoTeBvv3ueSZ5Sv4dLsoH98FQ59flYdlSZ1KLN4cj8wKpWgdV5kdRbz7NTx/Yh
ZymSMr0eS0O50OGMePoOWfzAQuh3LT1mVPXMP6qHaOhlemamZ7ZVqU28Z96hsqrB
5KxWPI4ZSf8yPlZW9JxUwzbVbka51toBz3QeECabAh3rBkC4ZAM4S+SBhMvfkPnU
v6Kp3Jhvv3K8R0Ac9Z5lZVxPRyCurXidd1GV2P1a300y6Q+8hDMMrmWRRBc=
-----END CERTIFICATE-----
