Certificate:
    Data:
        Version: 3 (0x2)
        Serial Number: 348 (0x15c)
    Signature Algorithm: sha1WithRSAEncryption
        Issuer: C=US, ST=CA, L=SanFrancisco, O=Pixglo, Inc., OU=VPN-CIE, CN=tunnel.pixglo.com/name=Bala Chandrasekaran/emailAddress=bala@pixglo.com
        Validity
            Not Before: Feb 14 06:30:53 2018 GMT
            Not After : Feb 12 06:30:53 2028 GMT
        Subject: C=US, ST=CA, L=SanFrancisco, O=Pixglo, Inc., OU=VPN-CIE, CN=cie347/name=Bala Chandrasekaran/emailAddress=bala@pixglo.com
        Subject Public Key Info:
            Public Key Algorithm: rsaEncryption
                Public-Key: (4096 bit)
                Modulus:
                    00:df:ca:f6:b8:69:65:43:83:e6:c1:af:98:77:e8:
                    5d:9d:75:68:66:b6:0b:52:7d:27:87:5b:40:bb:c6:
                    a1:91:1c:5d:38:ac:03:53:96:e8:33:bb:b7:9b:94:
                    cd:55:14:87:f0:3f:94:00:fe:f2:04:7b:db:e0:5d:
                    45:23:f7:2c:5c:ef:e9:b7:66:7e:e2:2d:08:66:c0:
                    a1:8f:5a:14:40:ce:ea:b8:c0:d2:4a:10:4c:65:07:
                    26:09:a1:1d:ee:ac:32:02:5a:07:15:49:46:48:0a:
                    1f:f2:bc:6d:7a:8b:ab:69:49:24:8b:6e:61:c7:41:
                    89:83:31:44:25:bd:0e:66:07:3c:8e:06:6e:db:47:
                    e6:e1:ee:23:e8:7b:a4:1c:39:98:a0:2b:0e:39:c6:
                    e7:33:18:a4:52:ec:ed:13:91:76:a3:a2:04:0f:45:
                    fb:22:e5:eb:6e:8a:a2:ff:22:8a:89:67:fc:3c:40:
                    b3:9b:58:31:da:b8:aa:8c:d6:44:0b:3f:96:a3:20:
                    66:17:a6:97:a0:08:07:e2:c0:1b:51:ce:59:d3:c8:
                    a7:c6:a1:d6:f0:7c:6c:98:ab:85:90:4a:6f:cd:fb:
                    5f:6b:e6:c3:a9:52:b3:f9:cf:0b:75:42:e4:b5:67:
                    ac:a4:2f:eb:c2:43:bc:17:de:37:18:64:d3:29:98:
                    c9:20:de:4f:f9:36:9d:eb:40:1b:36:e4:9c:41:3d:
                    5f:58:e4:14:11:6b:9d:74:1f:4d:67:e3:bc:6e:09:
                    6f:01:95:35:f2:37:eb:b1:ea:6d:fc:94:f8:6a:74:
                    08:14:31:8e:d1:a2:f2:02:96:ad:f4:cf:24:c6:21:
                    00:e0:df:7e:6d:bf:d4:7b:c3:43:52:64:70:92:5c:
                    fe:da:fb:5e:29:26:27:f1:d8:65:95:e6:a5:f0:74:
                    d8:fb:ba:35:12:a6:d9:0e:87:91:d3:5b:e8:bb:c4:
                    fd:3a:e6:99:e8:b4:f7:a0:ff:92:54:40:0d:a5:56:
                    30:d7:81:af:34:7f:99:5e:b2:49:ca:41:db:0a:bb:
                    22:e2:fc:8b:e6:f8:cf:4f:2c:6c:10:85:9f:14:06:
                    3b:6a:3d:40:d4:dc:f0:0e:53:ce:25:00:47:0d:67:
                    e2:af:fa:1d:1c:f1:40:c5:ab:c4:1c:21:98:a3:16:
                    d6:c0:56:84:a7:ab:3c:54:e3:68:5f:f1:71:0b:e0:
                    5b:fd:72:66:f6:47:7e:45:ba:e9:d3:e7:a0:24:c4:
                    c3:36:a1:82:7a:83:db:02:05:c3:f0:74:1f:de:a1:
                    b3:a5:9a:1a:dc:02:7c:a5:5a:56:72:9a:64:0c:11:
                    3b:77:5b:f0:4d:a6:36:94:b8:44:4e:d8:7f:87:5c:
                    cc:6b:63
                Exponent: 65537 (0x10001)
        X509v3 extensions:
            X509v3 Basic Constraints: 
                CA:FALSE
            Netscape Comment: 
                Easy-RSA Generated Certificate
            X509v3 Subject Key Identifier: 
                E6:05:44:CA:74:4F:10:09:03:9A:44:21:8D:F4:B6:41:11:BA:A6:5E
            X509v3 Authority Key Identifier: 
                keyid:EF:38:8D:14:50:58:A7:5B:4D:9C:17:72:FC:DF:B9:AC:A7:51:B0:10
                DirName:/C=US/ST=CA/L=SanFrancisco/O=Pixglo, Inc./OU=VPN-CIE/CN=tunnel.pixglo.com/name=Bala Chandrasekaran/emailAddress=bala@pixglo.com
                serial:A6:DB:C6:83:80:E6:A0:79

            X509v3 Extended Key Usage: 
                TLS Web Client Authentication
            X509v3 Key Usage: 
                Digital Signature
    Signature Algorithm: sha1WithRSAEncryption
         55:93:30:22:eb:9e:1e:ef:3d:2d:e7:e6:82:5b:58:53:9c:72:
         ff:ca:34:23:a5:a3:f0:0b:16:2b:a3:11:2c:e0:2a:13:ab:f3:
         c4:96:44:2c:56:f7:da:ae:49:0e:51:3b:4c:dc:d8:88:ea:38:
         15:de:05:be:90:56:ac:23:4d:e7:b1:89:a3:ae:6a:8e:b9:f7:
         e6:fb:d4:50:9e:73:d5:1b:6f:f9:02:d6:83:26:bf:01:2c:e3:
         73:c8:79:99:92:d9:5a:08:a5:10:52:97:ee:fa:58:db:0f:79:
         a3:6c:bf:0c:04:6f:ad:a3:c2:60:3a:8e:33:bc:0d:f7:91:5a:
         15:89:7e:70:e7:c0:4b:63:bb:81:76:04:df:c1:e5:b3:db:ea:
         a5:e8:b3:29:82:bc:0b:d4:bc:ec:c6:a9:f4:f2:7e:6e:3c:0c:
         30:66:41:10:0b:a3:59:8c:c9:6e:ed:be:52:ed:7e:c4:bf:84:
         68:ba:9c:f9:4f:a1:c5:ab:2a:1d:9f:2f:31:86:d6:d6:6a:13:
         3d:c9:66:30:94:68:e2:8b:fd:b5:26:92:1f:3a:0d:8d:5f:13:
         79:68:4e:a8:71:5b:35:82:29:9c:fe:dc:25:86:69:ee:dd:a0:
         ea:1c:45:26:1b:31:91:c6:7b:54:be:0f:78:45:a0:89:05:ff:
         71:87:3d:61:1d:43:64:5a:ab:8f:a5:72:b1:82:5b:f4:a1:a1:
         c0:45:e9:62:5f:c2:3c:b4:5d:5c:32:d5:e3:af:06:f0:90:8f:
         b0:16:99:cf:68:56:0a:40:45:01:6f:9b:8c:5e:e0:a1:0a:88:
         9a:2b:dc:40:0e:64:e0:1e:d9:d2:64:55:74:2e:18:7a:3e:9c:
         e0:5d:c9:85:7d:67:0f:48:26:43:21:1b:9f:6c:4e:4d:b4:3d:
         6d:23:c4:5b:4a:de:78:16:0f:3f:db:b8:30:45:e4:25:db:2b:
         39:28:17:36:53:37:46:07:eb:6e:af:a3:4b:c4:57:0a:db:9c:
         67:27:a9:b0:9d:08:46:9c:d0:45:83:9f:a4:96:3e:53:03:2c:
         93:95:55:82:fb:25:72:ac:ae:70:87:d6:da:c6:7b:db:0c:f4:
         26:a4:22:81:43:d0:c8:7f:32:2c:41:a1:04:3b:8f:a9:48:68:
         e9:0f:5f:1e:c1:1f:7c:bf:77:a0:de:b8:19:f2:e5:d3:fe:ba:
         65:5b:48:79:ce:e4:3f:98:f1:d3:10:8f:ce:6a:7d:51:12:f0:
         9f:2a:3a:46:ef:bf:d6:11:d7:96:8e:2e:a9:d5:c7:33:7e:cf:
         fd:1f:d2:49:09:93:a1:16:90:1b:d9:c7:d5:2f:0b:d5:43:2d:
         8e:60:61:0a:7e:8f:17:cb
-----BEGIN CERTIFICATE-----
MIIHSDCCBTCgAwIBAgICAVwwDQYJKoZIhvcNAQEFBQAwgbQxCzAJBgNVBAYTAlVT
MQswCQYDVQQIEwJDQTEVMBMGA1UEBxMMU2FuRnJhbmNpc2NvMRUwEwYDVQQKEwxQ
aXhnbG8sIEluYy4xEDAOBgNVBAsTB1ZQTi1DSUUxGjAYBgNVBAMTEXR1bm5lbC5w
aXhnbG8uY29tMRwwGgYDVQQpExNCYWxhIENoYW5kcmFzZWthcmFuMR4wHAYJKoZI
hvcNAQkBFg9iYWxhQHBpeGdsby5jb20wHhcNMTgwMjE0MDYzMDUzWhcNMjgwMjEy
MDYzMDUzWjCBqTELMAkGA1UEBhMCVVMxCzAJBgNVBAgTAkNBMRUwEwYDVQQHEwxT
YW5GcmFuY2lzY28xFTATBgNVBAoTDFBpeGdsbywgSW5jLjEQMA4GA1UECxMHVlBO
LUNJRTEPMA0GA1UEAxMGY2llMzQ3MRwwGgYDVQQpExNCYWxhIENoYW5kcmFzZWth
cmFuMR4wHAYJKoZIhvcNAQkBFg9iYWxhQHBpeGdsby5jb20wggIiMA0GCSqGSIb3
DQEBAQUAA4ICDwAwggIKAoICAQDfyva4aWVDg+bBr5h36F2ddWhmtgtSfSeHW0C7
xqGRHF04rANTlugzu7eblM1VFIfwP5QA/vIEe9vgXUUj9yxc7+m3Zn7iLQhmwKGP
WhRAzuq4wNJKEExlByYJoR3urDICWgcVSUZICh/yvG16i6tpSSSLbmHHQYmDMUQl
vQ5mBzyOBm7bR+bh7iPoe6QcOZigKw45xuczGKRS7O0TkXajogQPRfsi5etuiqL/
IoqJZ/w8QLObWDHauKqM1kQLP5ajIGYXppegCAfiwBtRzlnTyKfGodbwfGyYq4WQ
Sm/N+19r5sOpUrP5zwt1QuS1Z6ykL+vCQ7wX3jcYZNMpmMkg3k/5Np3rQBs25JxB
PV9Y5BQRa510H01n47xuCW8BlTXyN+ux6m38lPhqdAgUMY7RovIClq30zyTGIQDg
335tv9R7w0NSZHCSXP7a+14pJifx2GWV5qXwdNj7ujUSptkOh5HTW+i7xP065pno
tPeg/5JUQA2lVjDXga80f5lesknKQdsKuyLi/Ivm+M9PLGwQhZ8UBjtqPUDU3PAO
U84lAEcNZ+Kv+h0c8UDFq8QcIZijFtbAVoSnqzxU42hf8XEL4Fv9cmb2R35FuunT
56AkxMM2oYJ6g9sCBcPwdB/eobOlmhrcAnylWlZymmQMETt3W/BNpjaUuERO2H+H
XMxrYwIDAQABo4IBazCCAWcwCQYDVR0TBAIwADAtBglghkgBhvhCAQ0EIBYeRWFz
eS1SU0EgR2VuZXJhdGVkIENlcnRpZmljYXRlMB0GA1UdDgQWBBTmBUTKdE8QCQOa
RCGN9LZBEbqmXjCB6QYDVR0jBIHhMIHegBTvOI0UUFinW02cF3L837msp1GwEKGB
uqSBtzCBtDELMAkGA1UEBhMCVVMxCzAJBgNVBAgTAkNBMRUwEwYDVQQHEwxTYW5G
cmFuY2lzY28xFTATBgNVBAoTDFBpeGdsbywgSW5jLjEQMA4GA1UECxMHVlBOLUNJ
RTEaMBgGA1UEAxMRdHVubmVsLnBpeGdsby5jb20xHDAaBgNVBCkTE0JhbGEgQ2hh
bmRyYXNla2FyYW4xHjAcBgkqhkiG9w0BCQEWD2JhbGFAcGl4Z2xvLmNvbYIJAKbb
xoOA5qB5MBMGA1UdJQQMMAoGCCsGAQUFBwMCMAsGA1UdDwQEAwIHgDANBgkqhkiG
9w0BAQUFAAOCAgEAVZMwIuueHu89LefmgltYU5xy/8o0I6Wj8AsWK6MRLOAqE6vz
xJZELFb32q5JDlE7TNzYiOo4Fd4FvpBWrCNN57GJo65qjrn35vvUUJ5z1Rtv+QLW
gya/ASzjc8h5mZLZWgilEFKX7vpY2w95o2y/DARvraPCYDqOM7wN95FaFYl+cOfA
S2O7gXYE38Hls9vqpeizKYK8C9S87Map9PJ+bjwMMGZBEAujWYzJbu2+Uu1+xL+E
aLqc+U+hxasqHZ8vMYbW1moTPclmMJRo4ov9tSaSHzoNjV8TeWhOqHFbNYIpnP7c
JYZp7t2g6hxFJhsxkcZ7VL4PeEWgiQX/cYc9YR1DZFqrj6VysYJb9KGhwEXpYl/C
PLRdXDLV468G8JCPsBaZz2hWCkBFAW+bjF7goQqImivcQA5k4B7Z0mRVdC4Yej6c
4F3JhX1nD0gmQyEbn2xOTbQ9bSPEW0reeBYPP9u4MEXkJdsrOSgXNlM3Rgfrbq+j
S8RXCtucZyepsJ0IRpzQRYOfpJY+UwMsk5VVgvslcqyucIfW2sZ72wz0JqQigUPQ
yH8yLEGhBDuPqUho6Q9fHsEffL93oN64GfLl0/66ZVtIec7kP5jx0xCPzmp9URLw
nyo6Ru+/1hHXlo4uqdXHM37P/R/SSQmToRaQG9nH1S8L1UMtjmBhCn6PF8s=
-----END CERTIFICATE-----
