Certificate:
    Data:
        Version: 3 (0x2)
        Serial Number: 349 (0x15d)
    Signature Algorithm: sha1WithRSAEncryption
        Issuer: C=US, ST=CA, L=SanFrancisco, O=Pixglo, Inc., OU=VPN-CIE, CN=tunnel.pixglo.com/name=Bala Chandrasekaran/emailAddress=bala@pixglo.com
        Validity
            Not Before: Feb 14 06:30:55 2018 GMT
            Not After : Feb 12 06:30:55 2028 GMT
        Subject: C=US, ST=CA, L=SanFrancisco, O=Pixglo, Inc., OU=VPN-CIE, CN=cie348/name=Bala Chandrasekaran/emailAddress=bala@pixglo.com
        Subject Public Key Info:
            Public Key Algorithm: rsaEncryption
                Public-Key: (4096 bit)
                Modulus:
                    00:bd:44:a8:d2:29:b3:98:91:69:e8:09:07:6d:74:
                    72:18:c7:5b:65:4a:8b:d9:d3:bd:03:88:83:28:2e:
                    8e:56:70:8d:2f:0c:21:c5:c4:81:91:4b:94:3f:39:
                    50:77:c6:cd:7a:84:b9:48:a5:ab:62:6f:13:6d:a1:
                    53:bb:0a:6d:97:67:76:fd:00:29:da:2f:ff:b9:70:
                    19:b6:d3:89:11:91:12:bd:49:ec:50:82:cf:f0:9f:
                    b6:90:3b:37:23:81:26:bf:1d:07:83:b1:77:74:bd:
                    1d:7a:3b:89:4f:98:34:08:05:72:c5:07:31:64:e5:
                    14:ce:39:5e:99:fb:d0:2d:75:d9:4b:91:cb:61:c5:
                    14:e5:56:5b:ed:00:ef:66:47:c1:f2:90:3c:f2:b8:
                    39:87:84:20:93:57:b5:84:10:80:39:42:3d:f8:19:
                    64:df:9d:5c:41:8a:b2:d6:50:41:1c:ca:b0:02:d1:
                    b5:11:28:07:e7:49:f0:b9:77:7a:55:cb:d3:20:76:
                    11:6e:bf:22:57:2e:a1:2e:7b:43:11:a9:2e:f0:f9:
                    cc:65:f8:17:20:10:35:54:49:1d:24:dc:98:27:ea:
                    2b:6a:a1:18:0e:90:0b:26:8f:d2:ee:c2:9e:11:ce:
                    d9:44:9b:fa:e8:b6:99:cd:23:cb:e2:79:e7:0b:1c:
                    e5:3f:76:b9:ee:39:fb:4f:20:69:bf:c9:56:fd:f8:
                    e6:dd:ef:94:d9:0a:e2:83:88:7c:e6:ce:e9:79:da:
                    f2:46:0c:e9:f2:3d:a6:2c:4c:55:4c:bb:78:d8:7b:
                    d2:08:0a:ed:c2:04:44:07:7c:82:2a:77:0c:2d:b4:
                    fc:0b:98:12:61:a3:03:d2:9f:fc:9e:cc:ad:33:62:
                    cc:db:c8:7d:4f:62:55:f0:dd:bd:40:6a:43:45:b2:
                    1a:c4:b3:82:c9:e8:2f:aa:e0:bb:f6:5f:9c:43:b1:
                    56:7e:1b:c3:74:a6:15:82:7b:be:b3:7b:12:75:a6:
                    8f:20:cc:0f:7f:54:64:9d:8a:40:f7:55:15:ed:4b:
                    e8:8e:7d:b6:0d:0a:b9:a4:44:68:33:1e:ae:63:f3:
                    fa:db:13:a4:58:d9:96:2a:9a:16:7a:47:2e:23:6a:
                    66:56:ca:50:c8:55:bf:43:61:89:03:70:c6:d1:46:
                    38:6a:56:72:3a:6f:46:c9:ba:b0:30:8b:84:dd:70:
                    ae:11:5d:18:15:c3:1e:7f:2c:b0:09:7b:5c:3a:ed:
                    46:71:df:4a:f7:bd:36:dc:bd:42:70:3b:5e:4f:8a:
                    6a:b4:25:56:87:4c:7a:df:d7:81:60:b0:f3:c2:0d:
                    bb:56:83:f3:fd:fc:88:b6:1e:3b:71:fc:3a:42:a7:
                    21:51:97
                Exponent: 65537 (0x10001)
        X509v3 extensions:
            X509v3 Basic Constraints: 
                CA:FALSE
            Netscape Comment: 
                Easy-RSA Generated Certificate
            X509v3 Subject Key Identifier: 
                B6:02:D7:1D:F9:31:72:66:45:C3:87:94:B2:91:5A:00:B1:99:2F:7E
            X509v3 Authority Key Identifier: 
                keyid:EF:38:8D:14:50:58:A7:5B:4D:9C:17:72:FC:DF:B9:AC:A7:51:B0:10
                DirName:/C=US/ST=CA/L=SanFrancisco/O=Pixglo, Inc./OU=VPN-CIE/CN=tunnel.pixglo.com/name=Bala Chandrasekaran/emailAddress=bala@pixglo.com
                serial:A6:DB:C6:83:80:E6:A0:79

            X509v3 Extended Key Usage: 
                TLS Web Client Authentication
            X509v3 Key Usage: 
                Digital Signature
    Signature Algorithm: sha1WithRSAEncryption
         d1:c5:bf:66:22:98:20:75:04:71:0e:1e:78:2f:22:32:7c:f0:
         fe:83:62:3c:27:12:78:4d:4f:f7:3f:3f:8d:aa:dd:bb:17:85:
         a6:1b:77:e3:8d:d6:24:21:d3:5a:4a:f8:24:5f:bd:a7:dc:ee:
         2a:7c:57:8c:fd:8c:fd:d3:51:90:23:88:e4:bd:bc:c1:57:43:
         d3:b3:97:c7:e9:9d:dc:60:7a:ee:22:ff:f9:4b:9c:d0:8f:04:
         fe:7f:38:eb:4f:ab:ed:fd:fd:d5:c8:f3:a7:b0:54:d7:3a:69:
         10:e9:cd:6d:91:10:8e:90:88:a0:5a:31:43:7c:9d:f3:9c:7f:
         be:5c:b2:89:34:49:db:1f:37:ce:1a:41:09:6b:82:11:db:57:
         66:7d:ca:56:7b:7c:36:d5:9a:98:ea:10:06:63:a5:67:7c:3f:
         29:ca:1c:9d:bf:f7:65:41:d2:3d:62:f5:9b:f9:b3:7d:7e:7b:
         ad:e1:cb:2a:4b:fe:ac:22:49:81:7a:b7:da:6c:45:32:c9:c0:
         79:15:18:4c:82:50:9a:32:23:e5:25:0a:4d:fa:a2:a9:44:95:
         b1:88:8d:70:b8:9e:8a:9c:0e:77:db:5b:d8:9f:bb:84:94:1a:
         ff:80:90:e9:16:66:e9:51:97:15:29:ae:13:e2:9a:ee:b1:10:
         7c:52:c8:08:80:28:f6:1e:f4:ab:f2:ee:4a:b9:9c:d3:b0:a4:
         34:86:a5:46:a4:34:54:5e:08:e9:34:33:ed:58:29:e4:5e:6c:
         e8:e9:b7:77:76:15:dd:7f:bd:2e:e9:2d:01:59:7b:f3:b7:ab:
         fa:5a:7c:44:87:24:04:84:b7:0f:75:78:bf:85:1d:db:02:fa:
         6b:d9:00:a0:d8:75:02:47:2f:aa:47:ca:aa:fa:32:8f:b0:94:
         67:b1:61:b5:e8:fb:69:a0:19:01:bb:d3:c9:aa:55:cf:f3:5d:
         a9:f8:e2:12:d2:e5:78:8c:b7:78:0a:ed:3a:e9:d1:35:f2:6a:
         48:bb:1d:32:ee:54:e4:16:cd:62:87:b8:ec:cf:b0:7c:15:56:
         ff:e2:d2:ec:a3:b8:bb:77:48:44:af:42:d0:71:df:0d:b4:d5:
         98:75:f7:f9:84:2c:c3:d0:05:d9:18:53:01:8f:da:b4:7b:3f:
         19:8a:58:e0:ed:d8:72:54:4e:83:e0:ad:0f:93:33:ca:60:2f:
         76:de:b2:b0:62:32:50:94:a9:05:5c:4b:f9:d0:d8:33:91:34:
         93:94:bf:65:87:e7:4f:2d:dc:8e:7a:44:6b:c1:a9:19:48:ae:
         87:4e:6e:5b:70:04:0a:d2:7b:5b:a5:d2:54:20:75:ad:54:28:
         e6:49:4b:c1:c3:1c:9f:e2
-----BEGIN CERTIFICATE-----
MIIHSDCCBTCgAwIBAgICAV0wDQYJKoZIhvcNAQEFBQAwgbQxCzAJBgNVBAYTAlVT
MQswCQYDVQQIEwJDQTEVMBMGA1UEBxMMU2FuRnJhbmNpc2NvMRUwEwYDVQQKEwxQ
aXhnbG8sIEluYy4xEDAOBgNVBAsTB1ZQTi1DSUUxGjAYBgNVBAMTEXR1bm5lbC5w
aXhnbG8uY29tMRwwGgYDVQQpExNCYWxhIENoYW5kcmFzZWthcmFuMR4wHAYJKoZI
hvcNAQkBFg9iYWxhQHBpeGdsby5jb20wHhcNMTgwMjE0MDYzMDU1WhcNMjgwMjEy
MDYzMDU1WjCBqTELMAkGA1UEBhMCVVMxCzAJBgNVBAgTAkNBMRUwEwYDVQQHEwxT
YW5GcmFuY2lzY28xFTATBgNVBAoTDFBpeGdsbywgSW5jLjEQMA4GA1UECxMHVlBO
LUNJRTEPMA0GA1UEAxMGY2llMzQ4MRwwGgYDVQQpExNCYWxhIENoYW5kcmFzZWth
cmFuMR4wHAYJKoZIhvcNAQkBFg9iYWxhQHBpeGdsby5jb20wggIiMA0GCSqGSIb3
DQEBAQUAA4ICDwAwggIKAoICAQC9RKjSKbOYkWnoCQdtdHIYx1tlSovZ070DiIMo
Lo5WcI0vDCHFxIGRS5Q/OVB3xs16hLlIpatibxNtoVO7Cm2XZ3b9ACnaL/+5cBm2
04kRkRK9SexQgs/wn7aQOzcjgSa/HQeDsXd0vR16O4lPmDQIBXLFBzFk5RTOOV6Z
+9AtddlLkcthxRTlVlvtAO9mR8HykDzyuDmHhCCTV7WEEIA5Qj34GWTfnVxBirLW
UEEcyrAC0bURKAfnSfC5d3pVy9MgdhFuvyJXLqEue0MRqS7w+cxl+BcgEDVUSR0k
3Jgn6itqoRgOkAsmj9Luwp4RztlEm/rotpnNI8vieecLHOU/drnuOftPIGm/yVb9
+Obd75TZCuKDiHzmzul52vJGDOnyPaYsTFVMu3jYe9IICu3CBEQHfIIqdwwttPwL
mBJhowPSn/yezK0zYszbyH1PYlXw3b1AakNFshrEs4LJ6C+q4Lv2X5xDsVZ+G8N0
phWCe76zexJ1po8gzA9/VGSdikD3VRXtS+iOfbYNCrmkRGgzHq5j8/rbE6RY2ZYq
mhZ6Ry4jamZWylDIVb9DYYkDcMbRRjhqVnI6b0bJurAwi4TdcK4RXRgVwx5/LLAJ
e1w67UZx30r3vTbcvUJwO15Pimq0JVaHTHrf14FgsPPCDbtWg/P9/Ii2Hjtx/DpC
pyFRlwIDAQABo4IBazCCAWcwCQYDVR0TBAIwADAtBglghkgBhvhCAQ0EIBYeRWFz
eS1SU0EgR2VuZXJhdGVkIENlcnRpZmljYXRlMB0GA1UdDgQWBBS2Atcd+TFyZkXD
h5SykVoAsZkvfjCB6QYDVR0jBIHhMIHegBTvOI0UUFinW02cF3L837msp1GwEKGB
uqSBtzCBtDELMAkGA1UEBhMCVVMxCzAJBgNVBAgTAkNBMRUwEwYDVQQHEwxTYW5G
cmFuY2lzY28xFTATBgNVBAoTDFBpeGdsbywgSW5jLjEQMA4GA1UECxMHVlBOLUNJ
RTEaMBgGA1UEAxMRdHVubmVsLnBpeGdsby5jb20xHDAaBgNVBCkTE0JhbGEgQ2hh
bmRyYXNla2FyYW4xHjAcBgkqhkiG9w0BCQEWD2JhbGFAcGl4Z2xvLmNvbYIJAKbb
xoOA5qB5MBMGA1UdJQQMMAoGCCsGAQUFBwMCMAsGA1UdDwQEAwIHgDANBgkqhkiG
9w0BAQUFAAOCAgEA0cW/ZiKYIHUEcQ4eeC8iMnzw/oNiPCcSeE1P9z8/jarduxeF
pht3443WJCHTWkr4JF+9p9zuKnxXjP2M/dNRkCOI5L28wVdD07OXx+md3GB67iL/
+Uuc0I8E/n8460+r7f391cjzp7BU1zppEOnNbZEQjpCIoFoxQ3yd85x/vlyyiTRJ
2x83zhpBCWuCEdtXZn3KVnt8NtWamOoQBmOlZ3w/Kcocnb/3ZUHSPWL1m/mzfX57
reHLKkv+rCJJgXq32mxFMsnAeRUYTIJQmjIj5SUKTfqiqUSVsYiNcLieipwOd9tb
2J+7hJQa/4CQ6RZm6VGXFSmuE+Ka7rEQfFLICIAo9h70q/LuSrmc07CkNIalRqQ0
VF4I6TQz7Vgp5F5s6Om3d3YV3X+9LuktAVl787er+lp8RIckBIS3D3V4v4Ud2wL6
a9kAoNh1AkcvqkfKqvoyj7CUZ7Fhtej7aaAZAbvTyapVz/NdqfjiEtLleIy3eArt
OunRNfJqSLsdMu5U5BbNYoe47M+wfBVW/+LS7KO4u3dIRK9C0HHfDbTVmHX3+YQs
w9AF2RhTAY/atHs/GYpY4O3YclROg+CtD5MzymAvdt6ysGIyUJSpBVxL+dDYM5E0
k5S/ZYfnTy3cjnpEa8GpGUiuh05uW3AECtJ7W6XSVCB1rVQo5klLwcMcn+I=
-----END CERTIFICATE-----
