Certificate:
    Data:
        Version: 3 (0x2)
        Serial Number: 350 (0x15e)
    Signature Algorithm: sha1WithRSAEncryption
        Issuer: C=US, ST=CA, L=SanFrancisco, O=Pixglo, Inc., OU=VPN-CIE, CN=tunnel.pixglo.com/name=Bala Chandrasekaran/emailAddress=bala@pixglo.com
        Validity
            Not Before: Feb 14 06:30:56 2018 GMT
            Not After : Feb 12 06:30:56 2028 GMT
        Subject: C=US, ST=CA, L=SanFrancisco, O=Pixglo, Inc., OU=VPN-CIE, CN=cie349/name=Bala Chandrasekaran/emailAddress=bala@pixglo.com
        Subject Public Key Info:
            Public Key Algorithm: rsaEncryption
                Public-Key: (4096 bit)
                Modulus:
                    00:cb:fd:42:bd:45:a2:43:bd:24:1c:1a:81:f7:3d:
                    5c:b5:7b:c4:b4:aa:bc:3e:68:39:53:fd:6e:52:43:
                    3f:53:b3:42:73:28:9a:c0:56:3a:9d:bb:b2:82:97:
                    be:b1:7f:47:94:90:e0:53:4c:9b:54:6c:3d:cf:c3:
                    b1:e0:7e:5c:bc:59:f4:c6:6c:31:21:b5:c6:45:f3:
                    bc:04:e1:0e:e0:b3:8c:e8:0d:05:4d:55:76:36:d1:
                    29:ff:6a:8b:6f:6e:28:5b:89:b6:09:2f:8f:1e:e2:
                    fa:d6:79:a7:5d:0d:a1:af:34:d1:3e:1d:41:c6:42:
                    e0:c5:40:2f:3d:c7:7e:f1:52:d4:78:22:32:81:b0:
                    6a:c1:34:0a:8e:3b:b6:0a:d0:65:0f:31:d7:ef:0a:
                    40:cf:d8:29:2a:ff:eb:66:6f:81:5a:0b:e4:ef:83:
                    c0:7e:04:f1:71:1b:4f:0d:26:77:fd:14:9d:dd:90:
                    57:a3:9a:2b:32:8e:32:7f:6d:2d:b6:ef:3b:2a:ca:
                    66:66:7b:82:a6:02:3f:12:4c:00:9f:cd:b5:7f:d6:
                    de:34:72:9a:c4:ad:b2:09:63:d7:2d:72:19:44:92:
                    af:67:86:d8:98:23:1e:fb:80:13:ff:a1:dd:7d:98:
                    a9:27:c2:4c:be:4f:4a:92:d6:25:a1:b0:a5:0e:89:
                    94:fe:4d:35:6c:ca:81:42:fb:42:c2:88:6f:a8:b5:
                    47:d1:84:71:55:de:5a:1c:41:26:d5:91:c1:2a:48:
                    27:c0:a6:b0:71:79:cf:db:39:1a:4e:dd:d4:26:cd:
                    04:3c:ee:f9:bd:5c:c5:ef:3c:af:62:26:cf:33:5a:
                    4d:c3:7a:1f:7b:54:c6:4b:ce:fa:8f:9e:24:81:ba:
                    fd:5c:4a:e8:2e:0b:d3:61:88:ac:16:d7:05:94:c2:
                    45:a0:90:4c:52:c9:eb:c0:33:b5:08:6d:69:8d:c1:
                    51:3b:c4:f3:38:c7:16:3a:f4:76:54:ae:1a:c6:99:
                    f0:6e:2c:c7:c1:0e:ed:7e:27:79:fd:c1:17:6a:58:
                    74:99:34:60:b0:6f:b8:81:99:33:a0:8d:10:2c:96:
                    69:5e:15:8f:57:af:e9:d4:fc:9f:61:54:5e:ce:23:
                    bf:62:a9:e2:0c:e1:c4:fc:e8:ff:d4:e7:4b:0f:af:
                    db:5d:dc:78:47:f3:bc:11:eb:06:2c:56:72:ae:59:
                    b6:8c:b3:2e:38:04:1d:b3:1c:94:79:f7:18:6c:25:
                    aa:b6:23:0f:5f:ef:91:6c:2d:3a:1e:be:ea:eb:ac:
                    dc:63:94:43:ab:3a:cc:1c:33:2f:3e:50:52:3c:c9:
                    44:d7:79:47:bc:4f:ad:a5:b4:b4:78:e6:a6:bc:52:
                    b6:08:75
                Exponent: 65537 (0x10001)
        X509v3 extensions:
            X509v3 Basic Constraints: 
                CA:FALSE
            Netscape Comment: 
                Easy-RSA Generated Certificate
            X509v3 Subject Key Identifier: 
                E6:75:30:48:62:DD:EE:84:D5:11:84:B4:0F:32:1C:2A:B4:03:C5:8C
            X509v3 Authority Key Identifier: 
                keyid:EF:38:8D:14:50:58:A7:5B:4D:9C:17:72:FC:DF:B9:AC:A7:51:B0:10
                DirName:/C=US/ST=CA/L=SanFrancisco/O=Pixglo, Inc./OU=VPN-CIE/CN=tunnel.pixglo.com/name=Bala Chandrasekaran/emailAddress=bala@pixglo.com
                serial:A6:DB:C6:83:80:E6:A0:79

            X509v3 Extended Key Usage: 
                TLS Web Client Authentication
            X509v3 Key Usage: 
                Digital Signature
    Signature Algorithm: sha1WithRSAEncryption
         e2:3a:fb:46:3c:1b:e9:75:a4:d8:79:ff:16:85:a1:11:8c:18:
         76:56:40:7a:02:21:7a:a6:9a:38:a1:d6:18:6f:63:9c:89:30:
         be:99:6a:b1:43:eb:5f:61:09:de:19:0d:23:47:07:e4:4d:5b:
         d4:f2:9a:75:b4:d7:73:c0:18:8e:f8:8f:81:a2:b3:8e:bd:49:
         29:dc:0d:7f:5f:31:61:9e:ae:86:89:b6:e2:fd:31:6c:14:da:
         be:0e:a5:f3:c2:26:a8:0d:da:dd:2b:97:e1:02:6f:44:80:82:
         21:db:a8:45:cc:f8:c4:f5:3c:4d:38:89:c2:85:60:a6:ea:85:
         fe:76:a8:0a:19:95:ce:22:3f:12:c2:c9:55:1f:1b:9d:3b:6e:
         60:63:da:2e:19:6a:e5:c5:39:49:9b:1e:b5:a5:5b:5d:35:75:
         a4:e9:84:b1:6c:eb:12:16:07:6f:f7:f9:26:97:a0:99:83:bc:
         c3:f2:d6:a7:35:f5:ce:af:6c:09:ec:78:ea:1c:8e:cf:49:8e:
         60:39:db:40:fd:25:5a:33:a2:46:2e:a9:28:d8:15:52:e5:97:
         86:12:cd:8a:1e:ee:ae:7b:86:8e:ef:80:13:e1:a8:3c:d5:1d:
         11:a6:34:f6:75:d8:14:ef:8e:c0:99:bc:a5:06:c6:ee:80:6a:
         bf:41:99:67:f8:b1:61:13:3c:bf:9a:72:38:6e:b9:f1:0a:36:
         9b:93:16:44:87:31:ae:05:4e:77:6f:27:58:b5:b8:25:ed:23:
         9e:2d:ce:88:e8:69:c1:dc:6c:20:a3:9c:9f:1c:6d:d1:63:08:
         a1:76:7f:7e:48:dc:e0:32:d2:11:3d:b8:47:7d:d2:95:9e:22:
         64:7f:f0:f5:7d:d0:c7:71:93:53:c1:0f:9f:13:a7:50:5a:97:
         50:89:6b:82:f2:2f:b2:71:34:2d:6a:d1:03:58:df:04:de:fa:
         44:f5:0e:31:8e:ea:6d:38:49:f9:6c:ba:ac:76:a5:f6:6b:49:
         55:90:46:df:3d:c2:ff:56:07:5e:09:7a:2e:5c:03:82:4f:45:
         b1:20:60:20:de:4c:0c:76:d3:ab:28:c6:fe:aa:e8:3e:b4:58:
         87:17:b9:d3:38:d2:19:45:8c:6e:0e:f3:f5:df:ea:b2:c7:6f:
         03:7e:a0:5e:10:65:05:93:f2:c0:1b:bc:7f:12:92:d7:cd:23:
         b7:b3:9b:8d:a3:cb:3d:bc:94:4f:cd:29:09:2b:93:56:64:bc:
         eb:ad:85:78:b0:61:50:d2:35:62:43:80:2e:6d:60:9f:86:57:
         66:e9:ec:06:38:ce:2f:f1:a5:9f:c3:b8:87:e4:9a:44:f7:b0:
         da:1e:ce:55:a4:ec:36:48
-----BEGIN CERTIFICATE-----
MIIHSDCCBTCgAwIBAgICAV4wDQYJKoZIhvcNAQEFBQAwgbQxCzAJBgNVBAYTAlVT
MQswCQYDVQQIEwJDQTEVMBMGA1UEBxMMU2FuRnJhbmNpc2NvMRUwEwYDVQQKEwxQ
aXhnbG8sIEluYy4xEDAOBgNVBAsTB1ZQTi1DSUUxGjAYBgNVBAMTEXR1bm5lbC5w
aXhnbG8uY29tMRwwGgYDVQQpExNCYWxhIENoYW5kcmFzZWthcmFuMR4wHAYJKoZI
hvcNAQkBFg9iYWxhQHBpeGdsby5jb20wHhcNMTgwMjE0MDYzMDU2WhcNMjgwMjEy
MDYzMDU2WjCBqTELMAkGA1UEBhMCVVMxCzAJBgNVBAgTAkNBMRUwEwYDVQQHEwxT
YW5GcmFuY2lzY28xFTATBgNVBAoTDFBpeGdsbywgSW5jLjEQMA4GA1UECxMHVlBO
LUNJRTEPMA0GA1UEAxMGY2llMzQ5MRwwGgYDVQQpExNCYWxhIENoYW5kcmFzZWth
cmFuMR4wHAYJKoZIhvcNAQkBFg9iYWxhQHBpeGdsby5jb20wggIiMA0GCSqGSIb3
DQEBAQUAA4ICDwAwggIKAoICAQDL/UK9RaJDvSQcGoH3PVy1e8S0qrw+aDlT/W5S
Qz9Ts0JzKJrAVjqdu7KCl76xf0eUkOBTTJtUbD3Pw7Hgfly8WfTGbDEhtcZF87wE
4Q7gs4zoDQVNVXY20Sn/aotvbihbibYJL48e4vrWeaddDaGvNNE+HUHGQuDFQC89
x37xUtR4IjKBsGrBNAqOO7YK0GUPMdfvCkDP2Ckq/+tmb4FaC+Tvg8B+BPFxG08N
Jnf9FJ3dkFejmisyjjJ/bS227zsqymZme4KmAj8STACfzbV/1t40cprErbIJY9ct
chlEkq9nhtiYIx77gBP/od19mKknwky+T0qS1iWhsKUOiZT+TTVsyoFC+0LCiG+o
tUfRhHFV3locQSbVkcEqSCfAprBxec/bORpO3dQmzQQ87vm9XMXvPK9iJs8zWk3D
eh97VMZLzvqPniSBuv1cSuguC9NhiKwW1wWUwkWgkExSyevAM7UIbWmNwVE7xPM4
xxY69HZUrhrGmfBuLMfBDu1+J3n9wRdqWHSZNGCwb7iBmTOgjRAslmleFY9Xr+nU
/J9hVF7OI79iqeIM4cT86P/U50sPr9td3HhH87wR6wYsVnKuWbaMsy44BB2zHJR5
9xhsJaq2Iw9f75FsLToevurrrNxjlEOrOswcMy8+UFI8yUTXeUe8T62ltLR45qa8
UrYIdQIDAQABo4IBazCCAWcwCQYDVR0TBAIwADAtBglghkgBhvhCAQ0EIBYeRWFz
eS1SU0EgR2VuZXJhdGVkIENlcnRpZmljYXRlMB0GA1UdDgQWBBTmdTBIYt3uhNUR
hLQPMhwqtAPFjDCB6QYDVR0jBIHhMIHegBTvOI0UUFinW02cF3L837msp1GwEKGB
uqSBtzCBtDELMAkGA1UEBhMCVVMxCzAJBgNVBAgTAkNBMRUwEwYDVQQHEwxTYW5G
cmFuY2lzY28xFTATBgNVBAoTDFBpeGdsbywgSW5jLjEQMA4GA1UECxMHVlBOLUNJ
RTEaMBgGA1UEAxMRdHVubmVsLnBpeGdsby5jb20xHDAaBgNVBCkTE0JhbGEgQ2hh
bmRyYXNla2FyYW4xHjAcBgkqhkiG9w0BCQEWD2JhbGFAcGl4Z2xvLmNvbYIJAKbb
xoOA5qB5MBMGA1UdJQQMMAoGCCsGAQUFBwMCMAsGA1UdDwQEAwIHgDANBgkqhkiG
9w0BAQUFAAOCAgEA4jr7Rjwb6XWk2Hn/FoWhEYwYdlZAegIheqaaOKHWGG9jnIkw
vplqsUPrX2EJ3hkNI0cH5E1b1PKadbTXc8AYjviPgaKzjr1JKdwNf18xYZ6uhom2
4v0xbBTavg6l88ImqA3a3SuX4QJvRICCIduoRcz4xPU8TTiJwoVgpuqF/naoChmV
ziI/EsLJVR8bnTtuYGPaLhlq5cU5SZsetaVbXTV1pOmEsWzrEhYHb/f5JpegmYO8
w/LWpzX1zq9sCex46hyOz0mOYDnbQP0lWjOiRi6pKNgVUuWXhhLNih7urnuGju+A
E+GoPNUdEaY09nXYFO+OwJm8pQbG7oBqv0GZZ/ixYRM8v5pyOG658Qo2m5MWRIcx
rgVOd28nWLW4Je0jni3OiOhpwdxsIKOcnxxt0WMIoXZ/fkjc4DLSET24R33SlZ4i
ZH/w9X3Qx3GTU8EPnxOnUFqXUIlrgvIvsnE0LWrRA1jfBN76RPUOMY7qbThJ+Wy6
rHal9mtJVZBG3z3C/1YHXgl6LlwDgk9FsSBgIN5MDHbTqyjG/qroPrRYhxe50zjS
GUWMbg7z9d/qssdvA36gXhBlBZPywBu8fxKS180jt7ObjaPLPbyUT80pCSuTVmS8
662FeLBhUNI1YkOALm1gn4ZXZunsBjjOL/Gln8O4h+SaRPew2h7OVaTsNkg=
-----END CERTIFICATE-----
