Certificate:
    Data:
        Version: 3 (0x2)
        Serial Number: 351 (0x15f)
    Signature Algorithm: sha1WithRSAEncryption
        Issuer: C=US, ST=CA, L=SanFrancisco, O=Pixglo, Inc., OU=VPN-CIE, CN=tunnel.pixglo.com/name=Bala Chandrasekaran/emailAddress=bala@pixglo.com
        Validity
            Not Before: Feb 14 06:30:58 2018 GMT
            Not After : Feb 12 06:30:58 2028 GMT
        Subject: C=US, ST=CA, L=SanFrancisco, O=Pixglo, Inc., OU=VPN-CIE, CN=cie350/name=Bala Chandrasekaran/emailAddress=bala@pixglo.com
        Subject Public Key Info:
            Public Key Algorithm: rsaEncryption
                Public-Key: (4096 bit)
                Modulus:
                    00:df:59:cb:1e:c3:80:fb:10:23:fe:b2:57:70:98:
                    02:a9:9d:ee:95:89:3e:8a:ff:72:40:1b:b2:4f:10:
                    b8:c7:a0:da:3f:dc:b5:21:6e:dd:5b:6b:f3:bd:6d:
                    10:a0:ba:af:54:16:fb:95:1d:23:d5:d3:34:7a:83:
                    ee:7e:7e:fa:49:51:fc:87:62:cc:f8:a5:1a:61:9e:
                    dd:3e:1d:04:2b:2f:c8:c2:48:3e:e5:89:41:db:b4:
                    b9:05:4f:57:a0:04:61:5a:8c:73:56:a5:ff:1d:b7:
                    e4:7c:ec:dd:70:7f:90:82:af:11:00:1f:60:27:f4:
                    0e:5c:a6:6e:ed:6c:77:23:8c:0e:30:b9:db:7d:9d:
                    d7:91:ed:ad:a8:27:34:6e:84:a8:eb:02:31:ed:60:
                    da:3c:62:af:1d:7b:43:1b:79:2d:d6:f3:bf:9f:2c:
                    de:c7:9c:e9:82:c7:c2:6f:ee:ac:7c:33:11:3d:02:
                    9e:63:4c:73:f5:3d:b8:4a:7b:b4:3e:7e:88:22:ad:
                    aa:9f:da:49:ed:d2:ee:fa:f3:b8:93:ea:56:a8:97:
                    79:97:e6:f8:3b:cc:f9:7c:12:6f:4f:eb:6f:d7:f6:
                    0c:f0:25:88:d6:06:aa:cf:7e:d8:45:b9:2b:ab:ca:
                    0a:59:a6:b4:c7:7c:da:dd:2b:67:68:1d:b9:b5:69:
                    1c:37:9e:7f:1b:82:60:25:c4:80:06:2f:7b:05:e7:
                    6c:7c:88:ce:7f:49:42:74:8b:9a:1b:92:5a:ed:0d:
                    34:1e:77:37:1f:a5:61:d4:d0:16:f4:73:b7:62:54:
                    e1:10:34:ba:88:98:41:d8:b3:a4:8c:d7:b6:ad:61:
                    53:74:1e:35:83:4b:1a:b7:d8:80:aa:42:66:70:79:
                    80:80:ac:bd:a4:ab:ac:b5:33:0c:2a:6a:53:86:c3:
                    7a:95:20:42:17:8c:0e:e2:95:68:5a:69:d2:c3:82:
                    cd:b9:66:09:ac:df:35:06:f2:bf:71:65:7c:bb:d9:
                    e6:45:85:14:34:77:e5:5d:fc:53:3f:fd:8f:6a:6c:
                    c5:a8:78:fd:4c:9c:44:54:2f:b6:1e:5d:69:4f:00:
                    fa:3f:48:2a:4a:f1:ce:5d:c0:e0:1f:68:9f:6c:be:
                    dd:82:95:b8:fe:22:77:c8:2e:cf:ce:3e:f6:e2:16:
                    39:65:dc:51:ce:65:0c:14:d1:e7:85:aa:b5:c7:1a:
                    17:b5:1e:bc:6c:d4:1d:c6:8a:e2:00:88:8c:a1:2a:
                    ab:d9:91:0f:3e:0d:f0:47:27:e7:8a:b1:cd:43:38:
                    dc:a4:5f:5c:af:c0:62:17:79:8b:c9:83:b5:77:da:
                    b9:2a:9e:e0:2c:25:b7:06:f5:9f:ce:61:30:83:81:
                    90:93:a9
                Exponent: 65537 (0x10001)
        X509v3 extensions:
            X509v3 Basic Constraints: 
                CA:FALSE
            Netscape Comment: 
                Easy-RSA Generated Certificate
            X509v3 Subject Key Identifier: 
                90:9F:3D:F3:98:75:FC:62:42:EF:73:AA:A6:66:58:B6:F6:9F:84:DE
            X509v3 Authority Key Identifier: 
                keyid:EF:38:8D:14:50:58:A7:5B:4D:9C:17:72:FC:DF:B9:AC:A7:51:B0:10
                DirName:/C=US/ST=CA/L=SanFrancisco/O=Pixglo, Inc./OU=VPN-CIE/CN=tunnel.pixglo.com/name=Bala Chandrasekaran/emailAddress=bala@pixglo.com
                serial:A6:DB:C6:83:80:E6:A0:79

            X509v3 Extended Key Usage: 
                TLS Web Client Authentication
            X509v3 Key Usage: 
                Digital Signature
    Signature Algorithm: sha1WithRSAEncryption
         06:37:34:ca:42:ff:a0:34:ff:0d:a5:cf:67:ac:78:5c:0d:f6:
         4a:8d:bb:8b:ed:4f:fa:59:de:a9:27:2e:af:97:60:fe:46:8c:
         92:fd:ad:89:f8:74:67:b4:0a:79:c7:cf:c8:f9:69:4c:e6:be:
         44:08:d4:ab:a0:fb:b0:5c:cd:41:a4:87:e8:5e:df:8a:fa:68:
         68:63:4b:0f:df:6b:41:22:42:be:e1:1c:61:1e:ab:ca:22:37:
         5c:45:ee:31:33:42:85:60:90:5f:55:f3:e4:20:be:92:5c:3a:
         68:e4:25:30:89:28:7d:4d:c6:88:28:8a:f3:da:ac:a7:d7:d8:
         ad:7c:2d:f4:ad:6f:9c:3b:1d:4b:08:cd:f0:76:09:03:f6:13:
         ac:bf:39:e0:c4:9a:03:2c:b2:95:b9:20:ed:34:04:d6:55:c2:
         0a:dd:9d:5b:c1:4d:e4:12:5a:ad:ce:f0:1d:63:e9:52:7f:3d:
         2f:88:34:fe:6c:a5:82:96:8e:87:d8:18:4e:10:d6:6d:b8:01:
         8c:c0:db:15:9e:78:d5:f0:60:98:a5:26:b5:40:5b:e6:65:a8:
         b2:35:2f:c9:5e:f8:d5:db:db:2e:00:ec:5c:9a:1f:5b:9e:05:
         1b:31:0a:8a:85:c5:d3:68:15:8e:1e:71:c5:08:67:cb:e6:01:
         f8:be:d2:f4:c1:a3:18:60:0f:48:dd:54:31:71:64:c4:02:1c:
         7d:4f:fe:fc:d4:8c:bf:89:52:b0:5a:78:f5:6e:33:e6:b5:96:
         8f:7a:51:79:9e:0b:26:00:85:5b:64:37:1d:55:df:10:d1:36:
         2e:77:46:ee:00:f0:9f:e9:72:39:cf:c9:66:13:96:77:5c:d7:
         7b:03:00:ab:0e:17:07:79:02:c9:cc:85:21:ef:c5:48:7b:e6:
         7c:62:e9:0f:81:23:24:4e:72:37:38:a2:b9:db:68:cd:70:73:
         e4:02:3f:07:ad:dc:16:eb:cf:09:27:0d:18:40:45:89:78:e3:
         d2:96:07:e6:9b:2f:95:a6:bf:e9:dc:ed:cc:de:61:20:0d:1f:
         18:fe:56:40:d8:d5:97:ce:c0:f0:a0:62:9c:80:c9:97:85:99:
         54:a9:6f:f7:34:97:b2:43:bb:c9:71:ac:73:68:60:2f:aa:3c:
         8c:3b:9d:8e:a8:47:b8:32:54:dd:96:34:f8:03:d1:72:e9:a1:
         f5:70:79:de:b8:6c:a3:8f:ae:2a:84:00:aa:31:3d:da:6d:d7:
         2e:7d:03:0a:52:32:0c:48:d6:ec:0b:11:78:c2:55:e7:7b:c2:
         cc:6f:be:b0:ef:51:bf:f0:a7:0c:35:94:09:58:b5:cc:dc:32:
         b9:d8:59:5f:8f:d7:fa:79
-----BEGIN CERTIFICATE-----
MIIHSDCCBTCgAwIBAgICAV8wDQYJKoZIhvcNAQEFBQAwgbQxCzAJBgNVBAYTAlVT
MQswCQYDVQQIEwJDQTEVMBMGA1UEBxMMU2FuRnJhbmNpc2NvMRUwEwYDVQQKEwxQ
aXhnbG8sIEluYy4xEDAOBgNVBAsTB1ZQTi1DSUUxGjAYBgNVBAMTEXR1bm5lbC5w
aXhnbG8uY29tMRwwGgYDVQQpExNCYWxhIENoYW5kcmFzZWthcmFuMR4wHAYJKoZI
hvcNAQkBFg9iYWxhQHBpeGdsby5jb20wHhcNMTgwMjE0MDYzMDU4WhcNMjgwMjEy
MDYzMDU4WjCBqTELMAkGA1UEBhMCVVMxCzAJBgNVBAgTAkNBMRUwEwYDVQQHEwxT
YW5GcmFuY2lzY28xFTATBgNVBAoTDFBpeGdsbywgSW5jLjEQMA4GA1UECxMHVlBO
LUNJRTEPMA0GA1UEAxMGY2llMzUwMRwwGgYDVQQpExNCYWxhIENoYW5kcmFzZWth
cmFuMR4wHAYJKoZIhvcNAQkBFg9iYWxhQHBpeGdsby5jb20wggIiMA0GCSqGSIb3
DQEBAQUAA4ICDwAwggIKAoICAQDfWcsew4D7ECP+sldwmAKpne6ViT6K/3JAG7JP
ELjHoNo/3LUhbt1ba/O9bRCguq9UFvuVHSPV0zR6g+5+fvpJUfyHYsz4pRphnt0+
HQQrL8jCSD7liUHbtLkFT1egBGFajHNWpf8dt+R87N1wf5CCrxEAH2An9A5cpm7t
bHcjjA4wudt9ndeR7a2oJzRuhKjrAjHtYNo8Yq8de0MbeS3W87+fLN7HnOmCx8Jv
7qx8MxE9Ap5jTHP1PbhKe7Q+fogiraqf2knt0u7687iT6laol3mX5vg7zPl8Em9P
62/X9gzwJYjWBqrPfthFuSurygpZprTHfNrdK2doHbm1aRw3nn8bgmAlxIAGL3sF
52x8iM5/SUJ0i5obklrtDTQedzcfpWHU0Bb0c7diVOEQNLqImEHYs6SM17atYVN0
HjWDSxq32ICqQmZweYCArL2kq6y1MwwqalOGw3qVIEIXjA7ilWhaadLDgs25Zgms
3zUG8r9xZXy72eZFhRQ0d+Vd/FM//Y9qbMWoeP1MnERUL7YeXWlPAPo/SCpK8c5d
wOAfaJ9svt2Clbj+InfILs/OPvbiFjll3FHOZQwU0eeFqrXHGhe1Hrxs1B3GiuIA
iIyhKqvZkQ8+DfBHJ+eKsc1DONykX1yvwGIXeYvJg7V32rkqnuAsJbcG9Z/OYTCD
gZCTqQIDAQABo4IBazCCAWcwCQYDVR0TBAIwADAtBglghkgBhvhCAQ0EIBYeRWFz
eS1SU0EgR2VuZXJhdGVkIENlcnRpZmljYXRlMB0GA1UdDgQWBBSQnz3zmHX8YkLv
c6qmZli29p+E3jCB6QYDVR0jBIHhMIHegBTvOI0UUFinW02cF3L837msp1GwEKGB
uqSBtzCBtDELMAkGA1UEBhMCVVMxCzAJBgNVBAgTAkNBMRUwEwYDVQQHEwxTYW5G
cmFuY2lzY28xFTATBgNVBAoTDFBpeGdsbywgSW5jLjEQMA4GA1UECxMHVlBOLUNJ
RTEaMBgGA1UEAxMRdHVubmVsLnBpeGdsby5jb20xHDAaBgNVBCkTE0JhbGEgQ2hh
bmRyYXNla2FyYW4xHjAcBgkqhkiG9w0BCQEWD2JhbGFAcGl4Z2xvLmNvbYIJAKbb
xoOA5qB5MBMGA1UdJQQMMAoGCCsGAQUFBwMCMAsGA1UdDwQEAwIHgDANBgkqhkiG
9w0BAQUFAAOCAgEABjc0ykL/oDT/DaXPZ6x4XA32So27i+1P+lneqScur5dg/kaM
kv2tifh0Z7QKecfPyPlpTOa+RAjUq6D7sFzNQaSH6F7fivpoaGNLD99rQSJCvuEc
YR6ryiI3XEXuMTNChWCQX1Xz5CC+klw6aOQlMIkofU3GiCiK89qsp9fYrXwt9K1v
nDsdSwjN8HYJA/YTrL854MSaAyyylbkg7TQE1lXCCt2dW8FN5BJarc7wHWPpUn89
L4g0/mylgpaOh9gYThDWbbgBjMDbFZ541fBgmKUmtUBb5mWosjUvyV741dvbLgDs
XJofW54FGzEKioXF02gVjh5xxQhny+YB+L7S9MGjGGAPSN1UMXFkxAIcfU/+/NSM
v4lSsFp49W4z5rWWj3pReZ4LJgCFW2Q3HVXfENE2LndG7gDwn+lyOc/JZhOWd1zX
ewMAqw4XB3kCycyFIe/FSHvmfGLpD4EjJE5yNziiudtozXBz5AI/B63cFuvPCScN
GEBFiXjj0pYH5psvlaa/6dztzN5hIA0fGP5WQNjVl87A8KBinIDJl4WZVKlv9zSX
skO7yXGsc2hgL6o8jDudjqhHuDJU3ZY0+APRcumh9XB53rhso4+uKoQAqjE92m3X
Ln0DClIyDEjW7AsReMJV53vCzG++sO9Rv/CnDDWUCVi1zNwyudhZX4/X+nk=
-----END CERTIFICATE-----
