Certificate:
    Data:
        Version: 3 (0x2)
        Serial Number: 355 (0x163)
    Signature Algorithm: sha1WithRSAEncryption
        Issuer: C=US, ST=CA, L=SanFrancisco, O=Pixglo, Inc., OU=VPN-CIE, CN=tunnel.pixglo.com/name=Bala Chandrasekaran/emailAddress=bala@pixglo.com
        Validity
            Not Before: Feb 14 06:31:07 2018 GMT
            Not After : Feb 12 06:31:07 2028 GMT
        Subject: C=US, ST=CA, L=SanFrancisco, O=Pixglo, Inc., OU=VPN-CIE, CN=cie354/name=Bala Chandrasekaran/emailAddress=bala@pixglo.com
        Subject Public Key Info:
            Public Key Algorithm: rsaEncryption
                Public-Key: (4096 bit)
                Modulus:
                    00:bc:1c:f1:b9:27:4f:dd:51:b7:f2:23:bd:45:aa:
                    5d:7f:f9:e4:6b:dd:8a:a1:18:cb:24:c7:81:c9:62:
                    5e:47:30:59:a2:f8:be:d5:40:a8:0f:c9:dc:fc:59:
                    1b:bd:26:37:f0:47:d0:f0:9f:b8:a1:1d:cb:23:df:
                    40:9a:59:b0:2b:19:09:44:35:0f:15:7e:31:dd:35:
                    75:d1:c4:36:6e:99:d6:8b:32:d1:8b:66:59:10:31:
                    b7:ec:23:d8:4b:3a:3e:15:17:97:69:e3:7f:ef:ef:
                    9e:43:ad:ba:eb:1b:b9:53:03:22:bf:97:e6:e0:8b:
                    e6:9c:d8:c6:dc:11:22:5a:9c:66:1c:c4:3d:0c:90:
                    90:e1:8a:c0:8f:e2:06:0e:df:89:ab:d1:4b:4d:e5:
                    e0:6b:0c:16:19:92:09:3b:1e:69:10:41:81:a1:57:
                    cf:8d:00:38:0f:31:2c:83:66:9d:2f:11:91:0d:26:
                    16:01:f6:4c:c6:2e:f5:e1:36:eb:14:8a:19:84:67:
                    e4:53:07:7d:99:d6:9d:f6:e0:80:0e:dd:b2:9f:b1:
                    c5:3c:c0:5a:47:88:40:f3:0d:fa:5e:4f:ce:6a:8e:
                    45:30:95:4c:a4:fb:f6:4a:18:23:e6:ab:df:2f:bc:
                    26:58:d2:a9:67:89:c6:c4:0c:94:dd:e0:55:11:63:
                    37:30:89:c1:b8:cd:d2:1c:6f:cb:19:01:82:ea:6a:
                    4e:bb:2a:ab:ac:9a:f0:22:0e:c6:23:12:3a:64:a4:
                    c3:fe:86:06:c0:77:17:6b:c5:44:6a:4d:6f:ae:b9:
                    48:60:ed:90:4a:0e:7d:f1:8f:b9:7f:24:fa:c8:39:
                    a0:d3:45:d6:48:12:08:e5:a2:96:73:2d:e9:48:db:
                    3a:f2:ea:98:48:88:b2:2c:61:f7:71:da:50:fa:9f:
                    84:f2:d7:e2:e4:12:a9:6d:02:7e:4a:8f:a3:7e:64:
                    57:c9:16:0f:5f:74:84:f9:36:76:66:da:67:c1:e9:
                    02:8a:8e:c1:61:1e:97:f1:6f:74:57:35:6a:18:4c:
                    e9:c3:84:dc:56:70:70:24:b2:70:f8:db:30:34:60:
                    6a:d4:14:ba:db:25:47:8a:ad:c8:38:22:de:df:68:
                    b1:2b:d2:4a:a8:af:20:f1:ec:d6:f7:27:a6:cc:a7:
                    ac:a5:f2:fc:79:e4:9d:ce:21:2b:6a:8a:42:80:07:
                    6b:75:d6:c2:75:d2:b8:01:f9:63:4f:05:4a:0e:d6:
                    9d:00:66:c6:4e:eb:99:8a:b1:d9:6c:12:58:61:6d:
                    cd:fc:3e:60:4d:3c:9b:0c:5b:de:f6:7c:1b:46:3a:
                    e3:6f:06:3b:38:b5:0e:db:23:56:fa:63:12:38:df:
                    07:ef:67
                Exponent: 65537 (0x10001)
        X509v3 extensions:
            X509v3 Basic Constraints: 
                CA:FALSE
            Netscape Comment: 
                Easy-RSA Generated Certificate
            X509v3 Subject Key Identifier: 
                C3:7B:A4:97:C7:6D:D6:36:F4:69:59:DB:19:E4:29:3E:BB:B3:A9:A7
            X509v3 Authority Key Identifier: 
                keyid:EF:38:8D:14:50:58:A7:5B:4D:9C:17:72:FC:DF:B9:AC:A7:51:B0:10
                DirName:/C=US/ST=CA/L=SanFrancisco/O=Pixglo, Inc./OU=VPN-CIE/CN=tunnel.pixglo.com/name=Bala Chandrasekaran/emailAddress=bala@pixglo.com
                serial:A6:DB:C6:83:80:E6:A0:79

            X509v3 Extended Key Usage: 
                TLS Web Client Authentication
            X509v3 Key Usage: 
                Digital Signature
    Signature Algorithm: sha1WithRSAEncryption
         59:17:44:3e:3e:5a:62:af:58:ad:77:8b:12:26:5b:dd:35:34:
         a3:ca:b6:7d:d0:cf:47:54:c9:c7:37:57:f2:3e:5a:95:ad:94:
         fa:96:19:a7:db:66:da:d9:8f:cd:89:13:c8:30:05:f9:f0:8b:
         16:b6:3b:97:e1:36:1f:08:75:e2:cd:17:bb:6e:ff:78:d2:c3:
         cb:35:5e:2f:93:10:be:0f:18:89:71:3f:a9:b4:65:92:73:4b:
         51:14:a6:8e:8e:cc:08:c5:1f:90:5c:cd:27:42:95:e0:ab:da:
         35:1a:44:dc:10:c6:a2:62:24:67:0e:ff:2f:89:d6:be:8d:6e:
         ce:b7:75:58:a4:f9:73:f8:07:38:78:1f:1c:86:96:01:6b:78:
         d8:48:5b:b5:dc:94:b5:2f:b1:7e:17:30:82:f6:05:17:e0:2c:
         77:d8:85:88:71:3d:15:5e:dd:a2:23:3e:ae:50:46:d2:e4:db:
         58:0d:4a:0e:f4:a0:02:2e:56:d4:5e:3c:62:b0:46:b1:81:43:
         9f:a7:d4:8f:c9:76:78:cb:4d:2b:d0:00:c3:8b:a8:fb:80:e5:
         f5:31:43:99:12:b1:9f:c2:7e:bb:af:cc:43:a4:c1:b6:2f:b0:
         59:d3:89:2e:ab:d3:3a:34:3f:86:ba:b8:43:eb:79:38:1b:61:
         2e:a2:16:01:40:e6:0a:8f:86:e8:77:cb:be:e8:2d:22:d4:15:
         f8:ee:07:45:5d:4d:94:24:e6:0f:ae:3e:30:b9:fa:24:56:6e:
         02:cf:dc:18:6d:64:f4:58:0a:95:ec:42:d1:62:26:ac:a5:bc:
         52:6f:25:9f:6c:fb:c8:bf:f8:d0:43:f3:35:da:6a:21:7d:c4:
         d4:68:4e:47:82:6f:45:e7:45:b8:7b:2d:00:a9:e7:ae:9c:fe:
         be:72:d6:4c:18:ad:af:67:8b:91:dc:96:a7:23:37:1c:c9:4c:
         9f:9a:6e:41:a5:80:4b:07:19:ce:a6:1f:96:7c:d4:0d:67:5f:
         4a:16:86:f9:87:85:1f:96:d1:b4:a0:c0:9e:4e:b8:2e:a0:07:
         eb:0e:d1:2e:5a:56:3d:01:70:d5:2b:df:b0:cd:74:38:11:a1:
         d0:6a:f5:38:9f:50:84:46:45:3d:19:60:75:3f:32:82:bc:c7:
         1e:c6:4b:5e:5c:b7:85:a3:da:09:10:56:ae:2e:29:9b:c7:1c:
         74:57:b6:cf:8f:50:3c:4e:73:9d:07:4e:86:2f:52:46:91:af:
         6a:f2:01:e6:fa:ce:fe:39:4a:25:65:3e:5a:02:b4:96:a9:0f:
         01:c2:4a:7e:28:0e:e5:07:20:28:8a:ab:ff:90:93:2b:d8:9a:
         56:75:54:3b:7c:2b:fb:6e
-----BEGIN CERTIFICATE-----
MIIHSDCCBTCgAwIBAgICAWMwDQYJKoZIhvcNAQEFBQAwgbQxCzAJBgNVBAYTAlVT
MQswCQYDVQQIEwJDQTEVMBMGA1UEBxMMU2FuRnJhbmNpc2NvMRUwEwYDVQQKEwxQ
aXhnbG8sIEluYy4xEDAOBgNVBAsTB1ZQTi1DSUUxGjAYBgNVBAMTEXR1bm5lbC5w
aXhnbG8uY29tMRwwGgYDVQQpExNCYWxhIENoYW5kcmFzZWthcmFuMR4wHAYJKoZI
hvcNAQkBFg9iYWxhQHBpeGdsby5jb20wHhcNMTgwMjE0MDYzMTA3WhcNMjgwMjEy
MDYzMTA3WjCBqTELMAkGA1UEBhMCVVMxCzAJBgNVBAgTAkNBMRUwEwYDVQQHEwxT
YW5GcmFuY2lzY28xFTATBgNVBAoTDFBpeGdsbywgSW5jLjEQMA4GA1UECxMHVlBO
LUNJRTEPMA0GA1UEAxMGY2llMzU0MRwwGgYDVQQpExNCYWxhIENoYW5kcmFzZWth
cmFuMR4wHAYJKoZIhvcNAQkBFg9iYWxhQHBpeGdsby5jb20wggIiMA0GCSqGSIb3
DQEBAQUAA4ICDwAwggIKAoICAQC8HPG5J0/dUbfyI71Fql1/+eRr3YqhGMskx4HJ
Yl5HMFmi+L7VQKgPydz8WRu9JjfwR9Dwn7ihHcsj30CaWbArGQlENQ8VfjHdNXXR
xDZumdaLMtGLZlkQMbfsI9hLOj4VF5dp43/v755DrbrrG7lTAyK/l+bgi+ac2Mbc
ESJanGYcxD0MkJDhisCP4gYO34mr0UtN5eBrDBYZkgk7HmkQQYGhV8+NADgPMSyD
Zp0vEZENJhYB9kzGLvXhNusUihmEZ+RTB32Z1p324IAO3bKfscU8wFpHiEDzDfpe
T85qjkUwlUyk+/ZKGCPmq98vvCZY0qlnicbEDJTd4FURYzcwicG4zdIcb8sZAYLq
ak67KqusmvAiDsYjEjpkpMP+hgbAdxdrxURqTW+uuUhg7ZBKDn3xj7l/JPrIOaDT
RdZIEgjlopZzLelI2zry6phIiLIsYfdx2lD6n4Ty1+LkEqltAn5Kj6N+ZFfJFg9f
dIT5NnZm2mfB6QKKjsFhHpfxb3RXNWoYTOnDhNxWcHAksnD42zA0YGrUFLrbJUeK
rcg4It7faLEr0kqoryDx7Nb3J6bMp6yl8vx55J3OIStqikKAB2t11sJ10rgB+WNP
BUoO1p0AZsZO65mKsdlsElhhbc38PmBNPJsMW972fBtGOuNvBjs4tQ7bI1b6YxI4
3wfvZwIDAQABo4IBazCCAWcwCQYDVR0TBAIwADAtBglghkgBhvhCAQ0EIBYeRWFz
eS1SU0EgR2VuZXJhdGVkIENlcnRpZmljYXRlMB0GA1UdDgQWBBTDe6SXx23WNvRp
WdsZ5Ck+u7OppzCB6QYDVR0jBIHhMIHegBTvOI0UUFinW02cF3L837msp1GwEKGB
uqSBtzCBtDELMAkGA1UEBhMCVVMxCzAJBgNVBAgTAkNBMRUwEwYDVQQHEwxTYW5G
cmFuY2lzY28xFTATBgNVBAoTDFBpeGdsbywgSW5jLjEQMA4GA1UECxMHVlBOLUNJ
RTEaMBgGA1UEAxMRdHVubmVsLnBpeGdsby5jb20xHDAaBgNVBCkTE0JhbGEgQ2hh
bmRyYXNla2FyYW4xHjAcBgkqhkiG9w0BCQEWD2JhbGFAcGl4Z2xvLmNvbYIJAKbb
xoOA5qB5MBMGA1UdJQQMMAoGCCsGAQUFBwMCMAsGA1UdDwQEAwIHgDANBgkqhkiG
9w0BAQUFAAOCAgEAWRdEPj5aYq9YrXeLEiZb3TU0o8q2fdDPR1TJxzdX8j5ala2U
+pYZp9tm2tmPzYkTyDAF+fCLFrY7l+E2Hwh14s0Xu27/eNLDyzVeL5MQvg8YiXE/
qbRlknNLURSmjo7MCMUfkFzNJ0KV4KvaNRpE3BDGomIkZw7/L4nWvo1uzrd1WKT5
c/gHOHgfHIaWAWt42EhbtdyUtS+xfhcwgvYFF+Asd9iFiHE9FV7doiM+rlBG0uTb
WA1KDvSgAi5W1F48YrBGsYFDn6fUj8l2eMtNK9AAw4uo+4Dl9TFDmRKxn8J+u6/M
Q6TBti+wWdOJLqvTOjQ/hrq4Q+t5OBthLqIWAUDmCo+G6HfLvugtItQV+O4HRV1N
lCTmD64+MLn6JFZuAs/cGG1k9FgKlexC0WImrKW8Um8ln2z7yL/40EPzNdpqIX3E
1GhOR4JvRedFuHstAKnnrpz+vnLWTBitr2eLkdyWpyM3HMlMn5puQaWASwcZzqYf
lnzUDWdfShaG+YeFH5bRtKDAnk64LqAH6w7RLlpWPQFw1SvfsM10OBGh0Gr1OJ9Q
hEZFPRlgdT8ygrzHHsZLXly3haPaCRBWri4pm8ccdFe2z49QPE5znQdOhi9SRpGv
avIB5vrO/jlKJWU+WgK0lqkPAcJKfigO5QcgKIqr/5CTK9iaVnVUO3wr+24=
-----END CERTIFICATE-----
