Certificate:
    Data:
        Version: 3 (0x2)
        Serial Number: 356 (0x164)
    Signature Algorithm: sha1WithRSAEncryption
        Issuer: C=US, ST=CA, L=SanFrancisco, O=Pixglo, Inc., OU=VPN-CIE, CN=tunnel.pixglo.com/name=Bala Chandrasekaran/emailAddress=bala@pixglo.com
        Validity
            Not Before: Feb 14 06:31:09 2018 GMT
            Not After : Feb 12 06:31:09 2028 GMT
        Subject: C=US, ST=CA, L=SanFrancisco, O=Pixglo, Inc., OU=VPN-CIE, CN=cie355/name=Bala Chandrasekaran/emailAddress=bala@pixglo.com
        Subject Public Key Info:
            Public Key Algorithm: rsaEncryption
                Public-Key: (4096 bit)
                Modulus:
                    00:c3:d7:9a:ab:a1:55:9c:0c:0d:5e:32:4c:67:2f:
                    b4:81:8c:b3:4f:7d:67:68:a7:7d:2d:2f:98:d0:73:
                    43:e0:d6:57:c5:a9:64:d8:5e:45:8b:57:53:4a:fc:
                    9d:e6:7c:87:ab:33:b4:d2:52:e7:48:4d:f3:ed:38:
                    7d:d5:a9:cc:e1:7a:6d:93:fc:69:6a:d7:ea:bb:4c:
                    63:59:e0:11:2e:4c:58:cf:d4:93:be:3f:79:4f:f2:
                    82:78:1d:84:a8:22:2c:66:e3:aa:98:67:71:71:46:
                    72:51:a9:ed:61:22:ab:57:12:f7:d4:fa:48:f9:be:
                    4f:84:c0:11:71:2e:d5:ae:65:f4:b4:a0:e1:b4:d9:
                    83:51:f1:e4:7f:23:52:89:1f:82:51:67:09:95:61:
                    84:27:a4:f8:cc:1b:d4:da:44:e4:f9:a0:e2:a4:50:
                    a4:2a:05:6c:97:f4:0c:5b:49:bd:48:96:46:4a:95:
                    32:08:3e:ca:56:34:59:ef:4f:5d:31:ea:ea:5e:4e:
                    1a:31:c2:10:81:1c:8f:26:78:f4:fd:d4:1a:10:64:
                    85:67:ed:88:58:89:78:1f:e9:15:0e:ee:93:ed:53:
                    65:9e:24:43:39:df:ef:ec:97:4c:dc:f4:79:20:f9:
                    b8:45:5f:e0:5c:30:e0:b3:e3:cf:5d:0e:28:84:b3:
                    17:dd:e5:ee:f4:ec:7f:2a:f0:7a:82:fd:b8:d0:6f:
                    6c:b3:98:24:4b:10:d2:02:88:fc:a7:7c:bc:32:3a:
                    9e:f5:6f:5b:76:ff:4c:8c:e3:3a:85:5a:cb:9c:44:
                    b7:ec:d7:48:52:ae:0f:25:af:1f:f1:b4:30:f1:05:
                    bb:6a:f1:b4:0c:7b:9b:d9:ac:e0:c7:1d:61:86:41:
                    a2:d9:a7:0b:16:fa:65:08:bd:79:f9:3f:d9:bc:5d:
                    ec:9b:f5:8f:59:62:70:70:12:4d:3b:c6:6d:f9:c1:
                    8e:42:90:cf:0f:36:ae:b0:ea:b2:9a:39:a9:e5:d8:
                    be:13:30:8f:93:5f:a6:23:c2:c4:6a:cc:94:6b:28:
                    11:2e:3c:b1:6d:7f:8b:6e:da:b6:e5:30:4c:e2:26:
                    01:b6:ca:2e:fd:9d:9f:0b:41:28:55:d0:d8:81:c0:
                    47:55:f5:00:78:a9:6d:5f:1b:46:23:3a:14:c9:b2:
                    ac:1c:41:b4:1c:ad:d0:d5:02:7c:1f:0c:1d:74:8e:
                    5c:7d:50:5e:72:ea:29:da:ac:34:66:4b:c5:3b:e9:
                    c6:1e:a9:03:94:1c:72:aa:75:66:e5:05:3c:d0:bf:
                    11:df:a6:6c:87:c1:1c:8b:83:14:5a:58:44:e7:06:
                    9b:02:78:72:f5:fe:aa:d7:5b:1a:a0:0d:99:0e:cb:
                    94:c0:09
                Exponent: 65537 (0x10001)
        X509v3 extensions:
            X509v3 Basic Constraints: 
                CA:FALSE
            Netscape Comment: 
                Easy-RSA Generated Certificate
            X509v3 Subject Key Identifier: 
                4E:13:BC:5D:92:10:5E:F1:6A:8A:80:4B:AE:F1:53:04:73:E7:11:14
            X509v3 Authority Key Identifier: 
                keyid:EF:38:8D:14:50:58:A7:5B:4D:9C:17:72:FC:DF:B9:AC:A7:51:B0:10
                DirName:/C=US/ST=CA/L=SanFrancisco/O=Pixglo, Inc./OU=VPN-CIE/CN=tunnel.pixglo.com/name=Bala Chandrasekaran/emailAddress=bala@pixglo.com
                serial:A6:DB:C6:83:80:E6:A0:79

            X509v3 Extended Key Usage: 
                TLS Web Client Authentication
            X509v3 Key Usage: 
                Digital Signature
    Signature Algorithm: sha1WithRSAEncryption
         ad:3f:f8:fe:d8:a8:da:3b:3e:c8:78:1a:74:98:f6:a9:e3:63:
         b1:13:c5:42:a1:58:7a:10:d0:28:b5:be:86:4e:ce:be:d7:4e:
         3d:49:1f:27:b3:8d:69:11:a7:20:45:97:21:88:df:10:83:44:
         a4:6f:32:92:69:d2:cb:d0:04:77:98:9d:ef:01:79:34:c8:58:
         38:fb:70:f6:01:01:9e:0f:b2:e8:e7:ca:8e:0c:f4:ce:58:01:
         df:58:de:4b:4f:67:51:1d:e1:d4:a0:de:55:bf:f0:fa:44:0e:
         c0:4b:ca:25:ae:ea:01:f8:5c:a0:d7:51:dc:70:13:93:49:23:
         88:c4:15:ca:fd:83:57:f4:e9:49:64:08:b9:e1:ad:3e:5f:95:
         f5:1b:fc:08:12:bb:ac:62:2f:c2:c8:80:03:d0:7f:9f:95:cc:
         8a:91:5c:b6:d8:f1:e3:ab:6b:81:4f:79:37:30:0e:5b:ae:23:
         ca:85:70:e6:15:71:46:23:58:6d:9b:f3:56:07:b0:94:81:68:
         e4:e6:80:f0:f4:58:16:d8:2f:53:00:ba:50:9e:51:45:11:ef:
         63:58:10:37:8c:d3:4a:4e:10:47:d1:4c:07:bb:f4:82:98:6e:
         54:ed:f0:7c:d0:0c:e9:6d:da:e0:d1:09:82:14:1e:ab:17:e3:
         2b:24:6c:ba:09:83:69:40:5a:50:5c:75:32:db:d5:4f:09:c6:
         b6:82:52:eb:40:07:f1:89:af:b2:c3:57:db:d1:07:e8:a5:21:
         ef:dd:c2:d3:cb:bd:a7:3a:68:6e:39:45:b0:5b:15:2a:78:18:
         26:de:68:56:de:87:0b:17:44:8d:09:ce:ca:72:7b:dc:c6:d1:
         65:58:41:6b:f4:bd:84:b7:ce:fb:e5:92:f4:6b:7b:3e:e8:9c:
         cc:aa:37:16:1e:d2:05:82:d5:a0:6d:07:ed:0d:4d:bc:44:93:
         35:68:87:0c:c5:4c:c0:3a:3d:e0:15:2a:bd:11:2b:84:78:ec:
         10:59:fc:d7:dd:2c:7a:34:ac:58:99:21:bc:71:b5:38:3b:f3:
         4c:c2:66:cb:a8:db:fe:f4:e6:43:a5:12:3b:78:71:bd:c2:06:
         a4:40:2f:5a:09:d0:42:a2:af:c7:86:4f:ba:67:23:25:a5:20:
         e2:ab:57:39:07:fb:f6:4b:4d:87:e0:6c:b6:4d:63:9a:0d:01:
         3a:32:d8:29:7d:dc:0a:29:f7:e4:26:c4:06:dd:7c:4a:16:f6:
         38:ea:8e:21:06:4f:4e:ee:a8:fb:51:07:6a:72:31:98:83:a8:
         f0:83:5d:9e:c5:24:78:29:0a:fd:6f:9b:97:f6:8e:04:a5:3e:
         cc:d1:2e:65:2a:f3:23:76
-----BEGIN CERTIFICATE-----
MIIHSDCCBTCgAwIBAgICAWQwDQYJKoZIhvcNAQEFBQAwgbQxCzAJBgNVBAYTAlVT
MQswCQYDVQQIEwJDQTEVMBMGA1UEBxMMU2FuRnJhbmNpc2NvMRUwEwYDVQQKEwxQ
aXhnbG8sIEluYy4xEDAOBgNVBAsTB1ZQTi1DSUUxGjAYBgNVBAMTEXR1bm5lbC5w
aXhnbG8uY29tMRwwGgYDVQQpExNCYWxhIENoYW5kcmFzZWthcmFuMR4wHAYJKoZI
hvcNAQkBFg9iYWxhQHBpeGdsby5jb20wHhcNMTgwMjE0MDYzMTA5WhcNMjgwMjEy
MDYzMTA5WjCBqTELMAkGA1UEBhMCVVMxCzAJBgNVBAgTAkNBMRUwEwYDVQQHEwxT
YW5GcmFuY2lzY28xFTATBgNVBAoTDFBpeGdsbywgSW5jLjEQMA4GA1UECxMHVlBO
LUNJRTEPMA0GA1UEAxMGY2llMzU1MRwwGgYDVQQpExNCYWxhIENoYW5kcmFzZWth
cmFuMR4wHAYJKoZIhvcNAQkBFg9iYWxhQHBpeGdsby5jb20wggIiMA0GCSqGSIb3
DQEBAQUAA4ICDwAwggIKAoICAQDD15qroVWcDA1eMkxnL7SBjLNPfWdop30tL5jQ
c0Pg1lfFqWTYXkWLV1NK/J3mfIerM7TSUudITfPtOH3Vqczhem2T/Glq1+q7TGNZ
4BEuTFjP1JO+P3lP8oJ4HYSoIixm46qYZ3FxRnJRqe1hIqtXEvfU+kj5vk+EwBFx
LtWuZfS0oOG02YNR8eR/I1KJH4JRZwmVYYQnpPjMG9TaROT5oOKkUKQqBWyX9Axb
Sb1IlkZKlTIIPspWNFnvT10x6upeThoxwhCBHI8mePT91BoQZIVn7YhYiXgf6RUO
7pPtU2WeJEM53+/sl0zc9Hkg+bhFX+BcMOCz489dDiiEsxfd5e707H8q8HqC/bjQ
b2yzmCRLENICiPynfLwyOp71b1t2/0yM4zqFWsucRLfs10hSrg8lrx/xtDDxBbtq
8bQMe5vZrODHHWGGQaLZpwsW+mUIvXn5P9m8Xeyb9Y9ZYnBwEk07xm35wY5CkM8P
Nq6w6rKaOanl2L4TMI+TX6YjwsRqzJRrKBEuPLFtf4tu2rblMEziJgG2yi79nZ8L
QShV0NiBwEdV9QB4qW1fG0YjOhTJsqwcQbQcrdDVAnwfDB10jlx9UF5y6inarDRm
S8U76cYeqQOUHHKqdWblBTzQvxHfpmyHwRyLgxRaWETnBpsCeHL1/qrXWxqgDZkO
y5TACQIDAQABo4IBazCCAWcwCQYDVR0TBAIwADAtBglghkgBhvhCAQ0EIBYeRWFz
eS1SU0EgR2VuZXJhdGVkIENlcnRpZmljYXRlMB0GA1UdDgQWBBROE7xdkhBe8WqK
gEuu8VMEc+cRFDCB6QYDVR0jBIHhMIHegBTvOI0UUFinW02cF3L837msp1GwEKGB
uqSBtzCBtDELMAkGA1UEBhMCVVMxCzAJBgNVBAgTAkNBMRUwEwYDVQQHEwxTYW5G
cmFuY2lzY28xFTATBgNVBAoTDFBpeGdsbywgSW5jLjEQMA4GA1UECxMHVlBOLUNJ
RTEaMBgGA1UEAxMRdHVubmVsLnBpeGdsby5jb20xHDAaBgNVBCkTE0JhbGEgQ2hh
bmRyYXNla2FyYW4xHjAcBgkqhkiG9w0BCQEWD2JhbGFAcGl4Z2xvLmNvbYIJAKbb
xoOA5qB5MBMGA1UdJQQMMAoGCCsGAQUFBwMCMAsGA1UdDwQEAwIHgDANBgkqhkiG
9w0BAQUFAAOCAgEArT/4/tio2js+yHgadJj2qeNjsRPFQqFYehDQKLW+hk7OvtdO
PUkfJ7ONaRGnIEWXIYjfEINEpG8ykmnSy9AEd5id7wF5NMhYOPtw9gEBng+y6OfK
jgz0zlgB31jeS09nUR3h1KDeVb/w+kQOwEvKJa7qAfhcoNdR3HATk0kjiMQVyv2D
V/TpSWQIueGtPl+V9Rv8CBK7rGIvwsiAA9B/n5XMipFcttjx46trgU95NzAOW64j
yoVw5hVxRiNYbZvzVgewlIFo5OaA8PRYFtgvUwC6UJ5RRRHvY1gQN4zTSk4QR9FM
B7v0gphuVO3wfNAM6W3a4NEJghQeqxfjKyRsugmDaUBaUFx1MtvVTwnGtoJS60AH
8YmvssNX29EH6KUh793C08u9pzpobjlFsFsVKngYJt5oVt6HCxdEjQnOynJ73MbR
ZVhBa/S9hLfO++WS9Gt7PuiczKo3Fh7SBYLVoG0H7Q1NvESTNWiHDMVMwDo94BUq
vRErhHjsEFn8190sejSsWJkhvHG1ODvzTMJmy6jb/vTmQ6USO3hxvcIGpEAvWgnQ
QqKvx4ZPumcjJaUg4qtXOQf79ktNh+Bstk1jmg0BOjLYKX3cCin35CbEBt18Shb2
OOqOIQZPTu6o+1EHanIxmIOo8INdnsUkeCkK/W+bl/aOBKU+zNEuZSrzI3Y=
-----END CERTIFICATE-----
