Certificate:
    Data:
        Version: 3 (0x2)
        Serial Number: 360 (0x168)
    Signature Algorithm: sha1WithRSAEncryption
        Issuer: C=US, ST=CA, L=SanFrancisco, O=Pixglo, Inc., OU=VPN-CIE, CN=tunnel.pixglo.com/name=Bala Chandrasekaran/emailAddress=bala@pixglo.com
        Validity
            Not Before: Feb 14 06:31:19 2018 GMT
            Not After : Feb 12 06:31:19 2028 GMT
        Subject: C=US, ST=CA, L=SanFrancisco, O=Pixglo, Inc., OU=VPN-CIE, CN=cie359/name=Bala Chandrasekaran/emailAddress=bala@pixglo.com
        Subject Public Key Info:
            Public Key Algorithm: rsaEncryption
                Public-Key: (4096 bit)
                Modulus:
                    00:ce:1f:9c:76:9d:7f:e8:bb:20:cc:51:6a:16:9f:
                    2e:d5:2a:fd:14:5b:f0:ca:39:44:b3:b2:3d:f2:cc:
                    63:27:56:d1:c2:88:2f:fd:5f:75:72:b8:3c:5d:7c:
                    d5:c2:cc:49:e2:4c:09:12:2b:7f:bc:97:7a:e2:6a:
                    0b:73:84:0b:8b:c8:3e:e3:02:98:5e:55:5e:35:1b:
                    f0:cf:b8:e9:5b:da:eb:a2:d2:47:95:fa:62:6f:d2:
                    d4:a9:fa:a9:7b:25:80:ae:36:76:ae:e6:b0:77:6e:
                    fd:11:37:ca:e7:10:15:ad:c4:5b:d2:b9:2a:13:80:
                    eb:eb:66:7c:a9:70:e5:f1:ef:fd:e8:09:5c:84:ae:
                    34:6a:73:39:24:58:f2:f1:d9:93:d8:b7:bb:4f:53:
                    f1:a9:af:29:24:a9:5a:6f:51:a9:27:a2:7e:4e:3c:
                    b3:bb:c5:be:d2:38:5c:40:91:03:4b:51:8f:93:89:
                    7f:72:e8:dc:5a:62:47:80:bb:7e:e3:fd:79:c6:75:
                    3d:a7:64:a5:95:68:51:34:61:1f:6a:dd:37:22:ad:
                    77:82:ae:04:47:a5:52:dc:db:af:6f:8e:75:5b:20:
                    35:fb:c6:0d:70:1e:c3:75:8e:dd:15:68:f8:d8:43:
                    ad:71:e8:b4:7f:21:52:68:b2:7f:fb:1f:02:bb:4f:
                    fc:1d:bc:9f:fc:18:fc:ed:fc:bc:54:82:cb:ea:7f:
                    da:9b:7f:94:e1:81:28:3f:00:de:be:8d:bd:9e:0e:
                    3e:6d:10:96:00:0a:55:32:ea:c8:a1:8f:64:b2:db:
                    99:e3:55:72:4c:aa:1a:2d:3a:32:1c:25:be:2b:48:
                    23:96:be:f2:23:cd:80:b7:38:43:a3:9c:ec:73:5d:
                    7f:7c:58:53:ec:d3:6c:f4:9f:b3:29:f5:7e:55:fc:
                    e2:58:36:5d:91:42:cd:26:1b:e1:39:f6:6b:ff:99:
                    ca:33:cd:0e:ee:92:c1:61:29:8b:fe:cd:59:6d:97:
                    3f:0b:af:95:8e:15:f8:9b:4f:bc:2b:13:f3:6d:49:
                    a5:b6:db:31:90:9c:f9:6b:38:fd:e3:c6:9c:7a:2e:
                    24:56:c0:2f:d9:84:09:2e:99:91:10:6b:c0:d2:d0:
                    cf:a3:a6:26:be:4e:3a:19:70:04:1f:e6:5c:b6:b0:
                    20:35:b2:c6:dd:55:46:47:f2:64:dd:67:20:aa:a6:
                    24:dc:87:9a:15:ea:dd:e6:5c:71:7d:bd:e2:d4:b5:
                    2e:1f:c1:82:90:0b:40:ce:33:26:e5:73:a3:fe:28:
                    d7:e7:b2:5e:b2:ba:f1:67:e3:11:8b:5b:10:51:9b:
                    12:ba:0a:a1:53:f8:09:33:ac:d5:09:9e:5a:dd:2f:
                    90:ec:e7
                Exponent: 65537 (0x10001)
        X509v3 extensions:
            X509v3 Basic Constraints: 
                CA:FALSE
            Netscape Comment: 
                Easy-RSA Generated Certificate
            X509v3 Subject Key Identifier: 
                82:08:EE:8B:D0:4D:2B:81:27:B2:21:3B:01:E3:FF:1A:D5:86:D0:9E
            X509v3 Authority Key Identifier: 
                keyid:EF:38:8D:14:50:58:A7:5B:4D:9C:17:72:FC:DF:B9:AC:A7:51:B0:10
                DirName:/C=US/ST=CA/L=SanFrancisco/O=Pixglo, Inc./OU=VPN-CIE/CN=tunnel.pixglo.com/name=Bala Chandrasekaran/emailAddress=bala@pixglo.com
                serial:A6:DB:C6:83:80:E6:A0:79

            X509v3 Extended Key Usage: 
                TLS Web Client Authentication
            X509v3 Key Usage: 
                Digital Signature
    Signature Algorithm: sha1WithRSAEncryption
         4e:e3:4d:c4:cc:ae:54:c3:b2:fa:65:43:64:6f:54:8a:9a:4d:
         fc:ed:4d:05:cf:15:85:a7:28:59:cb:fb:75:a0:64:58:a7:c9:
         ca:7a:82:00:b1:8a:a1:75:4f:13:aa:b6:bc:65:fa:85:7e:1e:
         ba:00:04:5d:3c:c0:13:28:d6:81:31:26:25:48:3c:45:2a:4b:
         69:9c:4d:a0:7a:71:7f:01:43:e5:44:ea:01:09:88:5f:60:71:
         26:e1:cf:6e:1d:45:03:c7:91:f2:81:5a:25:b9:bc:20:34:0a:
         37:b7:a4:7c:0e:bd:69:a5:cb:fc:42:58:8d:61:20:06:48:ea:
         d8:e0:58:4e:2f:06:45:08:04:0b:0f:22:f2:83:e2:33:70:d9:
         d3:21:44:7c:58:14:c1:f3:24:69:0c:eb:fb:90:1d:f7:65:c6:
         e7:d7:4c:79:25:d4:2b:87:29:c2:86:4e:20:0d:42:03:ae:be:
         28:cd:d5:06:49:76:7d:7b:e5:22:97:1e:5a:5a:4f:c5:d1:37:
         65:82:ba:9d:67:d2:f4:56:7b:66:51:b9:df:28:4e:00:f5:1a:
         1c:98:3f:16:dd:f2:4a:c6:02:4c:59:11:69:9c:7e:77:21:41:
         0a:db:44:24:fb:6e:a2:d9:f9:36:65:b0:11:52:7e:3a:44:c0:
         61:72:37:d3:20:57:c7:cd:48:4a:91:a5:5d:09:4b:09:56:04:
         cf:8c:87:ea:b7:e1:fd:1b:eb:e9:5e:f0:2a:2a:89:79:2a:2e:
         07:d1:29:c2:51:32:6e:1e:a6:75:57:fc:b5:df:74:5d:80:b7:
         5b:5a:a0:90:cd:b0:3d:a4:7c:2b:c6:2f:8e:7a:8d:b0:0f:e0:
         7d:76:79:88:62:bd:3a:7e:bb:78:e0:af:0e:41:f2:4e:9d:db:
         c9:31:b8:77:e0:55:2b:80:a3:b9:58:5d:49:7a:41:30:bf:9d:
         50:35:cb:7c:07:ec:70:31:a5:9d:33:e0:47:7e:18:50:c5:19:
         ba:f9:52:26:ba:8a:45:0b:58:a0:24:fd:6e:d8:95:c4:46:d7:
         e5:03:fb:3d:10:a2:b6:12:d6:18:6a:e1:5d:89:ef:c0:74:6e:
         01:6c:8f:29:ab:c4:f1:ab:cf:2f:6b:e0:fa:08:ac:e9:58:fb:
         3d:b4:e2:8a:bc:c2:42:c5:4d:26:00:bf:f0:18:ca:8d:19:c4:
         c7:14:2a:50:d9:18:a9:1e:44:88:43:40:a1:77:5b:05:d1:40:
         96:a3:c0:ff:9d:88:39:ed:fa:ce:d9:e8:16:cd:60:c5:e0:37:
         28:c1:d2:25:d7:41:a5:ca:ff:42:a6:ed:bf:e1:66:d8:25:9d:
         38:1e:8f:14:ca:cc:3a:5b
-----BEGIN CERTIFICATE-----
MIIHSDCCBTCgAwIBAgICAWgwDQYJKoZIhvcNAQEFBQAwgbQxCzAJBgNVBAYTAlVT
MQswCQYDVQQIEwJDQTEVMBMGA1UEBxMMU2FuRnJhbmNpc2NvMRUwEwYDVQQKEwxQ
aXhnbG8sIEluYy4xEDAOBgNVBAsTB1ZQTi1DSUUxGjAYBgNVBAMTEXR1bm5lbC5w
aXhnbG8uY29tMRwwGgYDVQQpExNCYWxhIENoYW5kcmFzZWthcmFuMR4wHAYJKoZI
hvcNAQkBFg9iYWxhQHBpeGdsby5jb20wHhcNMTgwMjE0MDYzMTE5WhcNMjgwMjEy
MDYzMTE5WjCBqTELMAkGA1UEBhMCVVMxCzAJBgNVBAgTAkNBMRUwEwYDVQQHEwxT
YW5GcmFuY2lzY28xFTATBgNVBAoTDFBpeGdsbywgSW5jLjEQMA4GA1UECxMHVlBO
LUNJRTEPMA0GA1UEAxMGY2llMzU5MRwwGgYDVQQpExNCYWxhIENoYW5kcmFzZWth
cmFuMR4wHAYJKoZIhvcNAQkBFg9iYWxhQHBpeGdsby5jb20wggIiMA0GCSqGSIb3
DQEBAQUAA4ICDwAwggIKAoICAQDOH5x2nX/ouyDMUWoWny7VKv0UW/DKOUSzsj3y
zGMnVtHCiC/9X3VyuDxdfNXCzEniTAkSK3+8l3riagtzhAuLyD7jApheVV41G/DP
uOlb2uui0keV+mJv0tSp+ql7JYCuNnau5rB3bv0RN8rnEBWtxFvSuSoTgOvrZnyp
cOXx7/3oCVyErjRqczkkWPLx2ZPYt7tPU/GprykkqVpvUaknon5OPLO7xb7SOFxA
kQNLUY+TiX9y6NxaYkeAu37j/XnGdT2nZKWVaFE0YR9q3TcirXeCrgRHpVLc269v
jnVbIDX7xg1wHsN1jt0VaPjYQ61x6LR/IVJosn/7HwK7T/wdvJ/8GPzt/LxUgsvq
f9qbf5ThgSg/AN6+jb2eDj5tEJYAClUy6sihj2Sy25njVXJMqhotOjIcJb4rSCOW
vvIjzYC3OEOjnOxzXX98WFPs02z0n7Mp9X5V/OJYNl2RQs0mG+E59mv/mcozzQ7u
ksFhKYv+zVltlz8Lr5WOFfibT7wrE/NtSaW22zGQnPlrOP3jxpx6LiRWwC/ZhAku
mZEQa8DS0M+jpia+TjoZcAQf5ly2sCA1ssbdVUZH8mTdZyCqpiTch5oV6t3mXHF9
veLUtS4fwYKQC0DOMyblc6P+KNfnsl6yuvFn4xGLWxBRmxK6CqFT+AkzrNUJnlrd
L5Ds5wIDAQABo4IBazCCAWcwCQYDVR0TBAIwADAtBglghkgBhvhCAQ0EIBYeRWFz
eS1SU0EgR2VuZXJhdGVkIENlcnRpZmljYXRlMB0GA1UdDgQWBBSCCO6L0E0rgSey
ITsB4/8a1YbQnjCB6QYDVR0jBIHhMIHegBTvOI0UUFinW02cF3L837msp1GwEKGB
uqSBtzCBtDELMAkGA1UEBhMCVVMxCzAJBgNVBAgTAkNBMRUwEwYDVQQHEwxTYW5G
cmFuY2lzY28xFTATBgNVBAoTDFBpeGdsbywgSW5jLjEQMA4GA1UECxMHVlBOLUNJ
RTEaMBgGA1UEAxMRdHVubmVsLnBpeGdsby5jb20xHDAaBgNVBCkTE0JhbGEgQ2hh
bmRyYXNla2FyYW4xHjAcBgkqhkiG9w0BCQEWD2JhbGFAcGl4Z2xvLmNvbYIJAKbb
xoOA5qB5MBMGA1UdJQQMMAoGCCsGAQUFBwMCMAsGA1UdDwQEAwIHgDANBgkqhkiG
9w0BAQUFAAOCAgEATuNNxMyuVMOy+mVDZG9UippN/O1NBc8VhacoWcv7daBkWKfJ
ynqCALGKoXVPE6q2vGX6hX4eugAEXTzAEyjWgTEmJUg8RSpLaZxNoHpxfwFD5UTq
AQmIX2BxJuHPbh1FA8eR8oFaJbm8IDQKN7ekfA69aaXL/EJYjWEgBkjq2OBYTi8G
RQgECw8i8oPiM3DZ0yFEfFgUwfMkaQzr+5Ad92XG59dMeSXUK4cpwoZOIA1CA66+
KM3VBkl2fXvlIpceWlpPxdE3ZYK6nWfS9FZ7ZlG53yhOAPUaHJg/Ft3ySsYCTFkR
aZx+dyFBCttEJPtuotn5NmWwEVJ+OkTAYXI30yBXx81ISpGlXQlLCVYEz4yH6rfh
/Rvr6V7wKiqJeSouB9EpwlEybh6mdVf8td90XYC3W1qgkM2wPaR8K8YvjnqNsA/g
fXZ5iGK9On67eOCvDkHyTp3byTG4d+BVK4CjuVhdSXpBML+dUDXLfAfscDGlnTPg
R34YUMUZuvlSJrqKRQtYoCT9btiVxEbX5QP7PRCithLWGGrhXYnvwHRuAWyPKavE
8avPL2vg+gis6Vj7PbTiirzCQsVNJgC/8BjKjRnExxQqUNkYqR5EiENAoXdbBdFA
lqPA/52IOe36ztnoFs1gxeA3KMHSJddBpcr/Qqbtv+Fm2CWdOB6PFMrMOls=
-----END CERTIFICATE-----
