Certificate:
    Data:
        Version: 3 (0x2)
        Serial Number: 361 (0x169)
    Signature Algorithm: sha1WithRSAEncryption
        Issuer: C=US, ST=CA, L=SanFrancisco, O=Pixglo, Inc., OU=VPN-CIE, CN=tunnel.pixglo.com/name=Bala Chandrasekaran/emailAddress=bala@pixglo.com
        Validity
            Not Before: Feb 14 06:31:22 2018 GMT
            Not After : Feb 12 06:31:22 2028 GMT
        Subject: C=US, ST=CA, L=SanFrancisco, O=Pixglo, Inc., OU=VPN-CIE, CN=cie360/name=Bala Chandrasekaran/emailAddress=bala@pixglo.com
        Subject Public Key Info:
            Public Key Algorithm: rsaEncryption
                Public-Key: (4096 bit)
                Modulus:
                    00:9c:0f:f9:7f:34:e9:f1:10:ac:a5:40:ed:10:a5:
                    a3:fd:e0:c0:10:02:a9:27:e6:55:62:5a:97:9c:2f:
                    b1:5a:ce:66:b7:65:6d:01:e9:0f:2c:47:b8:af:3f:
                    4d:cd:d7:56:dc:3d:2d:9c:07:66:e7:e7:67:f2:80:
                    30:43:9a:60:61:93:b2:59:e5:b4:6d:9f:2d:7f:d1:
                    69:f3:60:c9:92:29:db:d5:e9:7f:ba:78:a5:2d:14:
                    f7:4b:5a:0e:89:5e:a7:c1:0a:04:30:24:96:a0:ad:
                    71:74:4e:c1:e5:a2:7c:5d:0e:ee:0b:9e:e8:fc:8b:
                    26:d9:d2:5e:85:54:bf:36:8b:5c:e8:16:5f:24:95:
                    9a:fd:3c:78:1e:06:d1:c9:2c:60:9b:45:ca:0d:49:
                    92:46:2a:68:93:3f:c1:b6:d4:f6:7b:b0:90:95:70:
                    4d:13:ad:b9:39:9a:6c:bf:77:bb:59:c7:f2:ad:e9:
                    32:94:98:ea:c4:ee:1a:2d:f1:3e:f0:cc:ac:cf:28:
                    f8:23:9c:c3:f4:1c:32:a3:f4:ca:1d:37:b6:bb:ae:
                    f8:73:90:43:ff:b1:de:ef:91:c0:68:cf:1a:53:c6:
                    cd:84:7a:04:45:d2:78:f5:d2:b8:4a:58:b5:fb:ce:
                    8f:21:a0:3c:a4:08:a9:9d:ac:e2:29:b2:3d:73:7c:
                    cf:10:3b:25:31:78:a5:2c:3d:c4:fa:14:5b:78:78:
                    fc:87:ff:15:1c:b7:58:6a:98:ae:ca:0e:0a:2b:1a:
                    90:7a:ff:9c:2d:7c:3a:6b:7a:5b:e4:2f:56:05:64:
                    d4:69:e6:40:3e:45:81:aa:0c:32:d0:cc:3c:49:5c:
                    28:36:09:03:07:a4:60:27:27:39:8e:36:ba:c4:db:
                    45:8a:30:5c:6d:ae:40:46:9c:78:e0:24:92:f8:2b:
                    c1:dd:75:53:91:58:e0:cb:7e:91:02:86:56:53:e4:
                    a9:95:7a:7e:64:b0:43:88:86:34:df:cf:e2:8b:f0:
                    42:cf:46:f6:47:d3:8e:eb:9e:09:6e:3b:73:4a:8c:
                    44:e4:b7:36:44:68:ff:5c:14:fc:4c:c8:d7:6f:ff:
                    20:84:c4:4d:27:83:03:96:a7:cd:8b:58:0d:27:f2:
                    69:32:e6:4d:0d:66:1c:76:33:31:ad:aa:89:d9:b2:
                    cc:1c:56:26:1d:34:8c:ca:5f:12:bc:78:3d:6c:e5:
                    e5:5e:6c:64:fa:f2:35:cc:60:57:ca:ef:89:d1:06:
                    c8:e8:0b:d4:c3:1b:15:36:80:72:e1:ae:5f:30:7f:
                    5d:c8:fc:74:22:fc:d8:1a:e5:7f:bf:0a:55:93:24:
                    be:ad:e4:2d:b3:5d:c9:c5:04:cc:06:4e:14:36:24:
                    d5:25:93
                Exponent: 65537 (0x10001)
        X509v3 extensions:
            X509v3 Basic Constraints: 
                CA:FALSE
            Netscape Comment: 
                Easy-RSA Generated Certificate
            X509v3 Subject Key Identifier: 
                B6:6D:97:A0:29:57:27:AA:33:67:CF:C2:50:DD:27:E3:84:59:7E:C2
            X509v3 Authority Key Identifier: 
                keyid:EF:38:8D:14:50:58:A7:5B:4D:9C:17:72:FC:DF:B9:AC:A7:51:B0:10
                DirName:/C=US/ST=CA/L=SanFrancisco/O=Pixglo, Inc./OU=VPN-CIE/CN=tunnel.pixglo.com/name=Bala Chandrasekaran/emailAddress=bala@pixglo.com
                serial:A6:DB:C6:83:80:E6:A0:79

            X509v3 Extended Key Usage: 
                TLS Web Client Authentication
            X509v3 Key Usage: 
                Digital Signature
    Signature Algorithm: sha1WithRSAEncryption
         55:85:a5:a4:82:05:a8:f7:ed:62:85:14:6e:c8:2e:70:21:66:
         e9:fb:92:f5:71:4e:45:87:2e:69:d8:fd:d9:c2:5e:7e:b6:65:
         fc:3d:64:5b:54:d5:13:60:19:7a:58:a6:33:7e:66:52:b7:21:
         47:49:de:b8:ce:2f:82:b9:48:f4:82:26:fd:39:20:6f:80:fa:
         56:cf:e3:91:92:c7:ac:28:c6:1c:33:2e:b2:4d:c9:11:05:15:
         02:23:67:99:8e:cf:43:e9:bb:1c:18:ba:96:bb:7e:0d:6d:1c:
         e9:c2:49:33:82:ec:63:31:d7:18:25:40:be:29:d1:fd:d1:b7:
         ec:bd:15:cf:a4:a8:eb:c9:a1:c6:0a:35:36:72:a6:06:3c:73:
         a8:2e:e8:0a:c5:59:88:39:78:e7:63:ad:9a:ed:88:9f:f8:a9:
         54:b2:35:54:ed:a7:e4:a9:5f:cd:38:24:76:72:15:28:ec:f0:
         14:77:a1:21:1c:8e:90:1a:df:74:6c:83:c8:03:c9:b8:04:bb:
         59:33:3c:2c:a7:c0:fa:96:ad:9c:fd:59:56:59:d2:70:8c:07:
         cb:66:46:c5:2a:dd:49:e9:82:bc:56:57:19:60:5d:55:b2:85:
         f6:7d:64:9f:2f:b3:90:05:f2:f6:1b:f8:2b:19:a3:fc:93:e8:
         a9:dc:f2:0d:82:cd:d8:d9:d8:06:16:52:e4:92:0f:f0:36:da:
         39:61:fd:87:42:7f:b1:e1:c3:88:37:8d:13:1e:8a:e6:f3:be:
         5b:18:c2:a4:48:76:fd:41:1b:11:27:17:05:00:30:18:d8:b0:
         87:9f:31:06:d4:31:2d:76:04:6a:7d:4e:26:0f:3f:71:04:db:
         50:44:38:0c:3d:33:c3:65:96:4e:dc:52:4c:33:78:d8:7c:30:
         a2:c3:2a:7a:5a:1e:67:54:3c:d7:54:3f:d8:6f:63:c0:c5:6d:
         f8:9d:c8:de:48:b0:26:60:6f:d4:10:87:33:0d:95:d4:91:3d:
         f0:2a:e6:a9:24:73:ba:7f:17:65:3a:82:2e:ec:71:1b:4d:44:
         23:5d:62:86:9c:99:36:1a:72:0c:47:52:e1:be:80:69:2d:4f:
         23:e5:40:aa:73:0e:9e:c5:31:41:58:32:49:07:99:ce:d9:54:
         fe:74:e2:93:56:b1:49:8b:46:3e:d4:49:5a:3c:db:85:7f:6b:
         6a:a9:62:03:73:38:5e:7e:ee:47:01:1f:b1:22:73:d7:d1:cd:
         ab:3e:5f:93:6f:74:f4:91:3f:91:69:74:b8:28:74:99:8e:16:
         20:75:33:30:bc:3f:07:b1:89:76:5d:7e:ef:d1:fe:45:d0:fd:
         2a:5c:12:a8:3f:97:f6:ce
-----BEGIN CERTIFICATE-----
MIIHSDCCBTCgAwIBAgICAWkwDQYJKoZIhvcNAQEFBQAwgbQxCzAJBgNVBAYTAlVT
MQswCQYDVQQIEwJDQTEVMBMGA1UEBxMMU2FuRnJhbmNpc2NvMRUwEwYDVQQKEwxQ
aXhnbG8sIEluYy4xEDAOBgNVBAsTB1ZQTi1DSUUxGjAYBgNVBAMTEXR1bm5lbC5w
aXhnbG8uY29tMRwwGgYDVQQpExNCYWxhIENoYW5kcmFzZWthcmFuMR4wHAYJKoZI
hvcNAQkBFg9iYWxhQHBpeGdsby5jb20wHhcNMTgwMjE0MDYzMTIyWhcNMjgwMjEy
MDYzMTIyWjCBqTELMAkGA1UEBhMCVVMxCzAJBgNVBAgTAkNBMRUwEwYDVQQHEwxT
YW5GcmFuY2lzY28xFTATBgNVBAoTDFBpeGdsbywgSW5jLjEQMA4GA1UECxMHVlBO
LUNJRTEPMA0GA1UEAxMGY2llMzYwMRwwGgYDVQQpExNCYWxhIENoYW5kcmFzZWth
cmFuMR4wHAYJKoZIhvcNAQkBFg9iYWxhQHBpeGdsby5jb20wggIiMA0GCSqGSIb3
DQEBAQUAA4ICDwAwggIKAoICAQCcD/l/NOnxEKylQO0QpaP94MAQAqkn5lViWpec
L7Fazma3ZW0B6Q8sR7ivP03N11bcPS2cB2bn52fygDBDmmBhk7JZ5bRtny1/0Wnz
YMmSKdvV6X+6eKUtFPdLWg6JXqfBCgQwJJagrXF0TsHlonxdDu4Lnuj8iybZ0l6F
VL82i1zoFl8klZr9PHgeBtHJLGCbRcoNSZJGKmiTP8G21PZ7sJCVcE0Trbk5mmy/
d7tZx/Kt6TKUmOrE7hot8T7wzKzPKPgjnMP0HDKj9ModN7a7rvhzkEP/sd7vkcBo
zxpTxs2EegRF0nj10rhKWLX7zo8hoDykCKmdrOIpsj1zfM8QOyUxeKUsPcT6FFt4
ePyH/xUct1hqmK7KDgorGpB6/5wtfDprelvkL1YFZNRp5kA+RYGqDDLQzDxJXCg2
CQMHpGAnJzmONrrE20WKMFxtrkBGnHjgJJL4K8HddVORWODLfpEChlZT5KmVen5k
sEOIhjTfz+KL8ELPRvZH047rngluO3NKjETktzZEaP9cFPxMyNdv/yCExE0ngwOW
p82LWA0n8mky5k0NZhx2MzGtqonZsswcViYdNIzKXxK8eD1s5eVebGT68jXMYFfK
74nRBsjoC9TDGxU2gHLhrl8wf13I/HQi/Nga5X+/ClWTJL6t5C2zXcnFBMwGThQ2
JNUlkwIDAQABo4IBazCCAWcwCQYDVR0TBAIwADAtBglghkgBhvhCAQ0EIBYeRWFz
eS1SU0EgR2VuZXJhdGVkIENlcnRpZmljYXRlMB0GA1UdDgQWBBS2bZegKVcnqjNn
z8JQ3SfjhFl+wjCB6QYDVR0jBIHhMIHegBTvOI0UUFinW02cF3L837msp1GwEKGB
uqSBtzCBtDELMAkGA1UEBhMCVVMxCzAJBgNVBAgTAkNBMRUwEwYDVQQHEwxTYW5G
cmFuY2lzY28xFTATBgNVBAoTDFBpeGdsbywgSW5jLjEQMA4GA1UECxMHVlBOLUNJ
RTEaMBgGA1UEAxMRdHVubmVsLnBpeGdsby5jb20xHDAaBgNVBCkTE0JhbGEgQ2hh
bmRyYXNla2FyYW4xHjAcBgkqhkiG9w0BCQEWD2JhbGFAcGl4Z2xvLmNvbYIJAKbb
xoOA5qB5MBMGA1UdJQQMMAoGCCsGAQUFBwMCMAsGA1UdDwQEAwIHgDANBgkqhkiG
9w0BAQUFAAOCAgEAVYWlpIIFqPftYoUUbsgucCFm6fuS9XFORYcuadj92cJefrZl
/D1kW1TVE2AZelimM35mUrchR0neuM4vgrlI9IIm/Tkgb4D6Vs/jkZLHrCjGHDMu
sk3JEQUVAiNnmY7PQ+m7HBi6lrt+DW0c6cJJM4LsYzHXGCVAvinR/dG37L0Vz6So
68mhxgo1NnKmBjxzqC7oCsVZiDl452Otmu2In/ipVLI1VO2n5KlfzTgkdnIVKOzw
FHehIRyOkBrfdGyDyAPJuAS7WTM8LKfA+patnP1ZVlnScIwHy2ZGxSrdSemCvFZX
GWBdVbKF9n1kny+zkAXy9hv4Kxmj/JPoqdzyDYLN2NnYBhZS5JIP8DbaOWH9h0J/
seHDiDeNEx6K5vO+WxjCpEh2/UEbEScXBQAwGNiwh58xBtQxLXYEan1OJg8/cQTb
UEQ4DD0zw2WWTtxSTDN42HwwosMqeloeZ1Q811Q/2G9jwMVt+J3I3kiwJmBv1BCH
Mw2V1JE98CrmqSRzun8XZTqCLuxxG01EI11ihpyZNhpyDEdS4b6AaS1PI+VAqnMO
nsUxQVgySQeZztlU/nTik1axSYtGPtRJWjzbhX9raqliA3M4Xn7uRwEfsSJz19HN
qz5fk2909JE/kWl0uCh0mY4WIHUzMLw/B7GJdl1+79H+RdD9KlwSqD+X9s4=
-----END CERTIFICATE-----
