Certificate:
    Data:
        Version: 3 (0x2)
        Serial Number: 363 (0x16b)
    Signature Algorithm: sha1WithRSAEncryption
        Issuer: C=US, ST=CA, L=SanFrancisco, O=Pixglo, Inc., OU=VPN-CIE, CN=tunnel.pixglo.com/name=Bala Chandrasekaran/emailAddress=bala@pixglo.com
        Validity
            Not Before: Feb 14 06:31:25 2018 GMT
            Not After : Feb 12 06:31:25 2028 GMT
        Subject: C=US, ST=CA, L=SanFrancisco, O=Pixglo, Inc., OU=VPN-CIE, CN=cie362/name=Bala Chandrasekaran/emailAddress=bala@pixglo.com
        Subject Public Key Info:
            Public Key Algorithm: rsaEncryption
                Public-Key: (4096 bit)
                Modulus:
                    00:b0:d7:87:5f:9f:ab:c3:55:1d:24:b4:1e:03:f0:
                    10:c4:94:b7:ac:0e:10:cf:54:68:fd:31:e8:f8:b4:
                    10:68:61:71:ce:56:b8:21:24:6e:89:64:47:f4:44:
                    92:3d:79:9e:9d:37:d9:2f:48:2f:90:18:63:07:09:
                    a9:e7:c0:68:70:c2:f3:75:5b:6c:ec:40:a6:da:6d:
                    38:27:cb:6c:fb:bb:a6:cb:8e:36:43:80:e2:0a:84:
                    38:d8:77:c8:f9:e3:6b:a0:b5:1a:fd:d6:8c:05:a7:
                    f6:1b:d2:d5:73:5c:b9:f3:9f:6f:35:d8:e5:88:03:
                    a9:c9:5c:d0:a9:63:46:f0:0e:fd:b6:07:7f:42:67:
                    b1:06:3a:6d:63:10:16:b4:3a:76:62:36:66:95:46:
                    43:58:cf:bd:4b:4a:45:fd:51:91:bf:81:30:92:26:
                    a9:24:40:a4:8d:a5:7f:c5:b0:a4:93:14:3a:a2:54:
                    82:de:dc:cf:ac:fe:a7:21:ca:00:9e:84:2e:8d:5b:
                    59:28:45:ba:db:2b:33:2d:70:7b:9b:17:91:d5:15:
                    6b:e6:6c:5c:0e:3e:20:3f:64:74:b1:4a:fb:40:e3:
                    df:46:62:1f:d5:d3:ba:4b:8d:61:22:ef:85:0b:4f:
                    a4:7c:a8:f3:ef:d1:81:09:e6:41:99:ad:87:83:0c:
                    3f:94:26:56:2c:1a:7d:23:3f:91:bf:81:81:12:0d:
                    9f:c2:49:2d:dd:45:1b:65:17:e4:0f:27:19:2c:c0:
                    3e:91:fa:cc:ce:00:a6:7a:33:24:ff:90:8b:12:b6:
                    d4:99:1c:d5:90:e3:67:b6:35:0b:d4:4c:cc:99:36:
                    07:48:80:0a:41:a8:3c:b9:ee:45:95:56:95:b2:b7:
                    1f:e3:6a:dd:29:b6:7e:62:2d:ff:54:74:19:c4:05:
                    8e:b2:cf:ee:7e:60:22:aa:53:25:88:9a:d7:78:bb:
                    36:69:57:88:54:b1:39:7c:0d:0a:a4:7c:20:02:31:
                    ce:c5:40:49:7a:18:6e:77:e5:b2:25:2a:2c:c2:c1:
                    2a:c9:a5:bf:10:d0:6d:f7:56:58:17:cc:57:d6:98:
                    15:43:92:f0:3b:d7:00:ea:3c:8b:ff:73:2d:cd:de:
                    2a:22:16:8c:4b:13:39:a6:e4:e1:fb:40:f0:ca:7f:
                    e4:67:05:16:d3:d5:96:7d:09:79:77:38:01:0c:a8:
                    ad:f1:9e:ab:89:9e:be:2e:6b:9b:d7:b2:ce:0c:28:
                    93:1a:3d:9b:31:49:d5:55:fc:a3:ff:0f:4c:4f:2a:
                    3b:c9:86:ee:8d:24:21:f4:bd:ca:5b:bb:03:23:ca:
                    b7:b1:26:27:eb:de:de:15:64:0e:c8:e0:8d:63:42:
                    c4:45:83
                Exponent: 65537 (0x10001)
        X509v3 extensions:
            X509v3 Basic Constraints: 
                CA:FALSE
            Netscape Comment: 
                Easy-RSA Generated Certificate
            X509v3 Subject Key Identifier: 
                A0:73:05:3F:A7:E7:BF:8F:67:20:19:EE:EC:4A:31:9E:5D:0E:8C:D9
            X509v3 Authority Key Identifier: 
                keyid:EF:38:8D:14:50:58:A7:5B:4D:9C:17:72:FC:DF:B9:AC:A7:51:B0:10
                DirName:/C=US/ST=CA/L=SanFrancisco/O=Pixglo, Inc./OU=VPN-CIE/CN=tunnel.pixglo.com/name=Bala Chandrasekaran/emailAddress=bala@pixglo.com
                serial:A6:DB:C6:83:80:E6:A0:79

            X509v3 Extended Key Usage: 
                TLS Web Client Authentication
            X509v3 Key Usage: 
                Digital Signature
    Signature Algorithm: sha1WithRSAEncryption
         79:88:73:49:74:2d:67:2a:40:8f:8f:34:db:8b:ab:40:26:7e:
         e6:5e:ad:5b:48:84:03:c0:9d:8d:76:51:58:3e:8e:b7:a8:ef:
         bf:a9:9b:c0:2e:43:8a:95:84:0b:90:69:66:eb:db:81:ab:56:
         63:f6:bd:f5:fd:45:c8:b7:09:b4:09:26:4f:30:11:bd:00:9c:
         ba:d8:14:9b:fb:27:42:90:5f:34:c5:e8:19:fb:1a:ca:b4:f5:
         e1:26:3b:3d:f5:9a:d1:cf:7f:bd:86:1b:c7:d0:93:a6:cd:33:
         c4:8b:99:83:08:b8:66:80:90:ef:5a:c3:32:50:9a:ee:32:ca:
         bf:99:cc:b2:7d:ca:8d:a5:9a:93:1d:e9:8b:21:fb:5d:67:1a:
         be:24:d3:3e:df:e2:78:0d:50:11:e0:95:d9:a2:27:af:18:95:
         d2:a0:72:7b:2b:94:c6:a4:4c:5b:1c:e7:00:d7:e5:ce:b2:fe:
         52:87:93:cb:88:94:cd:14:08:0d:9c:f1:ad:f7:62:6d:99:ef:
         50:68:18:52:c1:5b:58:9b:4d:cd:46:3a:de:3f:0c:4c:ef:08:
         7d:3d:47:e1:ae:a3:33:2d:0d:3d:d6:57:31:59:82:92:a8:d5:
         1f:82:cd:88:96:6a:15:18:89:42:14:1e:2e:24:f4:c3:0b:14:
         0c:76:c9:ba:ab:f1:df:80:2e:57:14:cd:17:d6:65:1e:dd:01:
         4d:86:6a:e3:5f:63:15:3b:27:fb:9c:94:dd:f4:fc:b0:59:e9:
         69:ae:8a:6a:d9:16:01:3b:32:21:27:8e:ab:41:5a:5b:ae:0e:
         ae:cd:cf:88:4e:4b:2e:7c:fa:de:c7:97:61:be:a4:6f:a0:bf:
         a2:c2:c7:60:03:eb:43:36:a9:8b:6f:af:16:69:98:87:e8:ee:
         0f:ad:e9:e6:8f:c0:6b:a5:38:43:bd:bb:78:9c:ce:ea:b3:72:
         f1:66:01:89:a9:74:1a:d4:da:ac:58:cd:b0:3e:03:71:e1:c3:
         fc:35:33:6a:00:b2:72:40:5d:47:87:8f:32:27:fd:e0:48:16:
         66:da:84:17:e2:fd:e1:ee:c9:4f:06:c0:75:f7:ac:3d:f2:c1:
         81:f9:64:65:2c:bf:0d:ef:8e:17:af:4b:fb:e2:c9:8e:ba:a8:
         9d:1b:a7:b5:ef:91:96:3a:ae:21:07:06:50:17:d6:af:30:d9:
         aa:c2:5a:70:ad:95:0e:89:a1:d0:d3:1c:56:ec:ab:74:88:cf:
         e8:e5:39:f9:4b:00:19:b6:0d:27:1e:89:75:64:e0:96:ae:f1:
         c9:39:42:82:6f:82:43:18:83:5e:05:13:7a:70:72:97:04:4a:
         3b:6d:c7:fc:a9:5e:94:96
-----BEGIN CERTIFICATE-----
MIIHSDCCBTCgAwIBAgICAWswDQYJKoZIhvcNAQEFBQAwgbQxCzAJBgNVBAYTAlVT
MQswCQYDVQQIEwJDQTEVMBMGA1UEBxMMU2FuRnJhbmNpc2NvMRUwEwYDVQQKEwxQ
aXhnbG8sIEluYy4xEDAOBgNVBAsTB1ZQTi1DSUUxGjAYBgNVBAMTEXR1bm5lbC5w
aXhnbG8uY29tMRwwGgYDVQQpExNCYWxhIENoYW5kcmFzZWthcmFuMR4wHAYJKoZI
hvcNAQkBFg9iYWxhQHBpeGdsby5jb20wHhcNMTgwMjE0MDYzMTI1WhcNMjgwMjEy
MDYzMTI1WjCBqTELMAkGA1UEBhMCVVMxCzAJBgNVBAgTAkNBMRUwEwYDVQQHEwxT
YW5GcmFuY2lzY28xFTATBgNVBAoTDFBpeGdsbywgSW5jLjEQMA4GA1UECxMHVlBO
LUNJRTEPMA0GA1UEAxMGY2llMzYyMRwwGgYDVQQpExNCYWxhIENoYW5kcmFzZWth
cmFuMR4wHAYJKoZIhvcNAQkBFg9iYWxhQHBpeGdsby5jb20wggIiMA0GCSqGSIb3
DQEBAQUAA4ICDwAwggIKAoICAQCw14dfn6vDVR0ktB4D8BDElLesDhDPVGj9Mej4
tBBoYXHOVrghJG6JZEf0RJI9eZ6dN9kvSC+QGGMHCannwGhwwvN1W2zsQKbabTgn
y2z7u6bLjjZDgOIKhDjYd8j542ugtRr91owFp/Yb0tVzXLnzn2812OWIA6nJXNCp
Y0bwDv22B39CZ7EGOm1jEBa0OnZiNmaVRkNYz71LSkX9UZG/gTCSJqkkQKSNpX/F
sKSTFDqiVILe3M+s/qchygCehC6NW1koRbrbKzMtcHubF5HVFWvmbFwOPiA/ZHSx
SvtA499GYh/V07pLjWEi74ULT6R8qPPv0YEJ5kGZrYeDDD+UJlYsGn0jP5G/gYES
DZ/CSS3dRRtlF+QPJxkswD6R+szOAKZ6MyT/kIsSttSZHNWQ42e2NQvUTMyZNgdI
gApBqDy57kWVVpWytx/jat0ptn5iLf9UdBnEBY6yz+5+YCKqUyWImtd4uzZpV4hU
sTl8DQqkfCACMc7FQEl6GG535bIlKizCwSrJpb8Q0G33VlgXzFfWmBVDkvA71wDq
PIv/cy3N3ioiFoxLEzmm5OH7QPDKf+RnBRbT1ZZ9CXl3OAEMqK3xnquJnr4ua5vX
ss4MKJMaPZsxSdVV/KP/D0xPKjvJhu6NJCH0vcpbuwMjyrexJifr3t4VZA7I4I1j
QsRFgwIDAQABo4IBazCCAWcwCQYDVR0TBAIwADAtBglghkgBhvhCAQ0EIBYeRWFz
eS1SU0EgR2VuZXJhdGVkIENlcnRpZmljYXRlMB0GA1UdDgQWBBSgcwU/p+e/j2cg
Ge7sSjGeXQ6M2TCB6QYDVR0jBIHhMIHegBTvOI0UUFinW02cF3L837msp1GwEKGB
uqSBtzCBtDELMAkGA1UEBhMCVVMxCzAJBgNVBAgTAkNBMRUwEwYDVQQHEwxTYW5G
cmFuY2lzY28xFTATBgNVBAoTDFBpeGdsbywgSW5jLjEQMA4GA1UECxMHVlBOLUNJ
RTEaMBgGA1UEAxMRdHVubmVsLnBpeGdsby5jb20xHDAaBgNVBCkTE0JhbGEgQ2hh
bmRyYXNla2FyYW4xHjAcBgkqhkiG9w0BCQEWD2JhbGFAcGl4Z2xvLmNvbYIJAKbb
xoOA5qB5MBMGA1UdJQQMMAoGCCsGAQUFBwMCMAsGA1UdDwQEAwIHgDANBgkqhkiG
9w0BAQUFAAOCAgEAeYhzSXQtZypAj48024urQCZ+5l6tW0iEA8CdjXZRWD6Ot6jv
v6mbwC5DipWEC5BpZuvbgatWY/a99f1FyLcJtAkmTzARvQCcutgUm/snQpBfNMXo
GfsayrT14SY7PfWa0c9/vYYbx9CTps0zxIuZgwi4ZoCQ71rDMlCa7jLKv5nMsn3K
jaWakx3piyH7XWcaviTTPt/ieA1QEeCV2aInrxiV0qByeyuUxqRMWxznANflzrL+
UoeTy4iUzRQIDZzxrfdibZnvUGgYUsFbWJtNzUY63j8MTO8IfT1H4a6jMy0NPdZX
MVmCkqjVH4LNiJZqFRiJQhQeLiT0wwsUDHbJuqvx34AuVxTNF9ZlHt0BTYZq419j
FTsn+5yU3fT8sFnpaa6KatkWATsyISeOq0FaW64Ors3PiE5LLnz63seXYb6kb6C/
osLHYAPrQzapi2+vFmmYh+juD63p5o/Aa6U4Q727eJzO6rNy8WYBial0GtTarFjN
sD4DceHD/DUzagCyckBdR4ePMif94EgWZtqEF+L94e7JTwbAdfesPfLBgflkZSy/
De+OF69L++LJjrqonRunte+RljquIQcGUBfWrzDZqsJacK2VDomh0NMcVuyrdIjP
6OU5+UsAGbYNJx6JdWTglq7xyTlCgm+CQxiDXgUTenBylwRKO23H/KlelJY=
-----END CERTIFICATE-----
