Certificate:
    Data:
        Version: 3 (0x2)
        Serial Number: 364 (0x16c)
    Signature Algorithm: sha1WithRSAEncryption
        Issuer: C=US, ST=CA, L=SanFrancisco, O=Pixglo, Inc., OU=VPN-CIE, CN=tunnel.pixglo.com/name=Bala Chandrasekaran/emailAddress=bala@pixglo.com
        Validity
            Not Before: Feb 14 06:31:30 2018 GMT
            Not After : Feb 12 06:31:30 2028 GMT
        Subject: C=US, ST=CA, L=SanFrancisco, O=Pixglo, Inc., OU=VPN-CIE, CN=cie363/name=Bala Chandrasekaran/emailAddress=bala@pixglo.com
        Subject Public Key Info:
            Public Key Algorithm: rsaEncryption
                Public-Key: (4096 bit)
                Modulus:
                    00:ed:61:d7:05:62:5c:bc:68:c8:ae:65:64:9a:53:
                    3b:a4:b3:32:ad:80:ac:75:17:26:8f:e9:f3:7a:cf:
                    4e:f0:e8:5f:11:b5:da:ee:cd:f0:61:71:76:76:31:
                    86:d3:48:25:9e:69:85:3c:7e:86:57:1c:48:e8:2f:
                    53:6f:aa:02:f0:57:56:e8:51:ac:b3:01:5b:93:89:
                    0d:56:56:e3:e8:5f:5a:53:3c:78:b8:09:9b:a7:cb:
                    43:37:eb:b9:75:2f:2c:88:83:8d:f8:b9:75:54:a5:
                    c5:62:a5:2a:a6:d5:00:a4:17:d5:5a:64:84:93:a1:
                    c9:4e:bd:12:c3:9f:03:4c:3b:49:c5:3e:bd:56:75:
                    3c:e6:51:de:2e:2f:80:a4:54:e5:3a:9d:b5:f9:77:
                    2e:93:6a:38:23:1c:8e:04:98:5f:ae:4b:d7:93:f9:
                    13:65:63:ad:c6:e2:7a:5a:7d:47:2d:b7:1a:93:8a:
                    76:cf:38:45:fe:da:37:09:14:0e:ba:b7:4f:2f:4d:
                    17:20:15:48:c3:01:59:f8:e3:8b:1c:06:9e:8a:73:
                    6c:9a:f3:ef:a7:be:cd:b3:d0:04:08:2c:22:f8:af:
                    00:3f:f6:26:2a:3e:b1:79:a6:d8:38:91:5b:e1:5a:
                    4c:f8:d0:32:80:ae:58:36:ed:9d:64:69:eb:72:cf:
                    6f:bb:ea:66:d6:77:ba:5b:17:4d:27:38:c1:10:57:
                    a3:ea:40:c1:2a:da:73:0d:f6:12:1a:31:4b:6b:25:
                    b8:74:16:a8:d0:e6:ee:09:8e:1e:84:39:92:94:b3:
                    43:43:83:06:eb:f9:64:90:a1:68:f7:0a:6a:ec:08:
                    9b:39:d9:99:23:32:85:70:3e:97:94:a8:5f:45:21:
                    5c:88:44:2a:cb:b8:3f:36:82:3b:6e:bd:54:82:67:
                    73:71:44:8e:50:d4:9e:09:b3:9d:01:0b:4d:10:69:
                    85:e3:c0:cc:31:71:e0:45:bd:05:f5:99:b4:b1:97:
                    e9:7c:99:d6:08:be:c0:6c:be:71:ca:e1:e6:71:65:
                    e3:40:96:32:6d:fa:70:c0:59:92:54:8a:6d:8e:31:
                    1d:e4:9d:21:1c:7d:7b:dc:70:31:f7:8a:8d:ff:96:
                    51:aa:ff:92:65:91:70:ef:bd:03:dc:5b:5a:4b:70:
                    62:56:48:95:ee:2c:09:f0:74:1e:6e:c8:ea:a4:9a:
                    09:55:5b:77:14:8c:fb:7b:bf:65:f4:0c:e5:a9:80:
                    2a:20:03:6a:01:84:5a:be:a4:16:47:9d:4f:fa:54:
                    51:f5:86:52:0b:61:d1:61:60:a2:a3:53:15:94:ca:
                    44:bd:d0:91:83:be:ca:98:df:6d:c1:6e:49:3a:03:
                    18:64:a7
                Exponent: 65537 (0x10001)
        X509v3 extensions:
            X509v3 Basic Constraints: 
                CA:FALSE
            Netscape Comment: 
                Easy-RSA Generated Certificate
            X509v3 Subject Key Identifier: 
                0F:5B:18:AD:A5:25:FA:3A:E7:5A:A2:8F:3E:57:1D:B1:7C:B9:62:2D
            X509v3 Authority Key Identifier: 
                keyid:EF:38:8D:14:50:58:A7:5B:4D:9C:17:72:FC:DF:B9:AC:A7:51:B0:10
                DirName:/C=US/ST=CA/L=SanFrancisco/O=Pixglo, Inc./OU=VPN-CIE/CN=tunnel.pixglo.com/name=Bala Chandrasekaran/emailAddress=bala@pixglo.com
                serial:A6:DB:C6:83:80:E6:A0:79

            X509v3 Extended Key Usage: 
                TLS Web Client Authentication
            X509v3 Key Usage: 
                Digital Signature
    Signature Algorithm: sha1WithRSAEncryption
         9e:89:5a:d6:6f:0a:79:15:07:6d:15:af:d9:c0:c6:0e:d8:df:
         d5:76:4b:82:fb:64:12:17:ca:78:91:a6:33:97:a0:4b:9d:7d:
         55:73:bf:8e:7a:c0:3f:2b:b7:19:9d:c1:8d:37:a0:ae:1c:c7:
         c9:4c:5e:7c:5a:c9:b0:dc:74:cd:87:81:12:3a:a9:16:83:33:
         d4:95:f1:8d:02:1d:dd:60:6e:d7:eb:56:4f:75:2e:09:e0:cf:
         39:2f:ea:5f:29:6e:9f:d1:be:10:36:a7:f2:fe:27:cd:48:a3:
         cd:24:88:62:5d:1f:8d:b9:3d:40:7d:bb:d1:33:c9:0d:74:83:
         4d:d6:01:0a:e7:a3:14:60:6e:d1:4d:68:6e:12:b1:b7:6f:b0:
         19:3d:f5:6b:fa:87:ba:20:a3:70:11:26:e8:d4:6e:31:53:9e:
         c1:59:51:3f:15:5f:11:09:e0:e2:02:91:86:18:47:8a:23:ca:
         2b:7a:c3:7a:2e:60:32:59:00:96:c2:ec:c2:08:02:71:70:a2:
         4d:c2:36:60:28:ae:2e:6a:4c:5b:ed:63:64:10:97:8b:b0:c5:
         2e:3d:f4:66:c8:4e:b4:8a:b7:22:c3:bf:94:1d:c5:8a:61:e9:
         17:09:cc:b8:10:38:a0:9b:f5:66:05:89:ac:73:18:ba:0b:33:
         b8:79:0d:cf:34:96:2b:ae:e3:7a:ab:7a:b7:27:d1:14:36:d7:
         de:c8:1a:cb:19:63:84:48:12:e4:67:03:ab:78:fd:e6:f6:3d:
         c9:64:8b:52:4c:8a:0c:db:b3:24:9a:e0:32:cd:1b:8b:f1:29:
         1b:ef:0d:6c:56:b4:3b:66:1a:a2:1d:25:17:75:b6:ce:e3:c4:
         d0:81:7b:6c:d5:4f:65:e3:05:57:b6:4d:b1:98:c2:83:58:81:
         7c:7f:3b:c2:1d:8b:e8:42:4f:ab:ae:15:f5:76:72:95:5f:44:
         22:cd:89:a4:1a:a4:2e:0e:4a:dd:d5:d6:8a:d4:62:b4:79:3e:
         c4:4b:cf:32:68:91:01:a4:22:27:ac:b4:8d:2e:2a:f4:7f:7c:
         6b:b9:3f:21:ba:83:b9:80:44:73:24:6f:d2:78:f6:7e:1c:d4:
         96:f7:dd:bf:0b:66:8c:86:87:ed:52:05:54:72:f9:b6:0d:17:
         d1:bc:43:19:a1:2d:d5:45:db:82:20:d0:42:c2:82:58:0b:63:
         a4:8e:f3:7b:4a:de:b9:8c:66:ed:a8:df:b1:44:73:4a:44:4c:
         d6:cb:1d:7c:64:0c:6d:e8:9d:3e:c9:f9:8a:36:07:75:1c:67:
         ed:5d:ee:55:5c:93:94:bb:9e:4c:1f:8a:45:ea:5d:83:c9:c1:
         cd:82:ef:53:ed:71:c2:32
-----BEGIN CERTIFICATE-----
MIIHSDCCBTCgAwIBAgICAWwwDQYJKoZIhvcNAQEFBQAwgbQxCzAJBgNVBAYTAlVT
MQswCQYDVQQIEwJDQTEVMBMGA1UEBxMMU2FuRnJhbmNpc2NvMRUwEwYDVQQKEwxQ
aXhnbG8sIEluYy4xEDAOBgNVBAsTB1ZQTi1DSUUxGjAYBgNVBAMTEXR1bm5lbC5w
aXhnbG8uY29tMRwwGgYDVQQpExNCYWxhIENoYW5kcmFzZWthcmFuMR4wHAYJKoZI
hvcNAQkBFg9iYWxhQHBpeGdsby5jb20wHhcNMTgwMjE0MDYzMTMwWhcNMjgwMjEy
MDYzMTMwWjCBqTELMAkGA1UEBhMCVVMxCzAJBgNVBAgTAkNBMRUwEwYDVQQHEwxT
YW5GcmFuY2lzY28xFTATBgNVBAoTDFBpeGdsbywgSW5jLjEQMA4GA1UECxMHVlBO
LUNJRTEPMA0GA1UEAxMGY2llMzYzMRwwGgYDVQQpExNCYWxhIENoYW5kcmFzZWth
cmFuMR4wHAYJKoZIhvcNAQkBFg9iYWxhQHBpeGdsby5jb20wggIiMA0GCSqGSIb3
DQEBAQUAA4ICDwAwggIKAoICAQDtYdcFYly8aMiuZWSaUzukszKtgKx1FyaP6fN6
z07w6F8RtdruzfBhcXZ2MYbTSCWeaYU8foZXHEjoL1NvqgLwV1boUayzAVuTiQ1W
VuPoX1pTPHi4CZuny0M367l1LyyIg434uXVUpcVipSqm1QCkF9VaZISToclOvRLD
nwNMO0nFPr1WdTzmUd4uL4CkVOU6nbX5dy6TajgjHI4EmF+uS9eT+RNlY63G4npa
fUcttxqTinbPOEX+2jcJFA66t08vTRcgFUjDAVn444scBp6Kc2ya8++nvs2z0AQI
LCL4rwA/9iYqPrF5ptg4kVvhWkz40DKArlg27Z1kaetyz2+76mbWd7pbF00nOMEQ
V6PqQMEq2nMN9hIaMUtrJbh0FqjQ5u4Jjh6EOZKUs0NDgwbr+WSQoWj3CmrsCJs5
2ZkjMoVwPpeUqF9FIVyIRCrLuD82gjtuvVSCZ3NxRI5Q1J4Js50BC00QaYXjwMwx
ceBFvQX1mbSxl+l8mdYIvsBsvnHK4eZxZeNAljJt+nDAWZJUim2OMR3knSEcfXvc
cDH3io3/llGq/5JlkXDvvQPcW1pLcGJWSJXuLAnwdB5uyOqkmglVW3cUjPt7v2X0
DOWpgCogA2oBhFq+pBZHnU/6VFH1hlILYdFhYKKjUxWUykS90JGDvsqY323Bbkk6
AxhkpwIDAQABo4IBazCCAWcwCQYDVR0TBAIwADAtBglghkgBhvhCAQ0EIBYeRWFz
eS1SU0EgR2VuZXJhdGVkIENlcnRpZmljYXRlMB0GA1UdDgQWBBQPWxitpSX6Ouda
oo8+Vx2xfLliLTCB6QYDVR0jBIHhMIHegBTvOI0UUFinW02cF3L837msp1GwEKGB
uqSBtzCBtDELMAkGA1UEBhMCVVMxCzAJBgNVBAgTAkNBMRUwEwYDVQQHEwxTYW5G
cmFuY2lzY28xFTATBgNVBAoTDFBpeGdsbywgSW5jLjEQMA4GA1UECxMHVlBOLUNJ
RTEaMBgGA1UEAxMRdHVubmVsLnBpeGdsby5jb20xHDAaBgNVBCkTE0JhbGEgQ2hh
bmRyYXNla2FyYW4xHjAcBgkqhkiG9w0BCQEWD2JhbGFAcGl4Z2xvLmNvbYIJAKbb
xoOA5qB5MBMGA1UdJQQMMAoGCCsGAQUFBwMCMAsGA1UdDwQEAwIHgDANBgkqhkiG
9w0BAQUFAAOCAgEAnola1m8KeRUHbRWv2cDGDtjf1XZLgvtkEhfKeJGmM5egS519
VXO/jnrAPyu3GZ3BjTegrhzHyUxefFrJsNx0zYeBEjqpFoMz1JXxjQId3WBu1+tW
T3UuCeDPOS/qXylun9G+EDan8v4nzUijzSSIYl0fjbk9QH270TPJDXSDTdYBCuej
FGBu0U1obhKxt2+wGT31a/qHuiCjcBEm6NRuMVOewVlRPxVfEQng4gKRhhhHiiPK
K3rDei5gMlkAlsLswggCcXCiTcI2YCiuLmpMW+1jZBCXi7DFLj30ZshOtIq3IsO/
lB3FimHpFwnMuBA4oJv1ZgWJrHMYugszuHkNzzSWK67jeqt6tyfRFDbX3sgayxlj
hEgS5GcDq3j95vY9yWSLUkyKDNuzJJrgMs0bi/EpG+8NbFa0O2Yaoh0lF3W2zuPE
0IF7bNVPZeMFV7ZNsZjCg1iBfH87wh2L6EJPq64V9XZylV9EIs2JpBqkLg5K3dXW
itRitHk+xEvPMmiRAaQiJ6y0jS4q9H98a7k/IbqDuYBEcyRv0nj2fhzUlvfdvwtm
jIaH7VIFVHL5tg0X0bxDGaEt1UXbgiDQQsKCWAtjpI7ze0reuYxm7ajfsURzSkRM
1ssdfGQMbeidPsn5ijYHdRxn7V3uVVyTlLueTB+KRepdg8nBzYLvU+1xwjI=
-----END CERTIFICATE-----
