Certificate:
    Data:
        Version: 3 (0x2)
        Serial Number: 365 (0x16d)
    Signature Algorithm: sha1WithRSAEncryption
        Issuer: C=US, ST=CA, L=SanFrancisco, O=Pixglo, Inc., OU=VPN-CIE, CN=tunnel.pixglo.com/name=Bala Chandrasekaran/emailAddress=bala@pixglo.com
        Validity
            Not Before: Feb 14 06:31:32 2018 GMT
            Not After : Feb 12 06:31:32 2028 GMT
        Subject: C=US, ST=CA, L=SanFrancisco, O=Pixglo, Inc., OU=VPN-CIE, CN=cie364/name=Bala Chandrasekaran/emailAddress=bala@pixglo.com
        Subject Public Key Info:
            Public Key Algorithm: rsaEncryption
                Public-Key: (4096 bit)
                Modulus:
                    00:e5:bc:f3:16:47:8e:d8:4e:f9:d6:ad:69:f7:94:
                    b5:b4:10:d2:73:32:77:a5:97:98:e0:9b:7c:ec:04:
                    2e:72:3a:3d:13:4f:b9:71:cf:e8:67:8a:3e:a6:c7:
                    6f:a0:f2:10:7f:2c:8e:67:87:2e:ae:f2:7b:78:dc:
                    bf:47:2d:c1:9e:7e:e3:86:24:5c:da:a7:a4:d8:85:
                    78:8f:93:ac:5d:d5:c2:dc:26:9c:6d:e7:48:f2:f3:
                    91:1b:ed:9d:22:82:d0:f0:ee:b9:f7:d1:74:e0:cc:
                    81:76:3b:d7:46:49:a3:8f:23:29:e3:10:17:1f:16:
                    5d:7d:ff:9c:1e:bf:b8:07:79:b7:1c:f3:63:70:4c:
                    da:dc:e0:bf:d0:24:bc:3b:06:f6:76:67:be:2f:90:
                    d3:7f:4d:01:5e:8d:e6:93:43:f0:8b:bc:c6:ca:ad:
                    b2:10:6d:a2:f4:36:de:a3:d2:87:45:da:d1:80:85:
                    52:54:9e:e2:5c:61:c6:94:74:2a:f6:cc:17:d9:19:
                    7b:6b:a3:3f:77:ef:0a:f3:58:45:0a:f7:57:f0:f9:
                    9d:2f:59:ce:ea:0c:3f:e9:dc:4b:f7:3a:44:fa:a6:
                    f7:97:a7:94:b0:c1:8a:6b:03:71:ab:d3:a4:2d:82:
                    d6:fa:3c:11:c3:b9:55:7e:46:dc:74:79:6f:62:75:
                    88:f9:fc:f7:0c:62:47:c0:63:17:9c:bd:4c:a1:98:
                    53:16:4d:42:71:69:b9:b9:0f:19:09:69:ba:a2:6b:
                    b2:6f:a2:64:94:5d:69:54:cd:c0:78:fc:e3:61:d7:
                    a3:1f:98:b8:03:35:4c:6d:e5:c3:5a:6c:d2:83:f2:
                    c3:88:dd:e6:f3:95:df:cb:38:10:1a:4a:f8:de:39:
                    ae:44:f0:65:6c:81:ec:26:a9:27:b2:ac:08:d3:98:
                    3a:b1:ea:66:22:1d:29:d2:71:14:2d:d3:35:34:b1:
                    0a:8c:2b:49:11:2a:46:2e:2d:3c:c1:98:69:42:39:
                    a9:97:4c:13:99:47:f5:c2:91:f9:93:c4:53:71:45:
                    58:e6:bf:4f:f9:be:9d:07:9c:f7:99:1f:9f:59:c0:
                    9d:ab:8f:d4:8a:30:6c:44:7b:71:c9:64:b2:f4:fa:
                    f5:ce:57:b4:3f:82:93:87:03:7f:2e:36:57:c1:e2:
                    2c:ed:9b:c7:30:d6:34:7a:5f:d5:18:5c:06:0f:ad:
                    73:42:7c:1a:e1:f5:f9:20:92:1d:7f:07:28:17:29:
                    89:d3:70:c4:a9:62:36:79:67:7d:64:f5:66:f0:81:
                    ef:d1:b9:36:2d:a7:d5:9c:6b:ea:49:43:84:4f:04:
                    21:f3:26:0c:c7:c1:70:d8:69:00:68:77:8f:43:b4:
                    eb:24:cb
                Exponent: 65537 (0x10001)
        X509v3 extensions:
            X509v3 Basic Constraints: 
                CA:FALSE
            Netscape Comment: 
                Easy-RSA Generated Certificate
            X509v3 Subject Key Identifier: 
                32:EC:4E:E1:F3:2C:5A:E2:94:39:98:CA:72:C5:D8:D3:D0:F8:66:4E
            X509v3 Authority Key Identifier: 
                keyid:EF:38:8D:14:50:58:A7:5B:4D:9C:17:72:FC:DF:B9:AC:A7:51:B0:10
                DirName:/C=US/ST=CA/L=SanFrancisco/O=Pixglo, Inc./OU=VPN-CIE/CN=tunnel.pixglo.com/name=Bala Chandrasekaran/emailAddress=bala@pixglo.com
                serial:A6:DB:C6:83:80:E6:A0:79

            X509v3 Extended Key Usage: 
                TLS Web Client Authentication
            X509v3 Key Usage: 
                Digital Signature
    Signature Algorithm: sha1WithRSAEncryption
         a4:f5:0a:82:ce:35:46:dc:e3:0a:4d:78:d5:30:cc:d5:60:04:
         d5:4b:e4:12:50:a7:93:87:44:95:29:28:15:5e:e5:75:88:8b:
         c7:08:fc:e8:66:46:a5:ee:8f:70:3e:e1:67:3c:c3:ea:f4:c2:
         c5:2c:e9:03:0c:d7:0b:42:77:38:b1:29:95:f7:b9:c1:a1:04:
         73:f1:b4:24:8e:20:ba:e5:4a:c6:39:ff:36:ce:c6:0d:2d:d8:
         0a:55:b0:c5:c6:c7:1f:15:fe:9c:24:3b:04:d2:d9:71:fd:b3:
         75:5a:a4:20:b7:ef:13:f4:de:4a:af:9c:d0:11:c3:5e:b2:6e:
         7e:a0:ac:5f:78:d0:98:a7:f5:08:76:ed:6f:38:56:92:5d:cf:
         06:2f:2b:94:0f:78:78:ec:65:30:86:7d:90:d3:8e:e9:1c:fb:
         41:f6:aa:d6:3c:4c:ad:1b:8a:4f:49:69:35:e8:ba:53:32:c3:
         f6:be:04:97:a4:51:81:27:7c:00:af:a2:d3:e7:4c:ae:1a:b7:
         51:66:7b:3f:09:4c:59:e8:97:a9:d7:2b:1b:9a:80:da:41:be:
         c1:5b:1f:c3:6d:4f:3a:b4:d5:a4:4c:43:80:af:ff:96:f2:78:
         cc:c4:7f:05:cb:16:41:10:ce:8a:f9:fd:b0:b9:5d:fe:b2:58:
         02:c8:01:93:f9:d4:fb:4f:be:08:e8:f5:63:9f:53:ed:5d:29:
         c7:de:3f:41:a4:79:35:ff:d0:9e:1c:b0:2e:b1:12:bc:70:1e:
         f1:68:01:87:df:56:06:a8:01:2c:d1:3c:76:dd:60:dc:07:31:
         3c:d9:e4:3a:9e:4a:b4:b6:46:ab:69:4d:db:78:f6:27:2b:09:
         73:be:bd:58:4f:e3:d5:47:1d:3c:72:0c:df:d0:56:9f:ac:27:
         db:0a:0b:e7:4c:48:d0:51:8f:7b:c8:25:9c:26:09:fe:6f:ef:
         9d:ae:25:a8:81:bb:7f:bd:b6:ae:09:58:06:b7:a7:95:a1:34:
         8c:50:d6:30:48:6b:24:5b:9e:99:35:60:8f:ae:5c:a0:a6:36:
         b8:a7:90:1a:4c:e2:16:2c:ac:d1:ef:e5:21:6e:c6:a0:ef:8b:
         3e:09:42:cc:c0:06:a7:3a:80:c4:86:7c:10:2c:f1:2a:b6:ab:
         79:82:b0:1f:0b:71:3e:73:64:55:6e:31:20:f3:bc:16:a1:03:
         4d:67:98:ab:09:42:27:a0:d0:b7:42:7d:86:02:4d:c9:92:78:
         df:e0:49:98:ce:ed:00:27:c3:e3:f1:06:68:9f:df:50:a7:52:
         56:13:26:e2:8b:70:d3:b2:04:3c:dc:55:3b:b2:72:00:75:10:
         bc:e9:0e:d2:46:fa:a3:b1
-----BEGIN CERTIFICATE-----
MIIHSDCCBTCgAwIBAgICAW0wDQYJKoZIhvcNAQEFBQAwgbQxCzAJBgNVBAYTAlVT
MQswCQYDVQQIEwJDQTEVMBMGA1UEBxMMU2FuRnJhbmNpc2NvMRUwEwYDVQQKEwxQ
aXhnbG8sIEluYy4xEDAOBgNVBAsTB1ZQTi1DSUUxGjAYBgNVBAMTEXR1bm5lbC5w
aXhnbG8uY29tMRwwGgYDVQQpExNCYWxhIENoYW5kcmFzZWthcmFuMR4wHAYJKoZI
hvcNAQkBFg9iYWxhQHBpeGdsby5jb20wHhcNMTgwMjE0MDYzMTMyWhcNMjgwMjEy
MDYzMTMyWjCBqTELMAkGA1UEBhMCVVMxCzAJBgNVBAgTAkNBMRUwEwYDVQQHEwxT
YW5GcmFuY2lzY28xFTATBgNVBAoTDFBpeGdsbywgSW5jLjEQMA4GA1UECxMHVlBO
LUNJRTEPMA0GA1UEAxMGY2llMzY0MRwwGgYDVQQpExNCYWxhIENoYW5kcmFzZWth
cmFuMR4wHAYJKoZIhvcNAQkBFg9iYWxhQHBpeGdsby5jb20wggIiMA0GCSqGSIb3
DQEBAQUAA4ICDwAwggIKAoICAQDlvPMWR47YTvnWrWn3lLW0ENJzMnell5jgm3zs
BC5yOj0TT7lxz+hnij6mx2+g8hB/LI5nhy6u8nt43L9HLcGefuOGJFzap6TYhXiP
k6xd1cLcJpxt50jy85Eb7Z0igtDw7rn30XTgzIF2O9dGSaOPIynjEBcfFl19/5we
v7gHebcc82NwTNrc4L/QJLw7BvZ2Z74vkNN/TQFejeaTQ/CLvMbKrbIQbaL0Nt6j
0odF2tGAhVJUnuJcYcaUdCr2zBfZGXtroz937wrzWEUK91fw+Z0vWc7qDD/p3Ev3
OkT6pveXp5SwwYprA3Gr06Qtgtb6PBHDuVV+Rtx0eW9idYj5/PcMYkfAYxecvUyh
mFMWTUJxabm5DxkJabqia7JvomSUXWlUzcB4/ONh16MfmLgDNUxt5cNabNKD8sOI
3ebzld/LOBAaSvjeOa5E8GVsgewmqSeyrAjTmDqx6mYiHSnScRQt0zU0sQqMK0kR
KkYuLTzBmGlCOamXTBOZR/XCkfmTxFNxRVjmv0/5vp0HnPeZH59ZwJ2rj9SKMGxE
e3HJZLL0+vXOV7Q/gpOHA38uNlfB4iztm8cw1jR6X9UYXAYPrXNCfBrh9fkgkh1/
BygXKYnTcMSpYjZ5Z31k9Wbwge/RuTYtp9Wca+pJQ4RPBCHzJgzHwXDYaQBod49D
tOskywIDAQABo4IBazCCAWcwCQYDVR0TBAIwADAtBglghkgBhvhCAQ0EIBYeRWFz
eS1SU0EgR2VuZXJhdGVkIENlcnRpZmljYXRlMB0GA1UdDgQWBBQy7E7h8yxa4pQ5
mMpyxdjT0PhmTjCB6QYDVR0jBIHhMIHegBTvOI0UUFinW02cF3L837msp1GwEKGB
uqSBtzCBtDELMAkGA1UEBhMCVVMxCzAJBgNVBAgTAkNBMRUwEwYDVQQHEwxTYW5G
cmFuY2lzY28xFTATBgNVBAoTDFBpeGdsbywgSW5jLjEQMA4GA1UECxMHVlBOLUNJ
RTEaMBgGA1UEAxMRdHVubmVsLnBpeGdsby5jb20xHDAaBgNVBCkTE0JhbGEgQ2hh
bmRyYXNla2FyYW4xHjAcBgkqhkiG9w0BCQEWD2JhbGFAcGl4Z2xvLmNvbYIJAKbb
xoOA5qB5MBMGA1UdJQQMMAoGCCsGAQUFBwMCMAsGA1UdDwQEAwIHgDANBgkqhkiG
9w0BAQUFAAOCAgEApPUKgs41RtzjCk141TDM1WAE1UvkElCnk4dElSkoFV7ldYiL
xwj86GZGpe6PcD7hZzzD6vTCxSzpAwzXC0J3OLEplfe5waEEc/G0JI4guuVKxjn/
Ns7GDS3YClWwxcbHHxX+nCQ7BNLZcf2zdVqkILfvE/TeSq+c0BHDXrJufqCsX3jQ
mKf1CHbtbzhWkl3PBi8rlA94eOxlMIZ9kNOO6Rz7Qfaq1jxMrRuKT0lpNei6UzLD
9r4El6RRgSd8AK+i0+dMrhq3UWZ7PwlMWeiXqdcrG5qA2kG+wVsfw21POrTVpExD
gK//lvJ4zMR/BcsWQRDOivn9sLld/rJYAsgBk/nU+0++COj1Y59T7V0px94/QaR5
Nf/QnhywLrESvHAe8WgBh99WBqgBLNE8dt1g3AcxPNnkOp5KtLZGq2lN23j2JysJ
c769WE/j1UcdPHIM39BWn6wn2woL50xI0FGPe8glnCYJ/m/vna4lqIG7f722rglY
BrenlaE0jFDWMEhrJFuemTVgj65coKY2uKeQGkziFiys0e/lIW7GoO+LPglCzMAG
pzqAxIZ8ECzxKrareYKwHwtxPnNkVW4xIPO8FqEDTWeYqwlCJ6DQt0J9hgJNyZJ4
3+BJmM7tACfD4/EGaJ/fUKdSVhMm4otw07IEPNxVO7JyAHUQvOkO0kb6o7E=
-----END CERTIFICATE-----
