Certificate:
    Data:
        Version: 3 (0x2)
        Serial Number: 369 (0x171)
    Signature Algorithm: sha1WithRSAEncryption
        Issuer: C=US, ST=CA, L=SanFrancisco, O=Pixglo, Inc., OU=VPN-CIE, CN=tunnel.pixglo.com/name=Bala Chandrasekaran/emailAddress=bala@pixglo.com
        Validity
            Not Before: Feb 14 06:31:38 2018 GMT
            Not After : Feb 12 06:31:38 2028 GMT
        Subject: C=US, ST=CA, L=SanFrancisco, O=Pixglo, Inc., OU=VPN-CIE, CN=cie368/name=Bala Chandrasekaran/emailAddress=bala@pixglo.com
        Subject Public Key Info:
            Public Key Algorithm: rsaEncryption
                Public-Key: (4096 bit)
                Modulus:
                    00:fd:2c:39:41:66:59:bf:5f:54:6a:a0:08:70:80:
                    ff:14:7e:27:7c:2b:cf:56:e3:41:9b:86:46:c5:01:
                    44:2e:43:4b:43:ec:0e:e2:68:f8:12:00:96:1e:ea:
                    47:d4:ce:e6:07:f3:5d:a1:de:d6:d7:1f:80:21:44:
                    2e:a6:c2:9a:73:82:4a:25:8e:31:2a:73:e2:48:ef:
                    1d:8d:7b:e5:e6:0f:d4:c1:20:6c:86:cc:0c:b0:1e:
                    6b:c1:32:b1:28:7b:98:89:6e:bd:30:04:d7:b4:71:
                    be:53:6f:2d:60:ad:85:3a:66:8c:fe:ce:87:17:3b:
                    52:37:fb:64:b2:69:26:c8:9b:9e:a7:58:a3:c5:22:
                    12:6e:9f:b9:bb:9c:b7:3d:23:3a:1e:eb:16:9d:39:
                    e4:3b:6f:4d:29:38:b2:10:b0:4b:22:6d:44:7f:4e:
                    b7:49:5f:f1:70:d1:db:ac:10:ad:0e:a0:ab:0b:3a:
                    26:58:86:2e:d5:22:3e:fc:b1:f9:cb:f4:9b:0d:46:
                    ca:1f:53:f0:4c:9d:3d:0a:50:40:b9:17:49:ec:32:
                    eb:ec:52:d4:81:e3:cb:e7:73:26:91:ce:31:a5:bf:
                    43:4e:b8:17:50:86:95:44:b2:50:23:3e:a3:0b:ed:
                    2c:62:b1:9d:ce:60:78:d6:73:15:16:12:74:ea:38:
                    02:1f:3b:80:98:66:bf:bf:c7:e7:7f:9d:4a:71:f8:
                    d9:86:53:46:17:d2:7c:0f:96:d0:25:9c:fb:ec:14:
                    c9:bb:03:88:be:34:d5:40:ff:f8:ac:5e:54:9b:ef:
                    0f:67:a2:f7:6f:16:75:52:ca:de:58:93:cd:f1:dd:
                    d5:87:17:29:23:cd:e2:aa:78:54:00:91:34:ef:71:
                    d0:37:3e:07:4f:fd:29:4f:f8:b2:05:9f:2b:d8:e4:
                    5c:72:e0:91:90:e4:d5:c2:0d:22:f8:b5:47:8a:29:
                    93:27:e4:7d:f6:7b:3e:15:b5:86:35:70:12:21:44:
                    e8:d0:df:a2:af:d2:ed:17:42:27:28:b1:cf:0a:b5:
                    66:79:a4:26:96:e9:b5:35:92:0c:30:11:0b:1b:0a:
                    79:47:ee:92:77:76:70:f1:69:aa:36:ef:b9:47:17:
                    38:4a:b4:70:73:18:fa:97:ee:0a:6f:a9:c2:7f:80:
                    e2:bb:89:c1:a2:16:af:f7:27:8c:3f:22:53:03:b7:
                    25:4c:b4:38:41:28:4c:c7:0c:b7:f4:9e:92:b9:eb:
                    2b:d6:f0:4b:57:6c:56:1b:84:d2:cc:51:4a:41:10:
                    a7:98:6e:14:ce:4f:47:4c:3c:7c:7c:14:a5:21:34:
                    7f:9e:50:01:1d:42:c8:28:b9:76:28:b8:bd:25:08:
                    dc:c6:71
                Exponent: 65537 (0x10001)
        X509v3 extensions:
            X509v3 Basic Constraints: 
                CA:FALSE
            Netscape Comment: 
                Easy-RSA Generated Certificate
            X509v3 Subject Key Identifier: 
                69:92:2C:86:F4:CF:EB:1A:F5:76:25:1B:4F:84:2D:82:B0:CF:BA:A0
            X509v3 Authority Key Identifier: 
                keyid:EF:38:8D:14:50:58:A7:5B:4D:9C:17:72:FC:DF:B9:AC:A7:51:B0:10
                DirName:/C=US/ST=CA/L=SanFrancisco/O=Pixglo, Inc./OU=VPN-CIE/CN=tunnel.pixglo.com/name=Bala Chandrasekaran/emailAddress=bala@pixglo.com
                serial:A6:DB:C6:83:80:E6:A0:79

            X509v3 Extended Key Usage: 
                TLS Web Client Authentication
            X509v3 Key Usage: 
                Digital Signature
    Signature Algorithm: sha1WithRSAEncryption
         91:fe:40:ab:a9:dc:d8:35:fd:90:af:cf:a5:cf:b5:e1:60:d3:
         cd:65:ad:f6:89:da:8c:5b:d3:a9:d7:d0:56:ad:df:0c:7d:48:
         fd:1b:60:ac:97:96:9d:1f:5c:67:9a:11:df:86:a6:7d:fd:f9:
         f1:0b:06:5f:b6:5a:5a:21:57:cd:de:11:96:55:55:9e:eb:17:
         2f:11:52:19:73:fb:40:43:7e:80:7b:db:d5:26:48:74:da:29:
         18:cf:61:4e:b0:7d:d8:46:9d:86:8d:3a:db:12:e3:89:4f:1e:
         98:59:ba:31:00:cb:9c:c9:5f:80:ad:61:a3:04:32:9d:cd:c2:
         19:fe:6c:d3:65:ec:4c:1e:4e:fc:d4:f1:af:6d:4b:13:bd:22:
         0c:7d:5d:a6:20:e1:da:34:38:fa:33:84:ad:63:cb:1f:ca:1e:
         fe:c8:ba:79:f4:20:81:6f:68:54:32:4b:91:22:2b:b2:47:b7:
         c9:b1:80:79:b9:f7:98:7b:22:e3:14:3a:78:f4:ea:46:1e:e9:
         59:ce:9d:c5:54:cb:2e:79:6f:60:ac:d2:54:03:4a:47:ce:de:
         8c:6a:cb:5d:33:49:7b:73:41:70:3f:8b:59:b7:56:3a:d0:b3:
         9a:9c:3b:38:25:5b:6b:01:31:8a:b0:19:f5:06:03:8d:b1:bc:
         e2:83:8a:ec:68:e2:f4:41:f0:00:05:bd:f7:23:20:b2:f6:c2:
         83:85:be:4a:84:8b:5e:10:c2:eb:a8:76:6e:26:96:b6:b9:a9:
         31:7b:1d:1d:4e:a8:73:ad:6c:b0:f2:e0:cd:76:5c:d6:a5:26:
         a4:bc:a2:1d:34:4a:62:42:45:d5:8f:55:3b:4b:67:86:67:60:
         9e:14:63:08:d3:0d:8d:70:99:47:f3:d6:2e:22:be:01:d2:f9:
         c1:d4:18:f8:65:78:44:de:d9:8f:be:71:4f:6c:15:d9:4e:0d:
         53:9b:d8:f7:7e:b0:4b:35:0e:88:55:27:2b:23:21:1a:16:bc:
         85:53:7e:06:4e:1d:43:28:07:71:2c:fc:33:c1:f2:ce:d4:32:
         1f:6a:c4:c8:5f:9a:0d:61:05:c4:03:44:b2:a4:16:9f:ff:34:
         29:5a:7b:d9:ac:f5:1f:66:5d:0d:89:3e:07:8a:67:2e:c7:74:
         e6:ac:06:7a:e4:57:60:29:2c:56:1b:c4:82:db:07:af:2a:7f:
         b5:ff:9f:78:97:e7:ec:54:e1:a2:be:91:87:15:dd:91:ce:4e:
         4c:d3:d9:70:fa:8a:40:5c:e4:d8:b8:3a:fb:aa:7e:66:f7:59:
         3f:09:04:a2:b4:af:d1:d0:a4:57:cf:d1:4e:b1:5d:3a:ee:b3:
         d0:ee:c1:a5:f6:27:c3:d1
-----BEGIN CERTIFICATE-----
MIIHSDCCBTCgAwIBAgICAXEwDQYJKoZIhvcNAQEFBQAwgbQxCzAJBgNVBAYTAlVT
MQswCQYDVQQIEwJDQTEVMBMGA1UEBxMMU2FuRnJhbmNpc2NvMRUwEwYDVQQKEwxQ
aXhnbG8sIEluYy4xEDAOBgNVBAsTB1ZQTi1DSUUxGjAYBgNVBAMTEXR1bm5lbC5w
aXhnbG8uY29tMRwwGgYDVQQpExNCYWxhIENoYW5kcmFzZWthcmFuMR4wHAYJKoZI
hvcNAQkBFg9iYWxhQHBpeGdsby5jb20wHhcNMTgwMjE0MDYzMTM4WhcNMjgwMjEy
MDYzMTM4WjCBqTELMAkGA1UEBhMCVVMxCzAJBgNVBAgTAkNBMRUwEwYDVQQHEwxT
YW5GcmFuY2lzY28xFTATBgNVBAoTDFBpeGdsbywgSW5jLjEQMA4GA1UECxMHVlBO
LUNJRTEPMA0GA1UEAxMGY2llMzY4MRwwGgYDVQQpExNCYWxhIENoYW5kcmFzZWth
cmFuMR4wHAYJKoZIhvcNAQkBFg9iYWxhQHBpeGdsby5jb20wggIiMA0GCSqGSIb3
DQEBAQUAA4ICDwAwggIKAoICAQD9LDlBZlm/X1RqoAhwgP8Ufid8K89W40GbhkbF
AUQuQ0tD7A7iaPgSAJYe6kfUzuYH812h3tbXH4AhRC6mwppzgkoljjEqc+JI7x2N
e+XmD9TBIGyGzAywHmvBMrEoe5iJbr0wBNe0cb5Tby1grYU6Zoz+zocXO1I3+2Sy
aSbIm56nWKPFIhJun7m7nLc9Izoe6xadOeQ7b00pOLIQsEsibUR/TrdJX/Fw0dus
EK0OoKsLOiZYhi7VIj78sfnL9JsNRsofU/BMnT0KUEC5F0nsMuvsUtSB48vncyaR
zjGlv0NOuBdQhpVEslAjPqML7SxisZ3OYHjWcxUWEnTqOAIfO4CYZr+/x+d/nUpx
+NmGU0YX0nwPltAlnPvsFMm7A4i+NNVA//isXlSb7w9novdvFnVSyt5Yk83x3dWH
FykjzeKqeFQAkTTvcdA3PgdP/SlP+LIFnyvY5Fxy4JGQ5NXCDSL4tUeKKZMn5H32
ez4VtYY1cBIhROjQ36Kv0u0XQicosc8KtWZ5pCaW6bU1kgwwEQsbCnlH7pJ3dnDx
aao277lHFzhKtHBzGPqX7gpvqcJ/gOK7icGiFq/3J4w/IlMDtyVMtDhBKEzHDLf0
npK56yvW8EtXbFYbhNLMUUpBEKeYbhTOT0dMPHx8FKUhNH+eUAEdQsgouXYouL0l
CNzGcQIDAQABo4IBazCCAWcwCQYDVR0TBAIwADAtBglghkgBhvhCAQ0EIBYeRWFz
eS1SU0EgR2VuZXJhdGVkIENlcnRpZmljYXRlMB0GA1UdDgQWBBRpkiyG9M/rGvV2
JRtPhC2CsM+6oDCB6QYDVR0jBIHhMIHegBTvOI0UUFinW02cF3L837msp1GwEKGB
uqSBtzCBtDELMAkGA1UEBhMCVVMxCzAJBgNVBAgTAkNBMRUwEwYDVQQHEwxTYW5G
cmFuY2lzY28xFTATBgNVBAoTDFBpeGdsbywgSW5jLjEQMA4GA1UECxMHVlBOLUNJ
RTEaMBgGA1UEAxMRdHVubmVsLnBpeGdsby5jb20xHDAaBgNVBCkTE0JhbGEgQ2hh
bmRyYXNla2FyYW4xHjAcBgkqhkiG9w0BCQEWD2JhbGFAcGl4Z2xvLmNvbYIJAKbb
xoOA5qB5MBMGA1UdJQQMMAoGCCsGAQUFBwMCMAsGA1UdDwQEAwIHgDANBgkqhkiG
9w0BAQUFAAOCAgEAkf5Aq6nc2DX9kK/Ppc+14WDTzWWt9onajFvTqdfQVq3fDH1I
/RtgrJeWnR9cZ5oR34amff358QsGX7ZaWiFXzd4RllVVnusXLxFSGXP7QEN+gHvb
1SZIdNopGM9hTrB92Eadho062xLjiU8emFm6MQDLnMlfgK1howQync3CGf5s02Xs
TB5O/NTxr21LE70iDH1dpiDh2jQ4+jOErWPLH8oe/si6efQggW9oVDJLkSIrske3
ybGAebn3mHsi4xQ6ePTqRh7pWc6dxVTLLnlvYKzSVANKR87ejGrLXTNJe3NBcD+L
WbdWOtCzmpw7OCVbawExirAZ9QYDjbG84oOK7Gji9EHwAAW99yMgsvbCg4W+SoSL
XhDC66h2biaWtrmpMXsdHU6oc61ssPLgzXZc1qUmpLyiHTRKYkJF1Y9VO0tnhmdg
nhRjCNMNjXCZR/PWLiK+AdL5wdQY+GV4RN7Zj75xT2wV2U4NU5vY936wSzUOiFUn
KyMhGha8hVN+Bk4dQygHcSz8M8HyztQyH2rEyF+aDWEFxANEsqQWn/80KVp72az1
H2ZdDYk+B4pnLsd05qwGeuRXYCksVhvEgtsHryp/tf+feJfn7FThor6RhxXdkc5O
TNPZcPqKQFzk2Lg6+6p+ZvdZPwkEorSv0dCkV8/RTrFdOu6z0O7BpfYnw9E=
-----END CERTIFICATE-----
