Certificate:
    Data:
        Version: 3 (0x2)
        Serial Number: 370 (0x172)
    Signature Algorithm: sha1WithRSAEncryption
        Issuer: C=US, ST=CA, L=SanFrancisco, O=Pixglo, Inc., OU=VPN-CIE, CN=tunnel.pixglo.com/name=Bala Chandrasekaran/emailAddress=bala@pixglo.com
        Validity
            Not Before: Feb 14 06:31:38 2018 GMT
            Not After : Feb 12 06:31:38 2028 GMT
        Subject: C=US, ST=CA, L=SanFrancisco, O=Pixglo, Inc., OU=VPN-CIE, CN=cie369/name=Bala Chandrasekaran/emailAddress=bala@pixglo.com
        Subject Public Key Info:
            Public Key Algorithm: rsaEncryption
                Public-Key: (4096 bit)
                Modulus:
                    00:bd:06:98:76:b5:ac:1d:40:26:81:89:74:7b:2b:
                    0b:bc:23:e2:60:02:67:21:7c:29:8c:2a:9c:01:9c:
                    09:16:75:ca:83:79:9e:d7:5a:c2:8c:6d:db:3b:9f:
                    e4:e4:cf:7b:26:6c:af:6d:cc:a7:d1:3c:72:87:f9:
                    09:62:c9:dc:ce:1c:d9:e6:6c:ca:14:73:32:1e:e1:
                    50:7f:d4:a3:84:08:57:56:8d:9f:fe:56:a0:94:47:
                    9d:43:9f:17:e4:82:99:a6:fb:d0:01:2b:dc:6d:c0:
                    6d:4a:10:d7:15:88:bc:89:33:b8:34:e2:96:01:ba:
                    07:3f:f5:5c:b6:db:c3:88:f4:14:a3:5e:10:6b:98:
                    e4:0d:dd:d3:9b:14:1d:d9:97:18:d8:37:a9:3f:a4:
                    04:fa:08:4e:fb:7b:5a:6a:79:32:d8:80:75:66:1b:
                    64:1a:ef:62:c4:9f:e3:6b:e4:78:84:e3:2a:15:57:
                    b0:ee:b5:40:06:a9:e7:4e:68:47:30:6b:94:bf:96:
                    8e:d0:a4:7a:77:cb:ad:3b:d8:c4:58:95:a0:aa:9c:
                    03:5d:db:b2:03:0f:7e:54:95:75:c0:ad:6c:2c:7b:
                    d8:4c:b1:c0:8d:8a:85:69:27:79:a9:c1:ab:2f:ec:
                    7c:99:af:35:43:d1:ae:5e:f8:cf:7f:73:86:68:da:
                    64:ae:c4:39:43:74:97:3f:4b:b8:f7:0c:e8:94:fa:
                    07:91:e3:3c:d8:04:b5:68:9e:fd:a8:d8:ce:80:9f:
                    f6:67:1f:fb:fa:af:78:27:a6:c1:53:b1:0c:4d:6f:
                    d5:e7:cf:03:ea:75:3f:8f:e2:20:3e:ef:42:ff:24:
                    f8:0e:ee:e8:dd:1b:2a:88:4f:62:e3:f3:c1:9c:10:
                    a4:10:08:58:5d:18:40:34:df:70:80:ab:16:c1:9e:
                    b3:e4:a0:d0:da:e5:0b:69:a2:7c:63:4f:de:9f:a8:
                    7c:45:fb:60:75:7e:59:e9:0f:61:36:dc:e8:70:d1:
                    a6:8b:5b:fa:b9:b8:74:e7:0b:54:8f:00:45:54:af:
                    53:87:01:ac:43:c6:fb:f3:1a:ee:fe:88:5b:f6:28:
                    87:f9:4d:e6:b8:b5:5b:a6:17:75:b6:db:d9:87:76:
                    02:30:5d:dc:3e:7c:16:70:08:60:ec:c9:de:75:b9:
                    df:a7:20:49:2e:51:6c:43:56:38:47:f7:0f:bf:63:
                    e3:7b:6a:9d:7f:24:e7:38:68:89:7d:f3:41:7a:47:
                    fb:64:65:ed:98:50:90:aa:3b:e2:6a:05:e5:18:8f:
                    c5:f5:dc:eb:29:42:bc:4e:0f:b0:f2:7d:31:ae:fa:
                    4f:e8:eb:e1:1d:49:58:9c:9f:d5:85:90:81:4e:3c:
                    d2:2a:9b
                Exponent: 65537 (0x10001)
        X509v3 extensions:
            X509v3 Basic Constraints: 
                CA:FALSE
            Netscape Comment: 
                Easy-RSA Generated Certificate
            X509v3 Subject Key Identifier: 
                47:9C:19:AB:5D:A5:ED:20:5E:65:8C:3A:B7:3B:F2:0B:3E:77:FA:17
            X509v3 Authority Key Identifier: 
                keyid:EF:38:8D:14:50:58:A7:5B:4D:9C:17:72:FC:DF:B9:AC:A7:51:B0:10
                DirName:/C=US/ST=CA/L=SanFrancisco/O=Pixglo, Inc./OU=VPN-CIE/CN=tunnel.pixglo.com/name=Bala Chandrasekaran/emailAddress=bala@pixglo.com
                serial:A6:DB:C6:83:80:E6:A0:79

            X509v3 Extended Key Usage: 
                TLS Web Client Authentication
            X509v3 Key Usage: 
                Digital Signature
    Signature Algorithm: sha1WithRSAEncryption
         4c:77:10:fc:ed:1f:8d:a5:43:5f:e3:da:eb:7f:b4:02:2b:5a:
         3d:7e:f9:b8:34:39:54:38:d5:fa:cf:8e:c0:5e:76:48:38:28:
         52:37:20:5c:d3:d7:3e:ad:21:d4:ff:30:d0:78:4d:96:d6:90:
         f6:29:99:c6:87:2d:c2:97:6e:b3:9c:3e:9c:e6:9b:2b:bc:7d:
         80:eb:a8:8e:23:18:27:d5:42:f3:30:1e:07:4d:83:b3:63:b0:
         53:73:21:db:5f:ae:01:49:ef:72:04:30:2f:b8:29:6f:c2:ab:
         9c:2a:0e:15:92:16:be:77:95:ce:10:58:ad:12:4c:4e:3c:94:
         cc:ef:a7:c5:5b:05:0c:7d:52:62:d1:d2:7d:df:0d:1c:d4:fe:
         be:ef:a3:d2:a8:59:04:57:a9:3e:ca:e0:3f:ae:d6:27:5a:26:
         66:f5:18:63:54:b5:83:34:7e:8f:37:89:e6:f9:7b:4b:69:47:
         10:d9:0d:74:ea:bd:2c:58:4a:c6:39:b3:1d:f2:39:d2:c7:be:
         22:88:a6:ff:05:d7:da:31:3d:24:cb:6c:fa:e8:3f:74:4c:38:
         20:ba:a0:d2:9e:1a:a7:61:8d:fd:d0:7c:6f:c6:46:26:cb:5c:
         9c:7d:aa:ce:3c:b3:fc:c9:4d:23:cb:97:b6:da:37:dd:42:eb:
         83:8f:16:5a:b9:d1:21:ba:c3:4c:ed:5f:88:01:4a:17:75:85:
         f4:98:34:61:a4:fa:9d:da:5d:26:29:ee:0a:78:ad:c6:78:a6:
         76:a4:c3:be:d7:70:04:ad:cd:e3:d7:6e:23:20:a0:4f:6d:d3:
         de:f8:e9:2e:3a:68:69:82:2c:be:f0:95:2c:4b:10:71:ca:2f:
         71:d3:68:53:1c:a0:d4:c6:27:71:84:7b:c5:34:22:d8:e2:5a:
         23:20:41:c1:23:85:56:25:85:7b:25:a8:d2:c7:d0:2d:fc:3a:
         11:5d:0e:46:2f:9a:2d:c1:d7:65:95:d4:81:ee:a3:51:71:b6:
         d7:2a:f6:df:ee:c8:a9:8c:b7:1f:e3:c0:6d:38:ee:67:0a:20:
         7b:93:7b:d2:c2:42:23:8f:1e:57:e2:d8:15:fd:f4:ab:df:24:
         42:75:ba:6b:28:31:46:06:3d:67:bd:47:2b:c8:78:ce:08:9d:
         60:01:3a:5b:71:d5:2d:8b:70:63:09:b9:98:de:7c:02:84:83:
         e4:11:f1:47:df:10:c9:03:9d:b2:ae:8d:2f:00:4e:72:2e:d9:
         1c:e9:ce:3f:3f:6c:c4:20:4e:c0:7d:fa:d7:fb:bf:c1:5a:7f:
         5f:22:52:2a:53:67:81:86:19:84:9f:91:95:1c:f9:1e:6c:de:
         5b:23:92:27:da:c8:55:53
-----BEGIN CERTIFICATE-----
MIIHSDCCBTCgAwIBAgICAXIwDQYJKoZIhvcNAQEFBQAwgbQxCzAJBgNVBAYTAlVT
MQswCQYDVQQIEwJDQTEVMBMGA1UEBxMMU2FuRnJhbmNpc2NvMRUwEwYDVQQKEwxQ
aXhnbG8sIEluYy4xEDAOBgNVBAsTB1ZQTi1DSUUxGjAYBgNVBAMTEXR1bm5lbC5w
aXhnbG8uY29tMRwwGgYDVQQpExNCYWxhIENoYW5kcmFzZWthcmFuMR4wHAYJKoZI
hvcNAQkBFg9iYWxhQHBpeGdsby5jb20wHhcNMTgwMjE0MDYzMTM4WhcNMjgwMjEy
MDYzMTM4WjCBqTELMAkGA1UEBhMCVVMxCzAJBgNVBAgTAkNBMRUwEwYDVQQHEwxT
YW5GcmFuY2lzY28xFTATBgNVBAoTDFBpeGdsbywgSW5jLjEQMA4GA1UECxMHVlBO
LUNJRTEPMA0GA1UEAxMGY2llMzY5MRwwGgYDVQQpExNCYWxhIENoYW5kcmFzZWth
cmFuMR4wHAYJKoZIhvcNAQkBFg9iYWxhQHBpeGdsby5jb20wggIiMA0GCSqGSIb3
DQEBAQUAA4ICDwAwggIKAoICAQC9Bph2tawdQCaBiXR7Kwu8I+JgAmchfCmMKpwB
nAkWdcqDeZ7XWsKMbds7n+Tkz3smbK9tzKfRPHKH+QliydzOHNnmbMoUczIe4VB/
1KOECFdWjZ/+VqCUR51Dnxfkgpmm+9ABK9xtwG1KENcViLyJM7g04pYBugc/9Vy2
28OI9BSjXhBrmOQN3dObFB3ZlxjYN6k/pAT6CE77e1pqeTLYgHVmG2Qa72LEn+Nr
5HiE4yoVV7DutUAGqedOaEcwa5S/lo7QpHp3y6072MRYlaCqnANd27IDD35UlXXA
rWwse9hMscCNioVpJ3mpwasv7HyZrzVD0a5e+M9/c4Zo2mSuxDlDdJc/S7j3DOiU
+geR4zzYBLVonv2o2M6An/ZnH/v6r3gnpsFTsQxNb9XnzwPqdT+P4iA+70L/JPgO
7ujdGyqIT2Lj88GcEKQQCFhdGEA033CAqxbBnrPkoNDa5QtponxjT96fqHxF+2B1
flnpD2E23Ohw0aaLW/q5uHTnC1SPAEVUr1OHAaxDxvvzGu7+iFv2KIf5Tea4tVum
F3W229mHdgIwXdw+fBZwCGDsyd51ud+nIEkuUWxDVjhH9w+/Y+N7ap1/JOc4aIl9
80F6R/tkZe2YUJCqO+JqBeUYj8X13OspQrxOD7DyfTGu+k/o6+EdSVicn9WFkIFO
PNIqmwIDAQABo4IBazCCAWcwCQYDVR0TBAIwADAtBglghkgBhvhCAQ0EIBYeRWFz
eS1SU0EgR2VuZXJhdGVkIENlcnRpZmljYXRlMB0GA1UdDgQWBBRHnBmrXaXtIF5l
jDq3O/ILPnf6FzCB6QYDVR0jBIHhMIHegBTvOI0UUFinW02cF3L837msp1GwEKGB
uqSBtzCBtDELMAkGA1UEBhMCVVMxCzAJBgNVBAgTAkNBMRUwEwYDVQQHEwxTYW5G
cmFuY2lzY28xFTATBgNVBAoTDFBpeGdsbywgSW5jLjEQMA4GA1UECxMHVlBOLUNJ
RTEaMBgGA1UEAxMRdHVubmVsLnBpeGdsby5jb20xHDAaBgNVBCkTE0JhbGEgQ2hh
bmRyYXNla2FyYW4xHjAcBgkqhkiG9w0BCQEWD2JhbGFAcGl4Z2xvLmNvbYIJAKbb
xoOA5qB5MBMGA1UdJQQMMAoGCCsGAQUFBwMCMAsGA1UdDwQEAwIHgDANBgkqhkiG
9w0BAQUFAAOCAgEATHcQ/O0fjaVDX+Pa63+0AitaPX75uDQ5VDjV+s+OwF52SDgo
UjcgXNPXPq0h1P8w0HhNltaQ9imZxoctwpdus5w+nOabK7x9gOuojiMYJ9VC8zAe
B02Ds2OwU3Mh21+uAUnvcgQwL7gpb8KrnCoOFZIWvneVzhBYrRJMTjyUzO+nxVsF
DH1SYtHSfd8NHNT+vu+j0qhZBFepPsrgP67WJ1omZvUYY1S1gzR+jzeJ5vl7S2lH
ENkNdOq9LFhKxjmzHfI50se+Ioim/wXX2jE9JMts+ug/dEw4ILqg0p4ap2GN/dB8
b8ZGJstcnH2qzjyz/MlNI8uXtto33ULrg48WWrnRIbrDTO1fiAFKF3WF9Jg0YaT6
ndpdJinuCnitxnimdqTDvtdwBK3N49duIyCgT23T3vjpLjpoaYIsvvCVLEsQccov
cdNoUxyg1MYncYR7xTQi2OJaIyBBwSOFViWFeyWo0sfQLfw6EV0ORi+aLcHXZZXU
ge6jUXG21yr23+7IqYy3H+PAbTjuZwoge5N70sJCI48eV+LYFf30q98kQnW6aygx
RgY9Z71HK8h4zgidYAE6W3HVLYtwYwm5mN58AoSD5BHxR98QyQOdsq6NLwBOci7Z
HOnOPz9sxCBOwH361/u/wVp/XyJSKlNngYYZhJ+RlRz5HmzeWyOSJ9rIVVM=
-----END CERTIFICATE-----
