Certificate:
    Data:
        Version: 3 (0x2)
        Serial Number: 371 (0x173)
    Signature Algorithm: sha1WithRSAEncryption
        Issuer: C=US, ST=CA, L=SanFrancisco, O=Pixglo, Inc., OU=VPN-CIE, CN=tunnel.pixglo.com/name=Bala Chandrasekaran/emailAddress=bala@pixglo.com
        Validity
            Not Before: Feb 14 06:31:40 2018 GMT
            Not After : Feb 12 06:31:40 2028 GMT
        Subject: C=US, ST=CA, L=SanFrancisco, O=Pixglo, Inc., OU=VPN-CIE, CN=cie370/name=Bala Chandrasekaran/emailAddress=bala@pixglo.com
        Subject Public Key Info:
            Public Key Algorithm: rsaEncryption
                Public-Key: (4096 bit)
                Modulus:
                    00:d3:bb:75:cc:e6:bf:9e:27:60:57:4c:b7:62:42:
                    29:3b:5a:78:ca:da:04:02:51:4f:13:7e:52:e7:8c:
                    27:c8:29:e7:6f:96:1e:44:3c:11:07:1c:a0:9f:39:
                    0c:97:8e:c4:23:30:1d:f6:92:db:d4:4a:ed:0b:dd:
                    5d:36:b9:4e:e3:f8:10:a7:9a:b2:b1:ab:b8:06:70:
                    62:01:97:b4:83:36:bd:36:66:ba:a1:09:d3:41:b2:
                    1a:9d:bb:9f:ea:f2:c1:2b:9e:b4:d9:9d:e4:b3:f3:
                    d3:3c:59:de:13:52:49:5c:ca:9b:ab:fd:ac:be:59:
                    d5:ed:f8:98:a3:9c:94:bb:13:2e:53:f0:7d:73:d9:
                    ec:d6:5f:39:47:f8:29:97:62:6f:6a:37:d3:ee:58:
                    c1:86:f5:e8:d6:ce:9f:ad:de:f8:fe:d0:c1:8e:23:
                    8c:91:dc:e3:a2:e6:83:d0:3c:d2:12:b2:8f:8f:bd:
                    cc:14:73:5d:84:e2:35:71:c8:22:69:df:f0:43:6f:
                    fe:36:b6:a2:ce:4a:90:37:fb:b3:cb:3b:89:4f:59:
                    24:36:10:ea:3a:72:45:c3:1b:20:5e:4c:40:68:81:
                    21:18:8f:8c:d2:19:ad:8e:7e:2e:ed:c3:23:86:43:
                    58:d7:23:75:c2:18:2f:6c:20:4a:fe:17:cb:e2:6d:
                    57:79:5f:a1:6d:38:35:b2:3f:17:37:87:99:6c:a2:
                    32:0d:af:17:7a:10:bc:40:c3:75:4c:ee:3f:d9:db:
                    17:2c:1b:26:d0:09:27:88:d5:07:90:d8:29:64:14:
                    b9:72:dc:2b:16:7b:f1:95:80:78:0c:0d:4c:2a:3a:
                    f1:08:1d:a3:f0:ef:8f:b1:43:88:95:df:56:7d:d4:
                    76:cf:d0:9b:af:c1:fa:f2:7c:b8:9c:c3:1a:d3:5a:
                    45:7c:5b:fb:de:06:f6:9f:fc:a0:a3:2c:c3:5e:be:
                    1a:3e:76:0f:41:18:cb:ed:7f:48:59:47:48:74:e3:
                    dd:af:ef:bc:50:09:ac:5e:e1:7a:04:d5:ff:99:d0:
                    4a:b0:a2:ff:1a:5d:b8:e1:2d:49:4b:7c:56:03:93:
                    0e:7f:fc:b7:a0:df:7f:1d:6f:24:28:4b:de:8b:0a:
                    9b:68:49:fa:d7:37:0f:af:3f:c1:eb:a7:52:fe:7c:
                    14:b3:bf:46:f8:ae:29:8d:28:79:dd:f3:c9:d6:ed:
                    8f:6c:d5:bd:da:b8:00:78:81:a6:86:49:23:b7:c8:
                    ac:99:2a:27:f9:b8:f7:ba:c0:ff:c3:55:54:1f:66:
                    c6:77:f6:a1:3b:73:c5:a1:f0:ed:10:c9:61:74:f8:
                    77:ef:9a:b5:5f:81:a2:9e:7e:c0:53:a1:ef:6c:12:
                    be:c6:47
                Exponent: 65537 (0x10001)
        X509v3 extensions:
            X509v3 Basic Constraints: 
                CA:FALSE
            Netscape Comment: 
                Easy-RSA Generated Certificate
            X509v3 Subject Key Identifier: 
                41:05:CC:5A:A1:C3:2B:64:B1:EA:6B:EB:DA:44:A1:18:57:A5:F6:89
            X509v3 Authority Key Identifier: 
                keyid:EF:38:8D:14:50:58:A7:5B:4D:9C:17:72:FC:DF:B9:AC:A7:51:B0:10
                DirName:/C=US/ST=CA/L=SanFrancisco/O=Pixglo, Inc./OU=VPN-CIE/CN=tunnel.pixglo.com/name=Bala Chandrasekaran/emailAddress=bala@pixglo.com
                serial:A6:DB:C6:83:80:E6:A0:79

            X509v3 Extended Key Usage: 
                TLS Web Client Authentication
            X509v3 Key Usage: 
                Digital Signature
    Signature Algorithm: sha1WithRSAEncryption
         95:b6:4c:d0:76:52:f9:7e:ed:78:9a:bc:cc:99:33:49:be:e7:
         a1:43:b6:c2:a9:53:8a:11:64:a0:64:f4:96:52:21:bd:68:7c:
         a2:f4:bc:80:a0:11:80:30:ab:6a:6b:f6:02:87:06:f7:62:33:
         0e:0a:b1:f2:17:5c:04:54:db:76:b5:f9:fa:17:88:53:06:0a:
         40:d9:6a:07:1b:1f:37:06:dc:2a:9f:7e:51:40:83:66:99:5e:
         03:d0:0d:06:ec:1a:83:f6:95:23:f7:8e:6a:a8:62:47:62:37:
         c4:e3:d7:24:25:9e:d3:44:01:08:88:cc:a5:81:9a:08:92:f4:
         e6:6f:12:5f:36:5b:be:88:e4:21:27:58:f7:46:03:b5:9a:6d:
         37:05:25:9e:5e:81:32:ab:c8:08:a3:d4:a9:8c:0a:f4:2c:28:
         f8:9f:87:11:28:ae:6a:e0:18:da:fe:45:ad:64:0f:0e:ee:04:
         96:2e:6a:c8:9a:e8:c8:da:20:e1:01:87:c5:bd:18:ff:c3:20:
         6e:31:cf:51:74:a5:e5:60:9f:d9:97:18:29:22:dc:a9:6e:40:
         f2:e1:13:19:11:45:b3:4d:fe:63:b1:47:df:d8:5f:d1:29:c9:
         8d:16:b2:da:6b:63:ef:5e:0a:fd:20:03:cd:a2:76:fa:c7:c4:
         69:ab:24:be:ef:83:a0:5b:0e:59:e4:55:e0:f2:76:95:30:db:
         6b:f8:f8:17:9e:77:2e:33:b6:c9:ba:e4:b5:0e:0b:5e:13:3e:
         aa:f7:a7:fd:7f:e4:ba:42:28:24:79:5f:fb:99:31:51:91:38:
         72:51:5b:0d:d1:9b:1c:3f:72:91:ed:ec:ba:e8:af:de:1e:a0:
         ae:e5:d6:03:dd:eb:a4:17:c2:02:13:79:fc:12:4a:d7:68:d1:
         aa:87:11:ef:49:a4:f9:26:5f:09:72:e5:df:f9:6c:56:ef:47:
         e6:d1:59:6e:d1:04:06:14:fc:86:7f:8c:4a:09:4a:c4:3a:91:
         60:10:3b:87:50:67:6b:bc:62:79:b8:18:ea:3e:7a:11:46:2f:
         a6:67:a6:2a:cb:9e:9a:22:36:25:c3:47:f6:a1:68:f5:0b:78:
         89:f4:a5:df:dd:5f:57:7e:a7:d8:bd:32:b3:2c:e5:f0:33:e0:
         b0:1a:ca:a3:76:fc:52:e5:78:e3:ba:f5:ba:2d:47:23:51:9c:
         42:72:a8:ca:d0:30:41:6a:20:9a:2d:4d:7d:4c:55:d9:9d:82:
         36:aa:b0:42:ac:1d:12:79:ae:93:47:a5:fc:db:25:50:fa:f0:
         a3:ca:97:af:a6:54:77:fa:75:fa:dd:6c:0f:af:a7:79:00:4a:
         bb:4a:0b:c2:4c:dd:6c:4f
-----BEGIN CERTIFICATE-----
MIIHSDCCBTCgAwIBAgICAXMwDQYJKoZIhvcNAQEFBQAwgbQxCzAJBgNVBAYTAlVT
MQswCQYDVQQIEwJDQTEVMBMGA1UEBxMMU2FuRnJhbmNpc2NvMRUwEwYDVQQKEwxQ
aXhnbG8sIEluYy4xEDAOBgNVBAsTB1ZQTi1DSUUxGjAYBgNVBAMTEXR1bm5lbC5w
aXhnbG8uY29tMRwwGgYDVQQpExNCYWxhIENoYW5kcmFzZWthcmFuMR4wHAYJKoZI
hvcNAQkBFg9iYWxhQHBpeGdsby5jb20wHhcNMTgwMjE0MDYzMTQwWhcNMjgwMjEy
MDYzMTQwWjCBqTELMAkGA1UEBhMCVVMxCzAJBgNVBAgTAkNBMRUwEwYDVQQHEwxT
YW5GcmFuY2lzY28xFTATBgNVBAoTDFBpeGdsbywgSW5jLjEQMA4GA1UECxMHVlBO
LUNJRTEPMA0GA1UEAxMGY2llMzcwMRwwGgYDVQQpExNCYWxhIENoYW5kcmFzZWth
cmFuMR4wHAYJKoZIhvcNAQkBFg9iYWxhQHBpeGdsby5jb20wggIiMA0GCSqGSIb3
DQEBAQUAA4ICDwAwggIKAoICAQDTu3XM5r+eJ2BXTLdiQik7WnjK2gQCUU8TflLn
jCfIKedvlh5EPBEHHKCfOQyXjsQjMB32ktvUSu0L3V02uU7j+BCnmrKxq7gGcGIB
l7SDNr02ZrqhCdNBshqdu5/q8sErnrTZneSz89M8Wd4TUklcypur/ay+WdXt+Jij
nJS7Ey5T8H1z2ezWXzlH+CmXYm9qN9PuWMGG9ejWzp+t3vj+0MGOI4yR3OOi5oPQ
PNISso+PvcwUc12E4jVxyCJp3/BDb/42tqLOSpA3+7PLO4lPWSQ2EOo6ckXDGyBe
TEBogSEYj4zSGa2Ofi7twyOGQ1jXI3XCGC9sIEr+F8vibVd5X6FtODWyPxc3h5ls
ojINrxd6ELxAw3VM7j/Z2xcsGybQCSeI1QeQ2ClkFLly3CsWe/GVgHgMDUwqOvEI
HaPw74+xQ4iV31Z91HbP0JuvwfryfLicwxrTWkV8W/veBvaf/KCjLMNevho+dg9B
GMvtf0hZR0h0492v77xQCaxe4XoE1f+Z0Eqwov8aXbjhLUlLfFYDkw5//Leg338d
byQoS96LCptoSfrXNw+vP8Hrp1L+fBSzv0b4rimNKHnd88nW7Y9s1b3auAB4gaaG
SSO3yKyZKif5uPe6wP/DVVQfZsZ39qE7c8Wh8O0QyWF0+HfvmrVfgaKefsBToe9s
Er7GRwIDAQABo4IBazCCAWcwCQYDVR0TBAIwADAtBglghkgBhvhCAQ0EIBYeRWFz
eS1SU0EgR2VuZXJhdGVkIENlcnRpZmljYXRlMB0GA1UdDgQWBBRBBcxaocMrZLHq
a+vaRKEYV6X2iTCB6QYDVR0jBIHhMIHegBTvOI0UUFinW02cF3L837msp1GwEKGB
uqSBtzCBtDELMAkGA1UEBhMCVVMxCzAJBgNVBAgTAkNBMRUwEwYDVQQHEwxTYW5G
cmFuY2lzY28xFTATBgNVBAoTDFBpeGdsbywgSW5jLjEQMA4GA1UECxMHVlBOLUNJ
RTEaMBgGA1UEAxMRdHVubmVsLnBpeGdsby5jb20xHDAaBgNVBCkTE0JhbGEgQ2hh
bmRyYXNla2FyYW4xHjAcBgkqhkiG9w0BCQEWD2JhbGFAcGl4Z2xvLmNvbYIJAKbb
xoOA5qB5MBMGA1UdJQQMMAoGCCsGAQUFBwMCMAsGA1UdDwQEAwIHgDANBgkqhkiG
9w0BAQUFAAOCAgEAlbZM0HZS+X7teJq8zJkzSb7noUO2wqlTihFkoGT0llIhvWh8
ovS8gKARgDCramv2AocG92IzDgqx8hdcBFTbdrX5+heIUwYKQNlqBxsfNwbcKp9+
UUCDZpleA9ANBuwag/aVI/eOaqhiR2I3xOPXJCWe00QBCIjMpYGaCJL05m8SXzZb
vojkISdY90YDtZptNwUlnl6BMqvICKPUqYwK9Cwo+J+HESiuauAY2v5FrWQPDu4E
li5qyJroyNog4QGHxb0Y/8MgbjHPUXSl5WCf2ZcYKSLcqW5A8uETGRFFs03+Y7FH
39hf0SnJjRay2mtj714K/SADzaJ2+sfEaaskvu+DoFsOWeRV4PJ2lTDba/j4F553
LjO2ybrktQ4LXhM+qven/X/kukIoJHlf+5kxUZE4clFbDdGbHD9yke3suuiv3h6g
ruXWA93rpBfCAhN5/BJK12jRqocR70mk+SZfCXLl3/lsVu9H5tFZbtEEBhT8hn+M
SglKxDqRYBA7h1Bna7xiebgY6j56EUYvpmemKsuemiI2JcNH9qFo9Qt4ifSl391f
V36n2L0ysyzl8DPgsBrKo3b8UuV447r1ui1HI1GcQnKoytAwQWogmi1NfUxV2Z2C
NqqwQqwdEnmuk0el/NslUPrwo8qXr6ZUd/p1+t1sD6+neQBKu0oLwkzdbE8=
-----END CERTIFICATE-----
