Certificate:
    Data:
        Version: 3 (0x2)
        Serial Number: 378 (0x17a)
    Signature Algorithm: sha1WithRSAEncryption
        Issuer: C=US, ST=CA, L=SanFrancisco, O=Pixglo, Inc., OU=VPN-CIE, CN=tunnel.pixglo.com/name=Bala Chandrasekaran/emailAddress=bala@pixglo.com
        Validity
            Not Before: Feb 14 06:31:57 2018 GMT
            Not After : Feb 12 06:31:57 2028 GMT
        Subject: C=US, ST=CA, L=SanFrancisco, O=Pixglo, Inc., OU=VPN-CIE, CN=cie377/name=Bala Chandrasekaran/emailAddress=bala@pixglo.com
        Subject Public Key Info:
            Public Key Algorithm: rsaEncryption
                Public-Key: (4096 bit)
                Modulus:
                    00:b9:58:40:73:a8:89:75:11:0e:62:42:e3:86:4b:
                    ee:0d:19:4e:0f:7e:0d:3b:41:09:a1:87:19:52:49:
                    da:b8:8f:ea:fb:a5:31:70:a6:1c:56:d9:17:39:d3:
                    97:3f:9f:1b:c4:ec:4d:d1:36:ca:d9:16:17:fa:b5:
                    2b:11:8c:f7:30:bd:6a:ff:ea:15:29:f2:7d:2a:2d:
                    93:0b:98:16:d7:c9:d0:eb:66:df:1a:18:80:2e:ea:
                    17:23:a3:28:a2:2b:e1:22:07:84:c1:f9:42:73:82:
                    d7:d0:8f:28:c0:c9:a0:6a:7d:9f:e6:79:24:f2:7d:
                    87:0c:e8:32:eb:e6:4a:89:f5:56:24:01:49:eb:a6:
                    17:f5:5e:34:27:54:60:a9:31:c9:51:5d:48:6b:c7:
                    0c:48:fd:30:02:a0:b7:1b:cc:31:57:00:2e:9f:23:
                    de:4d:40:27:eb:f3:f2:84:03:f8:04:1d:b3:ab:33:
                    81:d0:a3:9d:29:3d:34:c0:e3:11:6e:ab:8d:6f:7d:
                    ab:0c:70:dc:22:8f:ed:e5:6c:c7:92:8e:e6:45:05:
                    3d:53:fe:f7:43:71:2f:f3:fc:b3:9c:3c:48:27:6a:
                    dc:50:67:ba:22:03:45:59:ec:e6:8f:42:e3:b8:0c:
                    e2:c7:90:48:55:e8:8b:3b:af:b5:16:c9:49:d1:29:
                    21:62:25:3c:c5:61:4a:b9:cd:39:f6:06:cf:5e:5b:
                    79:27:a4:4d:ab:d1:18:dd:fd:93:38:d3:6c:97:fb:
                    79:b9:a7:92:0d:b4:3c:34:17:6d:17:50:c7:3d:f2:
                    a2:7a:2d:ea:a6:b6:63:05:cf:09:ce:6d:56:1d:8b:
                    c6:7d:2a:eb:84:c4:1e:90:3f:22:2a:52:c0:b3:0c:
                    55:54:e0:59:30:99:4c:96:76:56:e4:cb:79:6a:94:
                    4c:0d:69:3e:e4:7e:49:63:e6:0a:4d:c1:1e:b0:b1:
                    bf:3a:74:22:82:40:f9:e0:70:02:02:14:95:3b:b0:
                    f1:5f:69:0f:9a:73:93:9b:c1:4e:38:97:37:f7:f8:
                    6e:d9:b1:83:ea:c8:f2:e4:cf:9b:c5:8f:8b:4f:43:
                    e0:18:ba:e2:9d:b7:7f:f5:7a:88:35:ba:7a:00:00:
                    3e:fe:e4:ce:62:5c:f1:b6:47:56:10:ef:1d:70:03:
                    41:f0:e0:5c:61:76:69:4b:2b:7c:5a:1d:74:f3:c4:
                    fd:31:cf:3e:2e:6e:7e:82:f5:b0:13:d2:74:f3:c9:
                    8b:56:0f:0e:ca:95:72:2e:f8:83:6c:9b:d8:d1:56:
                    85:12:90:ab:e0:44:b5:a9:33:31:0e:b3:da:28:40:
                    60:08:df:53:63:1d:ba:59:7e:e1:28:50:a4:9c:bd:
                    41:8c:fb
                Exponent: 65537 (0x10001)
        X509v3 extensions:
            X509v3 Basic Constraints: 
                CA:FALSE
            Netscape Comment: 
                Easy-RSA Generated Certificate
            X509v3 Subject Key Identifier: 
                97:16:23:D6:47:18:ED:24:B6:07:94:0C:DA:E0:CE:30:24:8C:4C:07
            X509v3 Authority Key Identifier: 
                keyid:EF:38:8D:14:50:58:A7:5B:4D:9C:17:72:FC:DF:B9:AC:A7:51:B0:10
                DirName:/C=US/ST=CA/L=SanFrancisco/O=Pixglo, Inc./OU=VPN-CIE/CN=tunnel.pixglo.com/name=Bala Chandrasekaran/emailAddress=bala@pixglo.com
                serial:A6:DB:C6:83:80:E6:A0:79

            X509v3 Extended Key Usage: 
                TLS Web Client Authentication
            X509v3 Key Usage: 
                Digital Signature
    Signature Algorithm: sha1WithRSAEncryption
         c8:d0:c9:8b:c2:2a:d8:63:ef:83:09:7c:e7:fd:ed:b3:d0:6b:
         1b:36:3c:92:97:ad:81:28:a1:35:46:0f:57:fd:4a:f0:57:1b:
         a4:c2:0b:15:f6:40:77:a5:0f:6a:6a:0a:e9:23:20:24:78:ee:
         93:ed:f4:0e:45:5f:7a:32:d6:33:c9:a0:75:0f:ea:b0:fd:7d:
         ed:ab:80:62:65:6a:b6:9d:b7:a2:f2:b5:32:fe:b3:7e:25:35:
         47:e9:b2:d6:78:60:aa:ec:ee:c3:87:7d:a3:69:85:27:a2:72:
         f9:9d:d9:12:e1:43:13:5e:6e:91:ee:68:0f:b0:e1:e9:96:55:
         df:5d:9a:f7:3d:cc:f7:ae:57:98:be:a9:74:d4:04:06:6e:ab:
         ba:18:c3:c3:47:94:a5:fc:32:6f:e7:f2:f1:90:a2:26:0d:db:
         ff:ca:a6:3d:e7:66:55:14:48:5c:76:98:a1:f2:94:61:ad:1e:
         68:37:84:07:6a:aa:81:9a:30:a0:84:c4:dd:8f:5c:64:c5:9e:
         4a:7f:e9:1b:ae:02:15:6a:3c:be:2a:eb:c0:ae:45:ba:39:f4:
         2c:af:87:a7:c0:d0:2c:f3:42:b9:79:0a:84:eb:17:c4:ad:e8:
         a5:05:1c:6b:13:91:bc:a2:0f:be:c5:fd:92:2f:f6:fb:ff:30:
         54:54:be:a1:08:dc:39:00:4c:df:2d:50:8d:6d:4c:06:16:6a:
         26:fa:b8:27:a4:70:de:17:7a:80:f4:1e:f6:ef:d9:11:e4:ea:
         6c:58:83:a8:e7:ed:0d:78:8c:19:eb:7e:ed:6a:dd:78:e4:aa:
         23:aa:78:a4:bc:a3:5a:6f:e0:fa:5c:f8:e9:09:be:4f:86:b9:
         6d:13:f5:8f:b9:f8:7d:13:8d:fb:ba:b8:da:df:71:e2:cd:7d:
         55:59:cd:ff:69:c1:61:24:af:a3:34:32:8e:1a:45:d9:a2:41:
         00:17:62:d0:b2:69:b2:ad:ae:9e:81:b2:ee:13:b0:67:7c:ab:
         d6:43:22:15:2e:06:69:4e:20:5a:05:9e:01:fc:ff:fa:0d:63:
         22:f2:dc:6f:1d:84:c4:68:07:d8:4c:0c:b0:93:34:f9:63:cf:
         79:19:53:1b:26:ac:a4:d2:f1:ac:17:73:19:d8:cb:3e:d4:06:
         86:a5:06:64:3d:76:d7:ba:6c:ee:f8:ba:92:f5:bc:37:d3:b9:
         bd:8d:03:be:f8:f8:80:cd:c4:67:c8:55:1d:6f:3f:4e:e0:c1:
         00:a5:0d:ff:e8:26:44:2c:d5:bd:d6:dc:dd:8a:d9:4d:ce:24:
         f4:38:26:cf:06:17:a2:8a:1f:19:dc:c7:1f:8f:f7:c5:cc:57:
         39:54:b0:39:24:7c:db:af
-----BEGIN CERTIFICATE-----
MIIHSDCCBTCgAwIBAgICAXowDQYJKoZIhvcNAQEFBQAwgbQxCzAJBgNVBAYTAlVT
MQswCQYDVQQIEwJDQTEVMBMGA1UEBxMMU2FuRnJhbmNpc2NvMRUwEwYDVQQKEwxQ
aXhnbG8sIEluYy4xEDAOBgNVBAsTB1ZQTi1DSUUxGjAYBgNVBAMTEXR1bm5lbC5w
aXhnbG8uY29tMRwwGgYDVQQpExNCYWxhIENoYW5kcmFzZWthcmFuMR4wHAYJKoZI
hvcNAQkBFg9iYWxhQHBpeGdsby5jb20wHhcNMTgwMjE0MDYzMTU3WhcNMjgwMjEy
MDYzMTU3WjCBqTELMAkGA1UEBhMCVVMxCzAJBgNVBAgTAkNBMRUwEwYDVQQHEwxT
YW5GcmFuY2lzY28xFTATBgNVBAoTDFBpeGdsbywgSW5jLjEQMA4GA1UECxMHVlBO
LUNJRTEPMA0GA1UEAxMGY2llMzc3MRwwGgYDVQQpExNCYWxhIENoYW5kcmFzZWth
cmFuMR4wHAYJKoZIhvcNAQkBFg9iYWxhQHBpeGdsby5jb20wggIiMA0GCSqGSIb3
DQEBAQUAA4ICDwAwggIKAoICAQC5WEBzqIl1EQ5iQuOGS+4NGU4Pfg07QQmhhxlS
Sdq4j+r7pTFwphxW2Rc505c/nxvE7E3RNsrZFhf6tSsRjPcwvWr/6hUp8n0qLZML
mBbXydDrZt8aGIAu6hcjoyiiK+EiB4TB+UJzgtfQjyjAyaBqfZ/meSTyfYcM6DLr
5kqJ9VYkAUnrphf1XjQnVGCpMclRXUhrxwxI/TACoLcbzDFXAC6fI95NQCfr8/KE
A/gEHbOrM4HQo50pPTTA4xFuq41vfasMcNwij+3lbMeSjuZFBT1T/vdDcS/z/LOc
PEgnatxQZ7oiA0VZ7OaPQuO4DOLHkEhV6Is7r7UWyUnRKSFiJTzFYUq5zTn2Bs9e
W3knpE2r0Rjd/ZM402yX+3m5p5INtDw0F20XUMc98qJ6LeqmtmMFzwnObVYdi8Z9
KuuExB6QPyIqUsCzDFVU4FkwmUyWdlbky3lqlEwNaT7kfklj5gpNwR6wsb86dCKC
QPngcAICFJU7sPFfaQ+ac5ObwU44lzf3+G7ZsYPqyPLkz5vFj4tPQ+AYuuKdt3/1
eog1unoAAD7+5M5iXPG2R1YQ7x1wA0Hw4FxhdmlLK3xaHXTzxP0xzz4ubn6C9bAT
0nTzyYtWDw7KlXIu+INsm9jRVoUSkKvgRLWpMzEOs9ooQGAI31NjHbpZfuEoUKSc
vUGM+wIDAQABo4IBazCCAWcwCQYDVR0TBAIwADAtBglghkgBhvhCAQ0EIBYeRWFz
eS1SU0EgR2VuZXJhdGVkIENlcnRpZmljYXRlMB0GA1UdDgQWBBSXFiPWRxjtJLYH
lAza4M4wJIxMBzCB6QYDVR0jBIHhMIHegBTvOI0UUFinW02cF3L837msp1GwEKGB
uqSBtzCBtDELMAkGA1UEBhMCVVMxCzAJBgNVBAgTAkNBMRUwEwYDVQQHEwxTYW5G
cmFuY2lzY28xFTATBgNVBAoTDFBpeGdsbywgSW5jLjEQMA4GA1UECxMHVlBOLUNJ
RTEaMBgGA1UEAxMRdHVubmVsLnBpeGdsby5jb20xHDAaBgNVBCkTE0JhbGEgQ2hh
bmRyYXNla2FyYW4xHjAcBgkqhkiG9w0BCQEWD2JhbGFAcGl4Z2xvLmNvbYIJAKbb
xoOA5qB5MBMGA1UdJQQMMAoGCCsGAQUFBwMCMAsGA1UdDwQEAwIHgDANBgkqhkiG
9w0BAQUFAAOCAgEAyNDJi8Iq2GPvgwl85/3ts9BrGzY8kpetgSihNUYPV/1K8Fcb
pMILFfZAd6UPamoK6SMgJHjuk+30DkVfejLWM8mgdQ/qsP197auAYmVqtp23ovK1
Mv6zfiU1R+my1nhgquzuw4d9o2mFJ6Jy+Z3ZEuFDE15uke5oD7Dh6ZZV312a9z3M
965XmL6pdNQEBm6ruhjDw0eUpfwyb+fy8ZCiJg3b/8qmPedmVRRIXHaYofKUYa0e
aDeEB2qqgZowoITE3Y9cZMWeSn/pG64CFWo8virrwK5Fujn0LK+Hp8DQLPNCuXkK
hOsXxK3opQUcaxORvKIPvsX9ki/2+/8wVFS+oQjcOQBM3y1QjW1MBhZqJvq4J6Rw
3hd6gPQe9u/ZEeTqbFiDqOftDXiMGet+7WrdeOSqI6p4pLyjWm/g+lz46Qm+T4a5
bRP1j7n4fRON+7q42t9x4s19VVnN/2nBYSSvozQyjhpF2aJBABdi0LJpsq2unoGy
7hOwZ3yr1kMiFS4GaU4gWgWeAfz/+g1jIvLcbx2ExGgH2EwMsJM0+WPPeRlTGyas
pNLxrBdzGdjLPtQGhqUGZD1217ps7vi6kvW8N9O5vY0Dvvj4gM3EZ8hVHW8/TuDB
AKUN/+gmRCzVvdbc3YrZTc4k9DgmzwYXooofGdzHH4/3xcxXOVSwOSR8268=
-----END CERTIFICATE-----
