Certificate:
    Data:
        Version: 3 (0x2)
        Serial Number: 380 (0x17c)
    Signature Algorithm: sha1WithRSAEncryption
        Issuer: C=US, ST=CA, L=SanFrancisco, O=Pixglo, Inc., OU=VPN-CIE, CN=tunnel.pixglo.com/name=Bala Chandrasekaran/emailAddress=bala@pixglo.com
        Validity
            Not Before: Feb 14 06:32:01 2018 GMT
            Not After : Feb 12 06:32:01 2028 GMT
        Subject: C=US, ST=CA, L=SanFrancisco, O=Pixglo, Inc., OU=VPN-CIE, CN=cie379/name=Bala Chandrasekaran/emailAddress=bala@pixglo.com
        Subject Public Key Info:
            Public Key Algorithm: rsaEncryption
                Public-Key: (4096 bit)
                Modulus:
                    00:f2:d6:2a:ef:71:76:df:2d:84:a3:76:20:e2:76:
                    22:a3:29:ec:9a:f6:42:96:82:3d:25:a6:9c:91:39:
                    bc:24:d0:8f:6f:fb:89:1c:a3:74:cd:29:06:0f:38:
                    a0:68:13:b5:26:12:6e:3b:ec:88:ed:c5:5b:c0:39:
                    1e:6a:16:48:b9:63:1a:08:6e:b9:40:de:e4:1c:76:
                    67:e5:27:cb:b5:01:4c:d9:75:f9:e5:41:9c:9c:11:
                    01:96:b6:8d:35:fb:30:d7:9e:52:b8:dd:73:d5:5d:
                    4e:5f:4c:37:c0:34:74:e7:30:4b:cc:2f:f8:69:72:
                    89:08:e6:c8:f6:2e:fc:0e:4b:b2:70:3b:a1:f8:8a:
                    35:6c:62:a2:e2:8c:30:d9:bf:9a:5d:4e:9b:67:8e:
                    a8:88:98:2c:92:94:2f:00:98:01:31:ca:a4:d2:10:
                    9b:2d:17:32:82:6e:1d:1f:5a:1e:55:81:a5:12:c2:
                    75:4c:8d:21:40:7f:e2:7f:5a:58:43:86:0b:22:9a:
                    4f:c8:16:4e:3c:6e:a6:6a:0c:90:07:ca:36:46:13:
                    f4:3b:36:f6:86:a0:82:91:9d:6a:de:c7:a3:6a:75:
                    9c:4e:cb:20:f5:1b:9a:71:fa:65:ae:cd:f7:6e:57:
                    a0:09:70:74:3c:2e:be:69:58:ed:fa:45:16:cf:45:
                    51:a0:57:49:9e:42:db:82:87:04:f6:63:29:25:79:
                    0c:23:08:65:23:08:99:71:71:43:bf:b7:c2:5e:6d:
                    a6:d1:e1:0e:bf:95:46:2f:40:d7:0e:ed:52:23:e6:
                    b7:70:bd:76:71:4e:a9:ca:7d:fd:2c:56:e3:51:20:
                    42:f8:32:a9:93:4f:df:b5:6f:2f:73:97:ac:11:ff:
                    c8:3c:41:ba:38:93:f2:ff:78:d0:36:18:a2:7d:4d:
                    06:f0:f9:b9:0a:3c:3f:71:c4:46:56:6a:c7:4f:60:
                    8e:6a:dd:f4:19:8d:1f:13:03:de:62:46:47:3e:85:
                    67:9b:2b:91:64:3e:0a:cf:00:66:0c:1d:5e:bf:ca:
                    94:15:1a:43:91:12:7d:83:48:18:ff:79:22:63:4d:
                    d3:27:01:29:db:97:e7:e2:77:88:2a:52:1a:13:03:
                    08:8a:81:57:ee:ab:fe:23:64:d0:db:8b:68:3a:62:
                    2b:5a:30:89:a3:13:76:75:c6:6b:68:77:55:b9:63:
                    57:0b:f7:c1:e0:e6:4e:49:14:47:f4:82:94:22:51:
                    47:34:ab:27:01:f9:78:17:0e:0a:c4:ba:af:40:7a:
                    cf:1b:31:c6:28:90:0c:bb:d6:c9:9c:0c:27:ef:ab:
                    2d:2f:a3:93:e6:67:15:69:fe:3d:6b:b9:3e:39:52:
                    c5:87:4b
                Exponent: 65537 (0x10001)
        X509v3 extensions:
            X509v3 Basic Constraints: 
                CA:FALSE
            Netscape Comment: 
                Easy-RSA Generated Certificate
            X509v3 Subject Key Identifier: 
                39:FC:6A:B2:B8:52:F9:2A:3C:60:E3:04:F0:85:28:79:58:9B:77:AA
            X509v3 Authority Key Identifier: 
                keyid:EF:38:8D:14:50:58:A7:5B:4D:9C:17:72:FC:DF:B9:AC:A7:51:B0:10
                DirName:/C=US/ST=CA/L=SanFrancisco/O=Pixglo, Inc./OU=VPN-CIE/CN=tunnel.pixglo.com/name=Bala Chandrasekaran/emailAddress=bala@pixglo.com
                serial:A6:DB:C6:83:80:E6:A0:79

            X509v3 Extended Key Usage: 
                TLS Web Client Authentication
            X509v3 Key Usage: 
                Digital Signature
    Signature Algorithm: sha1WithRSAEncryption
         7c:56:4e:52:0e:f8:90:69:86:d2:b2:1c:5b:a9:57:d4:38:d6:
         e9:9b:9b:16:ef:b7:7d:59:0c:8d:3f:6b:e6:b8:1e:b2:f7:5e:
         b8:ae:9f:ae:89:77:41:33:46:e8:f9:7e:17:b0:00:6a:47:37:
         04:d7:0b:18:de:74:cc:79:df:c3:bf:ad:b6:55:f2:ea:59:3d:
         16:4b:16:6a:a1:dc:fc:e2:df:4f:9b:be:65:60:b3:a1:0e:fa:
         29:a6:6a:1c:64:82:ab:da:b2:68:1c:b0:ff:b6:89:87:86:b9:
         88:36:c2:e4:d0:4b:73:37:e3:90:06:d5:8d:cb:8e:e2:c9:57:
         a2:6f:d2:a8:e5:23:00:60:2e:38:91:89:37:98:89:71:5d:6d:
         f4:90:c4:bb:12:fa:b2:a4:0b:35:ed:ee:18:94:21:a5:14:cb:
         16:fa:39:05:a5:b7:03:f2:71:6b:45:17:43:72:5b:d0:b1:63:
         51:cf:af:7c:ca:3d:f6:6c:98:3d:ca:d0:54:0f:56:6d:30:ad:
         9f:ac:53:5a:08:0c:b9:3e:6a:f2:5d:dd:cd:35:18:47:81:e4:
         10:cc:df:91:40:1a:3b:d8:d7:e4:f7:40:6e:63:47:15:45:8f:
         1d:c3:56:d8:31:74:94:8f:f5:e5:fe:05:fa:02:48:53:c3:9a:
         ec:14:75:7d:94:b5:60:61:1c:3b:c0:f0:cd:9a:54:f7:f9:67:
         e3:3a:91:d7:40:81:e0:25:3f:89:4e:ae:fb:ba:c6:28:3c:43:
         65:bc:45:36:d7:4e:4e:b3:bd:89:64:af:0a:41:08:c4:1a:54:
         08:f0:b1:84:c4:be:be:18:7c:cb:41:fe:4d:8c:46:a7:fe:ce:
         4d:89:31:b8:36:02:a9:a2:51:f7:b1:d5:80:bc:0a:17:ff:f2:
         97:1a:46:3d:2d:16:a8:41:3a:db:61:6b:a4:91:6d:ea:77:cf:
         1f:e8:5d:34:a8:32:6f:2e:d5:ee:35:03:f7:ed:44:a6:be:fd:
         45:6b:c5:0b:30:e5:15:63:4e:8f:1e:79:1c:a9:14:69:d5:92:
         7e:c2:1b:e4:3a:4d:36:03:2a:40:c9:fa:7e:23:ed:38:90:29:
         32:c0:f5:f2:4d:28:26:18:11:06:09:60:6c:48:83:74:bc:50:
         c6:fd:e2:ec:91:b1:51:a9:aa:81:e2:6f:be:aa:33:ea:65:e0:
         8f:45:f2:fc:e5:c3:dc:03:22:96:21:19:5c:31:6c:70:7c:13:
         60:c9:f6:75:f4:56:7b:47:93:29:79:28:21:6a:cf:55:b9:f3:
         12:1d:8a:91:a6:10:1e:03:b6:ab:aa:01:91:c7:96:cf:19:3a:
         fc:2e:b9:e7:c7:ac:33:ee
-----BEGIN CERTIFICATE-----
MIIHSDCCBTCgAwIBAgICAXwwDQYJKoZIhvcNAQEFBQAwgbQxCzAJBgNVBAYTAlVT
MQswCQYDVQQIEwJDQTEVMBMGA1UEBxMMU2FuRnJhbmNpc2NvMRUwEwYDVQQKEwxQ
aXhnbG8sIEluYy4xEDAOBgNVBAsTB1ZQTi1DSUUxGjAYBgNVBAMTEXR1bm5lbC5w
aXhnbG8uY29tMRwwGgYDVQQpExNCYWxhIENoYW5kcmFzZWthcmFuMR4wHAYJKoZI
hvcNAQkBFg9iYWxhQHBpeGdsby5jb20wHhcNMTgwMjE0MDYzMjAxWhcNMjgwMjEy
MDYzMjAxWjCBqTELMAkGA1UEBhMCVVMxCzAJBgNVBAgTAkNBMRUwEwYDVQQHEwxT
YW5GcmFuY2lzY28xFTATBgNVBAoTDFBpeGdsbywgSW5jLjEQMA4GA1UECxMHVlBO
LUNJRTEPMA0GA1UEAxMGY2llMzc5MRwwGgYDVQQpExNCYWxhIENoYW5kcmFzZWth
cmFuMR4wHAYJKoZIhvcNAQkBFg9iYWxhQHBpeGdsby5jb20wggIiMA0GCSqGSIb3
DQEBAQUAA4ICDwAwggIKAoICAQDy1irvcXbfLYSjdiDidiKjKeya9kKWgj0lppyR
Obwk0I9v+4kco3TNKQYPOKBoE7UmEm477IjtxVvAOR5qFki5YxoIbrlA3uQcdmfl
J8u1AUzZdfnlQZycEQGWto01+zDXnlK43XPVXU5fTDfANHTnMEvML/hpcokI5sj2
LvwOS7JwO6H4ijVsYqLijDDZv5pdTptnjqiImCySlC8AmAExyqTSEJstFzKCbh0f
Wh5VgaUSwnVMjSFAf+J/WlhDhgsimk/IFk48bqZqDJAHyjZGE/Q7NvaGoIKRnWre
x6NqdZxOyyD1G5px+mWuzfduV6AJcHQ8Lr5pWO36RRbPRVGgV0meQtuChwT2Yykl
eQwjCGUjCJlxcUO/t8JebabR4Q6/lUYvQNcO7VIj5rdwvXZxTqnKff0sVuNRIEL4
MqmTT9+1by9zl6wR/8g8Qbo4k/L/eNA2GKJ9TQbw+bkKPD9xxEZWasdPYI5q3fQZ
jR8TA95iRkc+hWebK5FkPgrPAGYMHV6/ypQVGkOREn2DSBj/eSJjTdMnASnbl+fi
d4gqUhoTAwiKgVfuq/4jZNDbi2g6YitaMImjE3Z1xmtod1W5Y1cL98Hg5k5JFEf0
gpQiUUc0qycB+XgXDgrEuq9Aes8bMcYokAy71smcDCfvqy0vo5PmZxVp/j1ruT45
UsWHSwIDAQABo4IBazCCAWcwCQYDVR0TBAIwADAtBglghkgBhvhCAQ0EIBYeRWFz
eS1SU0EgR2VuZXJhdGVkIENlcnRpZmljYXRlMB0GA1UdDgQWBBQ5/GqyuFL5Kjxg
4wTwhSh5WJt3qjCB6QYDVR0jBIHhMIHegBTvOI0UUFinW02cF3L837msp1GwEKGB
uqSBtzCBtDELMAkGA1UEBhMCVVMxCzAJBgNVBAgTAkNBMRUwEwYDVQQHEwxTYW5G
cmFuY2lzY28xFTATBgNVBAoTDFBpeGdsbywgSW5jLjEQMA4GA1UECxMHVlBOLUNJ
RTEaMBgGA1UEAxMRdHVubmVsLnBpeGdsby5jb20xHDAaBgNVBCkTE0JhbGEgQ2hh
bmRyYXNla2FyYW4xHjAcBgkqhkiG9w0BCQEWD2JhbGFAcGl4Z2xvLmNvbYIJAKbb
xoOA5qB5MBMGA1UdJQQMMAoGCCsGAQUFBwMCMAsGA1UdDwQEAwIHgDANBgkqhkiG
9w0BAQUFAAOCAgEAfFZOUg74kGmG0rIcW6lX1DjW6ZubFu+3fVkMjT9r5rgesvde
uK6frol3QTNG6Pl+F7AAakc3BNcLGN50zHnfw7+ttlXy6lk9FksWaqHc/OLfT5u+
ZWCzoQ76KaZqHGSCq9qyaByw/7aJh4a5iDbC5NBLczfjkAbVjcuO4slXom/SqOUj
AGAuOJGJN5iJcV1t9JDEuxL6sqQLNe3uGJQhpRTLFvo5BaW3A/Jxa0UXQ3Jb0LFj
Uc+vfMo99myYPcrQVA9WbTCtn6xTWggMuT5q8l3dzTUYR4HkEMzfkUAaO9jX5PdA
bmNHFUWPHcNW2DF0lI/15f4F+gJIU8Oa7BR1fZS1YGEcO8DwzZpU9/ln4zqR10CB
4CU/iU6u+7rGKDxDZbxFNtdOTrO9iWSvCkEIxBpUCPCxhMS+vhh8y0H+TYxGp/7O
TYkxuDYCqaJR97HVgLwKF//ylxpGPS0WqEE622FrpJFt6nfPH+hdNKgyby7V7jUD
9+1Epr79RWvFCzDlFWNOjx55HKkUadWSfsIb5DpNNgMqQMn6fiPtOJApMsD18k0o
JhgRBglgbEiDdLxQxv3i7JGxUamqgeJvvqoz6mXgj0Xy/OXD3AMiliEZXDFscHwT
YMn2dfRWe0eTKXkoIWrPVbnzEh2KkaYQHgO2q6oBkceWzxk6/C6558esM+4=
-----END CERTIFICATE-----
