Certificate:
    Data:
        Version: 3 (0x2)
        Serial Number: 382 (0x17e)
    Signature Algorithm: sha1WithRSAEncryption
        Issuer: C=US, ST=CA, L=SanFrancisco, O=Pixglo, Inc., OU=VPN-CIE, CN=tunnel.pixglo.com/name=Bala Chandrasekaran/emailAddress=bala@pixglo.com
        Validity
            Not Before: Feb 14 06:32:04 2018 GMT
            Not After : Feb 12 06:32:04 2028 GMT
        Subject: C=US, ST=CA, L=SanFrancisco, O=Pixglo, Inc., OU=VPN-CIE, CN=cie381/name=Bala Chandrasekaran/emailAddress=bala@pixglo.com
        Subject Public Key Info:
            Public Key Algorithm: rsaEncryption
                Public-Key: (4096 bit)
                Modulus:
                    00:c7:24:db:f8:39:ee:1c:b0:cd:d4:ab:87:18:64:
                    25:70:a8:38:a6:dc:1a:c2:cf:e4:a4:66:26:bd:59:
                    79:c4:45:03:c1:7a:c2:bf:b8:27:93:88:a4:c7:7f:
                    12:11:ae:55:a3:c8:84:4a:87:3c:59:6e:07:a8:a8:
                    d6:ac:e0:4f:72:fb:25:e9:31:21:b3:37:be:a6:04:
                    a2:fc:57:1b:50:ab:aa:93:07:57:09:1e:04:92:43:
                    e0:ec:e8:09:53:d5:90:f6:ab:14:8d:30:34:e1:b6:
                    cf:e2:15:c2:82:dc:7d:66:c2:7b:cb:ec:70:18:5e:
                    f1:b2:84:a7:83:b2:05:5b:ce:06:a5:a3:ff:f0:7d:
                    db:e2:0a:d6:95:57:cd:eb:50:36:e7:d5:38:c2:21:
                    47:17:f2:a8:21:7d:94:21:f7:f3:7c:7c:0c:f1:e6:
                    f7:8b:ed:c3:72:1e:c8:ca:f7:eb:80:39:ce:59:dc:
                    fb:f5:c6:14:58:f0:f5:c7:3b:ec:49:1f:8b:04:e4:
                    e0:11:f6:8f:61:12:76:c8:b8:23:5a:e3:eb:00:60:
                    90:d6:ea:07:a3:c0:aa:e3:04:d6:d7:a9:ff:9f:f6:
                    28:b3:2c:31:e7:3c:af:6b:0b:50:98:44:d1:b3:9a:
                    17:81:89:82:55:35:d6:d1:a2:14:07:df:0f:5b:d4:
                    4e:ab:64:5d:89:65:17:40:5a:df:90:f8:8c:97:02:
                    ed:c1:75:d3:ef:a2:e4:ce:9e:ec:c5:fa:57:2d:1c:
                    fb:b0:cb:2d:f8:fb:ed:7b:0f:90:78:58:c6:5f:79:
                    9d:ca:26:33:3c:4e:43:08:57:9c:72:7d:36:90:ec:
                    47:e6:4b:ba:51:1a:9d:84:23:79:a2:e7:47:3d:37:
                    f8:36:bd:7b:a3:73:0e:91:9b:8d:84:40:29:a9:9d:
                    21:72:49:f5:42:9a:a6:dc:11:7b:50:e6:07:81:6f:
                    79:46:d7:8f:a1:d3:96:ad:c7:47:4b:d8:1c:40:a6:
                    7e:14:0b:91:90:47:fe:c1:5d:f9:9b:01:40:12:58:
                    5b:8a:83:74:d1:5a:a1:d6:98:93:f2:45:d5:89:64:
                    c2:51:76:1f:f2:b3:81:9e:bd:d6:94:69:23:a8:ae:
                    f9:69:1a:ca:56:aa:4a:10:08:82:d4:49:ea:88:a0:
                    d4:53:dd:8a:a3:2d:15:a0:f1:1a:09:5f:7f:5f:4f:
                    6c:57:55:ab:91:b7:b3:d3:db:2c:3d:69:cb:81:9e:
                    c0:60:13:1e:2f:94:0c:79:a1:78:f2:85:19:c2:77:
                    6c:2e:f3:e8:1b:54:52:c4:0d:a7:12:95:83:7c:c3:
                    3f:0a:39:5e:f7:8a:87:3e:ec:cb:26:c0:48:9b:a3:
                    91:51:cf
                Exponent: 65537 (0x10001)
        X509v3 extensions:
            X509v3 Basic Constraints: 
                CA:FALSE
            Netscape Comment: 
                Easy-RSA Generated Certificate
            X509v3 Subject Key Identifier: 
                66:84:96:BB:2C:55:D9:E7:A1:69:72:61:EE:75:3C:A0:06:55:67:7F
            X509v3 Authority Key Identifier: 
                keyid:EF:38:8D:14:50:58:A7:5B:4D:9C:17:72:FC:DF:B9:AC:A7:51:B0:10
                DirName:/C=US/ST=CA/L=SanFrancisco/O=Pixglo, Inc./OU=VPN-CIE/CN=tunnel.pixglo.com/name=Bala Chandrasekaran/emailAddress=bala@pixglo.com
                serial:A6:DB:C6:83:80:E6:A0:79

            X509v3 Extended Key Usage: 
                TLS Web Client Authentication
            X509v3 Key Usage: 
                Digital Signature
    Signature Algorithm: sha1WithRSAEncryption
         0b:af:ae:8c:58:18:b6:5e:75:e6:c2:28:60:55:3c:fe:29:96:
         71:00:68:e7:c0:d3:0f:c8:f6:11:3d:9b:fb:5b:b9:74:b2:71:
         e9:02:4c:a9:b0:b6:9c:ac:ff:7c:16:2d:4f:80:18:68:93:2f:
         fb:f7:33:19:5c:e6:6e:69:03:6d:07:5b:29:8c:d0:08:c6:70:
         8d:4f:8b:7d:de:27:3a:f2:b5:54:13:6a:6f:80:8f:22:4d:bf:
         32:8e:a1:8a:e4:b7:00:ae:50:d9:3e:24:01:e9:9c:4f:8c:f8:
         d8:2b:1c:fa:f9:a1:27:e4:be:6c:40:3c:35:34:eb:0b:c2:79:
         d9:c7:49:d6:b9:ea:7b:3f:a1:76:01:4b:97:06:e0:7b:93:84:
         cb:23:01:ed:b0:50:18:40:e4:ef:fa:79:f3:8b:bd:20:87:ad:
         df:76:1d:62:ec:91:bc:1e:d0:a5:7b:87:00:26:eb:20:12:9a:
         32:db:2d:1b:15:56:87:30:93:d3:a9:43:ee:74:78:37:ac:81:
         a8:c1:91:ad:fb:b1:c9:cd:2a:c1:8b:1c:f4:19:78:4d:38:0d:
         da:01:56:a1:32:e4:50:c0:1e:89:bf:98:7b:76:05:19:95:f9:
         c1:ed:90:6d:b5:31:d3:5b:cb:79:8d:d1:5f:a2:54:56:51:3f:
         c1:96:f1:85:98:a2:78:fe:8b:65:dd:0e:a7:e3:26:60:0e:ba:
         6c:68:cc:55:2d:12:a1:73:26:29:0f:4b:64:39:52:3c:7a:08:
         17:da:47:c4:2b:b1:2b:a2:33:6d:1c:5f:2d:3c:ce:f0:46:57:
         a6:e4:8e:54:a1:30:6a:1b:b0:53:1e:12:31:c7:8c:87:be:c8:
         25:af:66:20:ae:48:9f:ea:1f:13:11:7a:39:c9:d4:0a:4e:1c:
         43:79:89:6a:21:e1:c0:c9:68:38:f5:d2:7b:d8:fc:70:f4:92:
         54:5e:29:9a:ba:bc:5b:e5:a1:54:a1:d7:4c:4f:dd:af:cb:9d:
         17:35:41:fd:2e:de:49:0b:10:6d:9e:14:84:3f:57:11:30:9e:
         4b:21:b6:d0:72:c4:75:94:d2:09:a8:c2:eb:a5:29:55:68:1c:
         6b:a5:71:a2:e6:fb:c3:16:96:ec:98:5c:40:70:e0:83:04:51:
         22:0f:5b:33:c7:9b:85:03:9d:6c:f0:16:dc:04:58:86:34:27:
         c9:c3:2b:0e:da:bf:4a:20:1e:36:3c:e5:50:32:e0:60:f0:2a:
         66:9f:6b:13:83:74:70:b7:2c:28:25:e1:4b:3e:2b:c5:be:b5:
         b8:9e:06:d2:98:f1:b5:4d:47:d0:f5:33:d8:be:5b:9d:eb:b1:
         dd:47:fd:5b:5c:d8:c5:db
-----BEGIN CERTIFICATE-----
MIIHSDCCBTCgAwIBAgICAX4wDQYJKoZIhvcNAQEFBQAwgbQxCzAJBgNVBAYTAlVT
MQswCQYDVQQIEwJDQTEVMBMGA1UEBxMMU2FuRnJhbmNpc2NvMRUwEwYDVQQKEwxQ
aXhnbG8sIEluYy4xEDAOBgNVBAsTB1ZQTi1DSUUxGjAYBgNVBAMTEXR1bm5lbC5w
aXhnbG8uY29tMRwwGgYDVQQpExNCYWxhIENoYW5kcmFzZWthcmFuMR4wHAYJKoZI
hvcNAQkBFg9iYWxhQHBpeGdsby5jb20wHhcNMTgwMjE0MDYzMjA0WhcNMjgwMjEy
MDYzMjA0WjCBqTELMAkGA1UEBhMCVVMxCzAJBgNVBAgTAkNBMRUwEwYDVQQHEwxT
YW5GcmFuY2lzY28xFTATBgNVBAoTDFBpeGdsbywgSW5jLjEQMA4GA1UECxMHVlBO
LUNJRTEPMA0GA1UEAxMGY2llMzgxMRwwGgYDVQQpExNCYWxhIENoYW5kcmFzZWth
cmFuMR4wHAYJKoZIhvcNAQkBFg9iYWxhQHBpeGdsby5jb20wggIiMA0GCSqGSIb3
DQEBAQUAA4ICDwAwggIKAoICAQDHJNv4Oe4csM3Uq4cYZCVwqDim3BrCz+SkZia9
WXnERQPBesK/uCeTiKTHfxIRrlWjyIRKhzxZbgeoqNas4E9y+yXpMSGzN76mBKL8
VxtQq6qTB1cJHgSSQ+Ds6AlT1ZD2qxSNMDThts/iFcKC3H1mwnvL7HAYXvGyhKeD
sgVbzgalo//wfdviCtaVV83rUDbn1TjCIUcX8qghfZQh9/N8fAzx5veL7cNyHsjK
9+uAOc5Z3Pv1xhRY8PXHO+xJH4sE5OAR9o9hEnbIuCNa4+sAYJDW6gejwKrjBNbX
qf+f9iizLDHnPK9rC1CYRNGzmheBiYJVNdbRohQH3w9b1E6rZF2JZRdAWt+Q+IyX
Au3BddPvouTOnuzF+lctHPuwyy34++17D5B4WMZfeZ3KJjM8TkMIV5xyfTaQ7Efm
S7pRGp2EI3mi50c9N/g2vXujcw6Rm42EQCmpnSFySfVCmqbcEXtQ5geBb3lG14+h
05atx0dL2BxApn4UC5GQR/7BXfmbAUASWFuKg3TRWqHWmJPyRdWJZMJRdh/ys4Ge
vdaUaSOorvlpGspWqkoQCILUSeqIoNRT3YqjLRWg8RoJX39fT2xXVauRt7PT2yw9
acuBnsBgEx4vlAx5oXjyhRnCd2wu8+gbVFLEDacSlYN8wz8KOV73ioc+7MsmwEib
o5FRzwIDAQABo4IBazCCAWcwCQYDVR0TBAIwADAtBglghkgBhvhCAQ0EIBYeRWFz
eS1SU0EgR2VuZXJhdGVkIENlcnRpZmljYXRlMB0GA1UdDgQWBBRmhJa7LFXZ56Fp
cmHudTygBlVnfzCB6QYDVR0jBIHhMIHegBTvOI0UUFinW02cF3L837msp1GwEKGB
uqSBtzCBtDELMAkGA1UEBhMCVVMxCzAJBgNVBAgTAkNBMRUwEwYDVQQHEwxTYW5G
cmFuY2lzY28xFTATBgNVBAoTDFBpeGdsbywgSW5jLjEQMA4GA1UECxMHVlBOLUNJ
RTEaMBgGA1UEAxMRdHVubmVsLnBpeGdsby5jb20xHDAaBgNVBCkTE0JhbGEgQ2hh
bmRyYXNla2FyYW4xHjAcBgkqhkiG9w0BCQEWD2JhbGFAcGl4Z2xvLmNvbYIJAKbb
xoOA5qB5MBMGA1UdJQQMMAoGCCsGAQUFBwMCMAsGA1UdDwQEAwIHgDANBgkqhkiG
9w0BAQUFAAOCAgEAC6+ujFgYtl515sIoYFU8/imWcQBo58DTD8j2ET2b+1u5dLJx
6QJMqbC2nKz/fBYtT4AYaJMv+/czGVzmbmkDbQdbKYzQCMZwjU+Lfd4nOvK1VBNq
b4CPIk2/Mo6hiuS3AK5Q2T4kAemcT4z42Csc+vmhJ+S+bEA8NTTrC8J52cdJ1rnq
ez+hdgFLlwbge5OEyyMB7bBQGEDk7/p584u9IIet33YdYuyRvB7QpXuHACbrIBKa
MtstGxVWhzCT06lD7nR4N6yBqMGRrfuxyc0qwYsc9Bl4TTgN2gFWoTLkUMAeib+Y
e3YFGZX5we2QbbUx01vLeY3RX6JUVlE/wZbxhZiieP6LZd0Op+MmYA66bGjMVS0S
oXMmKQ9LZDlSPHoIF9pHxCuxK6IzbRxfLTzO8EZXpuSOVKEwahuwUx4SMceMh77I
Ja9mIK5In+ofExF6OcnUCk4cQ3mJaiHhwMloOPXSe9j8cPSSVF4pmrq8W+WhVKHX
TE/dr8udFzVB/S7eSQsQbZ4UhD9XETCeSyG20HLEdZTSCajC66UpVWgca6Vxoub7
wxaW7JhcQHDggwRRIg9bM8ebhQOdbPAW3ARYhjQnycMrDtq/SiAeNjzlUDLgYPAq
Zp9rE4N0cLcsKCXhSz4rxb61uJ4G0pjxtU1H0PUz2L5bneux3Uf9W1zYxds=
-----END CERTIFICATE-----
