Certificate:
    Data:
        Version: 3 (0x2)
        Serial Number: 384 (0x180)
    Signature Algorithm: sha1WithRSAEncryption
        Issuer: C=US, ST=CA, L=SanFrancisco, O=Pixglo, Inc., OU=VPN-CIE, CN=tunnel.pixglo.com/name=Bala Chandrasekaran/emailAddress=bala@pixglo.com
        Validity
            Not Before: Feb 14 06:32:08 2018 GMT
            Not After : Feb 12 06:32:08 2028 GMT
        Subject: C=US, ST=CA, L=SanFrancisco, O=Pixglo, Inc., OU=VPN-CIE, CN=cie383/name=Bala Chandrasekaran/emailAddress=bala@pixglo.com
        Subject Public Key Info:
            Public Key Algorithm: rsaEncryption
                Public-Key: (4096 bit)
                Modulus:
                    00:98:bc:36:85:42:02:54:10:1a:0b:eb:bb:26:d4:
                    4e:14:f9:f5:62:59:7c:e5:93:b2:b8:02:09:92:e2:
                    8d:c2:fb:ac:ef:53:c3:78:2e:f0:fe:40:3b:8c:4a:
                    24:4e:e0:b1:13:0c:45:ce:65:3c:e1:c2:13:bb:d8:
                    65:39:14:63:bd:3a:b9:57:38:c5:4f:f4:65:a9:b0:
                    54:1a:1b:50:b4:6d:b2:fc:79:dd:fe:41:81:17:b2:
                    6d:d8:f2:96:e3:0b:c1:d3:a2:96:46:a7:b9:5d:9b:
                    1c:a0:be:5e:9b:35:a3:7e:b4:7b:98:30:d2:5c:15:
                    64:2e:0f:e6:0b:38:1c:e9:93:0d:25:b2:70:a5:e4:
                    02:65:a4:10:20:b2:82:8d:1d:21:b4:e1:fe:07:3c:
                    2b:1e:ea:70:68:38:24:68:87:60:0a:ac:25:ff:fb:
                    ce:57:8b:ee:92:ad:b2:e8:91:40:78:63:cd:83:e1:
                    d0:ab:11:b5:9b:37:71:36:57:13:76:09:05:19:09:
                    0d:8b:fa:53:fe:aa:ef:99:ae:24:8f:06:7f:2e:14:
                    ef:59:a2:a8:c8:4d:97:0c:d7:e0:f9:f3:e8:bb:f0:
                    38:41:97:2d:b6:ae:2b:15:ef:f3:04:11:d9:11:37:
                    97:f3:1d:e7:f1:de:62:8d:2e:a8:4e:81:47:ea:05:
                    a9:d2:8a:ec:17:b1:52:cb:4c:9a:6e:62:31:a9:9c:
                    8b:60:66:b1:55:66:bc:2b:0f:cf:03:e3:50:06:cd:
                    c8:d2:38:d0:7a:34:7a:c0:05:9a:d5:3e:15:70:0b:
                    25:ac:41:41:5b:b2:ef:1f:7e:c4:0f:a1:98:1c:66:
                    8d:aa:dd:57:a5:6c:9a:f2:fa:b1:d5:9c:bc:f8:0d:
                    a1:77:86:03:60:2d:66:e1:16:1d:0a:cb:7e:fa:5d:
                    aa:04:6c:f1:80:44:ec:84:9b:30:ea:48:a5:a2:01:
                    a3:c4:bc:96:14:ea:e6:98:86:46:31:a8:8c:24:98:
                    6e:03:00:d4:d7:d6:95:66:63:cc:cb:bb:8c:83:14:
                    aa:ef:bf:59:b4:65:8e:18:6e:ab:84:0b:dd:0f:a0:
                    d0:25:af:b9:34:df:a6:cc:e5:c8:6e:b0:2d:f5:f1:
                    89:9a:9a:d0:4e:03:bd:d5:08:71:1d:6b:b4:13:8f:
                    98:cc:a6:f4:9b:37:b6:f0:97:78:ce:cd:8e:0c:c9:
                    06:cc:d2:48:68:7d:80:57:b6:98:95:4e:e9:4b:4d:
                    78:d9:f1:6c:bf:5c:e3:71:ad:57:e7:35:51:8f:3f:
                    be:52:6f:f4:20:e7:d7:e9:5f:79:fc:69:fc:e5:65:
                    0a:2f:f2:78:94:29:96:94:81:f3:5a:54:5c:b2:d2:
                    c2:0b:03
                Exponent: 65537 (0x10001)
        X509v3 extensions:
            X509v3 Basic Constraints: 
                CA:FALSE
            Netscape Comment: 
                Easy-RSA Generated Certificate
            X509v3 Subject Key Identifier: 
                C0:C8:26:48:5D:D3:99:D8:A8:01:C6:4B:3F:CD:29:BD:81:D3:EF:B9
            X509v3 Authority Key Identifier: 
                keyid:EF:38:8D:14:50:58:A7:5B:4D:9C:17:72:FC:DF:B9:AC:A7:51:B0:10
                DirName:/C=US/ST=CA/L=SanFrancisco/O=Pixglo, Inc./OU=VPN-CIE/CN=tunnel.pixglo.com/name=Bala Chandrasekaran/emailAddress=bala@pixglo.com
                serial:A6:DB:C6:83:80:E6:A0:79

            X509v3 Extended Key Usage: 
                TLS Web Client Authentication
            X509v3 Key Usage: 
                Digital Signature
    Signature Algorithm: sha1WithRSAEncryption
         db:67:55:5b:24:97:07:cc:77:4d:5b:80:76:c9:08:db:e4:53:
         05:29:e7:85:10:43:56:96:d3:c9:f5:21:4c:32:c5:36:22:ee:
         a4:6a:a4:36:1e:b3:6b:41:15:b1:3f:e7:4f:cf:d7:bb:22:f0:
         7a:70:45:fe:05:0a:0b:7f:0c:05:09:05:e8:0f:72:f9:25:f1:
         29:d3:55:63:f1:2b:41:af:6f:61:b0:3a:da:a4:1e:c4:51:11:
         64:9b:2a:0a:c3:e6:66:86:04:25:54:42:13:7d:1a:cd:e6:25:
         48:99:fb:f0:11:b5:27:13:f8:51:69:7a:0a:0e:d5:1e:17:85:
         f0:7b:52:69:0b:17:87:b4:19:3d:61:8c:b4:ad:b1:ef:d9:b9:
         15:9c:3f:9c:a0:35:e1:7a:6e:40:84:9d:7c:aa:9e:93:7c:5e:
         02:0b:d8:66:23:95:af:e2:b0:b5:44:e1:5e:40:66:fa:a6:a5:
         48:e0:74:8b:fe:64:a9:0f:1b:bf:3c:0b:8e:e4:a6:c5:71:57:
         a5:ac:7b:af:c3:8e:88:4e:c6:2a:6e:b6:df:f9:24:12:97:2b:
         1d:68:90:16:4d:81:67:0b:90:31:06:0e:7a:c3:fd:6d:5c:bc:
         31:a2:b2:4c:60:83:0a:76:9d:a7:68:80:e5:b9:0b:78:67:a4:
         e6:f3:e5:17:19:5e:fb:6f:b8:37:ed:61:bb:35:08:ce:e2:65:
         1b:fe:ac:5f:df:c1:32:27:7b:ce:bb:0e:6a:c6:e4:50:0f:13:
         11:9e:bd:12:b5:db:af:8b:09:d7:a6:9a:8d:38:c9:bb:a9:6a:
         9e:bb:1f:df:9f:a2:00:23:47:95:5d:87:94:43:ec:2e:90:06:
         97:0c:95:ee:26:46:89:68:b1:38:47:0e:a8:aa:fa:29:1c:9c:
         e9:8a:45:4d:ba:b3:f8:d0:52:5b:89:64:33:4e:53:31:27:cc:
         c4:64:97:82:e3:db:5f:97:85:5e:55:6b:00:3c:1c:c6:47:e0:
         12:41:75:a8:d2:c8:a7:88:6f:32:22:88:11:69:0d:38:bd:0e:
         dd:7d:d4:81:86:7d:21:54:65:4f:c1:cd:92:eb:5b:03:c2:52:
         41:26:17:f9:10:ba:5b:32:5a:cd:a7:12:fb:0f:a8:af:fd:db:
         d0:1e:5a:d2:4a:88:14:aa:5e:81:de:53:41:a0:b0:9c:ce:9e:
         32:13:ae:ee:dc:57:89:f2:da:3e:85:2f:10:cd:0e:10:0d:ed:
         f3:54:12:c3:a4:88:b6:83:33:4d:ed:f3:01:ad:13:b7:74:a5:
         c2:dd:6e:6c:d3:9a:fc:d1:ba:8d:43:fd:87:4b:2c:e2:14:ec:
         82:05:6d:4f:91:4b:ee:40
-----BEGIN CERTIFICATE-----
MIIHSDCCBTCgAwIBAgICAYAwDQYJKoZIhvcNAQEFBQAwgbQxCzAJBgNVBAYTAlVT
MQswCQYDVQQIEwJDQTEVMBMGA1UEBxMMU2FuRnJhbmNpc2NvMRUwEwYDVQQKEwxQ
aXhnbG8sIEluYy4xEDAOBgNVBAsTB1ZQTi1DSUUxGjAYBgNVBAMTEXR1bm5lbC5w
aXhnbG8uY29tMRwwGgYDVQQpExNCYWxhIENoYW5kcmFzZWthcmFuMR4wHAYJKoZI
hvcNAQkBFg9iYWxhQHBpeGdsby5jb20wHhcNMTgwMjE0MDYzMjA4WhcNMjgwMjEy
MDYzMjA4WjCBqTELMAkGA1UEBhMCVVMxCzAJBgNVBAgTAkNBMRUwEwYDVQQHEwxT
YW5GcmFuY2lzY28xFTATBgNVBAoTDFBpeGdsbywgSW5jLjEQMA4GA1UECxMHVlBO
LUNJRTEPMA0GA1UEAxMGY2llMzgzMRwwGgYDVQQpExNCYWxhIENoYW5kcmFzZWth
cmFuMR4wHAYJKoZIhvcNAQkBFg9iYWxhQHBpeGdsby5jb20wggIiMA0GCSqGSIb3
DQEBAQUAA4ICDwAwggIKAoICAQCYvDaFQgJUEBoL67sm1E4U+fViWXzlk7K4AgmS
4o3C+6zvU8N4LvD+QDuMSiRO4LETDEXOZTzhwhO72GU5FGO9OrlXOMVP9GWpsFQa
G1C0bbL8ed3+QYEXsm3Y8pbjC8HTopZGp7ldmxygvl6bNaN+tHuYMNJcFWQuD+YL
OBzpkw0lsnCl5AJlpBAgsoKNHSG04f4HPCse6nBoOCRoh2AKrCX/+85Xi+6SrbLo
kUB4Y82D4dCrEbWbN3E2VxN2CQUZCQ2L+lP+qu+ZriSPBn8uFO9ZoqjITZcM1+D5
8+i78DhBly22risV7/MEEdkRN5fzHefx3mKNLqhOgUfqBanSiuwXsVLLTJpuYjGp
nItgZrFVZrwrD88D41AGzcjSONB6NHrABZrVPhVwCyWsQUFbsu8ffsQPoZgcZo2q
3VelbJry+rHVnLz4DaF3hgNgLWbhFh0Ky376XaoEbPGAROyEmzDqSKWiAaPEvJYU
6uaYhkYxqIwkmG4DANTX1pVmY8zLu4yDFKrvv1m0ZY4YbquEC90PoNAlr7k036bM
5chusC318YmamtBOA73VCHEda7QTj5jMpvSbN7bwl3jOzY4MyQbM0khofYBXtpiV
TulLTXjZ8Wy/XONxrVfnNVGPP75Sb/Qg59fpX3n8afzlZQov8niUKZaUgfNaVFyy
0sILAwIDAQABo4IBazCCAWcwCQYDVR0TBAIwADAtBglghkgBhvhCAQ0EIBYeRWFz
eS1SU0EgR2VuZXJhdGVkIENlcnRpZmljYXRlMB0GA1UdDgQWBBTAyCZIXdOZ2KgB
xks/zSm9gdPvuTCB6QYDVR0jBIHhMIHegBTvOI0UUFinW02cF3L837msp1GwEKGB
uqSBtzCBtDELMAkGA1UEBhMCVVMxCzAJBgNVBAgTAkNBMRUwEwYDVQQHEwxTYW5G
cmFuY2lzY28xFTATBgNVBAoTDFBpeGdsbywgSW5jLjEQMA4GA1UECxMHVlBOLUNJ
RTEaMBgGA1UEAxMRdHVubmVsLnBpeGdsby5jb20xHDAaBgNVBCkTE0JhbGEgQ2hh
bmRyYXNla2FyYW4xHjAcBgkqhkiG9w0BCQEWD2JhbGFAcGl4Z2xvLmNvbYIJAKbb
xoOA5qB5MBMGA1UdJQQMMAoGCCsGAQUFBwMCMAsGA1UdDwQEAwIHgDANBgkqhkiG
9w0BAQUFAAOCAgEA22dVWySXB8x3TVuAdskI2+RTBSnnhRBDVpbTyfUhTDLFNiLu
pGqkNh6za0EVsT/nT8/XuyLwenBF/gUKC38MBQkF6A9y+SXxKdNVY/ErQa9vYbA6
2qQexFERZJsqCsPmZoYEJVRCE30azeYlSJn78BG1JxP4UWl6Cg7VHheF8HtSaQsX
h7QZPWGMtK2x79m5FZw/nKA14XpuQISdfKqek3xeAgvYZiOVr+KwtUThXkBm+qal
SOB0i/5kqQ8bvzwLjuSmxXFXpax7r8OOiE7GKm623/kkEpcrHWiQFk2BZwuQMQYO
esP9bVy8MaKyTGCDCnadp2iA5bkLeGek5vPlFxle+2+4N+1huzUIzuJlG/6sX9/B
Mid7zrsOasbkUA8TEZ69ErXbr4sJ16aajTjJu6lqnrsf35+iACNHlV2HlEPsLpAG
lwyV7iZGiWixOEcOqKr6KRyc6YpFTbqz+NBSW4lkM05TMSfMxGSXguPbX5eFXlVr
ADwcxkfgEkF1qNLIp4hvMiKIEWkNOL0O3X3UgYZ9IVRlT8HNkutbA8JSQSYX+RC6
WzJazacS+w+or/3b0B5a0kqIFKpegd5TQaCwnM6eMhOu7txXifLaPoUvEM0OEA3t
81QSw6SItoMzTe3zAa0Tt3Slwt1ubNOa/NG6jUP9h0ss4hTsggVtT5FL7kA=
-----END CERTIFICATE-----
