Certificate:
    Data:
        Version: 3 (0x2)
        Serial Number: 385 (0x181)
    Signature Algorithm: sha1WithRSAEncryption
        Issuer: C=US, ST=CA, L=SanFrancisco, O=Pixglo, Inc., OU=VPN-CIE, CN=tunnel.pixglo.com/name=Bala Chandrasekaran/emailAddress=bala@pixglo.com
        Validity
            Not Before: Feb 14 06:32:09 2018 GMT
            Not After : Feb 12 06:32:09 2028 GMT
        Subject: C=US, ST=CA, L=SanFrancisco, O=Pixglo, Inc., OU=VPN-CIE, CN=cie384/name=Bala Chandrasekaran/emailAddress=bala@pixglo.com
        Subject Public Key Info:
            Public Key Algorithm: rsaEncryption
                Public-Key: (4096 bit)
                Modulus:
                    00:d6:66:9b:79:ea:41:f0:e0:f9:c0:19:bf:ad:5a:
                    5f:01:68:df:49:8b:27:3c:db:f7:f1:00:95:d7:2a:
                    d0:00:1b:b7:e6:56:91:08:eb:a9:45:f6:9a:d4:31:
                    5e:85:72:77:47:22:60:82:d2:11:9b:bc:bd:13:5d:
                    8a:f9:a1:ac:cc:90:e6:0e:9a:a4:fa:3e:f4:98:97:
                    a6:0a:52:d5:34:c9:9c:b2:cc:99:cf:60:55:d1:77:
                    27:f5:96:6a:92:1d:9c:13:13:f0:92:1a:3c:6e:fb:
                    60:8f:1e:2f:7f:3c:51:27:63:47:0f:98:78:6c:3a:
                    ed:ce:3a:5d:3b:04:fa:9e:5b:97:63:0d:8a:d1:99:
                    43:37:ff:4d:af:c6:1c:81:65:46:4c:2d:53:43:73:
                    b3:87:3a:4f:7e:58:55:12:b2:72:6e:32:65:b1:9f:
                    88:8b:11:d2:8d:b6:89:b2:bd:34:f9:35:4f:1c:bc:
                    0b:0e:58:ab:f8:81:e3:2f:02:bd:c0:d5:b0:71:82:
                    ea:d1:05:0d:00:36:7e:87:53:9f:b4:3a:b7:50:25:
                    b7:e5:e7:e6:b1:8d:50:47:bd:f7:94:78:5b:fa:d7:
                    f7:50:3a:9e:7c:41:9d:e8:31:92:f8:d5:3e:8b:98:
                    3a:55:6a:cc:6b:cd:f6:92:fa:2f:3e:46:5f:b1:6b:
                    b5:82:49:e5:5c:d2:5a:60:21:b2:c4:25:66:a1:46:
                    a7:99:1d:fa:be:1e:59:7b:c0:1c:b9:48:08:11:db:
                    23:dc:9f:ef:c2:00:6d:1c:3e:d5:12:9b:ca:3d:5c:
                    b1:94:d3:5e:e2:5a:dc:77:7a:3f:c0:3e:fb:4a:c0:
                    e5:3d:ec:4b:c3:21:eb:3b:cc:f7:82:b6:5f:db:6d:
                    a2:1d:30:d7:95:1b:8e:a7:80:05:94:45:3d:f3:25:
                    d9:06:d1:a9:aa:24:96:82:7d:b0:30:b3:73:ce:51:
                    45:c8:07:3b:19:21:47:d4:11:06:e3:4d:5d:74:99:
                    77:4d:b6:ae:eb:87:cc:33:c6:10:3b:0e:38:18:e5:
                    49:60:c2:90:56:bb:83:87:c5:40:cc:92:0e:49:6f:
                    4f:03:25:ed:d8:eb:71:52:41:1d:ec:47:1a:73:25:
                    4f:31:4c:d8:6c:d7:58:5e:74:64:de:d5:56:4b:48:
                    39:51:1a:26:79:99:98:bc:8b:93:0c:c4:87:e7:67:
                    13:60:d9:10:86:47:25:f4:28:ae:c4:76:1d:a2:28:
                    44:bc:29:00:c0:f3:0e:8f:d6:0d:5d:df:f0:d9:bf:
                    79:4e:90:51:8e:45:16:45:e1:1e:d9:eb:a1:fb:7b:
                    c2:c8:f9:9d:dd:89:82:61:ce:46:7b:b0:63:aa:a6:
                    6f:d2:95
                Exponent: 65537 (0x10001)
        X509v3 extensions:
            X509v3 Basic Constraints: 
                CA:FALSE
            Netscape Comment: 
                Easy-RSA Generated Certificate
            X509v3 Subject Key Identifier: 
                1C:11:94:BA:69:BB:67:2B:54:75:E4:C2:36:96:AD:DC:9F:CF:58:98
            X509v3 Authority Key Identifier: 
                keyid:EF:38:8D:14:50:58:A7:5B:4D:9C:17:72:FC:DF:B9:AC:A7:51:B0:10
                DirName:/C=US/ST=CA/L=SanFrancisco/O=Pixglo, Inc./OU=VPN-CIE/CN=tunnel.pixglo.com/name=Bala Chandrasekaran/emailAddress=bala@pixglo.com
                serial:A6:DB:C6:83:80:E6:A0:79

            X509v3 Extended Key Usage: 
                TLS Web Client Authentication
            X509v3 Key Usage: 
                Digital Signature
    Signature Algorithm: sha1WithRSAEncryption
         7c:ca:84:98:2a:52:50:3a:07:e5:48:cb:e1:81:52:ee:9c:e1:
         68:ad:57:d5:6b:8d:67:75:fd:ec:4e:e4:2c:9b:aa:24:9f:ce:
         b2:bb:11:6e:cb:84:42:d6:1f:32:34:76:aa:be:b8:33:4e:ba:
         d8:5c:57:0b:76:1e:08:b7:53:20:8c:f5:ed:ca:da:77:2d:5d:
         2a:45:bc:da:f1:73:f7:04:6e:63:72:89:f7:bc:9c:5d:ff:77:
         cc:65:05:d6:c3:d9:6f:b1:44:79:be:f4:5f:77:7f:d9:b3:bc:
         0d:81:89:6c:be:8b:a5:21:f1:2f:90:7a:eb:a5:88:f9:f5:05:
         1f:45:2e:55:2b:f8:51:91:21:36:a3:d3:ef:b9:19:dc:1b:b3:
         af:2a:eb:75:16:51:e8:b6:60:90:2a:c0:6b:7c:6f:ae:04:87:
         f5:97:6c:6c:2f:a2:3a:c0:c9:00:02:f1:a6:da:87:d0:51:a5:
         f4:40:be:67:9a:d9:73:71:54:a6:55:a6:71:3c:97:91:33:04:
         3e:60:48:8d:d3:37:72:15:3c:4c:c1:54:14:09:6f:f4:db:3b:
         fe:d3:5e:21:48:3c:e5:c7:5c:9f:1e:b4:cd:e2:97:6d:b9:29:
         f4:30:76:79:4f:4c:2f:e7:ef:5f:4b:aa:b5:41:59:29:24:3b:
         33:e5:1e:bd:41:74:03:49:5e:2c:ca:22:31:f0:b4:7a:5e:8a:
         8a:18:aa:9c:49:37:c7:98:96:42:80:42:da:07:17:b2:0c:ae:
         93:a9:5c:4b:19:7c:30:42:a7:70:96:07:a2:ac:94:c8:c8:cc:
         e7:a0:84:da:01:8e:1c:30:59:24:4f:86:6e:5c:72:19:81:b2:
         c6:40:b0:54:d9:18:9a:1c:57:ae:cc:b4:c3:ca:9f:e3:82:ac:
         00:56:90:ba:ce:d7:2b:09:9d:81:f8:52:e2:dc:3d:35:da:42:
         d0:d1:7f:fc:0d:28:ac:0a:7c:37:c0:c8:8d:63:79:f3:f2:c6:
         8d:b9:68:06:b3:db:4c:92:fb:03:db:d9:a3:b9:e2:af:eb:8d:
         40:26:f2:49:35:f7:ce:9e:a3:58:a6:3b:56:3a:7f:91:8b:92:
         90:e8:ba:74:33:db:e9:8c:fb:5f:ac:70:27:4d:c0:ed:68:ec:
         67:8a:2c:b2:7e:66:4f:8d:47:1a:ba:91:2a:09:66:c7:eb:da:
         6c:81:b2:03:1c:2b:f0:55:34:71:4f:52:5d:46:56:b2:c3:8a:
         17:8d:3f:75:5d:e7:70:fa:86:1f:c6:20:c2:e5:c8:19:1b:d0:
         11:a2:6b:7e:65:6a:08:5b:c5:e0:67:59:f5:79:dc:d0:8d:ed:
         7c:44:0a:c5:4d:77:42:ff
-----BEGIN CERTIFICATE-----
MIIHSDCCBTCgAwIBAgICAYEwDQYJKoZIhvcNAQEFBQAwgbQxCzAJBgNVBAYTAlVT
MQswCQYDVQQIEwJDQTEVMBMGA1UEBxMMU2FuRnJhbmNpc2NvMRUwEwYDVQQKEwxQ
aXhnbG8sIEluYy4xEDAOBgNVBAsTB1ZQTi1DSUUxGjAYBgNVBAMTEXR1bm5lbC5w
aXhnbG8uY29tMRwwGgYDVQQpExNCYWxhIENoYW5kcmFzZWthcmFuMR4wHAYJKoZI
hvcNAQkBFg9iYWxhQHBpeGdsby5jb20wHhcNMTgwMjE0MDYzMjA5WhcNMjgwMjEy
MDYzMjA5WjCBqTELMAkGA1UEBhMCVVMxCzAJBgNVBAgTAkNBMRUwEwYDVQQHEwxT
YW5GcmFuY2lzY28xFTATBgNVBAoTDFBpeGdsbywgSW5jLjEQMA4GA1UECxMHVlBO
LUNJRTEPMA0GA1UEAxMGY2llMzg0MRwwGgYDVQQpExNCYWxhIENoYW5kcmFzZWth
cmFuMR4wHAYJKoZIhvcNAQkBFg9iYWxhQHBpeGdsby5jb20wggIiMA0GCSqGSIb3
DQEBAQUAA4ICDwAwggIKAoICAQDWZpt56kHw4PnAGb+tWl8BaN9Jiyc82/fxAJXX
KtAAG7fmVpEI66lF9prUMV6FcndHImCC0hGbvL0TXYr5oazMkOYOmqT6PvSYl6YK
UtU0yZyyzJnPYFXRdyf1lmqSHZwTE/CSGjxu+2CPHi9/PFEnY0cPmHhsOu3OOl07
BPqeW5djDYrRmUM3/02vxhyBZUZMLVNDc7OHOk9+WFUSsnJuMmWxn4iLEdKNtomy
vTT5NU8cvAsOWKv4geMvAr3A1bBxgurRBQ0ANn6HU5+0OrdQJbfl5+axjVBHvfeU
eFv61/dQOp58QZ3oMZL41T6LmDpVasxrzfaS+i8+Rl+xa7WCSeVc0lpgIbLEJWah
RqeZHfq+Hll7wBy5SAgR2yPcn+/CAG0cPtUSm8o9XLGU017iWtx3ej/APvtKwOU9
7EvDIes7zPeCtl/bbaIdMNeVG46ngAWURT3zJdkG0amqJJaCfbAws3POUUXIBzsZ
IUfUEQbjTV10mXdNtq7rh8wzxhA7DjgY5UlgwpBWu4OHxUDMkg5Jb08DJe3Y63FS
QR3sRxpzJU8xTNhs11hedGTe1VZLSDlRGiZ5mZi8i5MMxIfnZxNg2RCGRyX0KK7E
dh2iKES8KQDA8w6P1g1d3/DZv3lOkFGORRZF4R7Z66H7e8LI+Z3diYJhzkZ7sGOq
pm/SlQIDAQABo4IBazCCAWcwCQYDVR0TBAIwADAtBglghkgBhvhCAQ0EIBYeRWFz
eS1SU0EgR2VuZXJhdGVkIENlcnRpZmljYXRlMB0GA1UdDgQWBBQcEZS6abtnK1R1
5MI2lq3cn89YmDCB6QYDVR0jBIHhMIHegBTvOI0UUFinW02cF3L837msp1GwEKGB
uqSBtzCBtDELMAkGA1UEBhMCVVMxCzAJBgNVBAgTAkNBMRUwEwYDVQQHEwxTYW5G
cmFuY2lzY28xFTATBgNVBAoTDFBpeGdsbywgSW5jLjEQMA4GA1UECxMHVlBOLUNJ
RTEaMBgGA1UEAxMRdHVubmVsLnBpeGdsby5jb20xHDAaBgNVBCkTE0JhbGEgQ2hh
bmRyYXNla2FyYW4xHjAcBgkqhkiG9w0BCQEWD2JhbGFAcGl4Z2xvLmNvbYIJAKbb
xoOA5qB5MBMGA1UdJQQMMAoGCCsGAQUFBwMCMAsGA1UdDwQEAwIHgDANBgkqhkiG
9w0BAQUFAAOCAgEAfMqEmCpSUDoH5UjL4YFS7pzhaK1X1WuNZ3X97E7kLJuqJJ/O
srsRbsuEQtYfMjR2qr64M0662FxXC3YeCLdTIIz17crady1dKkW82vFz9wRuY3KJ
97ycXf93zGUF1sPZb7FEeb70X3d/2bO8DYGJbL6LpSHxL5B666WI+fUFH0UuVSv4
UZEhNqPT77kZ3BuzryrrdRZR6LZgkCrAa3xvrgSH9ZdsbC+iOsDJAALxptqH0FGl
9EC+Z5rZc3FUplWmcTyXkTMEPmBIjdM3chU8TMFUFAlv9Ns7/tNeIUg85cdcnx60
zeKXbbkp9DB2eU9ML+fvX0uqtUFZKSQ7M+UevUF0A0leLMoiMfC0el6KihiqnEk3
x5iWQoBC2gcXsgyuk6lcSxl8MEKncJYHoqyUyMjM56CE2gGOHDBZJE+GblxyGYGy
xkCwVNkYmhxXrsy0w8qf44KsAFaQus7XKwmdgfhS4tw9NdpC0NF//A0orAp8N8DI
jWN58/LGjbloBrPbTJL7A9vZo7nir+uNQCbySTX3zp6jWKY7Vjp/kYuSkOi6dDPb
6Yz7X6xwJ03A7WjsZ4ossn5mT41HGrqRKglmx+vabIGyAxwr8FU0cU9SXUZWssOK
F40/dV3ncPqGH8YgwuXIGRvQEaJrfmVqCFvF4GdZ9Xnc0I3tfEQKxU13Qv8=
-----END CERTIFICATE-----
