Certificate:
    Data:
        Version: 3 (0x2)
        Serial Number: 388 (0x184)
    Signature Algorithm: sha1WithRSAEncryption
        Issuer: C=US, ST=CA, L=SanFrancisco, O=Pixglo, Inc., OU=VPN-CIE, CN=tunnel.pixglo.com/name=Bala Chandrasekaran/emailAddress=bala@pixglo.com
        Validity
            Not Before: Feb 14 06:32:13 2018 GMT
            Not After : Feb 12 06:32:13 2028 GMT
        Subject: C=US, ST=CA, L=SanFrancisco, O=Pixglo, Inc., OU=VPN-CIE, CN=cie387/name=Bala Chandrasekaran/emailAddress=bala@pixglo.com
        Subject Public Key Info:
            Public Key Algorithm: rsaEncryption
                Public-Key: (4096 bit)
                Modulus:
                    00:cf:b7:e2:d9:8b:ac:ed:c9:f2:45:4a:69:83:a1:
                    c0:dd:1d:19:66:ee:0c:fe:a7:82:50:a7:ac:20:fa:
                    1c:25:63:8a:a5:39:a0:ee:ad:ac:2d:52:69:ea:5c:
                    97:a5:0c:46:8b:45:b9:b1:33:e9:11:32:8e:06:ed:
                    84:09:a7:42:1d:6f:11:25:80:69:eb:7a:44:11:01:
                    77:e1:7d:0c:91:c6:09:9c:3f:78:99:8e:76:ba:39:
                    20:50:67:5e:ec:06:23:5f:02:24:79:c2:35:79:d0:
                    66:08:f4:88:1f:f3:44:26:0a:e7:a5:2c:09:24:65:
                    32:6e:d7:15:97:54:b2:d6:c3:c7:4c:9c:de:ed:5e:
                    c6:de:56:f9:6a:8b:7a:e6:05:ee:a7:b6:0b:5f:3a:
                    d4:08:22:4c:90:5e:d0:c8:57:97:a2:9d:aa:19:3d:
                    d7:30:14:27:a9:6a:4c:0a:cb:26:e9:fb:0f:2b:3b:
                    a7:f5:95:ef:9d:b2:91:4a:d3:75:e7:77:c2:8e:d9:
                    bf:48:36:9b:64:a3:b6:cf:1a:e7:2f:a6:ba:1e:21:
                    d7:77:ae:cb:cb:61:a9:49:ea:c2:6e:b1:5f:a2:d5:
                    07:24:fe:2c:96:2b:95:d9:ea:39:07:89:33:8c:73:
                    63:9a:54:9b:2c:c1:ea:53:ea:1f:91:9e:59:b4:62:
                    c7:90:e5:ae:f0:ba:86:35:17:7c:10:bc:8b:45:3f:
                    8b:a2:13:a2:78:23:09:0a:83:7a:42:c8:e8:67:b5:
                    35:cd:c2:2a:03:82:0e:89:01:1b:ae:a5:2c:3e:7c:
                    cb:c5:e1:22:38:ec:cd:b3:b7:72:61:cb:f5:e5:28:
                    b8:8a:ef:65:c7:0c:49:27:d9:b9:ac:d2:54:b1:bc:
                    d9:e5:95:16:eb:11:1b:ac:b7:b2:ca:d7:5c:b2:9f:
                    26:eb:73:4c:75:17:5a:81:45:9b:ff:1c:8f:00:7d:
                    ce:3e:41:bc:a7:4e:aa:16:8e:8c:e1:6f:dc:6f:3e:
                    b3:cd:fa:1f:06:e0:42:dc:c8:76:94:5e:fc:26:c4:
                    e1:21:d7:af:7b:20:40:a1:1f:ac:7f:9c:b1:cd:10:
                    fe:e4:e7:38:36:d8:06:79:87:30:89:60:6f:a9:d9:
                    f1:6e:5c:3f:74:08:64:08:0b:57:bb:35:3c:ba:44:
                    a7:b2:4a:52:5e:03:43:1b:42:8a:8b:5b:50:ac:ec:
                    e2:d3:54:c0:bc:f4:49:29:ad:bf:9f:84:d9:c3:7e:
                    cf:fb:89:62:47:4e:00:07:5c:51:9a:64:b6:9d:47:
                    86:df:04:96:55:24:38:ff:2c:53:1c:b3:79:4f:56:
                    67:8d:ed:d5:c4:0b:14:bf:48:39:e4:19:c2:df:23:
                    22:31:e9
                Exponent: 65537 (0x10001)
        X509v3 extensions:
            X509v3 Basic Constraints: 
                CA:FALSE
            Netscape Comment: 
                Easy-RSA Generated Certificate
            X509v3 Subject Key Identifier: 
                48:BE:71:FE:5F:60:93:50:AE:EA:28:0F:6E:C0:00:64:FC:F5:9E:9C
            X509v3 Authority Key Identifier: 
                keyid:EF:38:8D:14:50:58:A7:5B:4D:9C:17:72:FC:DF:B9:AC:A7:51:B0:10
                DirName:/C=US/ST=CA/L=SanFrancisco/O=Pixglo, Inc./OU=VPN-CIE/CN=tunnel.pixglo.com/name=Bala Chandrasekaran/emailAddress=bala@pixglo.com
                serial:A6:DB:C6:83:80:E6:A0:79

            X509v3 Extended Key Usage: 
                TLS Web Client Authentication
            X509v3 Key Usage: 
                Digital Signature
    Signature Algorithm: sha1WithRSAEncryption
         4b:6e:62:46:39:31:19:dd:7d:f2:08:78:f3:cb:59:57:45:3e:
         9b:45:89:d8:72:f1:04:0e:9c:bf:b7:3d:6d:4f:ff:d6:8a:69:
         b7:de:2d:8c:f8:fb:49:ed:a7:02:90:ef:ce:5b:4f:43:40:66:
         d6:62:c3:6a:f5:a2:50:57:9b:36:2b:43:dd:4a:b8:f7:b8:71:
         1b:25:8b:e1:94:d8:c0:b4:96:18:f4:16:bb:fa:f0:01:a0:3b:
         cd:62:94:39:96:49:78:e6:56:60:fd:ad:e5:22:96:0b:1b:fb:
         a7:86:ca:24:b5:60:d2:eb:78:84:7c:2a:d1:ae:e6:20:b0:b5:
         7c:2f:00:68:8b:c7:f6:56:d2:00:dd:c2:f5:9f:15:44:ca:32:
         48:87:fb:b1:52:27:ad:da:98:3a:8b:06:0a:85:c6:5e:13:03:
         19:b7:66:9d:71:2a:1f:ee:b9:e5:cb:db:c1:fc:6c:bb:38:64:
         9c:bb:8f:ca:7a:b5:41:cf:f5:a5:ad:16:ea:3a:e7:2d:b1:75:
         32:e3:6f:0e:16:51:c2:34:c9:24:69:64:5b:79:7b:31:80:ab:
         4b:a8:d1:7e:b7:3a:1e:a2:9a:77:58:79:eb:bd:60:1e:2a:7e:
         3c:13:21:98:d8:39:05:29:5e:3a:6d:5d:7d:0b:e1:83:da:cc:
         29:1f:91:3b:b9:85:53:60:30:77:d4:e2:98:e7:36:60:cd:ca:
         0e:61:0b:c5:ea:e0:02:9b:14:44:57:eb:a4:aa:5a:b5:6e:5a:
         d4:21:41:ad:70:b4:b4:80:34:ec:32:75:28:eb:f2:80:c7:51:
         53:c1:51:af:26:58:4e:16:b3:9f:b6:f4:69:17:ee:79:fe:70:
         c7:48:3d:e2:82:20:59:01:06:53:b7:0c:35:24:16:28:47:f2:
         6d:37:dc:1e:d6:22:d5:49:e3:43:19:6d:d8:bb:cc:08:9f:14:
         10:cd:c7:ab:0f:32:fd:3c:fa:b6:cb:bd:4e:0c:5f:28:b5:60:
         94:6f:34:be:d6:38:0b:22:d4:76:c8:7e:94:60:f6:29:5b:87:
         b2:52:5f:b7:4b:9e:bc:90:7e:cd:17:70:e3:ed:e9:43:3c:ff:
         35:c6:4e:cc:a1:95:11:e5:64:62:98:2b:e8:10:1b:ab:3e:23:
         21:61:3d:4d:64:71:68:c4:a7:a8:a6:f8:07:da:12:a9:95:7c:
         64:3a:2d:b5:ec:6d:a7:cf:31:4d:4d:c9:d2:b5:5b:ab:34:6c:
         ba:ee:ee:bd:75:40:c2:31:33:fc:c0:99:81:e7:21:fd:3e:c9:
         a7:81:88:8c:60:a6:a9:c9:05:e4:12:a0:9d:5a:37:3c:cf:11:
         5c:ea:33:3e:69:f5:6b:f1
-----BEGIN CERTIFICATE-----
MIIHSDCCBTCgAwIBAgICAYQwDQYJKoZIhvcNAQEFBQAwgbQxCzAJBgNVBAYTAlVT
MQswCQYDVQQIEwJDQTEVMBMGA1UEBxMMU2FuRnJhbmNpc2NvMRUwEwYDVQQKEwxQ
aXhnbG8sIEluYy4xEDAOBgNVBAsTB1ZQTi1DSUUxGjAYBgNVBAMTEXR1bm5lbC5w
aXhnbG8uY29tMRwwGgYDVQQpExNCYWxhIENoYW5kcmFzZWthcmFuMR4wHAYJKoZI
hvcNAQkBFg9iYWxhQHBpeGdsby5jb20wHhcNMTgwMjE0MDYzMjEzWhcNMjgwMjEy
MDYzMjEzWjCBqTELMAkGA1UEBhMCVVMxCzAJBgNVBAgTAkNBMRUwEwYDVQQHEwxT
YW5GcmFuY2lzY28xFTATBgNVBAoTDFBpeGdsbywgSW5jLjEQMA4GA1UECxMHVlBO
LUNJRTEPMA0GA1UEAxMGY2llMzg3MRwwGgYDVQQpExNCYWxhIENoYW5kcmFzZWth
cmFuMR4wHAYJKoZIhvcNAQkBFg9iYWxhQHBpeGdsby5jb20wggIiMA0GCSqGSIb3
DQEBAQUAA4ICDwAwggIKAoICAQDPt+LZi6ztyfJFSmmDocDdHRlm7gz+p4JQp6wg
+hwlY4qlOaDurawtUmnqXJelDEaLRbmxM+kRMo4G7YQJp0IdbxElgGnrekQRAXfh
fQyRxgmcP3iZjna6OSBQZ17sBiNfAiR5wjV50GYI9Igf80QmCuelLAkkZTJu1xWX
VLLWw8dMnN7tXsbeVvlqi3rmBe6ntgtfOtQIIkyQXtDIV5einaoZPdcwFCepakwK
yybp+w8rO6f1le+dspFK03Xnd8KO2b9INptko7bPGucvproeIdd3rsvLYalJ6sJu
sV+i1Qck/iyWK5XZ6jkHiTOMc2OaVJsswepT6h+Rnlm0YseQ5a7wuoY1F3wQvItF
P4uiE6J4IwkKg3pCyOhntTXNwioDgg6JARuupSw+fMvF4SI47M2zt3Jhy/XlKLiK
72XHDEkn2bms0lSxvNnllRbrERust7LK11yynybrc0x1F1qBRZv/HI8Afc4+Qbyn
TqoWjozhb9xvPrPN+h8G4ELcyHaUXvwmxOEh1697IEChH6x/nLHNEP7k5zg22AZ5
hzCJYG+p2fFuXD90CGQIC1e7NTy6RKeySlJeA0MbQoqLW1Cs7OLTVMC89Ekprb+f
hNnDfs/7iWJHTgAHXFGaZLadR4bfBJZVJDj/LFMcs3lPVmeN7dXECxS/SDnkGcLf
IyIx6QIDAQABo4IBazCCAWcwCQYDVR0TBAIwADAtBglghkgBhvhCAQ0EIBYeRWFz
eS1SU0EgR2VuZXJhdGVkIENlcnRpZmljYXRlMB0GA1UdDgQWBBRIvnH+X2CTUK7q
KA9uwABk/PWenDCB6QYDVR0jBIHhMIHegBTvOI0UUFinW02cF3L837msp1GwEKGB
uqSBtzCBtDELMAkGA1UEBhMCVVMxCzAJBgNVBAgTAkNBMRUwEwYDVQQHEwxTYW5G
cmFuY2lzY28xFTATBgNVBAoTDFBpeGdsbywgSW5jLjEQMA4GA1UECxMHVlBOLUNJ
RTEaMBgGA1UEAxMRdHVubmVsLnBpeGdsby5jb20xHDAaBgNVBCkTE0JhbGEgQ2hh
bmRyYXNla2FyYW4xHjAcBgkqhkiG9w0BCQEWD2JhbGFAcGl4Z2xvLmNvbYIJAKbb
xoOA5qB5MBMGA1UdJQQMMAoGCCsGAQUFBwMCMAsGA1UdDwQEAwIHgDANBgkqhkiG
9w0BAQUFAAOCAgEAS25iRjkxGd198gh488tZV0U+m0WJ2HLxBA6cv7c9bU//1opp
t94tjPj7Se2nApDvzltPQ0Bm1mLDavWiUFebNitD3Uq497hxGyWL4ZTYwLSWGPQW
u/rwAaA7zWKUOZZJeOZWYP2t5SKWCxv7p4bKJLVg0ut4hHwq0a7mILC1fC8AaIvH
9lbSAN3C9Z8VRMoySIf7sVInrdqYOosGCoXGXhMDGbdmnXEqH+655cvbwfxsuzhk
nLuPynq1Qc/1pa0W6jrnLbF1MuNvDhZRwjTJJGlkW3l7MYCrS6jRfrc6HqKad1h5
671gHip+PBMhmNg5BSleOm1dfQvhg9rMKR+RO7mFU2Awd9TimOc2YM3KDmELxerg
ApsURFfrpKpatW5a1CFBrXC0tIA07DJ1KOvygMdRU8FRryZYThazn7b0aRfuef5w
x0g94oIgWQEGU7cMNSQWKEfybTfcHtYi1UnjQxlt2LvMCJ8UEM3Hqw8y/Tz6tsu9
TgxfKLVglG80vtY4CyLUdsh+lGD2KVuHslJft0uevJB+zRdw4+3pQzz/NcZOzKGV
EeVkYpgr6BAbqz4jIWE9TWRxaMSnqKb4B9oSqZV8ZDottextp88xTU3J0rVbqzRs
uu7uvXVAwjEz/MCZgech/T7Jp4GIjGCmqckF5BKgnVo3PM8RXOozPmn1a/E=
-----END CERTIFICATE-----
