Certificate:
    Data:
        Version: 3 (0x2)
        Serial Number: 390 (0x186)
    Signature Algorithm: sha1WithRSAEncryption
        Issuer: C=US, ST=CA, L=SanFrancisco, O=Pixglo, Inc., OU=VPN-CIE, CN=tunnel.pixglo.com/name=Bala Chandrasekaran/emailAddress=bala@pixglo.com
        Validity
            Not Before: Feb 14 06:32:15 2018 GMT
            Not After : Feb 12 06:32:15 2028 GMT
        Subject: C=US, ST=CA, L=SanFrancisco, O=Pixglo, Inc., OU=VPN-CIE, CN=cie389/name=Bala Chandrasekaran/emailAddress=bala@pixglo.com
        Subject Public Key Info:
            Public Key Algorithm: rsaEncryption
                Public-Key: (4096 bit)
                Modulus:
                    00:cc:c3:9a:05:60:80:e6:2e:f0:24:80:e0:50:9e:
                    0b:c6:ed:5b:61:a7:97:c0:d4:b1:d1:7c:11:50:5e:
                    cf:02:d4:56:85:6f:d0:41:76:83:f0:7e:29:d2:22:
                    d7:48:f6:bf:1d:d6:8b:6c:7a:ac:2a:19:8d:f9:96:
                    09:e2:b3:d0:64:42:1f:0d:9e:71:a2:3d:80:70:06:
                    15:a0:43:9f:19:8f:30:71:a9:2e:08:09:28:c6:74:
                    2b:53:48:72:a2:b7:7c:da:93:77:2e:e6:0c:84:e1:
                    cb:4c:b9:b3:c5:a0:8b:97:60:f8:16:df:39:55:e6:
                    3a:ef:56:07:05:22:8d:7f:95:c9:13:4d:8d:62:c2:
                    8d:02:d0:52:29:85:5e:7f:48:a1:91:bf:f9:0b:87:
                    bb:23:94:34:1e:47:6e:b4:13:93:c1:69:eb:d7:cd:
                    2e:03:9f:bf:86:77:dd:d1:7b:e8:95:bc:3d:6e:49:
                    6c:0a:34:d6:a6:f2:61:e2:01:fc:f8:89:c5:8b:4b:
                    2c:74:10:30:44:e0:ea:b0:96:75:95:07:ce:30:78:
                    b1:57:0a:42:cb:74:4f:af:29:fd:ab:c2:b1:8d:c5:
                    a1:b3:27:d1:0c:db:fa:19:5e:b5:a0:22:f1:93:8c:
                    71:66:df:07:0c:a3:7a:63:b4:82:8a:e8:42:12:37:
                    ba:9d:6e:cf:91:00:77:0d:fd:3f:ee:da:e2:0c:e3:
                    7d:e4:8f:f9:1f:37:3e:14:9d:b5:de:7e:76:a4:c5:
                    9b:95:e1:76:ac:4c:b2:36:c5:8a:9b:df:03:72:db:
                    de:42:c4:35:d9:45:6b:7e:57:ab:c3:ca:28:5c:01:
                    98:f5:91:48:78:00:d5:80:4a:b2:17:52:63:03:5e:
                    63:16:46:68:0a:48:54:77:27:31:3e:34:b2:94:ba:
                    a3:db:5f:b7:d3:b3:84:36:de:15:ee:11:12:de:75:
                    82:dd:2c:0a:d9:f6:66:b4:47:41:99:a8:58:4c:d7:
                    23:36:2f:49:d6:72:6e:9a:0d:9e:13:b9:6d:fb:da:
                    7a:78:9f:f9:46:ac:6f:ce:b0:30:4e:48:e7:16:43:
                    74:bf:ef:a7:96:f7:a4:f2:28:48:62:d4:a0:93:57:
                    a2:10:04:0d:0c:f0:31:46:91:fa:e0:2b:6b:61:b2:
                    c3:9e:f0:73:b2:1d:7e:cd:1a:c5:ff:00:9a:4a:0d:
                    c3:5a:11:ea:e8:a1:d3:11:12:33:08:22:9c:59:a4:
                    b6:78:e7:d4:c7:b8:a9:69:aa:7e:ab:95:f5:8b:07:
                    38:97:71:5a:83:77:53:0f:84:db:e9:4e:b7:27:51:
                    6f:9a:5b:4c:81:5b:97:c4:55:42:ac:8d:7e:35:80:
                    6b:75:b1
                Exponent: 65537 (0x10001)
        X509v3 extensions:
            X509v3 Basic Constraints: 
                CA:FALSE
            Netscape Comment: 
                Easy-RSA Generated Certificate
            X509v3 Subject Key Identifier: 
                E2:63:BE:C1:66:EE:34:0B:7C:7E:A0:C7:6E:21:99:7A:85:25:B2:57
            X509v3 Authority Key Identifier: 
                keyid:EF:38:8D:14:50:58:A7:5B:4D:9C:17:72:FC:DF:B9:AC:A7:51:B0:10
                DirName:/C=US/ST=CA/L=SanFrancisco/O=Pixglo, Inc./OU=VPN-CIE/CN=tunnel.pixglo.com/name=Bala Chandrasekaran/emailAddress=bala@pixglo.com
                serial:A6:DB:C6:83:80:E6:A0:79

            X509v3 Extended Key Usage: 
                TLS Web Client Authentication
            X509v3 Key Usage: 
                Digital Signature
    Signature Algorithm: sha1WithRSAEncryption
         95:13:f1:d9:b1:96:ce:3d:23:a2:ed:e2:39:22:73:75:68:bc:
         a7:ae:0f:5a:99:58:9c:d1:60:0e:39:00:05:9d:f6:80:e0:d5:
         0a:8f:21:bd:45:65:88:d9:4b:6a:1e:bd:64:42:80:d1:93:13:
         e1:87:71:4b:7c:43:fe:d6:f5:0e:8b:9d:94:30:a7:c4:3e:71:
         a1:f2:c6:39:28:4f:54:ca:bc:42:51:2b:4d:10:41:23:52:b5:
         72:1e:87:04:6a:61:28:00:74:29:63:49:e6:5b:0a:08:e5:9d:
         20:00:d4:82:af:05:c4:3e:43:5e:ff:63:98:c7:3f:f1:6a:96:
         34:ff:8a:e0:70:97:18:f3:47:98:56:0b:8b:6d:ae:c8:93:3f:
         c1:dd:e7:6f:9c:29:c1:8e:79:d9:09:3e:a3:3b:de:bd:f2:81:
         86:84:08:d1:97:db:72:da:e4:19:72:96:7e:55:dd:52:fb:5f:
         60:36:f3:21:16:6e:cf:43:87:86:95:a4:3f:30:e1:40:b7:89:
         88:b1:33:b1:a5:0a:92:2c:6b:08:be:47:33:15:a7:45:54:6a:
         68:b1:fe:e4:ff:48:ae:95:ac:34:76:f9:02:04:e0:bb:7b:89:
         13:49:21:f4:91:39:8f:3d:9b:3e:39:75:14:26:44:28:6e:e7:
         f1:c1:af:e8:88:43:1f:2e:c7:ae:5f:42:86:4d:16:c5:bc:49:
         de:a2:91:ee:8c:7b:ef:48:ee:ea:9f:22:b5:93:22:cf:3d:6b:
         c6:92:da:c2:eb:a0:5d:2d:71:b8:c2:63:01:e0:b9:e3:e0:71:
         8a:61:9b:ad:60:82:5e:f6:35:80:24:7c:9f:73:68:28:0f:ae:
         d2:93:bc:11:d2:98:ed:ac:0a:5e:55:4d:ce:57:f2:31:7a:b8:
         7d:12:d1:16:b1:18:a4:91:21:c1:df:94:bb:3f:0f:a7:29:bb:
         97:b1:32:55:3c:40:bd:64:22:27:0c:88:30:8d:36:85:8f:d9:
         1f:c6:43:82:54:8d:96:2f:95:91:3b:f9:2a:0c:f4:4e:c4:9d:
         dd:ba:ce:72:88:8e:a4:f3:23:0b:e1:6b:a4:4d:0e:f2:40:56:
         ec:56:56:66:dd:65:73:89:3f:89:72:0f:3c:e8:85:7f:74:88:
         97:ee:be:2d:2e:d1:cb:65:98:79:60:e9:46:31:36:c9:df:c2:
         82:f7:a1:6b:27:3b:a8:cd:e4:5b:2b:4e:05:d2:f8:84:a1:73:
         cf:b8:72:25:ab:43:e6:29:45:86:6a:d8:83:6d:5c:f1:8f:cc:
         57:87:22:b5:6b:82:1e:d8:e5:66:de:f6:0a:1b:c1:fc:8a:25:
         b4:17:a0:f7:25:6a:d9:5a
-----BEGIN CERTIFICATE-----
MIIHSDCCBTCgAwIBAgICAYYwDQYJKoZIhvcNAQEFBQAwgbQxCzAJBgNVBAYTAlVT
MQswCQYDVQQIEwJDQTEVMBMGA1UEBxMMU2FuRnJhbmNpc2NvMRUwEwYDVQQKEwxQ
aXhnbG8sIEluYy4xEDAOBgNVBAsTB1ZQTi1DSUUxGjAYBgNVBAMTEXR1bm5lbC5w
aXhnbG8uY29tMRwwGgYDVQQpExNCYWxhIENoYW5kcmFzZWthcmFuMR4wHAYJKoZI
hvcNAQkBFg9iYWxhQHBpeGdsby5jb20wHhcNMTgwMjE0MDYzMjE1WhcNMjgwMjEy
MDYzMjE1WjCBqTELMAkGA1UEBhMCVVMxCzAJBgNVBAgTAkNBMRUwEwYDVQQHEwxT
YW5GcmFuY2lzY28xFTATBgNVBAoTDFBpeGdsbywgSW5jLjEQMA4GA1UECxMHVlBO
LUNJRTEPMA0GA1UEAxMGY2llMzg5MRwwGgYDVQQpExNCYWxhIENoYW5kcmFzZWth
cmFuMR4wHAYJKoZIhvcNAQkBFg9iYWxhQHBpeGdsby5jb20wggIiMA0GCSqGSIb3
DQEBAQUAA4ICDwAwggIKAoICAQDMw5oFYIDmLvAkgOBQngvG7Vthp5fA1LHRfBFQ
Xs8C1FaFb9BBdoPwfinSItdI9r8d1otseqwqGY35lgnis9BkQh8NnnGiPYBwBhWg
Q58ZjzBxqS4ICSjGdCtTSHKit3zak3cu5gyE4ctMubPFoIuXYPgW3zlV5jrvVgcF
Io1/lckTTY1iwo0C0FIphV5/SKGRv/kLh7sjlDQeR260E5PBaevXzS4Dn7+Gd93R
e+iVvD1uSWwKNNam8mHiAfz4icWLSyx0EDBE4OqwlnWVB84weLFXCkLLdE+vKf2r
wrGNxaGzJ9EM2/oZXrWgIvGTjHFm3wcMo3pjtIKK6EISN7qdbs+RAHcN/T/u2uIM
433kj/kfNz4UnbXefnakxZuV4XasTLI2xYqb3wNy295CxDXZRWt+V6vDyihcAZj1
kUh4ANWASrIXUmMDXmMWRmgKSFR3JzE+NLKUuqPbX7fTs4Q23hXuERLedYLdLArZ
9ma0R0GZqFhM1yM2L0nWcm6aDZ4TuW372np4n/lGrG/OsDBOSOcWQ3S/76eW96Ty
KEhi1KCTV6IQBA0M8DFGkfrgK2thssOe8HOyHX7NGsX/AJpKDcNaEeroodMREjMI
IpxZpLZ459THuKlpqn6rlfWLBziXcVqDd1MPhNvpTrcnUW+aW0yBW5fEVUKsjX41
gGt1sQIDAQABo4IBazCCAWcwCQYDVR0TBAIwADAtBglghkgBhvhCAQ0EIBYeRWFz
eS1SU0EgR2VuZXJhdGVkIENlcnRpZmljYXRlMB0GA1UdDgQWBBTiY77BZu40C3x+
oMduIZl6hSWyVzCB6QYDVR0jBIHhMIHegBTvOI0UUFinW02cF3L837msp1GwEKGB
uqSBtzCBtDELMAkGA1UEBhMCVVMxCzAJBgNVBAgTAkNBMRUwEwYDVQQHEwxTYW5G
cmFuY2lzY28xFTATBgNVBAoTDFBpeGdsbywgSW5jLjEQMA4GA1UECxMHVlBOLUNJ
RTEaMBgGA1UEAxMRdHVubmVsLnBpeGdsby5jb20xHDAaBgNVBCkTE0JhbGEgQ2hh
bmRyYXNla2FyYW4xHjAcBgkqhkiG9w0BCQEWD2JhbGFAcGl4Z2xvLmNvbYIJAKbb
xoOA5qB5MBMGA1UdJQQMMAoGCCsGAQUFBwMCMAsGA1UdDwQEAwIHgDANBgkqhkiG
9w0BAQUFAAOCAgEAlRPx2bGWzj0jou3iOSJzdWi8p64PWplYnNFgDjkABZ32gODV
Co8hvUVliNlLah69ZEKA0ZMT4YdxS3xD/tb1DoudlDCnxD5xofLGOShPVMq8QlEr
TRBBI1K1ch6HBGphKAB0KWNJ5lsKCOWdIADUgq8FxD5DXv9jmMc/8WqWNP+K4HCX
GPNHmFYLi22uyJM/wd3nb5wpwY552Qk+ozvevfKBhoQI0ZfbctrkGXKWflXdUvtf
YDbzIRZuz0OHhpWkPzDhQLeJiLEzsaUKkixrCL5HMxWnRVRqaLH+5P9IrpWsNHb5
AgTgu3uJE0kh9JE5jz2bPjl1FCZEKG7n8cGv6IhDHy7Hrl9Chk0WxbxJ3qKR7ox7
70ju6p8itZMizz1rxpLawuugXS1xuMJjAeC54+BximGbrWCCXvY1gCR8n3NoKA+u
0pO8EdKY7awKXlVNzlfyMXq4fRLRFrEYpJEhwd+Uuz8Ppym7l7EyVTxAvWQiJwyI
MI02hY/ZH8ZDglSNli+VkTv5Kgz0TsSd3brOcoiOpPMjC+FrpE0O8kBW7FZWZt1l
c4k/iXIPPOiFf3SIl+6+LS7Ry2WYeWDpRjE2yd/Cgvehayc7qM3kWytOBdL4hKFz
z7hyJatD5ilFhmrYg21c8Y/MV4citWuCHtjlZt72ChvB/IoltBeg9yVq2Vo=
-----END CERTIFICATE-----
