Certificate:
    Data:
        Version: 3 (0x2)
        Serial Number: 391 (0x187)
    Signature Algorithm: sha1WithRSAEncryption
        Issuer: C=US, ST=CA, L=SanFrancisco, O=Pixglo, Inc., OU=VPN-CIE, CN=tunnel.pixglo.com/name=Bala Chandrasekaran/emailAddress=bala@pixglo.com
        Validity
            Not Before: Feb 14 06:32:18 2018 GMT
            Not After : Feb 12 06:32:18 2028 GMT
        Subject: C=US, ST=CA, L=SanFrancisco, O=Pixglo, Inc., OU=VPN-CIE, CN=cie390/name=Bala Chandrasekaran/emailAddress=bala@pixglo.com
        Subject Public Key Info:
            Public Key Algorithm: rsaEncryption
                Public-Key: (4096 bit)
                Modulus:
                    00:9f:87:78:6f:81:af:70:1e:d5:0b:df:ee:b3:d1:
                    b0:f1:09:b1:60:01:35:b4:e1:fe:03:8a:18:23:13:
                    d5:60:ad:76:f1:cd:cf:70:67:6a:da:2c:05:cf:9a:
                    b6:26:4f:0d:0c:73:7f:c6:94:3b:5b:59:a3:9a:7e:
                    b8:9c:b2:fe:a0:1e:b2:0c:1e:79:64:c5:ad:54:15:
                    5e:d2:c0:9a:ea:d4:d9:19:96:4d:e4:42:32:f2:29:
                    33:e3:d1:24:59:82:d0:d9:40:2d:b3:fc:6a:fd:4e:
                    06:e9:d1:9d:86:8e:9f:8f:fe:09:3a:58:76:4c:d9:
                    b8:ba:4e:82:cd:2d:b5:08:c1:21:bf:87:e8:12:c1:
                    b6:62:ea:14:43:47:b9:69:8f:ce:d3:51:9f:39:91:
                    35:aa:0d:55:a3:cd:15:80:61:63:94:a3:57:40:eb:
                    4e:fd:60:43:3f:67:d8:96:8f:b7:46:d6:ca:bb:f9:
                    d0:fe:63:a4:c7:28:98:70:bf:8e:fd:76:a4:3f:a8:
                    a3:5c:7a:31:43:1a:b9:a7:91:5f:83:ae:f7:75:97:
                    10:65:04:4a:01:00:2f:31:5e:bf:05:a5:cf:32:79:
                    e1:83:f9:e7:df:75:89:8f:6c:79:3e:fe:9c:f8:27:
                    d2:ef:87:8b:94:38:dd:3f:96:6f:bb:12:f9:d5:eb:
                    2c:80:2c:94:06:52:79:c6:f8:a6:70:61:a2:7c:bc:
                    14:34:e5:6b:d7:15:57:5f:8b:65:50:42:00:8a:32:
                    5c:0a:11:5e:39:e3:a9:09:75:4e:46:46:59:1c:37:
                    9d:b2:72:8a:f2:fa:cf:42:9d:45:42:77:90:f3:96:
                    96:15:c8:0f:71:bb:a2:c4:5a:82:ae:b1:77:90:65:
                    55:6e:c8:d1:a2:fc:63:fc:87:58:66:58:93:76:05:
                    54:69:d4:6e:23:3b:4d:15:d8:a5:28:15:fb:49:c3:
                    61:d2:da:d7:1d:5b:bd:32:9b:d8:2e:29:99:ec:dc:
                    e8:14:b0:f4:e1:fa:b7:1c:ad:89:83:25:2e:58:68:
                    c7:ef:e8:d0:02:06:48:04:b8:6b:6a:96:b1:f8:83:
                    e1:75:d6:da:78:d1:0f:03:3c:21:74:4e:35:9c:e7:
                    ff:9c:c1:3f:bc:1a:3d:a2:85:d3:80:b3:4d:2f:16:
                    f9:82:f6:57:b3:78:21:0d:66:a2:3d:2d:61:a9:3e:
                    51:4d:20:d1:79:2d:6d:18:19:e5:71:2a:e3:e2:f0:
                    b8:39:9f:b0:d6:44:bb:28:a1:06:d7:41:7b:7e:3e:
                    5e:3e:23:67:e1:f5:dd:a4:9b:8a:36:2e:14:a0:99:
                    78:bc:67:2b:75:a5:dd:3e:50:f6:66:b7:41:f6:41:
                    02:59:eb
                Exponent: 65537 (0x10001)
        X509v3 extensions:
            X509v3 Basic Constraints: 
                CA:FALSE
            Netscape Comment: 
                Easy-RSA Generated Certificate
            X509v3 Subject Key Identifier: 
                DF:D3:D2:DA:E1:02:F7:33:28:67:47:C6:DB:63:E2:54:24:32:81:17
            X509v3 Authority Key Identifier: 
                keyid:EF:38:8D:14:50:58:A7:5B:4D:9C:17:72:FC:DF:B9:AC:A7:51:B0:10
                DirName:/C=US/ST=CA/L=SanFrancisco/O=Pixglo, Inc./OU=VPN-CIE/CN=tunnel.pixglo.com/name=Bala Chandrasekaran/emailAddress=bala@pixglo.com
                serial:A6:DB:C6:83:80:E6:A0:79

            X509v3 Extended Key Usage: 
                TLS Web Client Authentication
            X509v3 Key Usage: 
                Digital Signature
    Signature Algorithm: sha1WithRSAEncryption
         cb:27:6b:a0:e9:a8:33:0d:48:99:67:b2:8f:07:b0:ed:e4:ae:
         c4:0a:40:8e:82:24:c8:f7:07:81:50:b3:98:c9:d9:9f:69:c4:
         19:02:de:b9:19:cb:ef:f7:49:96:99:37:b1:6e:18:94:6e:7d:
         56:dd:f4:ec:bd:22:94:76:4b:c4:4e:5e:45:1a:6f:c2:11:30:
         26:b1:eb:6b:1b:49:4a:84:d5:3f:e0:90:0e:ac:89:bb:d4:f6:
         51:1f:da:3f:7e:a5:20:4c:2a:4a:29:79:3e:43:ef:03:07:c5:
         c7:22:ce:b6:cd:51:40:f4:84:00:ed:1d:af:81:d4:2b:80:b2:
         8e:6c:b7:51:7f:c4:b9:09:46:8c:e5:b3:8d:d0:e7:79:68:e1:
         be:f8:36:bd:1e:be:d7:9a:98:10:6d:5b:ab:fd:0e:d0:ee:ad:
         70:b3:ea:3f:2e:da:34:0b:1a:27:2b:4d:e8:7e:72:19:36:11:
         32:7a:8d:be:8a:37:22:ec:22:97:25:b5:ef:1d:99:fc:6d:6d:
         18:c2:e4:1c:cd:2a:62:10:b4:fb:5f:10:30:6e:d7:1c:66:66:
         00:4f:14:80:cf:24:de:31:5c:7e:19:01:83:bd:30:e0:13:14:
         03:65:32:ff:e7:60:ae:a3:a4:44:a8:f3:f8:df:38:ff:e5:96:
         39:d3:ba:6b:38:c1:68:a0:57:c4:79:c0:69:fe:02:e2:0b:21:
         de:cb:d6:b8:72:7e:f9:02:d1:2c:6b:52:0a:8b:7e:77:f9:5f:
         f7:64:4b:bd:c7:e0:b4:ff:e7:5e:27:a1:1d:ae:81:78:4f:dc:
         b4:fb:0a:ca:df:86:db:9a:5e:a9:6a:ad:3a:fe:31:0c:32:81:
         09:50:1d:16:ad:b5:5b:b2:37:bb:8b:2c:a6:73:78:8a:c9:cb:
         a2:23:5f:67:af:34:84:97:56:c3:65:df:6d:91:57:77:02:d0:
         06:9b:a1:29:73:73:59:74:73:b1:42:c2:77:b2:8f:f9:53:77:
         ea:ac:3c:23:bf:fc:a0:2a:1b:a0:dc:b3:d5:96:76:6f:e7:73:
         97:75:a6:8a:a0:d2:67:8d:40:0f:3e:e9:20:47:f3:28:4e:33:
         35:f8:d6:c4:5c:f5:5b:cd:d5:bb:0a:33:f5:9a:6c:b4:7c:a1:
         4e:f0:4e:ef:14:86:ae:c9:52:b5:22:3e:10:72:44:49:89:4c:
         69:d4:44:6a:9f:7e:e4:84:01:34:5c:89:36:ec:71:de:09:c8:
         30:ae:16:8e:3a:95:81:49:61:f6:4e:9c:d5:bf:8a:fa:76:87:
         63:7e:4e:d5:a3:fd:91:76:80:a8:91:7f:5e:83:bc:eb:c3:17:
         a3:7b:6c:80:cb:47:97:69
-----BEGIN CERTIFICATE-----
MIIHSDCCBTCgAwIBAgICAYcwDQYJKoZIhvcNAQEFBQAwgbQxCzAJBgNVBAYTAlVT
MQswCQYDVQQIEwJDQTEVMBMGA1UEBxMMU2FuRnJhbmNpc2NvMRUwEwYDVQQKEwxQ
aXhnbG8sIEluYy4xEDAOBgNVBAsTB1ZQTi1DSUUxGjAYBgNVBAMTEXR1bm5lbC5w
aXhnbG8uY29tMRwwGgYDVQQpExNCYWxhIENoYW5kcmFzZWthcmFuMR4wHAYJKoZI
hvcNAQkBFg9iYWxhQHBpeGdsby5jb20wHhcNMTgwMjE0MDYzMjE4WhcNMjgwMjEy
MDYzMjE4WjCBqTELMAkGA1UEBhMCVVMxCzAJBgNVBAgTAkNBMRUwEwYDVQQHEwxT
YW5GcmFuY2lzY28xFTATBgNVBAoTDFBpeGdsbywgSW5jLjEQMA4GA1UECxMHVlBO
LUNJRTEPMA0GA1UEAxMGY2llMzkwMRwwGgYDVQQpExNCYWxhIENoYW5kcmFzZWth
cmFuMR4wHAYJKoZIhvcNAQkBFg9iYWxhQHBpeGdsby5jb20wggIiMA0GCSqGSIb3
DQEBAQUAA4ICDwAwggIKAoICAQCfh3hvga9wHtUL3+6z0bDxCbFgATW04f4Dihgj
E9VgrXbxzc9wZ2raLAXPmrYmTw0Mc3/GlDtbWaOafricsv6gHrIMHnlkxa1UFV7S
wJrq1NkZlk3kQjLyKTPj0SRZgtDZQC2z/Gr9Tgbp0Z2Gjp+P/gk6WHZM2bi6ToLN
LbUIwSG/h+gSwbZi6hRDR7lpj87TUZ85kTWqDVWjzRWAYWOUo1dA6079YEM/Z9iW
j7dG1sq7+dD+Y6THKJhwv479dqQ/qKNcejFDGrmnkV+Drvd1lxBlBEoBAC8xXr8F
pc8yeeGD+effdYmPbHk+/pz4J9Lvh4uUON0/lm+7EvnV6yyALJQGUnnG+KZwYaJ8
vBQ05WvXFVdfi2VQQgCKMlwKEV4546kJdU5GRlkcN52ycory+s9CnUVCd5DzlpYV
yA9xu6LEWoKusXeQZVVuyNGi/GP8h1hmWJN2BVRp1G4jO00V2KUoFftJw2HS2tcd
W70ym9guKZns3OgUsPTh+rccrYmDJS5YaMfv6NACBkgEuGtqlrH4g+F11tp40Q8D
PCF0TjWc5/+cwT+8Gj2ihdOAs00vFvmC9lezeCENZqI9LWGpPlFNINF5LW0YGeVx
KuPi8Lg5n7DWRLsooQbXQXt+Pl4+I2fh9d2km4o2LhSgmXi8Zyt1pd0+UPZmt0H2
QQJZ6wIDAQABo4IBazCCAWcwCQYDVR0TBAIwADAtBglghkgBhvhCAQ0EIBYeRWFz
eS1SU0EgR2VuZXJhdGVkIENlcnRpZmljYXRlMB0GA1UdDgQWBBTf09La4QL3Myhn
R8bbY+JUJDKBFzCB6QYDVR0jBIHhMIHegBTvOI0UUFinW02cF3L837msp1GwEKGB
uqSBtzCBtDELMAkGA1UEBhMCVVMxCzAJBgNVBAgTAkNBMRUwEwYDVQQHEwxTYW5G
cmFuY2lzY28xFTATBgNVBAoTDFBpeGdsbywgSW5jLjEQMA4GA1UECxMHVlBOLUNJ
RTEaMBgGA1UEAxMRdHVubmVsLnBpeGdsby5jb20xHDAaBgNVBCkTE0JhbGEgQ2hh
bmRyYXNla2FyYW4xHjAcBgkqhkiG9w0BCQEWD2JhbGFAcGl4Z2xvLmNvbYIJAKbb
xoOA5qB5MBMGA1UdJQQMMAoGCCsGAQUFBwMCMAsGA1UdDwQEAwIHgDANBgkqhkiG
9w0BAQUFAAOCAgEAyydroOmoMw1ImWeyjwew7eSuxApAjoIkyPcHgVCzmMnZn2nE
GQLeuRnL7/dJlpk3sW4YlG59Vt307L0ilHZLxE5eRRpvwhEwJrHraxtJSoTVP+CQ
DqyJu9T2UR/aP36lIEwqSil5PkPvAwfFxyLOts1RQPSEAO0dr4HUK4Cyjmy3UX/E
uQlGjOWzjdDneWjhvvg2vR6+15qYEG1bq/0O0O6tcLPqPy7aNAsaJytN6H5yGTYR
MnqNvoo3IuwilyW17x2Z/G1tGMLkHM0qYhC0+18QMG7XHGZmAE8UgM8k3jFcfhkB
g70w4BMUA2Uy/+dgrqOkRKjz+N84/+WWOdO6azjBaKBXxHnAaf4C4gsh3svWuHJ+
+QLRLGtSCot+d/lf92RLvcfgtP/nXiehHa6BeE/ctPsKyt+G25peqWqtOv4xDDKB
CVAdFq21W7I3u4sspnN4isnLoiNfZ680hJdWw2XfbZFXdwLQBpuhKXNzWXRzsULC
d7KP+VN36qw8I7/8oCoboNyz1ZZ2b+dzl3WmiqDSZ41ADz7pIEfzKE4zNfjWxFz1
W83Vuwoz9ZpstHyhTvBO7xSGrslStSI+EHJESYlMadREap9+5IQBNFyJNuxx3gnI
MK4WjjqVgUlh9k6c1b+K+naHY35O1aP9kXaAqJF/XoO868MXo3tsgMtHl2k=
-----END CERTIFICATE-----
