Certificate:
    Data:
        Version: 3 (0x2)
        Serial Number: 394 (0x18a)
    Signature Algorithm: sha1WithRSAEncryption
        Issuer: C=US, ST=CA, L=SanFrancisco, O=Pixglo, Inc., OU=VPN-CIE, CN=tunnel.pixglo.com/name=Bala Chandrasekaran/emailAddress=bala@pixglo.com
        Validity
            Not Before: Feb 14 06:32:24 2018 GMT
            Not After : Feb 12 06:32:24 2028 GMT
        Subject: C=US, ST=CA, L=SanFrancisco, O=Pixglo, Inc., OU=VPN-CIE, CN=cie393/name=Bala Chandrasekaran/emailAddress=bala@pixglo.com
        Subject Public Key Info:
            Public Key Algorithm: rsaEncryption
                Public-Key: (4096 bit)
                Modulus:
                    00:d5:c3:a9:ab:28:d5:96:ac:d9:9c:0f:f0:ab:2b:
                    44:20:e0:86:c1:6c:75:d1:2a:a5:68:c6:5e:a9:4e:
                    b4:b4:22:35:e4:9e:22:4f:01:d4:f4:d1:6f:90:5b:
                    f3:72:be:11:e9:8e:89:08:3d:72:2d:d2:93:4f:d8:
                    47:95:25:ff:c0:1a:66:b1:ae:2c:cc:46:28:7a:7e:
                    e9:d0:7e:33:92:57:75:25:c0:eb:9d:58:e8:a4:5c:
                    08:7b:1e:1d:00:05:c3:da:70:07:32:69:66:15:9f:
                    fa:8b:d6:4b:ae:b7:06:e4:b9:70:b4:4a:47:9b:1e:
                    3d:74:9b:13:a7:e3:2a:dd:52:16:bd:af:51:a2:f0:
                    bc:b9:b6:70:6e:d2:bb:85:64:ea:a3:82:30:d9:c9:
                    5d:ec:5a:85:29:2c:f7:04:06:0e:15:fb:61:92:51:
                    a4:53:d0:4c:7a:eb:d5:bc:06:d3:28:bc:f6:b0:82:
                    29:0c:f1:0d:34:f9:be:ac:fd:26:61:a4:30:98:70:
                    d8:c4:9f:9a:dc:9a:2a:f4:ab:ba:f2:d0:87:4f:e1:
                    19:82:ab:5d:20:4a:7e:08:e3:9f:be:a6:3f:32:a5:
                    93:90:fd:f4:d0:95:e0:cb:e1:d7:84:6c:61:2e:69:
                    b6:6d:b5:4c:c6:a2:ab:fb:1d:56:64:44:7a:ae:a6:
                    cd:72:27:95:72:88:e1:29:06:12:2d:ca:50:59:66:
                    a3:79:df:9b:93:f6:09:4b:6e:3e:e3:68:4c:67:39:
                    a1:a6:c5:c8:04:0d:6e:57:f1:cd:a3:01:20:42:21:
                    cd:4b:9b:84:0c:c0:5d:8d:42:df:a6:94:9f:95:3f:
                    79:40:d8:32:be:9e:a1:7b:b7:4d:c6:31:2f:17:19:
                    fd:1a:39:a9:5f:82:73:64:5e:a3:bc:d0:59:f4:62:
                    fb:4d:73:b4:62:b8:a8:b6:ad:ac:00:be:73:54:73:
                    ed:10:cf:22:1c:12:af:46:a9:4d:f1:b5:1e:87:24:
                    70:80:e7:5c:9d:76:9d:4b:20:ad:04:c8:55:87:b3:
                    0e:1d:97:0b:7e:64:4c:72:2a:59:fb:03:39:0e:7e:
                    78:76:45:7a:5d:0f:6d:6f:8e:32:f8:8e:c4:ef:d0:
                    2f:02:ff:56:95:36:43:42:80:67:9b:01:3e:b0:e0:
                    e8:69:90:fc:0f:4a:08:88:fc:9d:62:d3:3d:91:01:
                    bb:44:6b:4f:68:7d:62:16:d9:8f:b6:34:23:11:58:
                    06:d0:b0:14:f7:3d:9f:82:c0:cb:cb:bc:84:e8:62:
                    b6:01:d3:20:ec:bc:c3:80:11:6e:75:98:f7:67:a4:
                    44:d5:1c:23:38:62:34:fd:a6:1c:a7:27:0a:9a:ad:
                    a6:c4:57
                Exponent: 65537 (0x10001)
        X509v3 extensions:
            X509v3 Basic Constraints: 
                CA:FALSE
            Netscape Comment: 
                Easy-RSA Generated Certificate
            X509v3 Subject Key Identifier: 
                9B:AE:D8:CD:94:24:12:DD:F6:02:7F:40:F8:2B:42:40:5F:C2:DB:62
            X509v3 Authority Key Identifier: 
                keyid:EF:38:8D:14:50:58:A7:5B:4D:9C:17:72:FC:DF:B9:AC:A7:51:B0:10
                DirName:/C=US/ST=CA/L=SanFrancisco/O=Pixglo, Inc./OU=VPN-CIE/CN=tunnel.pixglo.com/name=Bala Chandrasekaran/emailAddress=bala@pixglo.com
                serial:A6:DB:C6:83:80:E6:A0:79

            X509v3 Extended Key Usage: 
                TLS Web Client Authentication
            X509v3 Key Usage: 
                Digital Signature
    Signature Algorithm: sha1WithRSAEncryption
         e4:ae:57:82:0c:83:84:73:f5:b8:83:d7:25:77:39:dc:b0:45:
         53:fa:b8:15:90:a9:19:f8:2e:6a:d5:37:8a:93:5f:57:a8:4a:
         a3:d7:88:55:43:0f:b6:1d:64:d6:87:db:69:88:9a:34:3c:ab:
         23:2c:de:da:10:e8:d0:e1:d7:b0:97:41:5c:96:8e:67:53:b6:
         73:5e:06:cf:e5:da:09:5f:a5:57:72:01:1c:de:69:80:bf:14:
         d5:fd:0a:3d:27:38:7b:51:03:86:95:c7:7a:e4:3c:ad:ef:b0:
         87:5a:7f:93:78:4e:f1:47:49:37:b4:bc:22:d9:1a:2c:bb:c5:
         73:30:88:ae:16:1f:6b:9a:74:06:b5:63:7b:f7:47:02:34:1c:
         c6:21:1a:bd:55:55:4b:fe:10:dc:e3:0c:d2:b9:05:70:2f:ba:
         5f:b0:08:c3:ba:36:60:1e:21:15:75:c7:2b:11:59:fe:83:f0:
         a1:7f:b3:e3:fc:9d:a1:3f:90:5d:de:96:0a:0f:ec:2e:19:27:
         e2:4a:d6:79:69:cb:e1:b9:83:80:9e:e3:41:61:eb:7c:a1:5c:
         20:d2:c0:f1:81:0e:7f:e5:07:61:56:b7:1f:95:be:3c:2a:a7:
         51:a8:39:d7:b7:ed:73:85:f1:db:7d:ac:fe:60:7a:55:ad:fd:
         01:2c:58:3e:ba:92:a1:f5:fb:91:28:be:94:45:9f:18:1f:82:
         85:48:81:3f:8d:95:70:07:d2:9a:0d:73:ae:ac:9a:45:2c:ae:
         db:cd:b3:f3:2c:cd:12:cd:41:3c:ee:84:42:a0:d7:85:77:12:
         ee:ae:47:5f:89:48:46:a6:44:b3:43:a6:48:db:a2:dc:7f:ea:
         98:a6:60:29:73:4a:5a:ad:be:e0:b6:32:91:67:81:3e:75:c3:
         27:ff:72:53:4d:eb:7b:96:d0:d2:a3:52:ed:3f:14:f5:7b:77:
         29:ba:ee:eb:ea:b3:d4:b8:bc:25:d3:78:ee:ce:a7:d5:43:39:
         41:97:72:ad:e0:24:af:e7:0b:c2:90:79:e7:fe:d7:ee:44:41:
         b4:a5:19:7e:fe:8a:51:c4:1a:50:f3:b5:56:bf:a0:35:01:07:
         2f:70:32:4e:65:8f:c8:4b:e7:5b:55:ea:06:62:f7:a2:3c:e8:
         c6:08:6f:42:b6:16:94:2b:55:91:d7:e6:9f:9c:18:d6:fd:dd:
         37:0f:a3:d6:f8:2e:f0:de:1e:27:2d:2c:8a:89:b6:23:b3:9e:
         18:61:0b:ca:fe:a5:b5:b1:5c:e4:32:04:59:44:60:77:4a:d5:
         b4:82:56:9c:4d:f8:fb:fe:b8:1c:83:8d:41:93:e5:f1:de:97:
         aa:fa:5a:2b:1d:98:b2:b0
-----BEGIN CERTIFICATE-----
MIIHSDCCBTCgAwIBAgICAYowDQYJKoZIhvcNAQEFBQAwgbQxCzAJBgNVBAYTAlVT
MQswCQYDVQQIEwJDQTEVMBMGA1UEBxMMU2FuRnJhbmNpc2NvMRUwEwYDVQQKEwxQ
aXhnbG8sIEluYy4xEDAOBgNVBAsTB1ZQTi1DSUUxGjAYBgNVBAMTEXR1bm5lbC5w
aXhnbG8uY29tMRwwGgYDVQQpExNCYWxhIENoYW5kcmFzZWthcmFuMR4wHAYJKoZI
hvcNAQkBFg9iYWxhQHBpeGdsby5jb20wHhcNMTgwMjE0MDYzMjI0WhcNMjgwMjEy
MDYzMjI0WjCBqTELMAkGA1UEBhMCVVMxCzAJBgNVBAgTAkNBMRUwEwYDVQQHEwxT
YW5GcmFuY2lzY28xFTATBgNVBAoTDFBpeGdsbywgSW5jLjEQMA4GA1UECxMHVlBO
LUNJRTEPMA0GA1UEAxMGY2llMzkzMRwwGgYDVQQpExNCYWxhIENoYW5kcmFzZWth
cmFuMR4wHAYJKoZIhvcNAQkBFg9iYWxhQHBpeGdsby5jb20wggIiMA0GCSqGSIb3
DQEBAQUAA4ICDwAwggIKAoICAQDVw6mrKNWWrNmcD/CrK0Qg4IbBbHXRKqVoxl6p
TrS0IjXkniJPAdT00W+QW/NyvhHpjokIPXIt0pNP2EeVJf/AGmaxrizMRih6funQ
fjOSV3UlwOudWOikXAh7Hh0ABcPacAcyaWYVn/qL1kuutwbkuXC0SkebHj10mxOn
4yrdUha9r1Gi8Ly5tnBu0ruFZOqjgjDZyV3sWoUpLPcEBg4V+2GSUaRT0Ex669W8
BtMovPawgikM8Q00+b6s/SZhpDCYcNjEn5rcmir0q7ry0IdP4RmCq10gSn4I45++
pj8ypZOQ/fTQleDL4deEbGEuabZttUzGoqv7HVZkRHqups1yJ5VyiOEpBhItylBZ
ZqN535uT9glLbj7jaExnOaGmxcgEDW5X8c2jASBCIc1Lm4QMwF2NQt+mlJ+VP3lA
2DK+nqF7t03GMS8XGf0aOalfgnNkXqO80Fn0YvtNc7RiuKi2rawAvnNUc+0QzyIc
Eq9GqU3xtR6HJHCA51yddp1LIK0EyFWHsw4dlwt+ZExyKln7AzkOfnh2RXpdD21v
jjL4jsTv0C8C/1aVNkNCgGebAT6w4OhpkPwPSgiI/J1i0z2RAbtEa09ofWIW2Y+2
NCMRWAbQsBT3PZ+CwMvLvIToYrYB0yDsvMOAEW51mPdnpETVHCM4YjT9phynJwqa
rabEVwIDAQABo4IBazCCAWcwCQYDVR0TBAIwADAtBglghkgBhvhCAQ0EIBYeRWFz
eS1SU0EgR2VuZXJhdGVkIENlcnRpZmljYXRlMB0GA1UdDgQWBBSbrtjNlCQS3fYC
f0D4K0JAX8LbYjCB6QYDVR0jBIHhMIHegBTvOI0UUFinW02cF3L837msp1GwEKGB
uqSBtzCBtDELMAkGA1UEBhMCVVMxCzAJBgNVBAgTAkNBMRUwEwYDVQQHEwxTYW5G
cmFuY2lzY28xFTATBgNVBAoTDFBpeGdsbywgSW5jLjEQMA4GA1UECxMHVlBOLUNJ
RTEaMBgGA1UEAxMRdHVubmVsLnBpeGdsby5jb20xHDAaBgNVBCkTE0JhbGEgQ2hh
bmRyYXNla2FyYW4xHjAcBgkqhkiG9w0BCQEWD2JhbGFAcGl4Z2xvLmNvbYIJAKbb
xoOA5qB5MBMGA1UdJQQMMAoGCCsGAQUFBwMCMAsGA1UdDwQEAwIHgDANBgkqhkiG
9w0BAQUFAAOCAgEA5K5XggyDhHP1uIPXJXc53LBFU/q4FZCpGfguatU3ipNfV6hK
o9eIVUMPth1k1ofbaYiaNDyrIyze2hDo0OHXsJdBXJaOZ1O2c14Gz+XaCV+lV3IB
HN5pgL8U1f0KPSc4e1EDhpXHeuQ8re+wh1p/k3hO8UdJN7S8ItkaLLvFczCIrhYf
a5p0BrVje/dHAjQcxiEavVVVS/4Q3OMM0rkFcC+6X7AIw7o2YB4hFXXHKxFZ/oPw
oX+z4/ydoT+QXd6WCg/sLhkn4krWeWnL4bmDgJ7jQWHrfKFcINLA8YEOf+UHYVa3
H5W+PCqnUag517ftc4Xx232s/mB6Va39ASxYPrqSofX7kSi+lEWfGB+ChUiBP42V
cAfSmg1zrqyaRSyu282z8yzNEs1BPO6EQqDXhXcS7q5HX4lIRqZEs0OmSNui3H/q
mKZgKXNKWq2+4LYykWeBPnXDJ/9yU03re5bQ0qNS7T8U9Xt3Kbru6+qz1Li8JdN4
7s6n1UM5QZdyreAkr+cLwpB55/7X7kRBtKUZfv6KUcQaUPO1Vr+gNQEHL3AyTmWP
yEvnW1XqBmL3ojzoxghvQrYWlCtVkdfmn5wY1v3dNw+j1vgu8N4eJy0siom2I7Oe
GGELyv6ltbFc5DIEWURgd0rVtIJWnE34+/64HIONQZPl8d6XqvpaKx2YsrA=
-----END CERTIFICATE-----
