Certificate:
    Data:
        Version: 3 (0x2)
        Serial Number: 395 (0x18b)
    Signature Algorithm: sha1WithRSAEncryption
        Issuer: C=US, ST=CA, L=SanFrancisco, O=Pixglo, Inc., OU=VPN-CIE, CN=tunnel.pixglo.com/name=Bala Chandrasekaran/emailAddress=bala@pixglo.com
        Validity
            Not Before: Feb 14 06:32:28 2018 GMT
            Not After : Feb 12 06:32:28 2028 GMT
        Subject: C=US, ST=CA, L=SanFrancisco, O=Pixglo, Inc., OU=VPN-CIE, CN=cie394/name=Bala Chandrasekaran/emailAddress=bala@pixglo.com
        Subject Public Key Info:
            Public Key Algorithm: rsaEncryption
                Public-Key: (4096 bit)
                Modulus:
                    00:e7:6b:6f:1a:c7:37:ec:0b:be:51:bd:3a:4c:d9:
                    95:d3:f2:fa:5a:0c:02:cb:54:87:d5:31:80:3b:79:
                    df:0a:38:b4:05:5b:f2:50:41:c2:f0:ac:f6:65:d7:
                    99:4f:27:88:c6:fd:e2:43:d3:22:05:1b:34:3f:b1:
                    c9:f9:f8:2f:e0:b3:d6:f7:5f:28:b2:f6:94:7d:64:
                    b5:2d:2d:c3:cf:d6:41:bd:a1:d6:dd:75:3a:ad:d0:
                    30:9d:fb:57:54:eb:3e:a8:ce:5a:0e:8c:1c:af:57:
                    ab:2d:b0:b7:04:f2:18:ab:77:c0:d6:36:08:b1:d5:
                    f5:be:e7:ab:7a:7c:45:f2:6e:32:97:03:31:7d:17:
                    b1:fc:b1:be:38:f4:b8:b9:22:85:7c:6d:ae:27:5f:
                    37:fe:15:a3:79:25:8e:1a:1b:e1:87:3d:d2:2f:7d:
                    71:89:1f:74:28:58:41:14:0b:c1:66:74:1c:00:d1:
                    5c:51:50:82:b8:24:39:1b:68:a1:e7:ef:72:60:48:
                    3d:4f:14:b8:4c:b2:94:ea:00:07:ff:9b:4a:83:74:
                    e3:3d:a6:2e:17:7c:53:97:01:6e:e4:a8:1b:77:58:
                    3c:d8:24:cc:eb:d1:00:6e:b6:3c:65:49:60:4f:97:
                    95:eb:c0:cc:11:2c:22:33:7a:44:0b:9c:2d:02:6a:
                    e8:5a:ab:99:8a:b5:5b:a8:dd:c0:98:f8:9c:5f:5a:
                    f9:ed:57:be:5c:55:cd:c2:1d:1b:3e:ed:2a:ec:3b:
                    74:70:9e:ca:ba:03:42:22:5b:d5:47:54:22:88:1d:
                    03:e4:ec:d9:f2:2b:51:bd:14:c9:84:b2:b7:a9:0b:
                    35:fb:fe:07:1c:ab:86:41:b2:05:8e:52:d0:f3:48:
                    3e:25:a2:11:bf:de:48:da:21:b2:f8:d8:1e:8d:d4:
                    fa:81:23:8d:2c:87:f9:f0:30:84:08:3d:1a:68:26:
                    d5:64:16:fa:9e:8c:0f:22:2b:cc:70:42:00:29:b6:
                    f5:f0:fc:c0:bf:7b:9e:c8:07:19:54:16:0a:3c:ee:
                    60:b3:21:1b:c1:b3:0f:d0:4d:89:9a:58:d0:44:95:
                    84:ec:05:be:ff:cd:39:c8:e3:d3:69:99:12:e5:8a:
                    0d:97:08:f1:f6:f9:4d:6d:0d:37:75:36:53:9d:a0:
                    a1:86:b7:25:45:be:d1:7f:ee:4c:2a:17:0e:7b:0e:
                    2e:cd:24:76:9e:ed:48:4f:8b:bb:2a:96:5d:f8:36:
                    76:73:86:cd:63:22:48:5e:50:68:d4:98:20:c5:75:
                    7c:c5:c1:1f:b8:20:65:af:7e:c6:83:9c:99:a8:1a:
                    35:ca:94:85:36:e2:3d:f1:bd:60:09:a0:cd:b4:89:
                    d5:81:7d
                Exponent: 65537 (0x10001)
        X509v3 extensions:
            X509v3 Basic Constraints: 
                CA:FALSE
            Netscape Comment: 
                Easy-RSA Generated Certificate
            X509v3 Subject Key Identifier: 
                2C:55:DE:C8:B8:4B:2B:F8:95:B8:CD:0F:EE:63:9D:2C:7A:F6:F6:0E
            X509v3 Authority Key Identifier: 
                keyid:EF:38:8D:14:50:58:A7:5B:4D:9C:17:72:FC:DF:B9:AC:A7:51:B0:10
                DirName:/C=US/ST=CA/L=SanFrancisco/O=Pixglo, Inc./OU=VPN-CIE/CN=tunnel.pixglo.com/name=Bala Chandrasekaran/emailAddress=bala@pixglo.com
                serial:A6:DB:C6:83:80:E6:A0:79

            X509v3 Extended Key Usage: 
                TLS Web Client Authentication
            X509v3 Key Usage: 
                Digital Signature
    Signature Algorithm: sha1WithRSAEncryption
         3c:39:65:3e:77:9e:b4:26:11:a0:20:5e:12:6a:c3:48:70:7e:
         d6:b2:f1:3e:24:3d:50:31:b7:16:10:bc:0c:5f:17:4e:d7:3d:
         45:08:c5:b9:72:25:c6:4f:f3:a0:c8:c6:af:0b:b9:8d:10:90:
         c7:1e:f6:4e:56:bd:3a:f9:bd:4d:c6:a8:33:94:37:18:3f:54:
         43:09:cd:3c:e0:e8:87:d5:37:7a:86:fa:49:8c:6c:54:31:81:
         58:b4:fb:6d:bd:46:ab:8b:f0:e5:b4:39:92:76:fe:72:f9:f5:
         93:72:b9:f0:74:0c:eb:e5:89:8e:31:24:df:12:b0:0b:13:d1:
         f6:a5:79:41:57:71:17:fe:e6:3b:74:98:0e:8f:29:b3:3e:dc:
         71:40:13:a3:c8:d2:10:ee:b0:da:5d:58:30:2e:08:09:c4:97:
         a9:44:d7:d2:9a:ef:97:fb:04:00:85:25:1f:cd:ef:f3:70:d1:
         6d:83:1a:ec:bd:ed:de:79:d2:85:c6:3b:39:87:e7:f9:31:ac:
         1f:a9:1e:68:d0:b0:0c:b5:10:40:4a:56:70:e6:ac:1a:a0:88:
         59:85:df:3e:57:85:5c:9b:83:a0:fe:35:95:b6:0a:28:b0:3f:
         7c:53:10:86:e6:f1:d5:60:58:60:66:07:0d:62:5e:10:e3:fb:
         fd:35:9d:ec:a4:bd:fd:75:f6:de:50:e5:84:77:4c:b8:27:2d:
         0e:fc:b2:75:f8:0d:3c:e9:80:52:de:8a:04:ca:17:d8:4b:66:
         2c:17:85:46:da:7f:1f:d6:f8:c8:0f:10:ee:ca:d9:2b:7d:38:
         57:e6:fd:26:11:1c:21:79:af:a7:f1:bf:a6:51:da:07:87:3a:
         98:1b:f1:10:6c:1e:d9:c0:90:2c:10:c2:f4:d1:7b:2f:01:f8:
         9e:62:2c:cc:e8:fe:b0:42:02:31:94:9d:a7:df:f0:f1:79:c5:
         24:5d:5c:7d:49:11:be:7a:31:04:38:5a:e5:e3:2f:76:4b:5b:
         26:97:7f:35:7d:65:5b:ac:87:07:6a:d5:8c:7a:67:be:5d:81:
         66:ad:98:c9:e7:d5:bd:f5:28:a8:24:a2:00:a4:d1:1e:5f:ca:
         cb:89:6f:52:f0:fa:79:06:69:67:15:3e:3b:9b:e5:4d:c0:fd:
         a0:f9:c0:14:2a:a8:a2:7c:fe:c8:ee:eb:85:46:ad:ef:f2:79:
         72:ae:ef:91:1b:2f:76:17:c7:d3:91:96:31:d1:80:67:0d:13:
         ab:d7:49:1c:b6:d7:a0:75:96:49:71:79:38:da:00:b9:18:00:
         fb:30:53:92:04:0e:dc:78:6d:f0:d6:10:ee:c8:80:15:b3:cc:
         25:97:03:2b:f0:1d:44:17
-----BEGIN CERTIFICATE-----
MIIHSDCCBTCgAwIBAgICAYswDQYJKoZIhvcNAQEFBQAwgbQxCzAJBgNVBAYTAlVT
MQswCQYDVQQIEwJDQTEVMBMGA1UEBxMMU2FuRnJhbmNpc2NvMRUwEwYDVQQKEwxQ
aXhnbG8sIEluYy4xEDAOBgNVBAsTB1ZQTi1DSUUxGjAYBgNVBAMTEXR1bm5lbC5w
aXhnbG8uY29tMRwwGgYDVQQpExNCYWxhIENoYW5kcmFzZWthcmFuMR4wHAYJKoZI
hvcNAQkBFg9iYWxhQHBpeGdsby5jb20wHhcNMTgwMjE0MDYzMjI4WhcNMjgwMjEy
MDYzMjI4WjCBqTELMAkGA1UEBhMCVVMxCzAJBgNVBAgTAkNBMRUwEwYDVQQHEwxT
YW5GcmFuY2lzY28xFTATBgNVBAoTDFBpeGdsbywgSW5jLjEQMA4GA1UECxMHVlBO
LUNJRTEPMA0GA1UEAxMGY2llMzk0MRwwGgYDVQQpExNCYWxhIENoYW5kcmFzZWth
cmFuMR4wHAYJKoZIhvcNAQkBFg9iYWxhQHBpeGdsby5jb20wggIiMA0GCSqGSIb3
DQEBAQUAA4ICDwAwggIKAoICAQDna28axzfsC75RvTpM2ZXT8vpaDALLVIfVMYA7
ed8KOLQFW/JQQcLwrPZl15lPJ4jG/eJD0yIFGzQ/scn5+C/gs9b3Xyiy9pR9ZLUt
LcPP1kG9odbddTqt0DCd+1dU6z6ozloOjByvV6stsLcE8hird8DWNgix1fW+56t6
fEXybjKXAzF9F7H8sb449Li5IoV8ba4nXzf+FaN5JY4aG+GHPdIvfXGJH3QoWEEU
C8FmdBwA0VxRUIK4JDkbaKHn73JgSD1PFLhMspTqAAf/m0qDdOM9pi4XfFOXAW7k
qBt3WDzYJMzr0QButjxlSWBPl5XrwMwRLCIzekQLnC0Cauhaq5mKtVuo3cCY+Jxf
WvntV75cVc3CHRs+7SrsO3Rwnsq6A0IiW9VHVCKIHQPk7NnyK1G9FMmEsrepCzX7
/gccq4ZBsgWOUtDzSD4lohG/3kjaIbL42B6N1PqBI40sh/nwMIQIPRpoJtVkFvqe
jA8iK8xwQgAptvXw/MC/e57IBxlUFgo87mCzIRvBsw/QTYmaWNBElYTsBb7/zTnI
49NpmRLlig2XCPH2+U1tDTd1NlOdoKGGtyVFvtF/7kwqFw57Di7NJHae7UhPi7sq
ll34NnZzhs1jIkheUGjUmCDFdXzFwR+4IGWvfsaDnJmoGjXKlIU24j3xvWAJoM20
idWBfQIDAQABo4IBazCCAWcwCQYDVR0TBAIwADAtBglghkgBhvhCAQ0EIBYeRWFz
eS1SU0EgR2VuZXJhdGVkIENlcnRpZmljYXRlMB0GA1UdDgQWBBQsVd7IuEsr+JW4
zQ/uY50sevb2DjCB6QYDVR0jBIHhMIHegBTvOI0UUFinW02cF3L837msp1GwEKGB
uqSBtzCBtDELMAkGA1UEBhMCVVMxCzAJBgNVBAgTAkNBMRUwEwYDVQQHEwxTYW5G
cmFuY2lzY28xFTATBgNVBAoTDFBpeGdsbywgSW5jLjEQMA4GA1UECxMHVlBOLUNJ
RTEaMBgGA1UEAxMRdHVubmVsLnBpeGdsby5jb20xHDAaBgNVBCkTE0JhbGEgQ2hh
bmRyYXNla2FyYW4xHjAcBgkqhkiG9w0BCQEWD2JhbGFAcGl4Z2xvLmNvbYIJAKbb
xoOA5qB5MBMGA1UdJQQMMAoGCCsGAQUFBwMCMAsGA1UdDwQEAwIHgDANBgkqhkiG
9w0BAQUFAAOCAgEAPDllPneetCYRoCBeEmrDSHB+1rLxPiQ9UDG3FhC8DF8XTtc9
RQjFuXIlxk/zoMjGrwu5jRCQxx72Tla9Ovm9TcaoM5Q3GD9UQwnNPODoh9U3eob6
SYxsVDGBWLT7bb1Gq4vw5bQ5knb+cvn1k3K58HQM6+WJjjEk3xKwCxPR9qV5QVdx
F/7mO3SYDo8psz7ccUATo8jSEO6w2l1YMC4ICcSXqUTX0prvl/sEAIUlH83v83DR
bYMa7L3t3nnShcY7OYfn+TGsH6keaNCwDLUQQEpWcOasGqCIWYXfPleFXJuDoP41
lbYKKLA/fFMQhubx1WBYYGYHDWJeEOP7/TWd7KS9/XX23lDlhHdMuCctDvyydfgN
POmAUt6KBMoX2EtmLBeFRtp/H9b4yA8Q7srZK304V+b9JhEcIXmvp/G/plHaB4c6
mBvxEGwe2cCQLBDC9NF7LwH4nmIszOj+sEICMZSdp9/w8XnFJF1cfUkRvnoxBDha
5eMvdktbJpd/NX1lW6yHB2rVjHpnvl2BZq2YyefVvfUoqCSiAKTRHl/Ky4lvUvD6
eQZpZxU+O5vlTcD9oPnAFCqoonz+yO7rhUat7/J5cq7vkRsvdhfH05GWMdGAZw0T
q9dJHLbXoHWWSXF5ONoAuRgA+zBTkgQO3Hht8NYQ7siAFbPMJZcDK/AdRBc=
-----END CERTIFICATE-----
