Certificate:
    Data:
        Version: 3 (0x2)
        Serial Number: 397 (0x18d)
    Signature Algorithm: sha1WithRSAEncryption
        Issuer: C=US, ST=CA, L=SanFrancisco, O=Pixglo, Inc., OU=VPN-CIE, CN=tunnel.pixglo.com/name=Bala Chandrasekaran/emailAddress=bala@pixglo.com
        Validity
            Not Before: Feb 14 06:32:31 2018 GMT
            Not After : Feb 12 06:32:31 2028 GMT
        Subject: C=US, ST=CA, L=SanFrancisco, O=Pixglo, Inc., OU=VPN-CIE, CN=cie396/name=Bala Chandrasekaran/emailAddress=bala@pixglo.com
        Subject Public Key Info:
            Public Key Algorithm: rsaEncryption
                Public-Key: (4096 bit)
                Modulus:
                    00:ea:e1:9c:83:f3:5a:ab:c1:ac:d8:f3:2e:57:47:
                    de:0f:71:c6:e4:ad:c7:7e:7f:f6:2e:4e:a3:ec:cd:
                    61:04:29:6c:0a:9b:fd:52:46:9a:4f:ab:eb:a8:34:
                    62:3b:a4:8a:de:ae:58:72:20:e3:bf:fa:c3:e1:19:
                    20:0f:ee:44:96:65:93:0f:6a:06:1b:18:1f:71:e9:
                    c2:01:2b:99:8f:93:24:d5:69:14:1b:24:ee:87:77:
                    11:1b:9a:c0:74:57:2a:5d:c9:81:a2:98:53:c4:89:
                    96:9b:a6:4b:da:ca:83:49:59:23:a7:fe:8c:fc:d5:
                    60:ac:e4:04:ab:d0:18:44:a0:85:16:86:0e:bf:0f:
                    64:d2:10:11:c1:a1:1c:c8:af:3f:72:ea:1e:e6:f1:
                    da:51:4e:a3:1f:60:1a:67:10:f4:27:15:66:d5:18:
                    29:04:fa:ba:04:e4:b8:1d:74:cd:a4:1b:da:f8:1c:
                    68:45:b5:0f:3c:fe:8b:53:20:86:2c:e1:66:70:13:
                    34:55:ee:85:76:99:bc:16:8a:0d:e7:3f:ac:41:e4:
                    b4:c1:f1:9f:7f:df:90:4f:18:ef:8a:4a:ff:c9:70:
                    4c:90:a7:55:65:24:51:f5:a5:99:ec:ed:79:5f:a3:
                    7e:05:3f:6a:29:e7:99:a9:59:f6:b3:88:ca:12:62:
                    4b:df:05:53:ee:1c:78:ec:ad:64:4c:37:56:1e:48:
                    76:24:00:6f:23:c5:23:f8:1a:2f:34:94:54:24:61:
                    a2:51:10:cb:75:bb:ee:37:b4:19:92:62:39:65:4d:
                    b1:89:5a:58:e8:77:d4:05:06:79:19:4d:2f:1c:12:
                    c1:3f:99:34:81:1d:a7:da:14:d6:32:91:d6:86:5e:
                    5e:cc:18:06:41:75:3c:b6:a8:8e:8a:a1:be:fd:7b:
                    eb:a4:b1:ab:25:40:cd:2c:e0:6b:cf:e2:68:db:ee:
                    7c:67:68:8b:69:b1:7c:c9:2f:ae:f7:ec:31:1a:24:
                    a0:de:3e:15:70:27:02:e1:e1:68:93:eb:64:b7:b1:
                    79:94:38:d0:11:c2:af:f0:a9:ad:bc:2d:f8:3c:56:
                    f0:d3:cc:d5:b4:5c:b3:97:4f:ef:d8:01:df:d4:55:
                    ea:45:40:cf:49:58:23:b7:38:f2:85:ce:73:a4:78:
                    a9:31:df:88:7e:38:b9:4d:29:77:ed:62:ce:f6:7e:
                    f1:96:8a:3e:ed:e9:9f:87:9d:58:5f:99:a0:1a:31:
                    90:64:60:25:5f:0e:a5:16:b2:e8:0d:2b:3b:df:30:
                    b1:89:77:8b:26:a3:0b:0f:3a:b3:55:2f:0c:90:02:
                    49:a0:22:c2:c9:eb:87:9f:6a:cf:1c:6a:7b:82:4a:
                    73:ee:3d
                Exponent: 65537 (0x10001)
        X509v3 extensions:
            X509v3 Basic Constraints: 
                CA:FALSE
            Netscape Comment: 
                Easy-RSA Generated Certificate
            X509v3 Subject Key Identifier: 
                28:A9:B3:30:12:E3:75:F0:C2:65:1F:D2:3F:A9:86:85:CC:DD:40:8F
            X509v3 Authority Key Identifier: 
                keyid:EF:38:8D:14:50:58:A7:5B:4D:9C:17:72:FC:DF:B9:AC:A7:51:B0:10
                DirName:/C=US/ST=CA/L=SanFrancisco/O=Pixglo, Inc./OU=VPN-CIE/CN=tunnel.pixglo.com/name=Bala Chandrasekaran/emailAddress=bala@pixglo.com
                serial:A6:DB:C6:83:80:E6:A0:79

            X509v3 Extended Key Usage: 
                TLS Web Client Authentication
            X509v3 Key Usage: 
                Digital Signature
    Signature Algorithm: sha1WithRSAEncryption
         74:b6:ee:8e:7a:26:5c:ed:4a:89:42:53:7c:0a:6f:53:35:06:
         be:b5:c8:d6:3f:42:91:10:c5:78:34:c5:61:b0:27:5d:66:f1:
         4c:dc:d3:22:a6:3f:1c:80:81:40:49:23:c4:08:6f:ad:73:af:
         3d:7e:52:bd:b7:34:cf:39:b2:43:b2:a3:d9:ec:ea:ad:ef:c3:
         e3:17:48:ef:6c:f7:fa:94:6f:17:51:aa:cd:7d:42:5d:41:4b:
         23:44:c2:db:cc:f2:31:2b:60:d5:86:37:c2:92:10:3d:a9:2c:
         e2:d5:9d:67:70:a5:6e:7d:58:4e:39:55:9c:aa:3a:73:8d:26:
         8f:bb:f7:ea:32:56:4e:d6:dd:4f:1a:ba:9e:ba:32:b1:05:e2:
         95:09:3f:87:ee:df:5e:c7:52:4f:41:8f:22:22:90:24:8a:d2:
         c0:9e:0b:e3:ae:d3:6c:a8:d1:d7:82:d8:53:ec:e3:8b:c5:e2:
         51:92:78:db:c2:8d:de:5b:6c:3c:2c:c1:88:49:d7:34:94:bf:
         5f:da:6c:7b:6e:cf:21:97:6c:18:cb:80:b1:aa:1f:23:0b:f6:
         08:11:fb:b1:71:5f:d9:f5:87:21:f7:35:8f:21:91:c3:09:80:
         c7:4d:9a:9a:0d:34:e1:a1:44:df:0b:96:4d:eb:93:20:ab:59:
         e6:2b:7c:4f:2b:ec:37:69:2c:80:67:76:23:76:b2:22:0e:4f:
         1d:8a:14:ce:43:bd:90:60:4f:76:ba:97:79:66:ed:7b:27:f6:
         cc:19:5a:05:28:b2:07:fc:b9:97:84:ef:9c:93:26:ad:d5:2b:
         d3:5d:e5:73:c1:f5:3d:4f:5e:b0:c8:ba:4f:af:72:ea:20:40:
         59:4b:89:73:c8:53:16:12:fc:ae:5d:25:6e:5e:e5:78:4d:0a:
         36:af:32:cf:86:0e:15:a7:6e:39:30:95:be:0c:9a:20:d5:ca:
         c5:38:64:f0:ed:48:b7:e5:5a:79:dd:0a:95:35:50:5a:c5:42:
         d1:cf:d1:48:ce:22:fd:e6:b2:48:66:46:ba:0a:3a:5b:7b:16:
         da:a3:f4:58:49:18:e0:86:21:09:99:f4:f1:46:3a:5a:b9:41:
         93:2a:54:6f:52:5c:b0:eb:be:44:3a:71:ec:1f:f7:a6:6e:04:
         53:3a:03:67:e4:aa:8e:e6:1c:7e:40:12:f3:0d:a9:30:27:1d:
         0a:95:09:89:63:11:25:8d:dc:b2:89:b8:5e:31:19:35:ef:0d:
         07:88:52:6d:6a:8a:1f:a2:ed:72:ff:86:16:ef:23:77:fd:d0:
         6e:39:1a:88:4b:61:3b:14:6a:71:4f:ba:3e:1d:26:87:f6:da:
         d2:5f:0a:f0:34:b3:f3:fe
-----BEGIN CERTIFICATE-----
MIIHSDCCBTCgAwIBAgICAY0wDQYJKoZIhvcNAQEFBQAwgbQxCzAJBgNVBAYTAlVT
MQswCQYDVQQIEwJDQTEVMBMGA1UEBxMMU2FuRnJhbmNpc2NvMRUwEwYDVQQKEwxQ
aXhnbG8sIEluYy4xEDAOBgNVBAsTB1ZQTi1DSUUxGjAYBgNVBAMTEXR1bm5lbC5w
aXhnbG8uY29tMRwwGgYDVQQpExNCYWxhIENoYW5kcmFzZWthcmFuMR4wHAYJKoZI
hvcNAQkBFg9iYWxhQHBpeGdsby5jb20wHhcNMTgwMjE0MDYzMjMxWhcNMjgwMjEy
MDYzMjMxWjCBqTELMAkGA1UEBhMCVVMxCzAJBgNVBAgTAkNBMRUwEwYDVQQHEwxT
YW5GcmFuY2lzY28xFTATBgNVBAoTDFBpeGdsbywgSW5jLjEQMA4GA1UECxMHVlBO
LUNJRTEPMA0GA1UEAxMGY2llMzk2MRwwGgYDVQQpExNCYWxhIENoYW5kcmFzZWth
cmFuMR4wHAYJKoZIhvcNAQkBFg9iYWxhQHBpeGdsby5jb20wggIiMA0GCSqGSIb3
DQEBAQUAA4ICDwAwggIKAoICAQDq4ZyD81qrwazY8y5XR94Pccbkrcd+f/YuTqPs
zWEEKWwKm/1SRppPq+uoNGI7pIrerlhyIOO/+sPhGSAP7kSWZZMPagYbGB9x6cIB
K5mPkyTVaRQbJO6HdxEbmsB0VypdyYGimFPEiZabpkvayoNJWSOn/oz81WCs5ASr
0BhEoIUWhg6/D2TSEBHBoRzIrz9y6h7m8dpRTqMfYBpnEPQnFWbVGCkE+roE5Lgd
dM2kG9r4HGhFtQ88/otTIIYs4WZwEzRV7oV2mbwWig3nP6xB5LTB8Z9/35BPGO+K
Sv/JcEyQp1VlJFH1pZns7Xlfo34FP2op55mpWfaziMoSYkvfBVPuHHjsrWRMN1Ye
SHYkAG8jxSP4Gi80lFQkYaJREMt1u+43tBmSYjllTbGJWljod9QFBnkZTS8cEsE/
mTSBHafaFNYykdaGXl7MGAZBdTy2qI6Kob79e+uksaslQM0s4GvP4mjb7nxnaItp
sXzJL6737DEaJKDePhVwJwLh4WiT62S3sXmUONARwq/wqa28Lfg8VvDTzNW0XLOX
T+/YAd/UVepFQM9JWCO3OPKFznOkeKkx34h+OLlNKXftYs72fvGWij7t6Z+HnVhf
maAaMZBkYCVfDqUWsugNKzvfMLGJd4smowsPOrNVLwyQAkmgIsLJ64efas8canuC
SnPuPQIDAQABo4IBazCCAWcwCQYDVR0TBAIwADAtBglghkgBhvhCAQ0EIBYeRWFz
eS1SU0EgR2VuZXJhdGVkIENlcnRpZmljYXRlMB0GA1UdDgQWBBQoqbMwEuN18MJl
H9I/qYaFzN1AjzCB6QYDVR0jBIHhMIHegBTvOI0UUFinW02cF3L837msp1GwEKGB
uqSBtzCBtDELMAkGA1UEBhMCVVMxCzAJBgNVBAgTAkNBMRUwEwYDVQQHEwxTYW5G
cmFuY2lzY28xFTATBgNVBAoTDFBpeGdsbywgSW5jLjEQMA4GA1UECxMHVlBOLUNJ
RTEaMBgGA1UEAxMRdHVubmVsLnBpeGdsby5jb20xHDAaBgNVBCkTE0JhbGEgQ2hh
bmRyYXNla2FyYW4xHjAcBgkqhkiG9w0BCQEWD2JhbGFAcGl4Z2xvLmNvbYIJAKbb
xoOA5qB5MBMGA1UdJQQMMAoGCCsGAQUFBwMCMAsGA1UdDwQEAwIHgDANBgkqhkiG
9w0BAQUFAAOCAgEAdLbujnomXO1KiUJTfApvUzUGvrXI1j9CkRDFeDTFYbAnXWbx
TNzTIqY/HICBQEkjxAhvrXOvPX5Svbc0zzmyQ7Kj2ezqre/D4xdI72z3+pRvF1Gq
zX1CXUFLI0TC28zyMStg1YY3wpIQPaks4tWdZ3Clbn1YTjlVnKo6c40mj7v36jJW
TtbdTxq6nroysQXilQk/h+7fXsdST0GPIiKQJIrSwJ4L467TbKjR14LYU+zji8Xi
UZJ428KN3ltsPCzBiEnXNJS/X9pse27PIZdsGMuAsaofIwv2CBH7sXFf2fWHIfc1
jyGRwwmAx02amg004aFE3wuWTeuTIKtZ5it8TyvsN2ksgGd2I3ayIg5PHYoUzkO9
kGBPdrqXeWbteyf2zBlaBSiyB/y5l4TvnJMmrdUr013lc8H1PU9esMi6T69y6iBA
WUuJc8hTFhL8rl0lbl7leE0KNq8yz4YOFaduOTCVvgyaINXKxThk8O1It+Vaed0K
lTVQWsVC0c/RSM4i/eaySGZGugo6W3sW2qP0WEkY4IYhCZn08UY6WrlBkypUb1Jc
sOu+RDpx7B/3pm4EUzoDZ+SqjuYcfkAS8w2pMCcdCpUJiWMRJY3csom4XjEZNe8N
B4hSbWqKH6Ltcv+GFu8jd/3QbjkaiEthOxRqcU+6Ph0mh/ba0l8K8DSz8/4=
-----END CERTIFICATE-----
