Certificate:
    Data:
        Version: 3 (0x2)
        Serial Number: 398 (0x18e)
    Signature Algorithm: sha1WithRSAEncryption
        Issuer: C=US, ST=CA, L=SanFrancisco, O=Pixglo, Inc., OU=VPN-CIE, CN=tunnel.pixglo.com/name=Bala Chandrasekaran/emailAddress=bala@pixglo.com
        Validity
            Not Before: Feb 14 06:32:35 2018 GMT
            Not After : Feb 12 06:32:35 2028 GMT
        Subject: C=US, ST=CA, L=SanFrancisco, O=Pixglo, Inc., OU=VPN-CIE, CN=cie397/name=Bala Chandrasekaran/emailAddress=bala@pixglo.com
        Subject Public Key Info:
            Public Key Algorithm: rsaEncryption
                Public-Key: (4096 bit)
                Modulus:
                    00:a4:2e:c9:5b:10:89:a2:10:04:54:a2:3d:fa:56:
                    b4:7c:bd:a9:b7:fe:fe:2f:d4:dc:fd:f1:31:6d:0d:
                    10:fe:8a:0d:05:f3:e6:df:cb:bf:e4:f0:05:bf:60:
                    ad:fa:02:a4:18:2e:d1:51:f8:9f:2d:b2:ec:f4:aa:
                    99:1d:a0:bb:05:c3:fe:86:45:a5:33:30:c4:fd:d7:
                    c3:9c:e5:85:76:b7:62:b0:fb:8a:6b:59:5f:c3:f5:
                    bc:d4:bb:cf:f6:86:a2:57:f0:b1:04:8a:aa:97:7a:
                    b8:7f:3b:92:3e:2e:6f:c7:40:7b:da:50:0b:e8:6b:
                    22:07:5c:e2:f9:94:00:49:4f:b1:91:b7:73:6c:1c:
                    42:a4:d8:a5:53:e9:c5:0b:f5:40:31:3d:ad:7b:ea:
                    0a:11:4c:4b:37:b5:d4:5d:23:bf:b1:b5:90:8f:4e:
                    c1:e3:ce:b8:28:da:e1:2b:b3:6f:7d:11:87:b9:05:
                    f2:0b:41:3e:49:68:78:1b:da:de:e5:08:1a:c0:a6:
                    0f:d7:46:31:20:e5:3e:53:0a:9c:63:18:99:8c:cc:
                    97:8b:6d:4e:e8:ff:ee:7b:50:b6:c3:f8:46:b6:8c:
                    80:1e:ed:3a:67:b5:14:5b:63:85:da:13:19:ad:e4:
                    bb:24:33:8b:35:25:2c:53:25:df:34:fa:7f:6b:fc:
                    2e:65:24:b8:e2:8f:c5:1c:54:ff:28:9f:b4:01:16:
                    48:24:cd:8d:8d:32:b3:d7:2c:fa:f9:56:46:c1:77:
                    7f:f7:21:3c:e4:17:5a:fa:0e:0b:ac:9b:12:9c:88:
                    1c:da:16:24:3d:d8:eb:10:d6:a5:6f:04:78:83:c5:
                    f4:a8:b5:27:e6:db:d1:17:b5:83:9b:ca:c0:04:bc:
                    4b:71:6f:2f:6c:c1:bb:98:ce:7e:5e:18:31:b2:d0:
                    ad:c3:d8:8c:83:b3:aa:f6:9f:e1:d8:e5:bc:92:cc:
                    fa:fb:74:3a:d2:e1:44:9e:bb:37:5a:ba:8b:56:19:
                    c0:d8:6b:e4:09:e0:cc:ec:e7:e5:a9:2c:26:78:db:
                    36:95:11:86:e5:16:51:06:42:15:f9:0a:0c:35:3d:
                    53:52:1c:77:6a:57:98:68:27:c7:f6:b7:a9:85:45:
                    00:42:7c:ae:4a:3d:3a:3c:30:88:85:69:d4:3e:08:
                    ad:3b:76:3b:54:72:fb:8b:a3:14:93:cf:1a:4a:a7:
                    1c:0b:e5:c9:2c:a9:39:70:ae:f9:56:40:a6:18:f1:
                    a6:29:ec:65:b8:07:bf:81:25:a6:03:85:37:9d:fb:
                    79:96:ad:9e:17:40:17:f3:59:f8:96:1c:52:80:c4:
                    10:0f:dd:93:04:49:fc:7b:e1:f5:60:3a:58:e8:2d:
                    5c:1a:f7
                Exponent: 65537 (0x10001)
        X509v3 extensions:
            X509v3 Basic Constraints: 
                CA:FALSE
            Netscape Comment: 
                Easy-RSA Generated Certificate
            X509v3 Subject Key Identifier: 
                A0:9D:D6:7E:7C:61:80:DD:67:8E:6B:0D:CD:5A:67:26:7A:44:3A:B5
            X509v3 Authority Key Identifier: 
                keyid:EF:38:8D:14:50:58:A7:5B:4D:9C:17:72:FC:DF:B9:AC:A7:51:B0:10
                DirName:/C=US/ST=CA/L=SanFrancisco/O=Pixglo, Inc./OU=VPN-CIE/CN=tunnel.pixglo.com/name=Bala Chandrasekaran/emailAddress=bala@pixglo.com
                serial:A6:DB:C6:83:80:E6:A0:79

            X509v3 Extended Key Usage: 
                TLS Web Client Authentication
            X509v3 Key Usage: 
                Digital Signature
    Signature Algorithm: sha1WithRSAEncryption
         42:1e:32:fc:2d:f9:d1:80:af:55:d1:bd:eb:33:cc:46:92:2f:
         9c:bb:37:fb:2e:0f:ce:d5:e6:8e:a1:ba:a6:4f:73:0d:0a:f9:
         de:11:0e:da:2e:74:51:d9:37:b4:84:55:fa:d0:c1:26:95:63:
         67:fb:dd:93:51:50:3d:6c:1b:d6:cc:a1:87:c0:61:76:c1:4c:
         47:46:ff:de:6b:a5:8f:fd:65:95:01:9a:c8:32:e2:69:64:b5:
         4a:4c:b8:fa:89:a1:62:6d:81:04:35:85:6c:d0:1a:bf:05:f4:
         14:71:0e:be:7c:43:26:de:e1:ae:ab:e7:4b:da:ac:b6:df:59:
         d5:41:98:72:e6:9d:10:55:34:b3:f2:4d:d8:1d:92:8f:2e:3c:
         b3:7b:b8:88:01:54:cf:73:1d:c7:84:72:98:93:51:e0:6f:68:
         69:e3:96:76:a9:56:17:ac:4c:49:4c:dd:b7:0e:49:75:04:f6:
         3a:37:c9:3d:23:03:a8:de:ba:59:35:1a:92:50:12:ff:7c:08:
         ff:db:82:4f:eb:97:41:15:23:38:4c:46:c8:77:46:07:55:5a:
         68:90:e0:cb:a7:b0:ad:23:00:66:d4:e7:e0:37:26:09:01:bf:
         4e:f6:76:3e:66:91:e1:80:fe:4b:fb:c0:e5:cc:b1:63:91:43:
         52:7c:cf:cf:f4:40:2a:e3:64:f7:bb:97:86:95:84:e6:49:3a:
         ff:05:d8:88:6e:01:3b:66:6d:f8:c1:48:62:f0:76:a7:30:99:
         3c:bd:72:d3:2f:c1:cd:85:e5:be:70:a1:09:a6:5d:54:68:63:
         07:ca:bb:3c:9c:26:9e:37:59:62:6d:c9:6d:65:fe:b6:16:79:
         46:30:2e:f8:0c:f2:a4:26:eb:22:98:79:0b:5a:09:12:11:14:
         83:71:b8:b7:2b:2e:23:f4:93:05:69:42:d4:1f:5f:3c:fb:b6:
         81:ce:f6:11:1c:aa:33:dc:a9:99:0f:65:9c:6a:b9:83:64:f0:
         67:d2:40:3b:bf:5d:d7:32:64:4d:cf:97:d9:3f:aa:f6:3c:13:
         86:b4:1c:2c:8e:2b:0e:fa:d3:bd:6b:f0:83:3c:21:4c:54:3c:
         a3:37:15:98:41:31:74:c2:63:3a:35:5c:89:1e:55:d4:b3:ce:
         92:56:3b:5f:57:12:88:14:f5:a3:ec:fe:49:a6:b5:cb:24:61:
         89:10:3d:45:b4:24:f7:c8:28:a5:ea:f3:e0:bc:62:83:9f:c4:
         25:1a:43:12:cb:69:4a:34:7b:df:d5:6d:04:10:03:bf:42:4a:
         fc:7e:b6:47:d4:e2:c6:31:7d:85:f6:d1:f1:63:f9:56:0d:8f:
         bf:a8:8e:8c:11:e0:15:39
-----BEGIN CERTIFICATE-----
MIIHSDCCBTCgAwIBAgICAY4wDQYJKoZIhvcNAQEFBQAwgbQxCzAJBgNVBAYTAlVT
MQswCQYDVQQIEwJDQTEVMBMGA1UEBxMMU2FuRnJhbmNpc2NvMRUwEwYDVQQKEwxQ
aXhnbG8sIEluYy4xEDAOBgNVBAsTB1ZQTi1DSUUxGjAYBgNVBAMTEXR1bm5lbC5w
aXhnbG8uY29tMRwwGgYDVQQpExNCYWxhIENoYW5kcmFzZWthcmFuMR4wHAYJKoZI
hvcNAQkBFg9iYWxhQHBpeGdsby5jb20wHhcNMTgwMjE0MDYzMjM1WhcNMjgwMjEy
MDYzMjM1WjCBqTELMAkGA1UEBhMCVVMxCzAJBgNVBAgTAkNBMRUwEwYDVQQHEwxT
YW5GcmFuY2lzY28xFTATBgNVBAoTDFBpeGdsbywgSW5jLjEQMA4GA1UECxMHVlBO
LUNJRTEPMA0GA1UEAxMGY2llMzk3MRwwGgYDVQQpExNCYWxhIENoYW5kcmFzZWth
cmFuMR4wHAYJKoZIhvcNAQkBFg9iYWxhQHBpeGdsby5jb20wggIiMA0GCSqGSIb3
DQEBAQUAA4ICDwAwggIKAoICAQCkLslbEImiEARUoj36VrR8vam3/v4v1Nz98TFt
DRD+ig0F8+bfy7/k8AW/YK36AqQYLtFR+J8tsuz0qpkdoLsFw/6GRaUzMMT918Oc
5YV2t2Kw+4prWV/D9bzUu8/2hqJX8LEEiqqXerh/O5I+Lm/HQHvaUAvoayIHXOL5
lABJT7GRt3NsHEKk2KVT6cUL9UAxPa176goRTEs3tdRdI7+xtZCPTsHjzrgo2uEr
s299EYe5BfILQT5JaHgb2t7lCBrApg/XRjEg5T5TCpxjGJmMzJeLbU7o/+57ULbD
+Ea2jIAe7TpntRRbY4XaExmt5LskM4s1JSxTJd80+n9r/C5lJLjij8UcVP8on7QB
FkgkzY2NMrPXLPr5VkbBd3/3ITzkF1r6DgusmxKciBzaFiQ92OsQ1qVvBHiDxfSo
tSfm29EXtYObysAEvEtxby9swbuYzn5eGDGy0K3D2IyDs6r2n+HY5bySzPr7dDrS
4USeuzdauotWGcDYa+QJ4Mzs5+WpLCZ42zaVEYblFlEGQhX5Cgw1PVNSHHdqV5ho
J8f2t6mFRQBCfK5KPTo8MIiFadQ+CK07djtUcvuLoxSTzxpKpxwL5cksqTlwrvlW
QKYY8aYp7GW4B7+BJaYDhTed+3mWrZ4XQBfzWfiWHFKAxBAP3ZMESfx74fVgOljo
LVwa9wIDAQABo4IBazCCAWcwCQYDVR0TBAIwADAtBglghkgBhvhCAQ0EIBYeRWFz
eS1SU0EgR2VuZXJhdGVkIENlcnRpZmljYXRlMB0GA1UdDgQWBBSgndZ+fGGA3WeO
aw3NWmcmekQ6tTCB6QYDVR0jBIHhMIHegBTvOI0UUFinW02cF3L837msp1GwEKGB
uqSBtzCBtDELMAkGA1UEBhMCVVMxCzAJBgNVBAgTAkNBMRUwEwYDVQQHEwxTYW5G
cmFuY2lzY28xFTATBgNVBAoTDFBpeGdsbywgSW5jLjEQMA4GA1UECxMHVlBOLUNJ
RTEaMBgGA1UEAxMRdHVubmVsLnBpeGdsby5jb20xHDAaBgNVBCkTE0JhbGEgQ2hh
bmRyYXNla2FyYW4xHjAcBgkqhkiG9w0BCQEWD2JhbGFAcGl4Z2xvLmNvbYIJAKbb
xoOA5qB5MBMGA1UdJQQMMAoGCCsGAQUFBwMCMAsGA1UdDwQEAwIHgDANBgkqhkiG
9w0BAQUFAAOCAgEAQh4y/C350YCvVdG96zPMRpIvnLs3+y4PztXmjqG6pk9zDQr5
3hEO2i50Udk3tIRV+tDBJpVjZ/vdk1FQPWwb1syhh8BhdsFMR0b/3mulj/1llQGa
yDLiaWS1Sky4+omhYm2BBDWFbNAavwX0FHEOvnxDJt7hrqvnS9qstt9Z1UGYcuad
EFU0s/JN2B2Sjy48s3u4iAFUz3Mdx4RymJNR4G9oaeOWdqlWF6xMSUzdtw5JdQT2
OjfJPSMDqN66WTUaklAS/3wI/9uCT+uXQRUjOExGyHdGB1VaaJDgy6ewrSMAZtTn
4DcmCQG/TvZ2PmaR4YD+S/vA5cyxY5FDUnzPz/RAKuNk97uXhpWE5kk6/wXYiG4B
O2Zt+MFIYvB2pzCZPL1y0y/BzYXlvnChCaZdVGhjB8q7PJwmnjdZYm3JbWX+thZ5
RjAu+AzypCbrIph5C1oJEhEUg3G4tysuI/STBWlC1B9fPPu2gc72ERyqM9ypmQ9l
nGq5g2TwZ9JAO79d1zJkTc+X2T+q9jwThrQcLI4rDvrTvWvwgzwhTFQ8ozcVmEEx
dMJjOjVciR5V1LPOklY7X1cSiBT1o+z+Saa1yyRhiRA9RbQk98goperz4Lxig5/E
JRpDEstpSjR739VtBBADv0JK/H62R9TixjF9hfbR8WP5Vg2Pv6iOjBHgFTk=
-----END CERTIFICATE-----
