Certificate:
    Data:
        Version: 3 (0x2)
        Serial Number: 399 (0x18f)
    Signature Algorithm: sha1WithRSAEncryption
        Issuer: C=US, ST=CA, L=SanFrancisco, O=Pixglo, Inc., OU=VPN-CIE, CN=tunnel.pixglo.com/name=Bala Chandrasekaran/emailAddress=bala@pixglo.com
        Validity
            Not Before: Feb 14 06:32:37 2018 GMT
            Not After : Feb 12 06:32:37 2028 GMT
        Subject: C=US, ST=CA, L=SanFrancisco, O=Pixglo, Inc., OU=VPN-CIE, CN=cie398/name=Bala Chandrasekaran/emailAddress=bala@pixglo.com
        Subject Public Key Info:
            Public Key Algorithm: rsaEncryption
                Public-Key: (4096 bit)
                Modulus:
                    00:d9:3d:b3:36:12:f4:d1:b0:9e:2e:6b:fe:6c:84:
                    a9:47:35:30:25:70:da:96:31:fe:8f:39:63:9b:5b:
                    e6:46:1e:de:fc:b1:e6:58:ec:8d:cc:9d:3b:9a:0a:
                    eb:40:67:54:75:b8:4c:d7:99:e5:ac:95:25:83:5f:
                    e8:32:51:4a:b2:ba:74:65:f1:a3:4b:8a:ac:13:d2:
                    6e:c5:22:30:d9:5c:36:b6:d0:70:6d:50:a7:f3:45:
                    0e:c9:00:0a:3b:fa:7a:01:84:20:e7:c4:01:32:7b:
                    ae:58:5c:a9:4b:c4:aa:32:9e:ce:71:bd:08:45:59:
                    2b:51:54:24:16:26:34:6f:fe:fb:b8:96:68:29:d5:
                    a0:02:47:08:62:b8:74:be:02:5c:29:c1:c8:25:3c:
                    92:bb:2e:eb:da:58:80:6a:2d:cf:b4:07:e4:35:19:
                    8d:ae:61:d9:3c:58:c4:c2:5a:f4:7a:75:80:b2:14:
                    4b:e8:16:81:8f:38:fd:53:3c:1b:72:d9:37:c6:5f:
                    d6:40:1a:d3:76:63:34:76:96:7e:f4:3e:95:b8:49:
                    f1:65:07:be:f1:54:b3:d5:fb:b7:89:bf:a7:0c:fa:
                    a5:79:6b:d0:09:fa:da:d1:23:77:4b:4d:4b:8b:51:
                    94:aa:b3:07:8e:c1:83:4f:03:0f:58:fb:7b:28:2d:
                    f1:0d:5a:89:77:24:de:d2:90:49:d4:81:79:5e:cc:
                    fd:5c:2a:c9:9f:57:b4:d2:9a:df:cd:8a:d0:10:be:
                    6e:6d:4e:fc:11:49:0b:5a:81:2f:17:91:f8:8d:4d:
                    a0:26:bf:a0:a4:b0:8d:65:6c:f4:c1:09:0b:6f:50:
                    35:87:22:de:06:35:cb:37:70:70:fa:8e:8c:af:29:
                    95:5a:14:86:1b:05:eb:9e:94:a8:d1:48:c6:50:69:
                    6a:21:c0:13:53:2b:45:05:ff:0a:ca:9a:8c:6d:1d:
                    8d:f4:b4:08:3b:9f:5d:4c:82:60:6f:85:b4:2d:f8:
                    ce:1e:5c:2a:7b:61:5d:13:ab:51:b5:c0:dc:3b:77:
                    9d:17:82:74:33:d1:e2:41:f7:1f:b5:e7:75:20:57:
                    33:a3:cb:c7:0c:04:bd:99:b8:ce:70:a1:11:28:6b:
                    2b:b3:60:29:85:31:18:b0:6c:f0:21:9d:de:ea:10:
                    12:5b:13:0a:32:17:ce:a6:0d:1a:56:56:e7:56:43:
                    56:80:77:f6:b6:54:b7:63:ab:99:76:9a:80:a4:2c:
                    f2:8b:8b:53:e7:8e:83:bf:47:7f:5f:bc:a2:50:4b:
                    84:88:ff:9c:6d:67:e9:1a:a0:94:90:16:f6:65:c8:
                    82:22:4f:7b:17:93:0d:54:0e:ed:21:2c:05:f0:89:
                    c3:e7:65
                Exponent: 65537 (0x10001)
        X509v3 extensions:
            X509v3 Basic Constraints: 
                CA:FALSE
            Netscape Comment: 
                Easy-RSA Generated Certificate
            X509v3 Subject Key Identifier: 
                FC:B1:63:9E:1F:3F:D9:D5:17:A2:FA:FB:D6:DB:41:65:BB:75:96:48
            X509v3 Authority Key Identifier: 
                keyid:EF:38:8D:14:50:58:A7:5B:4D:9C:17:72:FC:DF:B9:AC:A7:51:B0:10
                DirName:/C=US/ST=CA/L=SanFrancisco/O=Pixglo, Inc./OU=VPN-CIE/CN=tunnel.pixglo.com/name=Bala Chandrasekaran/emailAddress=bala@pixglo.com
                serial:A6:DB:C6:83:80:E6:A0:79

            X509v3 Extended Key Usage: 
                TLS Web Client Authentication
            X509v3 Key Usage: 
                Digital Signature
    Signature Algorithm: sha1WithRSAEncryption
         cc:a4:b2:f6:47:6f:fb:88:9a:a9:46:e2:54:49:93:eb:41:5e:
         02:9b:f7:ce:5f:a0:d5:73:6b:26:fc:0e:22:4a:8a:3c:ee:4e:
         d8:05:c1:1f:f1:61:dd:79:10:70:ef:a5:63:fd:82:54:28:37:
         94:b2:eb:e6:af:b5:94:96:e6:90:67:69:d2:04:8f:5f:28:31:
         35:cf:b1:93:78:22:30:3d:f2:eb:2c:52:84:99:e3:d5:8f:33:
         5b:c2:e0:cc:04:4f:af:f2:71:24:c4:85:82:08:8b:50:d8:85:
         46:b9:98:23:6b:01:e3:cc:73:73:47:33:b7:c4:d3:c0:ea:ba:
         8e:63:78:c5:63:ed:9e:f3:30:52:2e:d9:73:97:d8:6b:83:db:
         6b:8a:df:65:c9:37:32:f4:87:a8:0b:3b:34:7e:e0:da:22:e3:
         f4:6d:8e:f3:c8:24:91:6b:e8:be:7d:2b:d9:18:e0:c1:22:4c:
         bc:49:5e:bb:6f:31:2c:70:30:61:4f:ec:fd:6b:92:7a:56:06:
         ec:de:91:fa:16:62:36:4f:e5:cc:51:d4:46:34:5a:8a:89:ff:
         dd:f7:cf:fb:a3:90:30:9b:c2:c6:d3:b8:89:0f:83:21:a0:8e:
         5b:ae:da:f3:9e:b9:0c:59:d3:6c:b3:0e:4f:9e:7a:61:b0:9a:
         ba:0a:5d:43:c9:f7:4b:92:61:c4:6a:41:12:7b:c5:a7:44:3a:
         d6:9b:2b:f1:ba:99:f6:13:8a:ce:e4:99:4f:d1:c4:d9:26:1f:
         7f:1c:ac:31:60:be:e7:45:fa:7a:95:73:dc:39:9a:9f:ca:e6:
         96:9f:b2:69:bd:84:85:ee:2c:19:45:a5:ca:90:22:cc:ab:08:
         4f:db:7a:f8:40:e0:a4:c0:6f:e6:02:1a:86:dc:86:d5:03:e2:
         61:2d:30:68:13:12:cd:94:b1:9b:0b:b7:59:dc:0f:a5:90:25:
         2a:70:c2:2b:cc:da:fe:b8:a4:27:58:5e:ca:3a:d6:13:60:38:
         cb:ab:39:a1:02:10:90:64:2c:f6:9c:78:b5:4b:36:79:8e:8c:
         18:b1:30:c8:d6:1e:4b:09:f6:49:ee:5a:7d:4c:29:f7:9f:e3:
         39:f3:e8:82:a0:c6:e4:7b:39:43:38:8e:ea:2b:b8:88:7b:e9:
         f5:8f:d4:13:7e:7c:5b:49:2d:38:5d:5b:14:7e:94:53:93:87:
         fc:d9:dd:99:77:60:54:02:85:7d:91:6d:0f:df:66:59:0f:9d:
         1e:86:55:27:26:51:f3:b7:a4:d7:ff:7e:63:86:14:6a:ab:c6:
         37:a0:d6:ca:f2:27:e3:05:eb:cf:b0:13:6e:df:9e:35:2f:94:
         32:ec:6f:cd:cc:52:34:47
-----BEGIN CERTIFICATE-----
MIIHSDCCBTCgAwIBAgICAY8wDQYJKoZIhvcNAQEFBQAwgbQxCzAJBgNVBAYTAlVT
MQswCQYDVQQIEwJDQTEVMBMGA1UEBxMMU2FuRnJhbmNpc2NvMRUwEwYDVQQKEwxQ
aXhnbG8sIEluYy4xEDAOBgNVBAsTB1ZQTi1DSUUxGjAYBgNVBAMTEXR1bm5lbC5w
aXhnbG8uY29tMRwwGgYDVQQpExNCYWxhIENoYW5kcmFzZWthcmFuMR4wHAYJKoZI
hvcNAQkBFg9iYWxhQHBpeGdsby5jb20wHhcNMTgwMjE0MDYzMjM3WhcNMjgwMjEy
MDYzMjM3WjCBqTELMAkGA1UEBhMCVVMxCzAJBgNVBAgTAkNBMRUwEwYDVQQHEwxT
YW5GcmFuY2lzY28xFTATBgNVBAoTDFBpeGdsbywgSW5jLjEQMA4GA1UECxMHVlBO
LUNJRTEPMA0GA1UEAxMGY2llMzk4MRwwGgYDVQQpExNCYWxhIENoYW5kcmFzZWth
cmFuMR4wHAYJKoZIhvcNAQkBFg9iYWxhQHBpeGdsby5jb20wggIiMA0GCSqGSIb3
DQEBAQUAA4ICDwAwggIKAoICAQDZPbM2EvTRsJ4ua/5shKlHNTAlcNqWMf6POWOb
W+ZGHt78seZY7I3MnTuaCutAZ1R1uEzXmeWslSWDX+gyUUqyunRl8aNLiqwT0m7F
IjDZXDa20HBtUKfzRQ7JAAo7+noBhCDnxAEye65YXKlLxKoyns5xvQhFWStRVCQW
JjRv/vu4lmgp1aACRwhiuHS+AlwpwcglPJK7LuvaWIBqLc+0B+Q1GY2uYdk8WMTC
WvR6dYCyFEvoFoGPOP1TPBty2TfGX9ZAGtN2YzR2ln70PpW4SfFlB77xVLPV+7eJ
v6cM+qV5a9AJ+trRI3dLTUuLUZSqsweOwYNPAw9Y+3soLfENWol3JN7SkEnUgXle
zP1cKsmfV7TSmt/NitAQvm5tTvwRSQtagS8XkfiNTaAmv6CksI1lbPTBCQtvUDWH
It4GNcs3cHD6joyvKZVaFIYbBeuelKjRSMZQaWohwBNTK0UF/wrKmoxtHY30tAg7
n11MgmBvhbQt+M4eXCp7YV0Tq1G1wNw7d50XgnQz0eJB9x+153UgVzOjy8cMBL2Z
uM5woREoayuzYCmFMRiwbPAhnd7qEBJbEwoyF86mDRpWVudWQ1aAd/a2VLdjq5l2
moCkLPKLi1PnjoO/R39fvKJQS4SI/5xtZ+kaoJSQFvZlyIIiT3sXkw1UDu0hLAXw
icPnZQIDAQABo4IBazCCAWcwCQYDVR0TBAIwADAtBglghkgBhvhCAQ0EIBYeRWFz
eS1SU0EgR2VuZXJhdGVkIENlcnRpZmljYXRlMB0GA1UdDgQWBBT8sWOeHz/Z1Rei
+vvW20Flu3WWSDCB6QYDVR0jBIHhMIHegBTvOI0UUFinW02cF3L837msp1GwEKGB
uqSBtzCBtDELMAkGA1UEBhMCVVMxCzAJBgNVBAgTAkNBMRUwEwYDVQQHEwxTYW5G
cmFuY2lzY28xFTATBgNVBAoTDFBpeGdsbywgSW5jLjEQMA4GA1UECxMHVlBOLUNJ
RTEaMBgGA1UEAxMRdHVubmVsLnBpeGdsby5jb20xHDAaBgNVBCkTE0JhbGEgQ2hh
bmRyYXNla2FyYW4xHjAcBgkqhkiG9w0BCQEWD2JhbGFAcGl4Z2xvLmNvbYIJAKbb
xoOA5qB5MBMGA1UdJQQMMAoGCCsGAQUFBwMCMAsGA1UdDwQEAwIHgDANBgkqhkiG
9w0BAQUFAAOCAgEAzKSy9kdv+4iaqUbiVEmT60FeApv3zl+g1XNrJvwOIkqKPO5O
2AXBH/Fh3XkQcO+lY/2CVCg3lLLr5q+1lJbmkGdp0gSPXygxNc+xk3giMD3y6yxS
hJnj1Y8zW8LgzARPr/JxJMSFggiLUNiFRrmYI2sB48xzc0czt8TTwOq6jmN4xWPt
nvMwUi7Zc5fYa4Pba4rfZck3MvSHqAs7NH7g2iLj9G2O88gkkWvovn0r2RjgwSJM
vEleu28xLHAwYU/s/WuSelYG7N6R+hZiNk/lzFHURjRaion/3ffP+6OQMJvCxtO4
iQ+DIaCOW67a8565DFnTbLMOT556YbCaugpdQ8n3S5JhxGpBEnvFp0Q61psr8bqZ
9hOKzuSZT9HE2SYffxysMWC+50X6epVz3Dman8rmlp+yab2Ehe4sGUWlypAizKsI
T9t6+EDgpMBv5gIahtyG1QPiYS0waBMSzZSxmwu3WdwPpZAlKnDCK8za/rikJ1he
yjrWE2A4y6s5oQIQkGQs9px4tUs2eY6MGLEwyNYeSwn2Se5afUwp95/jOfPogqDG
5Hs5QziO6iu4iHvp9Y/UE358W0ktOF1bFH6UU5OH/NndmXdgVAKFfZFtD99mWQ+d
HoZVJyZR87ek1/9+Y4YUaqvGN6DWyvIn4wXrz7ATbt+eNS+UMuxvzcxSNEc=
-----END CERTIFICATE-----
