Certificate:
    Data:
        Version: 3 (0x2)
        Serial Number: 400 (0x190)
    Signature Algorithm: sha1WithRSAEncryption
        Issuer: C=US, ST=CA, L=SanFrancisco, O=Pixglo, Inc., OU=VPN-CIE, CN=tunnel.pixglo.com/name=Bala Chandrasekaran/emailAddress=bala@pixglo.com
        Validity
            Not Before: Feb 14 06:32:41 2018 GMT
            Not After : Feb 12 06:32:41 2028 GMT
        Subject: C=US, ST=CA, L=SanFrancisco, O=Pixglo, Inc., OU=VPN-CIE, CN=cie399/name=Bala Chandrasekaran/emailAddress=bala@pixglo.com
        Subject Public Key Info:
            Public Key Algorithm: rsaEncryption
                Public-Key: (4096 bit)
                Modulus:
                    00:aa:38:94:f3:17:2f:66:c5:45:89:93:e2:09:93:
                    f9:04:ad:ff:fa:30:da:03:ab:40:99:e9:20:86:3a:
                    6a:6b:d1:b4:2c:a9:f2:5a:88:05:a9:b3:50:2b:34:
                    75:87:79:95:f9:2e:63:03:a6:12:e2:01:96:27:6b:
                    b9:e8:3f:42:59:4e:d0:b6:6f:da:39:d7:3e:5d:ce:
                    05:81:ec:65:ad:43:eb:e0:88:0f:4c:ca:c7:c5:94:
                    e7:23:77:d8:a4:97:2d:3f:07:72:e2:c1:7d:37:bd:
                    0e:7a:5e:f8:86:f5:01:38:91:14:29:07:4f:3c:07:
                    7f:5f:dc:d1:d3:36:68:35:8e:24:93:5b:fe:56:ad:
                    12:14:0d:b4:46:57:d5:c0:cb:4f:96:2e:27:64:8f:
                    46:97:47:76:96:c4:38:a5:a5:5a:98:ad:ec:63:2f:
                    18:34:e2:7d:28:59:d5:7b:27:bc:53:dc:e5:2e:0a:
                    72:ae:e8:ca:91:7a:0e:04:5c:21:36:e2:99:c0:54:
                    84:75:36:db:b9:9a:ea:bf:a7:1f:97:80:57:60:25:
                    51:79:3b:d2:62:36:10:7e:6d:ea:cf:fd:91:7d:36:
                    f0:e6:6b:37:c4:aa:45:f7:8b:2a:82:12:b4:e5:d2:
                    42:9b:41:4a:fb:58:f0:5b:e8:dc:56:cd:dc:24:eb:
                    f8:86:1b:6c:84:28:d8:4a:fe:37:16:68:79:36:a1:
                    49:eb:bf:9a:fe:71:59:92:6f:b1:4e:66:62:c6:a8:
                    63:2c:d4:44:32:be:2c:6e:b3:22:20:d3:ea:3b:30:
                    19:71:0b:89:2a:46:93:9c:58:fb:5e:e1:22:ad:54:
                    71:52:02:03:0a:6c:a8:a5:eb:0f:fa:05:42:26:02:
                    a7:f7:09:70:53:0d:c1:5e:94:8c:5a:26:9a:5c:96:
                    a0:ba:a5:7e:c8:80:a5:cf:37:0b:ea:c5:fa:c7:d7:
                    3c:f3:12:55:1f:dc:4c:ff:2b:72:a8:38:5d:3c:81:
                    d3:4a:bc:10:ac:a6:71:d1:45:12:52:73:a9:a6:c9:
                    db:a9:ce:92:7b:d8:6d:31:76:aa:11:0c:2a:98:45:
                    a0:1d:d6:36:7f:9e:a0:59:cf:46:57:c7:b7:f2:4c:
                    e3:62:66:26:67:6e:88:86:9f:06:64:ac:b0:32:72:
                    5a:a5:59:97:fd:b6:9d:8d:c6:63:84:4a:84:b5:50:
                    80:d4:b2:49:e7:dc:4f:95:6a:ec:0f:f3:4f:88:cd:
                    54:ef:bd:66:eb:eb:26:4a:c6:e2:eb:1e:7e:3d:59:
                    b1:db:4e:7a:67:75:7a:35:4b:e3:5e:fe:6c:92:10:
                    f2:ea:de:b3:86:5b:29:07:0a:cc:26:02:b3:a4:9a:
                    4c:c5:0b
                Exponent: 65537 (0x10001)
        X509v3 extensions:
            X509v3 Basic Constraints: 
                CA:FALSE
            Netscape Comment: 
                Easy-RSA Generated Certificate
            X509v3 Subject Key Identifier: 
                9B:7E:76:19:7E:CC:8E:5F:5E:CF:30:11:2C:94:56:82:B3:2F:83:A6
            X509v3 Authority Key Identifier: 
                keyid:EF:38:8D:14:50:58:A7:5B:4D:9C:17:72:FC:DF:B9:AC:A7:51:B0:10
                DirName:/C=US/ST=CA/L=SanFrancisco/O=Pixglo, Inc./OU=VPN-CIE/CN=tunnel.pixglo.com/name=Bala Chandrasekaran/emailAddress=bala@pixglo.com
                serial:A6:DB:C6:83:80:E6:A0:79

            X509v3 Extended Key Usage: 
                TLS Web Client Authentication
            X509v3 Key Usage: 
                Digital Signature
    Signature Algorithm: sha1WithRSAEncryption
         5b:7e:bf:1c:88:29:d7:7a:58:b0:e3:f3:a1:56:34:78:fc:db:
         04:95:35:06:ed:07:d4:f3:71:4e:3f:60:0e:10:c1:f9:5c:4c:
         b9:53:a9:62:32:50:26:44:4b:64:a7:a5:d1:7e:4e:48:10:9b:
         ed:89:4a:a1:8f:db:ed:70:2d:93:1c:d8:16:82:21:7b:66:99:
         ae:ef:96:91:d4:40:d6:72:b8:62:3b:d5:2f:4c:23:c5:61:30:
         be:ae:ff:a7:3f:da:c9:3d:69:09:d0:61:75:ef:0e:04:20:82:
         65:44:a7:04:0d:ab:a5:64:c1:eb:c1:38:2c:dc:c4:ac:d2:e4:
         1c:a3:de:03:bf:12:6c:66:08:37:ed:59:b9:57:03:fc:52:67:
         2c:f4:5f:65:91:49:54:6d:5b:ae:97:ef:08:36:0d:2a:fa:c2:
         9c:bb:17:4e:90:3e:f5:ac:9d:ad:16:44:eb:fc:42:46:56:4f:
         53:d6:1f:d4:a1:d2:42:53:53:58:28:c0:92:fc:8d:af:d9:8b:
         b9:85:87:d6:97:14:1a:24:3b:45:c0:72:34:1b:be:e5:02:ae:
         9e:98:ad:ab:be:fd:23:33:b3:df:15:da:49:4e:84:dc:ac:a2:
         c2:b9:8a:08:c2:52:32:78:38:2e:37:fa:fb:71:41:aa:9e:a1:
         24:f2:52:45:cc:9b:15:a3:20:d2:64:40:eb:08:fb:00:e4:82:
         3d:44:72:e6:de:04:8f:1f:54:29:c5:d0:a9:75:61:7c:11:a6:
         82:6a:48:25:ea:20:da:9c:7c:95:79:5d:fa:22:12:83:ce:c5:
         7d:84:a7:bc:b9:c3:fe:14:04:dc:19:14:40:cd:4f:34:1f:e0:
         3b:3a:f5:23:a0:1e:21:c7:33:1e:ef:7c:77:cb:d5:59:34:b4:
         aa:f5:65:30:aa:6d:3c:56:f5:6b:eb:04:71:63:09:75:da:85:
         23:a5:8f:3f:3d:fe:7b:7b:af:97:4e:70:be:3e:02:60:78:76:
         36:62:bf:76:6b:f6:fd:f8:a0:29:73:f7:d5:df:68:39:b6:27:
         76:3e:a7:6c:29:42:3e:71:63:40:84:fc:b1:a0:34:dd:17:03:
         e7:2a:4b:ed:e1:a0:d5:41:09:fa:02:01:54:80:94:49:74:f7:
         40:30:01:d8:bc:fb:23:1d:42:3c:01:39:1d:06:21:17:4e:84:
         7e:4e:0f:f8:de:7a:c7:f2:05:9c:e9:67:70:39:cd:31:32:bc:
         91:70:c0:8a:c4:4d:6f:e4:69:83:1c:c3:1c:e5:db:c9:9d:2a:
         3f:cf:a5:58:69:4b:01:ce:76:14:68:d7:d0:cb:86:56:62:f1:
         d8:b5:05:f5:7c:0d:19:3f
-----BEGIN CERTIFICATE-----
MIIHSDCCBTCgAwIBAgICAZAwDQYJKoZIhvcNAQEFBQAwgbQxCzAJBgNVBAYTAlVT
MQswCQYDVQQIEwJDQTEVMBMGA1UEBxMMU2FuRnJhbmNpc2NvMRUwEwYDVQQKEwxQ
aXhnbG8sIEluYy4xEDAOBgNVBAsTB1ZQTi1DSUUxGjAYBgNVBAMTEXR1bm5lbC5w
aXhnbG8uY29tMRwwGgYDVQQpExNCYWxhIENoYW5kcmFzZWthcmFuMR4wHAYJKoZI
hvcNAQkBFg9iYWxhQHBpeGdsby5jb20wHhcNMTgwMjE0MDYzMjQxWhcNMjgwMjEy
MDYzMjQxWjCBqTELMAkGA1UEBhMCVVMxCzAJBgNVBAgTAkNBMRUwEwYDVQQHEwxT
YW5GcmFuY2lzY28xFTATBgNVBAoTDFBpeGdsbywgSW5jLjEQMA4GA1UECxMHVlBO
LUNJRTEPMA0GA1UEAxMGY2llMzk5MRwwGgYDVQQpExNCYWxhIENoYW5kcmFzZWth
cmFuMR4wHAYJKoZIhvcNAQkBFg9iYWxhQHBpeGdsby5jb20wggIiMA0GCSqGSIb3
DQEBAQUAA4ICDwAwggIKAoICAQCqOJTzFy9mxUWJk+IJk/kErf/6MNoDq0CZ6SCG
Ompr0bQsqfJaiAWps1ArNHWHeZX5LmMDphLiAZYna7noP0JZTtC2b9o51z5dzgWB
7GWtQ+vgiA9MysfFlOcjd9ikly0/B3LiwX03vQ56XviG9QE4kRQpB088B39f3NHT
Nmg1jiSTW/5WrRIUDbRGV9XAy0+WLidkj0aXR3aWxDilpVqYrexjLxg04n0oWdV7
J7xT3OUuCnKu6MqReg4EXCE24pnAVIR1Ntu5muq/px+XgFdgJVF5O9JiNhB+berP
/ZF9NvDmazfEqkX3iyqCErTl0kKbQUr7WPBb6NxWzdwk6/iGG2yEKNhK/jcWaHk2
oUnrv5r+cVmSb7FOZmLGqGMs1EQyvixusyIg0+o7MBlxC4kqRpOcWPte4SKtVHFS
AgMKbKil6w/6BUImAqf3CXBTDcFelIxaJppclqC6pX7IgKXPNwvqxfrH1zzzElUf
3Ez/K3KoOF08gdNKvBCspnHRRRJSc6mmydupzpJ72G0xdqoRDCqYRaAd1jZ/nqBZ
z0ZXx7fyTONiZiZnboiGnwZkrLAyclqlWZf9tp2NxmOESoS1UIDUsknn3E+VauwP
80+IzVTvvWbr6yZKxuLrHn49WbHbTnpndXo1S+Ne/mySEPLq3rOGWykHCswmArOk
mkzFCwIDAQABo4IBazCCAWcwCQYDVR0TBAIwADAtBglghkgBhvhCAQ0EIBYeRWFz
eS1SU0EgR2VuZXJhdGVkIENlcnRpZmljYXRlMB0GA1UdDgQWBBSbfnYZfsyOX17P
MBEslFaCsy+DpjCB6QYDVR0jBIHhMIHegBTvOI0UUFinW02cF3L837msp1GwEKGB
uqSBtzCBtDELMAkGA1UEBhMCVVMxCzAJBgNVBAgTAkNBMRUwEwYDVQQHEwxTYW5G
cmFuY2lzY28xFTATBgNVBAoTDFBpeGdsbywgSW5jLjEQMA4GA1UECxMHVlBOLUNJ
RTEaMBgGA1UEAxMRdHVubmVsLnBpeGdsby5jb20xHDAaBgNVBCkTE0JhbGEgQ2hh
bmRyYXNla2FyYW4xHjAcBgkqhkiG9w0BCQEWD2JhbGFAcGl4Z2xvLmNvbYIJAKbb
xoOA5qB5MBMGA1UdJQQMMAoGCCsGAQUFBwMCMAsGA1UdDwQEAwIHgDANBgkqhkiG
9w0BAQUFAAOCAgEAW36/HIgp13pYsOPzoVY0ePzbBJU1Bu0H1PNxTj9gDhDB+VxM
uVOpYjJQJkRLZKel0X5OSBCb7YlKoY/b7XAtkxzYFoIhe2aZru+WkdRA1nK4YjvV
L0wjxWEwvq7/pz/ayT1pCdBhde8OBCCCZUSnBA2rpWTB68E4LNzErNLkHKPeA78S
bGYIN+1ZuVcD/FJnLPRfZZFJVG1brpfvCDYNKvrCnLsXTpA+9aydrRZE6/xCRlZP
U9Yf1KHSQlNTWCjAkvyNr9mLuYWH1pcUGiQ7RcByNBu+5QKunpitq779IzOz3xXa
SU6E3KyiwrmKCMJSMng4Ljf6+3FBqp6hJPJSRcybFaMg0mRA6wj7AOSCPURy5t4E
jx9UKcXQqXVhfBGmgmpIJeog2px8lXld+iISg87FfYSnvLnD/hQE3BkUQM1PNB/g
Ozr1I6AeIcczHu98d8vVWTS0qvVlMKptPFb1a+sEcWMJddqFI6WPPz3+e3uvl05w
vj4CYHh2NmK/dmv2/figKXP31d9oObYndj6nbClCPnFjQIT8saA03RcD5ypL7eGg
1UEJ+gIBVICUSXT3QDAB2Lz7Ix1CPAE5HQYhF06Efk4P+N56x/IFnOlncDnNMTK8
kXDAisRNb+RpgxzDHOXbyZ0qP8+lWGlLAc52FGjX0MuGVmLx2LUF9XwNGT8=
-----END CERTIFICATE-----
