Certificate:
    Data:
        Version: 3 (0x2)
        Serial Number: 402 (0x192)
    Signature Algorithm: sha1WithRSAEncryption
        Issuer: C=US, ST=CA, L=SanFrancisco, O=Pixglo, Inc., OU=VPN-CIE, CN=tunnel.pixglo.com/name=Bala Chandrasekaran/emailAddress=bala@pixglo.com
        Validity
            Not Before: Feb 14 06:32:48 2018 GMT
            Not After : Feb 12 06:32:48 2028 GMT
        Subject: C=US, ST=CA, L=SanFrancisco, O=Pixglo, Inc., OU=VPN-CIE, CN=cie401/name=Bala Chandrasekaran/emailAddress=bala@pixglo.com
        Subject Public Key Info:
            Public Key Algorithm: rsaEncryption
                Public-Key: (4096 bit)
                Modulus:
                    00:d3:84:d0:f8:48:da:c4:c5:15:05:27:73:8d:94:
                    68:83:d8:2d:c4:98:e2:fe:56:e4:9a:2b:bd:20:ec:
                    31:76:09:34:d2:34:9c:1c:cb:14:d9:4a:6c:77:f9:
                    02:9e:36:11:0f:1a:6a:6a:db:ce:2b:92:00:57:7e:
                    66:af:68:42:e5:20:0f:3a:af:7e:67:cc:e6:d9:f7:
                    27:2b:de:eb:75:82:a3:b9:96:9a:2c:ed:14:38:5b:
                    bc:b5:dc:64:a5:ec:b1:dc:0b:f1:d9:aa:25:6c:77:
                    fe:39:fe:d8:9d:89:ef:44:ca:09:3d:71:ec:6e:b1:
                    9f:da:94:65:47:97:4f:02:23:1f:28:16:bc:1b:fc:
                    62:ed:b4:b6:c0:4d:f3:6e:a4:5c:bc:2d:f3:9b:92:
                    f3:63:d0:06:fe:16:b6:8c:35:47:6d:f4:e4:dd:ad:
                    e1:0b:79:6a:f1:a1:eb:77:83:df:f6:7b:60:b3:76:
                    28:ec:5d:00:05:e5:b3:2c:29:32:ab:f4:b1:f2:5f:
                    0a:95:8e:39:27:f4:1a:e9:8f:56:1a:7d:fe:b7:88:
                    bc:3b:9f:a7:2d:b2:0a:55:17:23:a1:dd:7a:73:54:
                    ab:8a:7b:8b:17:f0:24:2d:ca:3e:27:89:59:78:6d:
                    e1:ad:e5:ff:94:d4:40:0f:5d:d5:ea:7d:e0:35:0b:
                    5f:db:01:bc:6f:f6:81:97:a4:b9:d6:3a:8d:b6:4b:
                    c4:51:76:00:01:f9:bb:51:22:62:e0:56:9b:4e:44:
                    cd:dc:3a:ff:44:54:d5:89:b7:c9:68:38:6e:59:a0:
                    7f:12:78:24:11:80:5d:28:ee:4e:9b:8f:bf:f4:a9:
                    7f:52:1f:21:46:3f:f6:de:06:8a:5d:91:ae:27:c8:
                    61:1d:86:41:f0:5d:86:1a:0c:ac:45:c2:5a:b6:a9:
                    ef:23:a7:9d:49:a1:d2:7d:4c:7b:d0:1a:5f:c9:75:
                    c8:39:b1:a4:d2:41:0d:b8:1d:f9:c0:fa:0d:a3:02:
                    ae:d5:ee:ab:87:e0:8e:4c:53:dd:b1:92:b8:20:57:
                    dd:a1:1b:3f:0a:e0:d1:05:7b:b1:71:93:e6:1c:60:
                    a7:dd:fd:9e:2a:a6:85:d6:81:6b:ec:99:59:6b:66:
                    bd:62:b4:3f:53:b1:a2:2f:d3:44:d6:7f:a8:e8:4a:
                    be:ea:fa:dc:23:ec:0b:2a:8a:38:97:43:d5:2b:f1:
                    88:b5:ba:d6:3d:15:f3:22:20:39:59:04:3c:02:bc:
                    62:b1:93:3f:3b:7e:1e:3b:c0:29:0b:9b:4a:72:4f:
                    95:41:38:eb:64:35:20:c3:93:a8:0c:12:13:24:44:
                    68:58:ab:0a:4b:ab:f8:9c:42:16:05:db:70:f5:2b:
                    b3:d4:e9
                Exponent: 65537 (0x10001)
        X509v3 extensions:
            X509v3 Basic Constraints: 
                CA:FALSE
            Netscape Comment: 
                Easy-RSA Generated Certificate
            X509v3 Subject Key Identifier: 
                4E:04:04:1C:4B:11:A0:30:EA:AB:8B:C3:A1:65:E5:A5:68:F6:A1:4F
            X509v3 Authority Key Identifier: 
                keyid:EF:38:8D:14:50:58:A7:5B:4D:9C:17:72:FC:DF:B9:AC:A7:51:B0:10
                DirName:/C=US/ST=CA/L=SanFrancisco/O=Pixglo, Inc./OU=VPN-CIE/CN=tunnel.pixglo.com/name=Bala Chandrasekaran/emailAddress=bala@pixglo.com
                serial:A6:DB:C6:83:80:E6:A0:79

            X509v3 Extended Key Usage: 
                TLS Web Client Authentication
            X509v3 Key Usage: 
                Digital Signature
    Signature Algorithm: sha1WithRSAEncryption
         98:c8:a2:fc:5e:c6:8d:8d:41:1c:93:14:b7:aa:06:2c:aa:f6:
         1c:e9:81:32:86:08:02:70:58:09:46:b2:86:e0:34:1d:dc:ee:
         36:37:8a:ce:12:53:1d:b2:9e:d4:ae:c0:46:d6:f5:97:12:55:
         3e:24:86:5f:bd:e2:49:27:6d:32:0c:be:ec:64:9e:ee:92:3e:
         3a:e1:9b:23:c1:be:4e:2b:b0:e8:4f:49:dd:73:80:1f:2c:62:
         92:6b:50:10:1e:e9:14:ea:7b:ae:e5:5f:ec:d1:39:6e:73:83:
         d8:06:0d:87:aa:c0:a9:59:85:bb:53:ae:53:42:59:b8:19:2e:
         69:81:62:b5:3e:57:2a:40:7a:d1:da:d1:d8:ec:14:30:cb:6b:
         06:e0:97:96:88:3f:3a:6b:e8:57:0c:68:56:49:55:49:6e:d1:
         4a:5c:e7:73:c4:0a:e3:91:28:0f:3e:0e:8a:cb:d7:1f:dd:f3:
         4d:9f:23:db:e6:00:c4:5d:34:6c:7a:b0:b6:e1:d4:f8:4f:dc:
         22:9e:92:9a:03:a9:4f:64:76:fd:fd:a5:c2:89:e0:12:c5:6d:
         3a:7c:0a:f3:2b:dc:79:1c:e3:cd:69:ba:e7:e5:5e:e8:6e:f8:
         52:60:2a:50:a5:80:85:a4:4e:a3:a3:1c:ce:ba:79:b7:7c:ac:
         51:54:1b:cc:22:f0:4a:50:64:f5:b6:ed:b2:2c:a5:ae:7b:aa:
         15:d1:f7:02:aa:19:57:67:90:f9:08:06:08:7b:59:06:0e:88:
         fc:43:99:f4:a7:a3:72:9f:c8:48:0d:96:0b:4d:98:e2:f7:cd:
         66:6f:67:41:06:a6:a9:8d:1f:e7:86:ce:e5:80:75:17:f1:4d:
         90:e0:d8:35:43:36:6f:57:b9:54:85:80:76:3c:cd:72:7a:0d:
         4f:88:10:90:91:7e:7c:5a:ad:43:d3:b2:a1:62:ce:7e:3e:f8:
         42:75:73:a8:9e:22:86:28:4c:a6:3d:f2:de:f2:8b:9c:34:0c:
         68:a3:ca:2d:ff:05:82:f2:d4:bb:1d:de:d5:17:5b:af:5e:c4:
         96:74:12:dc:fc:3a:fe:3c:8d:38:8a:6e:16:2a:d7:e6:52:c6:
         a7:90:e7:35:7b:ad:8e:3b:c7:e3:75:0e:59:7a:f2:89:f5:70:
         cf:7c:7d:de:10:a8:77:c4:30:9d:2c:5d:55:e2:06:45:c9:6a:
         e4:89:a5:62:97:c5:94:60:83:dd:e7:04:71:52:41:b0:83:bc:
         c4:38:1f:32:05:14:bd:50:8f:ad:7a:03:7c:d8:ca:91:06:e8:
         bd:0c:a9:f8:4c:86:da:e0:19:cc:aa:1e:b2:a1:2e:52:e8:7a:
         63:cb:48:fa:c0:ed:f2:ec
-----BEGIN CERTIFICATE-----
MIIHSDCCBTCgAwIBAgICAZIwDQYJKoZIhvcNAQEFBQAwgbQxCzAJBgNVBAYTAlVT
MQswCQYDVQQIEwJDQTEVMBMGA1UEBxMMU2FuRnJhbmNpc2NvMRUwEwYDVQQKEwxQ
aXhnbG8sIEluYy4xEDAOBgNVBAsTB1ZQTi1DSUUxGjAYBgNVBAMTEXR1bm5lbC5w
aXhnbG8uY29tMRwwGgYDVQQpExNCYWxhIENoYW5kcmFzZWthcmFuMR4wHAYJKoZI
hvcNAQkBFg9iYWxhQHBpeGdsby5jb20wHhcNMTgwMjE0MDYzMjQ4WhcNMjgwMjEy
MDYzMjQ4WjCBqTELMAkGA1UEBhMCVVMxCzAJBgNVBAgTAkNBMRUwEwYDVQQHEwxT
YW5GcmFuY2lzY28xFTATBgNVBAoTDFBpeGdsbywgSW5jLjEQMA4GA1UECxMHVlBO
LUNJRTEPMA0GA1UEAxMGY2llNDAxMRwwGgYDVQQpExNCYWxhIENoYW5kcmFzZWth
cmFuMR4wHAYJKoZIhvcNAQkBFg9iYWxhQHBpeGdsby5jb20wggIiMA0GCSqGSIb3
DQEBAQUAA4ICDwAwggIKAoICAQDThND4SNrExRUFJ3ONlGiD2C3EmOL+VuSaK70g
7DF2CTTSNJwcyxTZSmx3+QKeNhEPGmpq284rkgBXfmavaELlIA86r35nzObZ9ycr
3ut1gqO5lpos7RQ4W7y13GSl7LHcC/HZqiVsd/45/tidie9Eygk9cexusZ/alGVH
l08CIx8oFrwb/GLttLbATfNupFy8LfObkvNj0Ab+FraMNUdt9OTdreELeWrxoet3
g9/2e2CzdijsXQAF5bMsKTKr9LHyXwqVjjkn9Brpj1Yaff63iLw7n6ctsgpVFyOh
3XpzVKuKe4sX8CQtyj4niVl4beGt5f+U1EAPXdXqfeA1C1/bAbxv9oGXpLnWOo22
S8RRdgAB+btRImLgVptORM3cOv9EVNWJt8loOG5ZoH8SeCQRgF0o7k6bj7/0qX9S
HyFGP/beBopdka4nyGEdhkHwXYYaDKxFwlq2qe8jp51JodJ9THvQGl/Jdcg5saTS
QQ24HfnA+g2jAq7V7quH4I5MU92xkrggV92hGz8K4NEFe7Fxk+YcYKfd/Z4qpoXW
gWvsmVlrZr1itD9TsaIv00TWf6joSr7q+twj7AsqijiXQ9Ur8Yi1utY9FfMiIDlZ
BDwCvGKxkz87fh47wCkLm0pyT5VBOOtkNSDDk6gMEhMkRGhYqwpLq/icQhYF23D1
K7PU6QIDAQABo4IBazCCAWcwCQYDVR0TBAIwADAtBglghkgBhvhCAQ0EIBYeRWFz
eS1SU0EgR2VuZXJhdGVkIENlcnRpZmljYXRlMB0GA1UdDgQWBBROBAQcSxGgMOqr
i8OhZeWlaPahTzCB6QYDVR0jBIHhMIHegBTvOI0UUFinW02cF3L837msp1GwEKGB
uqSBtzCBtDELMAkGA1UEBhMCVVMxCzAJBgNVBAgTAkNBMRUwEwYDVQQHEwxTYW5G
cmFuY2lzY28xFTATBgNVBAoTDFBpeGdsbywgSW5jLjEQMA4GA1UECxMHVlBOLUNJ
RTEaMBgGA1UEAxMRdHVubmVsLnBpeGdsby5jb20xHDAaBgNVBCkTE0JhbGEgQ2hh
bmRyYXNla2FyYW4xHjAcBgkqhkiG9w0BCQEWD2JhbGFAcGl4Z2xvLmNvbYIJAKbb
xoOA5qB5MBMGA1UdJQQMMAoGCCsGAQUFBwMCMAsGA1UdDwQEAwIHgDANBgkqhkiG
9w0BAQUFAAOCAgEAmMii/F7GjY1BHJMUt6oGLKr2HOmBMoYIAnBYCUayhuA0Hdzu
NjeKzhJTHbKe1K7ARtb1lxJVPiSGX73iSSdtMgy+7GSe7pI+OuGbI8G+Tiuw6E9J
3XOAHyxikmtQEB7pFOp7ruVf7NE5bnOD2AYNh6rAqVmFu1OuU0JZuBkuaYFitT5X
KkB60drR2OwUMMtrBuCXlog/OmvoVwxoVklVSW7RSlznc8QK45EoDz4OisvXH93z
TZ8j2+YAxF00bHqwtuHU+E/cIp6SmgOpT2R2/f2lwongEsVtOnwK8yvceRzjzWm6
5+Ve6G74UmAqUKWAhaROo6Mczrp5t3ysUVQbzCLwSlBk9bbtsiylrnuqFdH3AqoZ
V2eQ+QgGCHtZBg6I/EOZ9Kejcp/ISA2WC02Y4vfNZm9nQQamqY0f54bO5YB1F/FN
kODYNUM2b1e5VIWAdjzNcnoNT4gQkJF+fFqtQ9OyoWLOfj74QnVzqJ4ihihMpj3y
3vKLnDQMaKPKLf8FgvLUux3e1Rdbr17ElnQS3Pw6/jyNOIpuFirX5lLGp5DnNXut
jjvH43UOWXryifVwz3x93hCod8QwnSxdVeIGRclq5ImlYpfFlGCD3ecEcVJBsIO8
xDgfMgUUvVCPrXoDfNjKkQbovQyp+EyG2uAZzKoesqEuUuh6Y8tI+sDt8uw=
-----END CERTIFICATE-----
