Certificate:
    Data:
        Version: 3 (0x2)
        Serial Number: 403 (0x193)
    Signature Algorithm: sha1WithRSAEncryption
        Issuer: C=US, ST=CA, L=SanFrancisco, O=Pixglo, Inc., OU=VPN-CIE, CN=tunnel.pixglo.com/name=Bala Chandrasekaran/emailAddress=bala@pixglo.com
        Validity
            Not Before: Feb 14 06:32:50 2018 GMT
            Not After : Feb 12 06:32:50 2028 GMT
        Subject: C=US, ST=CA, L=SanFrancisco, O=Pixglo, Inc., OU=VPN-CIE, CN=cie402/name=Bala Chandrasekaran/emailAddress=bala@pixglo.com
        Subject Public Key Info:
            Public Key Algorithm: rsaEncryption
                Public-Key: (4096 bit)
                Modulus:
                    00:da:5f:a3:7e:3c:dc:c7:d1:37:92:25:0b:f1:9d:
                    01:31:6f:35:67:ec:ce:56:fb:9f:c2:13:da:12:7d:
                    c6:9b:9e:4a:a6:15:9a:b3:44:ee:7b:df:75:50:d5:
                    72:db:8b:75:bc:72:8c:ab:60:83:8d:af:0b:a5:45:
                    dc:6d:5b:a3:16:dc:47:6a:85:d3:bc:36:d5:10:a9:
                    52:47:cd:ee:cc:a5:1d:9c:2b:f9:07:d0:47:17:a7:
                    de:fc:e1:62:5f:2d:fc:2a:5a:1d:6a:a0:25:a2:50:
                    06:78:a8:35:c4:51:d6:d7:cf:4c:6f:57:ce:e2:64:
                    74:e3:0f:59:96:78:61:96:bb:56:75:7e:62:4c:aa:
                    74:36:4d:67:43:60:ad:79:d1:af:b7:53:18:5d:ab:
                    b7:9d:43:7a:f2:98:75:70:4f:0b:ef:af:16:e5:25:
                    81:ac:52:ee:f0:59:8e:e5:10:b9:04:6a:40:b7:6f:
                    34:c6:fd:80:15:3a:78:f0:69:fc:87:af:4d:ed:5f:
                    61:90:e1:36:b0:c1:ae:52:5a:38:ff:6d:fc:53:b3:
                    8c:bd:aa:46:19:5a:2f:e0:36:32:5a:38:c5:12:1b:
                    97:69:64:4c:39:de:10:cf:cd:55:cd:61:e6:09:b2:
                    71:56:9d:26:ac:19:82:89:29:6f:06:b9:af:2e:e8:
                    b4:dc:55:b8:64:a5:25:a3:4d:2a:46:3c:ab:07:04:
                    f6:c9:be:d9:89:f8:30:dc:eb:36:29:f0:17:db:e6:
                    db:b7:60:04:30:8c:d6:82:38:88:17:8c:1d:5b:a1:
                    46:14:be:0b:a8:78:1f:8e:de:1b:9c:81:38:8b:44:
                    1f:86:71:20:85:bf:5a:7f:51:f1:1c:8a:81:67:5f:
                    3d:55:a5:81:a8:1d:9e:64:30:d6:fc:27:4a:be:d7:
                    21:40:e7:e1:09:b5:4b:16:3d:b5:33:a1:4a:f1:1f:
                    09:65:cc:00:1b:09:e4:8e:3a:5a:01:47:56:8d:cb:
                    80:e0:ca:ed:53:95:09:67:56:6c:d9:17:36:5d:d8:
                    fd:33:99:65:2c:8c:b4:82:bd:8c:bf:5b:ea:96:d0:
                    4b:08:6c:d8:ff:80:06:64:fe:9d:b6:91:98:be:8d:
                    9a:4e:1f:9e:d1:09:8d:0f:01:54:46:89:06:2d:d4:
                    a3:ea:74:0c:c1:63:78:fe:aa:1a:49:ae:54:8f:8a:
                    ef:36:99:4e:68:cc:73:9f:7a:11:58:6b:05:f7:0f:
                    0b:47:64:63:81:9d:e4:35:86:d1:a3:54:41:7d:51:
                    2b:e8:07:e7:dd:49:8e:d0:0e:76:ea:9c:88:59:c4:
                    04:4a:80:6b:b1:af:7a:85:2e:ef:3b:b8:11:38:af:
                    a5:53:6d
                Exponent: 65537 (0x10001)
        X509v3 extensions:
            X509v3 Basic Constraints: 
                CA:FALSE
            Netscape Comment: 
                Easy-RSA Generated Certificate
            X509v3 Subject Key Identifier: 
                CE:6C:64:10:4D:A1:18:F7:86:19:DD:67:E8:4A:20:33:F5:8E:6D:FD
            X509v3 Authority Key Identifier: 
                keyid:EF:38:8D:14:50:58:A7:5B:4D:9C:17:72:FC:DF:B9:AC:A7:51:B0:10
                DirName:/C=US/ST=CA/L=SanFrancisco/O=Pixglo, Inc./OU=VPN-CIE/CN=tunnel.pixglo.com/name=Bala Chandrasekaran/emailAddress=bala@pixglo.com
                serial:A6:DB:C6:83:80:E6:A0:79

            X509v3 Extended Key Usage: 
                TLS Web Client Authentication
            X509v3 Key Usage: 
                Digital Signature
    Signature Algorithm: sha1WithRSAEncryption
         2e:b0:91:2a:66:1b:3d:f4:d1:3a:c2:16:6b:3f:76:27:5c:ce:
         72:25:ae:a6:dc:13:36:82:7d:f6:f2:cb:73:87:2b:91:3d:4a:
         12:40:2a:67:ec:84:16:be:6a:67:0b:e6:b3:92:e9:a1:62:33:
         7d:ba:73:f4:d5:b9:72:5d:93:02:2c:dc:01:42:cc:c5:c2:73:
         4d:6e:b9:c2:9e:da:f7:7d:d9:d0:74:32:e8:c4:52:86:ed:cd:
         19:9f:19:73:c1:13:80:97:25:fa:80:56:79:a9:a2:9b:3d:02:
         3d:48:72:f4:7e:f7:df:c2:95:8e:db:52:78:dd:e3:bd:8b:2b:
         6b:66:fd:b8:6b:5f:d7:c0:b7:64:d0:9f:d3:4e:9c:ef:4e:fd:
         73:60:9b:1c:2e:a5:78:14:bc:3b:b1:41:b1:24:93:98:97:c4:
         fb:38:99:04:a0:c9:80:5b:37:04:ae:e5:9f:3d:3e:a2:17:ee:
         3f:ff:55:55:48:aa:b6:c2:3d:ca:93:55:81:8e:57:17:90:2b:
         6b:84:4f:ab:55:d1:10:7c:f3:ec:8c:5b:77:96:76:2b:70:3e:
         86:23:e5:69:18:75:d3:f2:5f:3e:0d:94:b0:78:26:43:9a:8a:
         29:33:a2:cc:a2:0b:3d:24:b9:72:86:d2:ea:95:8e:ad:57:a6:
         49:59:8e:38:25:ec:23:9f:2f:2f:ea:b2:13:63:5b:e4:97:2a:
         aa:05:84:ba:0f:ba:7e:f8:61:82:b5:93:fd:a3:05:70:9e:d3:
         38:d6:55:13:63:72:d7:f9:a6:69:90:52:a7:d0:62:af:46:e2:
         1f:64:85:bd:a5:23:d8:bf:6c:ac:5a:5b:2a:aa:45:fa:cf:69:
         2a:66:1b:f6:b6:15:8d:ec:70:d4:b9:40:73:26:c8:f7:10:7d:
         27:8e:a3:41:3d:4e:8b:da:a1:90:a4:12:5a:d6:52:12:fa:97:
         6c:15:97:a1:bd:31:f4:e5:f4:26:92:6f:38:45:57:be:06:16:
         70:3b:1a:47:2b:29:1b:39:69:ad:e6:18:9a:45:1f:8b:8e:a3:
         4f:0a:41:da:a2:8c:7f:29:9c:91:3b:28:91:14:b8:fe:ee:13:
         31:5b:27:07:29:0e:45:fe:b8:0f:c5:a5:04:ff:bd:a6:db:f7:
         e0:e4:02:73:59:c2:eb:de:66:cc:1f:93:c5:8f:8a:45:1f:40:
         2d:c3:e5:2f:50:82:30:6b:64:04:b3:f7:9a:fe:89:0c:08:09:
         d3:3d:48:25:4d:7e:ae:94:cc:f3:2b:e3:40:42:ec:90:b1:5a:
         e1:20:6b:74:38:6a:32:c0:0f:a3:67:dd:34:29:9b:cb:7f:18:
         2e:f4:49:f7:02:8f:40:2d
-----BEGIN CERTIFICATE-----
MIIHSDCCBTCgAwIBAgICAZMwDQYJKoZIhvcNAQEFBQAwgbQxCzAJBgNVBAYTAlVT
MQswCQYDVQQIEwJDQTEVMBMGA1UEBxMMU2FuRnJhbmNpc2NvMRUwEwYDVQQKEwxQ
aXhnbG8sIEluYy4xEDAOBgNVBAsTB1ZQTi1DSUUxGjAYBgNVBAMTEXR1bm5lbC5w
aXhnbG8uY29tMRwwGgYDVQQpExNCYWxhIENoYW5kcmFzZWthcmFuMR4wHAYJKoZI
hvcNAQkBFg9iYWxhQHBpeGdsby5jb20wHhcNMTgwMjE0MDYzMjUwWhcNMjgwMjEy
MDYzMjUwWjCBqTELMAkGA1UEBhMCVVMxCzAJBgNVBAgTAkNBMRUwEwYDVQQHEwxT
YW5GcmFuY2lzY28xFTATBgNVBAoTDFBpeGdsbywgSW5jLjEQMA4GA1UECxMHVlBO
LUNJRTEPMA0GA1UEAxMGY2llNDAyMRwwGgYDVQQpExNCYWxhIENoYW5kcmFzZWth
cmFuMR4wHAYJKoZIhvcNAQkBFg9iYWxhQHBpeGdsby5jb20wggIiMA0GCSqGSIb3
DQEBAQUAA4ICDwAwggIKAoICAQDaX6N+PNzH0TeSJQvxnQExbzVn7M5W+5/CE9oS
fcabnkqmFZqzRO5733VQ1XLbi3W8coyrYIONrwulRdxtW6MW3EdqhdO8NtUQqVJH
ze7MpR2cK/kH0EcXp9784WJfLfwqWh1qoCWiUAZ4qDXEUdbXz0xvV87iZHTjD1mW
eGGWu1Z1fmJMqnQ2TWdDYK150a+3Uxhdq7edQ3rymHVwTwvvrxblJYGsUu7wWY7l
ELkEakC3bzTG/YAVOnjwafyHr03tX2GQ4Tawwa5SWjj/bfxTs4y9qkYZWi/gNjJa
OMUSG5dpZEw53hDPzVXNYeYJsnFWnSasGYKJKW8Gua8u6LTcVbhkpSWjTSpGPKsH
BPbJvtmJ+DDc6zYp8Bfb5tu3YAQwjNaCOIgXjB1boUYUvguoeB+O3hucgTiLRB+G
cSCFv1p/UfEcioFnXz1VpYGoHZ5kMNb8J0q+1yFA5+EJtUsWPbUzoUrxHwllzAAb
CeSOOloBR1aNy4Dgyu1TlQlnVmzZFzZd2P0zmWUsjLSCvYy/W+qW0EsIbNj/gAZk
/p22kZi+jZpOH57RCY0PAVRGiQYt1KPqdAzBY3j+qhpJrlSPiu82mU5ozHOfehFY
awX3DwtHZGOBneQ1htGjVEF9USvoB+fdSY7QDnbqnIhZxARKgGuxr3qFLu87uBE4
r6VTbQIDAQABo4IBazCCAWcwCQYDVR0TBAIwADAtBglghkgBhvhCAQ0EIBYeRWFz
eS1SU0EgR2VuZXJhdGVkIENlcnRpZmljYXRlMB0GA1UdDgQWBBTObGQQTaEY94YZ
3WfoSiAz9Y5t/TCB6QYDVR0jBIHhMIHegBTvOI0UUFinW02cF3L837msp1GwEKGB
uqSBtzCBtDELMAkGA1UEBhMCVVMxCzAJBgNVBAgTAkNBMRUwEwYDVQQHEwxTYW5G
cmFuY2lzY28xFTATBgNVBAoTDFBpeGdsbywgSW5jLjEQMA4GA1UECxMHVlBOLUNJ
RTEaMBgGA1UEAxMRdHVubmVsLnBpeGdsby5jb20xHDAaBgNVBCkTE0JhbGEgQ2hh
bmRyYXNla2FyYW4xHjAcBgkqhkiG9w0BCQEWD2JhbGFAcGl4Z2xvLmNvbYIJAKbb
xoOA5qB5MBMGA1UdJQQMMAoGCCsGAQUFBwMCMAsGA1UdDwQEAwIHgDANBgkqhkiG
9w0BAQUFAAOCAgEALrCRKmYbPfTROsIWaz92J1zOciWuptwTNoJ99vLLc4crkT1K
EkAqZ+yEFr5qZwvms5LpoWIzfbpz9NW5cl2TAizcAULMxcJzTW65wp7a933Z0HQy
6MRShu3NGZ8Zc8ETgJcl+oBWeamimz0CPUhy9H7338KVjttSeN3jvYsra2b9uGtf
18C3ZNCf006c7079c2CbHC6leBS8O7FBsSSTmJfE+ziZBKDJgFs3BK7lnz0+ohfu
P/9VVUiqtsI9ypNVgY5XF5Ara4RPq1XREHzz7Ixbd5Z2K3A+hiPlaRh10/JfPg2U
sHgmQ5qKKTOizKILPSS5cobS6pWOrVemSVmOOCXsI58vL+qyE2Nb5JcqqgWEug+6
fvhhgrWT/aMFcJ7TONZVE2Ny1/mmaZBSp9Bir0biH2SFvaUj2L9srFpbKqpF+s9p
KmYb9rYVjexw1LlAcybI9xB9J46jQT1Oi9qhkKQSWtZSEvqXbBWXob0x9OX0JpJv
OEVXvgYWcDsaRyspGzlpreYYmkUfi46jTwpB2qKMfymckTsokRS4/u4TMVsnBykO
Rf64D8WlBP+9ptv34OQCc1nC695mzB+TxY+KRR9ALcPlL1CCMGtkBLP3mv6JDAgJ
0z1IJU1+rpTM8yvjQELskLFa4SBrdDhqMsAPo2fdNCmby38YLvRJ9wKPQC0=
-----END CERTIFICATE-----
