Certificate:
    Data:
        Version: 3 (0x2)
        Serial Number: 404 (0x194)
    Signature Algorithm: sha1WithRSAEncryption
        Issuer: C=US, ST=CA, L=SanFrancisco, O=Pixglo, Inc., OU=VPN-CIE, CN=tunnel.pixglo.com/name=Bala Chandrasekaran/emailAddress=bala@pixglo.com
        Validity
            Not Before: Feb 14 06:32:53 2018 GMT
            Not After : Feb 12 06:32:53 2028 GMT
        Subject: C=US, ST=CA, L=SanFrancisco, O=Pixglo, Inc., OU=VPN-CIE, CN=cie403/name=Bala Chandrasekaran/emailAddress=bala@pixglo.com
        Subject Public Key Info:
            Public Key Algorithm: rsaEncryption
                Public-Key: (4096 bit)
                Modulus:
                    00:c7:84:ff:ff:0b:06:04:35:0a:75:bf:1b:17:ec:
                    69:17:cc:e5:da:5a:5c:3c:3d:2c:80:54:5a:c3:df:
                    58:7e:41:67:1b:6d:0c:73:21:06:cd:13:12:a8:9c:
                    e5:c0:88:7b:5a:32:ac:7e:3b:07:32:5d:00:f4:7c:
                    a8:e5:ba:47:82:80:8b:d5:75:be:0f:bf:b5:f5:05:
                    d2:b1:6c:35:9d:5f:fd:34:aa:7b:36:8e:d3:fe:d4:
                    60:cb:d3:a8:bb:57:8e:c6:c9:36:29:41:73:4e:5e:
                    b2:d3:d9:55:92:d9:e0:3f:9e:e5:16:3b:d3:fa:db:
                    e2:ce:98:1e:47:32:b7:49:f5:c6:6c:3d:f1:5f:74:
                    e5:57:82:8d:a1:8a:b2:c3:11:be:0c:b7:15:b9:c6:
                    91:a3:51:81:a5:f0:b9:d9:d5:0f:9d:02:0c:d2:22:
                    4e:b9:f2:32:c9:91:9f:01:25:e7:24:18:72:0c:3f:
                    e2:79:a1:71:94:bd:fb:d3:c8:c6:eb:36:43:d8:20:
                    35:dc:09:22:cf:af:38:52:c0:de:48:a1:c7:9d:39:
                    08:ad:89:71:b5:f3:90:38:83:c3:3b:29:47:12:ab:
                    b6:c3:66:11:7e:cc:35:84:11:25:68:33:d5:3a:84:
                    bb:6c:eb:26:b5:70:98:d9:6a:07:6e:d9:6c:a2:cc:
                    e3:ff:9d:4c:c9:48:de:e8:74:af:b5:7a:e8:b2:3a:
                    d0:d6:6c:9a:af:74:41:3f:5e:d2:b6:d0:22:b7:08:
                    da:d4:52:a4:1f:ec:24:3c:39:ed:6c:c4:d5:6b:ee:
                    c2:04:7a:9e:01:88:45:ca:af:52:66:56:71:b6:00:
                    cb:1e:fb:e8:2c:61:d6:9b:7a:eb:62:26:ac:6b:a4:
                    40:d9:e8:c5:74:54:84:72:f6:8b:31:7e:24:40:2a:
                    23:85:e7:7e:e3:55:8f:7f:2a:7f:39:c7:f2:21:38:
                    17:77:6d:94:99:93:31:ff:44:23:93:83:b1:80:df:
                    a0:ca:d0:68:b4:89:7c:fe:f3:a1:87:f0:4e:5b:d9:
                    97:90:54:47:0b:c0:24:20:12:ef:40:ef:69:c7:c6:
                    c6:2c:08:71:02:4f:11:c7:e3:05:39:c3:f4:56:d2:
                    30:f5:b9:1b:19:dc:05:37:0b:ad:92:fc:14:2c:84:
                    25:8c:33:ed:87:d1:8f:8a:ec:ab:b6:03:cd:1b:45:
                    a5:90:70:e7:6d:20:4d:e2:ec:26:3e:a6:a7:49:74:
                    df:07:ac:03:90:47:3c:12:e0:8e:ee:1f:c5:fa:49:
                    1d:d0:ab:b2:03:3e:66:68:9c:24:72:08:a6:58:85:
                    2d:74:d6:c1:b4:60:1b:93:d4:cb:1c:b9:58:6b:ec:
                    95:e9:65
                Exponent: 65537 (0x10001)
        X509v3 extensions:
            X509v3 Basic Constraints: 
                CA:FALSE
            Netscape Comment: 
                Easy-RSA Generated Certificate
            X509v3 Subject Key Identifier: 
                F8:D2:52:84:11:31:86:49:BC:23:2D:9F:01:FE:B9:69:38:D5:F0:49
            X509v3 Authority Key Identifier: 
                keyid:EF:38:8D:14:50:58:A7:5B:4D:9C:17:72:FC:DF:B9:AC:A7:51:B0:10
                DirName:/C=US/ST=CA/L=SanFrancisco/O=Pixglo, Inc./OU=VPN-CIE/CN=tunnel.pixglo.com/name=Bala Chandrasekaran/emailAddress=bala@pixglo.com
                serial:A6:DB:C6:83:80:E6:A0:79

            X509v3 Extended Key Usage: 
                TLS Web Client Authentication
            X509v3 Key Usage: 
                Digital Signature
    Signature Algorithm: sha1WithRSAEncryption
         22:f3:9b:9c:eb:b3:dc:b2:eb:c2:00:89:3a:38:c3:75:8d:e8:
         e8:32:ab:4f:3e:bd:31:a2:ba:2f:fd:0e:d7:c4:74:76:86:84:
         c1:41:58:28:ce:a7:f5:16:18:47:9c:e0:1b:56:fb:c5:15:79:
         c4:b1:01:1c:8c:7f:68:da:f3:68:48:e3:ed:6d:ed:d2:d9:17:
         76:cf:64:ee:23:38:b4:6f:2c:d3:f9:b7:5b:7e:0f:d7:2c:1e:
         2b:bf:86:76:53:f9:37:31:c9:62:89:ed:4b:58:42:e7:15:be:
         d2:b7:5d:16:87:9d:f9:af:8d:fe:42:00:d2:9d:24:0b:78:ee:
         19:f0:52:78:f3:c6:a5:17:76:ac:a1:2b:ae:13:24:5a:9d:78:
         62:66:85:5f:4f:91:1c:ff:6f:04:22:10:10:55:24:14:10:a4:
         3c:ce:f0:e9:e4:eb:6c:ed:42:66:b3:1d:df:1e:cb:59:0e:a3:
         52:84:75:05:49:af:1f:17:f9:93:5f:d4:a1:21:6c:dd:01:64:
         66:a2:66:54:46:f6:65:46:37:cc:21:b7:7d:6e:e8:36:ed:be:
         6b:bb:6e:81:f8:b5:62:fa:94:51:c5:d2:2d:d5:35:11:85:1c:
         c4:9b:e2:c7:2a:6e:36:9f:73:23:46:f4:0b:dc:02:45:fd:ff:
         7e:9f:08:bd:f8:d6:84:27:10:f0:df:e4:51:cf:bb:79:6e:c3:
         fc:36:ae:10:9c:85:91:fb:47:b3:50:51:08:70:61:f0:7e:cf:
         8a:fd:7f:a8:0d:01:45:ce:c6:ed:b2:e0:f8:a8:4c:d9:d0:3b:
         21:8e:61:d1:72:b4:11:56:0c:d1:43:25:d9:d1:1a:73:84:8d:
         fa:24:e6:76:bf:9c:14:08:c7:28:04:72:cf:58:e3:ae:b7:f4:
         5f:b8:5d:ac:9e:7d:f2:89:4a:e1:cd:4e:59:49:3a:35:9e:5c:
         10:65:82:79:c1:18:bc:57:e5:8f:bb:a8:fe:2d:5c:38:9a:fe:
         e3:0d:84:2a:70:b9:ad:d9:df:b4:59:a5:5d:07:d4:58:8c:47:
         13:8d:96:bf:2b:eb:18:2c:15:8a:05:23:d5:0f:b1:2e:5d:ce:
         7d:30:fd:bb:21:c9:1f:b5:da:9b:3b:aa:c5:14:f5:c3:01:ad:
         dd:d9:8c:f1:04:a0:79:bc:91:99:9a:6f:c0:5b:f1:98:e9:7a:
         2d:56:cc:64:ea:67:bd:d6:1c:0f:50:de:4c:da:13:5a:ac:7c:
         89:ae:2c:67:b1:13:6c:e7:ee:62:e5:79:69:38:a2:ec:95:5a:
         f6:89:b0:6b:51:96:12:4b:b3:70:31:c9:b6:31:ed:4f:61:c6:
         79:ff:e7:a6:18:3b:0d:cb
-----BEGIN CERTIFICATE-----
MIIHSDCCBTCgAwIBAgICAZQwDQYJKoZIhvcNAQEFBQAwgbQxCzAJBgNVBAYTAlVT
MQswCQYDVQQIEwJDQTEVMBMGA1UEBxMMU2FuRnJhbmNpc2NvMRUwEwYDVQQKEwxQ
aXhnbG8sIEluYy4xEDAOBgNVBAsTB1ZQTi1DSUUxGjAYBgNVBAMTEXR1bm5lbC5w
aXhnbG8uY29tMRwwGgYDVQQpExNCYWxhIENoYW5kcmFzZWthcmFuMR4wHAYJKoZI
hvcNAQkBFg9iYWxhQHBpeGdsby5jb20wHhcNMTgwMjE0MDYzMjUzWhcNMjgwMjEy
MDYzMjUzWjCBqTELMAkGA1UEBhMCVVMxCzAJBgNVBAgTAkNBMRUwEwYDVQQHEwxT
YW5GcmFuY2lzY28xFTATBgNVBAoTDFBpeGdsbywgSW5jLjEQMA4GA1UECxMHVlBO
LUNJRTEPMA0GA1UEAxMGY2llNDAzMRwwGgYDVQQpExNCYWxhIENoYW5kcmFzZWth
cmFuMR4wHAYJKoZIhvcNAQkBFg9iYWxhQHBpeGdsby5jb20wggIiMA0GCSqGSIb3
DQEBAQUAA4ICDwAwggIKAoICAQDHhP//CwYENQp1vxsX7GkXzOXaWlw8PSyAVFrD
31h+QWcbbQxzIQbNExKonOXAiHtaMqx+OwcyXQD0fKjlukeCgIvVdb4Pv7X1BdKx
bDWdX/00qns2jtP+1GDL06i7V47GyTYpQXNOXrLT2VWS2eA/nuUWO9P62+LOmB5H
MrdJ9cZsPfFfdOVXgo2hirLDEb4MtxW5xpGjUYGl8LnZ1Q+dAgzSIk658jLJkZ8B
JeckGHIMP+J5oXGUvfvTyMbrNkPYIDXcCSLPrzhSwN5IocedOQitiXG185A4g8M7
KUcSq7bDZhF+zDWEESVoM9U6hLts6ya1cJjZagdu2WyizOP/nUzJSN7odK+1euiy
OtDWbJqvdEE/XtK20CK3CNrUUqQf7CQ8Oe1sxNVr7sIEep4BiEXKr1JmVnG2AMse
++gsYdabeutiJqxrpEDZ6MV0VIRy9osxfiRAKiOF537jVY9/Kn85x/IhOBd3bZSZ
kzH/RCOTg7GA36DK0Gi0iXz+86GH8E5b2ZeQVEcLwCQgEu9A72nHxsYsCHECTxHH
4wU5w/RW0jD1uRsZ3AU3C62S/BQshCWMM+2H0Y+K7Ku2A80bRaWQcOdtIE3i7CY+
pqdJdN8HrAOQRzwS4I7uH8X6SR3Qq7IDPmZonCRyCKZYhS101sG0YBuT1MscuVhr
7JXpZQIDAQABo4IBazCCAWcwCQYDVR0TBAIwADAtBglghkgBhvhCAQ0EIBYeRWFz
eS1SU0EgR2VuZXJhdGVkIENlcnRpZmljYXRlMB0GA1UdDgQWBBT40lKEETGGSbwj
LZ8B/rlpONXwSTCB6QYDVR0jBIHhMIHegBTvOI0UUFinW02cF3L837msp1GwEKGB
uqSBtzCBtDELMAkGA1UEBhMCVVMxCzAJBgNVBAgTAkNBMRUwEwYDVQQHEwxTYW5G
cmFuY2lzY28xFTATBgNVBAoTDFBpeGdsbywgSW5jLjEQMA4GA1UECxMHVlBOLUNJ
RTEaMBgGA1UEAxMRdHVubmVsLnBpeGdsby5jb20xHDAaBgNVBCkTE0JhbGEgQ2hh
bmRyYXNla2FyYW4xHjAcBgkqhkiG9w0BCQEWD2JhbGFAcGl4Z2xvLmNvbYIJAKbb
xoOA5qB5MBMGA1UdJQQMMAoGCCsGAQUFBwMCMAsGA1UdDwQEAwIHgDANBgkqhkiG
9w0BAQUFAAOCAgEAIvObnOuz3LLrwgCJOjjDdY3o6DKrTz69MaK6L/0O18R0doaE
wUFYKM6n9RYYR5zgG1b7xRV5xLEBHIx/aNrzaEjj7W3t0tkXds9k7iM4tG8s0/m3
W34P1yweK7+GdlP5NzHJYontS1hC5xW+0rddFoed+a+N/kIA0p0kC3juGfBSePPG
pRd2rKErrhMkWp14YmaFX0+RHP9vBCIQEFUkFBCkPM7w6eTrbO1CZrMd3x7LWQ6j
UoR1BUmvHxf5k1/UoSFs3QFkZqJmVEb2ZUY3zCG3fW7oNu2+a7tugfi1YvqUUcXS
LdU1EYUcxJvixypuNp9zI0b0C9wCRf3/fp8IvfjWhCcQ8N/kUc+7eW7D/DauEJyF
kftHs1BRCHBh8H7Piv1/qA0BRc7G7bLg+KhM2dA7IY5h0XK0EVYM0UMl2dEac4SN
+iTmdr+cFAjHKARyz1jjrrf0X7hdrJ598olK4c1OWUk6NZ5cEGWCecEYvFflj7uo
/i1cOJr+4w2EKnC5rdnftFmlXQfUWIxHE42WvyvrGCwVigUj1Q+xLl3OfTD9uyHJ
H7XamzuqxRT1wwGt3dmM8QSgebyRmZpvwFvxmOl6LVbMZOpnvdYcD1DeTNoTWqx8
ia4sZ7ETbOfuYuV5aTii7JVa9omwa1GWEkuzcDHJtjHtT2HGef/nphg7Dcs=
-----END CERTIFICATE-----
