Certificate:
    Data:
        Version: 3 (0x2)
        Serial Number: 410 (0x19a)
    Signature Algorithm: sha1WithRSAEncryption
        Issuer: C=US, ST=CA, L=SanFrancisco, O=Pixglo, Inc., OU=VPN-CIE, CN=tunnel.pixglo.com/name=Bala Chandrasekaran/emailAddress=bala@pixglo.com
        Validity
            Not Before: Feb 14 06:33:04 2018 GMT
            Not After : Feb 12 06:33:04 2028 GMT
        Subject: C=US, ST=CA, L=SanFrancisco, O=Pixglo, Inc., OU=VPN-CIE, CN=cie409/name=Bala Chandrasekaran/emailAddress=bala@pixglo.com
        Subject Public Key Info:
            Public Key Algorithm: rsaEncryption
                Public-Key: (4096 bit)
                Modulus:
                    00:d4:6c:0e:38:de:da:6f:3f:b6:bc:2c:12:4f:a3:
                    5c:f8:30:66:3e:e7:65:2c:a0:a5:74:aa:8f:4e:95:
                    f6:cd:a8:3d:5a:60:72:87:15:ac:5b:b6:7c:9b:7a:
                    ba:cc:cf:19:c7:d2:ce:01:b3:78:db:ef:8e:3d:c0:
                    75:42:69:23:46:8e:42:15:3e:b4:19:f6:b5:f6:22:
                    8d:2c:20:96:a4:89:5d:84:93:91:99:a2:42:c4:b0:
                    50:cb:8e:51:34:af:ca:1d:3a:45:a7:cc:3a:d0:99:
                    88:51:03:25:af:ef:65:c4:57:34:47:bf:aa:2c:3b:
                    dc:4b:46:65:b1:76:fc:0d:7a:a3:eb:19:3b:07:6a:
                    dd:66:f4:dd:9c:67:f5:8f:6e:8f:29:c7:05:b5:5d:
                    c0:1f:94:46:69:ad:2a:b2:bf:4f:ee:df:bf:9e:5b:
                    1a:d9:a7:fa:fe:17:13:c1:79:89:95:d4:c2:ef:32:
                    28:c5:dc:4c:f0:53:6e:c3:91:d4:18:32:af:1d:70:
                    4f:33:ee:63:63:42:a0:fb:3b:f2:fb:86:8c:81:f3:
                    7c:ba:2f:85:2e:3d:17:5a:bd:e5:9c:60:81:ed:93:
                    fb:12:48:be:7c:ab:63:7a:bb:fd:0d:f7:87:97:1a:
                    6c:2c:30:de:90:ac:c0:07:3f:7a:5b:08:61:94:2d:
                    2e:ae:a1:c8:b6:00:20:9d:df:9a:66:1d:32:56:43:
                    f2:28:fc:52:a7:4e:79:b2:34:1b:5b:3b:8f:ee:3f:
                    0a:11:d0:5c:13:74:ff:d3:08:8c:c6:50:55:da:42:
                    02:cf:cb:27:1f:a1:91:76:88:25:b2:2a:05:ac:ca:
                    69:fd:14:30:3b:c0:6e:7b:63:34:de:8b:0c:1b:32:
                    70:26:d3:80:9d:e8:59:80:6b:15:3d:bf:76:3d:e0:
                    06:84:24:7a:39:df:5a:21:65:71:a9:f2:a8:8e:40:
                    e8:82:8c:a1:1f:32:94:49:63:eb:dd:1f:79:01:31:
                    13:bb:7c:87:ec:d6:d5:29:45:38:58:b5:b1:28:eb:
                    c8:ba:50:72:1a:c6:22:37:46:34:a0:dd:05:8c:72:
                    70:f2:da:76:9a:22:0e:36:e1:f9:07:5e:07:27:41:
                    14:2d:a8:98:1d:2a:23:e0:df:b2:8e:84:54:c8:42:
                    2f:41:2d:ce:4f:1f:d7:37:41:19:64:7e:05:49:96:
                    3b:be:46:90:55:b2:d0:2d:e3:0b:ad:d9:ad:d2:28:
                    a2:a2:9f:39:3b:43:37:c1:08:9c:8f:64:b5:d8:0d:
                    41:db:53:c2:e1:9a:ed:63:4e:15:04:b9:04:f6:53:
                    49:c9:9d:97:62:73:91:1d:c0:c1:30:bb:67:c4:b0:
                    c0:b0:2d
                Exponent: 65537 (0x10001)
        X509v3 extensions:
            X509v3 Basic Constraints: 
                CA:FALSE
            Netscape Comment: 
                Easy-RSA Generated Certificate
            X509v3 Subject Key Identifier: 
                2E:9C:0C:9B:76:1E:08:37:44:7F:8B:B5:D4:3B:41:D5:81:01:42:EF
            X509v3 Authority Key Identifier: 
                keyid:EF:38:8D:14:50:58:A7:5B:4D:9C:17:72:FC:DF:B9:AC:A7:51:B0:10
                DirName:/C=US/ST=CA/L=SanFrancisco/O=Pixglo, Inc./OU=VPN-CIE/CN=tunnel.pixglo.com/name=Bala Chandrasekaran/emailAddress=bala@pixglo.com
                serial:A6:DB:C6:83:80:E6:A0:79

            X509v3 Extended Key Usage: 
                TLS Web Client Authentication
            X509v3 Key Usage: 
                Digital Signature
    Signature Algorithm: sha1WithRSAEncryption
         22:f3:ff:af:88:3d:e7:6d:d1:10:17:4e:f1:9c:8f:a9:e6:59:
         d7:49:fc:66:e1:e6:dc:e3:e8:81:2e:41:2b:ab:80:b8:e8:2d:
         3f:33:23:ba:aa:ee:d8:7f:1a:c4:5a:a9:9b:aa:04:cc:61:2a:
         ee:67:9e:26:91:77:af:59:98:aa:2f:cb:d0:ec:14:f0:b0:97:
         d2:13:c5:c1:5a:76:1d:96:a0:9c:7b:5d:00:cd:01:75:53:b5:
         ab:cd:ce:21:f7:e9:3f:1d:a5:85:30:4a:76:40:eb:04:24:9b:
         e0:60:4d:0e:b3:16:4c:96:5e:d4:b0:ff:12:4c:8f:0e:67:5f:
         75:2c:b0:c2:22:4e:9b:ff:fe:1d:85:53:af:40:34:86:89:be:
         26:fe:95:88:8c:21:c3:cb:7f:85:79:61:6b:ad:24:8e:41:d2:
         c9:3a:b8:e4:a1:b2:a9:80:b9:07:07:87:eb:f9:12:23:6b:e1:
         a5:18:71:62:cb:b7:84:68:4c:8e:19:80:4b:90:e0:b1:e9:1d:
         22:05:f6:b7:e7:6a:80:0c:3e:73:05:32:f8:5f:92:ad:61:54:
         14:0e:49:9c:13:a6:9e:b8:02:2b:39:99:cd:7f:cb:0f:48:e5:
         64:26:52:de:98:a9:97:b6:1b:18:a3:03:a5:95:d2:46:ba:3d:
         e1:bb:98:48:36:38:84:12:b6:f5:74:55:2e:8a:7d:24:e3:40:
         75:28:d6:28:41:d5:21:a6:44:e7:a3:03:9a:97:b3:7b:4b:ef:
         c3:ae:00:af:cc:8b:17:e3:dd:ca:57:9a:55:f0:9f:7e:ee:e2:
         13:cb:0b:1a:94:8d:eb:8d:fb:89:50:f9:b4:1e:01:76:27:59:
         ed:5f:da:6c:58:20:67:8a:65:13:f4:01:4d:81:ce:f2:ee:7f:
         01:e0:e0:9a:0f:9e:92:99:c8:e4:8f:9b:6e:6f:e9:06:c3:8b:
         ce:9e:79:83:67:7d:24:60:e3:a5:7a:85:65:92:65:01:d8:8d:
         2d:70:07:57:94:63:00:52:aa:3f:4b:93:c6:9e:b9:c5:55:b4:
         e5:d6:43:04:00:bc:2b:38:bf:64:06:5a:1d:10:aa:49:80:3a:
         09:23:ae:c8:66:02:f5:73:aa:09:f8:e5:e1:e3:7f:2f:57:39:
         86:a0:15:13:8e:23:05:58:0c:78:04:98:02:d9:e3:8e:81:2d:
         85:72:82:1c:24:72:20:61:a9:5f:a3:f3:a5:5a:47:8f:13:3a:
         b3:9f:79:49:b6:85:03:5a:da:05:c4:7f:12:ad:08:27:11:72:
         39:f2:19:a2:2f:18:30:48:70:ff:07:1a:3d:2b:96:87:2c:9c:
         43:fe:7f:e8:1f:27:47:b1
-----BEGIN CERTIFICATE-----
MIIHSDCCBTCgAwIBAgICAZowDQYJKoZIhvcNAQEFBQAwgbQxCzAJBgNVBAYTAlVT
MQswCQYDVQQIEwJDQTEVMBMGA1UEBxMMU2FuRnJhbmNpc2NvMRUwEwYDVQQKEwxQ
aXhnbG8sIEluYy4xEDAOBgNVBAsTB1ZQTi1DSUUxGjAYBgNVBAMTEXR1bm5lbC5w
aXhnbG8uY29tMRwwGgYDVQQpExNCYWxhIENoYW5kcmFzZWthcmFuMR4wHAYJKoZI
hvcNAQkBFg9iYWxhQHBpeGdsby5jb20wHhcNMTgwMjE0MDYzMzA0WhcNMjgwMjEy
MDYzMzA0WjCBqTELMAkGA1UEBhMCVVMxCzAJBgNVBAgTAkNBMRUwEwYDVQQHEwxT
YW5GcmFuY2lzY28xFTATBgNVBAoTDFBpeGdsbywgSW5jLjEQMA4GA1UECxMHVlBO
LUNJRTEPMA0GA1UEAxMGY2llNDA5MRwwGgYDVQQpExNCYWxhIENoYW5kcmFzZWth
cmFuMR4wHAYJKoZIhvcNAQkBFg9iYWxhQHBpeGdsby5jb20wggIiMA0GCSqGSIb3
DQEBAQUAA4ICDwAwggIKAoICAQDUbA443tpvP7a8LBJPo1z4MGY+52UsoKV0qo9O
lfbNqD1aYHKHFaxbtnyberrMzxnH0s4Bs3jb7449wHVCaSNGjkIVPrQZ9rX2Io0s
IJakiV2Ek5GZokLEsFDLjlE0r8odOkWnzDrQmYhRAyWv72XEVzRHv6osO9xLRmWx
dvwNeqPrGTsHat1m9N2cZ/WPbo8pxwW1XcAflEZprSqyv0/u37+eWxrZp/r+FxPB
eYmV1MLvMijF3EzwU27DkdQYMq8dcE8z7mNjQqD7O/L7hoyB83y6L4UuPRdaveWc
YIHtk/sSSL58q2N6u/0N94eXGmwsMN6QrMAHP3pbCGGULS6uoci2ACCd35pmHTJW
Q/Io/FKnTnmyNBtbO4/uPwoR0FwTdP/TCIzGUFXaQgLPyycfoZF2iCWyKgWsymn9
FDA7wG57YzTeiwwbMnAm04Cd6FmAaxU9v3Y94AaEJHo531ohZXGp8qiOQOiCjKEf
MpRJY+vdH3kBMRO7fIfs1tUpRThYtbEo68i6UHIaxiI3RjSg3QWMcnDy2naaIg42
4fkHXgcnQRQtqJgdKiPg37KOhFTIQi9BLc5PH9c3QRlkfgVJlju+RpBVstAt4wut
2a3SKKKinzk7QzfBCJyPZLXYDUHbU8Lhmu1jThUEuQT2U0nJnZdic5EdwMEwu2fE
sMCwLQIDAQABo4IBazCCAWcwCQYDVR0TBAIwADAtBglghkgBhvhCAQ0EIBYeRWFz
eS1SU0EgR2VuZXJhdGVkIENlcnRpZmljYXRlMB0GA1UdDgQWBBQunAybdh4IN0R/
i7XUO0HVgQFC7zCB6QYDVR0jBIHhMIHegBTvOI0UUFinW02cF3L837msp1GwEKGB
uqSBtzCBtDELMAkGA1UEBhMCVVMxCzAJBgNVBAgTAkNBMRUwEwYDVQQHEwxTYW5G
cmFuY2lzY28xFTATBgNVBAoTDFBpeGdsbywgSW5jLjEQMA4GA1UECxMHVlBOLUNJ
RTEaMBgGA1UEAxMRdHVubmVsLnBpeGdsby5jb20xHDAaBgNVBCkTE0JhbGEgQ2hh
bmRyYXNla2FyYW4xHjAcBgkqhkiG9w0BCQEWD2JhbGFAcGl4Z2xvLmNvbYIJAKbb
xoOA5qB5MBMGA1UdJQQMMAoGCCsGAQUFBwMCMAsGA1UdDwQEAwIHgDANBgkqhkiG
9w0BAQUFAAOCAgEAIvP/r4g9523REBdO8ZyPqeZZ10n8ZuHm3OPogS5BK6uAuOgt
PzMjuqru2H8axFqpm6oEzGEq7meeJpF3r1mYqi/L0OwU8LCX0hPFwVp2HZagnHtd
AM0BdVO1q83OIffpPx2lhTBKdkDrBCSb4GBNDrMWTJZe1LD/EkyPDmdfdSywwiJO
m//+HYVTr0A0hom+Jv6ViIwhw8t/hXlha60kjkHSyTq45KGyqYC5BweH6/kSI2vh
pRhxYsu3hGhMjhmAS5DgsekdIgX2t+dqgAw+cwUy+F+SrWFUFA5JnBOmnrgCKzmZ
zX/LD0jlZCZS3pipl7YbGKMDpZXSRro94buYSDY4hBK29XRVLop9JONAdSjWKEHV
IaZE56MDmpeze0vvw64Ar8yLF+PdyleaVfCffu7iE8sLGpSN6437iVD5tB4BdidZ
7V/abFggZ4plE/QBTYHO8u5/AeDgmg+ekpnI5I+bbm/pBsOLzp55g2d9JGDjpXqF
ZZJlAdiNLXAHV5RjAFKqP0uTxp65xVW05dZDBAC8Kzi/ZAZaHRCqSYA6CSOuyGYC
9XOqCfjl4eN/L1c5hqAVE44jBVgMeASYAtnjjoEthXKCHCRyIGGpX6PzpVpHjxM6
s595SbaFA1raBcR/Eq0IJxFyOfIZoi8YMEhw/wcaPSuWhyycQ/5/6B8nR7E=
-----END CERTIFICATE-----
