Certificate:
    Data:
        Version: 3 (0x2)
        Serial Number: 412 (0x19c)
    Signature Algorithm: sha1WithRSAEncryption
        Issuer: C=US, ST=CA, L=SanFrancisco, O=Pixglo, Inc., OU=VPN-CIE, CN=tunnel.pixglo.com/name=Bala Chandrasekaran/emailAddress=bala@pixglo.com
        Validity
            Not Before: Feb 14 06:33:09 2018 GMT
            Not After : Feb 12 06:33:09 2028 GMT
        Subject: C=US, ST=CA, L=SanFrancisco, O=Pixglo, Inc., OU=VPN-CIE, CN=cie411/name=Bala Chandrasekaran/emailAddress=bala@pixglo.com
        Subject Public Key Info:
            Public Key Algorithm: rsaEncryption
                Public-Key: (4096 bit)
                Modulus:
                    00:95:d2:8d:7a:74:a1:ec:a8:fd:60:a3:bf:27:e7:
                    bb:cc:6b:92:dc:fb:5e:73:71:48:40:b4:40:c1:9e:
                    0c:08:24:d9:db:e6:36:d3:84:c9:58:f1:d6:24:9c:
                    f0:89:93:db:90:ca:5e:ce:65:0d:b8:48:71:59:33:
                    e1:ed:eb:88:4d:c4:0b:7f:6e:04:59:4a:a2:8a:44:
                    d0:79:2c:de:93:cf:89:65:8b:d8:3c:e1:59:f5:dd:
                    c2:43:b1:83:b3:9b:69:ba:80:e6:1b:01:16:62:72:
                    5a:63:59:70:21:ce:f9:47:57:56:ba:ed:57:40:1d:
                    64:89:39:b0:62:f9:54:f5:3f:2d:5d:86:f3:89:4c:
                    8b:ff:fb:72:ab:20:be:aa:76:a9:4e:73:5a:43:49:
                    df:23:fc:58:95:e7:74:c6:45:76:36:6b:39:77:b9:
                    23:51:6e:5c:b4:b3:26:c3:f1:1d:5b:54:33:24:06:
                    e3:50:40:f2:9d:1d:3f:c8:bd:e4:06:7e:7c:43:6f:
                    f5:bc:4c:5f:d8:ef:e7:39:94:07:8f:02:4c:e3:2c:
                    af:7e:8d:06:94:89:c4:78:ee:c1:29:15:7b:49:a8:
                    2e:25:58:63:ac:c8:9d:7b:b6:3f:04:91:27:16:8d:
                    e1:a2:89:c5:9f:17:b5:ed:29:49:40:5b:1c:c8:3b:
                    7e:c2:16:32:17:38:dc:d9:1e:0c:17:9e:71:33:d3:
                    6e:f4:a5:d4:d3:a9:25:22:c7:2b:98:de:4f:0b:3b:
                    3c:19:17:82:4f:4e:b7:0a:38:29:ea:cc:77:ff:1b:
                    5a:50:99:fd:b4:50:ba:f7:cc:46:ce:ad:e0:18:f4:
                    ef:97:ae:62:82:1c:ec:70:69:70:78:76:a1:b2:3b:
                    c9:34:e0:58:12:45:d9:4a:cd:4f:48:69:85:c7:f5:
                    85:ef:14:ef:ca:c4:4b:6e:76:04:83:74:2f:66:19:
                    d2:ed:9d:54:21:e9:38:52:d6:04:e3:78:b9:2c:bc:
                    f2:1d:76:b0:5e:1d:5b:5a:e6:4b:f3:8e:c8:62:fe:
                    48:9b:dc:a3:28:16:1f:78:ff:61:29:5e:93:36:99:
                    9c:1c:43:b0:a1:20:84:5f:8b:94:24:d3:f3:0a:fb:
                    02:45:61:2b:b4:e8:fd:90:3f:37:18:3f:b2:2d:ed:
                    ff:e1:aa:fa:fb:05:29:de:e4:5a:c4:7e:31:46:d4:
                    e3:7a:37:18:d9:75:74:09:e7:2e:ef:c6:55:6d:2b:
                    e5:e9:95:82:32:91:83:a9:95:f5:bc:cf:a9:92:ed:
                    ea:eb:7b:62:9c:69:eb:bb:e1:0a:51:14:06:1d:ae:
                    6f:05:f6:76:dd:be:d9:9d:b8:f3:d2:4a:bc:90:88:
                    06:58:6d
                Exponent: 65537 (0x10001)
        X509v3 extensions:
            X509v3 Basic Constraints: 
                CA:FALSE
            Netscape Comment: 
                Easy-RSA Generated Certificate
            X509v3 Subject Key Identifier: 
                F2:57:37:8C:3A:AB:FD:6E:D4:11:04:9F:28:D6:6F:96:AB:19:85:7D
            X509v3 Authority Key Identifier: 
                keyid:EF:38:8D:14:50:58:A7:5B:4D:9C:17:72:FC:DF:B9:AC:A7:51:B0:10
                DirName:/C=US/ST=CA/L=SanFrancisco/O=Pixglo, Inc./OU=VPN-CIE/CN=tunnel.pixglo.com/name=Bala Chandrasekaran/emailAddress=bala@pixglo.com
                serial:A6:DB:C6:83:80:E6:A0:79

            X509v3 Extended Key Usage: 
                TLS Web Client Authentication
            X509v3 Key Usage: 
                Digital Signature
    Signature Algorithm: sha1WithRSAEncryption
         07:b2:1c:e0:31:a9:1d:25:10:e9:2d:57:b4:67:b3:38:c9:22:
         b2:dd:32:bf:66:c0:53:e7:d1:5a:2f:eb:42:81:49:d5:3f:4e:
         15:96:03:cb:df:0a:e6:0e:1e:95:33:56:02:f2:3c:98:61:e7:
         19:f5:19:bd:0d:eb:10:e1:54:e8:fa:29:b7:7b:87:f5:62:56:
         d2:93:30:f6:74:c0:a5:e3:89:92:07:78:e6:0e:92:8e:fc:23:
         e7:2b:61:09:81:7b:a3:3c:f3:12:ba:47:ee:6e:ba:0c:5d:77:
         45:03:9e:15:13:c0:95:ce:62:ad:6d:b8:1e:1e:af:ca:7d:18:
         8d:3f:26:e2:21:95:e4:7b:c4:f0:47:64:5a:37:d2:fe:49:f3:
         e6:c0:2f:41:f0:9b:b5:e3:a3:34:7a:36:43:3c:fa:9c:db:b0:
         f5:7e:0c:0c:d0:a3:58:75:31:0b:b2:95:a0:e5:ba:73:14:4e:
         61:fa:8d:e0:32:b6:4d:db:4c:92:25:f4:c8:a2:fb:23:11:2b:
         80:0f:15:f1:de:f3:3d:a5:65:78:cf:93:05:ca:6b:a6:a7:4e:
         89:5d:bb:29:5c:d6:b5:f7:19:7f:ea:68:46:3c:59:91:ae:1c:
         ab:a8:66:ab:b0:6f:10:73:9e:a9:57:5a:f3:26:ee:22:b7:5b:
         5d:9c:63:59:1e:fd:e7:42:fb:73:62:cd:de:c4:02:cb:e7:69:
         a8:f2:d8:34:6e:c5:0b:66:38:ea:44:20:c2:5d:1d:f5:ef:97:
         a7:5f:bf:67:d9:26:17:9f:77:80:b4:c7:ab:92:18:c4:de:e8:
         21:a0:4b:d6:00:99:a3:85:89:b0:dc:b3:b2:3f:7f:cd:5f:7e:
         f3:e0:fe:3b:90:91:ad:11:9c:65:0d:02:b5:f8:80:13:5d:f2:
         8e:07:e8:ce:84:f5:99:49:1c:14:7e:f8:61:4d:b1:36:cf:f6:
         4e:70:dc:6f:1e:bf:b7:dc:96:d5:d4:0b:34:27:e3:0b:88:6c:
         dd:0c:19:ba:c5:ae:24:6f:4e:73:aa:83:2d:9c:19:9f:fe:e6:
         70:6b:11:3e:3f:13:c0:4f:07:b5:ea:a3:0e:d6:c4:a0:9e:40:
         cc:d9:a6:80:c4:71:e6:fc:70:3b:38:b2:85:a2:7e:87:66:ed:
         b2:f8:af:0a:5a:0e:de:2b:d8:a4:51:bc:96:82:65:80:3d:d8:
         36:b8:3c:27:38:ad:5f:c3:e5:d9:a3:00:bf:90:59:7c:07:3b:
         6d:4e:a8:1c:bb:df:36:6c:dd:30:6b:18:80:88:70:77:47:f6:
         78:f9:98:dc:be:ed:2c:63:9f:f7:f4:ca:cd:98:87:cc:4b:eb:
         7c:a9:bb:41:3a:56:7d:c4
-----BEGIN CERTIFICATE-----
MIIHSDCCBTCgAwIBAgICAZwwDQYJKoZIhvcNAQEFBQAwgbQxCzAJBgNVBAYTAlVT
MQswCQYDVQQIEwJDQTEVMBMGA1UEBxMMU2FuRnJhbmNpc2NvMRUwEwYDVQQKEwxQ
aXhnbG8sIEluYy4xEDAOBgNVBAsTB1ZQTi1DSUUxGjAYBgNVBAMTEXR1bm5lbC5w
aXhnbG8uY29tMRwwGgYDVQQpExNCYWxhIENoYW5kcmFzZWthcmFuMR4wHAYJKoZI
hvcNAQkBFg9iYWxhQHBpeGdsby5jb20wHhcNMTgwMjE0MDYzMzA5WhcNMjgwMjEy
MDYzMzA5WjCBqTELMAkGA1UEBhMCVVMxCzAJBgNVBAgTAkNBMRUwEwYDVQQHEwxT
YW5GcmFuY2lzY28xFTATBgNVBAoTDFBpeGdsbywgSW5jLjEQMA4GA1UECxMHVlBO
LUNJRTEPMA0GA1UEAxMGY2llNDExMRwwGgYDVQQpExNCYWxhIENoYW5kcmFzZWth
cmFuMR4wHAYJKoZIhvcNAQkBFg9iYWxhQHBpeGdsby5jb20wggIiMA0GCSqGSIb3
DQEBAQUAA4ICDwAwggIKAoICAQCV0o16dKHsqP1go78n57vMa5Lc+15zcUhAtEDB
ngwIJNnb5jbThMlY8dYknPCJk9uQyl7OZQ24SHFZM+Ht64hNxAt/bgRZSqKKRNB5
LN6Tz4lli9g84Vn13cJDsYOzm2m6gOYbARZiclpjWXAhzvlHV1a67VdAHWSJObBi
+VT1Py1dhvOJTIv/+3KrIL6qdqlOc1pDSd8j/FiV53TGRXY2azl3uSNRbly0sybD
8R1bVDMkBuNQQPKdHT/IveQGfnxDb/W8TF/Y7+c5lAePAkzjLK9+jQaUicR47sEp
FXtJqC4lWGOsyJ17tj8EkScWjeGiicWfF7XtKUlAWxzIO37CFjIXONzZHgwXnnEz
0270pdTTqSUixyuY3k8LOzwZF4JPTrcKOCnqzHf/G1pQmf20ULr3zEbOreAY9O+X
rmKCHOxwaXB4dqGyO8k04FgSRdlKzU9IaYXH9YXvFO/KxEtudgSDdC9mGdLtnVQh
6ThS1gTjeLksvPIddrBeHVta5kvzjshi/kib3KMoFh94/2EpXpM2mZwcQ7ChIIRf
i5Qk0/MK+wJFYSu06P2QPzcYP7It7f/hqvr7BSne5FrEfjFG1ON6NxjZdXQJ5y7v
xlVtK+XplYIykYOplfW8z6mS7erre2Kcaeu74QpRFAYdrm8F9nbdvtmduPPSSryQ
iAZYbQIDAQABo4IBazCCAWcwCQYDVR0TBAIwADAtBglghkgBhvhCAQ0EIBYeRWFz
eS1SU0EgR2VuZXJhdGVkIENlcnRpZmljYXRlMB0GA1UdDgQWBBTyVzeMOqv9btQR
BJ8o1m+WqxmFfTCB6QYDVR0jBIHhMIHegBTvOI0UUFinW02cF3L837msp1GwEKGB
uqSBtzCBtDELMAkGA1UEBhMCVVMxCzAJBgNVBAgTAkNBMRUwEwYDVQQHEwxTYW5G
cmFuY2lzY28xFTATBgNVBAoTDFBpeGdsbywgSW5jLjEQMA4GA1UECxMHVlBOLUNJ
RTEaMBgGA1UEAxMRdHVubmVsLnBpeGdsby5jb20xHDAaBgNVBCkTE0JhbGEgQ2hh
bmRyYXNla2FyYW4xHjAcBgkqhkiG9w0BCQEWD2JhbGFAcGl4Z2xvLmNvbYIJAKbb
xoOA5qB5MBMGA1UdJQQMMAoGCCsGAQUFBwMCMAsGA1UdDwQEAwIHgDANBgkqhkiG
9w0BAQUFAAOCAgEAB7Ic4DGpHSUQ6S1XtGezOMkist0yv2bAU+fRWi/rQoFJ1T9O
FZYDy98K5g4elTNWAvI8mGHnGfUZvQ3rEOFU6Popt3uH9WJW0pMw9nTApeOJkgd4
5g6Sjvwj5ythCYF7ozzzErpH7m66DF13RQOeFRPAlc5irW24Hh6vyn0YjT8m4iGV
5HvE8EdkWjfS/knz5sAvQfCbteOjNHo2Qzz6nNuw9X4MDNCjWHUxC7KVoOW6cxRO
YfqN4DK2TdtMkiX0yKL7IxErgA8V8d7zPaVleM+TBcprpqdOiV27KVzWtfcZf+po
RjxZka4cq6hmq7BvEHOeqVda8ybuIrdbXZxjWR7950L7c2LN3sQCy+dpqPLYNG7F
C2Y46kQgwl0d9e+Xp1+/Z9kmF593gLTHq5IYxN7oIaBL1gCZo4WJsNyzsj9/zV9+
8+D+O5CRrRGcZQ0CtfiAE13yjgfozoT1mUkcFH74YU2xNs/2TnDcbx6/t9yW1dQL
NCfjC4hs3QwZusWuJG9Oc6qDLZwZn/7mcGsRPj8TwE8HteqjDtbEoJ5AzNmmgMRx
5vxwOziyhaJ+h2btsvivCloO3ivYpFG8loJlgD3YNrg8JzitX8Pl2aMAv5BZfAc7
bU6oHLvfNmzdMGsYgIhwd0f2ePmY3L7tLGOf9/TKzZiHzEvrfKm7QTpWfcQ=
-----END CERTIFICATE-----
