Certificate:
    Data:
        Version: 3 (0x2)
        Serial Number: 414 (0x19e)
    Signature Algorithm: sha1WithRSAEncryption
        Issuer: C=US, ST=CA, L=SanFrancisco, O=Pixglo, Inc., OU=VPN-CIE, CN=tunnel.pixglo.com/name=Bala Chandrasekaran/emailAddress=bala@pixglo.com
        Validity
            Not Before: Feb 14 06:33:14 2018 GMT
            Not After : Feb 12 06:33:14 2028 GMT
        Subject: C=US, ST=CA, L=SanFrancisco, O=Pixglo, Inc., OU=VPN-CIE, CN=cie413/name=Bala Chandrasekaran/emailAddress=bala@pixglo.com
        Subject Public Key Info:
            Public Key Algorithm: rsaEncryption
                Public-Key: (4096 bit)
                Modulus:
                    00:d9:93:1b:15:ce:a0:50:d8:8c:6c:fa:73:91:f7:
                    da:70:d7:c1:5c:ee:6a:e8:5f:0d:42:fc:7d:c8:48:
                    3f:c7:29:78:a5:2f:5e:a8:91:17:a9:20:f7:f2:5b:
                    e3:56:20:64:c5:a1:d8:e2:0e:7c:6c:20:46:49:d2:
                    11:81:96:09:93:01:62:2a:06:9d:92:ba:3f:60:11:
                    0a:91:a9:69:01:3c:9d:d1:f5:8f:c8:24:07:73:99:
                    7a:7f:11:7e:64:d0:9a:1c:34:73:44:af:91:d6:b4:
                    92:b0:5d:17:f6:2c:e5:cc:9c:c3:0a:42:4d:02:ba:
                    eb:c6:2b:3c:d7:6d:ff:da:c8:66:0d:7c:48:38:bf:
                    7e:f7:11:8e:5f:61:b3:30:43:11:32:0e:6a:7a:00:
                    03:ef:2e:51:ad:22:72:ec:fe:6d:3d:29:4b:40:86:
                    57:2b:65:36:a6:22:31:e3:70:bd:67:82:d5:07:b2:
                    67:97:eb:6f:bc:a1:cb:e0:4c:bb:e0:41:cc:03:2e:
                    64:f4:12:ea:1e:81:c2:bd:67:97:5f:85:ce:fa:f0:
                    f5:4a:25:34:ba:b2:44:61:be:6a:af:51:d5:f3:09:
                    0d:24:af:a6:7c:42:4e:4a:6d:27:46:e1:48:6c:22:
                    5a:c2:01:09:76:9a:00:cf:88:a1:2d:ec:8c:3d:3a:
                    fe:6e:3a:da:ad:a1:f5:e4:6e:e3:23:ee:b5:3b:61:
                    75:9f:ce:07:8c:3a:8d:af:89:02:60:a6:33:27:2f:
                    26:32:bb:fc:d8:d9:40:d5:19:86:f2:e1:ba:4d:81:
                    b7:36:03:81:58:dd:6f:93:36:87:6e:06:5c:96:f8:
                    a1:59:5f:1c:00:08:d2:6b:63:5f:5f:5c:f6:35:41:
                    3d:51:88:07:f2:17:ba:f1:e4:28:45:a3:81:42:83:
                    4a:80:ab:0e:77:01:a1:ef:c0:cb:46:e3:80:a3:d0:
                    f3:8f:08:f4:86:ff:e5:0b:80:36:d8:bc:da:31:d6:
                    fc:7b:98:fe:4c:d5:a2:a1:1f:b9:df:58:36:1f:6f:
                    f4:05:c0:5a:20:0a:39:43:8d:29:73:2b:95:57:79:
                    14:8e:b2:22:27:ad:99:d0:93:f6:bb:34:ec:2a:bc:
                    ed:c0:c7:29:c2:99:eb:42:e4:2d:23:71:b8:d4:13:
                    75:21:b3:b2:c1:0b:eb:fe:8f:58:ff:f5:e6:5c:1f:
                    ec:41:ef:7f:60:53:69:d8:af:cc:89:df:7c:e9:15:
                    91:96:ad:d9:23:3a:7f:57:b2:39:8a:2f:33:d2:7f:
                    17:4a:88:52:43:7f:6a:f6:e7:f7:09:31:b6:b1:f1:
                    7e:17:19:df:83:95:2e:49:2b:55:3e:24:88:d3:94:
                    d9:d1:51
                Exponent: 65537 (0x10001)
        X509v3 extensions:
            X509v3 Basic Constraints: 
                CA:FALSE
            Netscape Comment: 
                Easy-RSA Generated Certificate
            X509v3 Subject Key Identifier: 
                18:84:CB:2A:6A:26:15:2E:0B:54:DA:11:2E:5A:E1:1E:2B:C9:B3:0B
            X509v3 Authority Key Identifier: 
                keyid:EF:38:8D:14:50:58:A7:5B:4D:9C:17:72:FC:DF:B9:AC:A7:51:B0:10
                DirName:/C=US/ST=CA/L=SanFrancisco/O=Pixglo, Inc./OU=VPN-CIE/CN=tunnel.pixglo.com/name=Bala Chandrasekaran/emailAddress=bala@pixglo.com
                serial:A6:DB:C6:83:80:E6:A0:79

            X509v3 Extended Key Usage: 
                TLS Web Client Authentication
            X509v3 Key Usage: 
                Digital Signature
    Signature Algorithm: sha1WithRSAEncryption
         10:02:67:2b:bc:ab:43:ce:b2:86:d4:67:7d:3d:70:bd:d0:eb:
         28:77:df:46:ce:02:34:31:de:f0:94:35:32:b3:d7:49:34:74:
         bc:50:e7:b2:c8:eb:d3:77:83:7c:a3:1d:26:43:ab:17:d6:a8:
         06:79:89:16:e2:95:07:50:db:0b:c7:52:ee:41:8d:c2:a2:4d:
         71:1f:cd:7a:75:21:1f:5e:26:39:d5:88:df:b8:0f:2a:55:e1:
         c8:17:67:73:2b:20:ad:2d:5c:88:c3:e4:d8:d8:f0:dd:95:0e:
         90:6d:a0:af:70:12:28:0a:8a:83:eb:be:63:a1:97:5b:c2:be:
         40:04:08:57:a7:8f:67:42:de:60:9c:37:31:bc:f9:93:c9:03:
         de:d8:da:8b:d0:ef:c3:88:c7:86:bd:51:0f:d6:16:02:88:34:
         c2:7a:fa:16:fc:b3:27:5c:dc:04:b9:6f:03:a8:b3:29:d3:b8:
         14:94:34:ca:1c:e6:4c:b9:5d:93:78:45:18:06:51:e0:22:ae:
         70:8a:f8:cd:84:f3:17:00:fe:03:1b:fa:7f:20:05:f9:d1:d3:
         1a:4a:81:8f:9e:d0:ef:ea:7f:d9:6f:ce:66:62:ae:15:d1:da:
         cb:61:02:4f:72:56:aa:ba:ae:95:0a:02:f1:a7:6f:6e:0f:be:
         85:70:c0:c0:e1:0c:f9:f2:14:e0:36:df:18:d9:d2:72:64:e1:
         22:02:ff:dd:85:c5:70:c9:72:a0:63:bf:5c:61:1f:10:fc:41:
         34:b1:6d:2d:f8:be:65:45:fe:a1:08:08:56:35:b8:e7:2d:ce:
         85:81:7c:3b:5b:8e:67:68:ab:51:31:b7:29:f7:93:f5:f5:bb:
         96:95:c4:aa:b9:f1:7e:0b:00:8d:75:7e:10:a6:f9:95:c3:9a:
         18:fa:73:b4:77:2e:c7:6a:f4:50:9f:d7:b2:1e:09:b7:55:f1:
         b3:a7:4b:81:a6:65:90:e9:3a:43:0f:1c:4d:20:93:2b:8d:f5:
         18:6f:c6:4c:ea:3d:59:ff:89:8c:d0:a0:3a:45:c8:83:b5:95:
         80:41:44:f9:72:91:80:64:47:82:22:39:45:4f:7a:82:9a:7a:
         4f:fe:0d:96:3c:f7:79:92:75:9e:28:d1:1d:d0:b7:60:43:9e:
         92:25:fb:50:59:55:89:bf:b6:e5:be:4b:24:8e:39:e8:b2:80:
         78:9a:01:7d:a3:71:df:05:c8:20:61:e8:88:68:0c:17:36:22:
         b4:fa:ff:38:1f:14:bf:ea:bc:26:5e:81:d9:6c:43:11:6f:c8:
         0b:65:13:de:ee:a8:c0:3a:35:95:00:7a:7d:e4:5c:0c:f4:86:
         68:b2:b2:5d:4d:38:40:50
-----BEGIN CERTIFICATE-----
MIIHSDCCBTCgAwIBAgICAZ4wDQYJKoZIhvcNAQEFBQAwgbQxCzAJBgNVBAYTAlVT
MQswCQYDVQQIEwJDQTEVMBMGA1UEBxMMU2FuRnJhbmNpc2NvMRUwEwYDVQQKEwxQ
aXhnbG8sIEluYy4xEDAOBgNVBAsTB1ZQTi1DSUUxGjAYBgNVBAMTEXR1bm5lbC5w
aXhnbG8uY29tMRwwGgYDVQQpExNCYWxhIENoYW5kcmFzZWthcmFuMR4wHAYJKoZI
hvcNAQkBFg9iYWxhQHBpeGdsby5jb20wHhcNMTgwMjE0MDYzMzE0WhcNMjgwMjEy
MDYzMzE0WjCBqTELMAkGA1UEBhMCVVMxCzAJBgNVBAgTAkNBMRUwEwYDVQQHEwxT
YW5GcmFuY2lzY28xFTATBgNVBAoTDFBpeGdsbywgSW5jLjEQMA4GA1UECxMHVlBO
LUNJRTEPMA0GA1UEAxMGY2llNDEzMRwwGgYDVQQpExNCYWxhIENoYW5kcmFzZWth
cmFuMR4wHAYJKoZIhvcNAQkBFg9iYWxhQHBpeGdsby5jb20wggIiMA0GCSqGSIb3
DQEBAQUAA4ICDwAwggIKAoICAQDZkxsVzqBQ2Ixs+nOR99pw18Fc7mroXw1C/H3I
SD/HKXilL16okRepIPfyW+NWIGTFodjiDnxsIEZJ0hGBlgmTAWIqBp2Suj9gEQqR
qWkBPJ3R9Y/IJAdzmXp/EX5k0JocNHNEr5HWtJKwXRf2LOXMnMMKQk0CuuvGKzzX
bf/ayGYNfEg4v373EY5fYbMwQxEyDmp6AAPvLlGtInLs/m09KUtAhlcrZTamIjHj
cL1ngtUHsmeX62+8ocvgTLvgQcwDLmT0EuoegcK9Z5dfhc768PVKJTS6skRhvmqv
UdXzCQ0kr6Z8Qk5KbSdG4UhsIlrCAQl2mgDPiKEt7Iw9Ov5uOtqtofXkbuMj7rU7
YXWfzgeMOo2viQJgpjMnLyYyu/zY2UDVGYby4bpNgbc2A4FY3W+TNoduBlyW+KFZ
XxwACNJrY19fXPY1QT1RiAfyF7rx5ChFo4FCg0qAqw53AaHvwMtG44Cj0POPCPSG
/+ULgDbYvNox1vx7mP5M1aKhH7nfWDYfb/QFwFogCjlDjSlzK5VXeRSOsiInrZnQ
k/a7NOwqvO3AxynCmetC5C0jcbjUE3Uhs7LBC+v+j1j/9eZcH+xB739gU2nYr8yJ
33zpFZGWrdkjOn9XsjmKLzPSfxdKiFJDf2r25/cJMbax8X4XGd+DlS5JK1U+JIjT
lNnRUQIDAQABo4IBazCCAWcwCQYDVR0TBAIwADAtBglghkgBhvhCAQ0EIBYeRWFz
eS1SU0EgR2VuZXJhdGVkIENlcnRpZmljYXRlMB0GA1UdDgQWBBQYhMsqaiYVLgtU
2hEuWuEeK8mzCzCB6QYDVR0jBIHhMIHegBTvOI0UUFinW02cF3L837msp1GwEKGB
uqSBtzCBtDELMAkGA1UEBhMCVVMxCzAJBgNVBAgTAkNBMRUwEwYDVQQHEwxTYW5G
cmFuY2lzY28xFTATBgNVBAoTDFBpeGdsbywgSW5jLjEQMA4GA1UECxMHVlBOLUNJ
RTEaMBgGA1UEAxMRdHVubmVsLnBpeGdsby5jb20xHDAaBgNVBCkTE0JhbGEgQ2hh
bmRyYXNla2FyYW4xHjAcBgkqhkiG9w0BCQEWD2JhbGFAcGl4Z2xvLmNvbYIJAKbb
xoOA5qB5MBMGA1UdJQQMMAoGCCsGAQUFBwMCMAsGA1UdDwQEAwIHgDANBgkqhkiG
9w0BAQUFAAOCAgEAEAJnK7yrQ86yhtRnfT1wvdDrKHffRs4CNDHe8JQ1MrPXSTR0
vFDnssjr03eDfKMdJkOrF9aoBnmJFuKVB1DbC8dS7kGNwqJNcR/NenUhH14mOdWI
37gPKlXhyBdncysgrS1ciMPk2Njw3ZUOkG2gr3ASKAqKg+u+Y6GXW8K+QAQIV6eP
Z0LeYJw3Mbz5k8kD3tjai9Dvw4jHhr1RD9YWAog0wnr6FvyzJ1zcBLlvA6izKdO4
FJQ0yhzmTLldk3hFGAZR4CKucIr4zYTzFwD+Axv6fyAF+dHTGkqBj57Q7+p/2W/O
ZmKuFdHay2ECT3JWqrqulQoC8advbg++hXDAwOEM+fIU4DbfGNnScmThIgL/3YXF
cMlyoGO/XGEfEPxBNLFtLfi+ZUX+oQgIVjW45y3OhYF8O1uOZ2irUTG3KfeT9fW7
lpXEqrnxfgsAjXV+EKb5lcOaGPpztHcux2r0UJ/Xsh4Jt1Xxs6dLgaZlkOk6Qw8c
TSCTK431GG/GTOo9Wf+JjNCgOkXIg7WVgEFE+XKRgGRHgiI5RU96gpp6T/4Nljz3
eZJ1nijRHdC3YEOekiX7UFlVib+25b5LJI456LKAeJoBfaNx3wXIIGHoiGgMFzYi
tPr/OB8Uv+q8Jl6B2WxDEW/IC2UT3u6owDo1lQB6feRcDPSGaLKyXU04QFA=
-----END CERTIFICATE-----
