Certificate:
    Data:
        Version: 3 (0x2)
        Serial Number: 415 (0x19f)
    Signature Algorithm: sha1WithRSAEncryption
        Issuer: C=US, ST=CA, L=SanFrancisco, O=Pixglo, Inc., OU=VPN-CIE, CN=tunnel.pixglo.com/name=Bala Chandrasekaran/emailAddress=bala@pixglo.com
        Validity
            Not Before: Feb 14 06:33:15 2018 GMT
            Not After : Feb 12 06:33:15 2028 GMT
        Subject: C=US, ST=CA, L=SanFrancisco, O=Pixglo, Inc., OU=VPN-CIE, CN=cie414/name=Bala Chandrasekaran/emailAddress=bala@pixglo.com
        Subject Public Key Info:
            Public Key Algorithm: rsaEncryption
                Public-Key: (4096 bit)
                Modulus:
                    00:d5:d3:36:ea:18:0b:f6:5b:05:42:27:91:9b:ae:
                    42:3c:d8:ab:3d:73:25:f6:30:b8:ee:59:1b:e8:26:
                    26:ae:b5:32:7d:9e:a7:8a:b7:3f:e6:9d:1c:19:91:
                    df:4d:aa:96:b6:20:24:b0:3b:93:93:13:bf:a9:1f:
                    62:4a:a6:4a:1e:ef:d8:1f:ae:52:54:44:94:37:5b:
                    c9:80:24:f5:64:98:d8:21:61:39:74:50:34:74:c9:
                    6d:7e:ca:26:d1:4f:98:c9:25:3f:8f:c0:17:a0:64:
                    4c:89:76:72:d1:b3:04:92:51:3f:b5:c1:00:53:e1:
                    10:e5:e1:37:2f:0c:0e:07:0e:73:d8:de:9a:1f:92:
                    af:40:8f:46:7e:3b:24:45:6b:0c:e4:e2:90:b5:ba:
                    dc:4a:2c:26:e9:32:98:81:4f:5e:0e:05:29:fa:b1:
                    75:49:2e:a9:88:d7:b0:2d:c0:16:ff:45:77:09:cb:
                    45:cb:be:6a:da:d7:b2:bc:32:55:cf:aa:65:03:31:
                    e4:66:31:ab:76:0d:9b:b0:2c:cb:12:dc:7b:18:9e:
                    8d:20:f5:94:a4:7a:bd:dd:c7:95:13:7f:9a:d9:95:
                    d0:77:fb:6d:d9:16:c9:0f:c7:f8:3c:39:8d:3f:16:
                    93:d0:d3:3f:11:e9:88:da:68:c3:63:61:fe:31:6a:
                    5a:a6:e4:fa:69:e2:87:85:dd:7f:ba:46:8e:47:2e:
                    49:c0:6b:89:01:55:8c:c2:e0:b7:8d:e0:f4:9f:4c:
                    12:84:d1:20:4c:de:c5:38:63:46:3c:9b:58:5c:f0:
                    e9:00:e0:4b:64:88:20:52:78:ee:8e:a0:2f:22:04:
                    ea:c6:df:13:1f:91:dd:2d:f3:f9:ea:86:79:a4:e3:
                    43:74:9c:a1:03:7b:26:93:0c:11:98:30:7b:a7:ad:
                    c6:a2:d4:9c:e0:e3:c5:3d:43:54:38:dd:48:99:da:
                    f3:3f:c3:5e:a2:4a:1f:0e:2e:31:ad:a5:68:69:8b:
                    8b:c0:b3:49:65:8d:2c:8e:a1:b5:88:7a:ba:8f:92:
                    24:4d:30:02:50:fc:01:ff:76:9e:da:8a:7d:d3:4f:
                    a3:f3:5a:69:a0:63:45:d3:04:d4:9a:e0:6a:8a:06:
                    d5:85:68:aa:f2:6d:5a:19:20:82:e6:51:26:9c:52:
                    c2:09:44:2a:0a:db:e5:82:90:bd:fe:19:1d:f5:29:
                    9d:23:c0:2d:f7:4e:39:08:eb:9e:e6:0c:1a:28:7f:
                    98:37:b1:cf:b7:5e:29:f3:a6:5c:b2:14:93:b5:9e:
                    53:91:82:1c:ed:59:14:93:cf:1b:bc:dd:3c:15:1e:
                    be:c0:54:b0:9a:6d:c3:b8:21:c8:2f:3d:d5:f2:6c:
                    aa:38:df
                Exponent: 65537 (0x10001)
        X509v3 extensions:
            X509v3 Basic Constraints: 
                CA:FALSE
            Netscape Comment: 
                Easy-RSA Generated Certificate
            X509v3 Subject Key Identifier: 
                AC:65:A9:94:7F:67:F3:B3:78:42:21:57:01:4F:A8:7C:16:14:82:36
            X509v3 Authority Key Identifier: 
                keyid:EF:38:8D:14:50:58:A7:5B:4D:9C:17:72:FC:DF:B9:AC:A7:51:B0:10
                DirName:/C=US/ST=CA/L=SanFrancisco/O=Pixglo, Inc./OU=VPN-CIE/CN=tunnel.pixglo.com/name=Bala Chandrasekaran/emailAddress=bala@pixglo.com
                serial:A6:DB:C6:83:80:E6:A0:79

            X509v3 Extended Key Usage: 
                TLS Web Client Authentication
            X509v3 Key Usage: 
                Digital Signature
    Signature Algorithm: sha1WithRSAEncryption
         5d:61:04:e1:a4:fd:53:73:26:e6:57:73:db:24:6b:76:08:50:
         8d:ef:47:f5:41:77:40:1d:33:5f:16:f1:ba:90:58:b1:fc:76:
         a4:23:f5:2e:68:e3:f6:51:1f:5b:bf:5b:c6:79:95:b3:cd:b1:
         c3:69:f0:f3:df:c8:35:52:81:d8:ac:2c:1d:a8:d1:59:43:6b:
         79:a8:18:b9:6f:0c:d7:94:62:c5:80:ea:76:42:01:02:76:46:
         1a:64:50:8e:9e:7e:65:b4:f7:f1:e6:0b:16:bf:14:81:62:26:
         48:c1:4c:ac:ff:03:3d:43:c0:61:06:7b:e8:b1:78:e0:9e:04:
         d0:8d:31:63:d6:02:e4:88:42:a6:0f:17:93:cd:98:a6:47:e0:
         c8:2f:5b:2f:e5:5d:61:55:60:12:63:9a:89:5a:70:92:62:d9:
         a6:69:d9:36:6a:b9:13:e5:94:d6:bb:dc:64:49:a9:00:62:cd:
         1f:de:cb:de:38:e6:95:95:b0:8f:d1:c4:72:39:2f:16:51:ea:
         ea:aa:c9:b8:04:bf:ba:50:43:07:ff:0f:ab:0d:86:56:32:92:
         f3:3e:73:72:f2:08:bf:0d:40:fd:f0:73:3f:72:f2:07:eb:e2:
         d6:db:9d:b1:e9:42:8a:fe:f0:f0:c7:02:d5:1a:79:77:a7:8c:
         ad:d4:93:b7:5a:17:cf:17:f0:aa:e1:ed:64:18:e6:9c:7d:9e:
         a9:84:ef:a8:4a:15:c3:0e:e9:88:82:f6:f5:a5:c6:ef:e9:77:
         45:62:52:61:cd:2a:68:39:ad:bb:6c:f7:be:90:d1:b1:c1:0c:
         1f:c9:91:e1:87:c0:38:f2:89:a4:67:19:d5:46:d2:25:91:94:
         fd:04:9d:ca:83:d3:d7:3d:55:4a:5c:91:7c:7b:38:a7:61:aa:
         db:1b:c4:87:90:63:a7:9b:42:8e:eb:1b:e9:e5:df:66:fe:5a:
         57:09:19:b8:8b:54:c3:9c:3e:be:ac:95:ab:3b:f2:52:2c:eb:
         76:ed:fe:96:94:cd:5c:53:65:1e:6d:f1:24:28:18:b9:e7:71:
         8e:b2:a1:c7:2c:fb:98:e5:9e:92:5d:f9:86:27:26:43:d7:71:
         92:26:c1:c6:55:17:22:7b:2f:aa:89:cf:64:13:45:08:b0:cd:
         5e:4b:29:f2:99:14:c2:e5:51:71:7a:81:ac:41:f7:d8:81:ce:
         2e:2a:30:73:6f:18:c0:aa:68:76:5c:e4:5f:1c:93:a2:9d:07:
         38:41:de:3f:e4:33:70:dd:ff:4b:08:8b:ec:07:42:61:af:af:
         89:25:d1:87:6b:de:c3:23:1a:61:43:a0:61:f1:68:03:46:7b:
         39:53:37:6f:ff:07:3e:e4
-----BEGIN CERTIFICATE-----
MIIHSDCCBTCgAwIBAgICAZ8wDQYJKoZIhvcNAQEFBQAwgbQxCzAJBgNVBAYTAlVT
MQswCQYDVQQIEwJDQTEVMBMGA1UEBxMMU2FuRnJhbmNpc2NvMRUwEwYDVQQKEwxQ
aXhnbG8sIEluYy4xEDAOBgNVBAsTB1ZQTi1DSUUxGjAYBgNVBAMTEXR1bm5lbC5w
aXhnbG8uY29tMRwwGgYDVQQpExNCYWxhIENoYW5kcmFzZWthcmFuMR4wHAYJKoZI
hvcNAQkBFg9iYWxhQHBpeGdsby5jb20wHhcNMTgwMjE0MDYzMzE1WhcNMjgwMjEy
MDYzMzE1WjCBqTELMAkGA1UEBhMCVVMxCzAJBgNVBAgTAkNBMRUwEwYDVQQHEwxT
YW5GcmFuY2lzY28xFTATBgNVBAoTDFBpeGdsbywgSW5jLjEQMA4GA1UECxMHVlBO
LUNJRTEPMA0GA1UEAxMGY2llNDE0MRwwGgYDVQQpExNCYWxhIENoYW5kcmFzZWth
cmFuMR4wHAYJKoZIhvcNAQkBFg9iYWxhQHBpeGdsby5jb20wggIiMA0GCSqGSIb3
DQEBAQUAA4ICDwAwggIKAoICAQDV0zbqGAv2WwVCJ5GbrkI82Ks9cyX2MLjuWRvo
JiautTJ9nqeKtz/mnRwZkd9Nqpa2ICSwO5OTE7+pH2JKpkoe79gfrlJURJQ3W8mA
JPVkmNghYTl0UDR0yW1+yibRT5jJJT+PwBegZEyJdnLRswSSUT+1wQBT4RDl4Tcv
DA4HDnPY3pofkq9Aj0Z+OyRFawzk4pC1utxKLCbpMpiBT14OBSn6sXVJLqmI17At
wBb/RXcJy0XLvmra17K8MlXPqmUDMeRmMat2DZuwLMsS3HsYno0g9ZSker3dx5UT
f5rZldB3+23ZFskPx/g8OY0/FpPQ0z8R6YjaaMNjYf4xalqm5Ppp4oeF3X+6Ro5H
LknAa4kBVYzC4LeN4PSfTBKE0SBM3sU4Y0Y8m1hc8OkA4EtkiCBSeO6OoC8iBOrG
3xMfkd0t8/nqhnmk40N0nKEDeyaTDBGYMHunrcai1Jzg48U9Q1Q43UiZ2vM/w16i
Sh8OLjGtpWhpi4vAs0lljSyOobWIerqPkiRNMAJQ/AH/dp7ain3TT6PzWmmgY0XT
BNSa4GqKBtWFaKrybVoZIILmUSacUsIJRCoK2+WCkL3+GR31KZ0jwC33TjkI657m
DBoof5g3sc+3XinzplyyFJO1nlORghztWRSTzxu83TwVHr7AVLCabcO4IcgvPdXy
bKo43wIDAQABo4IBazCCAWcwCQYDVR0TBAIwADAtBglghkgBhvhCAQ0EIBYeRWFz
eS1SU0EgR2VuZXJhdGVkIENlcnRpZmljYXRlMB0GA1UdDgQWBBSsZamUf2fzs3hC
IVcBT6h8FhSCNjCB6QYDVR0jBIHhMIHegBTvOI0UUFinW02cF3L837msp1GwEKGB
uqSBtzCBtDELMAkGA1UEBhMCVVMxCzAJBgNVBAgTAkNBMRUwEwYDVQQHEwxTYW5G
cmFuY2lzY28xFTATBgNVBAoTDFBpeGdsbywgSW5jLjEQMA4GA1UECxMHVlBOLUNJ
RTEaMBgGA1UEAxMRdHVubmVsLnBpeGdsby5jb20xHDAaBgNVBCkTE0JhbGEgQ2hh
bmRyYXNla2FyYW4xHjAcBgkqhkiG9w0BCQEWD2JhbGFAcGl4Z2xvLmNvbYIJAKbb
xoOA5qB5MBMGA1UdJQQMMAoGCCsGAQUFBwMCMAsGA1UdDwQEAwIHgDANBgkqhkiG
9w0BAQUFAAOCAgEAXWEE4aT9U3Mm5ldz2yRrdghQje9H9UF3QB0zXxbxupBYsfx2
pCP1Lmjj9lEfW79bxnmVs82xw2nw89/INVKB2KwsHajRWUNreagYuW8M15RixYDq
dkIBAnZGGmRQjp5+ZbT38eYLFr8UgWImSMFMrP8DPUPAYQZ76LF44J4E0I0xY9YC
5IhCpg8Xk82YpkfgyC9bL+VdYVVgEmOaiVpwkmLZpmnZNmq5E+WU1rvcZEmpAGLN
H97L3jjmlZWwj9HEcjkvFlHq6qrJuAS/ulBDB/8Pqw2GVjKS8z5zcvIIvw1A/fBz
P3LyB+vi1tudselCiv7w8McC1Rp5d6eMrdSTt1oXzxfwquHtZBjmnH2eqYTvqEoV
ww7piIL29aXG7+l3RWJSYc0qaDmtu2z3vpDRscEMH8mR4YfAOPKJpGcZ1UbSJZGU
/QSdyoPT1z1VSlyRfHs4p2Gq2xvEh5Bjp5tCjusb6eXfZv5aVwkZuItUw5w+vqyV
qzvyUizrdu3+lpTNXFNlHm3xJCgYuedxjrKhxyz7mOWekl35hicmQ9dxkibBxlUX
InsvqonPZBNFCLDNXksp8pkUwuVRcXqBrEH32IHOLiowc28YwKpodlzkXxyTop0H
OEHeP+QzcN3/SwiL7AdCYa+viSXRh2vewyMaYUOgYfFoA0Z7OVM3b/8HPuQ=
-----END CERTIFICATE-----
