Certificate:
    Data:
        Version: 3 (0x2)
        Serial Number: 417 (0x1a1)
    Signature Algorithm: sha1WithRSAEncryption
        Issuer: C=US, ST=CA, L=SanFrancisco, O=Pixglo, Inc., OU=VPN-CIE, CN=tunnel.pixglo.com/name=Bala Chandrasekaran/emailAddress=bala@pixglo.com
        Validity
            Not Before: Feb 14 06:33:18 2018 GMT
            Not After : Feb 12 06:33:18 2028 GMT
        Subject: C=US, ST=CA, L=SanFrancisco, O=Pixglo, Inc., OU=VPN-CIE, CN=cie416/name=Bala Chandrasekaran/emailAddress=bala@pixglo.com
        Subject Public Key Info:
            Public Key Algorithm: rsaEncryption
                Public-Key: (4096 bit)
                Modulus:
                    00:ef:0f:d7:0a:21:86:97:7c:93:9a:82:cf:e9:4c:
                    89:e9:61:09:fc:9c:a8:be:cd:3b:f3:f9:5a:12:5b:
                    9b:d9:9a:b5:aa:7e:cf:fd:63:54:4e:38:91:92:1b:
                    52:87:c9:2a:b7:1a:0c:d3:a8:b7:46:da:bb:95:3d:
                    03:60:6a:fa:3a:a9:10:9c:8c:7b:a4:f5:26:bf:43:
                    3a:5c:5d:4a:76:5b:44:9c:13:65:f7:e3:97:ca:b6:
                    f9:d5:e8:3b:cc:e2:8c:93:c1:10:6b:4d:09:01:ab:
                    f6:01:d8:95:61:b7:43:bc:b1:92:93:15:35:32:63:
                    24:84:79:a8:9c:6e:9d:90:f9:a9:98:70:fe:d0:cb:
                    cf:10:83:17:76:3c:cd:b7:52:2e:22:fb:55:5b:41:
                    a7:f8:29:d0:d9:98:bf:65:60:cb:b9:11:e8:0e:6c:
                    4c:e2:39:42:c2:8a:8b:17:08:03:57:16:72:4f:3e:
                    a8:98:78:ea:7c:42:d9:d9:9b:5e:78:40:97:34:0c:
                    18:6e:ac:fe:75:5b:dd:0a:f2:f9:2a:f9:4e:9a:74:
                    2c:97:3b:1d:8d:23:73:99:4b:13:93:3e:03:dc:db:
                    79:d6:e6:4d:4a:60:be:37:ce:1e:d2:0c:c4:ff:c0:
                    c3:ff:34:4a:5c:25:49:45:99:e2:30:89:b3:22:05:
                    50:ae:fc:2e:5e:50:3e:a9:96:e0:c2:c2:00:a1:a7:
                    f1:75:4c:0f:e6:08:0d:09:bb:3b:55:a8:89:34:47:
                    01:7c:2e:0a:d6:56:1a:03:02:3a:cc:93:27:39:0b:
                    91:f3:d1:a5:aa:ab:f7:cf:98:5e:4e:5e:d8:e1:80:
                    72:bf:53:8f:dd:59:93:e3:e8:dc:db:d7:83:9b:ee:
                    a0:45:46:c5:d9:72:a5:4a:db:50:f5:cd:72:58:4d:
                    4e:e8:3d:c8:22:30:1f:00:53:30:27:bc:a9:63:a2:
                    7b:eb:74:8c:99:16:a7:75:ac:7b:48:e5:8d:21:6b:
                    fb:1e:79:0a:cd:8b:c1:a0:f2:64:8a:ce:89:8d:4b:
                    01:c5:fc:c6:26:da:7a:d3:3a:29:1d:1e:2e:9f:35:
                    78:4d:03:4e:f0:75:46:4e:08:24:b1:97:39:16:d8:
                    aa:01:f4:a7:7d:cd:cd:87:6a:72:b7:d3:29:8c:4a:
                    8a:19:35:c7:4c:b4:e3:b5:23:6b:ea:d4:4f:f5:f1:
                    c8:5c:34:75:9b:62:9d:0d:9c:73:f9:ac:24:05:a5:
                    0d:bd:c1:4e:6a:1f:2b:8b:2b:0f:94:57:5d:d1:ea:
                    78:9a:3f:a8:9f:55:70:0e:8b:df:12:61:43:66:92:
                    7c:1d:b2:86:09:32:39:27:72:4c:9b:ba:29:fb:aa:
                    09:1e:ff
                Exponent: 65537 (0x10001)
        X509v3 extensions:
            X509v3 Basic Constraints: 
                CA:FALSE
            Netscape Comment: 
                Easy-RSA Generated Certificate
            X509v3 Subject Key Identifier: 
                E3:C6:A8:25:40:C6:73:F8:96:A0:78:44:04:16:C6:16:01:D0:84:8C
            X509v3 Authority Key Identifier: 
                keyid:EF:38:8D:14:50:58:A7:5B:4D:9C:17:72:FC:DF:B9:AC:A7:51:B0:10
                DirName:/C=US/ST=CA/L=SanFrancisco/O=Pixglo, Inc./OU=VPN-CIE/CN=tunnel.pixglo.com/name=Bala Chandrasekaran/emailAddress=bala@pixglo.com
                serial:A6:DB:C6:83:80:E6:A0:79

            X509v3 Extended Key Usage: 
                TLS Web Client Authentication
            X509v3 Key Usage: 
                Digital Signature
    Signature Algorithm: sha1WithRSAEncryption
         ae:20:18:be:51:56:87:67:47:d9:d4:ed:c4:ff:95:37:03:38:
         66:fc:2f:96:02:92:af:b2:44:67:7b:bd:41:81:30:b3:d8:0c:
         d8:0f:bb:71:a0:ba:36:bc:a1:72:70:29:8b:45:5a:98:ca:8a:
         70:f3:f5:c5:b9:85:c0:ec:36:e4:f6:3d:45:c6:35:a3:69:d3:
         09:67:e2:7e:6b:3f:38:3e:e9:f6:2f:e8:05:fd:1c:dc:1f:fd:
         0d:28:ca:ad:e6:05:80:d9:b5:1d:d5:d3:28:0a:70:88:d0:af:
         cb:e6:b8:db:1d:8a:a3:ab:2a:26:73:34:83:cf:b9:e8:6a:96:
         24:01:34:10:1d:59:a4:cf:f0:c2:1a:7b:a9:32:fd:dc:a7:0e:
         79:ff:ac:60:4b:08:eb:b2:6d:27:e4:d3:64:3f:de:32:bd:77:
         a0:bf:b8:cb:c9:0c:37:62:8d:f4:22:38:71:9c:43:0c:e6:b4:
         c4:82:37:28:e8:69:d4:35:47:dc:85:ae:ab:8a:7e:1c:f0:27:
         e7:ce:65:c3:97:55:bf:24:9e:ff:b7:c1:a3:93:80:e6:b6:66:
         30:f0:4a:af:03:40:6d:b1:8c:e4:2c:da:55:70:95:c9:36:8f:
         4c:d3:16:51:b6:7f:14:a6:92:ca:a5:a6:08:b1:cf:64:6f:0c:
         0e:7f:9a:1a:fd:a0:0d:46:26:40:0f:a3:e5:9c:55:e0:a0:cc:
         68:cf:97:d0:2f:d4:b9:f8:1b:89:27:43:a3:ec:e4:fa:9d:f8:
         49:c9:a3:ec:56:c7:db:da:dc:6a:a9:38:24:f2:b6:2e:2b:3c:
         17:b3:e1:56:00:28:c8:8a:8e:98:27:0b:39:84:5a:0a:d3:75:
         fa:dc:8a:42:d1:f9:83:92:87:71:e4:59:6c:46:f6:63:2a:ba:
         00:f5:8f:f9:fb:8d:3f:20:1b:2e:32:9d:ae:d1:bd:7c:e9:d5:
         e6:d6:08:d8:6d:2b:dd:46:e0:cd:c4:cc:2e:19:94:ef:9b:ce:
         29:a8:91:52:8b:80:3d:f0:c4:90:e7:2c:fe:81:ca:aa:4b:bc:
         2b:f0:75:7d:33:83:19:65:ce:85:d0:61:b1:48:23:57:da:4d:
         c1:0b:31:af:96:a3:39:a0:f1:22:ce:85:0e:52:14:79:46:eb:
         95:6a:53:67:bb:45:3e:ac:fc:fa:14:c7:e0:6b:e2:89:9c:60:
         f9:30:c1:79:20:1f:6d:8d:c5:2f:25:f6:5a:c9:c1:37:e4:61:
         ac:93:16:6d:b2:39:e6:30:b9:3b:62:93:b8:84:ea:aa:99:ee:
         3f:11:3a:77:ac:f9:6a:46:16:11:c0:8e:13:80:08:da:aa:30:
         c4:d0:4f:92:8c:85:f7:98
-----BEGIN CERTIFICATE-----
MIIHSDCCBTCgAwIBAgICAaEwDQYJKoZIhvcNAQEFBQAwgbQxCzAJBgNVBAYTAlVT
MQswCQYDVQQIEwJDQTEVMBMGA1UEBxMMU2FuRnJhbmNpc2NvMRUwEwYDVQQKEwxQ
aXhnbG8sIEluYy4xEDAOBgNVBAsTB1ZQTi1DSUUxGjAYBgNVBAMTEXR1bm5lbC5w
aXhnbG8uY29tMRwwGgYDVQQpExNCYWxhIENoYW5kcmFzZWthcmFuMR4wHAYJKoZI
hvcNAQkBFg9iYWxhQHBpeGdsby5jb20wHhcNMTgwMjE0MDYzMzE4WhcNMjgwMjEy
MDYzMzE4WjCBqTELMAkGA1UEBhMCVVMxCzAJBgNVBAgTAkNBMRUwEwYDVQQHEwxT
YW5GcmFuY2lzY28xFTATBgNVBAoTDFBpeGdsbywgSW5jLjEQMA4GA1UECxMHVlBO
LUNJRTEPMA0GA1UEAxMGY2llNDE2MRwwGgYDVQQpExNCYWxhIENoYW5kcmFzZWth
cmFuMR4wHAYJKoZIhvcNAQkBFg9iYWxhQHBpeGdsby5jb20wggIiMA0GCSqGSIb3
DQEBAQUAA4ICDwAwggIKAoICAQDvD9cKIYaXfJOags/pTInpYQn8nKi+zTvz+VoS
W5vZmrWqfs/9Y1ROOJGSG1KHySq3GgzTqLdG2ruVPQNgavo6qRCcjHuk9Sa/Qzpc
XUp2W0ScE2X345fKtvnV6DvM4oyTwRBrTQkBq/YB2JVht0O8sZKTFTUyYySEeaic
bp2Q+amYcP7Qy88Qgxd2PM23Ui4i+1VbQaf4KdDZmL9lYMu5EegObEziOULCiosX
CANXFnJPPqiYeOp8QtnZm154QJc0DBhurP51W90K8vkq+U6adCyXOx2NI3OZSxOT
PgPc23nW5k1KYL43zh7SDMT/wMP/NEpcJUlFmeIwibMiBVCu/C5eUD6pluDCwgCh
p/F1TA/mCA0JuztVqIk0RwF8LgrWVhoDAjrMkyc5C5Hz0aWqq/fPmF5OXtjhgHK/
U4/dWZPj6Nzb14Ob7qBFRsXZcqVK21D1zXJYTU7oPcgiMB8AUzAnvKljonvrdIyZ
Fqd1rHtI5Y0ha/seeQrNi8Gg8mSKzomNSwHF/MYm2nrTOikdHi6fNXhNA07wdUZO
CCSxlzkW2KoB9Kd9zc2HanK30ymMSooZNcdMtOO1I2vq1E/18chcNHWbYp0NnHP5
rCQFpQ29wU5qHyuLKw+UV13R6niaP6ifVXAOi98SYUNmknwdsoYJMjknckybuin7
qgke/wIDAQABo4IBazCCAWcwCQYDVR0TBAIwADAtBglghkgBhvhCAQ0EIBYeRWFz
eS1SU0EgR2VuZXJhdGVkIENlcnRpZmljYXRlMB0GA1UdDgQWBBTjxqglQMZz+Jag
eEQEFsYWAdCEjDCB6QYDVR0jBIHhMIHegBTvOI0UUFinW02cF3L837msp1GwEKGB
uqSBtzCBtDELMAkGA1UEBhMCVVMxCzAJBgNVBAgTAkNBMRUwEwYDVQQHEwxTYW5G
cmFuY2lzY28xFTATBgNVBAoTDFBpeGdsbywgSW5jLjEQMA4GA1UECxMHVlBOLUNJ
RTEaMBgGA1UEAxMRdHVubmVsLnBpeGdsby5jb20xHDAaBgNVBCkTE0JhbGEgQ2hh
bmRyYXNla2FyYW4xHjAcBgkqhkiG9w0BCQEWD2JhbGFAcGl4Z2xvLmNvbYIJAKbb
xoOA5qB5MBMGA1UdJQQMMAoGCCsGAQUFBwMCMAsGA1UdDwQEAwIHgDANBgkqhkiG
9w0BAQUFAAOCAgEAriAYvlFWh2dH2dTtxP+VNwM4ZvwvlgKSr7JEZ3u9QYEws9gM
2A+7caC6NryhcnApi0VamMqKcPP1xbmFwOw25PY9RcY1o2nTCWfifms/OD7p9i/o
Bf0c3B/9DSjKreYFgNm1HdXTKApwiNCvy+a42x2Ko6sqJnM0g8+56GqWJAE0EB1Z
pM/wwhp7qTL93KcOef+sYEsI67JtJ+TTZD/eMr13oL+4y8kMN2KN9CI4cZxDDOa0
xII3KOhp1DVH3IWuq4p+HPAn585lw5dVvySe/7fBo5OA5rZmMPBKrwNAbbGM5Cza
VXCVyTaPTNMWUbZ/FKaSyqWmCLHPZG8MDn+aGv2gDUYmQA+j5ZxV4KDMaM+X0C/U
ufgbiSdDo+zk+p34Scmj7FbH29rcaqk4JPK2Lis8F7PhVgAoyIqOmCcLOYRaCtN1
+tyKQtH5g5KHceRZbEb2Yyq6APWP+fuNPyAbLjKdrtG9fOnV5tYI2G0r3UbgzcTM
LhmU75vOKaiRUouAPfDEkOcs/oHKqku8K/B1fTODGWXOhdBhsUgjV9pNwQsxr5aj
OaDxIs6FDlIUeUbrlWpTZ7tFPqz8+hTH4GviiZxg+TDBeSAfbY3FLyX2WsnBN+Rh
rJMWbbI55jC5O2KTuITqqpnuPxE6d6z5akYWEcCOE4AI2qowxNBPkoyF95g=
-----END CERTIFICATE-----
