Certificate:
    Data:
        Version: 3 (0x2)
        Serial Number: 418 (0x1a2)
    Signature Algorithm: sha1WithRSAEncryption
        Issuer: C=US, ST=CA, L=SanFrancisco, O=Pixglo, Inc., OU=VPN-CIE, CN=tunnel.pixglo.com/name=Bala Chandrasekaran/emailAddress=bala@pixglo.com
        Validity
            Not Before: Feb 14 06:33:26 2018 GMT
            Not After : Feb 12 06:33:26 2028 GMT
        Subject: C=US, ST=CA, L=SanFrancisco, O=Pixglo, Inc., OU=VPN-CIE, CN=cie417/name=Bala Chandrasekaran/emailAddress=bala@pixglo.com
        Subject Public Key Info:
            Public Key Algorithm: rsaEncryption
                Public-Key: (4096 bit)
                Modulus:
                    00:c1:15:30:6d:f8:95:14:eb:60:bc:40:35:82:73:
                    57:7b:64:bc:ee:23:05:f8:bf:11:90:79:ab:ff:3e:
                    e7:d4:50:51:d4:60:47:8e:55:e2:65:61:d7:6c:0f:
                    6c:4a:e2:9f:f6:32:68:6d:97:4e:20:43:75:3d:ff:
                    02:cc:f7:0f:c3:22:49:9e:cb:86:98:58:b8:cc:8d:
                    ef:1e:bc:b2:10:aa:66:d6:19:18:c1:e2:4f:5f:75:
                    d3:07:d1:f5:63:ec:27:2b:4c:ac:94:c0:4e:01:64:
                    78:68:6c:66:71:35:20:7b:81:9d:bf:f5:f7:94:5f:
                    22:2f:81:a7:73:ee:9f:73:68:c9:f0:a2:02:4c:41:
                    2a:cd:4f:5d:6c:19:e7:02:44:3b:5d:71:82:20:56:
                    26:7d:79:4d:d9:33:eb:30:43:d7:54:eb:40:c3:d2:
                    73:06:ea:47:8d:52:fd:b6:80:3a:bf:17:e8:5e:0f:
                    73:c3:07:43:a2:dd:1f:72:ff:ee:6f:41:da:76:07:
                    59:0f:7e:91:f5:5e:9f:3d:94:78:c4:a4:8c:33:17:
                    49:e1:68:fe:1b:bd:40:ab:9a:5d:28:1b:51:07:3d:
                    29:ae:33:e7:1c:4f:f8:55:c5:cb:8b:38:c7:73:5a:
                    03:6a:c0:1d:04:70:34:1a:c3:c6:ad:ac:9d:ad:b6:
                    b2:e0:b1:e8:1e:41:b5:ac:10:99:8a:3f:6f:4e:64:
                    1b:23:04:94:d3:bb:8b:0d:12:09:50:7f:3c:89:c4:
                    e7:c6:f4:e7:fa:43:4b:97:88:fa:ef:ea:96:af:9a:
                    a1:63:22:0a:3c:04:f3:3e:f9:ee:42:d1:ab:12:94:
                    e6:0b:f0:8c:7e:64:69:f1:eb:97:f2:e7:e1:ca:e8:
                    44:85:f1:ea:2a:d9:e2:a8:0c:1e:30:c4:6b:a5:75:
                    a0:8c:1e:33:72:0f:25:26:63:f3:85:96:fb:d4:e2:
                    e1:80:ec:31:ad:07:5c:0d:f0:5a:71:55:8a:a0:d3:
                    06:d5:4f:5e:32:04:e9:35:3b:5b:09:82:aa:69:38:
                    2d:77:79:47:b1:24:4b:af:42:4f:7c:a4:34:ac:bb:
                    3a:27:56:da:96:e8:73:62:c2:90:07:50:4d:1c:91:
                    73:d8:bb:99:b7:28:89:68:ec:7d:cc:c9:4c:f4:e1:
                    2d:dc:be:9d:d1:8a:8c:2e:95:51:4d:f2:8c:ed:14:
                    89:c7:d2:2b:a9:ea:d5:54:ea:fe:71:06:fe:d2:44:
                    4d:6b:90:5f:d9:37:81:7f:0c:d4:b4:ff:cc:52:20:
                    81:7a:61:0b:c9:79:f5:07:e6:97:70:02:71:86:1d:
                    5e:ac:51:64:fb:71:c2:ff:eb:c1:0c:20:f8:89:cb:
                    ae:de:93
                Exponent: 65537 (0x10001)
        X509v3 extensions:
            X509v3 Basic Constraints: 
                CA:FALSE
            Netscape Comment: 
                Easy-RSA Generated Certificate
            X509v3 Subject Key Identifier: 
                5E:C7:4F:C9:BA:CF:65:FB:B2:54:BA:0F:C1:CE:90:3F:72:03:71:9C
            X509v3 Authority Key Identifier: 
                keyid:EF:38:8D:14:50:58:A7:5B:4D:9C:17:72:FC:DF:B9:AC:A7:51:B0:10
                DirName:/C=US/ST=CA/L=SanFrancisco/O=Pixglo, Inc./OU=VPN-CIE/CN=tunnel.pixglo.com/name=Bala Chandrasekaran/emailAddress=bala@pixglo.com
                serial:A6:DB:C6:83:80:E6:A0:79

            X509v3 Extended Key Usage: 
                TLS Web Client Authentication
            X509v3 Key Usage: 
                Digital Signature
    Signature Algorithm: sha1WithRSAEncryption
         9b:b8:1a:ee:22:58:0f:86:e2:3a:60:bd:de:51:6c:c3:f3:ff:
         e0:72:93:31:ab:67:37:67:e7:4b:20:9c:15:f2:30:ce:c1:e7:
         17:36:f6:8a:a3:52:88:40:39:0e:34:08:a5:37:35:80:94:07:
         8b:a8:64:7b:84:30:90:84:23:a5:3c:5f:1c:b0:df:a6:3c:d2:
         7d:8b:3c:89:63:36:89:b2:7f:bf:11:13:fa:83:ee:e4:3d:1f:
         73:3f:ab:0e:7c:07:4a:b5:30:ba:f7:5d:52:f9:00:89:c0:85:
         8d:1d:ec:66:98:b7:0a:4f:d5:e8:a9:9d:ad:81:8d:ca:54:1b:
         ee:44:b9:0f:b6:d7:f9:c0:21:71:87:28:60:d5:aa:9f:9d:2a:
         8e:0c:42:90:ff:7d:b8:7f:bc:0b:90:24:8d:22:54:8a:e6:b4:
         49:6a:26:9c:3a:78:b2:ef:5c:9a:7e:f9:44:f7:83:e3:96:4c:
         98:d6:8b:5d:74:eb:a6:f8:c7:50:84:0a:db:58:a6:3a:bf:a0:
         e4:c6:39:f1:91:be:c1:98:f4:0f:89:03:49:49:c8:6c:fe:15:
         eb:6a:94:74:0f:60:be:03:e3:1b:44:f7:c1:f4:46:3c:c7:1a:
         89:fd:93:35:44:70:b7:52:a4:31:65:b2:95:f5:10:a4:48:15:
         bc:e1:d0:a2:43:25:82:37:f0:ce:8d:16:43:d9:11:9b:a8:17:
         e4:c5:dd:a8:d5:84:ee:c1:29:1e:f1:c6:b4:a7:ae:99:fc:54:
         37:03:ce:cf:d7:eb:41:50:00:74:4e:79:84:be:a3:0f:1b:bd:
         01:ed:17:cd:70:a5:05:2f:95:76:34:62:f5:87:e6:d8:1a:fb:
         53:dd:55:9b:fb:96:55:fb:20:d2:af:f9:bf:43:c4:38:e8:90:
         a6:d8:52:69:06:02:4d:85:8a:d6:3a:54:d3:b5:f8:1c:c1:64:
         86:68:db:36:b1:c0:c5:85:3e:c7:f6:10:f6:fb:cf:bc:9e:07:
         00:9b:2e:64:dd:1d:6d:12:48:70:c0:f5:53:56:ea:f6:0c:25:
         57:fb:c1:6b:f6:da:31:5a:dd:45:78:0f:d0:7e:71:84:5e:5d:
         f8:82:6d:d0:9d:47:a0:5c:7a:63:f1:ee:d6:44:2f:94:2b:f1:
         70:74:ca:e1:6a:29:e7:2f:09:88:8b:6a:65:ae:e2:72:c4:fc:
         a3:a3:39:d9:28:1c:8e:fb:66:0e:f9:3d:c9:36:cf:d5:04:15:
         02:fa:44:9d:cd:16:ed:07:87:c0:54:e0:6f:6a:ea:b7:98:eb:
         38:ad:fa:15:ba:af:33:bc:19:f4:0a:cc:6a:11:d6:e4:4b:54:
         c3:27:8a:8b:b8:54:75:85
-----BEGIN CERTIFICATE-----
MIIHSDCCBTCgAwIBAgICAaIwDQYJKoZIhvcNAQEFBQAwgbQxCzAJBgNVBAYTAlVT
MQswCQYDVQQIEwJDQTEVMBMGA1UEBxMMU2FuRnJhbmNpc2NvMRUwEwYDVQQKEwxQ
aXhnbG8sIEluYy4xEDAOBgNVBAsTB1ZQTi1DSUUxGjAYBgNVBAMTEXR1bm5lbC5w
aXhnbG8uY29tMRwwGgYDVQQpExNCYWxhIENoYW5kcmFzZWthcmFuMR4wHAYJKoZI
hvcNAQkBFg9iYWxhQHBpeGdsby5jb20wHhcNMTgwMjE0MDYzMzI2WhcNMjgwMjEy
MDYzMzI2WjCBqTELMAkGA1UEBhMCVVMxCzAJBgNVBAgTAkNBMRUwEwYDVQQHEwxT
YW5GcmFuY2lzY28xFTATBgNVBAoTDFBpeGdsbywgSW5jLjEQMA4GA1UECxMHVlBO
LUNJRTEPMA0GA1UEAxMGY2llNDE3MRwwGgYDVQQpExNCYWxhIENoYW5kcmFzZWth
cmFuMR4wHAYJKoZIhvcNAQkBFg9iYWxhQHBpeGdsby5jb20wggIiMA0GCSqGSIb3
DQEBAQUAA4ICDwAwggIKAoICAQDBFTBt+JUU62C8QDWCc1d7ZLzuIwX4vxGQeav/
PufUUFHUYEeOVeJlYddsD2xK4p/2Mmhtl04gQ3U9/wLM9w/DIkmey4aYWLjMje8e
vLIQqmbWGRjB4k9fddMH0fVj7CcrTKyUwE4BZHhobGZxNSB7gZ2/9feUXyIvgadz
7p9zaMnwogJMQSrNT11sGecCRDtdcYIgViZ9eU3ZM+swQ9dU60DD0nMG6keNUv22
gDq/F+heD3PDB0Oi3R9y/+5vQdp2B1kPfpH1Xp89lHjEpIwzF0nhaP4bvUCrml0o
G1EHPSmuM+ccT/hVxcuLOMdzWgNqwB0EcDQaw8atrJ2ttrLgsegeQbWsEJmKP29O
ZBsjBJTTu4sNEglQfzyJxOfG9Of6Q0uXiPrv6pavmqFjIgo8BPM++e5C0asSlOYL
8Ix+ZGnx65fy5+HK6ESF8eoq2eKoDB4wxGuldaCMHjNyDyUmY/OFlvvU4uGA7DGt
B1wN8FpxVYqg0wbVT14yBOk1O1sJgqppOC13eUexJEuvQk98pDSsuzonVtqW6HNi
wpAHUE0ckXPYu5m3KIlo7H3MyUz04S3cvp3RiowulVFN8oztFInH0iup6tVU6v5x
Bv7SRE1rkF/ZN4F/DNS0/8xSIIF6YQvJefUH5pdwAnGGHV6sUWT7ccL/68EMIPiJ
y67ekwIDAQABo4IBazCCAWcwCQYDVR0TBAIwADAtBglghkgBhvhCAQ0EIBYeRWFz
eS1SU0EgR2VuZXJhdGVkIENlcnRpZmljYXRlMB0GA1UdDgQWBBRex0/Jus9l+7JU
ug/BzpA/cgNxnDCB6QYDVR0jBIHhMIHegBTvOI0UUFinW02cF3L837msp1GwEKGB
uqSBtzCBtDELMAkGA1UEBhMCVVMxCzAJBgNVBAgTAkNBMRUwEwYDVQQHEwxTYW5G
cmFuY2lzY28xFTATBgNVBAoTDFBpeGdsbywgSW5jLjEQMA4GA1UECxMHVlBOLUNJ
RTEaMBgGA1UEAxMRdHVubmVsLnBpeGdsby5jb20xHDAaBgNVBCkTE0JhbGEgQ2hh
bmRyYXNla2FyYW4xHjAcBgkqhkiG9w0BCQEWD2JhbGFAcGl4Z2xvLmNvbYIJAKbb
xoOA5qB5MBMGA1UdJQQMMAoGCCsGAQUFBwMCMAsGA1UdDwQEAwIHgDANBgkqhkiG
9w0BAQUFAAOCAgEAm7ga7iJYD4biOmC93lFsw/P/4HKTMatnN2fnSyCcFfIwzsHn
Fzb2iqNSiEA5DjQIpTc1gJQHi6hke4QwkIQjpTxfHLDfpjzSfYs8iWM2ibJ/vxET
+oPu5D0fcz+rDnwHSrUwuvddUvkAicCFjR3sZpi3Ck/V6KmdrYGNylQb7kS5D7bX
+cAhcYcoYNWqn50qjgxCkP99uH+8C5AkjSJUiua0SWomnDp4su9cmn75RPeD45ZM
mNaLXXTrpvjHUIQK21imOr+g5MY58ZG+wZj0D4kDSUnIbP4V62qUdA9gvgPjG0T3
wfRGPMcaif2TNURwt1KkMWWylfUQpEgVvOHQokMlgjfwzo0WQ9kRm6gX5MXdqNWE
7sEpHvHGtKeumfxUNwPOz9frQVAAdE55hL6jDxu9Ae0XzXClBS+VdjRi9Yfm2Br7
U91Vm/uWVfsg0q/5v0PEOOiQpthSaQYCTYWK1jpU07X4HMFkhmjbNrHAxYU+x/YQ
9vvPvJ4HAJsuZN0dbRJIcMD1U1bq9gwlV/vBa/baMVrdRXgP0H5xhF5d+IJt0J1H
oFx6Y/Hu1kQvlCvxcHTK4Wop5y8JiItqZa7icsT8o6M52SgcjvtmDvk9yTbP1QQV
AvpEnc0W7QeHwFTgb2rqt5jrOK36FbqvM7wZ9ArMahHW5EtUwyeKi7hUdYU=
-----END CERTIFICATE-----
