Certificate:
    Data:
        Version: 3 (0x2)
        Serial Number: 420 (0x1a4)
    Signature Algorithm: sha1WithRSAEncryption
        Issuer: C=US, ST=CA, L=SanFrancisco, O=Pixglo, Inc., OU=VPN-CIE, CN=tunnel.pixglo.com/name=Bala Chandrasekaran/emailAddress=bala@pixglo.com
        Validity
            Not Before: Feb 14 06:33:37 2018 GMT
            Not After : Feb 12 06:33:37 2028 GMT
        Subject: C=US, ST=CA, L=SanFrancisco, O=Pixglo, Inc., OU=VPN-CIE, CN=cie419/name=Bala Chandrasekaran/emailAddress=bala@pixglo.com
        Subject Public Key Info:
            Public Key Algorithm: rsaEncryption
                Public-Key: (4096 bit)
                Modulus:
                    00:e9:c0:4b:1b:a1:43:c0:a1:f8:92:0f:a7:da:88:
                    9d:a9:19:2c:29:2c:16:ad:fb:bf:42:b0:e6:25:f6:
                    32:f8:a9:73:7c:66:b7:7d:e2:c6:a2:78:2d:11:02:
                    a2:6b:fb:2d:a7:44:a7:10:e4:ac:9b:39:1e:e2:e2:
                    74:4c:c3:d9:d0:6c:4e:92:2d:6e:95:fd:25:86:c3:
                    e5:b3:b1:06:d1:63:ea:b8:73:62:d2:ee:da:54:cf:
                    43:b2:00:8f:aa:15:85:86:cc:f5:f5:ce:71:90:f6:
                    9f:c1:60:fc:58:a4:59:7f:6a:7b:bd:e2:75:9e:27:
                    14:5e:80:5a:c5:eb:c6:c9:09:47:e9:99:62:b2:4f:
                    e5:e2:bd:6f:ee:48:6b:94:7b:58:b3:15:09:46:5c:
                    c6:5e:9b:e0:4b:4f:35:a4:a8:db:be:90:81:2b:04:
                    ab:8d:f7:66:6c:ac:d9:63:da:e7:19:62:2e:35:0c:
                    00:2e:d7:47:a8:bb:e4:72:fe:47:34:c5:a3:a4:91:
                    92:dc:f9:32:ff:c2:4e:ee:56:82:0f:f2:38:00:cf:
                    b9:d0:f8:ee:ac:d8:5c:ec:f6:8b:c2:ca:d8:7e:49:
                    b5:90:66:e2:fc:3f:c6:9a:cb:e2:c1:02:47:dd:b8:
                    ec:cd:d9:88:50:40:40:ce:e5:98:90:49:ef:e0:a0:
                    f2:f4:09:7d:d3:df:fc:1b:ca:41:e1:1d:66:bf:7d:
                    c3:ed:e5:d4:cc:0b:d8:55:0e:80:84:f6:1b:ea:67:
                    ec:44:95:87:22:8a:f2:dc:c0:83:8f:6f:42:cd:63:
                    a4:0d:30:5e:59:63:d2:a3:5d:22:c9:8f:98:38:f6:
                    24:e8:76:a9:e1:c5:30:a1:0f:c4:e9:9e:18:98:bb:
                    16:09:14:f0:b5:66:89:fb:2f:94:d8:d9:36:70:b3:
                    a8:47:3c:5d:30:05:07:81:3d:3b:62:88:24:21:16:
                    b7:53:9c:c2:1c:13:2e:6e:ff:65:00:34:0d:aa:69:
                    b6:85:d2:d9:27:c0:4c:70:d0:6c:16:c7:eb:8d:63:
                    8a:3a:f7:44:11:0c:59:80:5e:36:46:f2:4b:e2:77:
                    dc:41:e8:58:df:1f:9f:54:79:e4:ed:98:03:ad:d3:
                    d9:17:e4:7d:a2:d7:d5:5e:51:59:b1:44:14:64:63:
                    18:bf:9d:ad:c9:82:a7:b3:54:b2:30:e7:f2:97:38:
                    6e:91:93:de:1e:25:f2:08:a5:8e:78:51:0e:f1:1a:
                    cd:ef:4e:a9:a5:1a:0d:51:d6:e8:c7:5f:7d:95:61:
                    9d:78:74:ea:0a:d0:c0:b8:ae:c3:51:76:ab:3f:8b:
                    51:cb:b1:25:f0:0b:5c:87:20:f9:f5:da:69:b1:93:
                    41:4a:03
                Exponent: 65537 (0x10001)
        X509v3 extensions:
            X509v3 Basic Constraints: 
                CA:FALSE
            Netscape Comment: 
                Easy-RSA Generated Certificate
            X509v3 Subject Key Identifier: 
                EA:33:39:AE:3C:4A:6B:13:22:D4:0B:57:BC:24:EF:D9:A6:34:BB:83
            X509v3 Authority Key Identifier: 
                keyid:EF:38:8D:14:50:58:A7:5B:4D:9C:17:72:FC:DF:B9:AC:A7:51:B0:10
                DirName:/C=US/ST=CA/L=SanFrancisco/O=Pixglo, Inc./OU=VPN-CIE/CN=tunnel.pixglo.com/name=Bala Chandrasekaran/emailAddress=bala@pixglo.com
                serial:A6:DB:C6:83:80:E6:A0:79

            X509v3 Extended Key Usage: 
                TLS Web Client Authentication
            X509v3 Key Usage: 
                Digital Signature
    Signature Algorithm: sha1WithRSAEncryption
         c5:85:6d:7c:10:1d:ae:a0:c2:05:6a:de:9b:68:85:2d:d5:b1:
         67:07:43:67:55:15:ef:05:6b:7f:81:bf:56:0f:b6:57:cf:d1:
         06:60:af:ff:32:98:22:e5:64:b7:61:00:2f:3b:0c:de:4d:80:
         a4:b4:8f:82:a9:dd:98:9d:1a:eb:03:38:ea:f9:25:52:71:88:
         29:4e:30:dd:38:15:d1:dc:e8:71:70:c0:9d:30:73:35:bc:81:
         65:91:d3:82:6c:ac:8f:44:f5:f9:3f:8f:31:bb:9d:2d:69:23:
         51:3b:4c:53:f1:3b:ca:a5:7c:d7:7e:b9:0e:45:ed:bf:2b:c7:
         95:8b:20:16:76:a2:bc:fa:72:f2:6d:eb:aa:ae:e8:c6:a9:64:
         3b:ac:d4:55:0a:3f:7c:05:ff:9a:b5:4e:5f:92:02:1a:8f:83:
         fd:07:50:ec:fb:f6:e6:c3:48:da:52:eb:8b:eb:6e:80:1d:e9:
         79:56:22:b9:d4:09:e4:67:1e:00:62:38:f4:04:c3:be:59:e5:
         04:ed:9a:0c:e6:c0:48:e0:5c:af:bb:09:3d:f8:ae:e7:bf:90:
         b5:fe:19:5f:e6:c7:69:c9:e8:3f:37:8e:71:9d:4c:c4:26:e5:
         e5:22:a6:2e:45:9d:4d:22:d0:8f:8b:60:a0:16:ac:b5:a6:7f:
         ed:c2:66:ed:0f:dd:9d:24:b7:b2:10:fb:d6:c0:9d:84:8e:63:
         77:4e:ed:44:ed:d4:8f:0d:c8:eb:0b:2a:3d:7b:08:5e:57:5f:
         1d:ff:d0:c4:20:98:f5:3b:c9:23:66:59:81:8a:61:93:a2:92:
         cd:c7:c4:16:d7:69:b6:27:13:5d:36:f0:b1:1d:6e:99:f7:a0:
         d8:c4:53:53:ff:66:5c:da:c2:05:03:8c:9d:81:71:e8:81:f5:
         a8:2e:e0:1b:bd:fd:77:bf:ea:07:f8:ca:c1:0e:82:9a:36:e6:
         4f:b6:09:a6:96:08:5e:f0:23:6e:eb:22:41:2c:30:0d:a3:58:
         10:5d:6d:a3:ae:e1:fd:08:20:54:21:30:ab:01:d7:28:b0:25:
         bc:53:d2:09:20:ed:22:c2:b6:bc:43:02:50:e5:f2:3c:2f:a6:
         8d:b6:af:a4:95:9e:0a:73:76:72:c7:ed:59:77:b6:3f:2d:b1:
         02:73:ed:1d:79:28:cc:4e:d7:03:2f:20:f3:02:56:13:4a:ea:
         09:10:4a:bd:51:ca:71:73:f2:bb:c8:a9:f8:62:ce:46:ad:a7:
         33:d9:34:58:26:51:83:8a:54:43:43:19:84:d4:77:df:c6:51:
         98:ea:e7:0c:10:ad:12:b8:ae:51:c0:f3:af:38:fc:e8:be:8e:
         69:1a:eb:9d:c4:c4:4a:1a
-----BEGIN CERTIFICATE-----
MIIHSDCCBTCgAwIBAgICAaQwDQYJKoZIhvcNAQEFBQAwgbQxCzAJBgNVBAYTAlVT
MQswCQYDVQQIEwJDQTEVMBMGA1UEBxMMU2FuRnJhbmNpc2NvMRUwEwYDVQQKEwxQ
aXhnbG8sIEluYy4xEDAOBgNVBAsTB1ZQTi1DSUUxGjAYBgNVBAMTEXR1bm5lbC5w
aXhnbG8uY29tMRwwGgYDVQQpExNCYWxhIENoYW5kcmFzZWthcmFuMR4wHAYJKoZI
hvcNAQkBFg9iYWxhQHBpeGdsby5jb20wHhcNMTgwMjE0MDYzMzM3WhcNMjgwMjEy
MDYzMzM3WjCBqTELMAkGA1UEBhMCVVMxCzAJBgNVBAgTAkNBMRUwEwYDVQQHEwxT
YW5GcmFuY2lzY28xFTATBgNVBAoTDFBpeGdsbywgSW5jLjEQMA4GA1UECxMHVlBO
LUNJRTEPMA0GA1UEAxMGY2llNDE5MRwwGgYDVQQpExNCYWxhIENoYW5kcmFzZWth
cmFuMR4wHAYJKoZIhvcNAQkBFg9iYWxhQHBpeGdsby5jb20wggIiMA0GCSqGSIb3
DQEBAQUAA4ICDwAwggIKAoICAQDpwEsboUPAofiSD6faiJ2pGSwpLBat+79CsOYl
9jL4qXN8Zrd94saieC0RAqJr+y2nRKcQ5KybOR7i4nRMw9nQbE6SLW6V/SWGw+Wz
sQbRY+q4c2LS7tpUz0OyAI+qFYWGzPX1znGQ9p/BYPxYpFl/anu94nWeJxRegFrF
68bJCUfpmWKyT+XivW/uSGuUe1izFQlGXMZem+BLTzWkqNu+kIErBKuN92ZsrNlj
2ucZYi41DAAu10eou+Ry/kc0xaOkkZLc+TL/wk7uVoIP8jgAz7nQ+O6s2Fzs9ovC
yth+SbWQZuL8P8aay+LBAkfduOzN2YhQQEDO5ZiQSe/goPL0CX3T3/wbykHhHWa/
fcPt5dTMC9hVDoCE9hvqZ+xElYciivLcwIOPb0LNY6QNMF5ZY9KjXSLJj5g49iTo
dqnhxTChD8TpnhiYuxYJFPC1Zon7L5TY2TZws6hHPF0wBQeBPTtiiCQhFrdTnMIc
Ey5u/2UANA2qabaF0tknwExw0GwWx+uNY4o690QRDFmAXjZG8kvid9xB6FjfH59U
eeTtmAOt09kX5H2i19VeUVmxRBRkYxi/na3JgqezVLIw5/KXOG6Rk94eJfIIpY54
UQ7xGs3vTqmlGg1R1ujHX32VYZ14dOoK0MC4rsNRdqs/i1HLsSXwC1yHIPn12mmx
k0FKAwIDAQABo4IBazCCAWcwCQYDVR0TBAIwADAtBglghkgBhvhCAQ0EIBYeRWFz
eS1SU0EgR2VuZXJhdGVkIENlcnRpZmljYXRlMB0GA1UdDgQWBBTqMzmuPEprEyLU
C1e8JO/ZpjS7gzCB6QYDVR0jBIHhMIHegBTvOI0UUFinW02cF3L837msp1GwEKGB
uqSBtzCBtDELMAkGA1UEBhMCVVMxCzAJBgNVBAgTAkNBMRUwEwYDVQQHEwxTYW5G
cmFuY2lzY28xFTATBgNVBAoTDFBpeGdsbywgSW5jLjEQMA4GA1UECxMHVlBOLUNJ
RTEaMBgGA1UEAxMRdHVubmVsLnBpeGdsby5jb20xHDAaBgNVBCkTE0JhbGEgQ2hh
bmRyYXNla2FyYW4xHjAcBgkqhkiG9w0BCQEWD2JhbGFAcGl4Z2xvLmNvbYIJAKbb
xoOA5qB5MBMGA1UdJQQMMAoGCCsGAQUFBwMCMAsGA1UdDwQEAwIHgDANBgkqhkiG
9w0BAQUFAAOCAgEAxYVtfBAdrqDCBWrem2iFLdWxZwdDZ1UV7wVrf4G/Vg+2V8/R
BmCv/zKYIuVkt2EALzsM3k2ApLSPgqndmJ0a6wM46vklUnGIKU4w3TgV0dzocXDA
nTBzNbyBZZHTgmysj0T1+T+PMbudLWkjUTtMU/E7yqV81365DkXtvyvHlYsgFnai
vPpy8m3rqq7oxqlkO6zUVQo/fAX/mrVOX5ICGo+D/QdQ7Pv25sNI2lLri+tugB3p
eVYiudQJ5GceAGI49ATDvlnlBO2aDObASOBcr7sJPfiu57+Qtf4ZX+bHacnoPzeO
cZ1MxCbl5SKmLkWdTSLQj4tgoBastaZ/7cJm7Q/dnSS3shD71sCdhI5jd07tRO3U
jw3I6wsqPXsIXldfHf/QxCCY9TvJI2ZZgYphk6KSzcfEFtdpticTXTbwsR1umfeg
2MRTU/9mXNrCBQOMnYFx6IH1qC7gG739d7/qB/jKwQ6CmjbmT7YJppYIXvAjbusi
QSwwDaNYEF1to67h/QggVCEwqwHXKLAlvFPSCSDtIsK2vEMCUOXyPC+mjbavpJWe
CnN2csftWXe2Py2xAnPtHXkozE7XAy8g8wJWE0rqCRBKvVHKcXPyu8ip+GLORq2n
M9k0WCZRg4pUQ0MZhNR338ZRmOrnDBCtEriuUcDzrzj86L6OaRrrncTESho=
-----END CERTIFICATE-----
