Certificate:
    Data:
        Version: 3 (0x2)
        Serial Number: 421 (0x1a5)
    Signature Algorithm: sha1WithRSAEncryption
        Issuer: C=US, ST=CA, L=SanFrancisco, O=Pixglo, Inc., OU=VPN-CIE, CN=tunnel.pixglo.com/name=Bala Chandrasekaran/emailAddress=bala@pixglo.com
        Validity
            Not Before: Feb 14 06:33:38 2018 GMT
            Not After : Feb 12 06:33:38 2028 GMT
        Subject: C=US, ST=CA, L=SanFrancisco, O=Pixglo, Inc., OU=VPN-CIE, CN=cie420/name=Bala Chandrasekaran/emailAddress=bala@pixglo.com
        Subject Public Key Info:
            Public Key Algorithm: rsaEncryption
                Public-Key: (4096 bit)
                Modulus:
                    00:be:7e:81:91:90:54:36:15:af:2a:68:5e:44:f3:
                    58:8b:4e:79:a9:56:73:75:1c:e3:f8:3d:8e:6e:dc:
                    d1:34:3c:6f:c8:16:fa:26:5b:da:f7:1d:d8:45:c7:
                    03:7f:54:00:55:8b:d1:80:fa:6d:03:27:cf:28:79:
                    2d:12:77:f0:95:13:1d:21:fe:15:90:b7:ae:da:06:
                    8e:a1:e5:bb:46:3c:d7:d2:ea:a2:1a:a8:7f:34:16:
                    0f:e4:0d:98:eb:12:f0:96:31:c3:df:28:32:11:e8:
                    36:7d:b3:7f:62:17:29:c6:14:92:7c:df:a3:bd:dd:
                    9b:b1:18:35:59:ae:bf:52:0b:9f:bd:c2:d2:a7:2f:
                    1c:f8:76:8e:75:f6:27:16:07:a8:0f:68:f4:78:76:
                    4f:94:74:29:88:c3:2f:2e:8e:1e:10:73:e6:75:e0:
                    b4:75:69:be:6b:95:eb:33:26:a8:77:bf:f4:7a:67:
                    02:c3:aa:da:b6:39:2c:fa:5d:b1:9b:11:e1:1a:61:
                    72:7b:eb:c2:6e:1f:e4:cb:50:2d:36:b8:ce:31:34:
                    60:f6:eb:28:d9:57:ec:c4:3b:90:3b:76:5f:39:eb:
                    1d:54:ba:42:16:58:4b:1e:74:b9:92:f2:ef:71:0b:
                    cf:67:30:2e:ce:45:0b:a5:5a:ad:06:42:65:4b:a4:
                    01:c3:0c:0d:ce:4b:87:29:ed:db:cf:05:33:52:46:
                    20:1f:7a:9b:4c:cb:93:4c:53:e6:ca:d5:4e:05:4a:
                    a3:56:ac:ae:83:8b:c0:e3:48:80:bc:e4:59:ad:c2:
                    c0:a7:53:2f:dd:e4:67:39:d3:7f:64:9a:28:86:05:
                    8c:cb:40:55:c2:a7:b7:32:b2:a2:d7:89:b7:24:4e:
                    4f:28:4b:05:91:01:0f:d7:44:5e:9c:af:d7:ea:f2:
                    de:ce:b7:1c:f3:74:e7:6f:01:2a:a5:00:20:bb:cd:
                    d0:69:38:be:3a:36:54:fa:8a:54:4d:81:11:b8:64:
                    2d:a2:59:1c:4e:bd:1b:e0:7b:54:f8:e4:d2:db:d4:
                    1e:97:d6:73:bf:86:f4:ba:82:93:0a:09:20:3f:51:
                    32:43:6c:b8:cb:2d:92:37:c7:d0:16:2f:19:23:6f:
                    59:91:a5:b9:9d:7e:85:29:d6:73:c5:17:d3:9a:ba:
                    a2:a4:c2:32:49:9b:89:5b:11:5f:68:ba:97:93:2a:
                    d0:52:64:c2:19:de:c0:1d:0a:9b:de:aa:af:96:e7:
                    83:3e:b9:22:cb:c3:73:50:04:21:2d:9a:92:29:20:
                    c7:e0:36:43:ef:4a:90:26:c7:eb:60:a5:74:82:93:
                    7b:fa:6a:cb:a7:f4:34:7e:12:fd:a3:3f:a4:41:8e:
                    30:61:31
                Exponent: 65537 (0x10001)
        X509v3 extensions:
            X509v3 Basic Constraints: 
                CA:FALSE
            Netscape Comment: 
                Easy-RSA Generated Certificate
            X509v3 Subject Key Identifier: 
                17:E9:34:F6:67:A0:01:DF:9A:4F:11:DA:50:AD:71:B4:96:C3:C2:98
            X509v3 Authority Key Identifier: 
                keyid:EF:38:8D:14:50:58:A7:5B:4D:9C:17:72:FC:DF:B9:AC:A7:51:B0:10
                DirName:/C=US/ST=CA/L=SanFrancisco/O=Pixglo, Inc./OU=VPN-CIE/CN=tunnel.pixglo.com/name=Bala Chandrasekaran/emailAddress=bala@pixglo.com
                serial:A6:DB:C6:83:80:E6:A0:79

            X509v3 Extended Key Usage: 
                TLS Web Client Authentication
            X509v3 Key Usage: 
                Digital Signature
    Signature Algorithm: sha1WithRSAEncryption
         5c:fa:c6:a7:6f:9a:7a:85:ac:28:08:c0:9b:dc:bb:ca:44:d1:
         fb:4b:d0:22:20:9f:a3:64:83:46:b5:38:d3:e7:15:96:e8:c7:
         94:3c:31:10:61:8c:cb:cc:05:b7:30:19:ab:e8:74:30:db:ec:
         dc:92:f4:29:0b:40:51:7a:13:a0:be:dc:3d:cd:92:8f:ef:89:
         86:12:ed:13:3b:30:55:04:38:f5:e8:18:cc:2b:dc:6d:45:b7:
         cd:97:da:bd:5e:ac:1e:b8:60:72:18:e4:47:08:f5:fe:68:bb:
         50:25:12:9d:af:6c:11:06:46:3d:e4:fb:06:5a:17:c1:e8:86:
         b2:23:2c:89:41:f0:9c:5f:63:e4:c0:a2:39:2e:58:8e:bb:f4:
         a6:3b:d7:e2:cc:eb:3b:0d:5a:c7:de:3c:d8:7d:74:2f:7f:f2:
         4c:7f:16:33:dd:9b:a3:4f:cc:65:12:b6:d0:cf:5e:4c:88:13:
         59:5b:24:b5:10:84:e2:f7:fa:cf:53:61:f8:c7:52:1f:f5:c0:
         37:62:0b:01:97:c4:a5:04:7d:76:2b:35:a7:11:ea:07:37:43:
         f4:94:59:f7:5b:c3:78:08:2d:24:1c:64:6a:41:38:7f:ae:98:
         71:94:bb:7a:71:d3:19:9f:2f:cc:76:a7:ab:2d:fc:a5:c7:c1:
         82:d8:cb:fb:b7:8b:54:27:05:0f:05:a7:64:66:06:36:eb:f8:
         e3:41:43:15:2c:d4:8b:9e:6d:d8:a8:13:00:01:94:de:74:fe:
         98:4b:e9:69:c6:66:35:c3:ed:8d:0a:3d:3d:41:d7:a2:56:90:
         4f:c8:e5:b4:42:d1:03:5d:ca:1b:e9:52:e0:a0:01:66:f6:66:
         a3:a0:25:e5:72:91:6d:25:49:78:37:e6:f4:c6:63:02:de:c9:
         51:4c:5a:40:bf:bd:80:06:b3:8c:c1:a4:35:c7:82:2f:dc:07:
         a0:5b:b3:23:18:2c:89:7c:b4:ac:b4:1c:24:60:bb:b5:0d:37:
         19:5b:23:e7:dd:2f:e9:de:ec:6f:7b:ea:2d:e6:83:0e:d9:05:
         ad:da:03:5d:ea:3a:cc:b5:01:5c:db:a5:5b:b1:2e:1d:08:31:
         98:a5:c0:22:ff:b5:22:8e:e2:ec:2d:40:c1:2b:3a:b4:c7:4d:
         6d:26:a9:35:24:0d:34:72:0e:58:45:76:c8:e9:af:7e:60:09:
         2f:f2:a4:e1:55:38:bf:ad:90:63:b1:4c:bf:79:35:04:2b:61:
         ec:63:e9:1b:d4:63:c4:31:2c:23:dc:43:f9:4c:56:79:75:b1:
         95:59:80:84:6b:f7:a5:ac:a1:c1:10:34:4d:36:47:c0:9b:74:
         fe:20:38:44:a1:a3:45:9f
-----BEGIN CERTIFICATE-----
MIIHSDCCBTCgAwIBAgICAaUwDQYJKoZIhvcNAQEFBQAwgbQxCzAJBgNVBAYTAlVT
MQswCQYDVQQIEwJDQTEVMBMGA1UEBxMMU2FuRnJhbmNpc2NvMRUwEwYDVQQKEwxQ
aXhnbG8sIEluYy4xEDAOBgNVBAsTB1ZQTi1DSUUxGjAYBgNVBAMTEXR1bm5lbC5w
aXhnbG8uY29tMRwwGgYDVQQpExNCYWxhIENoYW5kcmFzZWthcmFuMR4wHAYJKoZI
hvcNAQkBFg9iYWxhQHBpeGdsby5jb20wHhcNMTgwMjE0MDYzMzM4WhcNMjgwMjEy
MDYzMzM4WjCBqTELMAkGA1UEBhMCVVMxCzAJBgNVBAgTAkNBMRUwEwYDVQQHEwxT
YW5GcmFuY2lzY28xFTATBgNVBAoTDFBpeGdsbywgSW5jLjEQMA4GA1UECxMHVlBO
LUNJRTEPMA0GA1UEAxMGY2llNDIwMRwwGgYDVQQpExNCYWxhIENoYW5kcmFzZWth
cmFuMR4wHAYJKoZIhvcNAQkBFg9iYWxhQHBpeGdsby5jb20wggIiMA0GCSqGSIb3
DQEBAQUAA4ICDwAwggIKAoICAQC+foGRkFQ2Fa8qaF5E81iLTnmpVnN1HOP4PY5u
3NE0PG/IFvomW9r3HdhFxwN/VABVi9GA+m0DJ88oeS0Sd/CVEx0h/hWQt67aBo6h
5btGPNfS6qIaqH80Fg/kDZjrEvCWMcPfKDIR6DZ9s39iFynGFJJ836O93ZuxGDVZ
rr9SC5+9wtKnLxz4do519icWB6gPaPR4dk+UdCmIwy8ujh4Qc+Z14LR1ab5rlesz
Jqh3v/R6ZwLDqtq2OSz6XbGbEeEaYXJ768JuH+TLUC02uM4xNGD26yjZV+zEO5A7
dl856x1UukIWWEsedLmS8u9xC89nMC7ORQulWq0GQmVLpAHDDA3OS4cp7dvPBTNS
RiAfeptMy5NMU+bK1U4FSqNWrK6Di8DjSIC85FmtwsCnUy/d5Gc5039kmiiGBYzL
QFXCp7cysqLXibckTk8oSwWRAQ/XRF6cr9fq8t7OtxzzdOdvASqlACC7zdBpOL46
NlT6ilRNgRG4ZC2iWRxOvRvge1T45NLb1B6X1nO/hvS6gpMKCSA/UTJDbLjLLZI3
x9AWLxkjb1mRpbmdfoUp1nPFF9OauqKkwjJJm4lbEV9oupeTKtBSZMIZ3sAdCpve
qq+W54M+uSLLw3NQBCEtmpIpIMfgNkPvSpAmx+tgpXSCk3v6asun9DR+Ev2jP6RB
jjBhMQIDAQABo4IBazCCAWcwCQYDVR0TBAIwADAtBglghkgBhvhCAQ0EIBYeRWFz
eS1SU0EgR2VuZXJhdGVkIENlcnRpZmljYXRlMB0GA1UdDgQWBBQX6TT2Z6AB35pP
EdpQrXG0lsPCmDCB6QYDVR0jBIHhMIHegBTvOI0UUFinW02cF3L837msp1GwEKGB
uqSBtzCBtDELMAkGA1UEBhMCVVMxCzAJBgNVBAgTAkNBMRUwEwYDVQQHEwxTYW5G
cmFuY2lzY28xFTATBgNVBAoTDFBpeGdsbywgSW5jLjEQMA4GA1UECxMHVlBOLUNJ
RTEaMBgGA1UEAxMRdHVubmVsLnBpeGdsby5jb20xHDAaBgNVBCkTE0JhbGEgQ2hh
bmRyYXNla2FyYW4xHjAcBgkqhkiG9w0BCQEWD2JhbGFAcGl4Z2xvLmNvbYIJAKbb
xoOA5qB5MBMGA1UdJQQMMAoGCCsGAQUFBwMCMAsGA1UdDwQEAwIHgDANBgkqhkiG
9w0BAQUFAAOCAgEAXPrGp2+aeoWsKAjAm9y7ykTR+0vQIiCfo2SDRrU40+cVlujH
lDwxEGGMy8wFtzAZq+h0MNvs3JL0KQtAUXoToL7cPc2Sj++JhhLtEzswVQQ49egY
zCvcbUW3zZfavV6sHrhgchjkRwj1/mi7UCUSna9sEQZGPeT7BloXweiGsiMsiUHw
nF9j5MCiOS5Yjrv0pjvX4szrOw1ax9482H10L3/yTH8WM92bo0/MZRK20M9eTIgT
WVsktRCE4vf6z1Nh+MdSH/XAN2ILAZfEpQR9dis1pxHqBzdD9JRZ91vDeAgtJBxk
akE4f66YcZS7enHTGZ8vzHanqy38pcfBgtjL+7eLVCcFDwWnZGYGNuv440FDFSzU
i55t2KgTAAGU3nT+mEvpacZmNcPtjQo9PUHXolaQT8jltELRA13KG+lS4KABZvZm
o6Al5XKRbSVJeDfm9MZjAt7JUUxaQL+9gAazjMGkNceCL9wHoFuzIxgsiXy0rLQc
JGC7tQ03GVsj590v6d7sb3vqLeaDDtkFrdoDXeo6zLUBXNulW7EuHQgxmKXAIv+1
Io7i7C1AwSs6tMdNbSapNSQNNHIOWEV2yOmvfmAJL/Kk4VU4v62QY7FMv3k1BCth
7GPpG9RjxDEsI9xD+UxWeXWxlVmAhGv3payhwRA0TTZHwJt0/iA4RKGjRZ8=
-----END CERTIFICATE-----
