Certificate:
    Data:
        Version: 3 (0x2)
        Serial Number: 423 (0x1a7)
    Signature Algorithm: sha1WithRSAEncryption
        Issuer: C=US, ST=CA, L=SanFrancisco, O=Pixglo, Inc., OU=VPN-CIE, CN=tunnel.pixglo.com/name=Bala Chandrasekaran/emailAddress=bala@pixglo.com
        Validity
            Not Before: Feb 14 06:33:41 2018 GMT
            Not After : Feb 12 06:33:41 2028 GMT
        Subject: C=US, ST=CA, L=SanFrancisco, O=Pixglo, Inc., OU=VPN-CIE, CN=cie422/name=Bala Chandrasekaran/emailAddress=bala@pixglo.com
        Subject Public Key Info:
            Public Key Algorithm: rsaEncryption
                Public-Key: (4096 bit)
                Modulus:
                    00:d7:0e:bc:9d:62:4c:b0:de:1d:2b:24:1b:c2:51:
                    e5:e9:57:87:e4:7e:19:1f:96:09:c7:50:eb:c8:be:
                    d5:da:a4:94:3e:7c:1e:59:eb:d6:20:28:f9:99:96:
                    96:36:61:bc:f0:ad:9b:b7:23:15:b6:c9:8e:f3:1a:
                    57:3a:92:b2:a0:ba:d0:7f:11:4e:b9:48:6e:11:fc:
                    0d:5a:c3:f3:6d:54:ca:37:79:88:39:4e:8a:d3:22:
                    6f:e6:1a:35:1a:24:70:1a:90:04:c7:22:06:29:90:
                    ad:17:e3:aa:04:77:c7:83:bb:a6:39:0d:7c:a6:f3:
                    30:4c:39:0e:ac:66:14:a3:d6:49:05:f8:a2:b0:af:
                    ec:89:1b:ad:93:67:18:27:b3:f9:15:12:e8:7f:f7:
                    df:b0:b5:b4:6b:ac:2d:2e:e9:aa:fc:2c:09:dd:3d:
                    02:15:55:1f:2d:ce:34:bc:0e:96:da:36:64:95:89:
                    55:70:f2:35:7a:53:65:e5:a6:78:53:2e:8e:18:02:
                    8c:27:da:2c:ee:bd:5a:40:73:ff:ca:43:5b:aa:59:
                    86:ed:d1:5b:55:b8:8b:8e:d5:f0:45:04:9c:69:bb:
                    7d:11:cd:ee:aa:dc:e7:ae:ed:67:db:85:09:d6:e3:
                    de:6e:4d:c6:23:be:2f:55:4f:33:60:18:9d:01:4c:
                    17:be:9b:6f:06:51:34:2d:5d:6a:fb:ce:9f:b6:fa:
                    ed:16:7d:6b:67:48:b3:2f:c9:66:ec:1f:94:4b:f2:
                    ce:f4:9a:e1:3b:bf:71:7b:47:37:06:b5:74:18:9e:
                    64:b9:b4:a1:9d:d1:6a:d2:ba:48:c0:08:cf:51:0f:
                    3e:01:75:e0:9f:e9:f3:f5:81:5e:c4:56:41:c8:62:
                    47:e6:1a:0d:b8:18:c9:66:79:73:87:8b:3f:73:a4:
                    1c:ec:56:90:8b:38:a0:7a:40:d8:5a:54:c1:1f:78:
                    c0:0b:0e:6d:1b:1e:60:80:25:73:24:85:98:cf:db:
                    54:a7:d3:11:c0:ee:c2:54:56:3c:40:23:fc:72:08:
                    08:4b:32:bd:64:16:f6:93:d5:b0:b1:9c:0a:d1:1e:
                    d0:81:8f:7b:7f:01:78:99:b3:88:fd:8c:58:41:2d:
                    14:e8:e7:2f:c7:57:e4:a6:29:95:5d:20:51:66:67:
                    b7:15:b5:9b:a0:1d:a5:40:a0:7f:8c:89:10:1a:7d:
                    86:4f:da:0c:da:b4:2d:4a:73:43:6b:62:da:3a:4d:
                    2a:36:c3:b2:f4:51:5b:9b:dc:3a:d6:56:e2:c5:00:
                    6b:68:24:0a:d8:1b:ba:71:5e:ca:92:94:01:75:33:
                    5e:e9:2d:4d:29:da:89:19:7e:55:8b:4d:75:aa:56:
                    57:f9:a9
                Exponent: 65537 (0x10001)
        X509v3 extensions:
            X509v3 Basic Constraints: 
                CA:FALSE
            Netscape Comment: 
                Easy-RSA Generated Certificate
            X509v3 Subject Key Identifier: 
                BE:36:B4:D4:EB:34:31:A0:D2:4F:27:AF:73:16:B0:4B:4B:77:31:6E
            X509v3 Authority Key Identifier: 
                keyid:EF:38:8D:14:50:58:A7:5B:4D:9C:17:72:FC:DF:B9:AC:A7:51:B0:10
                DirName:/C=US/ST=CA/L=SanFrancisco/O=Pixglo, Inc./OU=VPN-CIE/CN=tunnel.pixglo.com/name=Bala Chandrasekaran/emailAddress=bala@pixglo.com
                serial:A6:DB:C6:83:80:E6:A0:79

            X509v3 Extended Key Usage: 
                TLS Web Client Authentication
            X509v3 Key Usage: 
                Digital Signature
    Signature Algorithm: sha1WithRSAEncryption
         e0:16:14:af:64:b2:f7:43:69:55:28:0a:bf:fe:d6:52:01:17:
         1f:78:ff:a9:8b:8a:d0:e7:62:c0:10:e9:31:ee:6d:3d:e1:c3:
         bd:6f:0f:33:01:05:e2:06:2e:81:c5:16:61:24:24:4c:70:76:
         81:60:14:a6:aa:83:80:90:89:90:25:e5:39:f8:15:4e:25:d5:
         04:c7:0e:9d:f8:3e:7e:dd:8c:6c:ea:94:c6:20:d9:90:2c:9f:
         8f:ee:74:29:a1:2a:46:97:0b:6e:7e:e3:2c:85:66:86:f5:72:
         d5:a1:ca:50:0d:d7:d5:ce:5e:1c:f9:f1:09:4e:9d:f2:13:8b:
         ee:5b:d7:3f:8b:10:55:18:1e:74:dc:6a:44:69:cf:7c:3f:ba:
         9b:0a:40:17:bc:03:7a:95:59:c7:9c:61:da:bb:99:b8:ed:f6:
         47:22:db:c6:99:8d:2f:5a:9d:9d:9f:ea:93:4a:7e:b6:46:f0:
         ee:4b:24:b3:48:64:0f:5b:33:a1:04:15:55:50:1d:e9:5e:b1:
         d3:43:b9:0c:b8:5a:30:1a:7f:8b:15:a6:3c:6a:09:bd:b5:99:
         6f:33:6d:3e:3a:a7:6e:a6:76:d1:60:ef:ec:30:24:10:0b:05:
         07:8b:43:bd:ee:5f:09:5d:6e:c9:51:ea:6d:da:7f:6b:4a:3b:
         eb:c6:1a:9a:43:f0:a7:e4:13:2f:61:52:35:62:d4:ac:3d:64:
         b8:91:e8:cb:17:b9:e7:b2:a2:c2:4e:2d:5d:94:fd:2f:10:70:
         8d:a6:27:8c:a6:cb:10:fc:08:e8:22:3c:f4:19:86:29:7f:3b:
         1f:b6:6f:d5:f1:eb:f2:33:8d:c3:31:3c:59:a8:9f:87:6c:e3:
         bf:d0:38:48:e4:e1:f1:49:19:13:28:49:40:7f:d3:b3:43:1a:
         11:4b:16:9f:e5:41:68:11:fb:5b:ea:83:32:b6:c8:e2:b4:bc:
         b6:b6:b6:12:d5:b7:db:34:8a:01:05:33:c2:73:8e:1b:2a:75:
         09:02:1a:a4:2b:02:6c:13:9f:1f:9c:9e:e2:20:69:e5:cd:2a:
         a9:5a:88:98:69:7c:34:a0:85:8d:14:eb:01:3d:04:82:b8:f8:
         8a:f9:e7:30:54:2e:72:d5:80:a1:35:4b:fe:ac:ce:dc:17:0e:
         56:e8:73:af:17:32:aa:7f:88:59:dc:a0:30:0f:e6:99:27:dd:
         93:68:e9:bc:84:96:9b:fa:88:22:8a:84:85:30:d0:a8:d4:71:
         3b:e7:01:b2:d1:cd:2d:7a:63:27:66:46:78:78:e2:a1:d1:41:
         32:e3:7b:88:85:d6:72:c3:12:6f:f4:5d:88:4d:4c:18:d2:5c:
         11:ba:61:02:60:4c:64:fc
-----BEGIN CERTIFICATE-----
MIIHSDCCBTCgAwIBAgICAacwDQYJKoZIhvcNAQEFBQAwgbQxCzAJBgNVBAYTAlVT
MQswCQYDVQQIEwJDQTEVMBMGA1UEBxMMU2FuRnJhbmNpc2NvMRUwEwYDVQQKEwxQ
aXhnbG8sIEluYy4xEDAOBgNVBAsTB1ZQTi1DSUUxGjAYBgNVBAMTEXR1bm5lbC5w
aXhnbG8uY29tMRwwGgYDVQQpExNCYWxhIENoYW5kcmFzZWthcmFuMR4wHAYJKoZI
hvcNAQkBFg9iYWxhQHBpeGdsby5jb20wHhcNMTgwMjE0MDYzMzQxWhcNMjgwMjEy
MDYzMzQxWjCBqTELMAkGA1UEBhMCVVMxCzAJBgNVBAgTAkNBMRUwEwYDVQQHEwxT
YW5GcmFuY2lzY28xFTATBgNVBAoTDFBpeGdsbywgSW5jLjEQMA4GA1UECxMHVlBO
LUNJRTEPMA0GA1UEAxMGY2llNDIyMRwwGgYDVQQpExNCYWxhIENoYW5kcmFzZWth
cmFuMR4wHAYJKoZIhvcNAQkBFg9iYWxhQHBpeGdsby5jb20wggIiMA0GCSqGSIb3
DQEBAQUAA4ICDwAwggIKAoICAQDXDrydYkyw3h0rJBvCUeXpV4fkfhkflgnHUOvI
vtXapJQ+fB5Z69YgKPmZlpY2YbzwrZu3IxW2yY7zGlc6krKgutB/EU65SG4R/A1a
w/NtVMo3eYg5TorTIm/mGjUaJHAakATHIgYpkK0X46oEd8eDu6Y5DXym8zBMOQ6s
ZhSj1kkF+KKwr+yJG62TZxgns/kVEuh/99+wtbRrrC0u6ar8LAndPQIVVR8tzjS8
DpbaNmSViVVw8jV6U2XlpnhTLo4YAown2izuvVpAc//KQ1uqWYbt0VtVuIuO1fBF
BJxpu30Rze6q3Oeu7WfbhQnW495uTcYjvi9VTzNgGJ0BTBe+m28GUTQtXWr7zp+2
+u0WfWtnSLMvyWbsH5RL8s70muE7v3F7RzcGtXQYnmS5tKGd0WrSukjACM9RDz4B
deCf6fP1gV7EVkHIYkfmGg24GMlmeXOHiz9zpBzsVpCLOKB6QNhaVMEfeMALDm0b
HmCAJXMkhZjP21Sn0xHA7sJUVjxAI/xyCAhLMr1kFvaT1bCxnArRHtCBj3t/AXiZ
s4j9jFhBLRTo5y/HV+SmKZVdIFFmZ7cVtZugHaVAoH+MiRAafYZP2gzatC1Kc0Nr
Yto6TSo2w7L0UVub3DrWVuLFAGtoJArYG7pxXsqSlAF1M17pLU0p2okZflWLTXWq
Vlf5qQIDAQABo4IBazCCAWcwCQYDVR0TBAIwADAtBglghkgBhvhCAQ0EIBYeRWFz
eS1SU0EgR2VuZXJhdGVkIENlcnRpZmljYXRlMB0GA1UdDgQWBBS+NrTU6zQxoNJP
J69zFrBLS3cxbjCB6QYDVR0jBIHhMIHegBTvOI0UUFinW02cF3L837msp1GwEKGB
uqSBtzCBtDELMAkGA1UEBhMCVVMxCzAJBgNVBAgTAkNBMRUwEwYDVQQHEwxTYW5G
cmFuY2lzY28xFTATBgNVBAoTDFBpeGdsbywgSW5jLjEQMA4GA1UECxMHVlBOLUNJ
RTEaMBgGA1UEAxMRdHVubmVsLnBpeGdsby5jb20xHDAaBgNVBCkTE0JhbGEgQ2hh
bmRyYXNla2FyYW4xHjAcBgkqhkiG9w0BCQEWD2JhbGFAcGl4Z2xvLmNvbYIJAKbb
xoOA5qB5MBMGA1UdJQQMMAoGCCsGAQUFBwMCMAsGA1UdDwQEAwIHgDANBgkqhkiG
9w0BAQUFAAOCAgEA4BYUr2Sy90NpVSgKv/7WUgEXH3j/qYuK0OdiwBDpMe5tPeHD
vW8PMwEF4gYugcUWYSQkTHB2gWAUpqqDgJCJkCXlOfgVTiXVBMcOnfg+ft2MbOqU
xiDZkCyfj+50KaEqRpcLbn7jLIVmhvVy1aHKUA3X1c5eHPnxCU6d8hOL7lvXP4sQ
VRgedNxqRGnPfD+6mwpAF7wDepVZx5xh2ruZuO32RyLbxpmNL1qdnZ/qk0p+tkbw
7ksks0hkD1szoQQVVVAd6V6x00O5DLhaMBp/ixWmPGoJvbWZbzNtPjqnbqZ20WDv
7DAkEAsFB4tDve5fCV1uyVHqbdp/a0o768YamkPwp+QTL2FSNWLUrD1kuJHoyxe5
57Kiwk4tXZT9LxBwjaYnjKbLEPwI6CI89BmGKX87H7Zv1fHr8jONwzE8Waifh2zj
v9A4SOTh8UkZEyhJQH/Ts0MaEUsWn+VBaBH7W+qDMrbI4rS8tra2EtW32zSKAQUz
wnOOGyp1CQIapCsCbBOfH5ye4iBp5c0qqVqImGl8NKCFjRTrAT0Egrj4ivnnMFQu
ctWAoTVL/qzO3BcOVuhzrxcyqn+IWdygMA/mmSfdk2jpvISWm/qIIoqEhTDQqNRx
O+cBstHNLXpjJ2ZGeHjiodFBMuN7iIXWcsMSb/RdiE1MGNJcEbphAmBMZPw=
-----END CERTIFICATE-----
