Certificate:
    Data:
        Version: 3 (0x2)
        Serial Number: 424 (0x1a8)
    Signature Algorithm: sha1WithRSAEncryption
        Issuer: C=US, ST=CA, L=SanFrancisco, O=Pixglo, Inc., OU=VPN-CIE, CN=tunnel.pixglo.com/name=Bala Chandrasekaran/emailAddress=bala@pixglo.com
        Validity
            Not Before: Feb 14 06:33:41 2018 GMT
            Not After : Feb 12 06:33:41 2028 GMT
        Subject: C=US, ST=CA, L=SanFrancisco, O=Pixglo, Inc., OU=VPN-CIE, CN=cie423/name=Bala Chandrasekaran/emailAddress=bala@pixglo.com
        Subject Public Key Info:
            Public Key Algorithm: rsaEncryption
                Public-Key: (4096 bit)
                Modulus:
                    00:db:9f:8e:fe:e2:0b:3a:bb:3b:d7:14:8c:a3:48:
                    27:d5:95:fa:18:45:61:5a:95:2f:05:02:4a:b8:71:
                    c5:84:80:87:8d:a2:21:e6:54:a6:d5:96:2b:47:32:
                    d4:f9:25:fd:3a:58:98:78:e4:43:02:9c:fe:ce:77:
                    36:5f:d3:43:bf:7f:21:ba:ed:95:1d:ec:aa:62:cc:
                    15:0c:93:cf:28:e0:bd:0d:43:92:7f:cf:9e:65:9d:
                    0d:27:d4:43:66:06:26:aa:db:70:e3:91:57:53:58:
                    be:27:6c:c5:a4:29:6f:9d:89:e8:b9:88:34:f6:37:
                    33:39:1e:d8:3a:fa:08:cf:0d:6e:ed:53:81:24:8e:
                    7c:4f:a5:5a:ba:3f:1d:a4:7a:ac:ed:7f:93:be:7b:
                    fe:70:47:cc:5f:10:9e:e2:c6:81:35:a7:f4:11:5d:
                    7f:8f:f6:c6:f8:47:d1:a7:77:27:3f:9b:2b:f4:c9:
                    05:5c:eb:0f:94:1e:f9:37:48:f2:cf:ea:85:5e:b0:
                    72:c0:2e:27:16:bf:88:98:c4:42:73:59:b9:c6:6a:
                    f3:d4:68:bc:ab:b9:4f:7a:c3:1a:4e:b1:a5:cd:a5:
                    a8:b4:75:87:75:e8:84:34:11:3e:bf:ea:90:4a:39:
                    4d:a2:21:4a:62:4a:5e:3a:66:cb:64:0a:60:97:12:
                    19:e5:80:16:92:08:cd:e4:ab:ff:c1:d2:cb:d4:3d:
                    50:b9:49:a0:66:71:90:1b:c8:05:99:6c:df:a4:a6:
                    69:47:df:43:46:fb:bf:77:ce:f4:ce:1e:f7:f3:5c:
                    4b:1f:c8:d8:56:ed:91:cc:8f:db:d8:0a:3d:7f:da:
                    db:2c:29:5d:bd:a6:ab:54:3a:7e:9a:bb:ed:05:36:
                    7c:9a:b4:fb:0d:e6:b8:cf:58:12:85:b4:64:96:63:
                    ba:44:9c:d3:14:c1:02:ab:87:c8:92:07:81:5c:12:
                    a8:c0:09:07:d9:cf:13:75:72:35:ac:56:b7:a6:93:
                    33:2c:5c:40:7e:ee:ed:91:f4:61:5a:50:83:c8:89:
                    42:79:2f:24:61:72:87:68:6a:97:3e:6b:3c:4b:0d:
                    a7:43:c4:ac:89:63:fc:7c:94:6b:52:4b:38:d7:44:
                    bb:ac:01:cf:7a:0d:7a:36:ff:68:ac:2d:bc:16:a1:
                    8e:76:b5:8d:31:61:14:a8:3a:7f:09:a0:c8:9b:42:
                    9d:d4:68:ba:7b:45:c8:8f:27:98:c5:fb:71:75:65:
                    47:7d:35:a6:38:25:a4:ad:20:e1:85:a3:36:84:e9:
                    16:fc:92:1b:46:19:fa:9b:3f:68:2e:51:38:9a:dd:
                    b0:e4:9f:5b:87:7b:e8:56:80:9c:57:79:d8:18:92:
                    44:4a:11
                Exponent: 65537 (0x10001)
        X509v3 extensions:
            X509v3 Basic Constraints: 
                CA:FALSE
            Netscape Comment: 
                Easy-RSA Generated Certificate
            X509v3 Subject Key Identifier: 
                D0:4B:6F:74:61:E0:0F:7F:5D:0D:E7:56:32:65:E8:E3:68:4B:59:A2
            X509v3 Authority Key Identifier: 
                keyid:EF:38:8D:14:50:58:A7:5B:4D:9C:17:72:FC:DF:B9:AC:A7:51:B0:10
                DirName:/C=US/ST=CA/L=SanFrancisco/O=Pixglo, Inc./OU=VPN-CIE/CN=tunnel.pixglo.com/name=Bala Chandrasekaran/emailAddress=bala@pixglo.com
                serial:A6:DB:C6:83:80:E6:A0:79

            X509v3 Extended Key Usage: 
                TLS Web Client Authentication
            X509v3 Key Usage: 
                Digital Signature
    Signature Algorithm: sha1WithRSAEncryption
         ba:c7:3a:9b:41:11:5c:f1:02:6c:89:18:a6:e7:09:31:b5:6d:
         0a:96:e4:19:82:16:ad:2a:78:d8:83:66:42:20:f6:2b:2c:d1:
         a8:3d:e5:6a:38:5c:f8:e0:3c:6e:1c:ac:e2:f7:10:8e:4b:bd:
         6f:66:8a:88:9a:e7:6f:78:0a:e1:01:03:bb:ae:5a:3c:f0:e1:
         03:1b:c3:9f:2f:90:bb:0c:6f:c8:10:18:02:87:e3:e4:16:0e:
         b1:9b:0c:9b:3c:65:fb:4e:ff:ea:55:0a:12:28:71:cf:4b:d0:
         c8:91:f3:e6:03:7d:6f:a7:b5:69:5d:db:1b:22:88:fb:87:64:
         84:24:09:5f:2e:c6:e6:f1:be:e5:c6:f4:3f:a5:28:9a:8c:ec:
         2b:cc:71:eb:bb:84:62:23:2f:b6:bb:c8:82:23:60:90:d7:c9:
         99:0f:82:52:42:e8:68:84:97:db:27:1d:9a:35:f4:26:02:0b:
         02:58:a9:be:83:d3:6d:31:74:4d:27:ac:56:f8:14:4e:d5:99:
         b3:cf:96:88:45:40:2c:05:2b:7d:aa:3b:ec:57:42:3e:e3:73:
         fb:e9:9a:0c:28:ed:aa:14:75:41:88:bb:80:49:54:d3:7d:a9:
         79:41:8f:70:08:fa:67:93:0a:7f:20:93:ae:26:f3:85:eb:dc:
         c4:a1:d9:23:76:67:04:6a:ba:4b:27:0e:df:e2:11:5f:c3:66:
         17:78:bd:06:a5:d2:db:5b:b4:46:2c:6f:f4:b5:5f:d2:3b:e3:
         ea:8a:3f:28:12:e5:8a:0e:db:4b:bf:a6:e2:f2:df:37:f5:7f:
         28:2e:1a:e8:e7:98:d2:6a:65:c5:3a:b9:e8:a2:fe:e8:99:5d:
         1b:74:12:25:23:5a:ff:07:60:da:09:5d:bd:1e:d7:80:e8:17:
         08:59:ab:85:c3:a4:ae:06:07:96:05:6b:50:fc:1c:28:a7:a3:
         ac:49:3e:31:a8:97:6c:91:31:83:5d:6c:e0:1f:6d:76:fe:7e:
         80:35:44:53:23:f8:dc:f0:e3:47:f3:50:e2:60:c4:38:65:5b:
         c3:cc:eb:2b:f4:94:2a:bc:14:65:c5:15:a1:52:22:cd:81:ee:
         90:c4:e4:76:00:9b:c7:26:05:b0:26:77:c4:b7:43:0e:70:e0:
         1e:ad:9b:f3:27:d5:82:27:74:e3:30:53:51:51:0d:69:07:07:
         46:88:c9:73:a0:4c:b0:50:a1:7d:3f:54:79:06:5e:27:55:65:
         e7:49:f3:5f:aa:78:15:07:b0:97:73:8b:08:76:79:9f:61:d3:
         a8:e5:05:47:82:5c:04:d6:83:b9:e5:5e:65:f2:ed:25:ca:8f:
         fe:0e:d2:f7:b5:10:3d:fc
-----BEGIN CERTIFICATE-----
MIIHSDCCBTCgAwIBAgICAagwDQYJKoZIhvcNAQEFBQAwgbQxCzAJBgNVBAYTAlVT
MQswCQYDVQQIEwJDQTEVMBMGA1UEBxMMU2FuRnJhbmNpc2NvMRUwEwYDVQQKEwxQ
aXhnbG8sIEluYy4xEDAOBgNVBAsTB1ZQTi1DSUUxGjAYBgNVBAMTEXR1bm5lbC5w
aXhnbG8uY29tMRwwGgYDVQQpExNCYWxhIENoYW5kcmFzZWthcmFuMR4wHAYJKoZI
hvcNAQkBFg9iYWxhQHBpeGdsby5jb20wHhcNMTgwMjE0MDYzMzQxWhcNMjgwMjEy
MDYzMzQxWjCBqTELMAkGA1UEBhMCVVMxCzAJBgNVBAgTAkNBMRUwEwYDVQQHEwxT
YW5GcmFuY2lzY28xFTATBgNVBAoTDFBpeGdsbywgSW5jLjEQMA4GA1UECxMHVlBO
LUNJRTEPMA0GA1UEAxMGY2llNDIzMRwwGgYDVQQpExNCYWxhIENoYW5kcmFzZWth
cmFuMR4wHAYJKoZIhvcNAQkBFg9iYWxhQHBpeGdsby5jb20wggIiMA0GCSqGSIb3
DQEBAQUAA4ICDwAwggIKAoICAQDbn47+4gs6uzvXFIyjSCfVlfoYRWFalS8FAkq4
ccWEgIeNoiHmVKbVlitHMtT5Jf06WJh45EMCnP7OdzZf00O/fyG67ZUd7KpizBUM
k88o4L0NQ5J/z55lnQ0n1ENmBiaq23DjkVdTWL4nbMWkKW+diei5iDT2NzM5Htg6
+gjPDW7tU4EkjnxPpVq6Px2keqztf5O+e/5wR8xfEJ7ixoE1p/QRXX+P9sb4R9Gn
dyc/myv0yQVc6w+UHvk3SPLP6oVesHLALicWv4iYxEJzWbnGavPUaLyruU96wxpO
saXNpai0dYd16IQ0ET6/6pBKOU2iIUpiSl46ZstkCmCXEhnlgBaSCM3kq//B0svU
PVC5SaBmcZAbyAWZbN+kpmlH30NG+793zvTOHvfzXEsfyNhW7ZHMj9vYCj1/2tss
KV29pqtUOn6au+0FNnyatPsN5rjPWBKFtGSWY7pEnNMUwQKrh8iSB4FcEqjACQfZ
zxN1cjWsVremkzMsXEB+7u2R9GFaUIPIiUJ5LyRhcodoapc+azxLDadDxKyJY/x8
lGtSSzjXRLusAc96DXo2/2isLbwWoY52tY0xYRSoOn8JoMibQp3UaLp7RciPJ5jF
+3F1ZUd9NaY4JaStIOGFozaE6Rb8khtGGfqbP2guUTia3bDkn1uHe+hWgJxXedgY
kkRKEQIDAQABo4IBazCCAWcwCQYDVR0TBAIwADAtBglghkgBhvhCAQ0EIBYeRWFz
eS1SU0EgR2VuZXJhdGVkIENlcnRpZmljYXRlMB0GA1UdDgQWBBTQS290YeAPf10N
51YyZejjaEtZojCB6QYDVR0jBIHhMIHegBTvOI0UUFinW02cF3L837msp1GwEKGB
uqSBtzCBtDELMAkGA1UEBhMCVVMxCzAJBgNVBAgTAkNBMRUwEwYDVQQHEwxTYW5G
cmFuY2lzY28xFTATBgNVBAoTDFBpeGdsbywgSW5jLjEQMA4GA1UECxMHVlBOLUNJ
RTEaMBgGA1UEAxMRdHVubmVsLnBpeGdsby5jb20xHDAaBgNVBCkTE0JhbGEgQ2hh
bmRyYXNla2FyYW4xHjAcBgkqhkiG9w0BCQEWD2JhbGFAcGl4Z2xvLmNvbYIJAKbb
xoOA5qB5MBMGA1UdJQQMMAoGCCsGAQUFBwMCMAsGA1UdDwQEAwIHgDANBgkqhkiG
9w0BAQUFAAOCAgEAusc6m0ERXPECbIkYpucJMbVtCpbkGYIWrSp42INmQiD2KyzR
qD3lajhc+OA8bhys4vcQjku9b2aKiJrnb3gK4QEDu65aPPDhAxvDny+QuwxvyBAY
Aofj5BYOsZsMmzxl+07/6lUKEihxz0vQyJHz5gN9b6e1aV3bGyKI+4dkhCQJXy7G
5vG+5cb0P6UomozsK8xx67uEYiMvtrvIgiNgkNfJmQ+CUkLoaISX2ycdmjX0JgIL
AlipvoPTbTF0TSesVvgUTtWZs8+WiEVALAUrfao77FdCPuNz++maDCjtqhR1QYi7
gElU032peUGPcAj6Z5MKfyCTribzhevcxKHZI3ZnBGq6SycO3+IRX8NmF3i9BqXS
21u0Rixv9LVf0jvj6oo/KBLlig7bS7+m4vLfN/V/KC4a6OeY0mplxTq56KL+6Jld
G3QSJSNa/wdg2gldvR7XgOgXCFmrhcOkrgYHlgVrUPwcKKejrEk+MaiXbJExg11s
4B9tdv5+gDVEUyP43PDjR/NQ4mDEOGVbw8zrK/SUKrwUZcUVoVIizYHukMTkdgCb
xyYFsCZ3xLdDDnDgHq2b8yfVgid04zBTUVENaQcHRojJc6BMsFChfT9UeQZeJ1Vl
50nzX6p4FQewl3OLCHZ5n2HTqOUFR4JcBNaDueVeZfLtJcqP/g7S97UQPfw=
-----END CERTIFICATE-----
