Certificate:
    Data:
        Version: 3 (0x2)
        Serial Number: 425 (0x1a9)
    Signature Algorithm: sha1WithRSAEncryption
        Issuer: C=US, ST=CA, L=SanFrancisco, O=Pixglo, Inc., OU=VPN-CIE, CN=tunnel.pixglo.com/name=Bala Chandrasekaran/emailAddress=bala@pixglo.com
        Validity
            Not Before: Feb 14 06:33:44 2018 GMT
            Not After : Feb 12 06:33:44 2028 GMT
        Subject: C=US, ST=CA, L=SanFrancisco, O=Pixglo, Inc., OU=VPN-CIE, CN=cie424/name=Bala Chandrasekaran/emailAddress=bala@pixglo.com
        Subject Public Key Info:
            Public Key Algorithm: rsaEncryption
                Public-Key: (4096 bit)
                Modulus:
                    00:a6:d4:be:38:d3:f0:80:fb:e6:4b:d1:b6:ef:b4:
                    a9:5c:6a:63:e6:2f:2c:82:bf:37:3f:8e:98:e7:68:
                    b4:61:59:87:8f:53:1a:65:b9:7e:c4:32:e3:95:0e:
                    ec:5c:51:d4:d6:94:48:8e:3c:f3:e5:4e:f3:0c:19:
                    1e:41:30:ea:cd:6d:71:4c:dd:f4:05:f5:8f:f3:e2:
                    ec:87:97:32:8c:ef:46:c7:ad:74:89:e8:6e:47:7d:
                    47:1d:7d:c4:41:3a:42:b3:b6:7f:e5:3c:2a:d7:b1:
                    5f:75:3f:1d:f9:f8:ba:7f:f4:7f:28:dc:cc:7d:96:
                    04:ad:29:8f:b6:b3:86:42:69:6b:73:ca:a1:e7:4d:
                    4f:b2:4e:e4:b8:30:e2:da:39:2c:41:63:fa:f4:80:
                    49:df:e3:e8:6f:57:51:1d:aa:84:f8:d1:bb:51:44:
                    86:f2:eb:a9:13:80:fd:40:4d:ca:15:3b:ba:d7:2c:
                    74:5c:3c:34:4a:07:93:24:79:d9:50:9b:f9:e0:53:
                    e0:dc:47:58:30:51:a2:ae:c6:d2:aa:97:c1:7e:87:
                    5a:98:20:e1:9b:d2:ab:de:8f:ae:f9:64:2f:43:a3:
                    29:b7:b3:25:4b:4a:c0:b4:a1:ec:c0:7a:4a:eb:75:
                    d9:8e:c1:83:dc:8b:70:aa:0c:22:bf:f2:e9:83:70:
                    e7:d0:ac:28:bd:ea:33:d6:92:1d:02:3e:55:1e:e0:
                    2d:bf:08:8f:8e:38:51:d6:16:a5:b1:3e:70:f7:7c:
                    44:62:70:79:3a:52:75:98:a3:15:44:a3:46:e2:11:
                    5c:8b:db:fc:aa:23:9a:60:44:32:b4:f9:0d:cc:51:
                    ae:84:f3:7b:9f:0f:3d:22:b8:4d:cd:53:05:90:00:
                    6e:14:7b:af:6c:ff:5f:93:34:d4:69:88:43:23:ea:
                    e8:33:8a:41:64:b3:d5:49:a9:54:04:3a:30:3a:de:
                    2e:fc:d3:1b:20:86:eb:31:3e:2c:87:a6:d7:c8:06:
                    fc:c2:20:ae:8b:d7:8d:5e:47:05:3a:b7:f1:43:af:
                    68:ab:23:17:b6:1d:78:d5:65:08:51:cf:40:6d:00:
                    da:76:5c:ca:9a:67:04:e7:00:d8:fa:82:70:a4:06:
                    b9:5d:42:1a:bd:0b:0e:ed:3b:f5:25:a5:bb:2e:23:
                    d6:cf:fc:de:27:13:47:2b:9f:4f:f5:b5:3e:0b:39:
                    9e:31:32:23:a1:30:3d:2e:17:f3:2d:22:d9:51:ca:
                    b9:5e:f7:db:df:a5:8d:21:6b:d5:fd:a6:0e:d6:64:
                    40:58:9f:2b:b9:a9:bf:c2:7c:69:55:e1:a7:1d:a8:
                    96:48:03:da:41:93:06:3a:7a:84:c3:0a:71:1d:0b:
                    29:69:0b
                Exponent: 65537 (0x10001)
        X509v3 extensions:
            X509v3 Basic Constraints: 
                CA:FALSE
            Netscape Comment: 
                Easy-RSA Generated Certificate
            X509v3 Subject Key Identifier: 
                54:CA:87:0C:2D:E9:0C:1A:F7:9F:C2:17:78:F4:E0:5F:34:27:3A:F2
            X509v3 Authority Key Identifier: 
                keyid:EF:38:8D:14:50:58:A7:5B:4D:9C:17:72:FC:DF:B9:AC:A7:51:B0:10
                DirName:/C=US/ST=CA/L=SanFrancisco/O=Pixglo, Inc./OU=VPN-CIE/CN=tunnel.pixglo.com/name=Bala Chandrasekaran/emailAddress=bala@pixglo.com
                serial:A6:DB:C6:83:80:E6:A0:79

            X509v3 Extended Key Usage: 
                TLS Web Client Authentication
            X509v3 Key Usage: 
                Digital Signature
    Signature Algorithm: sha1WithRSAEncryption
         51:98:27:86:83:60:7a:01:9c:0b:64:3d:6a:f3:94:bf:0f:cf:
         32:e0:42:e0:a9:67:09:d2:0e:b5:e4:21:2e:3e:b3:48:09:36:
         84:7d:3b:43:64:67:78:b0:80:e3:91:6a:50:fb:b3:3c:a1:14:
         7b:f2:63:68:1d:f6:77:18:75:22:37:0f:28:45:0c:67:c4:2a:
         73:15:af:7b:14:3b:8c:12:79:d8:b1:d6:26:ef:18:4b:d9:d8:
         cb:cd:03:29:da:14:1e:fb:1b:a0:da:ee:82:5e:1d:77:41:71:
         24:f5:66:81:d5:84:6b:92:bb:dd:7d:47:f5:83:13:05:00:b2:
         35:f2:ff:9e:a7:02:b4:3f:d3:25:83:6b:f6:d7:92:41:39:39:
         81:25:50:cb:87:7b:57:08:ed:ff:7d:b2:67:74:8b:a0:31:cf:
         7c:ac:67:20:41:9b:6f:1d:58:bc:cb:fc:cd:2e:35:b8:e1:0d:
         8a:e4:cb:5f:83:fa:ed:89:0d:bb:b6:50:f1:f7:e1:a3:bc:8f:
         db:3f:d1:3b:55:8d:9d:30:80:69:96:80:91:26:c1:55:6d:ce:
         65:9d:ca:43:cb:ae:d2:aa:cc:f1:52:9c:f2:a7:6f:4d:57:e8:
         c9:82:ea:eb:ba:3c:d2:a9:c7:d7:80:5b:4e:b1:dd:6e:50:99:
         fc:41:49:4b:a2:7d:c4:7b:85:70:fa:48:0a:1c:c1:44:28:9d:
         37:9b:b2:02:10:0a:ba:0b:ab:54:99:50:34:79:41:e7:0f:ec:
         a3:ba:07:af:a0:7f:62:e1:cc:5e:a2:77:c0:87:b4:72:9d:53:
         67:49:78:4c:18:2c:aa:b7:0e:0d:99:9f:a7:19:1a:3c:34:99:
         c2:2d:6a:e3:88:e1:f7:40:29:55:3d:cb:53:b3:a6:c3:50:9d:
         e6:1d:04:80:de:45:3a:27:91:98:80:ba:75:e8:10:d9:5e:44:
         6a:53:71:85:1a:46:f2:8d:98:43:30:fa:8f:47:26:0f:9e:dd:
         c4:87:c9:88:76:41:82:83:ec:29:14:e7:a6:17:3c:92:2e:5e:
         00:75:ab:a8:97:b8:b8:62:6b:09:4e:ad:5e:df:e3:a4:5f:f4:
         50:c6:6f:65:ec:b3:15:9a:fd:66:e2:a0:2a:f4:44:e5:e8:3c:
         30:25:2c:7c:a5:30:14:5c:55:fe:87:de:de:c1:d2:20:52:79:
         af:af:60:98:3f:e6:68:97:a8:8f:b7:02:23:14:4c:a4:41:37:
         47:73:0d:e9:fb:22:7a:ec:5d:25:48:fa:87:8e:4d:af:bb:6c:
         96:d0:93:41:c4:32:29:f7:2b:b8:aa:d4:ed:b3:1b:ce:cb:ed:
         37:08:c3:d5:8e:61:40:80
-----BEGIN CERTIFICATE-----
MIIHSDCCBTCgAwIBAgICAakwDQYJKoZIhvcNAQEFBQAwgbQxCzAJBgNVBAYTAlVT
MQswCQYDVQQIEwJDQTEVMBMGA1UEBxMMU2FuRnJhbmNpc2NvMRUwEwYDVQQKEwxQ
aXhnbG8sIEluYy4xEDAOBgNVBAsTB1ZQTi1DSUUxGjAYBgNVBAMTEXR1bm5lbC5w
aXhnbG8uY29tMRwwGgYDVQQpExNCYWxhIENoYW5kcmFzZWthcmFuMR4wHAYJKoZI
hvcNAQkBFg9iYWxhQHBpeGdsby5jb20wHhcNMTgwMjE0MDYzMzQ0WhcNMjgwMjEy
MDYzMzQ0WjCBqTELMAkGA1UEBhMCVVMxCzAJBgNVBAgTAkNBMRUwEwYDVQQHEwxT
YW5GcmFuY2lzY28xFTATBgNVBAoTDFBpeGdsbywgSW5jLjEQMA4GA1UECxMHVlBO
LUNJRTEPMA0GA1UEAxMGY2llNDI0MRwwGgYDVQQpExNCYWxhIENoYW5kcmFzZWth
cmFuMR4wHAYJKoZIhvcNAQkBFg9iYWxhQHBpeGdsby5jb20wggIiMA0GCSqGSIb3
DQEBAQUAA4ICDwAwggIKAoICAQCm1L440/CA++ZL0bbvtKlcamPmLyyCvzc/jpjn
aLRhWYePUxpluX7EMuOVDuxcUdTWlEiOPPPlTvMMGR5BMOrNbXFM3fQF9Y/z4uyH
lzKM70bHrXSJ6G5HfUcdfcRBOkKztn/lPCrXsV91Px35+Lp/9H8o3Mx9lgStKY+2
s4ZCaWtzyqHnTU+yTuS4MOLaOSxBY/r0gEnf4+hvV1EdqoT40btRRIby66kTgP1A
TcoVO7rXLHRcPDRKB5MkedlQm/ngU+DcR1gwUaKuxtKql8F+h1qYIOGb0qvej675
ZC9Doym3syVLSsC0oezAekrrddmOwYPci3CqDCK/8umDcOfQrCi96jPWkh0CPlUe
4C2/CI+OOFHWFqWxPnD3fERicHk6UnWYoxVEo0biEVyL2/yqI5pgRDK0+Q3MUa6E
83ufDz0iuE3NUwWQAG4Ue69s/1+TNNRpiEMj6ugzikFks9VJqVQEOjA63i780xsg
husxPiyHptfIBvzCIK6L141eRwU6t/FDr2irIxe2HXjVZQhRz0BtANp2XMqaZwTn
ANj6gnCkBrldQhq9Cw7tO/UlpbsuI9bP/N4nE0crn0/1tT4LOZ4xMiOhMD0uF/Mt
ItlRyrle99vfpY0ha9X9pg7WZEBYnyu5qb/CfGlV4acdqJZIA9pBkwY6eoTDCnEd
CylpCwIDAQABo4IBazCCAWcwCQYDVR0TBAIwADAtBglghkgBhvhCAQ0EIBYeRWFz
eS1SU0EgR2VuZXJhdGVkIENlcnRpZmljYXRlMB0GA1UdDgQWBBRUyocMLekMGvef
whd49OBfNCc68jCB6QYDVR0jBIHhMIHegBTvOI0UUFinW02cF3L837msp1GwEKGB
uqSBtzCBtDELMAkGA1UEBhMCVVMxCzAJBgNVBAgTAkNBMRUwEwYDVQQHEwxTYW5G
cmFuY2lzY28xFTATBgNVBAoTDFBpeGdsbywgSW5jLjEQMA4GA1UECxMHVlBOLUNJ
RTEaMBgGA1UEAxMRdHVubmVsLnBpeGdsby5jb20xHDAaBgNVBCkTE0JhbGEgQ2hh
bmRyYXNla2FyYW4xHjAcBgkqhkiG9w0BCQEWD2JhbGFAcGl4Z2xvLmNvbYIJAKbb
xoOA5qB5MBMGA1UdJQQMMAoGCCsGAQUFBwMCMAsGA1UdDwQEAwIHgDANBgkqhkiG
9w0BAQUFAAOCAgEAUZgnhoNgegGcC2Q9avOUvw/PMuBC4KlnCdIOteQhLj6zSAk2
hH07Q2RneLCA45FqUPuzPKEUe/JjaB32dxh1IjcPKEUMZ8QqcxWvexQ7jBJ52LHW
Ju8YS9nYy80DKdoUHvsboNrugl4dd0FxJPVmgdWEa5K73X1H9YMTBQCyNfL/nqcC
tD/TJYNr9teSQTk5gSVQy4d7Vwjt/32yZ3SLoDHPfKxnIEGbbx1YvMv8zS41uOEN
iuTLX4P67YkNu7ZQ8ffho7yP2z/RO1WNnTCAaZaAkSbBVW3OZZ3KQ8uu0qrM8VKc
8qdvTVfoyYLq67o80qnH14BbTrHdblCZ/EFJS6J9xHuFcPpIChzBRCidN5uyAhAK
ugurVJlQNHlB5w/so7oHr6B/YuHMXqJ3wIe0cp1TZ0l4TBgsqrcODZmfpxkaPDSZ
wi1q44jh90ApVT3LU7Omw1Cd5h0EgN5FOieRmIC6degQ2V5EalNxhRpG8o2YQzD6
j0cmD57dxIfJiHZBgoPsKRTnphc8ki5eAHWrqJe4uGJrCU6tXt/jpF/0UMZvZeyz
FZr9ZuKgKvRE5eg8MCUsfKUwFFxV/ofe3sHSIFJ5r69gmD/maJeoj7cCIxRMpEE3
R3MN6fsieuxdJUj6h45Nr7tsltCTQcQyKfcruKrU7bMbzsvtNwjD1Y5hQIA=
-----END CERTIFICATE-----
