Certificate:
    Data:
        Version: 3 (0x2)
        Serial Number: 427 (0x1ab)
    Signature Algorithm: sha1WithRSAEncryption
        Issuer: C=US, ST=CA, L=SanFrancisco, O=Pixglo, Inc., OU=VPN-CIE, CN=tunnel.pixglo.com/name=Bala Chandrasekaran/emailAddress=bala@pixglo.com
        Validity
            Not Before: Feb 14 06:33:45 2018 GMT
            Not After : Feb 12 06:33:45 2028 GMT
        Subject: C=US, ST=CA, L=SanFrancisco, O=Pixglo, Inc., OU=VPN-CIE, CN=cie426/name=Bala Chandrasekaran/emailAddress=bala@pixglo.com
        Subject Public Key Info:
            Public Key Algorithm: rsaEncryption
                Public-Key: (4096 bit)
                Modulus:
                    00:dd:2f:3b:0b:ae:e4:bd:60:88:04:74:5f:69:4d:
                    71:35:25:b4:5f:e5:54:b6:3f:bf:89:9c:32:11:38:
                    d6:c5:a0:82:b3:a9:29:36:e9:40:ab:f8:33:11:61:
                    74:7b:cc:f7:0d:c2:87:a4:2b:d3:be:77:81:56:08:
                    4c:b2:ba:a7:4b:77:81:2c:9e:a7:be:b7:96:54:53:
                    9d:74:26:ac:2f:18:ee:ec:78:12:ac:f5:70:47:59:
                    37:ff:ea:eb:2f:dc:20:b5:a6:6a:4e:f0:6f:5b:cd:
                    d2:63:c4:26:37:2d:ea:37:85:70:f2:bd:8b:01:ca:
                    36:9e:34:11:7f:ce:a8:b1:43:30:50:38:b6:6c:f1:
                    47:bf:bd:89:e4:bd:0f:94:78:da:7c:44:aa:e7:19:
                    ee:fd:46:b7:c2:c1:04:37:8d:3e:9e:4c:bb:fd:94:
                    30:ca:61:71:f6:e0:08:f9:3e:b2:05:08:59:42:a9:
                    21:16:25:28:ba:43:8a:9f:09:0c:70:32:2c:9c:a5:
                    6a:a8:09:f7:30:1d:e3:79:f6:8d:bc:bb:38:26:d5:
                    6c:aa:dd:5b:0b:e0:36:68:a1:27:1b:be:4d:10:cf:
                    f6:0d:b4:34:80:16:f5:30:61:f4:34:14:63:0c:f4:
                    53:ec:96:c0:22:2b:d0:f2:b3:c3:7a:d5:ff:92:99:
                    77:33:e0:cf:75:2f:23:27:1b:fd:26:da:02:a3:a2:
                    81:da:47:b3:cf:62:ad:57:e3:e1:73:3f:64:b4:a4:
                    d3:ce:27:03:f2:dc:c2:34:7e:cc:8d:d1:bf:b3:e6:
                    e9:b4:79:7a:ce:1e:b5:37:02:5e:86:3e:a1:19:db:
                    d0:5c:cb:49:df:be:b8:73:35:83:65:04:6a:83:7d:
                    98:44:9d:0e:68:41:e7:db:a7:c3:48:d8:04:10:5b:
                    1e:2d:37:a3:20:0a:bc:8a:58:a9:85:1c:a9:06:73:
                    e4:ae:4e:d3:ac:4b:98:a3:57:f0:84:80:9c:17:f5:
                    24:be:03:51:85:91:08:9a:2c:24:d8:46:6c:15:a3:
                    27:47:57:72:23:b1:78:04:a6:67:b0:62:52:30:a3:
                    1d:51:80:56:43:44:ce:b1:cd:95:5a:19:23:34:be:
                    52:e1:85:a4:d3:a0:ce:0a:f3:25:50:3c:b9:3d:51:
                    40:43:1b:b0:be:0b:75:fa:59:62:be:d5:9b:f4:e7:
                    38:45:17:c6:73:a6:b3:33:f2:cb:85:62:30:a9:9a:
                    c8:e1:59:c6:dc:4b:4b:d9:b6:64:46:34:3b:86:71:
                    af:e1:4b:31:60:ae:51:f7:ad:1f:96:88:d4:06:dd:
                    ae:32:53:84:09:89:c7:99:9d:aa:8c:49:ae:80:b3:
                    a5:dc:49
                Exponent: 65537 (0x10001)
        X509v3 extensions:
            X509v3 Basic Constraints: 
                CA:FALSE
            Netscape Comment: 
                Easy-RSA Generated Certificate
            X509v3 Subject Key Identifier: 
                9B:73:D9:04:51:02:10:75:9C:A1:AB:C8:ED:24:71:15:2B:BA:0C:4A
            X509v3 Authority Key Identifier: 
                keyid:EF:38:8D:14:50:58:A7:5B:4D:9C:17:72:FC:DF:B9:AC:A7:51:B0:10
                DirName:/C=US/ST=CA/L=SanFrancisco/O=Pixglo, Inc./OU=VPN-CIE/CN=tunnel.pixglo.com/name=Bala Chandrasekaran/emailAddress=bala@pixglo.com
                serial:A6:DB:C6:83:80:E6:A0:79

            X509v3 Extended Key Usage: 
                TLS Web Client Authentication
            X509v3 Key Usage: 
                Digital Signature
    Signature Algorithm: sha1WithRSAEncryption
         b2:95:1a:4e:3f:1b:00:f2:7c:89:3a:34:36:60:0c:69:ee:86:
         2a:bf:b3:b5:78:1f:c0:4f:db:36:f1:c5:fe:52:51:34:84:e0:
         37:8d:42:af:9f:89:dd:e7:cb:bf:ec:d0:5f:8f:05:48:86:59:
         c6:95:a0:37:32:5b:74:86:b0:6b:72:40:de:42:de:83:ce:eb:
         1e:db:37:1a:51:91:8f:41:c6:51:86:b7:c8:da:cb:6d:af:0e:
         40:a4:c7:06:1c:6a:8d:20:c3:d6:ce:47:7e:42:06:74:ff:61:
         9b:af:fb:1c:36:5e:4f:0e:ab:56:b4:5c:65:27:fe:8a:f2:9d:
         17:e3:c0:51:29:0e:84:68:43:11:d2:f5:6b:ae:1a:b7:66:f3:
         e3:08:b5:d4:fc:6a:7e:57:d6:fc:ef:83:d6:96:5a:54:c7:9b:
         fd:ce:12:32:cd:8a:5d:d3:57:cf:59:6c:83:67:a0:da:19:d2:
         be:55:c9:89:3c:b9:8d:5a:42:c0:4e:fb:ad:29:57:50:1a:f9:
         99:d6:ac:de:2e:b1:62:26:ec:2d:af:86:df:20:bd:e9:c2:07:
         db:55:83:b3:57:4b:d8:48:5b:fb:71:8f:ef:3f:6c:95:c4:52:
         a8:a1:a6:6b:88:1d:dc:cf:65:bd:98:30:af:71:7d:22:63:61:
         6c:a5:b2:f9:9a:46:dc:0d:e4:d6:fc:f8:d0:87:ff:5a:22:0d:
         90:f2:68:78:df:59:77:8c:3d:6f:8a:52:b0:8c:76:5d:ee:ee:
         36:60:2d:f3:9b:a8:4a:65:18:44:57:00:2b:3c:5d:b7:6a:9c:
         93:32:40:24:a1:2b:e2:98:b0:5a:66:97:44:c4:de:81:a0:1c:
         eb:95:17:67:2a:c4:0a:d1:59:ff:1d:a3:d1:08:59:b5:c7:c1:
         23:6a:15:87:a7:d4:23:a0:ec:5f:8b:9a:dc:71:5d:79:4e:b3:
         98:30:80:3c:23:f4:b3:ca:0b:ee:fc:25:c2:0d:ba:b0:3d:a2:
         98:3d:45:17:2b:8f:c8:d9:8f:81:85:4a:38:7e:46:41:4a:60:
         90:ba:19:4a:1a:87:d0:9d:72:70:39:41:00:63:ea:07:5f:9b:
         06:d9:ea:7e:f1:f8:4b:1d:de:27:d6:d7:0e:b8:0d:29:81:61:
         ae:e7:61:e8:88:9e:36:72:17:d2:66:ce:db:03:93:93:0c:71:
         6b:03:ec:58:87:4b:e6:99:35:1b:b2:34:15:46:8d:09:9a:cf:
         cc:6d:82:ff:62:11:94:7e:13:ae:32:a8:59:97:c0:1a:da:b9:
         51:2b:b8:2b:1f:b0:a6:a4:7a:73:10:f4:20:b9:f1:f6:67:56:
         d9:17:10:a8:5e:17:58:26
-----BEGIN CERTIFICATE-----
MIIHSDCCBTCgAwIBAgICAaswDQYJKoZIhvcNAQEFBQAwgbQxCzAJBgNVBAYTAlVT
MQswCQYDVQQIEwJDQTEVMBMGA1UEBxMMU2FuRnJhbmNpc2NvMRUwEwYDVQQKEwxQ
aXhnbG8sIEluYy4xEDAOBgNVBAsTB1ZQTi1DSUUxGjAYBgNVBAMTEXR1bm5lbC5w
aXhnbG8uY29tMRwwGgYDVQQpExNCYWxhIENoYW5kcmFzZWthcmFuMR4wHAYJKoZI
hvcNAQkBFg9iYWxhQHBpeGdsby5jb20wHhcNMTgwMjE0MDYzMzQ1WhcNMjgwMjEy
MDYzMzQ1WjCBqTELMAkGA1UEBhMCVVMxCzAJBgNVBAgTAkNBMRUwEwYDVQQHEwxT
YW5GcmFuY2lzY28xFTATBgNVBAoTDFBpeGdsbywgSW5jLjEQMA4GA1UECxMHVlBO
LUNJRTEPMA0GA1UEAxMGY2llNDI2MRwwGgYDVQQpExNCYWxhIENoYW5kcmFzZWth
cmFuMR4wHAYJKoZIhvcNAQkBFg9iYWxhQHBpeGdsby5jb20wggIiMA0GCSqGSIb3
DQEBAQUAA4ICDwAwggIKAoICAQDdLzsLruS9YIgEdF9pTXE1JbRf5VS2P7+JnDIR
ONbFoIKzqSk26UCr+DMRYXR7zPcNwoekK9O+d4FWCEyyuqdLd4Esnqe+t5ZUU510
JqwvGO7seBKs9XBHWTf/6usv3CC1pmpO8G9bzdJjxCY3Leo3hXDyvYsByjaeNBF/
zqixQzBQOLZs8Ue/vYnkvQ+UeNp8RKrnGe79RrfCwQQ3jT6eTLv9lDDKYXH24Aj5
PrIFCFlCqSEWJSi6Q4qfCQxwMiycpWqoCfcwHeN59o28uzgm1Wyq3VsL4DZooScb
vk0Qz/YNtDSAFvUwYfQ0FGMM9FPslsAiK9Dys8N61f+SmXcz4M91LyMnG/0m2gKj
ooHaR7PPYq1X4+FzP2S0pNPOJwPy3MI0fsyN0b+z5um0eXrOHrU3Al6GPqEZ29Bc
y0nfvrhzNYNlBGqDfZhEnQ5oQefbp8NI2AQQWx4tN6MgCryKWKmFHKkGc+SuTtOs
S5ijV/CEgJwX9SS+A1GFkQiaLCTYRmwVoydHV3IjsXgEpmewYlIwox1RgFZDRM6x
zZVaGSM0vlLhhaTToM4K8yVQPLk9UUBDG7C+C3X6WWK+1Zv05zhFF8ZzprMz8suF
YjCpmsjhWcbcS0vZtmRGNDuGca/hSzFgrlH3rR+WiNQG3a4yU4QJiceZnaqMSa6A
s6XcSQIDAQABo4IBazCCAWcwCQYDVR0TBAIwADAtBglghkgBhvhCAQ0EIBYeRWFz
eS1SU0EgR2VuZXJhdGVkIENlcnRpZmljYXRlMB0GA1UdDgQWBBSbc9kEUQIQdZyh
q8jtJHEVK7oMSjCB6QYDVR0jBIHhMIHegBTvOI0UUFinW02cF3L837msp1GwEKGB
uqSBtzCBtDELMAkGA1UEBhMCVVMxCzAJBgNVBAgTAkNBMRUwEwYDVQQHEwxTYW5G
cmFuY2lzY28xFTATBgNVBAoTDFBpeGdsbywgSW5jLjEQMA4GA1UECxMHVlBOLUNJ
RTEaMBgGA1UEAxMRdHVubmVsLnBpeGdsby5jb20xHDAaBgNVBCkTE0JhbGEgQ2hh
bmRyYXNla2FyYW4xHjAcBgkqhkiG9w0BCQEWD2JhbGFAcGl4Z2xvLmNvbYIJAKbb
xoOA5qB5MBMGA1UdJQQMMAoGCCsGAQUFBwMCMAsGA1UdDwQEAwIHgDANBgkqhkiG
9w0BAQUFAAOCAgEAspUaTj8bAPJ8iTo0NmAMae6GKr+ztXgfwE/bNvHF/lJRNITg
N41Cr5+J3efLv+zQX48FSIZZxpWgNzJbdIawa3JA3kLeg87rHts3GlGRj0HGUYa3
yNrLba8OQKTHBhxqjSDD1s5HfkIGdP9hm6/7HDZeTw6rVrRcZSf+ivKdF+PAUSkO
hGhDEdL1a64at2bz4wi11PxqflfW/O+D1pZaVMeb/c4SMs2KXdNXz1lsg2eg2hnS
vlXJiTy5jVpCwE77rSlXUBr5mdas3i6xYibsLa+G3yC96cIH21WDs1dL2Ehb+3GP
7z9slcRSqKGma4gd3M9lvZgwr3F9ImNhbKWy+ZpG3A3k1vz40If/WiINkPJoeN9Z
d4w9b4pSsIx2Xe7uNmAt85uoSmUYRFcAKzxdt2qckzJAJKEr4piwWmaXRMTegaAc
65UXZyrECtFZ/x2j0QhZtcfBI2oVh6fUI6DsX4ua3HFdeU6zmDCAPCP0s8oL7vwl
wg26sD2imD1FFyuPyNmPgYVKOH5GQUpgkLoZShqH0J1ycDlBAGPqB1+bBtnqfvH4
Sx3eJ9bXDrgNKYFhrudh6IieNnIX0mbO2wOTkwxxawPsWIdL5pk1G7I0FUaNCZrP
zG2C/2IRlH4TrjKoWZfAGtq5USu4Kx+wpqR6cxD0ILnx9mdW2RcQqF4XWCY=
-----END CERTIFICATE-----
