Certificate:
    Data:
        Version: 3 (0x2)
        Serial Number: 428 (0x1ac)
    Signature Algorithm: sha1WithRSAEncryption
        Issuer: C=US, ST=CA, L=SanFrancisco, O=Pixglo, Inc., OU=VPN-CIE, CN=tunnel.pixglo.com/name=Bala Chandrasekaran/emailAddress=bala@pixglo.com
        Validity
            Not Before: Feb 14 06:33:47 2018 GMT
            Not After : Feb 12 06:33:47 2028 GMT
        Subject: C=US, ST=CA, L=SanFrancisco, O=Pixglo, Inc., OU=VPN-CIE, CN=cie427/name=Bala Chandrasekaran/emailAddress=bala@pixglo.com
        Subject Public Key Info:
            Public Key Algorithm: rsaEncryption
                Public-Key: (4096 bit)
                Modulus:
                    00:d0:ef:d3:dd:0e:dd:44:58:3c:8e:69:03:a9:3c:
                    10:a0:1f:52:d5:e8:26:42:ca:a4:01:59:cd:0c:26:
                    a1:66:10:a2:ef:44:ad:ea:6f:e2:2b:35:26:3f:61:
                    b4:f4:d7:b1:8e:4d:7a:f8:c0:57:04:5f:3e:88:82:
                    8b:d2:9a:21:9d:c8:8c:bf:50:8c:3a:39:00:ef:9e:
                    5a:49:1b:27:ad:24:a9:44:d9:af:f0:99:83:ca:d8:
                    84:b1:e0:da:30:1b:13:4b:2c:00:8b:bc:60:60:34:
                    fb:d0:b8:2e:36:6c:8b:f2:42:27:d0:a2:e5:6f:e3:
                    38:c3:f5:fa:0f:37:33:8d:93:be:bf:6b:a9:17:e6:
                    aa:77:7e:0e:5c:79:46:a2:b8:35:29:52:d4:40:59:
                    39:c2:49:0d:15:1c:ed:00:82:4d:9c:db:be:3a:e9:
                    68:b7:b8:49:53:ac:9b:00:cb:39:71:46:33:3d:e6:
                    c2:43:bb:e2:a2:3c:1f:ed:f7:59:4b:f5:86:52:4d:
                    a7:c6:6d:4b:a0:44:37:6b:16:c2:3f:be:8d:0c:11:
                    02:f4:f2:98:1b:61:f1:d5:27:0c:9b:b7:b6:4a:a0:
                    24:b6:81:f7:e3:54:8b:d4:46:f3:26:1d:cf:c5:fb:
                    be:24:a1:75:f4:07:c1:40:5c:bc:ba:4f:a3:c5:fd:
                    53:fd:49:a5:15:6b:ee:39:e7:77:98:6d:1a:a2:6f:
                    1e:c5:2c:5b:6f:02:ba:46:ef:78:5a:d6:5d:80:c7:
                    b9:2d:b6:5f:44:29:8f:d7:6b:3d:c6:44:0a:1b:64:
                    e7:bf:f0:71:06:4c:ea:27:3d:1d:c6:7c:2e:09:7d:
                    00:57:a3:24:a6:25:68:17:81:2c:6a:6d:26:bf:f5:
                    c9:9a:04:d1:b1:05:19:0d:59:29:7e:3f:70:a9:56:
                    17:30:58:14:41:2a:15:77:e0:40:7e:2e:86:29:a6:
                    06:53:2b:8f:a8:50:d1:e2:72:da:a3:97:4e:90:cf:
                    1e:00:02:b4:ed:65:04:ce:33:e1:33:23:c3:af:db:
                    7a:e3:b3:a4:d0:f2:40:90:f0:d8:0a:a8:75:cc:b5:
                    8c:16:c5:09:82:42:48:c3:9b:ab:d8:ea:73:14:52:
                    b2:86:45:9c:b3:61:c7:56:cb:30:21:8c:e7:ce:54:
                    79:c4:98:5f:b5:47:51:5f:bd:bf:fe:ca:51:53:8e:
                    71:06:96:93:52:43:ff:c7:01:15:af:49:4a:ed:e2:
                    6e:2b:bc:07:d9:7b:e0:01:f6:e2:90:c3:12:e5:a1:
                    ea:9b:44:d5:dc:e6:c3:05:44:cd:3e:58:20:da:49:
                    b5:f0:bd:4a:fe:8b:a2:59:b2:a5:e5:a5:9d:2c:96:
                    e4:70:ff
                Exponent: 65537 (0x10001)
        X509v3 extensions:
            X509v3 Basic Constraints: 
                CA:FALSE
            Netscape Comment: 
                Easy-RSA Generated Certificate
            X509v3 Subject Key Identifier: 
                21:5C:AE:DE:C4:97:60:5D:45:2C:4B:8D:BF:28:42:B3:80:AD:D3:1B
            X509v3 Authority Key Identifier: 
                keyid:EF:38:8D:14:50:58:A7:5B:4D:9C:17:72:FC:DF:B9:AC:A7:51:B0:10
                DirName:/C=US/ST=CA/L=SanFrancisco/O=Pixglo, Inc./OU=VPN-CIE/CN=tunnel.pixglo.com/name=Bala Chandrasekaran/emailAddress=bala@pixglo.com
                serial:A6:DB:C6:83:80:E6:A0:79

            X509v3 Extended Key Usage: 
                TLS Web Client Authentication
            X509v3 Key Usage: 
                Digital Signature
    Signature Algorithm: sha1WithRSAEncryption
         42:c0:53:30:26:ea:71:cd:f3:14:95:58:c8:52:09:5f:a8:08:
         11:af:38:18:42:b6:56:91:2c:71:44:39:88:c5:1d:61:ec:2c:
         5a:35:e1:c4:27:46:8b:8d:69:78:35:c5:5a:72:57:71:d0:4d:
         f3:b3:da:7c:7f:bc:44:ef:c3:a5:db:da:bc:bd:63:0b:1b:57:
         7d:0b:5b:20:e2:97:14:cb:b6:35:6c:a0:fb:46:00:02:23:cd:
         0b:ca:bc:de:5a:7c:b9:7d:e4:bd:a6:da:ca:a3:5d:b6:6d:d0:
         71:e1:33:4c:0f:be:03:6e:56:b9:39:c4:57:72:4a:ac:27:07:
         2a:9b:19:59:20:55:9e:79:2f:4c:f5:d2:a1:b4:c7:9f:01:23:
         b1:ea:0b:0a:1a:5e:38:6d:f1:ca:22:9b:25:07:2f:37:4c:f5:
         9f:fb:2d:7a:2e:80:d3:4b:bf:76:cc:2d:71:4f:10:7e:18:46:
         f6:ad:8e:7b:ec:18:68:47:f4:2b:67:9e:14:7d:7c:ca:f7:a1:
         3b:3f:06:e8:19:f0:a4:98:f0:66:ca:4b:e1:78:9a:25:a7:85:
         9f:22:b3:fc:a0:a6:d2:03:da:0e:c3:60:58:6e:26:c4:5c:cf:
         86:66:8e:a5:17:31:c6:85:31:e3:87:51:f4:af:b0:c5:8b:74:
         8e:db:64:4a:a6:7a:f6:78:af:db:14:29:d1:95:03:d4:61:a4:
         5c:af:9a:97:fe:0e:cf:7f:56:f8:e6:e4:8d:1f:aa:44:f7:02:
         29:98:13:98:53:65:0a:9f:50:b2:f4:ec:ea:d1:5c:fd:a5:20:
         96:d4:69:38:a6:3d:5c:76:30:8f:89:95:5f:98:32:9b:98:28:
         67:8a:7d:d6:ab:a5:53:b5:46:e0:b9:b0:14:50:95:4c:17:54:
         a1:f0:3a:58:14:5f:e7:d8:5d:79:42:35:64:86:83:e3:7f:b2:
         a2:dd:f2:6c:0d:3b:56:d2:1c:8b:6a:86:b6:67:f2:69:4e:cf:
         65:d4:2f:52:2d:e2:17:83:a8:fa:ae:01:61:dd:76:67:6f:86:
         cf:50:96:c4:85:3a:70:94:5c:4b:75:7b:cb:29:d0:24:3e:13:
         ba:80:64:8b:43:d6:46:e5:8a:c2:d5:68:68:b6:52:00:b1:d9:
         08:f7:af:f8:f4:2e:b5:93:be:93:55:19:2c:93:20:3e:22:64:
         bf:9a:78:b4:26:3f:89:59:dd:d6:9d:66:e1:e3:b4:af:b5:c9:
         be:8b:49:f5:1c:72:3f:ad:a7:a9:47:30:d6:1a:a3:80:bd:19:
         80:dc:89:94:43:bb:b4:67:97:64:49:23:c7:3b:97:16:47:02:
         ec:0c:19:68:4d:c7:ed:4d
-----BEGIN CERTIFICATE-----
MIIHSDCCBTCgAwIBAgICAawwDQYJKoZIhvcNAQEFBQAwgbQxCzAJBgNVBAYTAlVT
MQswCQYDVQQIEwJDQTEVMBMGA1UEBxMMU2FuRnJhbmNpc2NvMRUwEwYDVQQKEwxQ
aXhnbG8sIEluYy4xEDAOBgNVBAsTB1ZQTi1DSUUxGjAYBgNVBAMTEXR1bm5lbC5w
aXhnbG8uY29tMRwwGgYDVQQpExNCYWxhIENoYW5kcmFzZWthcmFuMR4wHAYJKoZI
hvcNAQkBFg9iYWxhQHBpeGdsby5jb20wHhcNMTgwMjE0MDYzMzQ3WhcNMjgwMjEy
MDYzMzQ3WjCBqTELMAkGA1UEBhMCVVMxCzAJBgNVBAgTAkNBMRUwEwYDVQQHEwxT
YW5GcmFuY2lzY28xFTATBgNVBAoTDFBpeGdsbywgSW5jLjEQMA4GA1UECxMHVlBO
LUNJRTEPMA0GA1UEAxMGY2llNDI3MRwwGgYDVQQpExNCYWxhIENoYW5kcmFzZWth
cmFuMR4wHAYJKoZIhvcNAQkBFg9iYWxhQHBpeGdsby5jb20wggIiMA0GCSqGSIb3
DQEBAQUAA4ICDwAwggIKAoICAQDQ79PdDt1EWDyOaQOpPBCgH1LV6CZCyqQBWc0M
JqFmEKLvRK3qb+IrNSY/YbT017GOTXr4wFcEXz6IgovSmiGdyIy/UIw6OQDvnlpJ
GyetJKlE2a/wmYPK2ISx4NowGxNLLACLvGBgNPvQuC42bIvyQifQouVv4zjD9foP
NzONk76/a6kX5qp3fg5ceUaiuDUpUtRAWTnCSQ0VHO0Agk2c27466Wi3uElTrJsA
yzlxRjM95sJDu+KiPB/t91lL9YZSTafGbUugRDdrFsI/vo0MEQL08pgbYfHVJwyb
t7ZKoCS2gffjVIvURvMmHc/F+74koXX0B8FAXLy6T6PF/VP9SaUVa+4553eYbRqi
bx7FLFtvArpG73ha1l2Ax7kttl9EKY/Xaz3GRAobZOe/8HEGTOonPR3GfC4JfQBX
oySmJWgXgSxqbSa/9cmaBNGxBRkNWSl+P3CpVhcwWBRBKhV34EB+LoYppgZTK4+o
UNHictqjl06Qzx4AArTtZQTOM+EzI8Ov23rjs6TQ8kCQ8NgKqHXMtYwWxQmCQkjD
m6vY6nMUUrKGRZyzYcdWyzAhjOfOVHnEmF+1R1Ffvb/+ylFTjnEGlpNSQ//HARWv
SUrt4m4rvAfZe+AB9uKQwxLloeqbRNXc5sMFRM0+WCDaSbXwvUr+i6JZsqXlpZ0s
luRw/wIDAQABo4IBazCCAWcwCQYDVR0TBAIwADAtBglghkgBhvhCAQ0EIBYeRWFz
eS1SU0EgR2VuZXJhdGVkIENlcnRpZmljYXRlMB0GA1UdDgQWBBQhXK7exJdgXUUs
S42/KEKzgK3TGzCB6QYDVR0jBIHhMIHegBTvOI0UUFinW02cF3L837msp1GwEKGB
uqSBtzCBtDELMAkGA1UEBhMCVVMxCzAJBgNVBAgTAkNBMRUwEwYDVQQHEwxTYW5G
cmFuY2lzY28xFTATBgNVBAoTDFBpeGdsbywgSW5jLjEQMA4GA1UECxMHVlBOLUNJ
RTEaMBgGA1UEAxMRdHVubmVsLnBpeGdsby5jb20xHDAaBgNVBCkTE0JhbGEgQ2hh
bmRyYXNla2FyYW4xHjAcBgkqhkiG9w0BCQEWD2JhbGFAcGl4Z2xvLmNvbYIJAKbb
xoOA5qB5MBMGA1UdJQQMMAoGCCsGAQUFBwMCMAsGA1UdDwQEAwIHgDANBgkqhkiG
9w0BAQUFAAOCAgEAQsBTMCbqcc3zFJVYyFIJX6gIEa84GEK2VpEscUQ5iMUdYews
WjXhxCdGi41peDXFWnJXcdBN87PafH+8RO/DpdvavL1jCxtXfQtbIOKXFMu2NWyg
+0YAAiPNC8q83lp8uX3kvabayqNdtm3QceEzTA++A25WuTnEV3JKrCcHKpsZWSBV
nnkvTPXSobTHnwEjseoLChpeOG3xyiKbJQcvN0z1n/stei6A00u/dswtcU8QfhhG
9q2Oe+wYaEf0K2eeFH18yvehOz8G6BnwpJjwZspL4XiaJaeFnyKz/KCm0gPaDsNg
WG4mxFzPhmaOpRcxxoUx44dR9K+wxYt0jttkSqZ69niv2xQp0ZUD1GGkXK+al/4O
z39W+ObkjR+qRPcCKZgTmFNlCp9QsvTs6tFc/aUgltRpOKY9XHYwj4mVX5gym5go
Z4p91qulU7VG4LmwFFCVTBdUofA6WBRf59hdeUI1ZIaD43+yot3ybA07VtIci2qG
tmfyaU7PZdQvUi3iF4Oo+q4BYd12Z2+Gz1CWxIU6cJRcS3V7yynQJD4TuoBki0PW
RuWKwtVoaLZSALHZCPev+PQutZO+k1UZLJMgPiJkv5p4tCY/iVnd1p1m4eO0r7XJ
votJ9RxyP62nqUcw1hqjgL0ZgNyJlEO7tGeXZEkjxzuXFkcC7AwZaE3H7U0=
-----END CERTIFICATE-----
