Certificate:
    Data:
        Version: 3 (0x2)
        Serial Number: 430 (0x1ae)
    Signature Algorithm: sha1WithRSAEncryption
        Issuer: C=US, ST=CA, L=SanFrancisco, O=Pixglo, Inc., OU=VPN-CIE, CN=tunnel.pixglo.com/name=Bala Chandrasekaran/emailAddress=bala@pixglo.com
        Validity
            Not Before: Feb 14 06:33:53 2018 GMT
            Not After : Feb 12 06:33:53 2028 GMT
        Subject: C=US, ST=CA, L=SanFrancisco, O=Pixglo, Inc., OU=VPN-CIE, CN=cie429/name=Bala Chandrasekaran/emailAddress=bala@pixglo.com
        Subject Public Key Info:
            Public Key Algorithm: rsaEncryption
                Public-Key: (4096 bit)
                Modulus:
                    00:95:d9:13:3c:2d:52:f3:db:32:10:8b:37:61:79:
                    32:20:f2:57:d3:59:21:b5:e2:67:f5:27:61:a3:38:
                    70:b7:31:3d:bb:7b:0f:e3:4d:eb:15:83:d4:14:66:
                    e6:a0:e6:21:04:c0:1a:95:b2:9b:11:0d:7c:2a:12:
                    f4:bb:d8:ed:f5:21:5c:c6:01:d0:73:28:45:4c:e1:
                    3a:7e:57:42:36:c1:5c:26:c8:82:99:49:57:1f:f8:
                    72:f9:93:ca:43:d1:ab:1c:df:2d:98:14:33:c4:81:
                    87:af:50:9a:4c:ba:f9:3b:e4:0b:1c:56:ab:9e:c1:
                    8b:4f:58:7f:72:3a:0d:0c:03:43:8a:c4:d9:03:86:
                    8f:38:5b:9f:b9:1f:4e:31:c1:71:19:41:57:e7:b9:
                    e9:b0:47:d5:cc:01:1a:ef:94:40:9f:c7:c3:64:c5:
                    f1:6d:3a:c1:89:85:5d:45:71:81:ed:aa:96:a9:20:
                    d3:d8:38:42:79:b3:37:01:4b:3e:dc:5a:f7:9a:10:
                    ab:d9:c4:bb:7b:9f:0c:4a:bd:95:de:a0:41:58:6c:
                    16:ff:ee:64:e8:6c:b2:ef:dd:54:10:1d:5e:f2:5b:
                    1b:e5:f1:37:6d:76:9d:c2:ad:6a:d9:3e:4f:b0:22:
                    9a:ba:33:07:16:39:f2:99:8a:98:80:82:3e:10:32:
                    b2:b1:1e:73:98:81:6d:10:9e:cd:82:a9:8f:00:6a:
                    86:eb:10:22:a2:d2:20:77:35:b5:06:0d:d6:c9:ea:
                    dd:fe:b4:80:cb:42:7e:ce:d8:13:58:6c:e9:d9:68:
                    72:98:ed:57:73:72:c8:08:60:47:5c:fe:17:f2:bb:
                    a7:f5:26:b0:ab:60:fd:1a:0c:98:f4:6e:84:f0:b3:
                    cf:5d:30:2c:16:79:8f:ec:30:24:39:12:3b:d8:fd:
                    d1:4e:33:52:26:47:de:29:de:af:59:bf:98:25:9a:
                    1d:01:b6:d7:06:be:a3:d9:05:d2:dd:23:55:5e:40:
                    e7:73:f4:2f:94:0d:9f:0d:2b:04:44:43:2c:33:28:
                    7b:4c:7b:87:45:59:33:47:38:9c:12:19:de:da:12:
                    c0:fa:3d:46:b3:49:e3:38:09:cd:63:c8:0d:13:c0:
                    d5:6c:1e:99:6f:27:a9:a3:40:76:f7:14:69:86:bb:
                    23:8f:07:e8:ae:c0:c0:3e:40:c3:2c:53:e3:3b:5c:
                    4f:20:ed:2a:f4:26:9b:23:ca:30:83:5b:da:a2:ab:
                    56:1f:45:d4:b2:0f:fc:b6:d9:a0:11:e3:16:bd:63:
                    7d:a1:86:bf:a0:71:11:90:10:7d:2a:3f:91:96:87:
                    86:66:b1:6b:c1:b5:c4:80:ba:bd:5b:fb:f2:4f:3f:
                    71:03:93
                Exponent: 65537 (0x10001)
        X509v3 extensions:
            X509v3 Basic Constraints: 
                CA:FALSE
            Netscape Comment: 
                Easy-RSA Generated Certificate
            X509v3 Subject Key Identifier: 
                3D:A3:10:15:15:32:03:C3:A0:4B:CE:2C:82:F6:EB:0A:BC:68:8E:69
            X509v3 Authority Key Identifier: 
                keyid:EF:38:8D:14:50:58:A7:5B:4D:9C:17:72:FC:DF:B9:AC:A7:51:B0:10
                DirName:/C=US/ST=CA/L=SanFrancisco/O=Pixglo, Inc./OU=VPN-CIE/CN=tunnel.pixglo.com/name=Bala Chandrasekaran/emailAddress=bala@pixglo.com
                serial:A6:DB:C6:83:80:E6:A0:79

            X509v3 Extended Key Usage: 
                TLS Web Client Authentication
            X509v3 Key Usage: 
                Digital Signature
    Signature Algorithm: sha1WithRSAEncryption
         68:a8:da:77:e5:4c:fa:8b:0c:45:11:40:60:45:fc:1c:5b:95:
         f6:ff:21:b2:52:ec:c1:01:2f:99:dc:01:f0:ba:4a:08:dd:bc:
         1d:b5:e8:43:06:75:f6:00:f0:bd:0e:78:31:0a:47:69:28:68:
         fd:de:b9:82:2e:db:e8:c9:f1:d1:ad:f6:9b:95:f8:d0:a3:76:
         46:81:f0:8f:75:6d:46:3b:30:6b:09:4a:80:0f:44:85:49:1e:
         e8:47:9d:93:d1:0c:91:cf:49:bd:b0:20:2d:86:dd:69:17:ea:
         f3:db:b5:43:37:3c:ab:cd:ef:f6:be:c9:e5:6a:bc:72:aa:f1:
         7c:0d:74:8d:69:9f:89:5f:5e:d3:ea:e4:f9:95:2e:8d:5e:6f:
         b8:ac:13:d1:c0:12:9c:b7:bc:6b:23:81:9d:a0:06:f4:54:ba:
         c8:10:2a:ee:94:a0:ac:34:77:6d:9d:00:1b:b7:3d:81:2b:36:
         64:ec:69:1e:08:02:64:f0:32:12:19:68:d0:b6:57:94:21:8e:
         96:62:a0:5d:38:0a:7c:0f:e9:03:a0:e6:aa:6c:c6:90:99:f2:
         dc:56:fb:ef:52:d6:2f:6b:ba:19:48:21:8d:bf:b1:42:08:ad:
         ac:42:f4:1d:71:a3:d1:9b:58:88:63:73:71:89:21:82:86:fb:
         4f:a4:20:bf:da:85:76:a7:a5:78:4b:0a:2d:b9:2f:77:d3:03:
         0d:b3:08:ee:7d:db:41:53:2c:d0:98:54:71:ab:21:d4:ca:af:
         a1:cf:57:5a:aa:d8:f1:a4:6c:5c:15:55:24:c6:03:6e:a2:bc:
         87:fd:1b:fd:9a:a4:4c:da:2d:61:72:80:13:77:38:cc:d2:59:
         6f:1f:d3:5b:ab:26:f2:7c:8c:7c:8f:d6:62:66:1d:68:c3:26:
         0a:36:d8:3c:a6:f9:02:90:1d:c7:5c:cc:c5:d1:89:38:e0:82:
         3f:04:3f:be:9e:97:ff:8b:5e:81:f3:f5:bf:b8:53:f4:46:02:
         0b:c0:a0:8a:d9:70:c4:0d:30:b0:27:24:8f:f3:13:2b:0f:30:
         9b:19:2b:ec:2e:53:7b:50:be:3d:86:50:1d:cf:1a:71:6c:37:
         91:d0:61:43:43:d4:bf:14:13:7b:3e:79:21:2c:3e:44:88:a0:
         08:ac:f8:6e:38:d4:c6:30:fb:0c:ad:36:6e:39:be:81:8c:bf:
         50:e0:c8:02:8b:2e:0f:bb:43:ab:63:2f:c0:a5:e7:4c:07:4f:
         42:30:ed:6d:47:10:9b:71:0f:41:3e:36:1a:bb:0d:ea:07:d4:
         b4:ca:2f:66:7d:00:06:26:e3:bb:e3:46:32:d1:87:2f:a6:6c:
         00:48:bc:70:3f:f9:f5:04
-----BEGIN CERTIFICATE-----
MIIHSDCCBTCgAwIBAgICAa4wDQYJKoZIhvcNAQEFBQAwgbQxCzAJBgNVBAYTAlVT
MQswCQYDVQQIEwJDQTEVMBMGA1UEBxMMU2FuRnJhbmNpc2NvMRUwEwYDVQQKEwxQ
aXhnbG8sIEluYy4xEDAOBgNVBAsTB1ZQTi1DSUUxGjAYBgNVBAMTEXR1bm5lbC5w
aXhnbG8uY29tMRwwGgYDVQQpExNCYWxhIENoYW5kcmFzZWthcmFuMR4wHAYJKoZI
hvcNAQkBFg9iYWxhQHBpeGdsby5jb20wHhcNMTgwMjE0MDYzMzUzWhcNMjgwMjEy
MDYzMzUzWjCBqTELMAkGA1UEBhMCVVMxCzAJBgNVBAgTAkNBMRUwEwYDVQQHEwxT
YW5GcmFuY2lzY28xFTATBgNVBAoTDFBpeGdsbywgSW5jLjEQMA4GA1UECxMHVlBO
LUNJRTEPMA0GA1UEAxMGY2llNDI5MRwwGgYDVQQpExNCYWxhIENoYW5kcmFzZWth
cmFuMR4wHAYJKoZIhvcNAQkBFg9iYWxhQHBpeGdsby5jb20wggIiMA0GCSqGSIb3
DQEBAQUAA4ICDwAwggIKAoICAQCV2RM8LVLz2zIQizdheTIg8lfTWSG14mf1J2Gj
OHC3MT27ew/jTesVg9QUZuag5iEEwBqVspsRDXwqEvS72O31IVzGAdBzKEVM4Tp+
V0I2wVwmyIKZSVcf+HL5k8pD0asc3y2YFDPEgYevUJpMuvk75AscVquewYtPWH9y
Og0MA0OKxNkDho84W5+5H04xwXEZQVfnuemwR9XMARrvlECfx8NkxfFtOsGJhV1F
cYHtqpapINPYOEJ5szcBSz7cWveaEKvZxLt7nwxKvZXeoEFYbBb/7mTobLLv3VQQ
HV7yWxvl8Tdtdp3CrWrZPk+wIpq6MwcWOfKZipiAgj4QMrKxHnOYgW0Qns2CqY8A
aobrECKi0iB3NbUGDdbJ6t3+tIDLQn7O2BNYbOnZaHKY7VdzcsgIYEdc/hfyu6f1
JrCrYP0aDJj0boTws89dMCwWeY/sMCQ5EjvY/dFOM1ImR94p3q9Zv5glmh0BttcG
vqPZBdLdI1VeQOdz9C+UDZ8NKwREQywzKHtMe4dFWTNHOJwSGd7aEsD6PUazSeM4
Cc1jyA0TwNVsHplvJ6mjQHb3FGmGuyOPB+iuwMA+QMMsU+M7XE8g7Sr0JpsjyjCD
W9qiq1YfRdSyD/y22aAR4xa9Y32hhr+gcRGQEH0qP5GWh4ZmsWvBtcSAur1b+/JP
P3EDkwIDAQABo4IBazCCAWcwCQYDVR0TBAIwADAtBglghkgBhvhCAQ0EIBYeRWFz
eS1SU0EgR2VuZXJhdGVkIENlcnRpZmljYXRlMB0GA1UdDgQWBBQ9oxAVFTIDw6BL
ziyC9usKvGiOaTCB6QYDVR0jBIHhMIHegBTvOI0UUFinW02cF3L837msp1GwEKGB
uqSBtzCBtDELMAkGA1UEBhMCVVMxCzAJBgNVBAgTAkNBMRUwEwYDVQQHEwxTYW5G
cmFuY2lzY28xFTATBgNVBAoTDFBpeGdsbywgSW5jLjEQMA4GA1UECxMHVlBOLUNJ
RTEaMBgGA1UEAxMRdHVubmVsLnBpeGdsby5jb20xHDAaBgNVBCkTE0JhbGEgQ2hh
bmRyYXNla2FyYW4xHjAcBgkqhkiG9w0BCQEWD2JhbGFAcGl4Z2xvLmNvbYIJAKbb
xoOA5qB5MBMGA1UdJQQMMAoGCCsGAQUFBwMCMAsGA1UdDwQEAwIHgDANBgkqhkiG
9w0BAQUFAAOCAgEAaKjad+VM+osMRRFAYEX8HFuV9v8hslLswQEvmdwB8LpKCN28
HbXoQwZ19gDwvQ54MQpHaSho/d65gi7b6Mnx0a32m5X40KN2RoHwj3VtRjswawlK
gA9EhUke6Eedk9EMkc9JvbAgLYbdaRfq89u1Qzc8q83v9r7J5Wq8cqrxfA10jWmf
iV9e0+rk+ZUujV5vuKwT0cASnLe8ayOBnaAG9FS6yBAq7pSgrDR3bZ0AG7c9gSs2
ZOxpHggCZPAyEhlo0LZXlCGOlmKgXTgKfA/pA6DmqmzGkJny3Fb771LWL2u6GUgh
jb+xQgitrEL0HXGj0ZtYiGNzcYkhgob7T6Qgv9qFdqeleEsKLbkvd9MDDbMI7n3b
QVMs0JhUcash1Mqvoc9XWqrY8aRsXBVVJMYDbqK8h/0b/ZqkTNotYXKAE3c4zNJZ
bx/TW6sm8nyMfI/WYmYdaMMmCjbYPKb5ApAdx1zMxdGJOOCCPwQ/vp6X/4tegfP1
v7hT9EYCC8CgitlwxA0wsCckj/MTKw8wmxkr7C5Te1C+PYZQHc8acWw3kdBhQ0PU
vxQTez55ISw+RIigCKz4bjjUxjD7DK02bjm+gYy/UODIAosuD7tDq2MvwKXnTAdP
QjDtbUcQm3EPQT42GrsN6gfUtMovZn0ABibju+NGMtGHL6ZsAEi8cD/59QQ=
-----END CERTIFICATE-----
