Certificate:
    Data:
        Version: 3 (0x2)
        Serial Number: 431 (0x1af)
    Signature Algorithm: sha1WithRSAEncryption
        Issuer: C=US, ST=CA, L=SanFrancisco, O=Pixglo, Inc., OU=VPN-CIE, CN=tunnel.pixglo.com/name=Bala Chandrasekaran/emailAddress=bala@pixglo.com
        Validity
            Not Before: Feb 14 06:33:54 2018 GMT
            Not After : Feb 12 06:33:54 2028 GMT
        Subject: C=US, ST=CA, L=SanFrancisco, O=Pixglo, Inc., OU=VPN-CIE, CN=cie430/name=Bala Chandrasekaran/emailAddress=bala@pixglo.com
        Subject Public Key Info:
            Public Key Algorithm: rsaEncryption
                Public-Key: (4096 bit)
                Modulus:
                    00:ca:4d:f7:6f:86:7d:12:f4:60:f6:5d:81:cd:39:
                    f9:e5:ac:9a:8f:77:94:9e:70:e4:3e:ef:fc:68:d6:
                    4d:6c:63:23:93:26:30:75:19:3a:97:a7:98:9e:4d:
                    0a:70:ee:d4:3d:09:05:78:6b:bc:bd:b3:31:80:cf:
                    03:6e:82:1d:4e:b3:5b:f4:11:cb:6c:d0:3c:5f:15:
                    50:4e:04:c2:b7:e7:b4:d4:70:8d:a9:70:04:62:32:
                    9f:47:f7:a8:1b:e8:12:68:77:12:92:3b:14:2c:30:
                    a8:51:69:03:48:51:1e:ce:3f:a1:8c:07:72:bb:1a:
                    7c:8a:1c:ee:b3:fb:44:28:a4:8c:7a:63:39:3d:aa:
                    45:f3:1e:69:df:d1:48:df:2c:0d:55:4c:e5:05:d1:
                    bf:87:62:03:1e:1f:aa:96:7d:b7:ab:bb:43:2b:d1:
                    04:81:15:d8:90:c1:2f:8a:df:e5:4e:ac:f2:70:72:
                    5d:6a:ec:77:83:d2:71:87:5e:d9:53:ad:13:c5:15:
                    7b:73:e8:7f:82:e7:a2:ea:47:8a:62:88:44:09:32:
                    31:b1:18:5f:67:9d:9c:dc:c7:e1:d2:fb:e2:31:ce:
                    b7:ff:f8:db:6e:15:99:59:2f:c6:e0:dd:15:eb:dc:
                    73:54:92:3d:33:f5:d1:eb:92:df:27:44:34:8c:8e:
                    65:e4:31:ba:ed:e3:81:60:3c:21:87:61:5f:c4:5f:
                    ec:0b:73:f9:f2:c9:5e:89:51:b7:55:e4:58:1a:bd:
                    a6:dc:99:b2:2f:2d:95:a5:1f:30:b1:a8:08:3b:aa:
                    e7:32:2c:69:f3:34:5b:91:de:f7:cc:74:78:70:97:
                    df:a1:30:60:15:df:a2:a6:a8:69:4b:1c:38:a9:46:
                    4f:e1:f9:c8:54:a3:0c:b5:9c:71:3c:90:60:02:21:
                    5c:ea:14:56:37:b0:20:78:ed:93:c2:4f:9f:d3:e5:
                    7b:1a:5a:5a:95:84:27:8d:fb:6e:fe:31:41:2d:bc:
                    68:0c:05:bc:e8:17:38:e0:58:a2:f6:90:2e:be:88:
                    3c:e1:36:83:71:73:b0:aa:e6:dc:49:6f:3b:fd:34:
                    d7:2f:6b:ff:44:ac:20:a3:55:48:aa:3b:57:3a:0e:
                    f5:a0:58:d6:a9:3a:ea:a2:7b:c8:33:10:b1:40:85:
                    a6:5e:84:43:27:de:f9:03:1e:c9:6e:ed:8c:7d:e4:
                    16:0c:e0:4d:a2:d1:23:1b:ed:c5:d2:bf:bd:bd:6f:
                    92:b5:f2:be:ee:7a:33:da:28:0e:60:51:0c:20:4d:
                    64:ad:7e:8e:6e:07:25:1a:92:75:98:66:b6:00:6c:
                    e2:a7:bd:be:0e:9b:37:65:6f:ac:3c:52:db:15:4f:
                    aa:44:f3
                Exponent: 65537 (0x10001)
        X509v3 extensions:
            X509v3 Basic Constraints: 
                CA:FALSE
            Netscape Comment: 
                Easy-RSA Generated Certificate
            X509v3 Subject Key Identifier: 
                D3:FA:BA:86:08:98:BF:7E:DE:FF:39:5F:A6:93:B8:20:87:64:09:F5
            X509v3 Authority Key Identifier: 
                keyid:EF:38:8D:14:50:58:A7:5B:4D:9C:17:72:FC:DF:B9:AC:A7:51:B0:10
                DirName:/C=US/ST=CA/L=SanFrancisco/O=Pixglo, Inc./OU=VPN-CIE/CN=tunnel.pixglo.com/name=Bala Chandrasekaran/emailAddress=bala@pixglo.com
                serial:A6:DB:C6:83:80:E6:A0:79

            X509v3 Extended Key Usage: 
                TLS Web Client Authentication
            X509v3 Key Usage: 
                Digital Signature
    Signature Algorithm: sha1WithRSAEncryption
         8c:02:4f:a1:4d:6e:2b:8f:d5:ce:9b:6e:46:bd:3b:44:e7:f7:
         8b:2d:fc:3b:0e:67:df:9f:ef:c4:3c:d3:8e:17:5b:46:eb:a7:
         e4:09:41:58:bd:38:d8:2e:5d:9a:09:d6:c5:5c:e1:3c:27:02:
         67:58:e9:38:c1:10:49:f5:d5:64:a6:c5:c4:7a:a9:48:3f:7f:
         80:3c:30:66:0a:b5:a9:38:64:6f:6f:ab:61:cb:81:09:0a:93:
         16:3d:12:a3:53:e3:93:02:a4:e2:21:76:18:ec:4e:94:7d:b2:
         5f:2c:92:ac:2c:18:6e:f2:f3:cb:1f:58:cf:63:37:9e:5d:0c:
         f8:de:c8:0c:ab:03:9b:68:14:d0:67:9d:4b:14:b3:f0:fb:e9:
         04:48:1e:b0:12:0e:8e:83:fb:e1:a4:03:c5:33:f8:97:32:ec:
         f4:82:2e:90:7b:d4:b2:22:63:5f:f0:59:40:6e:ca:ed:2c:bd:
         bc:da:dd:26:7d:ff:a3:ec:a2:d2:15:58:4a:98:2f:e1:33:c6:
         a9:c3:de:a4:27:37:40:d4:4f:ed:54:10:71:7f:8e:f2:7b:27:
         3e:ce:61:93:3d:9b:ae:56:8a:5e:b4:c0:4b:80:53:84:0b:86:
         bf:22:99:68:bd:ce:a2:b6:1b:d7:e8:4f:51:84:f9:70:ab:51:
         07:84:10:66:96:45:75:25:ff:59:eb:90:8f:61:25:88:d6:44:
         a3:de:07:92:40:b0:c1:81:45:3b:02:c1:65:7a:20:05:a0:e9:
         ce:51:fb:0e:11:f7:d0:87:2a:8c:7f:e0:ce:f6:ec:d3:e8:7f:
         5e:5e:0d:03:90:73:cb:65:1e:0c:5d:a2:e1:fe:fc:19:90:b5:
         5a:39:62:f1:55:8e:59:19:67:92:bb:bd:0a:33:75:af:0c:ca:
         75:3a:39:ec:7d:64:e0:6b:be:cc:72:de:fc:24:2b:88:02:0b:
         2d:ee:78:5a:11:00:f8:91:b3:49:8b:5a:1f:3b:81:95:26:a5:
         f0:ce:b7:d9:a5:3f:74:d2:24:8d:11:ec:10:39:8a:5b:f4:18:
         7d:af:d0:4f:33:0c:ba:28:04:b7:58:2f:2b:64:6f:a3:0e:22:
         07:81:bb:e0:6e:bd:2f:97:73:e4:66:4f:9d:96:99:02:e8:49:
         69:29:26:8e:69:0a:58:03:19:91:cc:60:0f:2e:77:cc:c7:7b:
         44:f0:8f:b3:67:ee:6a:bb:a1:38:8f:e5:64:a5:ba:39:ce:bf:
         b0:53:ae:74:8b:d6:79:22:fa:7a:ca:6a:89:6a:2d:88:6c:bc:
         b6:ea:1e:f2:73:0d:f9:96:43:66:8e:72:f3:be:4e:d7:6c:66:
         d6:7d:58:a6:32:1a:91:26
-----BEGIN CERTIFICATE-----
MIIHSDCCBTCgAwIBAgICAa8wDQYJKoZIhvcNAQEFBQAwgbQxCzAJBgNVBAYTAlVT
MQswCQYDVQQIEwJDQTEVMBMGA1UEBxMMU2FuRnJhbmNpc2NvMRUwEwYDVQQKEwxQ
aXhnbG8sIEluYy4xEDAOBgNVBAsTB1ZQTi1DSUUxGjAYBgNVBAMTEXR1bm5lbC5w
aXhnbG8uY29tMRwwGgYDVQQpExNCYWxhIENoYW5kcmFzZWthcmFuMR4wHAYJKoZI
hvcNAQkBFg9iYWxhQHBpeGdsby5jb20wHhcNMTgwMjE0MDYzMzU0WhcNMjgwMjEy
MDYzMzU0WjCBqTELMAkGA1UEBhMCVVMxCzAJBgNVBAgTAkNBMRUwEwYDVQQHEwxT
YW5GcmFuY2lzY28xFTATBgNVBAoTDFBpeGdsbywgSW5jLjEQMA4GA1UECxMHVlBO
LUNJRTEPMA0GA1UEAxMGY2llNDMwMRwwGgYDVQQpExNCYWxhIENoYW5kcmFzZWth
cmFuMR4wHAYJKoZIhvcNAQkBFg9iYWxhQHBpeGdsby5jb20wggIiMA0GCSqGSIb3
DQEBAQUAA4ICDwAwggIKAoICAQDKTfdvhn0S9GD2XYHNOfnlrJqPd5SecOQ+7/xo
1k1sYyOTJjB1GTqXp5ieTQpw7tQ9CQV4a7y9szGAzwNugh1Os1v0Ects0DxfFVBO
BMK357TUcI2pcARiMp9H96gb6BJodxKSOxQsMKhRaQNIUR7OP6GMB3K7GnyKHO6z
+0QopIx6Yzk9qkXzHmnf0UjfLA1VTOUF0b+HYgMeH6qWfberu0Mr0QSBFdiQwS+K
3+VOrPJwcl1q7HeD0nGHXtlTrRPFFXtz6H+C56LqR4piiEQJMjGxGF9nnZzcx+HS
++Ixzrf/+NtuFZlZL8bg3RXr3HNUkj0z9dHrkt8nRDSMjmXkMbrt44FgPCGHYV/E
X+wLc/nyyV6JUbdV5FgavabcmbIvLZWlHzCxqAg7qucyLGnzNFuR3vfMdHhwl9+h
MGAV36KmqGlLHDipRk/h+chUowy1nHE8kGACIVzqFFY3sCB47ZPCT5/T5XsaWlqV
hCeN+27+MUEtvGgMBbzoFzjgWKL2kC6+iDzhNoNxc7Cq5txJbzv9NNcva/9ErCCj
VUiqO1c6DvWgWNapOuqie8gzELFAhaZehEMn3vkDHslu7Yx95BYM4E2i0SMb7cXS
v729b5K18r7uejPaKA5gUQwgTWStfo5uByUaknWYZrYAbOKnvb4Omzdlb6w8UtsV
T6pE8wIDAQABo4IBazCCAWcwCQYDVR0TBAIwADAtBglghkgBhvhCAQ0EIBYeRWFz
eS1SU0EgR2VuZXJhdGVkIENlcnRpZmljYXRlMB0GA1UdDgQWBBTT+rqGCJi/ft7/
OV+mk7ggh2QJ9TCB6QYDVR0jBIHhMIHegBTvOI0UUFinW02cF3L837msp1GwEKGB
uqSBtzCBtDELMAkGA1UEBhMCVVMxCzAJBgNVBAgTAkNBMRUwEwYDVQQHEwxTYW5G
cmFuY2lzY28xFTATBgNVBAoTDFBpeGdsbywgSW5jLjEQMA4GA1UECxMHVlBOLUNJ
RTEaMBgGA1UEAxMRdHVubmVsLnBpeGdsby5jb20xHDAaBgNVBCkTE0JhbGEgQ2hh
bmRyYXNla2FyYW4xHjAcBgkqhkiG9w0BCQEWD2JhbGFAcGl4Z2xvLmNvbYIJAKbb
xoOA5qB5MBMGA1UdJQQMMAoGCCsGAQUFBwMCMAsGA1UdDwQEAwIHgDANBgkqhkiG
9w0BAQUFAAOCAgEAjAJPoU1uK4/VzptuRr07ROf3iy38Ow5n35/vxDzTjhdbRuun
5AlBWL042C5dmgnWxVzhPCcCZ1jpOMEQSfXVZKbFxHqpSD9/gDwwZgq1qThkb2+r
YcuBCQqTFj0So1PjkwKk4iF2GOxOlH2yXyySrCwYbvLzyx9Yz2M3nl0M+N7IDKsD
m2gU0GedSxSz8PvpBEgesBIOjoP74aQDxTP4lzLs9IIukHvUsiJjX/BZQG7K7Sy9
vNrdJn3/o+yi0hVYSpgv4TPGqcPepCc3QNRP7VQQcX+O8nsnPs5hkz2brlaKXrTA
S4BThAuGvyKZaL3OorYb1+hPUYT5cKtRB4QQZpZFdSX/WeuQj2EliNZEo94HkkCw
wYFFOwLBZXogBaDpzlH7DhH30IcqjH/gzvbs0+h/Xl4NA5Bzy2UeDF2i4f78GZC1
Wjli8VWOWRlnkru9CjN1rwzKdTo57H1k4Gu+zHLe/CQriAILLe54WhEA+JGzSYta
HzuBlSal8M632aU/dNIkjRHsEDmKW/QYfa/QTzMMuigEt1gvK2Rvow4iB4G74G69
L5dz5GZPnZaZAuhJaSkmjmkKWAMZkcxgDy53zMd7RPCPs2fuaruhOI/lZKW6Oc6/
sFOudIvWeSL6espqiWotiGy8tuoe8nMN+ZZDZo5y875O12xm1n1YpjIakSY=
-----END CERTIFICATE-----
