Certificate:
    Data:
        Version: 3 (0x2)
        Serial Number: 432 (0x1b0)
    Signature Algorithm: sha1WithRSAEncryption
        Issuer: C=US, ST=CA, L=SanFrancisco, O=Pixglo, Inc., OU=VPN-CIE, CN=tunnel.pixglo.com/name=Bala Chandrasekaran/emailAddress=bala@pixglo.com
        Validity
            Not Before: Feb 14 06:33:55 2018 GMT
            Not After : Feb 12 06:33:55 2028 GMT
        Subject: C=US, ST=CA, L=SanFrancisco, O=Pixglo, Inc., OU=VPN-CIE, CN=cie431/name=Bala Chandrasekaran/emailAddress=bala@pixglo.com
        Subject Public Key Info:
            Public Key Algorithm: rsaEncryption
                Public-Key: (4096 bit)
                Modulus:
                    00:a8:d7:26:a0:7c:c7:df:5c:b8:8a:48:03:46:30:
                    a5:96:bd:c5:3c:94:5e:1a:3e:88:ac:1a:b7:4a:6e:
                    19:f9:4e:3a:ad:b1:99:bb:a3:7d:c9:2e:bb:fe:4a:
                    d8:87:72:15:7e:11:64:0a:95:88:49:00:e8:b4:b5:
                    21:f1:e3:41:ae:fd:fa:9e:8f:4b:a3:a2:2c:a4:c3:
                    9b:ba:6f:45:65:3f:4e:d6:03:f9:a9:15:1c:84:49:
                    2d:a6:59:46:a6:00:da:bf:c8:02:fa:7a:2b:9d:3f:
                    70:31:62:d2:47:c2:d0:80:11:8a:3e:24:98:79:50:
                    7d:42:eb:00:87:96:78:f5:3b:6d:83:c9:1b:c1:ba:
                    1c:0d:9e:c4:16:0a:e9:77:50:62:1b:56:ab:0b:37:
                    39:01:ad:af:c4:5a:d7:95:9e:0b:ee:40:d2:b9:73:
                    a1:96:e3:b9:4c:87:3b:1a:60:5e:01:b6:83:e1:fa:
                    fc:ae:f7:0e:21:0e:90:e7:35:5e:71:a6:b1:65:de:
                    ef:7a:ff:46:8a:dd:37:4f:7e:4d:60:3b:f3:56:48:
                    b1:f5:a0:31:7c:24:7e:f8:4c:01:70:82:03:02:a2:
                    07:2f:53:21:c9:8e:81:9e:1c:88:21:e6:fc:8a:dd:
                    c7:b6:ac:7c:24:f1:c3:24:3b:d6:c8:eb:6e:b1:30:
                    38:b9:ee:fc:5f:64:67:8e:7e:62:d1:90:a2:fe:e6:
                    7a:55:e8:5d:b5:d9:32:12:e7:4a:f8:6d:64:87:72:
                    9c:dd:4c:aa:d4:0d:56:c1:be:32:b4:df:41:dd:97:
                    28:fa:96:0b:3d:8b:c0:5b:66:2c:88:53:65:68:9c:
                    91:8c:d4:83:a6:04:b4:e6:f8:9c:90:cf:94:28:bf:
                    c2:1d:20:31:f7:62:1e:9e:29:5a:fa:62:d6:5c:f4:
                    a8:4a:22:06:0e:ef:43:5c:c5:21:ea:06:6c:54:f2:
                    ef:61:2a:e6:03:6d:b3:4e:00:aa:52:c4:b9:3b:3e:
                    05:af:a1:1c:f4:84:bd:28:84:3a:76:dd:90:aa:fc:
                    6a:3c:83:1e:74:84:43:13:9c:11:0d:4b:11:1b:03:
                    4e:fa:bc:70:cf:33:b0:13:3d:97:b8:d4:22:b1:3e:
                    e8:dc:eb:fa:ca:55:3e:ae:24:e3:94:f4:17:23:8a:
                    64:26:fb:0e:9c:ee:c0:1a:75:a9:05:ad:e0:c4:90:
                    87:2b:52:ac:3d:de:88:8e:d4:ff:c8:28:eb:19:6c:
                    80:1c:b8:2e:fe:f4:07:4c:86:b8:a2:4f:a5:be:d2:
                    dc:5a:a0:39:8a:70:91:cb:c8:92:ff:41:a5:d4:69:
                    86:2e:b9:1c:db:0e:e6:05:93:56:12:b5:98:f2:b7:
                    fb:14:af
                Exponent: 65537 (0x10001)
        X509v3 extensions:
            X509v3 Basic Constraints: 
                CA:FALSE
            Netscape Comment: 
                Easy-RSA Generated Certificate
            X509v3 Subject Key Identifier: 
                92:E1:41:CD:C4:5D:E0:32:4D:08:23:5F:4B:CF:CF:E3:BA:0B:C1:F1
            X509v3 Authority Key Identifier: 
                keyid:EF:38:8D:14:50:58:A7:5B:4D:9C:17:72:FC:DF:B9:AC:A7:51:B0:10
                DirName:/C=US/ST=CA/L=SanFrancisco/O=Pixglo, Inc./OU=VPN-CIE/CN=tunnel.pixglo.com/name=Bala Chandrasekaran/emailAddress=bala@pixglo.com
                serial:A6:DB:C6:83:80:E6:A0:79

            X509v3 Extended Key Usage: 
                TLS Web Client Authentication
            X509v3 Key Usage: 
                Digital Signature
    Signature Algorithm: sha1WithRSAEncryption
         55:3b:7e:d6:84:45:64:be:ec:96:ce:34:be:d6:0d:7b:f5:eb:
         3a:ce:cc:7d:17:b4:6d:b9:8e:80:f4:d5:00:9f:0a:53:6e:c5:
         1f:56:1a:a5:dc:70:5f:6f:e0:77:c1:ac:d7:3a:0e:ac:4c:1f:
         35:48:04:c3:52:47:44:7f:9a:ce:91:39:ed:2f:1f:85:f3:98:
         4f:56:a1:d6:03:f8:72:71:37:4c:61:4d:65:ea:0c:96:80:34:
         c1:fd:f6:1e:3f:70:3a:a4:05:ed:3d:ed:90:95:bf:3e:26:1c:
         41:8f:58:c9:52:56:be:75:fc:bc:c8:79:2f:e7:14:c2:95:99:
         a1:fa:d8:45:14:a8:8c:e7:32:64:cc:bf:d6:ed:8d:85:c2:34:
         26:ad:70:1f:6e:4b:e8:b5:b4:45:90:70:46:49:82:9b:4e:2e:
         7b:27:f2:0c:04:df:bb:60:2f:2f:65:4c:da:5d:5b:68:17:a2:
         0f:bb:20:29:a4:e3:6d:3d:40:d1:e4:cd:0c:36:de:37:55:ec:
         aa:07:a9:66:61:39:71:ad:d9:a2:f1:00:61:2c:1c:cd:22:4e:
         9d:f8:6c:9a:d7:ef:6d:7e:7f:e2:fb:fb:62:fb:f3:06:be:df:
         15:8c:6b:30:1a:c1:f6:ca:c7:1b:e3:9c:a0:76:6c:9f:31:5b:
         19:58:c8:cc:d0:63:7c:da:2b:a6:91:24:60:1d:74:d0:17:dc:
         ef:4f:a6:6b:83:ab:f8:71:a3:3f:51:8d:b7:ac:80:ac:e7:75:
         f1:89:fb:d7:6a:cf:1f:8e:89:d0:49:0a:ac:e4:7a:d8:27:eb:
         b8:56:5e:cf:49:77:2c:b9:6d:52:1e:c0:e1:9b:e9:c1:18:4a:
         47:8a:43:96:30:39:7e:2a:8a:16:39:5e:8e:bb:8a:11:b9:69:
         8d:d7:b3:56:21:43:ec:8a:e2:14:9f:39:29:04:3d:5e:86:12:
         7f:f0:a9:e7:34:da:e1:9e:9d:83:f6:53:79:5a:1b:5b:aa:0d:
         f0:ea:29:9f:a9:92:a7:a5:2b:4a:0e:45:9d:ed:27:0c:1a:b2:
         e1:2f:a9:cc:90:26:85:6c:25:dc:de:fe:18:03:a3:e1:14:05:
         cb:37:eb:be:17:20:c1:95:0c:49:8d:26:e5:b5:7e:ac:7b:d8:
         ee:f5:63:3b:75:7e:cf:9f:01:eb:01:f9:a6:31:7d:ca:af:a7:
         96:11:9e:ec:c8:36:ba:52:ea:22:d5:ef:d6:b1:02:e4:72:92:
         ee:6d:72:1a:e2:d3:62:07:07:32:e2:cc:a1:33:c0:af:c1:60:
         19:da:c0:a0:0c:98:32:f0:40:a5:fa:97:9c:99:99:33:2b:9b:
         d8:3d:74:2a:0a:5b:27:d2
-----BEGIN CERTIFICATE-----
MIIHSDCCBTCgAwIBAgICAbAwDQYJKoZIhvcNAQEFBQAwgbQxCzAJBgNVBAYTAlVT
MQswCQYDVQQIEwJDQTEVMBMGA1UEBxMMU2FuRnJhbmNpc2NvMRUwEwYDVQQKEwxQ
aXhnbG8sIEluYy4xEDAOBgNVBAsTB1ZQTi1DSUUxGjAYBgNVBAMTEXR1bm5lbC5w
aXhnbG8uY29tMRwwGgYDVQQpExNCYWxhIENoYW5kcmFzZWthcmFuMR4wHAYJKoZI
hvcNAQkBFg9iYWxhQHBpeGdsby5jb20wHhcNMTgwMjE0MDYzMzU1WhcNMjgwMjEy
MDYzMzU1WjCBqTELMAkGA1UEBhMCVVMxCzAJBgNVBAgTAkNBMRUwEwYDVQQHEwxT
YW5GcmFuY2lzY28xFTATBgNVBAoTDFBpeGdsbywgSW5jLjEQMA4GA1UECxMHVlBO
LUNJRTEPMA0GA1UEAxMGY2llNDMxMRwwGgYDVQQpExNCYWxhIENoYW5kcmFzZWth
cmFuMR4wHAYJKoZIhvcNAQkBFg9iYWxhQHBpeGdsby5jb20wggIiMA0GCSqGSIb3
DQEBAQUAA4ICDwAwggIKAoICAQCo1yagfMffXLiKSANGMKWWvcU8lF4aPoisGrdK
bhn5TjqtsZm7o33JLrv+StiHchV+EWQKlYhJAOi0tSHx40Gu/fqej0ujoiykw5u6
b0VlP07WA/mpFRyESS2mWUamANq/yAL6eiudP3AxYtJHwtCAEYo+JJh5UH1C6wCH
lnj1O22DyRvBuhwNnsQWCul3UGIbVqsLNzkBra/EWteVngvuQNK5c6GW47lMhzsa
YF4BtoPh+vyu9w4hDpDnNV5xprFl3u96/0aK3TdPfk1gO/NWSLH1oDF8JH74TAFw
ggMCogcvUyHJjoGeHIgh5vyK3ce2rHwk8cMkO9bI626xMDi57vxfZGeOfmLRkKL+
5npV6F212TIS50r4bWSHcpzdTKrUDVbBvjK030Hdlyj6lgs9i8BbZiyIU2VonJGM
1IOmBLTm+JyQz5Qov8IdIDH3Yh6eKVr6YtZc9KhKIgYO70NcxSHqBmxU8u9hKuYD
bbNOAKpSxLk7PgWvoRz0hL0ohDp23ZCq/Go8gx50hEMTnBENSxEbA076vHDPM7AT
PZe41CKxPujc6/rKVT6uJOOU9BcjimQm+w6c7sAadakFreDEkIcrUqw93oiO1P/I
KOsZbIAcuC7+9AdMhriiT6W+0txaoDmKcJHLyJL/QaXUaYYuuRzbDuYFk1YStZjy
t/sUrwIDAQABo4IBazCCAWcwCQYDVR0TBAIwADAtBglghkgBhvhCAQ0EIBYeRWFz
eS1SU0EgR2VuZXJhdGVkIENlcnRpZmljYXRlMB0GA1UdDgQWBBSS4UHNxF3gMk0I
I19Lz8/jugvB8TCB6QYDVR0jBIHhMIHegBTvOI0UUFinW02cF3L837msp1GwEKGB
uqSBtzCBtDELMAkGA1UEBhMCVVMxCzAJBgNVBAgTAkNBMRUwEwYDVQQHEwxTYW5G
cmFuY2lzY28xFTATBgNVBAoTDFBpeGdsbywgSW5jLjEQMA4GA1UECxMHVlBOLUNJ
RTEaMBgGA1UEAxMRdHVubmVsLnBpeGdsby5jb20xHDAaBgNVBCkTE0JhbGEgQ2hh
bmRyYXNla2FyYW4xHjAcBgkqhkiG9w0BCQEWD2JhbGFAcGl4Z2xvLmNvbYIJAKbb
xoOA5qB5MBMGA1UdJQQMMAoGCCsGAQUFBwMCMAsGA1UdDwQEAwIHgDANBgkqhkiG
9w0BAQUFAAOCAgEAVTt+1oRFZL7sls40vtYNe/XrOs7MfRe0bbmOgPTVAJ8KU27F
H1YapdxwX2/gd8Gs1zoOrEwfNUgEw1JHRH+azpE57S8fhfOYT1ah1gP4cnE3TGFN
ZeoMloA0wf32Hj9wOqQF7T3tkJW/PiYcQY9YyVJWvnX8vMh5L+cUwpWZofrYRRSo
jOcyZMy/1u2NhcI0Jq1wH25L6LW0RZBwRkmCm04ueyfyDATfu2AvL2VM2l1baBei
D7sgKaTjbT1A0eTNDDbeN1XsqgepZmE5ca3ZovEAYSwczSJOnfhsmtfvbX5/4vv7
YvvzBr7fFYxrMBrB9srHG+OcoHZsnzFbGVjIzNBjfNorppEkYB100Bfc70+ma4Or
+HGjP1GNt6yArOd18Yn712rPH46J0EkKrOR62CfruFZez0l3LLltUh7A4ZvpwRhK
R4pDljA5fiqKFjlejruKEblpjdezViFD7IriFJ85KQQ9XoYSf/Cp5zTa4Z6dg/ZT
eVobW6oN8Oopn6mSp6UrSg5Fne0nDBqy4S+pzJAmhWwl3N7+GAOj4RQFyzfrvhcg
wZUMSY0m5bV+rHvY7vVjO3V+z58B6wH5pjF9yq+nlhGe7Mg2ulLqItXv1rEC5HKS
7m1yGuLTYgcHMuLMoTPAr8FgGdrAoAyYMvBApfqXnJmZMyub2D10KgpbJ9I=
-----END CERTIFICATE-----
