Certificate:
    Data:
        Version: 3 (0x2)
        Serial Number: 434 (0x1b2)
    Signature Algorithm: sha1WithRSAEncryption
        Issuer: C=US, ST=CA, L=SanFrancisco, O=Pixglo, Inc., OU=VPN-CIE, CN=tunnel.pixglo.com/name=Bala Chandrasekaran/emailAddress=bala@pixglo.com
        Validity
            Not Before: Feb 14 06:33:57 2018 GMT
            Not After : Feb 12 06:33:57 2028 GMT
        Subject: C=US, ST=CA, L=SanFrancisco, O=Pixglo, Inc., OU=VPN-CIE, CN=cie433/name=Bala Chandrasekaran/emailAddress=bala@pixglo.com
        Subject Public Key Info:
            Public Key Algorithm: rsaEncryption
                Public-Key: (4096 bit)
                Modulus:
                    00:e1:ba:d6:1d:05:c2:9e:68:55:34:12:a4:a0:f1:
                    d0:f9:1d:15:6d:fe:ea:db:44:dd:25:81:df:71:b4:
                    3b:fb:09:12:a8:f9:a0:7c:40:52:ff:7d:d1:03:bb:
                    62:43:91:ce:b0:bb:27:84:53:49:87:6c:d4:1b:b3:
                    33:6b:ad:55:ea:e3:1c:22:da:65:96:f7:69:b8:3b:
                    97:4c:6e:f5:c5:fb:6a:90:9b:c4:45:a6:7a:39:57:
                    c8:59:a4:5e:8e:1c:a9:a4:05:d3:5a:18:a6:d1:7a:
                    26:43:75:02:36:6e:4b:fa:28:f3:a9:31:c8:43:52:
                    20:37:99:75:94:c4:23:83:e6:f8:de:e5:bc:e2:b7:
                    46:32:48:93:c3:aa:44:59:b7:cd:6b:fa:cf:62:d1:
                    32:5a:8f:a0:4c:46:71:59:8a:55:31:36:b6:75:23:
                    06:36:82:d5:22:df:72:6d:6d:c9:cc:9c:06:cb:9e:
                    9e:b0:cf:6d:c2:89:e8:3c:41:55:38:cc:dd:15:af:
                    2f:42:7b:3a:ee:5d:10:d4:d2:61:c4:ae:8f:ba:02:
                    95:be:96:bb:3b:a9:1c:55:5a:82:6d:d3:9e:10:8a:
                    3f:94:82:4d:41:8d:2f:66:14:3f:f4:16:26:79:85:
                    84:63:63:53:9c:0c:29:50:cd:44:7d:00:6a:af:72:
                    7c:be:84:99:b1:c6:76:3a:0e:35:c9:05:67:f9:19:
                    a8:a2:e7:e0:16:cd:67:a1:7f:f8:08:b3:e5:01:16:
                    39:04:d6:4b:c1:15:f0:54:fa:e6:42:ae:85:a2:6c:
                    4e:f2:92:ca:32:0a:b1:85:1f:06:94:25:9e:d3:9c:
                    5c:99:29:db:87:2b:88:86:e9:56:b9:2f:2b:23:47:
                    e8:8e:75:70:53:07:dc:68:43:30:3f:57:7a:2d:ba:
                    8d:2a:8c:a2:18:40:62:5f:ea:60:1d:81:1f:97:f4:
                    db:f6:18:9e:b5:e2:f5:f1:0a:2d:ff:79:3c:86:d6:
                    9d:47:97:e3:30:59:22:22:4d:da:73:27:fb:e5:2c:
                    4c:a2:b1:9c:2c:f1:80:75:7f:11:b8:fb:c5:62:c8:
                    85:06:84:84:da:f2:42:0c:70:19:34:93:b9:c3:77:
                    42:2c:65:d5:7d:85:fd:97:73:78:12:e3:dd:c5:6b:
                    d1:11:6d:0f:8c:89:9e:11:56:59:52:cd:be:10:ce:
                    c7:df:16:58:24:0b:e6:45:cf:d6:0b:fc:a7:b2:7b:
                    44:b0:37:df:82:3a:33:61:97:94:12:1b:1a:67:86:
                    ea:f0:5a:b5:dd:7d:d9:03:6f:89:51:82:d1:8f:0b:
                    d8:b0:a5:a3:38:e3:bc:30:ea:5f:3a:c9:9b:c3:fc:
                    e9:9f:11
                Exponent: 65537 (0x10001)
        X509v3 extensions:
            X509v3 Basic Constraints: 
                CA:FALSE
            Netscape Comment: 
                Easy-RSA Generated Certificate
            X509v3 Subject Key Identifier: 
                AE:30:EC:42:64:96:85:FE:F2:15:CA:03:18:CE:2C:45:14:C3:F6:3D
            X509v3 Authority Key Identifier: 
                keyid:EF:38:8D:14:50:58:A7:5B:4D:9C:17:72:FC:DF:B9:AC:A7:51:B0:10
                DirName:/C=US/ST=CA/L=SanFrancisco/O=Pixglo, Inc./OU=VPN-CIE/CN=tunnel.pixglo.com/name=Bala Chandrasekaran/emailAddress=bala@pixglo.com
                serial:A6:DB:C6:83:80:E6:A0:79

            X509v3 Extended Key Usage: 
                TLS Web Client Authentication
            X509v3 Key Usage: 
                Digital Signature
    Signature Algorithm: sha1WithRSAEncryption
         35:44:4b:ee:2f:d5:cf:cb:19:f7:17:a1:e4:32:c0:e5:e0:7b:
         14:80:d2:76:f6:50:79:08:da:e8:c3:8a:34:c1:9a:e8:e7:07:
         64:3d:cf:06:18:d7:9b:2f:5a:61:10:ff:40:76:a8:5b:a9:2d:
         d8:6d:64:57:e7:af:7d:54:69:99:a4:91:6c:21:bc:52:21:55:
         dd:a7:51:cd:ea:73:66:f7:8e:fa:a7:7f:4c:4b:7b:09:01:7e:
         67:08:37:99:78:54:a7:9c:aa:dc:e9:bc:2f:00:2d:cb:22:ed:
         9b:cb:dc:32:80:a3:c6:42:74:f9:d3:9a:df:bd:d6:24:48:fc:
         0e:0c:eb:ce:4c:fb:61:b3:a5:88:55:4c:a9:2b:36:93:21:28:
         de:f3:0d:32:9d:9a:cd:34:9d:b3:0e:0c:5d:88:55:f5:71:be:
         5e:9a:40:6d:55:24:7b:ed:0f:63:53:5b:ef:be:99:bc:37:04:
         54:6f:81:7e:3a:ad:28:56:3b:16:18:d1:95:4c:54:6e:aa:9b:
         3c:54:7e:79:6b:0c:eb:fc:cf:78:19:48:50:2b:23:f9:16:99:
         43:26:a7:93:1c:af:ee:d0:35:5a:e4:7f:76:a4:3d:a3:32:42:
         15:b7:95:c2:3f:fd:60:38:af:26:ac:6a:ec:fd:6d:ef:6e:30:
         63:3c:17:9d:ce:56:15:19:18:4c:64:cd:14:ab:4d:fd:84:11:
         56:a4:a6:0e:ce:c6:9b:24:04:85:e1:f7:b6:da:a4:4b:a3:d4:
         a8:42:d5:b4:32:6f:e8:1e:fb:34:be:5e:02:ae:16:86:4f:9f:
         e8:bb:8a:32:8a:51:ae:f4:02:69:81:63:b7:b7:99:0a:87:f6:
         01:81:d5:f8:b5:76:b2:f3:65:84:60:bb:d1:df:2f:1d:09:59:
         21:07:35:8b:28:07:07:70:cc:de:f4:f2:96:a9:c3:ff:12:3b:
         41:c4:65:8d:0f:79:6c:4a:ca:2f:59:d3:d7:44:e5:3d:e7:21:
         e1:1e:61:70:0f:d9:56:74:83:7a:47:11:cb:e0:ff:85:aa:db:
         14:27:f3:96:28:b7:c6:47:62:94:5e:d7:38:6f:ee:7b:cb:99:
         01:0a:d4:4c:c6:76:f7:9b:55:7e:69:c0:65:0d:0d:0b:bc:af:
         de:44:a1:6c:d7:a0:03:68:80:41:88:e2:e2:30:9e:90:d1:20:
         52:d6:0d:f8:6d:56:26:5e:13:d5:33:63:0b:eb:7e:d8:5b:b4:
         0b:55:e6:d5:31:0a:c9:1e:c6:fa:bf:36:9d:fb:db:7e:99:dd:
         3b:95:c0:93:09:70:e8:f1:38:c0:ff:ec:39:4e:fd:a6:2c:cf:
         2f:a6:4a:6b:18:2f:7e:2c
-----BEGIN CERTIFICATE-----
MIIHSDCCBTCgAwIBAgICAbIwDQYJKoZIhvcNAQEFBQAwgbQxCzAJBgNVBAYTAlVT
MQswCQYDVQQIEwJDQTEVMBMGA1UEBxMMU2FuRnJhbmNpc2NvMRUwEwYDVQQKEwxQ
aXhnbG8sIEluYy4xEDAOBgNVBAsTB1ZQTi1DSUUxGjAYBgNVBAMTEXR1bm5lbC5w
aXhnbG8uY29tMRwwGgYDVQQpExNCYWxhIENoYW5kcmFzZWthcmFuMR4wHAYJKoZI
hvcNAQkBFg9iYWxhQHBpeGdsby5jb20wHhcNMTgwMjE0MDYzMzU3WhcNMjgwMjEy
MDYzMzU3WjCBqTELMAkGA1UEBhMCVVMxCzAJBgNVBAgTAkNBMRUwEwYDVQQHEwxT
YW5GcmFuY2lzY28xFTATBgNVBAoTDFBpeGdsbywgSW5jLjEQMA4GA1UECxMHVlBO
LUNJRTEPMA0GA1UEAxMGY2llNDMzMRwwGgYDVQQpExNCYWxhIENoYW5kcmFzZWth
cmFuMR4wHAYJKoZIhvcNAQkBFg9iYWxhQHBpeGdsby5jb20wggIiMA0GCSqGSIb3
DQEBAQUAA4ICDwAwggIKAoICAQDhutYdBcKeaFU0EqSg8dD5HRVt/urbRN0lgd9x
tDv7CRKo+aB8QFL/fdEDu2JDkc6wuyeEU0mHbNQbszNrrVXq4xwi2mWW92m4O5dM
bvXF+2qQm8RFpno5V8hZpF6OHKmkBdNaGKbReiZDdQI2bkv6KPOpMchDUiA3mXWU
xCOD5vje5bzit0YySJPDqkRZt81r+s9i0TJaj6BMRnFZilUxNrZ1IwY2gtUi33Jt
bcnMnAbLnp6wz23Cieg8QVU4zN0Vry9CezruXRDU0mHEro+6ApW+lrs7qRxVWoJt
054Qij+Ugk1BjS9mFD/0FiZ5hYRjY1OcDClQzUR9AGqvcny+hJmxxnY6DjXJBWf5
Gaii5+AWzWehf/gIs+UBFjkE1kvBFfBU+uZCroWibE7yksoyCrGFHwaUJZ7TnFyZ
KduHK4iG6Va5LysjR+iOdXBTB9xoQzA/V3otuo0qjKIYQGJf6mAdgR+X9Nv2GJ61
4vXxCi3/eTyG1p1Hl+MwWSIiTdpzJ/vlLEyisZws8YB1fxG4+8ViyIUGhITa8kIM
cBk0k7nDd0IsZdV9hf2Xc3gS493Fa9ERbQ+MiZ4RVllSzb4QzsffFlgkC+ZFz9YL
/Keye0SwN9+COjNhl5QSGxpnhurwWrXdfdkDb4lRgtGPC9iwpaM447ww6l86yZvD
/OmfEQIDAQABo4IBazCCAWcwCQYDVR0TBAIwADAtBglghkgBhvhCAQ0EIBYeRWFz
eS1SU0EgR2VuZXJhdGVkIENlcnRpZmljYXRlMB0GA1UdDgQWBBSuMOxCZJaF/vIV
ygMYzixFFMP2PTCB6QYDVR0jBIHhMIHegBTvOI0UUFinW02cF3L837msp1GwEKGB
uqSBtzCBtDELMAkGA1UEBhMCVVMxCzAJBgNVBAgTAkNBMRUwEwYDVQQHEwxTYW5G
cmFuY2lzY28xFTATBgNVBAoTDFBpeGdsbywgSW5jLjEQMA4GA1UECxMHVlBOLUNJ
RTEaMBgGA1UEAxMRdHVubmVsLnBpeGdsby5jb20xHDAaBgNVBCkTE0JhbGEgQ2hh
bmRyYXNla2FyYW4xHjAcBgkqhkiG9w0BCQEWD2JhbGFAcGl4Z2xvLmNvbYIJAKbb
xoOA5qB5MBMGA1UdJQQMMAoGCCsGAQUFBwMCMAsGA1UdDwQEAwIHgDANBgkqhkiG
9w0BAQUFAAOCAgEANURL7i/Vz8sZ9xeh5DLA5eB7FIDSdvZQeQja6MOKNMGa6OcH
ZD3PBhjXmy9aYRD/QHaoW6kt2G1kV+evfVRpmaSRbCG8UiFV3adRzepzZveO+qd/
TEt7CQF+Zwg3mXhUp5yq3Om8LwAtyyLtm8vcMoCjxkJ0+dOa373WJEj8Dgzrzkz7
YbOliFVMqSs2kyEo3vMNMp2azTSdsw4MXYhV9XG+XppAbVUke+0PY1Nb776ZvDcE
VG+BfjqtKFY7FhjRlUxUbqqbPFR+eWsM6/zPeBlIUCsj+RaZQyankxyv7tA1WuR/
dqQ9ozJCFbeVwj/9YDivJqxq7P1t724wYzwXnc5WFRkYTGTNFKtN/YQRVqSmDs7G
myQEheH3ttqkS6PUqELVtDJv6B77NL5eAq4Whk+f6LuKMopRrvQCaYFjt7eZCof2
AYHV+LV2svNlhGC70d8vHQlZIQc1iygHB3DM3vTylqnD/xI7QcRljQ95bErKL1nT
10TlPech4R5hcA/ZVnSDekcRy+D/harbFCfzlii3xkdilF7XOG/ue8uZAQrUTMZ2
95tVfmnAZQ0NC7yv3kShbNegA2iAQYji4jCekNEgUtYN+G1WJl4T1TNjC+t+2Fu0
C1Xm1TEKyR7G+r82nfvbfpndO5XAkwlw6PE4wP/sOU79pizPL6ZKaxgvfiw=
-----END CERTIFICATE-----
