Certificate:
    Data:
        Version: 3 (0x2)
        Serial Number: 435 (0x1b3)
    Signature Algorithm: sha1WithRSAEncryption
        Issuer: C=US, ST=CA, L=SanFrancisco, O=Pixglo, Inc., OU=VPN-CIE, CN=tunnel.pixglo.com/name=Bala Chandrasekaran/emailAddress=bala@pixglo.com
        Validity
            Not Before: Feb 14 06:33:58 2018 GMT
            Not After : Feb 12 06:33:58 2028 GMT
        Subject: C=US, ST=CA, L=SanFrancisco, O=Pixglo, Inc., OU=VPN-CIE, CN=cie434/name=Bala Chandrasekaran/emailAddress=bala@pixglo.com
        Subject Public Key Info:
            Public Key Algorithm: rsaEncryption
                Public-Key: (4096 bit)
                Modulus:
                    00:b4:38:fc:85:65:a8:a9:08:c1:56:de:03:53:d3:
                    51:19:50:e7:0d:99:29:23:f5:2a:b3:2d:b2:b0:a0:
                    b1:08:1a:75:d9:75:fd:3a:19:f9:ef:8a:08:98:0c:
                    cf:fb:c7:38:9d:cf:95:06:55:ec:d1:7d:c5:c6:c0:
                    b3:fe:b5:30:3d:90:3e:56:df:47:e2:9a:fd:0a:35:
                    ec:54:2b:80:ef:9f:45:89:81:9b:8f:b1:aa:19:ea:
                    c5:06:4b:ac:68:9f:e2:3b:12:37:6f:e9:ff:29:dd:
                    ae:69:1b:68:12:ed:c0:71:c5:d8:55:39:fc:b1:62:
                    06:8b:75:7e:da:96:b6:d3:e4:18:28:fc:9a:a0:e4:
                    de:7d:b2:67:d1:e4:ff:9e:62:dc:d9:28:73:1b:e3:
                    fb:57:34:93:ca:7f:19:43:13:ec:eb:d9:92:25:93:
                    12:50:b7:d7:26:08:26:d2:a4:02:f6:a8:21:4e:f4:
                    09:d4:2a:74:6a:26:bc:3b:c7:01:0f:a6:33:1b:44:
                    04:34:f5:31:9b:35:ad:1f:d5:d4:b2:c4:30:0f:77:
                    ca:aa:b5:6f:82:97:a9:57:74:d8:a3:5f:26:b1:86:
                    38:6a:d8:d3:41:95:20:5b:8b:26:b1:aa:77:1a:c3:
                    5e:45:ba:7a:7a:c6:94:76:d5:ba:9c:e2:c7:28:53:
                    44:fe:5a:11:f0:8f:b1:61:c0:90:75:f5:c8:1c:64:
                    d2:f6:ef:06:4f:a2:2e:7e:9c:6d:b7:44:47:99:c1:
                    cc:49:de:dd:5d:8f:0e:d8:c9:08:26:c3:3b:95:64:
                    e5:4d:f3:39:e3:62:dd:67:74:6c:5d:2a:0a:a8:df:
                    8c:4d:79:80:fe:cd:27:58:08:b4:d3:02:51:11:39:
                    34:ac:bd:ad:e8:38:f8:9c:b8:0c:48:9a:ad:f3:34:
                    0d:23:e0:2b:f8:3b:45:f6:3e:87:91:6c:b8:bf:f3:
                    22:f0:55:c9:90:b1:31:c6:32:4c:09:6f:a2:5e:48:
                    2b:53:e8:f2:36:2f:44:32:ab:df:eb:3b:9a:da:6d:
                    b4:5c:35:c9:a4:d8:0c:3d:52:bb:3d:ba:1d:fc:ba:
                    b8:72:d4:ba:bb:d8:f6:10:42:fc:43:24:e4:0c:e3:
                    80:67:a0:10:a7:cf:97:a1:83:f8:3c:b4:42:76:64:
                    ef:c7:ea:73:63:a8:82:ae:b2:33:d8:f8:7f:da:05:
                    f0:be:b0:ed:60:cc:ff:96:0f:45:65:b9:1a:1b:9a:
                    2d:b6:10:69:a6:9f:5a:74:a4:d1:a1:10:d7:a7:d1:
                    2a:94:49:1b:b4:a9:f5:bb:a9:74:c6:e4:ad:06:64:
                    f2:c4:e1:2e:18:4d:b8:e7:c0:56:3c:24:07:b8:1b:
                    27:3a:f7
                Exponent: 65537 (0x10001)
        X509v3 extensions:
            X509v3 Basic Constraints: 
                CA:FALSE
            Netscape Comment: 
                Easy-RSA Generated Certificate
            X509v3 Subject Key Identifier: 
                51:EF:74:6D:39:D7:F4:F9:06:72:C1:56:D6:3B:C5:60:E1:F4:9A:01
            X509v3 Authority Key Identifier: 
                keyid:EF:38:8D:14:50:58:A7:5B:4D:9C:17:72:FC:DF:B9:AC:A7:51:B0:10
                DirName:/C=US/ST=CA/L=SanFrancisco/O=Pixglo, Inc./OU=VPN-CIE/CN=tunnel.pixglo.com/name=Bala Chandrasekaran/emailAddress=bala@pixglo.com
                serial:A6:DB:C6:83:80:E6:A0:79

            X509v3 Extended Key Usage: 
                TLS Web Client Authentication
            X509v3 Key Usage: 
                Digital Signature
    Signature Algorithm: sha1WithRSAEncryption
         38:f6:16:50:61:d4:19:20:48:e9:d5:44:ae:d6:1d:8e:3c:0e:
         7d:6a:3d:21:95:75:c9:f5:e8:04:a7:be:1c:ea:62:aa:18:a4:
         73:05:40:ff:80:fe:ca:c5:33:b4:52:9c:fa:8e:61:55:fd:54:
         96:af:19:13:d2:c1:af:b3:03:42:f0:e1:ee:f4:aa:df:3c:2e:
         07:39:4c:e8:d5:5c:97:42:5f:de:ab:a0:2d:7d:8e:e2:3f:e0:
         b7:c9:30:91:23:05:b8:7b:8a:90:76:bd:a2:c3:a2:fa:eb:3a:
         78:f2:92:1a:95:bf:95:b5:22:f3:8e:c9:59:37:81:8e:f7:9b:
         29:ce:f6:d6:db:5f:60:48:22:77:f7:19:37:03:89:53:73:0b:
         65:6b:31:8e:a5:4f:b0:ac:2e:ba:a2:04:58:57:c1:b6:bd:af:
         4d:9f:fd:29:f3:77:d7:ba:90:e4:09:93:11:37:98:9e:0d:14:
         03:fd:a3:7e:59:16:94:18:3d:17:eb:77:5d:e5:ad:7f:88:3c:
         52:1d:ca:a5:ed:4a:55:d1:a7:49:5e:25:af:dc:c8:28:36:cb:
         f5:ec:aa:02:c8:38:7b:19:b4:3d:93:1e:69:a7:7e:a2:ee:49:
         aa:c3:1a:b2:90:b1:18:9c:c8:4c:a4:22:2b:a3:38:4c:5b:55:
         0f:42:4e:20:04:40:64:83:fb:3c:0d:70:d7:e1:a1:8e:55:7b:
         24:60:02:3c:23:c8:2f:db:9e:4f:17:a5:30:37:3f:b8:b0:75:
         20:92:41:09:2f:2d:b5:fa:37:73:28:37:6a:5a:98:3d:28:dd:
         97:e6:00:a4:40:81:ac:98:1c:5d:81:d0:98:8e:97:0d:bb:84:
         8b:af:41:4d:b6:98:7d:b6:9d:3d:df:71:a9:06:de:8b:2f:ff:
         b7:6e:a7:be:e4:bb:6e:81:df:69:3b:05:8a:76:55:76:ca:38:
         b2:12:46:72:71:2f:ea:aa:ca:ec:d4:d1:19:a9:31:24:17:82:
         56:0c:c6:b7:7b:18:7a:63:9f:ed:08:73:81:c4:5c:2a:7a:c1:
         28:9f:dc:a3:74:d6:c3:c4:7e:a5:c9:1f:d8:96:20:68:73:7d:
         9e:eb:29:e0:f9:47:f4:51:24:28:a4:72:fc:4c:40:18:d6:7c:
         a3:10:fe:b8:2f:56:6c:bb:00:05:6e:ce:a2:f3:dc:cc:b5:8e:
         83:4e:ff:1c:66:12:64:56:71:60:aa:ec:d3:91:a9:36:12:22:
         39:13:43:0c:e9:51:a3:42:24:94:cc:97:01:06:13:3b:a4:16:
         e0:46:42:0f:f2:85:14:00:57:d8:92:ce:b8:ca:df:f5:45:bd:
         7c:e0:2d:47:4e:f3:f6:72
-----BEGIN CERTIFICATE-----
MIIHSDCCBTCgAwIBAgICAbMwDQYJKoZIhvcNAQEFBQAwgbQxCzAJBgNVBAYTAlVT
MQswCQYDVQQIEwJDQTEVMBMGA1UEBxMMU2FuRnJhbmNpc2NvMRUwEwYDVQQKEwxQ
aXhnbG8sIEluYy4xEDAOBgNVBAsTB1ZQTi1DSUUxGjAYBgNVBAMTEXR1bm5lbC5w
aXhnbG8uY29tMRwwGgYDVQQpExNCYWxhIENoYW5kcmFzZWthcmFuMR4wHAYJKoZI
hvcNAQkBFg9iYWxhQHBpeGdsby5jb20wHhcNMTgwMjE0MDYzMzU4WhcNMjgwMjEy
MDYzMzU4WjCBqTELMAkGA1UEBhMCVVMxCzAJBgNVBAgTAkNBMRUwEwYDVQQHEwxT
YW5GcmFuY2lzY28xFTATBgNVBAoTDFBpeGdsbywgSW5jLjEQMA4GA1UECxMHVlBO
LUNJRTEPMA0GA1UEAxMGY2llNDM0MRwwGgYDVQQpExNCYWxhIENoYW5kcmFzZWth
cmFuMR4wHAYJKoZIhvcNAQkBFg9iYWxhQHBpeGdsby5jb20wggIiMA0GCSqGSIb3
DQEBAQUAA4ICDwAwggIKAoICAQC0OPyFZaipCMFW3gNT01EZUOcNmSkj9SqzLbKw
oLEIGnXZdf06GfnvigiYDM/7xzidz5UGVezRfcXGwLP+tTA9kD5W30fimv0KNexU
K4Dvn0WJgZuPsaoZ6sUGS6xon+I7Ejdv6f8p3a5pG2gS7cBxxdhVOfyxYgaLdX7a
lrbT5Bgo/Jqg5N59smfR5P+eYtzZKHMb4/tXNJPKfxlDE+zr2ZIlkxJQt9cmCCbS
pAL2qCFO9AnUKnRqJrw7xwEPpjMbRAQ09TGbNa0f1dSyxDAPd8qqtW+Cl6lXdNij
Xyaxhjhq2NNBlSBbiyaxqncaw15Funp6xpR21bqc4scoU0T+WhHwj7FhwJB19cgc
ZNL27wZPoi5+nG23REeZwcxJ3t1djw7YyQgmwzuVZOVN8znjYt1ndGxdKgqo34xN
eYD+zSdYCLTTAlEROTSsva3oOPicuAxImq3zNA0j4Cv4O0X2PoeRbLi/8yLwVcmQ
sTHGMkwJb6JeSCtT6PI2L0Qyq9/rO5rabbRcNcmk2Aw9Urs9uh38urhy1Lq72PYQ
QvxDJOQM44BnoBCnz5ehg/g8tEJ2ZO/H6nNjqIKusjPY+H/aBfC+sO1gzP+WD0Vl
uRobmi22EGmmn1p0pNGhENen0SqUSRu0qfW7qXTG5K0GZPLE4S4YTbjnwFY8JAe4
Gyc69wIDAQABo4IBazCCAWcwCQYDVR0TBAIwADAtBglghkgBhvhCAQ0EIBYeRWFz
eS1SU0EgR2VuZXJhdGVkIENlcnRpZmljYXRlMB0GA1UdDgQWBBRR73RtOdf0+QZy
wVbWO8Vg4fSaATCB6QYDVR0jBIHhMIHegBTvOI0UUFinW02cF3L837msp1GwEKGB
uqSBtzCBtDELMAkGA1UEBhMCVVMxCzAJBgNVBAgTAkNBMRUwEwYDVQQHEwxTYW5G
cmFuY2lzY28xFTATBgNVBAoTDFBpeGdsbywgSW5jLjEQMA4GA1UECxMHVlBOLUNJ
RTEaMBgGA1UEAxMRdHVubmVsLnBpeGdsby5jb20xHDAaBgNVBCkTE0JhbGEgQ2hh
bmRyYXNla2FyYW4xHjAcBgkqhkiG9w0BCQEWD2JhbGFAcGl4Z2xvLmNvbYIJAKbb
xoOA5qB5MBMGA1UdJQQMMAoGCCsGAQUFBwMCMAsGA1UdDwQEAwIHgDANBgkqhkiG
9w0BAQUFAAOCAgEAOPYWUGHUGSBI6dVErtYdjjwOfWo9IZV1yfXoBKe+HOpiqhik
cwVA/4D+ysUztFKc+o5hVf1Ulq8ZE9LBr7MDQvDh7vSq3zwuBzlM6NVcl0Jf3qug
LX2O4j/gt8kwkSMFuHuKkHa9osOi+us6ePKSGpW/lbUi847JWTeBjvebKc721ttf
YEgid/cZNwOJU3MLZWsxjqVPsKwuuqIEWFfBtr2vTZ/9KfN317qQ5AmTETeYng0U
A/2jflkWlBg9F+t3XeWtf4g8Uh3Kpe1KVdGnSV4lr9zIKDbL9eyqAsg4exm0PZMe
aad+ou5JqsMaspCxGJzITKQiK6M4TFtVD0JOIARAZIP7PA1w1+GhjlV7JGACPCPI
L9ueTxelMDc/uLB1IJJBCS8ttfo3cyg3alqYPSjdl+YApECBrJgcXYHQmI6XDbuE
i69BTbaYfbadPd9xqQbeiy//t26nvuS7boHfaTsFinZVdso4shJGcnEv6qrK7NTR
GakxJBeCVgzGt3sYemOf7QhzgcRcKnrBKJ/co3TWw8R+pckf2JYgaHN9nusp4PlH
9FEkKKRy/ExAGNZ8oxD+uC9WbLsABW7OovPczLWOg07/HGYSZFZxYKrs05GpNhIi
ORNDDOlRo0IklMyXAQYTO6QW4EZCD/KFFABX2JLOuMrf9UW9fOAtR07z9nI=
-----END CERTIFICATE-----
