Certificate:
    Data:
        Version: 3 (0x2)
        Serial Number: 436 (0x1b4)
    Signature Algorithm: sha1WithRSAEncryption
        Issuer: C=US, ST=CA, L=SanFrancisco, O=Pixglo, Inc., OU=VPN-CIE, CN=tunnel.pixglo.com/name=Bala Chandrasekaran/emailAddress=bala@pixglo.com
        Validity
            Not Before: Feb 14 06:33:59 2018 GMT
            Not After : Feb 12 06:33:59 2028 GMT
        Subject: C=US, ST=CA, L=SanFrancisco, O=Pixglo, Inc., OU=VPN-CIE, CN=cie435/name=Bala Chandrasekaran/emailAddress=bala@pixglo.com
        Subject Public Key Info:
            Public Key Algorithm: rsaEncryption
                Public-Key: (4096 bit)
                Modulus:
                    00:be:16:d5:be:0e:98:0f:dd:40:30:16:88:89:93:
                    b1:33:88:a3:a9:6f:f4:dd:3c:57:fe:93:70:a5:af:
                    3d:24:7e:ac:53:1a:4b:37:bf:ab:8c:64:92:43:bb:
                    f2:1a:eb:11:59:22:47:1b:5a:ab:ac:07:90:ed:97:
                    84:6d:8f:43:f1:ab:6c:ef:14:93:48:f7:2a:8c:f4:
                    9a:52:30:e1:ef:a9:44:11:f6:a8:37:78:c0:29:38:
                    a9:ec:59:49:d5:9f:1a:1b:c3:8a:c7:be:30:44:70:
                    e6:d8:80:e8:1c:f0:5c:40:bd:0f:01:5d:b7:2f:48:
                    e3:ec:77:4b:a0:2f:ac:c5:63:71:4b:fe:3c:73:88:
                    28:9d:a5:c7:1a:e1:ca:f2:36:af:ce:6c:67:27:6a:
                    b1:f1:b7:49:2e:12:5a:98:00:c0:43:14:48:b2:ce:
                    93:e8:d3:44:31:6d:15:02:63:a0:f2:12:7d:96:54:
                    e7:14:b0:b9:44:97:41:20:e9:bd:0d:8c:7e:67:d5:
                    45:a6:75:17:a1:a4:9b:5b:d4:6a:d5:3f:8d:d6:d1:
                    1a:d2:5d:6f:43:ad:e2:59:4f:86:80:1d:a5:91:50:
                    37:77:56:bc:b0:9a:b0:3d:e7:73:de:3c:27:f3:38:
                    df:7f:49:99:1a:4f:37:79:6e:c8:5f:44:ef:54:26:
                    d6:8a:a7:db:64:79:d4:4b:be:10:b3:3a:51:62:20:
                    6f:b4:83:61:84:02:ad:21:76:85:11:51:21:4e:2b:
                    1c:f8:cd:d4:3d:b3:7a:19:1a:d8:b4:06:70:ad:16:
                    72:39:23:f6:64:dd:50:ea:a2:27:26:df:21:54:95:
                    b6:ba:3a:19:ea:23:27:ab:d1:43:94:1d:af:d8:d4:
                    e2:e1:e4:1f:e2:bc:ab:6d:bd:7d:f6:82:9f:61:10:
                    c5:6b:a7:ff:8c:e9:05:38:c0:13:90:4d:c3:bc:81:
                    5f:ce:a0:1a:4d:2f:f5:bc:a9:a8:7e:2d:8e:f3:92:
                    90:ed:ca:56:c0:4f:1c:6e:f4:09:ff:a5:d8:b1:70:
                    bb:b4:0b:e9:7e:53:88:00:de:0d:1a:14:00:0b:d4:
                    e1:9d:87:a5:8f:6f:1f:08:a8:f9:70:c0:25:33:bd:
                    8e:b7:29:ef:a4:cc:ed:f2:07:81:98:81:1e:d3:8c:
                    0b:6a:60:6d:15:3f:c7:04:4e:bd:ef:0a:de:2e:62:
                    02:27:0f:0e:1d:0b:97:63:c3:d1:08:ea:fc:8f:51:
                    43:4a:1a:17:ab:0f:35:40:c7:e3:29:23:1a:0b:a4:
                    5f:58:85:5a:ef:55:dc:2a:13:22:15:38:48:ba:e7:
                    d0:35:24:60:26:34:1e:25:66:27:6f:c5:14:33:c6:
                    93:d9:f3
                Exponent: 65537 (0x10001)
        X509v3 extensions:
            X509v3 Basic Constraints: 
                CA:FALSE
            Netscape Comment: 
                Easy-RSA Generated Certificate
            X509v3 Subject Key Identifier: 
                06:FB:EA:FC:B6:D3:FE:90:AB:CF:17:6C:59:65:F2:96:F5:48:69:35
            X509v3 Authority Key Identifier: 
                keyid:EF:38:8D:14:50:58:A7:5B:4D:9C:17:72:FC:DF:B9:AC:A7:51:B0:10
                DirName:/C=US/ST=CA/L=SanFrancisco/O=Pixglo, Inc./OU=VPN-CIE/CN=tunnel.pixglo.com/name=Bala Chandrasekaran/emailAddress=bala@pixglo.com
                serial:A6:DB:C6:83:80:E6:A0:79

            X509v3 Extended Key Usage: 
                TLS Web Client Authentication
            X509v3 Key Usage: 
                Digital Signature
    Signature Algorithm: sha1WithRSAEncryption
         83:a1:30:ce:f6:fc:81:53:cd:48:6a:6f:10:e7:e1:02:53:40:
         25:ce:0e:51:06:ab:2a:7e:c4:4c:e1:cb:3e:75:58:be:79:8d:
         44:28:82:1f:34:8d:21:2d:00:b9:38:cb:a0:e4:d6:61:92:2a:
         8b:44:29:2e:78:98:26:16:62:97:dc:b4:b1:c6:86:de:43:89:
         12:02:e9:f1:f2:99:d9:a6:7e:79:a2:ba:8a:1a:5c:d5:b0:e6:
         0a:14:08:ea:28:3d:31:3d:66:dc:04:f7:6b:8e:14:a3:6e:4b:
         b5:db:71:d8:dd:3a:aa:1c:55:7b:36:e2:9c:fd:7e:ef:9c:ad:
         64:26:c6:31:f9:41:1c:30:f2:c5:25:09:a2:0e:ac:59:ce:7d:
         87:d9:42:b2:bd:c2:64:ff:6e:22:f1:54:8f:a2:3b:fb:31:96:
         22:17:5f:ad:fc:00:85:a1:46:25:f0:d9:06:76:78:47:b1:07:
         a3:80:10:ba:3f:94:35:83:f1:6d:c6:bc:cc:ef:f4:13:ba:7d:
         89:98:14:59:56:41:92:d9:dc:09:e3:ff:43:f3:bd:e8:2b:10:
         6d:88:5d:1f:a8:2e:66:63:d8:8f:b4:4b:e4:ba:fd:cb:91:de:
         f0:f1:59:7a:c1:17:c9:9d:bd:95:9d:5f:a4:bd:87:16:64:f6:
         84:f1:34:4c:aa:b1:7c:be:53:f7:29:20:63:75:58:56:b1:d4:
         f2:93:bc:e9:31:00:ec:f1:4f:4d:d8:32:15:df:74:ed:af:37:
         04:ec:28:8f:fe:84:65:04:aa:67:9f:ae:0b:d1:4d:65:05:8d:
         1b:6c:2a:ff:8f:66:91:56:d5:21:b8:c5:dd:7e:62:4d:63:b6:
         43:de:61:44:2f:a4:db:ab:6a:64:5a:82:13:c9:bf:cf:ce:59:
         13:c0:59:58:44:06:cd:0e:6c:66:c5:03:fc:cc:34:46:8a:41:
         bf:77:24:8f:43:28:77:90:05:d5:d5:5a:68:eb:1e:25:02:4a:
         f7:db:12:17:e5:0a:81:c9:5d:ce:0b:3b:e9:95:14:ec:55:5f:
         85:9f:c1:e1:51:aa:28:1c:90:8e:5b:86:ad:f1:35:b0:fa:f3:
         68:f7:7b:c9:31:b2:66:8c:ec:a6:c4:03:c9:46:85:91:89:17:
         19:c8:2c:c0:0e:53:d1:f4:75:7c:9c:97:e0:75:d7:27:eb:55:
         89:b9:58:7e:46:6b:b8:fc:6a:fb:1c:d9:43:06:20:ef:f2:d0:
         c2:62:8c:9b:06:44:fd:73:9c:98:2f:1e:6a:ee:83:03:91:6c:
         d8:da:13:c1:70:0b:aa:39:cf:3d:72:d4:f8:05:8b:7a:a3:98:
         ce:e3:cf:e9:cf:22:60:a6
-----BEGIN CERTIFICATE-----
MIIHSDCCBTCgAwIBAgICAbQwDQYJKoZIhvcNAQEFBQAwgbQxCzAJBgNVBAYTAlVT
MQswCQYDVQQIEwJDQTEVMBMGA1UEBxMMU2FuRnJhbmNpc2NvMRUwEwYDVQQKEwxQ
aXhnbG8sIEluYy4xEDAOBgNVBAsTB1ZQTi1DSUUxGjAYBgNVBAMTEXR1bm5lbC5w
aXhnbG8uY29tMRwwGgYDVQQpExNCYWxhIENoYW5kcmFzZWthcmFuMR4wHAYJKoZI
hvcNAQkBFg9iYWxhQHBpeGdsby5jb20wHhcNMTgwMjE0MDYzMzU5WhcNMjgwMjEy
MDYzMzU5WjCBqTELMAkGA1UEBhMCVVMxCzAJBgNVBAgTAkNBMRUwEwYDVQQHEwxT
YW5GcmFuY2lzY28xFTATBgNVBAoTDFBpeGdsbywgSW5jLjEQMA4GA1UECxMHVlBO
LUNJRTEPMA0GA1UEAxMGY2llNDM1MRwwGgYDVQQpExNCYWxhIENoYW5kcmFzZWth
cmFuMR4wHAYJKoZIhvcNAQkBFg9iYWxhQHBpeGdsby5jb20wggIiMA0GCSqGSIb3
DQEBAQUAA4ICDwAwggIKAoICAQC+FtW+DpgP3UAwFoiJk7EziKOpb/TdPFf+k3Cl
rz0kfqxTGks3v6uMZJJDu/Ia6xFZIkcbWqusB5Dtl4Rtj0Pxq2zvFJNI9yqM9JpS
MOHvqUQR9qg3eMApOKnsWUnVnxobw4rHvjBEcObYgOgc8FxAvQ8BXbcvSOPsd0ug
L6zFY3FL/jxziCidpcca4cryNq/ObGcnarHxt0kuElqYAMBDFEiyzpPo00QxbRUC
Y6DyEn2WVOcUsLlEl0Eg6b0NjH5n1UWmdRehpJtb1GrVP43W0RrSXW9DreJZT4aA
HaWRUDd3VrywmrA953PePCfzON9/SZkaTzd5bshfRO9UJtaKp9tkedRLvhCzOlFi
IG+0g2GEAq0hdoURUSFOKxz4zdQ9s3oZGti0BnCtFnI5I/Zk3VDqoicm3yFUlba6
OhnqIyer0UOUHa/Y1OLh5B/ivKttvX32gp9hEMVrp/+M6QU4wBOQTcO8gV/OoBpN
L/W8qah+LY7zkpDtylbATxxu9An/pdixcLu0C+l+U4gA3g0aFAAL1OGdh6WPbx8I
qPlwwCUzvY63Ke+kzO3yB4GYgR7TjAtqYG0VP8cETr3vCt4uYgInDw4dC5djw9EI
6vyPUUNKGherDzVAx+MpIxoLpF9YhVrvVdwqEyIVOEi659A1JGAmNB4lZidvxRQz
xpPZ8wIDAQABo4IBazCCAWcwCQYDVR0TBAIwADAtBglghkgBhvhCAQ0EIBYeRWFz
eS1SU0EgR2VuZXJhdGVkIENlcnRpZmljYXRlMB0GA1UdDgQWBBQG++r8ttP+kKvP
F2xZZfKW9UhpNTCB6QYDVR0jBIHhMIHegBTvOI0UUFinW02cF3L837msp1GwEKGB
uqSBtzCBtDELMAkGA1UEBhMCVVMxCzAJBgNVBAgTAkNBMRUwEwYDVQQHEwxTYW5G
cmFuY2lzY28xFTATBgNVBAoTDFBpeGdsbywgSW5jLjEQMA4GA1UECxMHVlBOLUNJ
RTEaMBgGA1UEAxMRdHVubmVsLnBpeGdsby5jb20xHDAaBgNVBCkTE0JhbGEgQ2hh
bmRyYXNla2FyYW4xHjAcBgkqhkiG9w0BCQEWD2JhbGFAcGl4Z2xvLmNvbYIJAKbb
xoOA5qB5MBMGA1UdJQQMMAoGCCsGAQUFBwMCMAsGA1UdDwQEAwIHgDANBgkqhkiG
9w0BAQUFAAOCAgEAg6Ewzvb8gVPNSGpvEOfhAlNAJc4OUQarKn7ETOHLPnVYvnmN
RCiCHzSNIS0AuTjLoOTWYZIqi0QpLniYJhZil9y0scaG3kOJEgLp8fKZ2aZ+eaK6
ihpc1bDmChQI6ig9MT1m3AT3a44Uo25Ltdtx2N06qhxVezbinP1+75ytZCbGMflB
HDDyxSUJog6sWc59h9lCsr3CZP9uIvFUj6I7+zGWIhdfrfwAhaFGJfDZBnZ4R7EH
o4AQuj+UNYPxbca8zO/0E7p9iZgUWVZBktncCeP/Q/O96CsQbYhdH6guZmPYj7RL
5Lr9y5He8PFZesEXyZ29lZ1fpL2HFmT2hPE0TKqxfL5T9ykgY3VYVrHU8pO86TEA
7PFPTdgyFd907a83BOwoj/6EZQSqZ5+uC9FNZQWNG2wq/49mkVbVIbjF3X5iTWO2
Q95hRC+k26tqZFqCE8m/z85ZE8BZWEQGzQ5sZsUD/Mw0RopBv3ckj0Mod5AF1dVa
aOseJQJK99sSF+UKgcldzgs76ZUU7FVfhZ/B4VGqKByQjluGrfE1sPrzaPd7yTGy
ZozspsQDyUaFkYkXGcgswA5T0fR1fJyX4HXXJ+tViblYfkZruPxq+xzZQwYg7/LQ
wmKMmwZE/XOcmC8eau6DA5Fs2NoTwXALqjnPPXLU+AWLeqOYzuPP6c8iYKY=
-----END CERTIFICATE-----
