Certificate:
    Data:
        Version: 3 (0x2)
        Serial Number: 438 (0x1b6)
    Signature Algorithm: sha1WithRSAEncryption
        Issuer: C=US, ST=CA, L=SanFrancisco, O=Pixglo, Inc., OU=VPN-CIE, CN=tunnel.pixglo.com/name=Bala Chandrasekaran/emailAddress=bala@pixglo.com
        Validity
            Not Before: Feb 14 06:34:04 2018 GMT
            Not After : Feb 12 06:34:04 2028 GMT
        Subject: C=US, ST=CA, L=SanFrancisco, O=Pixglo, Inc., OU=VPN-CIE, CN=cie437/name=Bala Chandrasekaran/emailAddress=bala@pixglo.com
        Subject Public Key Info:
            Public Key Algorithm: rsaEncryption
                Public-Key: (4096 bit)
                Modulus:
                    00:e3:b0:5f:01:6f:de:57:9f:19:f4:4d:49:c3:10:
                    11:54:60:b0:ff:56:cb:b7:ee:cb:4f:a7:a8:6a:19:
                    73:22:c7:2b:ad:42:5a:ad:33:6d:91:00:a0:c8:fb:
                    db:33:6d:63:ba:f9:12:d2:3a:03:a8:9b:9a:67:67:
                    78:b5:86:64:84:a0:c4:05:a7:57:46:bd:b6:1a:f2:
                    62:1f:53:fe:de:1d:cc:e0:96:66:d3:51:98:8a:cc:
                    8d:b3:b3:fe:f9:e3:27:b3:32:c6:da:8a:b9:40:65:
                    e8:86:28:07:80:27:fb:35:33:f4:c1:9c:1d:ab:40:
                    c6:c2:d0:7e:44:b1:92:90:f4:92:44:23:a5:f8:4f:
                    1d:bf:98:cc:00:76:3d:a5:09:75:64:e7:a5:a3:cd:
                    79:35:23:a4:30:67:37:16:c2:6c:e9:10:a2:ab:4d:
                    45:08:50:96:9a:7e:26:d7:33:d7:22:ef:8d:5f:53:
                    b6:bc:95:88:f9:92:42:39:37:83:65:3a:78:f6:5d:
                    5e:a9:83:65:30:7e:a7:90:b3:03:64:e0:61:a8:43:
                    fe:90:a3:20:6b:2e:51:bc:3b:ac:40:c6:9c:6d:e5:
                    18:a0:73:f9:dd:17:38:a5:0d:b7:28:e1:9b:f5:27:
                    5e:c8:16:83:26:3b:ff:b8:e2:a4:13:ca:6f:da:f9:
                    ca:9e:44:15:71:04:bd:ce:d1:32:b2:54:82:e4:08:
                    74:48:10:e0:7c:03:f9:4c:64:5f:84:65:87:e7:b9:
                    ce:0e:1a:05:e4:80:40:12:8e:1b:f8:dc:6a:2d:e8:
                    bd:59:46:c5:d9:f4:43:6c:70:24:ea:b9:75:40:f9:
                    35:79:08:96:f0:b8:3d:0b:c7:c3:b1:81:21:87:1d:
                    7f:81:2a:fe:10:3f:44:28:42:76:03:7a:10:88:48:
                    92:bf:ac:8d:4d:6b:9d:bc:fe:6b:ea:47:bc:05:05:
                    3f:67:7e:63:4a:72:d0:dd:fe:57:29:34:6a:ff:c4:
                    3d:0f:b8:4c:aa:66:9f:4a:bf:81:5f:9e:6b:a5:7a:
                    d8:48:85:e5:26:15:dd:55:ee:83:0c:e0:03:c4:92:
                    7a:45:34:ba:80:4e:f3:22:41:1c:56:3e:be:52:64:
                    c3:5a:4b:b3:a4:f6:56:c0:99:65:27:be:35:fb:d6:
                    5f:f9:79:b1:ce:63:c0:17:15:0a:4a:19:60:c2:6b:
                    f5:44:06:37:5f:47:cf:b8:bf:17:34:48:64:f7:89:
                    33:f5:06:69:5f:a0:9b:38:9e:cd:b6:c7:41:d1:4d:
                    c7:64:a9:5d:66:9e:98:17:b5:a1:ba:2d:ad:3f:8c:
                    c9:5d:75:dc:73:01:da:db:ed:a1:7b:9d:99:d4:aa:
                    60:b1:5b
                Exponent: 65537 (0x10001)
        X509v3 extensions:
            X509v3 Basic Constraints: 
                CA:FALSE
            Netscape Comment: 
                Easy-RSA Generated Certificate
            X509v3 Subject Key Identifier: 
                2D:70:D7:B7:2D:02:3E:5A:FE:DF:60:1D:84:B2:81:A4:A1:04:E4:6A
            X509v3 Authority Key Identifier: 
                keyid:EF:38:8D:14:50:58:A7:5B:4D:9C:17:72:FC:DF:B9:AC:A7:51:B0:10
                DirName:/C=US/ST=CA/L=SanFrancisco/O=Pixglo, Inc./OU=VPN-CIE/CN=tunnel.pixglo.com/name=Bala Chandrasekaran/emailAddress=bala@pixglo.com
                serial:A6:DB:C6:83:80:E6:A0:79

            X509v3 Extended Key Usage: 
                TLS Web Client Authentication
            X509v3 Key Usage: 
                Digital Signature
    Signature Algorithm: sha1WithRSAEncryption
         19:27:1c:69:b4:38:7c:ca:bf:ba:09:3c:6b:9d:75:72:a7:b5:
         59:98:57:eb:6e:8c:16:48:dc:58:2d:a5:b8:42:bd:65:71:fb:
         a3:e7:3c:f2:f1:bc:d6:f8:1b:f4:c9:de:dc:43:f1:78:24:f2:
         e2:fc:1e:fd:56:21:9b:5c:3e:5d:f3:b5:9d:a1:8b:d7:3c:65:
         b6:78:cf:d1:9b:62:79:b8:9d:f3:1a:c7:59:ca:e9:0e:d9:19:
         22:18:18:fb:9f:b1:cb:d9:a3:2c:1a:7e:61:6e:65:94:12:c6:
         15:c8:fd:e9:2a:6f:5f:dc:29:c6:91:a9:76:7f:43:b0:13:5d:
         01:58:7b:ff:78:97:10:56:33:00:e0:8e:6b:89:e6:88:ee:0c:
         6c:5c:c4:1e:b0:9a:3d:54:6c:51:c1:cc:ad:62:b7:6d:4e:d4:
         ea:58:6c:0f:26:16:f0:fd:30:7d:b2:e2:26:af:e2:ae:ac:f7:
         8e:c1:7e:67:9d:3b:31:43:b3:c5:03:81:6e:e1:bb:d8:fc:34:
         fe:43:5f:57:c9:8a:42:4f:be:15:1e:c2:49:0c:9c:e7:cd:08:
         21:26:ac:be:05:76:03:9d:4f:22:97:ca:bc:bb:43:12:ec:a2:
         0a:1b:d0:fd:65:4f:dd:59:91:54:84:f0:09:49:93:26:4e:58:
         42:69:dd:29:9f:ad:7a:49:13:ac:b0:fe:21:b7:79:ef:fd:cf:
         79:84:61:46:2b:2f:ec:1e:ac:e1:de:75:b3:b7:00:4f:75:91:
         e9:65:dd:50:7b:7d:74:40:74:c2:54:f0:13:51:3e:fa:82:b6:
         aa:db:e1:f8:2f:77:5f:ef:ad:76:e1:25:a9:96:ef:76:ef:83:
         5a:1d:94:71:c4:65:89:1d:f2:31:2a:33:49:00:bb:fd:f8:4a:
         de:f8:89:e0:3c:44:01:0a:46:bc:48:0a:95:b5:a2:96:42:86:
         db:21:20:12:c9:3d:5b:cb:6b:b7:7b:0b:b3:72:68:75:0e:16:
         23:2f:cb:36:0e:93:e5:21:9d:67:ba:31:ba:7d:f4:fa:9c:e0:
         b4:67:97:8d:96:95:be:ef:fe:65:4f:c4:f2:79:77:bc:f3:1d:
         7d:b7:e9:62:1a:2b:ae:ac:87:29:09:41:64:7c:c7:d1:0c:17:
         b1:59:72:eb:c7:8e:f8:4d:b6:59:44:99:d8:1c:38:e7:67:32:
         ab:3f:71:32:9f:f7:61:26:fd:ca:26:09:97:1a:c2:f0:39:53:
         72:e1:d3:cc:6c:d5:3a:81:47:33:28:f9:eb:63:0d:a6:d5:90:
         03:a4:4e:ea:85:c7:08:81:d5:2b:7d:aa:55:d4:72:ad:42:f2:
         51:6e:fa:01:c2:fb:3e:bb
-----BEGIN CERTIFICATE-----
MIIHSDCCBTCgAwIBAgICAbYwDQYJKoZIhvcNAQEFBQAwgbQxCzAJBgNVBAYTAlVT
MQswCQYDVQQIEwJDQTEVMBMGA1UEBxMMU2FuRnJhbmNpc2NvMRUwEwYDVQQKEwxQ
aXhnbG8sIEluYy4xEDAOBgNVBAsTB1ZQTi1DSUUxGjAYBgNVBAMTEXR1bm5lbC5w
aXhnbG8uY29tMRwwGgYDVQQpExNCYWxhIENoYW5kcmFzZWthcmFuMR4wHAYJKoZI
hvcNAQkBFg9iYWxhQHBpeGdsby5jb20wHhcNMTgwMjE0MDYzNDA0WhcNMjgwMjEy
MDYzNDA0WjCBqTELMAkGA1UEBhMCVVMxCzAJBgNVBAgTAkNBMRUwEwYDVQQHEwxT
YW5GcmFuY2lzY28xFTATBgNVBAoTDFBpeGdsbywgSW5jLjEQMA4GA1UECxMHVlBO
LUNJRTEPMA0GA1UEAxMGY2llNDM3MRwwGgYDVQQpExNCYWxhIENoYW5kcmFzZWth
cmFuMR4wHAYJKoZIhvcNAQkBFg9iYWxhQHBpeGdsby5jb20wggIiMA0GCSqGSIb3
DQEBAQUAA4ICDwAwggIKAoICAQDjsF8Bb95Xnxn0TUnDEBFUYLD/Vsu37stPp6hq
GXMixyutQlqtM22RAKDI+9szbWO6+RLSOgOom5pnZ3i1hmSEoMQFp1dGvbYa8mIf
U/7eHczglmbTUZiKzI2zs/754yezMsbairlAZeiGKAeAJ/s1M/TBnB2rQMbC0H5E
sZKQ9JJEI6X4Tx2/mMwAdj2lCXVk56WjzXk1I6QwZzcWwmzpEKKrTUUIUJaafibX
M9ci741fU7a8lYj5kkI5N4NlOnj2XV6pg2UwfqeQswNk4GGoQ/6QoyBrLlG8O6xA
xpxt5Rigc/ndFzilDbco4Zv1J17IFoMmO/+44qQTym/a+cqeRBVxBL3O0TKyVILk
CHRIEOB8A/lMZF+EZYfnuc4OGgXkgEASjhv43Got6L1ZRsXZ9ENscCTquXVA+TV5
CJbwuD0Lx8OxgSGHHX+BKv4QP0QoQnYDehCISJK/rI1Na528/mvqR7wFBT9nfmNK
ctDd/lcpNGr/xD0PuEyqZp9Kv4FfnmulethIheUmFd1V7oMM4APEknpFNLqATvMi
QRxWPr5SZMNaS7Ok9lbAmWUnvjX71l/5ebHOY8AXFQpKGWDCa/VEBjdfR8+4vxc0
SGT3iTP1BmlfoJs4ns22x0HRTcdkqV1mnpgXtaG6La0/jMldddxzAdrb7aF7nZnU
qmCxWwIDAQABo4IBazCCAWcwCQYDVR0TBAIwADAtBglghkgBhvhCAQ0EIBYeRWFz
eS1SU0EgR2VuZXJhdGVkIENlcnRpZmljYXRlMB0GA1UdDgQWBBQtcNe3LQI+Wv7f
YB2EsoGkoQTkajCB6QYDVR0jBIHhMIHegBTvOI0UUFinW02cF3L837msp1GwEKGB
uqSBtzCBtDELMAkGA1UEBhMCVVMxCzAJBgNVBAgTAkNBMRUwEwYDVQQHEwxTYW5G
cmFuY2lzY28xFTATBgNVBAoTDFBpeGdsbywgSW5jLjEQMA4GA1UECxMHVlBOLUNJ
RTEaMBgGA1UEAxMRdHVubmVsLnBpeGdsby5jb20xHDAaBgNVBCkTE0JhbGEgQ2hh
bmRyYXNla2FyYW4xHjAcBgkqhkiG9w0BCQEWD2JhbGFAcGl4Z2xvLmNvbYIJAKbb
xoOA5qB5MBMGA1UdJQQMMAoGCCsGAQUFBwMCMAsGA1UdDwQEAwIHgDANBgkqhkiG
9w0BAQUFAAOCAgEAGSccabQ4fMq/ugk8a511cqe1WZhX626MFkjcWC2luEK9ZXH7
o+c88vG81vgb9Mne3EPxeCTy4vwe/VYhm1w+XfO1naGL1zxltnjP0Ztiebid8xrH
WcrpDtkZIhgY+5+xy9mjLBp+YW5llBLGFcj96SpvX9wpxpGpdn9DsBNdAVh7/3iX
EFYzAOCOa4nmiO4MbFzEHrCaPVRsUcHMrWK3bU7U6lhsDyYW8P0wfbLiJq/irqz3
jsF+Z507MUOzxQOBbuG72Pw0/kNfV8mKQk++FR7CSQyc580IISasvgV2A51PIpfK
vLtDEuyiChvQ/WVP3VmRVITwCUmTJk5YQmndKZ+tekkTrLD+Ibd57/3PeYRhRisv
7B6s4d51s7cAT3WR6WXdUHt9dEB0wlTwE1E++oK2qtvh+C93X++tduElqZbvdu+D
Wh2UccRliR3yMSozSQC7/fhK3viJ4DxEAQpGvEgKlbWilkKG2yEgEsk9W8trt3sL
s3JodQ4WIy/LNg6T5SGdZ7oxun30+pzgtGeXjZaVvu/+ZU/E8nl3vPMdfbfpYhor
rqyHKQlBZHzH0QwXsVly68eO+E22WUSZ2Bw452cyqz9xMp/3YSb9yiYJlxrC8DlT
cuHTzGzVOoFHMyj562MNptWQA6RO6oXHCIHVK32qVdRyrULyUW76AcL7Prs=
-----END CERTIFICATE-----
