Certificate:
    Data:
        Version: 3 (0x2)
        Serial Number: 439 (0x1b7)
    Signature Algorithm: sha1WithRSAEncryption
        Issuer: C=US, ST=CA, L=SanFrancisco, O=Pixglo, Inc., OU=VPN-CIE, CN=tunnel.pixglo.com/name=Bala Chandrasekaran/emailAddress=bala@pixglo.com
        Validity
            Not Before: Feb 14 06:34:05 2018 GMT
            Not After : Feb 12 06:34:05 2028 GMT
        Subject: C=US, ST=CA, L=SanFrancisco, O=Pixglo, Inc., OU=VPN-CIE, CN=cie438/name=Bala Chandrasekaran/emailAddress=bala@pixglo.com
        Subject Public Key Info:
            Public Key Algorithm: rsaEncryption
                Public-Key: (4096 bit)
                Modulus:
                    00:af:0d:13:24:e5:64:66:11:d1:b1:49:84:da:a6:
                    ba:db:30:66:f9:36:4c:c3:64:93:b8:d9:23:63:f1:
                    af:5b:2f:ba:e9:c4:05:32:6c:82:c0:27:e8:ee:bd:
                    bf:ed:35:f2:27:01:26:86:95:15:6d:3c:5d:ce:14:
                    50:66:6a:eb:ed:f6:57:a7:ce:2c:3e:d8:08:e7:00:
                    b4:90:fa:be:d8:39:aa:c3:29:7c:d8:e3:8f:f8:01:
                    09:42:a5:93:d0:e6:03:b2:75:7b:de:1c:0a:e2:82:
                    20:e0:db:98:bf:ee:c3:42:b2:bd:a5:85:3a:69:67:
                    d4:32:6d:00:96:5a:80:56:df:f6:22:15:0f:66:9f:
                    94:da:22:1e:39:83:8e:bc:d3:4c:ca:56:a3:7d:42:
                    ff:8e:7e:80:e4:d7:3b:64:58:74:a0:76:ce:9f:a3:
                    6d:63:bb:7c:56:b7:13:66:fe:36:96:c8:77:db:dd:
                    a3:6a:c5:bb:d1:a8:d9:0b:0f:21:fe:9f:72:fc:8e:
                    79:09:80:b8:ed:28:40:ca:7b:5f:b4:f9:af:d7:5f:
                    44:d4:0b:b8:4b:96:64:d5:9c:cb:98:2a:34:cb:2b:
                    74:c7:83:b7:58:c0:b2:b5:84:af:13:bc:b3:cb:6e:
                    43:f9:7c:15:a9:48:4f:be:f9:f2:4d:83:c8:35:18:
                    2b:4e:36:66:f9:d3:e9:a7:30:63:71:69:b6:0a:b0:
                    bf:94:d9:10:b4:0a:16:d4:b9:54:7e:ee:ce:62:4a:
                    7a:f0:ef:3a:10:b8:82:f4:2a:c5:08:34:94:e9:b6:
                    84:5e:c8:91:3b:aa:b4:f0:23:96:ad:71:9f:66:f3:
                    23:aa:49:bd:84:cd:9f:14:64:c0:25:19:b6:c2:ad:
                    56:fa:be:42:58:4a:73:1f:70:41:b6:3a:8f:0e:ca:
                    66:9e:c0:55:40:54:1f:61:92:aa:41:e6:3d:e1:1f:
                    fd:be:84:98:f6:a2:b7:8e:f5:54:1c:12:cb:95:d5:
                    8a:4c:fb:b7:af:cb:6e:53:5d:99:8d:7a:fe:cb:36:
                    9d:89:7d:ae:eb:1d:68:e0:2a:b7:ad:6a:31:07:d6:
                    c9:20:2f:af:95:c7:76:1f:ed:0f:71:1f:39:39:5d:
                    aa:4a:83:55:42:c1:39:8a:b8:85:0a:7f:b9:68:77:
                    a5:a0:e7:6c:16:54:62:57:20:ef:aa:f3:19:96:93:
                    f0:bb:de:9b:aa:78:75:a9:bb:de:35:16:2c:bf:be:
                    4b:d2:66:58:f3:7d:f8:8a:86:92:01:9a:ea:0d:f1:
                    e0:f5:4e:26:92:80:13:3c:79:9c:f3:ca:e3:8c:12:
                    d1:05:d5:fb:8e:90:d8:59:7d:6c:0c:16:6d:ce:67:
                    d3:fb:97
                Exponent: 65537 (0x10001)
        X509v3 extensions:
            X509v3 Basic Constraints: 
                CA:FALSE
            Netscape Comment: 
                Easy-RSA Generated Certificate
            X509v3 Subject Key Identifier: 
                00:46:49:FC:B1:2D:87:F0:7F:78:02:3B:1F:CC:9A:A8:85:68:EA:70
            X509v3 Authority Key Identifier: 
                keyid:EF:38:8D:14:50:58:A7:5B:4D:9C:17:72:FC:DF:B9:AC:A7:51:B0:10
                DirName:/C=US/ST=CA/L=SanFrancisco/O=Pixglo, Inc./OU=VPN-CIE/CN=tunnel.pixglo.com/name=Bala Chandrasekaran/emailAddress=bala@pixglo.com
                serial:A6:DB:C6:83:80:E6:A0:79

            X509v3 Extended Key Usage: 
                TLS Web Client Authentication
            X509v3 Key Usage: 
                Digital Signature
    Signature Algorithm: sha1WithRSAEncryption
         3c:23:88:f1:cf:e9:fc:cd:dc:f8:2e:d4:41:2c:7e:77:9f:cd:
         d6:3f:f2:a7:f8:b8:2d:d4:4b:5d:13:8a:08:89:80:b0:7c:d7:
         09:18:55:8d:cf:97:09:ba:a7:85:e5:33:2d:8a:03:c1:d8:77:
         60:66:2b:39:28:92:d6:32:5e:7d:cc:19:fd:c2:b9:29:66:36:
         97:97:0b:91:78:b3:21:67:89:c1:16:bb:c9:36:c2:3e:00:76:
         a2:61:7e:26:18:40:dc:5d:9e:7a:e2:93:3a:11:fa:9c:3d:04:
         ad:9d:2f:a7:19:3d:77:c4:79:0d:e5:f2:bd:ba:6c:6c:c4:7b:
         11:c1:50:83:14:bf:ad:28:1d:46:43:5d:d4:f9:74:0e:d4:7c:
         28:87:ff:35:0e:23:b6:42:41:fa:5f:12:59:5f:0a:4b:ea:11:
         9e:ad:9b:dc:60:fa:b1:57:2a:90:d4:50:70:75:eb:f5:13:46:
         b3:a9:d9:a7:32:75:52:cf:b0:ea:d4:ee:9a:cb:69:f8:d1:b5:
         e2:7f:56:a9:39:93:f9:b2:ff:26:4d:a4:62:1c:63:ac:40:75:
         18:04:8c:59:22:4b:21:36:3d:27:87:b1:7d:3d:49:04:d8:27:
         97:78:2f:ad:03:f7:c4:dd:4f:44:03:9a:16:c1:64:05:61:21:
         3e:77:01:0b:f5:69:35:fa:84:b1:c6:1f:64:fa:f1:b3:6c:80:
         5e:ec:6a:6e:8b:f3:00:d8:3f:ee:14:f1:70:13:53:82:13:ab:
         c8:ad:9a:cd:12:a7:3f:63:79:cd:93:64:48:62:74:ac:64:64:
         79:ae:52:20:a5:9f:8b:cf:b9:a3:17:6f:16:0f:27:66:a2:af:
         0b:10:e1:f1:0a:7d:b7:84:b8:81:b1:10:19:0b:1d:cb:8f:3f:
         6d:aa:94:9f:6b:a3:24:ee:31:81:1d:09:97:2a:94:ea:cd:5f:
         60:da:5d:4b:b9:64:bd:b0:7d:9a:c5:e0:59:13:b7:2a:39:52:
         ba:fa:9f:4c:f8:70:92:b2:07:56:98:d7:3f:04:14:14:e7:66:
         10:5f:4d:56:df:eb:57:c4:3a:23:7b:a1:12:d0:d4:f3:ba:ed:
         3d:d1:88:9f:ac:4d:68:59:cd:ce:ba:34:4c:2d:83:9a:f9:5b:
         cd:0e:02:3b:b8:71:06:c4:4d:00:6c:03:65:6d:46:05:60:a1:
         de:a5:be:79:b1:09:71:9a:09:e3:a7:85:4d:c6:4d:c8:85:ca:
         25:3d:c3:a0:34:55:33:ec:56:61:78:ba:44:eb:be:63:11:3c:
         7d:d2:5b:07:e1:94:43:f9:9b:15:eb:c0:d5:dd:9a:e5:fb:7f:
         c6:cc:66:5a:1f:d3:d2:ce
-----BEGIN CERTIFICATE-----
MIIHSDCCBTCgAwIBAgICAbcwDQYJKoZIhvcNAQEFBQAwgbQxCzAJBgNVBAYTAlVT
MQswCQYDVQQIEwJDQTEVMBMGA1UEBxMMU2FuRnJhbmNpc2NvMRUwEwYDVQQKEwxQ
aXhnbG8sIEluYy4xEDAOBgNVBAsTB1ZQTi1DSUUxGjAYBgNVBAMTEXR1bm5lbC5w
aXhnbG8uY29tMRwwGgYDVQQpExNCYWxhIENoYW5kcmFzZWthcmFuMR4wHAYJKoZI
hvcNAQkBFg9iYWxhQHBpeGdsby5jb20wHhcNMTgwMjE0MDYzNDA1WhcNMjgwMjEy
MDYzNDA1WjCBqTELMAkGA1UEBhMCVVMxCzAJBgNVBAgTAkNBMRUwEwYDVQQHEwxT
YW5GcmFuY2lzY28xFTATBgNVBAoTDFBpeGdsbywgSW5jLjEQMA4GA1UECxMHVlBO
LUNJRTEPMA0GA1UEAxMGY2llNDM4MRwwGgYDVQQpExNCYWxhIENoYW5kcmFzZWth
cmFuMR4wHAYJKoZIhvcNAQkBFg9iYWxhQHBpeGdsby5jb20wggIiMA0GCSqGSIb3
DQEBAQUAA4ICDwAwggIKAoICAQCvDRMk5WRmEdGxSYTaprrbMGb5NkzDZJO42SNj
8a9bL7rpxAUybILAJ+juvb/tNfInASaGlRVtPF3OFFBmauvt9lenziw+2AjnALSQ
+r7YOarDKXzY44/4AQlCpZPQ5gOydXveHArigiDg25i/7sNCsr2lhTppZ9QybQCW
WoBW3/YiFQ9mn5TaIh45g46800zKVqN9Qv+OfoDk1ztkWHSgds6fo21ju3xWtxNm
/jaWyHfb3aNqxbvRqNkLDyH+n3L8jnkJgLjtKEDKe1+0+a/XX0TUC7hLlmTVnMuY
KjTLK3THg7dYwLK1hK8TvLPLbkP5fBWpSE+++fJNg8g1GCtONmb50+mnMGNxabYK
sL+U2RC0ChbUuVR+7s5iSnrw7zoQuIL0KsUINJTptoReyJE7qrTwI5atcZ9m8yOq
Sb2EzZ8UZMAlGbbCrVb6vkJYSnMfcEG2Oo8OymaewFVAVB9hkqpB5j3hH/2+hJj2
oreO9VQcEsuV1YpM+7evy25TXZmNev7LNp2Jfa7rHWjgKretajEH1skgL6+Vx3Yf
7Q9xHzk5XapKg1VCwTmKuIUKf7lod6Wg52wWVGJXIO+q8xmWk/C73puqeHWpu941
Fiy/vkvSZljzffiKhpIBmuoN8eD1TiaSgBM8eZzzyuOMEtEF1fuOkNhZfWwMFm3O
Z9P7lwIDAQABo4IBazCCAWcwCQYDVR0TBAIwADAtBglghkgBhvhCAQ0EIBYeRWFz
eS1SU0EgR2VuZXJhdGVkIENlcnRpZmljYXRlMB0GA1UdDgQWBBQARkn8sS2H8H94
AjsfzJqohWjqcDCB6QYDVR0jBIHhMIHegBTvOI0UUFinW02cF3L837msp1GwEKGB
uqSBtzCBtDELMAkGA1UEBhMCVVMxCzAJBgNVBAgTAkNBMRUwEwYDVQQHEwxTYW5G
cmFuY2lzY28xFTATBgNVBAoTDFBpeGdsbywgSW5jLjEQMA4GA1UECxMHVlBOLUNJ
RTEaMBgGA1UEAxMRdHVubmVsLnBpeGdsby5jb20xHDAaBgNVBCkTE0JhbGEgQ2hh
bmRyYXNla2FyYW4xHjAcBgkqhkiG9w0BCQEWD2JhbGFAcGl4Z2xvLmNvbYIJAKbb
xoOA5qB5MBMGA1UdJQQMMAoGCCsGAQUFBwMCMAsGA1UdDwQEAwIHgDANBgkqhkiG
9w0BAQUFAAOCAgEAPCOI8c/p/M3c+C7UQSx+d5/N1j/yp/i4LdRLXROKCImAsHzX
CRhVjc+XCbqnheUzLYoDwdh3YGYrOSiS1jJefcwZ/cK5KWY2l5cLkXizIWeJwRa7
yTbCPgB2omF+JhhA3F2eeuKTOhH6nD0ErZ0vpxk9d8R5DeXyvbpsbMR7EcFQgxS/
rSgdRkNd1Pl0DtR8KIf/NQ4jtkJB+l8SWV8KS+oRnq2b3GD6sVcqkNRQcHXr9RNG
s6nZpzJ1Us+w6tTumstp+NG14n9WqTmT+bL/Jk2kYhxjrEB1GASMWSJLITY9J4ex
fT1JBNgnl3gvrQP3xN1PRAOaFsFkBWEhPncBC/VpNfqEscYfZPrxs2yAXuxqbovz
ANg/7hTxcBNTghOryK2azRKnP2N5zZNkSGJ0rGRkea5SIKWfi8+5oxdvFg8nZqKv
CxDh8Qp9t4S4gbEQGQsdy48/baqUn2ujJO4xgR0JlyqU6s1fYNpdS7lkvbB9msXg
WRO3KjlSuvqfTPhwkrIHVpjXPwQUFOdmEF9NVt/rV8Q6I3uhEtDU87rtPdGIn6xN
aFnNzro0TC2DmvlbzQ4CO7hxBsRNAGwDZW1GBWCh3qW+ebEJcZoJ46eFTcZNyIXK
JT3DoDRVM+xWYXi6ROu+YxE8fdJbB+GUQ/mbFevA1d2a5ft/xsxmWh/T0s4=
-----END CERTIFICATE-----
