Certificate:
    Data:
        Version: 3 (0x2)
        Serial Number: 441 (0x1b9)
    Signature Algorithm: sha1WithRSAEncryption
        Issuer: C=US, ST=CA, L=SanFrancisco, O=Pixglo, Inc., OU=VPN-CIE, CN=tunnel.pixglo.com/name=Bala Chandrasekaran/emailAddress=bala@pixglo.com
        Validity
            Not Before: Feb 14 06:34:08 2018 GMT
            Not After : Feb 12 06:34:08 2028 GMT
        Subject: C=US, ST=CA, L=SanFrancisco, O=Pixglo, Inc., OU=VPN-CIE, CN=cie440/name=Bala Chandrasekaran/emailAddress=bala@pixglo.com
        Subject Public Key Info:
            Public Key Algorithm: rsaEncryption
                Public-Key: (4096 bit)
                Modulus:
                    00:a2:5e:89:7e:35:8e:bd:fe:5d:96:ec:6c:db:37:
                    49:d4:c5:a4:8d:ba:93:52:34:27:00:19:96:68:23:
                    28:24:2c:ea:28:b9:33:90:04:2d:ff:b7:e0:8d:5f:
                    43:58:bb:61:36:c4:c4:a4:39:ee:43:2d:61:fd:0a:
                    02:7f:7d:ee:d0:0d:c7:f6:70:db:15:37:01:f8:04:
                    bb:78:f9:70:ce:28:2c:53:95:c9:f2:21:4c:9c:6a:
                    34:d7:a4:e8:7b:6d:7f:b0:45:6d:af:03:d3:2f:f8:
                    29:df:6f:06:0d:45:47:3f:9c:1a:1d:bd:9d:46:1c:
                    42:97:e9:99:d8:2e:36:74:ac:6d:9d:78:41:19:99:
                    bf:d5:3a:26:2d:a7:37:c3:dd:dd:4a:14:a7:65:9b:
                    e8:07:f1:f8:aa:02:e0:3f:00:1d:f3:46:9d:c5:d8:
                    b5:48:92:58:03:4e:4d:bc:eb:c3:96:00:16:38:70:
                    b8:2b:f6:ef:30:1a:21:25:ff:02:b8:79:9a:a7:71:
                    2e:38:c9:5b:18:e0:23:c4:9b:3a:07:0c:5c:6e:bb:
                    60:1f:da:1d:aa:dd:d6:f5:26:f2:af:c3:9e:4e:a4:
                    a8:b4:37:2d:70:d2:d3:08:86:f2:7e:f5:d1:ce:b3:
                    7a:43:83:83:38:ae:7a:25:14:c7:c5:25:3e:92:b3:
                    2f:98:19:6c:79:95:3c:4b:57:9c:d5:a9:0d:83:d7:
                    40:c8:0b:a7:2f:3f:7d:f9:e2:ed:f4:6c:ca:90:fd:
                    b5:85:c0:7f:c7:1b:cc:5b:43:e2:4c:9c:4f:77:7f:
                    f1:bf:ba:50:1c:ce:38:15:59:03:e6:57:78:51:d7:
                    39:82:25:02:46:37:c6:65:8d:df:85:64:07:34:ca:
                    48:84:2b:95:70:81:1a:36:2f:3b:9b:07:9b:bc:c8:
                    3a:e6:24:cd:ee:97:da:72:2c:96:ef:e3:e0:df:f5:
                    71:5e:72:e6:ce:0d:0d:fa:45:98:a9:35:17:6b:64:
                    b9:10:29:57:2e:cc:cb:99:d9:b2:e0:12:1e:eb:e0:
                    43:62:6d:99:e6:53:c8:e8:9d:f4:e9:90:eb:bf:45:
                    fb:3d:18:7a:43:8f:a4:d8:25:2a:cf:f6:30:57:08:
                    b8:ff:53:ed:f3:02:fa:1e:95:18:bd:b0:c8:1c:c8:
                    5a:53:f6:df:c7:a9:90:58:39:6a:e4:14:a7:71:04:
                    f7:81:89:ff:01:69:b6:3d:ba:8c:47:3f:58:ab:bd:
                    1e:88:84:40:d1:64:e7:0d:65:79:15:d8:9b:96:11:
                    5d:08:ef:18:98:d4:e8:cf:a3:10:33:9e:5b:61:c1:
                    68:7a:f8:f5:91:3f:c4:16:13:86:3c:f6:1b:02:e2:
                    34:d9:05
                Exponent: 65537 (0x10001)
        X509v3 extensions:
            X509v3 Basic Constraints: 
                CA:FALSE
            Netscape Comment: 
                Easy-RSA Generated Certificate
            X509v3 Subject Key Identifier: 
                DC:0E:6C:B6:BE:75:50:4D:BA:F7:01:C3:8B:7A:60:B4:B9:4D:E4:88
            X509v3 Authority Key Identifier: 
                keyid:EF:38:8D:14:50:58:A7:5B:4D:9C:17:72:FC:DF:B9:AC:A7:51:B0:10
                DirName:/C=US/ST=CA/L=SanFrancisco/O=Pixglo, Inc./OU=VPN-CIE/CN=tunnel.pixglo.com/name=Bala Chandrasekaran/emailAddress=bala@pixglo.com
                serial:A6:DB:C6:83:80:E6:A0:79

            X509v3 Extended Key Usage: 
                TLS Web Client Authentication
            X509v3 Key Usage: 
                Digital Signature
    Signature Algorithm: sha1WithRSAEncryption
         85:57:80:2c:f0:21:ae:f5:7c:d8:bc:11:10:c3:ab:90:57:40:
         6b:7f:00:69:8d:85:d4:d0:d7:a3:de:da:ff:18:bf:76:c4:eb:
         b9:ae:3e:49:33:02:3c:6c:2b:45:d4:28:bc:43:1d:ba:26:de:
         fd:bf:4e:d9:46:82:65:af:07:0d:3a:50:08:f6:b5:8b:b9:7f:
         e7:8e:2d:08:81:f2:e8:d7:09:20:08:2a:92:a6:3c:71:45:b8:
         91:58:8b:11:cb:66:b4:96:02:6c:71:f7:85:bf:09:7b:e6:0d:
         f0:f0:b0:d3:57:d0:00:78:1d:62:10:af:3f:07:37:93:c1:fa:
         d0:e5:b1:09:f6:15:84:05:11:23:6b:4b:c2:c0:86:82:f1:56:
         8f:59:80:51:1a:75:a2:6b:2d:a4:17:58:cd:ca:db:b9:8b:63:
         2f:4e:b8:95:b2:28:5e:c2:20:f3:cb:56:e1:25:e4:29:30:60:
         3a:74:4a:20:0c:7d:a3:6e:3c:f5:a5:b7:33:89:21:16:93:52:
         ab:5d:53:54:cf:ba:45:e8:ad:50:cc:4c:25:aa:30:6e:48:08:
         0e:75:0d:cc:13:4f:fe:ec:4d:5c:1c:6a:50:a9:a5:3e:b5:c2:
         48:69:6b:a1:ac:4c:cd:c8:6e:79:05:41:f1:7c:1f:21:cb:1a:
         20:82:24:9b:b7:b5:d9:bf:97:be:91:35:10:15:73:e1:45:36:
         a0:fd:1c:de:6a:ab:a7:da:7d:bb:3b:75:f0:29:1d:bd:cd:f6:
         70:3a:f4:db:30:28:4e:7a:f1:5b:68:65:ba:e1:c6:fb:dc:40:
         f6:d7:80:53:85:8e:37:cc:19:12:24:93:08:ee:3e:74:ec:1e:
         f8:14:45:09:57:1b:7c:b3:fd:96:0c:8e:d0:e0:d2:17:ca:a3:
         df:16:60:da:03:05:5a:1f:16:c6:1e:24:20:36:4f:fd:19:f5:
         6c:88:29:e8:63:9d:32:a4:df:17:c3:a2:30:bc:5d:af:b2:06:
         f4:c5:9d:f0:4a:e1:13:ca:b4:30:05:63:97:70:f4:a7:10:2f:
         52:46:d1:f9:f0:93:6b:26:86:70:0e:83:a5:a6:20:1a:3e:bb:
         7f:64:49:0a:00:d1:7d:dd:0a:e8:f2:b7:6e:b0:a0:7e:68:dd:
         4e:cd:d6:65:73:46:c5:65:78:45:ac:f6:87:48:37:0d:ae:41:
         62:08:4a:cd:62:52:6f:aa:74:61:c7:64:84:2b:09:8b:37:5f:
         77:07:1a:2d:1f:58:6b:ca:f2:25:0d:6a:e2:11:4c:33:a7:99:
         77:ae:75:bd:f0:91:1f:a1:77:7b:ce:2c:e2:c7:9a:f7:cc:c3:
         81:e3:54:d0:d6:bd:6a:b1
-----BEGIN CERTIFICATE-----
MIIHSDCCBTCgAwIBAgICAbkwDQYJKoZIhvcNAQEFBQAwgbQxCzAJBgNVBAYTAlVT
MQswCQYDVQQIEwJDQTEVMBMGA1UEBxMMU2FuRnJhbmNpc2NvMRUwEwYDVQQKEwxQ
aXhnbG8sIEluYy4xEDAOBgNVBAsTB1ZQTi1DSUUxGjAYBgNVBAMTEXR1bm5lbC5w
aXhnbG8uY29tMRwwGgYDVQQpExNCYWxhIENoYW5kcmFzZWthcmFuMR4wHAYJKoZI
hvcNAQkBFg9iYWxhQHBpeGdsby5jb20wHhcNMTgwMjE0MDYzNDA4WhcNMjgwMjEy
MDYzNDA4WjCBqTELMAkGA1UEBhMCVVMxCzAJBgNVBAgTAkNBMRUwEwYDVQQHEwxT
YW5GcmFuY2lzY28xFTATBgNVBAoTDFBpeGdsbywgSW5jLjEQMA4GA1UECxMHVlBO
LUNJRTEPMA0GA1UEAxMGY2llNDQwMRwwGgYDVQQpExNCYWxhIENoYW5kcmFzZWth
cmFuMR4wHAYJKoZIhvcNAQkBFg9iYWxhQHBpeGdsby5jb20wggIiMA0GCSqGSIb3
DQEBAQUAA4ICDwAwggIKAoICAQCiXol+NY69/l2W7GzbN0nUxaSNupNSNCcAGZZo
IygkLOoouTOQBC3/t+CNX0NYu2E2xMSkOe5DLWH9CgJ/fe7QDcf2cNsVNwH4BLt4
+XDOKCxTlcnyIUycajTXpOh7bX+wRW2vA9Mv+CnfbwYNRUc/nBodvZ1GHEKX6ZnY
LjZ0rG2deEEZmb/VOiYtpzfD3d1KFKdlm+gH8fiqAuA/AB3zRp3F2LVIklgDTk28
68OWABY4cLgr9u8wGiEl/wK4eZqncS44yVsY4CPEmzoHDFxuu2Af2h2q3db1JvKv
w55OpKi0Ny1w0tMIhvJ+9dHOs3pDg4M4rnolFMfFJT6Ssy+YGWx5lTxLV5zVqQ2D
10DIC6cvP3354u30bMqQ/bWFwH/HG8xbQ+JMnE93f/G/ulAczjgVWQPmV3hR1zmC
JQJGN8Zljd+FZAc0ykiEK5VwgRo2LzubB5u8yDrmJM3ul9pyLJbv4+Df9XFecubO
DQ36RZipNRdrZLkQKVcuzMuZ2bLgEh7r4ENibZnmU8jonfTpkOu/Rfs9GHpDj6TY
JSrP9jBXCLj/U+3zAvoelRi9sMgcyFpT9t/HqZBYOWrkFKdxBPeBif8BabY9uoxH
P1irvR6IhEDRZOcNZXkV2JuWEV0I7xiY1OjPoxAznlthwWh6+PWRP8QWE4Y89hsC
4jTZBQIDAQABo4IBazCCAWcwCQYDVR0TBAIwADAtBglghkgBhvhCAQ0EIBYeRWFz
eS1SU0EgR2VuZXJhdGVkIENlcnRpZmljYXRlMB0GA1UdDgQWBBTcDmy2vnVQTbr3
AcOLemC0uU3kiDCB6QYDVR0jBIHhMIHegBTvOI0UUFinW02cF3L837msp1GwEKGB
uqSBtzCBtDELMAkGA1UEBhMCVVMxCzAJBgNVBAgTAkNBMRUwEwYDVQQHEwxTYW5G
cmFuY2lzY28xFTATBgNVBAoTDFBpeGdsbywgSW5jLjEQMA4GA1UECxMHVlBOLUNJ
RTEaMBgGA1UEAxMRdHVubmVsLnBpeGdsby5jb20xHDAaBgNVBCkTE0JhbGEgQ2hh
bmRyYXNla2FyYW4xHjAcBgkqhkiG9w0BCQEWD2JhbGFAcGl4Z2xvLmNvbYIJAKbb
xoOA5qB5MBMGA1UdJQQMMAoGCCsGAQUFBwMCMAsGA1UdDwQEAwIHgDANBgkqhkiG
9w0BAQUFAAOCAgEAhVeALPAhrvV82LwREMOrkFdAa38AaY2F1NDXo97a/xi/dsTr
ua4+STMCPGwrRdQovEMduibe/b9O2UaCZa8HDTpQCPa1i7l/544tCIHy6NcJIAgq
kqY8cUW4kViLEctmtJYCbHH3hb8Je+YN8PCw01fQAHgdYhCvPwc3k8H60OWxCfYV
hAURI2tLwsCGgvFWj1mAURp1omstpBdYzcrbuYtjL064lbIoXsIg88tW4SXkKTBg
OnRKIAx9o2489aW3M4khFpNSq11TVM+6ReitUMxMJaowbkgIDnUNzBNP/uxNXBxq
UKmlPrXCSGlroaxMzchueQVB8XwfIcsaIIIkm7e12b+XvpE1EBVz4UU2oP0c3mqr
p9p9uzt18Ckdvc32cDr02zAoTnrxW2hluuHG+9xA9teAU4WON8wZEiSTCO4+dOwe
+BRFCVcbfLP9lgyO0ODSF8qj3xZg2gMFWh8Wxh4kIDZP/Rn1bIgp6GOdMqTfF8Oi
MLxdr7IG9MWd8ErhE8q0MAVjl3D0pxAvUkbR+fCTayaGcA6DpaYgGj67f2RJCgDR
fd0K6PK3brCgfmjdTs3WZXNGxWV4Raz2h0g3Da5BYghKzWJSb6p0YcdkhCsJizdf
dwcaLR9Ya8ryJQ1q4hFMM6eZd651vfCRH6F3e84s4sea98zDgeNU0Na9arE=
-----END CERTIFICATE-----
