Certificate:
    Data:
        Version: 3 (0x2)
        Serial Number: 443 (0x1bb)
    Signature Algorithm: sha1WithRSAEncryption
        Issuer: C=US, ST=CA, L=SanFrancisco, O=Pixglo, Inc., OU=VPN-CIE, CN=tunnel.pixglo.com/name=Bala Chandrasekaran/emailAddress=bala@pixglo.com
        Validity
            Not Before: Feb 14 06:34:10 2018 GMT
            Not After : Feb 12 06:34:10 2028 GMT
        Subject: C=US, ST=CA, L=SanFrancisco, O=Pixglo, Inc., OU=VPN-CIE, CN=cie442/name=Bala Chandrasekaran/emailAddress=bala@pixglo.com
        Subject Public Key Info:
            Public Key Algorithm: rsaEncryption
                Public-Key: (4096 bit)
                Modulus:
                    00:e0:a3:8c:0d:41:64:eb:47:ff:fd:54:20:f0:ac:
                    f9:08:d2:3c:57:dd:1e:a3:42:1f:05:a9:e3:b0:cc:
                    f1:0f:b5:34:8e:66:c2:25:1c:b9:68:12:3e:b5:a5:
                    90:cb:13:66:8b:fc:fe:ff:50:f3:a2:0a:26:19:92:
                    c6:dd:11:70:fc:4b:6c:fd:4c:16:13:ed:8c:4f:e3:
                    9e:6f:7f:9b:11:88:40:89:d1:83:b5:88:cf:b1:d5:
                    9a:0b:d3:e8:90:ef:86:fe:36:07:dd:94:5e:af:e3:
                    85:81:fe:79:5a:7b:b4:7a:e4:1d:50:2c:6d:47:77:
                    bc:c1:8b:63:d5:f0:2f:34:e8:36:aa:1a:20:27:01:
                    5c:93:9d:6e:b5:be:0e:be:db:e9:18:45:0b:0f:16:
                    5e:31:7f:93:fe:9c:fd:f5:43:da:cc:db:62:44:0b:
                    be:d4:16:f7:15:75:be:24:9c:33:b1:78:b4:f2:08:
                    d5:12:09:64:36:6e:d0:d5:e4:74:52:d5:73:db:1b:
                    d0:86:86:3f:35:ea:26:07:39:6d:62:a5:0a:7e:9d:
                    22:64:1e:35:ee:a8:2c:e2:66:11:a1:f9:07:c6:92:
                    ea:ae:7b:c0:1b:97:c0:fa:a2:46:32:20:ca:37:56:
                    75:9c:01:87:0b:39:6d:48:db:11:b5:ad:77:4c:72:
                    04:05:1a:ea:1c:8e:4c:57:a0:b4:51:56:5d:8f:4e:
                    e6:b9:db:fa:ab:d6:78:d0:1f:6c:67:a2:c8:2a:27:
                    c5:fd:23:7b:98:1d:ec:44:24:eb:7d:1d:25:d8:55:
                    a0:3b:2e:03:ac:48:9f:a0:7e:8f:d2:f2:d9:94:b7:
                    d7:36:10:78:d3:32:5a:2d:3a:ba:ef:c0:66:ad:ed:
                    84:5b:00:b1:d9:a8:7a:44:1c:b5:7a:ca:75:a3:1c:
                    91:22:c6:c6:a3:29:81:db:1f:6b:a2:92:33:f5:97:
                    28:f7:4c:34:b1:d7:63:dc:bf:ae:0b:93:ba:5e:6f:
                    1f:e7:58:bd:f3:8e:59:2a:00:1b:33:79:c5:5d:6d:
                    6c:d9:53:f7:32:37:5f:60:6c:19:a1:c1:77:92:bd:
                    06:7b:bb:c6:94:e9:e8:9a:f5:ad:96:38:c8:d5:65:
                    f8:0f:c7:7d:9d:e9:b9:c8:51:7f:31:55:26:3e:04:
                    56:cb:3d:4c:68:95:5a:62:1f:6a:7e:8f:93:4b:7a:
                    a2:13:d3:2a:f8:c9:7a:a7:7f:b9:85:d1:89:0c:b0:
                    35:ca:07:23:c4:df:1f:c5:2d:a5:49:f2:6e:00:30:
                    bf:67:fb:ef:04:5e:89:6d:3d:b9:5a:0a:8a:4d:27:
                    46:d0:1c:cc:4a:ad:aa:da:1c:04:df:73:41:31:b2:
                    42:3d:89
                Exponent: 65537 (0x10001)
        X509v3 extensions:
            X509v3 Basic Constraints: 
                CA:FALSE
            Netscape Comment: 
                Easy-RSA Generated Certificate
            X509v3 Subject Key Identifier: 
                D2:E8:C4:97:F1:24:8B:48:7E:8D:AB:00:31:E8:E1:98:87:E6:93:A0
            X509v3 Authority Key Identifier: 
                keyid:EF:38:8D:14:50:58:A7:5B:4D:9C:17:72:FC:DF:B9:AC:A7:51:B0:10
                DirName:/C=US/ST=CA/L=SanFrancisco/O=Pixglo, Inc./OU=VPN-CIE/CN=tunnel.pixglo.com/name=Bala Chandrasekaran/emailAddress=bala@pixglo.com
                serial:A6:DB:C6:83:80:E6:A0:79

            X509v3 Extended Key Usage: 
                TLS Web Client Authentication
            X509v3 Key Usage: 
                Digital Signature
    Signature Algorithm: sha1WithRSAEncryption
         29:03:e6:0a:53:11:80:68:7a:8c:72:ab:65:75:18:35:ba:34:
         df:22:c4:41:c1:b7:87:d7:c9:5a:73:67:83:56:e9:56:dc:60:
         af:92:15:68:d2:ff:6a:81:c5:1b:31:c2:e9:ea:00:55:b1:06:
         74:5d:98:64:c0:64:19:34:33:6d:17:fb:5a:d6:df:72:f7:6b:
         5c:6b:e7:40:d0:fd:ff:c2:44:96:74:f5:73:67:6b:2b:af:73:
         f4:53:e2:c1:5c:b8:d9:4a:14:87:8f:f6:21:e9:2e:55:47:6a:
         04:05:6c:97:58:50:fd:04:d6:77:b5:09:78:e8:99:e2:e3:5b:
         be:bf:81:88:a3:3f:d7:42:ca:2e:3a:91:69:ff:32:0e:ea:b7:
         91:5a:0c:74:cd:5b:83:17:68:93:dc:79:6c:a9:00:a8:42:ba:
         80:11:a7:a2:5f:bd:40:d4:80:b0:09:2e:01:35:dc:a6:e5:3c:
         12:39:dc:40:f7:d4:85:77:ab:cf:80:16:ff:ef:59:41:2d:93:
         23:5b:a3:83:d1:50:2d:31:b1:82:d1:02:5c:5f:24:5c:cf:53:
         41:a4:c9:f2:95:73:50:f6:f6:c2:76:22:6d:75:2f:cd:b1:7a:
         23:8f:5f:d8:1d:9a:ee:8e:01:af:6f:c2:62:20:ea:9a:46:0e:
         58:25:e8:04:1b:dd:23:eb:ce:67:09:76:f0:47:a1:73:11:05:
         ea:ef:bb:44:19:ad:08:05:b9:46:c6:2a:85:b7:74:eb:21:3c:
         2b:e3:aa:53:5e:02:72:6d:d2:fe:0b:51:cf:29:73:53:f8:5c:
         b2:ca:7d:f1:ea:cd:db:18:1d:48:20:1a:24:ce:3c:d5:d8:b8:
         2d:4c:b5:5d:4e:5b:c3:b9:b0:cb:05:53:0d:75:5f:20:6e:d7:
         da:dd:3f:34:9f:61:fc:54:c3:e2:9f:a8:4b:34:5a:cc:f1:b5:
         24:26:3f:5d:f3:72:42:46:cd:82:27:99:0f:c2:0a:83:46:a4:
         79:b3:6f:56:46:bf:19:56:bc:a5:f4:2c:ff:1f:2d:89:f2:c2:
         a7:be:cd:19:b8:6c:59:86:fd:f7:8c:3d:fc:f5:b9:b5:46:f8:
         01:cd:59:34:04:4a:ba:d0:e3:c6:02:f8:9f:15:67:1a:51:29:
         dc:c7:4c:f6:1a:ed:15:9c:9c:a2:91:04:58:0b:96:21:a1:d8:
         d8:17:a8:d3:85:85:2c:9c:df:c3:49:9b:cd:74:ea:87:70:7d:
         d9:fa:16:08:07:c6:54:00:aa:f9:ef:e2:f5:35:95:20:1d:72:
         ea:22:b3:79:49:87:16:cd:b2:5e:84:7a:06:31:3f:44:f6:24:
         27:fe:05:c0:8d:30:0c:1c
-----BEGIN CERTIFICATE-----
MIIHSDCCBTCgAwIBAgICAbswDQYJKoZIhvcNAQEFBQAwgbQxCzAJBgNVBAYTAlVT
MQswCQYDVQQIEwJDQTEVMBMGA1UEBxMMU2FuRnJhbmNpc2NvMRUwEwYDVQQKEwxQ
aXhnbG8sIEluYy4xEDAOBgNVBAsTB1ZQTi1DSUUxGjAYBgNVBAMTEXR1bm5lbC5w
aXhnbG8uY29tMRwwGgYDVQQpExNCYWxhIENoYW5kcmFzZWthcmFuMR4wHAYJKoZI
hvcNAQkBFg9iYWxhQHBpeGdsby5jb20wHhcNMTgwMjE0MDYzNDEwWhcNMjgwMjEy
MDYzNDEwWjCBqTELMAkGA1UEBhMCVVMxCzAJBgNVBAgTAkNBMRUwEwYDVQQHEwxT
YW5GcmFuY2lzY28xFTATBgNVBAoTDFBpeGdsbywgSW5jLjEQMA4GA1UECxMHVlBO
LUNJRTEPMA0GA1UEAxMGY2llNDQyMRwwGgYDVQQpExNCYWxhIENoYW5kcmFzZWth
cmFuMR4wHAYJKoZIhvcNAQkBFg9iYWxhQHBpeGdsby5jb20wggIiMA0GCSqGSIb3
DQEBAQUAA4ICDwAwggIKAoICAQDgo4wNQWTrR//9VCDwrPkI0jxX3R6jQh8FqeOw
zPEPtTSOZsIlHLloEj61pZDLE2aL/P7/UPOiCiYZksbdEXD8S2z9TBYT7YxP455v
f5sRiECJ0YO1iM+x1ZoL0+iQ74b+NgfdlF6v44WB/nlae7R65B1QLG1Hd7zBi2PV
8C806DaqGiAnAVyTnW61vg6+2+kYRQsPFl4xf5P+nP31Q9rM22JEC77UFvcVdb4k
nDOxeLTyCNUSCWQ2btDV5HRS1XPbG9CGhj816iYHOW1ipQp+nSJkHjXuqCziZhGh
+QfGkuque8Abl8D6okYyIMo3VnWcAYcLOW1I2xG1rXdMcgQFGuocjkxXoLRRVl2P
Tua52/qr1njQH2xnosgqJ8X9I3uYHexEJOt9HSXYVaA7LgOsSJ+gfo/S8tmUt9c2
EHjTMlotOrrvwGat7YRbALHZqHpEHLV6ynWjHJEixsajKYHbH2uikjP1lyj3TDSx
12Pcv64Lk7pebx/nWL3zjlkqABszecVdbWzZU/cyN19gbBmhwXeSvQZ7u8aU6eia
9a2WOMjVZfgPx32d6bnIUX8xVSY+BFbLPUxolVpiH2p+j5NLeqIT0yr4yXqnf7mF
0YkMsDXKByPE3x/FLaVJ8m4AML9n++8EXoltPblaCopNJ0bQHMxKraraHATfc0Ex
skI9iQIDAQABo4IBazCCAWcwCQYDVR0TBAIwADAtBglghkgBhvhCAQ0EIBYeRWFz
eS1SU0EgR2VuZXJhdGVkIENlcnRpZmljYXRlMB0GA1UdDgQWBBTS6MSX8SSLSH6N
qwAx6OGYh+aToDCB6QYDVR0jBIHhMIHegBTvOI0UUFinW02cF3L837msp1GwEKGB
uqSBtzCBtDELMAkGA1UEBhMCVVMxCzAJBgNVBAgTAkNBMRUwEwYDVQQHEwxTYW5G
cmFuY2lzY28xFTATBgNVBAoTDFBpeGdsbywgSW5jLjEQMA4GA1UECxMHVlBOLUNJ
RTEaMBgGA1UEAxMRdHVubmVsLnBpeGdsby5jb20xHDAaBgNVBCkTE0JhbGEgQ2hh
bmRyYXNla2FyYW4xHjAcBgkqhkiG9w0BCQEWD2JhbGFAcGl4Z2xvLmNvbYIJAKbb
xoOA5qB5MBMGA1UdJQQMMAoGCCsGAQUFBwMCMAsGA1UdDwQEAwIHgDANBgkqhkiG
9w0BAQUFAAOCAgEAKQPmClMRgGh6jHKrZXUYNbo03yLEQcG3h9fJWnNng1bpVtxg
r5IVaNL/aoHFGzHC6eoAVbEGdF2YZMBkGTQzbRf7WtbfcvdrXGvnQND9/8JElnT1
c2drK69z9FPiwVy42UoUh4/2IekuVUdqBAVsl1hQ/QTWd7UJeOiZ4uNbvr+BiKM/
10LKLjqRaf8yDuq3kVoMdM1bgxdok9x5bKkAqEK6gBGnol+9QNSAsAkuATXcpuU8
EjncQPfUhXerz4AW/+9ZQS2TI1ujg9FQLTGxgtECXF8kXM9TQaTJ8pVzUPb2wnYi
bXUvzbF6I49f2B2a7o4Br2/CYiDqmkYOWCXoBBvdI+vOZwl28EehcxEF6u+7RBmt
CAW5RsYqhbd06yE8K+OqU14Ccm3S/gtRzylzU/hcssp98erN2xgdSCAaJM481di4
LUy1XU5bw7mwywVTDXVfIG7X2t0/NJ9h/FTD4p+oSzRazPG1JCY/XfNyQkbNgieZ
D8IKg0akebNvVka/GVa8pfQs/x8tifLCp77NGbhsWYb994w9/PW5tUb4Ac1ZNARK
utDjxgL4nxVnGlEp3MdM9hrtFZycopEEWAuWIaHY2Beo04WFLJzfw0mbzXTqh3B9
2foWCAfGVACq+e/i9TWVIB1y6iKzeUmHFs2yXoR6BjE/RPYkJ/4FwI0wDBw=
-----END CERTIFICATE-----
