Certificate:
    Data:
        Version: 3 (0x2)
        Serial Number: 446 (0x1be)
    Signature Algorithm: sha1WithRSAEncryption
        Issuer: C=US, ST=CA, L=SanFrancisco, O=Pixglo, Inc., OU=VPN-CIE, CN=tunnel.pixglo.com/name=Bala Chandrasekaran/emailAddress=bala@pixglo.com
        Validity
            Not Before: Feb 14 06:34:12 2018 GMT
            Not After : Feb 12 06:34:12 2028 GMT
        Subject: C=US, ST=CA, L=SanFrancisco, O=Pixglo, Inc., OU=VPN-CIE, CN=cie445/name=Bala Chandrasekaran/emailAddress=bala@pixglo.com
        Subject Public Key Info:
            Public Key Algorithm: rsaEncryption
                Public-Key: (4096 bit)
                Modulus:
                    00:cd:e0:f7:56:57:6b:71:8a:97:c0:cf:76:ac:46:
                    dd:5d:1f:10:7c:fb:2f:70:62:44:94:49:d3:77:76:
                    40:16:b9:13:01:a3:7b:13:6f:c6:22:2a:f0:82:ed:
                    ec:c6:3a:97:d5:1c:70:f1:2a:77:b4:7e:05:02:bb:
                    c2:9d:f1:bc:20:67:1c:33:91:a7:a0:d2:fa:43:31:
                    dc:ca:74:4c:ee:24:ed:35:d5:6c:6e:17:17:3a:64:
                    20:5b:6b:11:39:73:84:8f:8d:e9:d2:13:55:14:39:
                    ef:23:4e:37:d4:09:4d:69:c3:6f:62:18:06:db:8e:
                    38:a2:bd:65:ba:64:42:0d:43:ff:6e:dd:6c:c5:62:
                    07:4d:fe:26:58:22:78:d0:df:b0:fa:bd:3d:fd:6a:
                    0f:56:45:84:ef:76:3a:79:ab:fc:9a:87:01:ad:39:
                    88:da:2d:6e:64:8d:92:5a:66:1a:b5:ee:16:36:65:
                    67:a8:88:ad:42:14:39:a8:3b:b4:76:d4:d2:9e:74:
                    fd:6b:c6:5c:1a:96:db:a6:be:b9:30:70:21:02:96:
                    00:cd:cc:fc:57:94:74:df:1f:d2:72:be:68:f9:f8:
                    d8:3c:b4:c7:e5:58:bb:db:0f:1b:75:dd:ce:39:f9:
                    2a:44:ed:a7:0e:96:d8:78:f3:03:db:cd:04:56:09:
                    bd:e7:a1:d5:42:69:0d:8c:e3:e8:93:7a:ae:49:ec:
                    f3:52:87:bc:a8:f8:77:2b:75:a6:92:e4:7d:a7:e1:
                    6b:ca:f5:6e:00:62:89:ff:fa:0e:77:d9:c6:1f:b5:
                    58:3e:b5:75:69:97:36:69:2e:7b:cf:06:4f:fe:52:
                    ac:ae:ec:5e:b6:28:b7:0f:e0:58:5a:45:43:ad:cb:
                    ff:9f:79:c5:92:83:57:3b:e7:e2:d5:e3:dd:26:23:
                    68:4a:ab:1a:99:0c:c6:2e:22:16:41:9e:23:d9:9c:
                    84:32:43:ee:f3:54:c9:77:aa:58:d2:c3:ba:c2:f3:
                    5f:17:79:91:38:0d:07:05:74:66:21:d4:ef:2c:44:
                    f1:3f:0b:34:43:9e:da:25:eb:42:72:09:50:3b:db:
                    90:45:ab:67:05:4a:c9:21:cc:e0:13:24:e5:65:12:
                    46:dd:8c:77:e3:ba:8e:28:75:12:ca:43:8b:c7:9a:
                    9f:06:33:70:7a:9e:87:24:67:db:3c:0b:bd:01:4b:
                    15:76:27:26:59:c9:0a:b3:45:03:b8:d5:59:5c:30:
                    57:34:33:00:d7:ec:49:a0:9f:22:6c:8b:92:70:b2:
                    55:03:c1:d8:41:95:ce:7d:ed:63:fa:08:ca:5f:63:
                    d2:d8:8a:5f:53:e9:8f:65:99:9e:dc:66:cb:23:b2:
                    24:39:95
                Exponent: 65537 (0x10001)
        X509v3 extensions:
            X509v3 Basic Constraints: 
                CA:FALSE
            Netscape Comment: 
                Easy-RSA Generated Certificate
            X509v3 Subject Key Identifier: 
                48:12:85:CA:5C:E8:AA:24:56:F1:3B:C9:DC:68:8B:61:AE:F0:B7:93
            X509v3 Authority Key Identifier: 
                keyid:EF:38:8D:14:50:58:A7:5B:4D:9C:17:72:FC:DF:B9:AC:A7:51:B0:10
                DirName:/C=US/ST=CA/L=SanFrancisco/O=Pixglo, Inc./OU=VPN-CIE/CN=tunnel.pixglo.com/name=Bala Chandrasekaran/emailAddress=bala@pixglo.com
                serial:A6:DB:C6:83:80:E6:A0:79

            X509v3 Extended Key Usage: 
                TLS Web Client Authentication
            X509v3 Key Usage: 
                Digital Signature
    Signature Algorithm: sha1WithRSAEncryption
         85:c0:23:e1:c5:84:10:f9:90:3e:88:e5:36:66:e6:d8:97:19:
         a9:4b:87:47:1d:39:a9:f8:ec:9d:30:83:96:41:c8:1b:03:8f:
         e9:63:1a:29:02:78:ab:8d:87:db:4f:36:64:ce:43:35:cb:ce:
         23:26:78:ec:41:49:01:b5:bb:a2:a4:1d:13:85:04:e0:09:d2:
         c1:c5:ab:c5:22:fa:d0:7e:0c:25:cb:3a:d7:0d:ec:f8:23:dd:
         0d:29:62:dc:34:11:f4:d7:04:b8:12:59:66:20:45:2a:24:90:
         09:75:40:42:e1:37:af:86:2b:30:22:ff:fc:08:02:c4:c6:00:
         87:25:02:13:cf:1c:32:67:9b:53:34:3f:92:dc:09:dc:7e:62:
         17:a0:e1:0b:2e:ef:1e:c7:7a:fa:70:fd:11:8a:b0:44:20:5e:
         ba:56:44:45:ab:cb:4d:b8:82:dc:47:0a:ff:b1:42:7f:e0:47:
         ac:0c:7d:27:57:50:6e:f0:44:a1:e5:d1:dd:e9:61:e5:23:80:
         44:c6:7b:b9:b6:9c:6a:98:8e:55:af:44:82:aa:09:5d:72:5c:
         40:8f:0c:87:09:7f:05:7d:9f:b8:02:f0:1d:70:d6:01:d8:b0:
         0d:95:f9:39:59:80:b2:ad:57:22:e3:6f:e1:5a:48:7f:62:de:
         5c:4f:1f:31:c8:0f:93:86:3c:09:0a:89:0f:6e:29:99:3a:5b:
         dd:d2:65:15:bc:c0:7e:66:78:70:96:ae:28:31:46:af:8a:90:
         0a:45:75:ee:f0:dd:57:5d:f5:31:52:b1:6b:c3:20:68:8b:39:
         67:35:7c:4b:f9:3c:a4:d1:f2:5e:0f:45:36:75:21:51:cd:ce:
         ec:a0:61:a6:bd:a0:91:42:5f:15:26:07:da:f2:20:c3:5e:0d:
         4c:01:5a:09:13:ba:af:1c:49:32:5c:ed:f3:d3:b6:d1:d6:16:
         85:5b:74:d4:e6:42:38:63:55:0b:6e:5c:ac:ff:da:a0:f2:41:
         71:cd:d6:8f:b6:ab:42:29:ef:62:ea:20:e7:58:ea:91:1a:78:
         d5:4b:46:c0:df:d7:e9:ec:99:8b:9e:d1:30:68:e2:3e:41:30:
         76:22:b8:6b:8c:e5:30:5c:43:42:1e:53:60:ff:9d:77:af:bf:
         23:9c:7a:03:9d:e9:44:1d:4c:d9:f3:f5:96:0c:25:33:da:12:
         2e:32:06:54:d1:a6:af:e9:65:33:f3:b3:33:ee:d2:52:61:f3:
         6c:25:af:e5:a6:9a:9d:e4:38:6e:44:f0:7b:40:c8:5e:41:8a:
         32:14:a2:40:65:12:b1:58:87:d5:63:16:d7:00:c4:6d:5d:6d:
         35:63:58:37:85:4e:e3:4e
-----BEGIN CERTIFICATE-----
MIIHSDCCBTCgAwIBAgICAb4wDQYJKoZIhvcNAQEFBQAwgbQxCzAJBgNVBAYTAlVT
MQswCQYDVQQIEwJDQTEVMBMGA1UEBxMMU2FuRnJhbmNpc2NvMRUwEwYDVQQKEwxQ
aXhnbG8sIEluYy4xEDAOBgNVBAsTB1ZQTi1DSUUxGjAYBgNVBAMTEXR1bm5lbC5w
aXhnbG8uY29tMRwwGgYDVQQpExNCYWxhIENoYW5kcmFzZWthcmFuMR4wHAYJKoZI
hvcNAQkBFg9iYWxhQHBpeGdsby5jb20wHhcNMTgwMjE0MDYzNDEyWhcNMjgwMjEy
MDYzNDEyWjCBqTELMAkGA1UEBhMCVVMxCzAJBgNVBAgTAkNBMRUwEwYDVQQHEwxT
YW5GcmFuY2lzY28xFTATBgNVBAoTDFBpeGdsbywgSW5jLjEQMA4GA1UECxMHVlBO
LUNJRTEPMA0GA1UEAxMGY2llNDQ1MRwwGgYDVQQpExNCYWxhIENoYW5kcmFzZWth
cmFuMR4wHAYJKoZIhvcNAQkBFg9iYWxhQHBpeGdsby5jb20wggIiMA0GCSqGSIb3
DQEBAQUAA4ICDwAwggIKAoICAQDN4PdWV2txipfAz3asRt1dHxB8+y9wYkSUSdN3
dkAWuRMBo3sTb8YiKvCC7ezGOpfVHHDxKne0fgUCu8Kd8bwgZxwzkaeg0vpDMdzK
dEzuJO011WxuFxc6ZCBbaxE5c4SPjenSE1UUOe8jTjfUCU1pw29iGAbbjjiivWW6
ZEINQ/9u3WzFYgdN/iZYInjQ37D6vT39ag9WRYTvdjp5q/yahwGtOYjaLW5kjZJa
Zhq17hY2ZWeoiK1CFDmoO7R21NKedP1rxlwaltumvrkwcCEClgDNzPxXlHTfH9Jy
vmj5+Ng8tMflWLvbDxt13c45+SpE7acOlth48wPbzQRWCb3nodVCaQ2M4+iTeq5J
7PNSh7yo+HcrdaaS5H2n4WvK9W4AYon/+g532cYftVg+tXVplzZpLnvPBk/+Uqyu
7F62KLcP4FhaRUOty/+fecWSg1c75+LV490mI2hKqxqZDMYuIhZBniPZnIQyQ+7z
VMl3qljSw7rC818XeZE4DQcFdGYh1O8sRPE/CzRDntol60JyCVA725BFq2cFSskh
zOATJOVlEkbdjHfjuo4odRLKQ4vHmp8GM3B6nockZ9s8C70BSxV2JyZZyQqzRQO4
1VlcMFc0MwDX7EmgnyJsi5JwslUDwdhBlc597WP6CMpfY9LYil9T6Y9lmZ7cZssj
siQ5lQIDAQABo4IBazCCAWcwCQYDVR0TBAIwADAtBglghkgBhvhCAQ0EIBYeRWFz
eS1SU0EgR2VuZXJhdGVkIENlcnRpZmljYXRlMB0GA1UdDgQWBBRIEoXKXOiqJFbx
O8ncaIthrvC3kzCB6QYDVR0jBIHhMIHegBTvOI0UUFinW02cF3L837msp1GwEKGB
uqSBtzCBtDELMAkGA1UEBhMCVVMxCzAJBgNVBAgTAkNBMRUwEwYDVQQHEwxTYW5G
cmFuY2lzY28xFTATBgNVBAoTDFBpeGdsbywgSW5jLjEQMA4GA1UECxMHVlBOLUNJ
RTEaMBgGA1UEAxMRdHVubmVsLnBpeGdsby5jb20xHDAaBgNVBCkTE0JhbGEgQ2hh
bmRyYXNla2FyYW4xHjAcBgkqhkiG9w0BCQEWD2JhbGFAcGl4Z2xvLmNvbYIJAKbb
xoOA5qB5MBMGA1UdJQQMMAoGCCsGAQUFBwMCMAsGA1UdDwQEAwIHgDANBgkqhkiG
9w0BAQUFAAOCAgEAhcAj4cWEEPmQPojlNmbm2JcZqUuHRx05qfjsnTCDlkHIGwOP
6WMaKQJ4q42H2082ZM5DNcvOIyZ47EFJAbW7oqQdE4UE4AnSwcWrxSL60H4MJcs6
1w3s+CPdDSli3DQR9NcEuBJZZiBFKiSQCXVAQuE3r4YrMCL//AgCxMYAhyUCE88c
MmebUzQ/ktwJ3H5iF6DhCy7vHsd6+nD9EYqwRCBeulZERavLTbiC3EcK/7FCf+BH
rAx9J1dQbvBEoeXR3elh5SOARMZ7ubacapiOVa9EgqoJXXJcQI8Mhwl/BX2fuALw
HXDWAdiwDZX5OVmAsq1XIuNv4VpIf2LeXE8fMcgPk4Y8CQqJD24pmTpb3dJlFbzA
fmZ4cJauKDFGr4qQCkV17vDdV131MVKxa8MgaIs5ZzV8S/k8pNHyXg9FNnUhUc3O
7KBhpr2gkUJfFSYH2vIgw14NTAFaCRO6rxxJMlzt89O20dYWhVt01OZCOGNVC25c
rP/aoPJBcc3Wj7arQinvYuog51jqkRp41UtGwN/X6eyZi57RMGjiPkEwdiK4a4zl
MFxDQh5TYP+dd6+/I5x6A53pRB1M2fP1lgwlM9oSLjIGVNGmr+llM/OzM+7SUmHz
bCWv5aaaneQ4bkTwe0DIXkGKMhSiQGUSsViH1WMW1wDEbV1tNWNYN4VO404=
-----END CERTIFICATE-----
