Certificate:
    Data:
        Version: 3 (0x2)
        Serial Number: 447 (0x1bf)
    Signature Algorithm: sha1WithRSAEncryption
        Issuer: C=US, ST=CA, L=SanFrancisco, O=Pixglo, Inc., OU=VPN-CIE, CN=tunnel.pixglo.com/name=Bala Chandrasekaran/emailAddress=bala@pixglo.com
        Validity
            Not Before: Feb 14 06:34:13 2018 GMT
            Not After : Feb 12 06:34:13 2028 GMT
        Subject: C=US, ST=CA, L=SanFrancisco, O=Pixglo, Inc., OU=VPN-CIE, CN=cie446/name=Bala Chandrasekaran/emailAddress=bala@pixglo.com
        Subject Public Key Info:
            Public Key Algorithm: rsaEncryption
                Public-Key: (4096 bit)
                Modulus:
                    00:e7:9d:ad:7d:30:64:36:10:df:4a:ff:d0:86:98:
                    c0:5d:62:ff:b7:a8:ac:64:98:26:65:92:5b:59:77:
                    81:5f:4d:a0:6b:00:16:f3:42:f2:39:a3:bc:59:5b:
                    7f:5c:73:58:7a:28:9a:cb:f6:ba:c9:fa:bc:1a:74:
                    e7:c6:fb:c0:d9:91:c5:a4:8f:db:62:15:1e:32:46:
                    9f:92:ed:91:2e:ad:6f:b7:8c:6e:98:6a:ad:38:64:
                    10:ab:e9:84:09:a6:56:93:c6:e2:d4:68:0e:8a:2b:
                    08:f4:ca:3c:bb:94:d9:38:4a:7d:39:d6:07:e6:65:
                    c1:97:e5:3b:aa:e9:d9:bc:c0:18:c1:0c:95:a3:74:
                    a2:1e:a0:dc:ac:84:be:5a:25:39:cb:97:e6:7d:d3:
                    50:6d:c1:34:d3:16:f3:bd:e5:71:a4:d3:ae:38:6b:
                    c3:63:b5:95:7d:07:c9:49:96:be:07:d1:0f:d1:99:
                    0f:9d:c0:2a:e7:7d:ed:f2:ff:72:1d:79:24:23:c8:
                    3f:49:7b:76:87:f2:b6:6e:f4:e3:75:9c:67:10:01:
                    1b:af:3d:ac:46:5b:1d:45:5f:34:5a:85:de:bd:d4:
                    db:7c:6f:ea:2a:b6:cc:e4:de:76:8c:61:f2:2e:bf:
                    bd:f3:36:d2:bc:78:e8:0c:72:ec:fd:36:62:98:f5:
                    6c:03:9b:99:7f:3d:c6:66:a5:7e:d3:a1:d6:b7:e8:
                    ea:3d:40:8a:a4:5a:d7:c0:fb:16:f4:c2:d8:42:64:
                    fe:49:fd:86:49:29:e6:d3:33:a1:1e:6c:46:ea:61:
                    ce:4e:9f:53:d9:6b:f5:ad:52:1d:d1:dc:6c:67:b2:
                    80:71:80:d1:d6:3e:90:c4:99:5e:db:de:34:60:be:
                    a8:bd:5d:8b:75:5d:08:b5:bb:cb:89:c2:0d:6f:64:
                    1e:c1:67:fe:55:0e:04:ea:48:44:20:fb:11:a3:3f:
                    e5:29:97:37:6a:72:56:9a:82:6f:b5:ef:b1:40:49:
                    b9:c1:69:86:12:fe:bb:66:a6:49:17:f2:95:ef:4a:
                    9f:5a:0a:76:9c:61:e7:78:36:69:b3:69:08:d4:8c:
                    04:07:25:33:a0:e9:eb:51:23:86:63:b1:b0:ba:5e:
                    0c:5a:dd:24:61:d7:bd:61:12:e6:a2:b6:c9:65:91:
                    b8:38:ac:8c:3d:7e:75:4f:c6:ba:c7:4c:82:6b:f6:
                    32:a9:c3:ee:9d:c8:64:f9:d6:62:11:87:e9:07:49:
                    23:be:ef:dd:dc:2e:aa:fe:b0:24:9e:3d:6d:e9:75:
                    22:e9:69:1f:9a:07:72:1c:cf:19:41:6a:f1:ed:c6:
                    68:9f:84:6c:0f:62:8a:17:ae:51:dc:22:9b:fc:d0:
                    18:3a:77
                Exponent: 65537 (0x10001)
        X509v3 extensions:
            X509v3 Basic Constraints: 
                CA:FALSE
            Netscape Comment: 
                Easy-RSA Generated Certificate
            X509v3 Subject Key Identifier: 
                DF:ED:69:AB:57:92:6B:FA:83:7A:C2:D6:B9:33:FD:05:44:11:29:04
            X509v3 Authority Key Identifier: 
                keyid:EF:38:8D:14:50:58:A7:5B:4D:9C:17:72:FC:DF:B9:AC:A7:51:B0:10
                DirName:/C=US/ST=CA/L=SanFrancisco/O=Pixglo, Inc./OU=VPN-CIE/CN=tunnel.pixglo.com/name=Bala Chandrasekaran/emailAddress=bala@pixglo.com
                serial:A6:DB:C6:83:80:E6:A0:79

            X509v3 Extended Key Usage: 
                TLS Web Client Authentication
            X509v3 Key Usage: 
                Digital Signature
    Signature Algorithm: sha1WithRSAEncryption
         e1:31:73:10:04:41:a8:3e:b3:02:11:d1:56:a4:07:c7:89:4d:
         2e:8c:b8:16:a2:9d:a9:c0:38:18:47:1c:51:a8:b5:03:20:30:
         88:59:1d:a5:73:37:7a:b1:77:15:6f:72:95:56:9b:18:bf:08:
         59:b7:a5:74:79:5a:83:2a:44:8f:20:c9:6b:ee:cc:52:ce:37:
         6c:33:26:23:41:d1:a7:11:6d:4f:e2:47:ef:cd:f5:6a:c9:02:
         87:60:d7:f2:0e:29:e4:4f:57:54:6f:d3:84:aa:70:1e:51:57:
         96:1f:84:60:2a:28:5a:38:c1:66:23:8d:be:c6:70:03:5c:75:
         ce:d8:cc:3a:ea:d1:60:5b:0f:e0:87:a3:64:f5:15:66:9b:ba:
         b4:43:08:72:e0:b2:b3:3d:8a:6d:d8:80:31:a1:49:40:c6:2e:
         50:dc:e0:1f:1e:1e:24:fd:40:7a:f3:55:19:45:7e:d1:93:27:
         4d:f4:a0:fd:09:b4:f7:14:ac:b7:68:9a:5a:e3:8d:52:99:f2:
         f7:0d:3b:d1:0b:b1:24:a0:4d:2b:ef:24:20:7d:e5:95:1e:ae:
         77:69:d9:56:98:0f:45:2b:f8:e0:a5:a1:a0:47:e0:83:6b:c5:
         2d:06:ef:48:b7:13:63:6f:56:43:4f:b5:96:dc:76:a7:cb:5e:
         9a:69:7a:02:75:15:36:82:97:ba:41:d3:e8:98:55:ec:50:d0:
         37:91:62:51:0e:fd:2e:75:d4:f4:a9:c6:f1:1e:f0:3c:b9:ce:
         8d:6c:40:a6:03:18:48:aa:c0:f1:20:08:43:6d:14:35:cc:18:
         a9:72:27:a9:13:2f:a3:e9:2a:a0:39:88:16:2e:df:c4:ba:0a:
         0f:fd:ef:e1:9a:49:5b:4b:86:4b:af:fe:19:21:0c:92:88:ab:
         51:9a:41:76:6a:07:1b:1c:e9:fe:5d:10:9f:f3:9d:b7:e9:c6:
         d0:38:9b:83:bd:de:39:a1:cd:d2:0e:cd:26:c2:ad:f5:41:99:
         99:6b:a2:52:fc:9d:1c:ae:d3:38:5e:c2:77:2b:5a:b9:ae:2c:
         38:3b:90:26:b7:39:44:05:10:d3:47:2e:3c:d7:cd:7d:5a:51:
         18:ce:de:b0:2e:9b:98:f7:06:7f:cf:6d:fc:19:3b:b9:d3:41:
         cf:8b:8c:bb:0a:2c:c0:87:ae:11:cc:be:63:39:81:e4:c1:12:
         57:f7:26:eb:26:75:5c:1e:bb:f6:24:7c:6d:65:dd:b5:7a:d3:
         c9:12:45:a7:3f:5e:bb:c4:07:7d:9e:79:35:f8:6f:b3:a9:44:
         53:e6:4e:25:93:ba:96:98:69:a7:37:94:b9:83:8c:4e:d2:59:
         3e:46:92:c9:b8:c5:b6:10
-----BEGIN CERTIFICATE-----
MIIHSDCCBTCgAwIBAgICAb8wDQYJKoZIhvcNAQEFBQAwgbQxCzAJBgNVBAYTAlVT
MQswCQYDVQQIEwJDQTEVMBMGA1UEBxMMU2FuRnJhbmNpc2NvMRUwEwYDVQQKEwxQ
aXhnbG8sIEluYy4xEDAOBgNVBAsTB1ZQTi1DSUUxGjAYBgNVBAMTEXR1bm5lbC5w
aXhnbG8uY29tMRwwGgYDVQQpExNCYWxhIENoYW5kcmFzZWthcmFuMR4wHAYJKoZI
hvcNAQkBFg9iYWxhQHBpeGdsby5jb20wHhcNMTgwMjE0MDYzNDEzWhcNMjgwMjEy
MDYzNDEzWjCBqTELMAkGA1UEBhMCVVMxCzAJBgNVBAgTAkNBMRUwEwYDVQQHEwxT
YW5GcmFuY2lzY28xFTATBgNVBAoTDFBpeGdsbywgSW5jLjEQMA4GA1UECxMHVlBO
LUNJRTEPMA0GA1UEAxMGY2llNDQ2MRwwGgYDVQQpExNCYWxhIENoYW5kcmFzZWth
cmFuMR4wHAYJKoZIhvcNAQkBFg9iYWxhQHBpeGdsby5jb20wggIiMA0GCSqGSIb3
DQEBAQUAA4ICDwAwggIKAoICAQDnna19MGQ2EN9K/9CGmMBdYv+3qKxkmCZlkltZ
d4FfTaBrABbzQvI5o7xZW39cc1h6KJrL9rrJ+rwadOfG+8DZkcWkj9tiFR4yRp+S
7ZEurW+3jG6Yaq04ZBCr6YQJplaTxuLUaA6KKwj0yjy7lNk4Sn051gfmZcGX5Tuq
6dm8wBjBDJWjdKIeoNyshL5aJTnLl+Z901BtwTTTFvO95XGk0644a8NjtZV9B8lJ
lr4H0Q/RmQ+dwCrnfe3y/3IdeSQjyD9Je3aH8rZu9ON1nGcQARuvPaxGWx1FXzRa
hd691Nt8b+oqtszk3naMYfIuv73zNtK8eOgMcuz9NmKY9WwDm5l/PcZmpX7Toda3
6Oo9QIqkWtfA+xb0wthCZP5J/YZJKebTM6EebEbqYc5On1PZa/WtUh3R3GxnsoBx
gNHWPpDEmV7b3jRgvqi9XYt1XQi1u8uJwg1vZB7BZ/5VDgTqSEQg+xGjP+Uplzdq
claagm+177FASbnBaYYS/rtmpkkX8pXvSp9aCnacYed4NmmzaQjUjAQHJTOg6etR
I4ZjsbC6Xgxa3SRh171hEuaitsllkbg4rIw9fnVPxrrHTIJr9jKpw+6dyGT51mIR
h+kHSSO+793cLqr+sCSePW3pdSLpaR+aB3IczxlBavHtxmifhGwPYooXrlHcIpv8
0Bg6dwIDAQABo4IBazCCAWcwCQYDVR0TBAIwADAtBglghkgBhvhCAQ0EIBYeRWFz
eS1SU0EgR2VuZXJhdGVkIENlcnRpZmljYXRlMB0GA1UdDgQWBBTf7WmrV5Jr+oN6
wta5M/0FRBEpBDCB6QYDVR0jBIHhMIHegBTvOI0UUFinW02cF3L837msp1GwEKGB
uqSBtzCBtDELMAkGA1UEBhMCVVMxCzAJBgNVBAgTAkNBMRUwEwYDVQQHEwxTYW5G
cmFuY2lzY28xFTATBgNVBAoTDFBpeGdsbywgSW5jLjEQMA4GA1UECxMHVlBOLUNJ
RTEaMBgGA1UEAxMRdHVubmVsLnBpeGdsby5jb20xHDAaBgNVBCkTE0JhbGEgQ2hh
bmRyYXNla2FyYW4xHjAcBgkqhkiG9w0BCQEWD2JhbGFAcGl4Z2xvLmNvbYIJAKbb
xoOA5qB5MBMGA1UdJQQMMAoGCCsGAQUFBwMCMAsGA1UdDwQEAwIHgDANBgkqhkiG
9w0BAQUFAAOCAgEA4TFzEARBqD6zAhHRVqQHx4lNLoy4FqKdqcA4GEccUai1AyAw
iFkdpXM3erF3FW9ylVabGL8IWbeldHlagypEjyDJa+7MUs43bDMmI0HRpxFtT+JH
7831askCh2DX8g4p5E9XVG/ThKpwHlFXlh+EYCooWjjBZiONvsZwA1x1ztjMOurR
YFsP4IejZPUVZpu6tEMIcuCysz2KbdiAMaFJQMYuUNzgHx4eJP1AevNVGUV+0ZMn
TfSg/Qm09xSst2iaWuONUpny9w070QuxJKBNK+8kIH3llR6ud2nZVpgPRSv44KWh
oEfgg2vFLQbvSLcTY29WQ0+1ltx2p8temml6AnUVNoKXukHT6JhV7FDQN5FiUQ79
LnXU9KnG8R7wPLnOjWxApgMYSKrA8SAIQ20UNcwYqXInqRMvo+kqoDmIFi7fxLoK
D/3v4ZpJW0uGS6/+GSEMkoirUZpBdmoHGxzp/l0Qn/Odt+nG0Dibg73eOaHN0g7N
JsKt9UGZmWuiUvydHK7TOF7Cdytaua4sODuQJrc5RAUQ00cuPNfNfVpRGM7esC6b
mPcGf89t/Bk7udNBz4uMuwoswIeuEcy+YzmB5MESV/cm6yZ1XB679iR8bWXdtXrT
yRJFpz9eu8QHfZ55Nfhvs6lEU+ZOJZO6lphppzeUuYOMTtJZPkaSybjFthA=
-----END CERTIFICATE-----
