Certificate:
    Data:
        Version: 3 (0x2)
        Serial Number: 448 (0x1c0)
    Signature Algorithm: sha1WithRSAEncryption
        Issuer: C=US, ST=CA, L=SanFrancisco, O=Pixglo, Inc., OU=VPN-CIE, CN=tunnel.pixglo.com/name=Bala Chandrasekaran/emailAddress=bala@pixglo.com
        Validity
            Not Before: Feb 14 06:34:16 2018 GMT
            Not After : Feb 12 06:34:16 2028 GMT
        Subject: C=US, ST=CA, L=SanFrancisco, O=Pixglo, Inc., OU=VPN-CIE, CN=cie447/name=Bala Chandrasekaran/emailAddress=bala@pixglo.com
        Subject Public Key Info:
            Public Key Algorithm: rsaEncryption
                Public-Key: (4096 bit)
                Modulus:
                    00:d8:cf:d9:e1:a0:b0:b4:82:1d:32:51:2b:a5:f0:
                    a0:b9:9d:ea:2b:90:2d:0b:f2:74:3c:04:a0:0f:09:
                    c6:68:35:82:e3:c9:58:8d:fd:20:47:85:77:60:6e:
                    1e:22:2e:90:b5:e3:d0:ed:bd:56:ec:bf:a9:54:64:
                    49:ac:6f:76:8e:09:01:36:46:2d:ca:14:9b:49:3d:
                    6d:91:14:b2:52:f2:ee:d1:ea:73:c4:61:a1:ad:ed:
                    19:fe:79:b7:f3:80:0e:c0:d2:39:0f:55:26:c2:0b:
                    31:9c:ff:dd:58:d2:d5:36:36:92:0c:89:51:85:15:
                    5e:be:88:a2:90:ee:c2:df:74:bb:c6:9e:40:95:02:
                    1f:da:6b:eb:4a:64:56:f4:49:7c:70:16:ac:15:d0:
                    72:ce:59:96:fe:d4:de:31:5a:2c:66:4e:96:aa:6a:
                    c2:9b:c9:ae:12:08:14:7b:bf:c9:23:9e:05:b0:1f:
                    be:b5:ea:cc:92:c9:45:35:20:a0:5d:16:cf:ec:4a:
                    ef:19:9b:54:27:63:80:ff:03:22:3f:74:97:34:c5:
                    73:f5:b1:f3:0a:50:3f:8b:50:c8:58:93:52:97:9a:
                    c0:f8:6f:74:47:5a:0c:06:c5:9b:90:94:5e:74:49:
                    64:75:db:c4:1e:15:a3:e1:36:43:60:11:45:62:fc:
                    e2:da:cf:eb:80:c9:bb:c1:ea:87:40:65:b3:d7:e8:
                    44:c4:88:08:85:a1:d7:92:33:18:e3:af:07:a1:ea:
                    81:f8:68:23:a3:0d:cf:4f:c0:02:36:7d:a5:36:7c:
                    c7:e8:e0:d6:3e:66:32:b8:de:ed:a0:db:e9:85:a0:
                    fb:6e:f4:6e:93:94:6a:57:98:b2:eb:73:81:b4:12:
                    71:08:b9:ba:0d:e9:78:21:93:b8:28:c7:5c:d0:a3:
                    a8:37:e5:94:94:32:06:2d:6e:55:77:48:89:eb:f5:
                    c6:61:2e:18:ba:8a:49:26:a2:2e:3b:f6:25:8e:63:
                    cf:e0:31:a8:e4:ef:84:ca:cd:de:d4:ec:a8:b4:f7:
                    54:36:9a:27:97:d8:64:9d:92:48:94:11:87:7e:b8:
                    5a:9e:28:06:e2:b7:77:68:6e:02:c0:36:32:a5:53:
                    fe:e7:47:31:01:64:cb:b2:1a:c5:35:58:ab:ce:69:
                    30:f1:1b:70:12:d8:40:3b:8b:15:6e:38:8b:c9:db:
                    a9:e4:8f:d8:b0:34:75:e7:fd:30:a1:32:4a:99:b4:
                    0f:22:37:d1:78:41:b8:b0:02:c7:b8:90:01:7a:ec:
                    a9:3d:47:65:a7:c9:ef:bc:9f:d0:f0:1b:a2:a2:a2:
                    45:6d:e1:b8:b6:6e:e1:05:17:86:18:1c:db:9e:bb:
                    39:12:91
                Exponent: 65537 (0x10001)
        X509v3 extensions:
            X509v3 Basic Constraints: 
                CA:FALSE
            Netscape Comment: 
                Easy-RSA Generated Certificate
            X509v3 Subject Key Identifier: 
                54:6E:4F:00:BB:93:96:4A:EA:DF:9D:C1:CF:52:1F:8C:EA:62:32:31
            X509v3 Authority Key Identifier: 
                keyid:EF:38:8D:14:50:58:A7:5B:4D:9C:17:72:FC:DF:B9:AC:A7:51:B0:10
                DirName:/C=US/ST=CA/L=SanFrancisco/O=Pixglo, Inc./OU=VPN-CIE/CN=tunnel.pixglo.com/name=Bala Chandrasekaran/emailAddress=bala@pixglo.com
                serial:A6:DB:C6:83:80:E6:A0:79

            X509v3 Extended Key Usage: 
                TLS Web Client Authentication
            X509v3 Key Usage: 
                Digital Signature
    Signature Algorithm: sha1WithRSAEncryption
         37:a3:c3:b5:28:74:54:2e:c5:ad:44:87:ab:2b:49:3b:cc:f8:
         73:f9:ab:fa:9f:84:3c:dc:5f:5d:ae:21:17:60:86:35:79:34:
         63:d4:dd:26:b3:6c:bb:ad:d7:78:5b:fc:55:fa:48:df:85:92:
         c9:3b:bd:0f:8a:d1:f4:50:79:a3:7d:8f:28:01:22:e7:aa:1d:
         55:23:90:6a:27:35:dd:e1:17:ae:fa:87:aa:38:10:51:3c:62:
         b0:d1:4c:cb:80:f7:67:9f:c8:99:ab:c6:73:81:0c:63:13:22:
         5c:a4:a3:87:3f:9d:2b:49:ed:b6:a2:20:ed:52:45:8e:d3:e7:
         0a:57:ab:6f:b1:b0:4e:94:65:1f:c1:bd:11:c0:0b:fd:14:08:
         b3:a0:c4:98:80:f7:78:9f:47:ca:09:dd:a9:2a:d5:cd:72:ce:
         8a:75:2e:d6:86:56:76:93:19:dc:ab:37:87:eb:45:51:f5:f9:
         0e:52:4b:92:c6:c0:0c:78:a3:28:30:d6:f9:01:f5:0c:1b:d0:
         fd:e3:95:89:be:aa:d4:0d:47:ae:95:cd:25:bf:4b:ee:9b:99:
         72:54:0d:5e:6d:fc:99:23:9f:ea:36:5e:eb:c4:17:e9:3f:f0:
         05:0b:61:88:4b:57:60:d7:0a:b0:fd:0e:81:87:7c:0f:25:fb:
         2a:28:f1:74:a6:d2:71:45:cf:46:50:46:37:c1:f5:96:a0:53:
         0e:a9:86:a6:43:2c:f5:12:08:88:8b:f8:39:19:1b:04:fe:c9:
         b8:3f:6d:08:49:bc:ba:46:83:c3:ec:99:88:3b:6f:d7:5b:3b:
         8d:b6:77:db:67:66:bd:b5:de:ca:54:07:10:43:b4:43:fa:00:
         f7:f2:5a:77:18:54:0a:e9:36:24:15:f3:b5:4d:cd:ee:09:cd:
         99:75:2a:df:a4:16:4c:f7:73:4f:9e:28:37:3c:82:7e:db:a9:
         6b:22:78:6d:2d:ad:f3:9a:19:c6:a9:82:41:c4:66:31:56:18:
         c9:8a:8c:06:6d:08:87:31:c9:c4:9c:b3:06:98:53:25:f5:90:
         c5:5e:9b:56:78:c4:62:a2:34:f8:da:d7:8e:76:b7:0e:1e:bb:
         ee:c8:42:f7:af:a2:e4:50:71:43:04:20:c4:33:d7:08:f2:b8:
         d8:c8:9d:52:5d:94:bb:c1:9d:a3:4c:54:ec:b0:60:97:94:35:
         18:5d:46:b9:a4:26:15:e0:44:21:44:7a:ef:b7:8b:b6:bb:01:
         60:7c:66:e2:d2:67:0e:9e:dc:09:69:1a:90:5a:43:71:39:84:
         78:67:6f:50:3a:81:8f:c5:50:c3:2b:2a:2f:7d:4f:8f:29:0b:
         eb:16:4e:f1:84:0c:79:ba
-----BEGIN CERTIFICATE-----
MIIHSDCCBTCgAwIBAgICAcAwDQYJKoZIhvcNAQEFBQAwgbQxCzAJBgNVBAYTAlVT
MQswCQYDVQQIEwJDQTEVMBMGA1UEBxMMU2FuRnJhbmNpc2NvMRUwEwYDVQQKEwxQ
aXhnbG8sIEluYy4xEDAOBgNVBAsTB1ZQTi1DSUUxGjAYBgNVBAMTEXR1bm5lbC5w
aXhnbG8uY29tMRwwGgYDVQQpExNCYWxhIENoYW5kcmFzZWthcmFuMR4wHAYJKoZI
hvcNAQkBFg9iYWxhQHBpeGdsby5jb20wHhcNMTgwMjE0MDYzNDE2WhcNMjgwMjEy
MDYzNDE2WjCBqTELMAkGA1UEBhMCVVMxCzAJBgNVBAgTAkNBMRUwEwYDVQQHEwxT
YW5GcmFuY2lzY28xFTATBgNVBAoTDFBpeGdsbywgSW5jLjEQMA4GA1UECxMHVlBO
LUNJRTEPMA0GA1UEAxMGY2llNDQ3MRwwGgYDVQQpExNCYWxhIENoYW5kcmFzZWth
cmFuMR4wHAYJKoZIhvcNAQkBFg9iYWxhQHBpeGdsby5jb20wggIiMA0GCSqGSIb3
DQEBAQUAA4ICDwAwggIKAoICAQDYz9nhoLC0gh0yUSul8KC5neorkC0L8nQ8BKAP
CcZoNYLjyViN/SBHhXdgbh4iLpC149DtvVbsv6lUZEmsb3aOCQE2Ri3KFJtJPW2R
FLJS8u7R6nPEYaGt7Rn+ebfzgA7A0jkPVSbCCzGc/91Y0tU2NpIMiVGFFV6+iKKQ
7sLfdLvGnkCVAh/aa+tKZFb0SXxwFqwV0HLOWZb+1N4xWixmTpaqasKbya4SCBR7
v8kjngWwH7616sySyUU1IKBdFs/sSu8Zm1QnY4D/AyI/dJc0xXP1sfMKUD+LUMhY
k1KXmsD4b3RHWgwGxZuQlF50SWR128QeFaPhNkNgEUVi/OLaz+uAybvB6odAZbPX
6ETEiAiFodeSMxjjrweh6oH4aCOjDc9PwAI2faU2fMfo4NY+ZjK43u2g2+mFoPtu
9G6TlGpXmLLrc4G0EnEIuboN6Xghk7gox1zQo6g35ZSUMgYtblV3SInr9cZhLhi6
ikkmoi479iWOY8/gMajk74TKzd7U7Ki091Q2mieX2GSdkkiUEYd+uFqeKAbit3do
bgLANjKlU/7nRzEBZMuyGsU1WKvOaTDxG3AS2EA7ixVuOIvJ26nkj9iwNHXn/TCh
MkqZtA8iN9F4QbiwAse4kAF67Kk9R2Wnye+8n9DwG6KiokVt4bi2buEFF4YYHNue
uzkSkQIDAQABo4IBazCCAWcwCQYDVR0TBAIwADAtBglghkgBhvhCAQ0EIBYeRWFz
eS1SU0EgR2VuZXJhdGVkIENlcnRpZmljYXRlMB0GA1UdDgQWBBRUbk8Au5OWSurf
ncHPUh+M6mIyMTCB6QYDVR0jBIHhMIHegBTvOI0UUFinW02cF3L837msp1GwEKGB
uqSBtzCBtDELMAkGA1UEBhMCVVMxCzAJBgNVBAgTAkNBMRUwEwYDVQQHEwxTYW5G
cmFuY2lzY28xFTATBgNVBAoTDFBpeGdsbywgSW5jLjEQMA4GA1UECxMHVlBOLUNJ
RTEaMBgGA1UEAxMRdHVubmVsLnBpeGdsby5jb20xHDAaBgNVBCkTE0JhbGEgQ2hh
bmRyYXNla2FyYW4xHjAcBgkqhkiG9w0BCQEWD2JhbGFAcGl4Z2xvLmNvbYIJAKbb
xoOA5qB5MBMGA1UdJQQMMAoGCCsGAQUFBwMCMAsGA1UdDwQEAwIHgDANBgkqhkiG
9w0BAQUFAAOCAgEAN6PDtSh0VC7FrUSHqytJO8z4c/mr+p+EPNxfXa4hF2CGNXk0
Y9TdJrNsu63XeFv8VfpI34WSyTu9D4rR9FB5o32PKAEi56odVSOQaic13eEXrvqH
qjgQUTxisNFMy4D3Z5/ImavGc4EMYxMiXKSjhz+dK0nttqIg7VJFjtPnClerb7Gw
TpRlH8G9EcAL/RQIs6DEmID3eJ9HygndqSrVzXLOinUu1oZWdpMZ3Ks3h+tFUfX5
DlJLksbADHijKDDW+QH1DBvQ/eOVib6q1A1HrpXNJb9L7puZclQNXm38mSOf6jZe
68QX6T/wBQthiEtXYNcKsP0OgYd8DyX7KijxdKbScUXPRlBGN8H1lqBTDqmGpkMs
9RIIiIv4ORkbBP7JuD9tCEm8ukaDw+yZiDtv11s7jbZ322dmvbXeylQHEEO0Q/oA
9/JadxhUCuk2JBXztU3N7gnNmXUq36QWTPdzT54oNzyCftupayJ4bS2t85oZxqmC
QcRmMVYYyYqMBm0IhzHJxJyzBphTJfWQxV6bVnjEYqI0+NrXjna3Dh677shC96+i
5FBxQwQgxDPXCPK42MidUl2Uu8Gdo0xU7LBgl5Q1GF1GuaQmFeBEIUR677eLtrsB
YHxm4tJnDp7cCWkakFpDcTmEeGdvUDqBj8VQwysqL31PjykL6xZO8YQMebo=
-----END CERTIFICATE-----
