Certificate:
    Data:
        Version: 3 (0x2)
        Serial Number: 451 (0x1c3)
    Signature Algorithm: sha1WithRSAEncryption
        Issuer: C=US, ST=CA, L=SanFrancisco, O=Pixglo, Inc., OU=VPN-CIE, CN=tunnel.pixglo.com/name=Bala Chandrasekaran/emailAddress=bala@pixglo.com
        Validity
            Not Before: Feb 14 06:34:24 2018 GMT
            Not After : Feb 12 06:34:24 2028 GMT
        Subject: C=US, ST=CA, L=SanFrancisco, O=Pixglo, Inc., OU=VPN-CIE, CN=cie450/name=Bala Chandrasekaran/emailAddress=bala@pixglo.com
        Subject Public Key Info:
            Public Key Algorithm: rsaEncryption
                Public-Key: (4096 bit)
                Modulus:
                    00:bf:d9:88:0a:3f:5a:43:a1:21:5a:ee:ea:30:cf:
                    c2:6f:61:92:fe:ed:d6:7a:e9:29:67:a5:15:d9:4a:
                    10:8d:d2:21:8c:4c:dd:c6:18:3b:ad:9d:87:46:16:
                    73:9f:eb:c8:ac:06:23:92:4c:8a:01:e2:3a:af:63:
                    f7:18:c5:a8:4b:21:b4:ae:2a:fa:30:f2:0c:59:4d:
                    8e:27:3b:f7:1d:62:63:63:14:cc:79:86:03:6b:21:
                    bf:9f:59:45:04:19:54:65:98:fd:81:34:bb:b8:71:
                    95:6d:7a:2a:75:02:03:da:7d:24:3d:d1:e6:c4:5b:
                    20:88:cc:ff:e0:68:83:22:87:a2:9c:5a:14:b4:87:
                    19:50:0d:4b:8e:93:5a:68:36:e5:f9:a2:d3:34:79:
                    70:92:dc:7f:24:42:32:dc:9a:30:f3:11:11:98:26:
                    b6:11:d7:5c:4e:b3:d6:a5:d0:3f:ae:10:05:0c:4a:
                    82:c3:35:52:ca:dd:39:39:da:b7:b2:88:09:43:c7:
                    e7:f1:fa:60:d5:46:76:f3:16:90:03:86:6e:5f:44:
                    25:fe:de:3a:6a:ff:0d:df:62:a2:41:52:cc:df:72:
                    63:cf:06:ce:e0:d0:d0:df:3b:89:a9:a3:02:ed:88:
                    5e:f8:fd:16:92:9c:1f:c0:a7:79:75:92:79:23:82:
                    ee:59:d3:b6:81:c2:82:c7:b5:e8:a0:d7:ac:3f:60:
                    d8:3b:11:b9:04:98:92:f3:df:5f:da:11:79:37:9a:
                    b6:3f:20:43:2f:29:01:d6:ac:59:13:1e:8f:48:cd:
                    06:05:e7:7e:84:b6:f1:94:18:60:fa:2e:7d:de:1b:
                    84:ec:c1:02:a1:66:74:c9:3c:06:e4:2a:4b:62:07:
                    04:88:40:33:74:c3:9f:76:89:b5:89:f4:1c:60:4d:
                    a0:15:b0:39:75:24:af:cd:32:5d:d9:08:bc:a7:b6:
                    80:1a:31:4f:11:c3:4b:0c:70:67:26:a7:e9:c5:8c:
                    2a:f4:3b:ea:ab:81:dd:47:78:f3:57:c2:f3:a0:de:
                    c6:3e:e1:d8:c0:d5:47:ba:8f:c4:f0:54:f3:ea:7c:
                    77:a3:1f:fd:67:1e:18:25:62:85:a9:d8:3f:07:75:
                    49:a9:ca:57:79:80:3b:32:94:d5:80:03:e7:f1:f0:
                    35:1d:e4:6d:f4:ff:92:8f:5b:31:7d:86:ac:f7:2e:
                    72:89:76:54:a2:78:b7:44:5d:53:6d:b8:99:09:85:
                    df:92:dd:d4:06:ae:d9:32:76:ae:00:79:63:0d:92:
                    56:9e:48:3a:28:ac:fe:75:eb:87:f8:52:8d:71:d4:
                    f2:5b:96:f7:2a:a9:31:6d:cd:5a:d4:f0:0d:d1:25:
                    95:5d:53
                Exponent: 65537 (0x10001)
        X509v3 extensions:
            X509v3 Basic Constraints: 
                CA:FALSE
            Netscape Comment: 
                Easy-RSA Generated Certificate
            X509v3 Subject Key Identifier: 
                1A:CA:EB:02:D0:A3:92:A2:F4:BB:C6:6C:11:27:92:19:CB:47:B3:8F
            X509v3 Authority Key Identifier: 
                keyid:EF:38:8D:14:50:58:A7:5B:4D:9C:17:72:FC:DF:B9:AC:A7:51:B0:10
                DirName:/C=US/ST=CA/L=SanFrancisco/O=Pixglo, Inc./OU=VPN-CIE/CN=tunnel.pixglo.com/name=Bala Chandrasekaran/emailAddress=bala@pixglo.com
                serial:A6:DB:C6:83:80:E6:A0:79

            X509v3 Extended Key Usage: 
                TLS Web Client Authentication
            X509v3 Key Usage: 
                Digital Signature
    Signature Algorithm: sha1WithRSAEncryption
         a3:08:45:02:1c:c5:e7:63:02:62:a4:d3:0e:7e:6c:81:c5:12:
         a2:0b:f2:15:f5:61:6f:3a:a3:47:b6:24:71:d0:0f:49:e1:ad:
         9b:00:60:53:3b:8f:59:a6:fc:1c:3d:54:53:0d:48:23:1c:33:
         76:c3:40:82:c9:02:da:46:4b:09:1e:47:a4:4c:bb:82:e6:ad:
         b5:25:d8:3b:59:33:55:d9:45:d0:2c:41:bc:69:33:23:2b:40:
         84:10:7a:76:89:e0:f2:14:ee:91:78:63:e6:04:af:1e:39:d6:
         5f:61:2d:03:cb:94:4f:61:fc:6f:89:52:bd:de:11:0e:87:1a:
         39:73:4e:d0:fc:5c:4e:b1:a5:05:9f:f5:f3:c6:59:2d:42:60:
         cb:5b:18:e6:27:3a:7e:30:02:f4:1f:4c:d5:59:85:7a:72:80:
         a8:7a:f3:f3:1f:fa:c6:c3:30:fd:cf:4b:5c:5f:3a:e2:c2:98:
         53:51:d7:f8:6e:56:8d:94:7d:ef:89:e0:3f:38:00:04:7d:09:
         a1:0c:08:0e:aa:d0:43:b6:b1:f1:37:30:78:3c:ce:9c:bf:8b:
         e7:88:b4:c8:5c:a0:b0:ff:14:22:9d:81:19:da:9f:60:52:c4:
         fd:a0:05:ee:62:b2:75:c0:0d:6a:60:90:1a:c1:41:0d:9d:77:
         c4:ce:c2:a2:6f:a4:ab:9c:52:62:ce:99:c1:62:d8:d4:d9:eb:
         2d:13:a7:29:45:ad:13:b7:04:1d:cc:00:0c:5c:92:97:a9:a8:
         c9:95:03:c0:b8:7a:2f:25:a6:1b:e8:ce:b3:5c:e8:9b:8a:97:
         7f:2d:40:e8:1e:9a:3a:96:47:22:af:95:bc:07:9d:d6:68:92:
         5c:26:7b:d1:82:60:73:89:ff:45:69:1f:f6:f1:c0:d8:42:b2:
         4c:23:88:7e:ed:d9:87:16:e4:3f:44:dd:a2:7e:4f:ce:63:77:
         88:02:c9:95:bd:bf:c1:01:ee:b0:0f:8d:db:61:31:6f:68:2e:
         0d:ce:1f:8e:1a:8a:de:c7:9a:70:f3:92:10:f7:90:84:ab:be:
         f4:28:c4:fc:ef:4f:48:68:a7:34:75:b1:72:fd:16:4c:7c:d1:
         be:1d:21:4f:88:75:6f:1b:79:5d:b7:38:e7:b2:ad:2d:89:50:
         bb:a7:0e:7b:8a:1f:7c:4d:a3:b4:67:b0:91:5b:3f:74:d1:e3:
         47:40:d2:49:7d:8e:e2:d6:0c:53:70:8c:e3:72:e0:23:25:88:
         3a:ab:f3:68:c0:f5:1f:9b:b4:48:56:0a:d8:26:9d:c5:33:9f:
         31:1c:6f:b5:2e:53:5d:26:e2:52:54:96:10:af:02:0c:44:fe:
         f5:c7:a9:be:28:35:cb:13
-----BEGIN CERTIFICATE-----
MIIHSDCCBTCgAwIBAgICAcMwDQYJKoZIhvcNAQEFBQAwgbQxCzAJBgNVBAYTAlVT
MQswCQYDVQQIEwJDQTEVMBMGA1UEBxMMU2FuRnJhbmNpc2NvMRUwEwYDVQQKEwxQ
aXhnbG8sIEluYy4xEDAOBgNVBAsTB1ZQTi1DSUUxGjAYBgNVBAMTEXR1bm5lbC5w
aXhnbG8uY29tMRwwGgYDVQQpExNCYWxhIENoYW5kcmFzZWthcmFuMR4wHAYJKoZI
hvcNAQkBFg9iYWxhQHBpeGdsby5jb20wHhcNMTgwMjE0MDYzNDI0WhcNMjgwMjEy
MDYzNDI0WjCBqTELMAkGA1UEBhMCVVMxCzAJBgNVBAgTAkNBMRUwEwYDVQQHEwxT
YW5GcmFuY2lzY28xFTATBgNVBAoTDFBpeGdsbywgSW5jLjEQMA4GA1UECxMHVlBO
LUNJRTEPMA0GA1UEAxMGY2llNDUwMRwwGgYDVQQpExNCYWxhIENoYW5kcmFzZWth
cmFuMR4wHAYJKoZIhvcNAQkBFg9iYWxhQHBpeGdsby5jb20wggIiMA0GCSqGSIb3
DQEBAQUAA4ICDwAwggIKAoICAQC/2YgKP1pDoSFa7uowz8JvYZL+7dZ66SlnpRXZ
ShCN0iGMTN3GGDutnYdGFnOf68isBiOSTIoB4jqvY/cYxahLIbSuKvow8gxZTY4n
O/cdYmNjFMx5hgNrIb+fWUUEGVRlmP2BNLu4cZVteip1AgPafSQ90ebEWyCIzP/g
aIMih6KcWhS0hxlQDUuOk1poNuX5otM0eXCS3H8kQjLcmjDzERGYJrYR11xOs9al
0D+uEAUMSoLDNVLK3Tk52reyiAlDx+fx+mDVRnbzFpADhm5fRCX+3jpq/w3fYqJB
UszfcmPPBs7g0NDfO4mpowLtiF74/RaSnB/Ap3l1knkjgu5Z07aBwoLHteig16w/
YNg7EbkEmJLz31/aEXk3mrY/IEMvKQHWrFkTHo9IzQYF536EtvGUGGD6Ln3eG4Ts
wQKhZnTJPAbkKktiBwSIQDN0w592ibWJ9BxgTaAVsDl1JK/NMl3ZCLyntoAaMU8R
w0sMcGcmp+nFjCr0O+qrgd1HePNXwvOg3sY+4djA1Ue6j8TwVPPqfHejH/1nHhgl
YoWp2D8HdUmpyld5gDsylNWAA+fx8DUd5G30/5KPWzF9hqz3LnKJdlSieLdEXVNt
uJkJhd+S3dQGrtkydq4AeWMNklaeSDoorP5164f4Uo1x1PJblvcqqTFtzVrU8A3R
JZVdUwIDAQABo4IBazCCAWcwCQYDVR0TBAIwADAtBglghkgBhvhCAQ0EIBYeRWFz
eS1SU0EgR2VuZXJhdGVkIENlcnRpZmljYXRlMB0GA1UdDgQWBBQayusC0KOSovS7
xmwRJ5IZy0ezjzCB6QYDVR0jBIHhMIHegBTvOI0UUFinW02cF3L837msp1GwEKGB
uqSBtzCBtDELMAkGA1UEBhMCVVMxCzAJBgNVBAgTAkNBMRUwEwYDVQQHEwxTYW5G
cmFuY2lzY28xFTATBgNVBAoTDFBpeGdsbywgSW5jLjEQMA4GA1UECxMHVlBOLUNJ
RTEaMBgGA1UEAxMRdHVubmVsLnBpeGdsby5jb20xHDAaBgNVBCkTE0JhbGEgQ2hh
bmRyYXNla2FyYW4xHjAcBgkqhkiG9w0BCQEWD2JhbGFAcGl4Z2xvLmNvbYIJAKbb
xoOA5qB5MBMGA1UdJQQMMAoGCCsGAQUFBwMCMAsGA1UdDwQEAwIHgDANBgkqhkiG
9w0BAQUFAAOCAgEAowhFAhzF52MCYqTTDn5sgcUSogvyFfVhbzqjR7YkcdAPSeGt
mwBgUzuPWab8HD1UUw1IIxwzdsNAgskC2kZLCR5HpEy7guattSXYO1kzVdlF0CxB
vGkzIytAhBB6dong8hTukXhj5gSvHjnWX2EtA8uUT2H8b4lSvd4RDocaOXNO0Pxc
TrGlBZ/188ZZLUJgy1sY5ic6fjAC9B9M1VmFenKAqHrz8x/6xsMw/c9LXF864sKY
U1HX+G5WjZR974ngPzgABH0JoQwIDqrQQ7ax8TcweDzOnL+L54i0yFygsP8UIp2B
GdqfYFLE/aAF7mKydcANamCQGsFBDZ13xM7Com+kq5xSYs6ZwWLY1NnrLROnKUWt
E7cEHcwADFySl6moyZUDwLh6LyWmG+jOs1zom4qXfy1A6B6aOpZHIq+VvAed1miS
XCZ70YJgc4n/RWkf9vHA2EKyTCOIfu3ZhxbkP0Tdon5PzmN3iALJlb2/wQHusA+N
22Exb2guDc4fjhqK3seacPOSEPeQhKu+9CjE/O9PSGinNHWxcv0WTHzRvh0hT4h1
bxt5Xbc457KtLYlQu6cOe4offE2jtGewkVs/dNHjR0DSSX2O4tYMU3CM43LgIyWI
OqvzaMD1H5u0SFYK2CadxTOfMRxvtS5TXSbiUlSWEK8CDET+9cepvig1yxM=
-----END CERTIFICATE-----
