Certificate:
    Data:
        Version: 3 (0x2)
        Serial Number: 452 (0x1c4)
    Signature Algorithm: sha1WithRSAEncryption
        Issuer: C=US, ST=CA, L=SanFrancisco, O=Pixglo, Inc., OU=VPN-CIE, CN=tunnel.pixglo.com/name=Bala Chandrasekaran/emailAddress=bala@pixglo.com
        Validity
            Not Before: Feb 14 06:34:25 2018 GMT
            Not After : Feb 12 06:34:25 2028 GMT
        Subject: C=US, ST=CA, L=SanFrancisco, O=Pixglo, Inc., OU=VPN-CIE, CN=cie451/name=Bala Chandrasekaran/emailAddress=bala@pixglo.com
        Subject Public Key Info:
            Public Key Algorithm: rsaEncryption
                Public-Key: (4096 bit)
                Modulus:
                    00:b1:0d:c7:c2:7c:8f:8b:7e:a6:d1:19:96:6e:8c:
                    30:e0:6b:41:2b:6e:b5:d9:07:2a:2a:63:73:bb:31:
                    16:2d:b0:39:a6:68:da:ed:96:d3:b8:dc:2f:d5:0d:
                    6b:f3:01:04:ef:c8:19:31:63:8a:81:0e:5c:89:4f:
                    7d:2f:58:a9:49:18:39:1a:0e:dd:61:99:5a:9a:01:
                    eb:e8:97:87:eb:f2:65:7a:e4:8b:8e:a5:b6:38:e6:
                    76:77:d9:dd:8e:a6:a2:da:cb:f0:c5:63:0a:0b:dd:
                    18:30:e2:c5:1f:2f:11:22:69:c9:86:37:fb:d2:55:
                    cf:7c:af:99:9a:af:58:61:b7:d4:30:b4:b8:b6:01:
                    45:da:b4:ef:4f:99:a3:47:62:4b:0c:42:d7:0d:ca:
                    75:b9:d5:95:ff:26:00:72:2a:75:20:32:f4:34:ff:
                    3d:1b:de:c8:2a:10:8c:cb:3e:5b:15:6d:bd:08:0c:
                    94:04:ee:c4:a0:70:c2:48:d4:21:e2:df:72:7a:82:
                    ef:d1:1a:64:05:a4:e4:49:a4:d3:3d:9b:f6:d5:3c:
                    34:f1:95:69:42:4c:39:06:02:9a:89:96:fe:8f:7c:
                    39:b3:61:50:1c:86:b4:f4:69:46:a5:bb:23:63:6e:
                    27:33:4b:ed:cb:0e:65:c6:c0:04:df:51:85:ad:40:
                    d5:73:44:ac:e4:dc:33:98:09:15:6f:7e:e5:22:71:
                    10:24:2e:78:54:43:6f:3a:05:b4:08:1f:50:9a:28:
                    dc:1f:3d:70:d3:07:24:00:5c:b2:10:35:0d:e8:03:
                    68:70:e4:bc:d7:fb:42:30:07:a0:19:9d:b2:ea:57:
                    b2:b9:db:76:27:ea:51:f6:40:d8:38:0c:41:b1:52:
                    b5:18:c6:36:c9:7b:22:7e:60:d5:b2:56:d7:4a:cc:
                    3a:1c:34:0a:e6:c3:b3:dd:f8:ae:fe:ef:af:69:43:
                    ef:e7:57:a2:94:58:07:f3:8b:c1:48:cf:bb:8d:5c:
                    0d:76:28:65:43:5d:a9:9b:95:ef:5b:b9:0f:0d:41:
                    81:b4:c8:e5:8c:31:2d:02:90:99:55:b0:59:b0:07:
                    fc:00:bc:0c:18:c8:9d:04:8c:35:79:4b:73:56:ac:
                    b6:43:dd:c1:b0:64:bc:76:10:21:37:2f:fe:98:28:
                    04:82:9a:ad:98:51:fc:e5:5f:af:0b:2a:85:1f:7b:
                    ee:0f:5c:0b:8c:d6:e4:68:47:4a:dd:f0:95:20:a4:
                    4c:64:a4:a3:76:6c:b5:6f:14:44:21:b8:d9:13:1c:
                    f3:64:21:8d:a7:d4:08:a6:ac:5c:12:1a:5a:5f:c6:
                    e5:f4:a6:d0:02:f8:00:b6:6f:3b:df:e2:3d:d3:fa:
                    e4:7b:45
                Exponent: 65537 (0x10001)
        X509v3 extensions:
            X509v3 Basic Constraints: 
                CA:FALSE
            Netscape Comment: 
                Easy-RSA Generated Certificate
            X509v3 Subject Key Identifier: 
                EA:46:17:54:EF:08:EA:35:6C:1B:90:4B:BD:4C:B9:E5:4E:E3:5D:32
            X509v3 Authority Key Identifier: 
                keyid:EF:38:8D:14:50:58:A7:5B:4D:9C:17:72:FC:DF:B9:AC:A7:51:B0:10
                DirName:/C=US/ST=CA/L=SanFrancisco/O=Pixglo, Inc./OU=VPN-CIE/CN=tunnel.pixglo.com/name=Bala Chandrasekaran/emailAddress=bala@pixglo.com
                serial:A6:DB:C6:83:80:E6:A0:79

            X509v3 Extended Key Usage: 
                TLS Web Client Authentication
            X509v3 Key Usage: 
                Digital Signature
    Signature Algorithm: sha1WithRSAEncryption
         93:33:af:6c:c1:83:e1:f8:3a:b1:b6:8f:31:a3:39:e7:bd:9f:
         e8:fb:de:cb:99:83:37:aa:b3:aa:00:fd:cd:42:5b:2b:7d:4f:
         6d:64:d8:35:11:a2:0d:81:02:ba:49:72:34:e8:01:91:e4:a1:
         b3:70:72:8b:9d:bf:94:f9:b2:b6:94:31:fb:9d:07:a8:54:e1:
         ff:6f:7c:6f:8c:93:f0:b5:ad:ea:c2:3b:bb:21:12:fc:3e:50:
         6b:9e:5c:6d:4e:79:7c:5e:fc:19:de:86:d7:9e:71:8d:02:cd:
         cb:a3:0e:83:7d:cf:3f:21:1e:c3:9f:0e:bc:af:12:dc:54:98:
         38:d0:02:fd:51:80:1a:68:f9:2c:fc:6a:18:6c:5e:2a:d9:47:
         34:31:99:63:a3:70:7e:9f:ef:84:26:de:b9:c8:52:73:b1:71:
         5e:89:1f:6c:4b:e5:f8:f4:1c:69:68:5d:49:e8:62:f8:60:d5:
         c3:f7:ec:56:39:5c:cb:ff:8d:9c:61:db:a4:cd:05:3b:ee:c5:
         3f:b9:df:8c:dc:7a:4c:3e:19:95:88:62:26:6d:cb:83:2f:78:
         d6:83:ed:e9:7b:99:12:72:b7:56:e9:88:71:7f:29:1f:ec:04:
         3d:2a:e6:da:b7:67:5a:f5:c5:a8:76:f8:41:1d:60:95:3a:5e:
         6e:88:3a:b4:cf:ab:c0:80:f2:9f:0d:79:77:cd:b8:c4:3f:0b:
         70:f5:c9:7e:7d:87:b6:2a:20:b2:cc:44:41:8b:5b:a9:41:78:
         88:99:36:f1:8c:36:e4:f7:d4:af:29:a3:a2:ab:33:a9:4b:2f:
         93:97:a6:70:ad:b9:aa:fa:33:ef:1a:b2:6d:19:28:f3:02:25:
         b9:b7:f6:9e:cf:ff:0d:a4:f5:af:d1:4f:1f:2e:a3:d8:d1:21:
         7e:89:51:3a:37:06:f8:6a:c1:ec:9a:15:76:5f:72:36:2c:69:
         67:a2:79:e2:13:7c:de:4e:ad:96:34:2b:cc:6f:d6:a2:98:07:
         7d:1b:5f:a2:eb:34:a2:d9:80:99:a6:f7:f8:d2:8b:0b:49:98:
         67:b0:53:eb:ec:61:9d:a2:c8:15:03:c6:e9:19:f0:68:ff:a9:
         80:85:bf:50:02:c3:23:f9:c0:9c:eb:b9:4b:12:88:22:bc:28:
         02:50:6f:75:bc:b0:3e:c0:51:40:ed:9d:23:95:dc:fb:4f:8c:
         0b:eb:11:40:b5:6d:eb:a0:b4:5d:d0:ba:d9:8d:3f:d6:f3:07:
         64:ad:c9:38:21:6a:ad:54:bc:17:64:c5:de:9e:d7:3c:1e:15:
         d7:69:df:4a:ea:2d:e6:72:f7:17:11:d7:a4:e2:e0:e0:09:ad:
         d1:e8:41:45:cf:61:ee:89
-----BEGIN CERTIFICATE-----
MIIHSDCCBTCgAwIBAgICAcQwDQYJKoZIhvcNAQEFBQAwgbQxCzAJBgNVBAYTAlVT
MQswCQYDVQQIEwJDQTEVMBMGA1UEBxMMU2FuRnJhbmNpc2NvMRUwEwYDVQQKEwxQ
aXhnbG8sIEluYy4xEDAOBgNVBAsTB1ZQTi1DSUUxGjAYBgNVBAMTEXR1bm5lbC5w
aXhnbG8uY29tMRwwGgYDVQQpExNCYWxhIENoYW5kcmFzZWthcmFuMR4wHAYJKoZI
hvcNAQkBFg9iYWxhQHBpeGdsby5jb20wHhcNMTgwMjE0MDYzNDI1WhcNMjgwMjEy
MDYzNDI1WjCBqTELMAkGA1UEBhMCVVMxCzAJBgNVBAgTAkNBMRUwEwYDVQQHEwxT
YW5GcmFuY2lzY28xFTATBgNVBAoTDFBpeGdsbywgSW5jLjEQMA4GA1UECxMHVlBO
LUNJRTEPMA0GA1UEAxMGY2llNDUxMRwwGgYDVQQpExNCYWxhIENoYW5kcmFzZWth
cmFuMR4wHAYJKoZIhvcNAQkBFg9iYWxhQHBpeGdsby5jb20wggIiMA0GCSqGSIb3
DQEBAQUAA4ICDwAwggIKAoICAQCxDcfCfI+LfqbRGZZujDDga0ErbrXZByoqY3O7
MRYtsDmmaNrtltO43C/VDWvzAQTvyBkxY4qBDlyJT30vWKlJGDkaDt1hmVqaAevo
l4fr8mV65IuOpbY45nZ32d2OpqLay/DFYwoL3Rgw4sUfLxEiacmGN/vSVc98r5ma
r1hht9QwtLi2AUXatO9PmaNHYksMQtcNynW51ZX/JgByKnUgMvQ0/z0b3sgqEIzL
PlsVbb0IDJQE7sSgcMJI1CHi33J6gu/RGmQFpORJpNM9m/bVPDTxlWlCTDkGApqJ
lv6PfDmzYVAchrT0aUaluyNjbiczS+3LDmXGwATfUYWtQNVzRKzk3DOYCRVvfuUi
cRAkLnhUQ286BbQIH1CaKNwfPXDTByQAXLIQNQ3oA2hw5LzX+0IwB6AZnbLqV7K5
23Yn6lH2QNg4DEGxUrUYxjbJeyJ+YNWyVtdKzDocNArmw7Pd+K7+769pQ+/nV6KU
WAfzi8FIz7uNXA12KGVDXamble9buQ8NQYG0yOWMMS0CkJlVsFmwB/wAvAwYyJ0E
jDV5S3NWrLZD3cGwZLx2ECE3L/6YKASCmq2YUfzlX68LKoUfe+4PXAuM1uRoR0rd
8JUgpExkpKN2bLVvFEQhuNkTHPNkIY2n1AimrFwSGlpfxuX0ptAC+AC2bzvf4j3T
+uR7RQIDAQABo4IBazCCAWcwCQYDVR0TBAIwADAtBglghkgBhvhCAQ0EIBYeRWFz
eS1SU0EgR2VuZXJhdGVkIENlcnRpZmljYXRlMB0GA1UdDgQWBBTqRhdU7wjqNWwb
kEu9TLnlTuNdMjCB6QYDVR0jBIHhMIHegBTvOI0UUFinW02cF3L837msp1GwEKGB
uqSBtzCBtDELMAkGA1UEBhMCVVMxCzAJBgNVBAgTAkNBMRUwEwYDVQQHEwxTYW5G
cmFuY2lzY28xFTATBgNVBAoTDFBpeGdsbywgSW5jLjEQMA4GA1UECxMHVlBOLUNJ
RTEaMBgGA1UEAxMRdHVubmVsLnBpeGdsby5jb20xHDAaBgNVBCkTE0JhbGEgQ2hh
bmRyYXNla2FyYW4xHjAcBgkqhkiG9w0BCQEWD2JhbGFAcGl4Z2xvLmNvbYIJAKbb
xoOA5qB5MBMGA1UdJQQMMAoGCCsGAQUFBwMCMAsGA1UdDwQEAwIHgDANBgkqhkiG
9w0BAQUFAAOCAgEAkzOvbMGD4fg6sbaPMaM5572f6Pvey5mDN6qzqgD9zUJbK31P
bWTYNRGiDYECuklyNOgBkeShs3Byi52/lPmytpQx+50HqFTh/298b4yT8LWt6sI7
uyES/D5Qa55cbU55fF78Gd6G155xjQLNy6MOg33PPyEew58OvK8S3FSYONAC/VGA
Gmj5LPxqGGxeKtlHNDGZY6Nwfp/vhCbeuchSc7FxXokfbEvl+PQcaWhdSehi+GDV
w/fsVjlcy/+NnGHbpM0FO+7FP7nfjNx6TD4ZlYhiJm3Lgy941oPt6XuZEnK3VumI
cX8pH+wEPSrm2rdnWvXFqHb4QR1glTpebog6tM+rwIDynw15d824xD8LcPXJfn2H
tiogssxEQYtbqUF4iJk28Yw25PfUrymjoqszqUsvk5emcK25qvoz7xqybRko8wIl
ubf2ns//DaT1r9FPHy6j2NEhfolROjcG+GrB7JoVdl9yNixpZ6J54hN83k6tljQr
zG/WopgHfRtfous0otmAmab3+NKLC0mYZ7BT6+xhnaLIFQPG6RnwaP+pgIW/UALD
I/nAnOu5SxKIIrwoAlBvdbywPsBRQO2dI5Xc+0+MC+sRQLVt66C0XdC62Y0/1vMH
ZK3JOCFqrVS8F2TF3p7XPB4V12nfSuot5nL3FxHXpOLg4Amt0ehBRc9h7ok=
-----END CERTIFICATE-----
