Certificate:
    Data:
        Version: 3 (0x2)
        Serial Number: 455 (0x1c7)
    Signature Algorithm: sha1WithRSAEncryption
        Issuer: C=US, ST=CA, L=SanFrancisco, O=Pixglo, Inc., OU=VPN-CIE, CN=tunnel.pixglo.com/name=Bala Chandrasekaran/emailAddress=bala@pixglo.com
        Validity
            Not Before: Feb 14 06:34:29 2018 GMT
            Not After : Feb 12 06:34:29 2028 GMT
        Subject: C=US, ST=CA, L=SanFrancisco, O=Pixglo, Inc., OU=VPN-CIE, CN=cie454/name=Bala Chandrasekaran/emailAddress=bala@pixglo.com
        Subject Public Key Info:
            Public Key Algorithm: rsaEncryption
                Public-Key: (4096 bit)
                Modulus:
                    00:e4:a0:75:b3:73:c6:83:05:51:11:43:5b:14:de:
                    59:8a:6f:6e:f8:6b:86:93:3e:fb:3a:b8:d2:e0:ec:
                    a6:2e:1f:c7:c8:ea:1c:7b:7f:82:90:3c:59:4f:a8:
                    23:b3:b9:2b:bb:f3:93:b3:69:1f:57:a2:3a:96:de:
                    83:a2:45:e8:01:fc:41:b8:ec:85:9b:fd:ff:78:20:
                    4d:04:bd:c2:1c:43:54:1f:8c:6f:09:da:63:4f:01:
                    97:b7:09:2d:5b:23:b4:da:a3:f1:0a:e8:59:39:4e:
                    fa:80:70:6c:33:9f:de:d3:c6:4b:43:6c:e5:c8:c1:
                    d6:61:1e:bf:2b:b5:ee:52:1f:72:4c:22:1a:6d:86:
                    54:89:71:4d:8d:6e:18:dd:1e:93:52:bd:59:19:aa:
                    2d:56:37:36:fe:39:c9:99:c2:9c:fe:42:6f:2b:94:
                    8c:78:2b:6e:ad:0a:42:2e:32:47:1c:d2:ea:af:86:
                    cc:ea:aa:9e:5e:29:05:2d:cd:94:83:6c:7c:84:8b:
                    1b:e9:56:99:f2:e9:a2:ea:04:2a:9f:a8:d1:53:b3:
                    46:51:ab:e0:95:e0:26:02:d8:27:30:a8:e7:af:9a:
                    e0:e1:de:d7:28:4c:95:b1:94:87:27:3f:30:63:ee:
                    4d:af:5c:46:72:88:39:0a:00:4a:35:80:ef:73:a8:
                    5b:39:de:18:af:17:79:83:26:19:65:16:47:81:91:
                    c3:81:a6:ea:2b:0a:c7:e4:83:14:1d:86:22:f6:ce:
                    2f:b9:cb:db:f1:03:68:7c:62:0e:d8:31:e4:01:5e:
                    d5:07:dc:db:2e:8c:62:f3:c6:02:9e:12:af:c6:11:
                    d8:e5:a8:a3:0d:19:81:3c:d3:5c:a2:fe:c5:7f:4d:
                    92:94:95:f2:02:5e:14:c6:3b:5c:55:37:97:08:2c:
                    c3:1b:54:66:ea:5c:7f:25:c1:8a:08:86:2f:6c:91:
                    4a:a8:e5:eb:1e:77:58:75:c4:f5:d2:79:73:56:94:
                    cc:87:61:31:68:ee:79:33:a8:79:3e:a9:66:fc:a3:
                    f5:b0:8f:92:3a:d5:5d:db:c4:13:60:d6:9c:d1:10:
                    57:aa:dd:64:ed:98:f0:fc:d6:52:53:c2:b5:c1:7b:
                    99:37:8a:1a:30:55:d0:0e:db:6f:fc:eb:e2:51:65:
                    d1:16:2b:53:27:57:41:7f:32:83:f1:9f:61:f3:a9:
                    9d:18:95:6e:db:95:d1:ef:c8:08:55:1b:4c:75:e0:
                    df:cf:b1:bf:62:3f:94:82:0a:8b:a6:40:a8:b9:47:
                    41:d7:fb:9c:fb:cc:e6:13:b2:19:96:02:ae:1d:07:
                    45:a9:52:37:76:b1:9a:17:80:78:ff:9e:8b:83:17:
                    0b:cf:c5
                Exponent: 65537 (0x10001)
        X509v3 extensions:
            X509v3 Basic Constraints: 
                CA:FALSE
            Netscape Comment: 
                Easy-RSA Generated Certificate
            X509v3 Subject Key Identifier: 
                F6:4F:C4:BF:6F:34:23:5D:EC:3F:0A:EE:33:5D:16:87:1A:EF:EB:8F
            X509v3 Authority Key Identifier: 
                keyid:EF:38:8D:14:50:58:A7:5B:4D:9C:17:72:FC:DF:B9:AC:A7:51:B0:10
                DirName:/C=US/ST=CA/L=SanFrancisco/O=Pixglo, Inc./OU=VPN-CIE/CN=tunnel.pixglo.com/name=Bala Chandrasekaran/emailAddress=bala@pixglo.com
                serial:A6:DB:C6:83:80:E6:A0:79

            X509v3 Extended Key Usage: 
                TLS Web Client Authentication
            X509v3 Key Usage: 
                Digital Signature
    Signature Algorithm: sha1WithRSAEncryption
         84:e0:c1:f3:9e:11:a7:e7:60:3c:9c:0e:12:ed:3c:ab:20:b2:
         68:8b:0f:9b:50:fb:b9:30:42:2d:14:8d:52:21:b4:18:c1:da:
         c4:4b:13:59:10:30:2b:38:9c:ee:84:76:0b:48:fe:c4:e6:fb:
         c5:94:8a:2f:3a:b7:3a:8b:06:d6:0b:4a:8f:6a:7b:40:33:80:
         8a:f4:d1:e4:be:d0:53:c5:f3:07:ae:be:4a:15:40:c0:fc:06:
         fc:c6:5d:a2:d4:fd:e8:23:05:81:ec:5f:bf:3c:c2:a7:bb:e6:
         50:2a:41:d2:e9:c4:32:80:ed:c8:29:0c:4d:4b:49:fc:5d:0b:
         99:0e:5f:cb:72:d5:cf:28:7f:20:30:bd:ba:00:8d:b0:ba:4f:
         2f:54:6f:cf:85:7d:dc:1e:22:df:64:91:a6:3f:ab:57:c9:4d:
         d1:86:3c:bd:03:5d:af:b9:7f:b9:9c:3a:f4:cf:cd:e6:17:14:
         d6:eb:90:fc:0c:b8:00:f9:8d:ee:73:a9:d2:5d:77:24:d1:87:
         bc:c2:fe:f5:39:f9:e9:de:fc:dd:68:d0:2e:1d:60:fc:11:0a:
         1a:a0:1f:e7:7a:90:7e:ec:2c:09:52:ee:7d:c7:04:16:f4:73:
         e3:be:f7:ae:95:f1:10:a0:c3:d5:16:10:17:2a:47:d8:84:7c:
         96:8d:f9:82:48:57:f3:89:16:dd:ad:d2:56:d9:55:e4:00:77:
         c6:2f:67:f4:ea:50:66:f0:14:52:9d:dc:e3:fe:85:8b:32:32:
         45:bd:dd:aa:8e:11:fd:ae:93:5e:d9:25:ed:ee:96:33:10:44:
         7c:e9:a2:4d:5d:db:45:ed:3e:be:a0:a7:69:a6:3d:7c:52:53:
         c1:01:50:a7:54:ca:cf:e6:2f:5a:02:ac:5f:89:fd:8d:41:02:
         fe:a3:b6:41:db:ab:23:91:8f:94:5e:e0:32:40:db:7e:22:06:
         07:03:75:36:9d:4e:20:58:f3:9a:9c:33:30:26:19:70:9d:fa:
         3f:8a:5c:99:26:ff:ed:7e:c7:cb:bf:4f:4a:aa:03:89:9f:03:
         62:79:23:99:60:82:ab:2f:de:06:e8:81:8f:2f:58:08:2f:fb:
         a9:25:c8:fe:e8:22:d7:c9:7f:42:19:90:5a:2e:d5:40:f1:4a:
         c5:20:b4:09:5b:ca:14:a2:ca:50:21:03:c1:ba:53:f6:93:07:
         40:44:c4:47:5f:fb:6d:59:bc:93:62:6c:e7:ae:82:72:62:8f:
         6f:76:d4:0c:cf:99:c7:47:3a:21:28:b1:8e:8e:28:02:cb:f3:
         65:30:c1:eb:54:38:55:1a:ed:2a:c4:fd:8e:52:93:18:d2:8e:
         72:5f:21:de:1e:81:b1:49
-----BEGIN CERTIFICATE-----
MIIHSDCCBTCgAwIBAgICAccwDQYJKoZIhvcNAQEFBQAwgbQxCzAJBgNVBAYTAlVT
MQswCQYDVQQIEwJDQTEVMBMGA1UEBxMMU2FuRnJhbmNpc2NvMRUwEwYDVQQKEwxQ
aXhnbG8sIEluYy4xEDAOBgNVBAsTB1ZQTi1DSUUxGjAYBgNVBAMTEXR1bm5lbC5w
aXhnbG8uY29tMRwwGgYDVQQpExNCYWxhIENoYW5kcmFzZWthcmFuMR4wHAYJKoZI
hvcNAQkBFg9iYWxhQHBpeGdsby5jb20wHhcNMTgwMjE0MDYzNDI5WhcNMjgwMjEy
MDYzNDI5WjCBqTELMAkGA1UEBhMCVVMxCzAJBgNVBAgTAkNBMRUwEwYDVQQHEwxT
YW5GcmFuY2lzY28xFTATBgNVBAoTDFBpeGdsbywgSW5jLjEQMA4GA1UECxMHVlBO
LUNJRTEPMA0GA1UEAxMGY2llNDU0MRwwGgYDVQQpExNCYWxhIENoYW5kcmFzZWth
cmFuMR4wHAYJKoZIhvcNAQkBFg9iYWxhQHBpeGdsby5jb20wggIiMA0GCSqGSIb3
DQEBAQUAA4ICDwAwggIKAoICAQDkoHWzc8aDBVERQ1sU3lmKb274a4aTPvs6uNLg
7KYuH8fI6hx7f4KQPFlPqCOzuSu785OzaR9XojqW3oOiRegB/EG47IWb/f94IE0E
vcIcQ1QfjG8J2mNPAZe3CS1bI7Tao/EK6Fk5TvqAcGwzn97TxktDbOXIwdZhHr8r
te5SH3JMIhpthlSJcU2NbhjdHpNSvVkZqi1WNzb+OcmZwpz+Qm8rlIx4K26tCkIu
Mkcc0uqvhszqqp5eKQUtzZSDbHyEixvpVpny6aLqBCqfqNFTs0ZRq+CV4CYC2Ccw
qOevmuDh3tcoTJWxlIcnPzBj7k2vXEZyiDkKAEo1gO9zqFs53hivF3mDJhllFkeB
kcOBpuorCsfkgxQdhiL2zi+5y9vxA2h8Yg7YMeQBXtUH3NsujGLzxgKeEq/GEdjl
qKMNGYE801yi/sV/TZKUlfICXhTGO1xVN5cILMMbVGbqXH8lwYoIhi9skUqo5ese
d1h1xPXSeXNWlMyHYTFo7nkzqHk+qWb8o/Wwj5I61V3bxBNg1pzREFeq3WTtmPD8
1lJTwrXBe5k3ihowVdAO22/86+JRZdEWK1MnV0F/MoPxn2HzqZ0YlW7bldHvyAhV
G0x14N/Psb9iP5SCCoumQKi5R0HX+5z7zOYTshmWAq4dB0WpUjd2sZoXgHj/nouD
FwvPxQIDAQABo4IBazCCAWcwCQYDVR0TBAIwADAtBglghkgBhvhCAQ0EIBYeRWFz
eS1SU0EgR2VuZXJhdGVkIENlcnRpZmljYXRlMB0GA1UdDgQWBBT2T8S/bzQjXew/
Cu4zXRaHGu/rjzCB6QYDVR0jBIHhMIHegBTvOI0UUFinW02cF3L837msp1GwEKGB
uqSBtzCBtDELMAkGA1UEBhMCVVMxCzAJBgNVBAgTAkNBMRUwEwYDVQQHEwxTYW5G
cmFuY2lzY28xFTATBgNVBAoTDFBpeGdsbywgSW5jLjEQMA4GA1UECxMHVlBOLUNJ
RTEaMBgGA1UEAxMRdHVubmVsLnBpeGdsby5jb20xHDAaBgNVBCkTE0JhbGEgQ2hh
bmRyYXNla2FyYW4xHjAcBgkqhkiG9w0BCQEWD2JhbGFAcGl4Z2xvLmNvbYIJAKbb
xoOA5qB5MBMGA1UdJQQMMAoGCCsGAQUFBwMCMAsGA1UdDwQEAwIHgDANBgkqhkiG
9w0BAQUFAAOCAgEAhODB854Rp+dgPJwOEu08qyCyaIsPm1D7uTBCLRSNUiG0GMHa
xEsTWRAwKzic7oR2C0j+xOb7xZSKLzq3OosG1gtKj2p7QDOAivTR5L7QU8XzB66+
ShVAwPwG/MZdotT96CMFgexfvzzCp7vmUCpB0unEMoDtyCkMTUtJ/F0LmQ5fy3LV
zyh/IDC9ugCNsLpPL1Rvz4V93B4i32SRpj+rV8lN0YY8vQNdr7l/uZw69M/N5hcU
1uuQ/Ay4APmN7nOp0l13JNGHvML+9Tn56d783WjQLh1g/BEKGqAf53qQfuwsCVLu
fccEFvRz4773rpXxEKDD1RYQFypH2IR8lo35gkhX84kW3a3SVtlV5AB3xi9n9OpQ
ZvAUUp3c4/6FizIyRb3dqo4R/a6TXtkl7e6WMxBEfOmiTV3bRe0+vqCnaaY9fFJT
wQFQp1TKz+YvWgKsX4n9jUEC/qO2QdurI5GPlF7gMkDbfiIGBwN1Np1OIFjzmpwz
MCYZcJ36P4pcmSb/7X7Hy79PSqoDiZ8DYnkjmWCCqy/eBuiBjy9YCC/7qSXI/ugi
18l/QhmQWi7VQPFKxSC0CVvKFKLKUCEDwbpT9pMHQETER1/7bVm8k2Js566CcmKP
b3bUDM+Zx0c6ISixjo4oAsvzZTDB61Q4VRrtKsT9jlKTGNKOcl8h3h6BsUk=
-----END CERTIFICATE-----
