Certificate:
    Data:
        Version: 3 (0x2)
        Serial Number: 456 (0x1c8)
    Signature Algorithm: sha1WithRSAEncryption
        Issuer: C=US, ST=CA, L=SanFrancisco, O=Pixglo, Inc., OU=VPN-CIE, CN=tunnel.pixglo.com/name=Bala Chandrasekaran/emailAddress=bala@pixglo.com
        Validity
            Not Before: Feb 14 06:34:30 2018 GMT
            Not After : Feb 12 06:34:30 2028 GMT
        Subject: C=US, ST=CA, L=SanFrancisco, O=Pixglo, Inc., OU=VPN-CIE, CN=cie455/name=Bala Chandrasekaran/emailAddress=bala@pixglo.com
        Subject Public Key Info:
            Public Key Algorithm: rsaEncryption
                Public-Key: (4096 bit)
                Modulus:
                    00:ba:df:9e:87:a8:0d:d0:bd:41:13:9d:f9:3f:f1:
                    ed:00:c1:01:05:b7:c3:d5:8a:a9:7e:90:73:e4:cd:
                    af:78:99:3b:52:1c:24:fd:d6:50:ba:3d:8b:66:53:
                    b7:6a:3d:28:ab:1e:31:b2:01:0d:f3:fc:52:ef:45:
                    16:e9:8c:33:27:54:b8:1e:05:32:d1:4e:00:54:07:
                    74:fe:80:a6:d4:60:35:1d:32:e6:9f:bf:dd:da:5f:
                    b3:b9:0a:22:b3:59:0b:56:b6:26:78:99:e1:5c:1e:
                    09:c9:9e:78:ab:e3:1a:70:95:ca:17:a2:33:f0:ea:
                    5b:cf:22:f3:cf:cc:7b:8e:90:43:0b:ac:54:1d:9c:
                    e3:63:5a:80:51:ac:6c:5f:36:43:f8:62:f6:18:48:
                    20:91:b4:fd:df:93:d0:0d:e4:74:ed:60:52:2b:fc:
                    d9:96:29:2c:dd:b3:e4:b0:2b:ad:5e:5e:11:8f:36:
                    65:80:5c:75:06:0f:e7:44:c3:eb:f3:a3:b6:9a:81:
                    1c:93:ee:a7:5f:ee:a2:6b:f1:64:ad:5b:5e:e1:d9:
                    15:2b:56:83:36:8d:e5:52:f0:54:16:dc:20:cd:25:
                    e9:b4:ca:3e:53:e6:18:1a:96:83:82:17:af:76:d8:
                    af:34:8c:eb:02:78:77:b6:14:47:c7:4b:d4:8d:7f:
                    ed:48:24:13:86:b3:b9:4f:07:52:bb:8a:05:e2:a0:
                    7d:6a:6f:bb:78:a0:0b:45:60:d8:aa:f8:be:6c:7b:
                    35:55:c0:ec:14:bb:7d:a6:45:86:63:71:7e:49:28:
                    69:47:6b:2e:60:2d:8f:3b:cc:79:3a:9c:79:66:77:
                    a8:8c:80:5d:4d:bf:3b:91:e3:7d:f7:e3:6f:c1:00:
                    54:fa:50:17:40:4d:4e:3c:14:f9:e1:75:69:aa:b8:
                    6e:da:e5:d4:b6:22:a2:29:d6:44:39:ca:2b:2d:5e:
                    d0:49:29:75:5d:44:b1:5c:3b:bd:e3:e7:b9:11:56:
                    05:a4:e0:28:a0:65:fc:17:8c:84:4b:14:b7:59:9f:
                    7b:b7:eb:f5:de:65:d8:06:5a:d4:a5:f1:56:db:03:
                    8d:72:ec:c2:29:15:73:73:cc:41:f3:e7:8b:6f:59:
                    86:b1:e2:74:83:7d:0f:9c:e1:64:82:40:74:e0:6e:
                    a9:f4:4c:fc:40:c4:9b:a4:da:cf:e4:7c:44:6b:e9:
                    32:a2:87:2d:4e:05:53:49:c3:5d:3b:11:d6:8e:39:
                    b6:c2:6a:27:d4:d1:56:14:68:aa:a7:29:ec:4a:b8:
                    ce:48:c6:ec:61:aa:ae:3c:0d:c3:61:51:ea:aa:8e:
                    df:2c:3d:94:8c:73:ad:24:37:6c:b5:72:6b:a3:ab:
                    3a:ad:a9
                Exponent: 65537 (0x10001)
        X509v3 extensions:
            X509v3 Basic Constraints: 
                CA:FALSE
            Netscape Comment: 
                Easy-RSA Generated Certificate
            X509v3 Subject Key Identifier: 
                D9:DB:A8:0A:27:9E:BD:B1:BE:5E:D1:A4:A7:5F:67:C7:7E:AB:73:5F
            X509v3 Authority Key Identifier: 
                keyid:EF:38:8D:14:50:58:A7:5B:4D:9C:17:72:FC:DF:B9:AC:A7:51:B0:10
                DirName:/C=US/ST=CA/L=SanFrancisco/O=Pixglo, Inc./OU=VPN-CIE/CN=tunnel.pixglo.com/name=Bala Chandrasekaran/emailAddress=bala@pixglo.com
                serial:A6:DB:C6:83:80:E6:A0:79

            X509v3 Extended Key Usage: 
                TLS Web Client Authentication
            X509v3 Key Usage: 
                Digital Signature
    Signature Algorithm: sha1WithRSAEncryption
         9c:f0:16:8d:0e:b8:b9:6f:50:ed:c3:5a:32:6b:54:ba:b1:5d:
         eb:1b:b6:9e:1c:eb:c0:a2:da:7c:d4:e8:56:91:7c:7f:f6:a5:
         63:fa:18:12:f8:82:26:a9:be:5f:56:c9:a1:74:44:1b:fc:dc:
         cd:12:65:26:71:76:35:0e:b4:b0:ed:36:8c:41:46:70:46:56:
         f5:e5:5c:5a:2c:bd:ff:a8:ee:c2:0a:19:8c:15:97:aa:32:dc:
         96:28:b0:29:b9:26:a6:76:12:97:03:5b:99:06:b5:59:8b:84:
         21:fc:8a:5c:b6:70:49:99:1a:65:2f:60:95:79:27:9d:e9:95:
         ed:01:b4:57:a3:f9:df:60:4f:a4:48:e6:67:ba:73:d2:b5:ad:
         f1:3a:76:33:f6:1d:4e:aa:6a:2c:1f:d7:03:48:5a:b3:bc:a6:
         18:55:32:cb:d5:b3:19:e7:f0:e7:08:61:64:f5:18:e8:d8:66:
         b0:ca:e9:ac:df:07:65:a4:7a:40:b5:fb:f9:2c:63:7c:9d:0e:
         e0:a7:ad:90:35:26:ea:b5:a3:70:25:7d:9d:8c:bc:77:d3:a6:
         d6:65:46:cb:c5:ea:bd:d7:cd:ce:fa:95:e7:32:05:3e:1d:ae:
         d4:97:51:2c:c7:34:63:ec:6d:77:23:3f:97:fa:24:b5:ac:88:
         b5:14:d6:b9:2a:0d:7a:a9:6c:a6:61:0d:06:ea:86:51:5b:54:
         4d:ba:eb:d8:4a:db:fc:23:fd:7d:a7:5d:94:4a:e7:17:04:6b:
         c2:cc:f2:8d:93:f7:16:86:7e:c7:e0:19:23:b3:6d:04:17:21:
         79:ef:aa:ed:40:2b:32:21:cd:4a:59:db:c8:27:b6:c6:ec:95:
         38:c9:c3:86:8f:8b:4d:e1:f8:c0:26:4f:67:7c:70:62:49:33:
         d9:fe:51:19:55:50:b6:f6:14:0a:12:84:58:0a:20:35:c9:93:
         69:cb:29:fb:1a:2b:e0:86:54:af:ba:69:c9:dc:d7:42:13:67:
         27:c8:65:87:a1:66:d5:88:74:f2:61:ee:66:59:5f:13:d5:f2:
         e3:9b:26:f7:60:b4:6b:e0:56:42:49:0a:63:86:5e:44:93:97:
         bb:bc:2d:4f:60:79:d0:c0:1f:23:c7:04:37:5d:eb:7c:38:90:
         f9:13:53:54:51:3f:f2:87:8e:c8:44:9f:b4:39:a2:cf:a9:d7:
         0d:0e:85:60:a6:77:48:10:75:6f:37:21:d9:1b:42:5f:f6:7f:
         92:75:4b:74:15:50:1c:f1:1a:6d:e6:71:7f:5c:47:dd:a0:fb:
         9d:4c:8a:ce:27:4d:3e:d3:a1:18:9b:f2:61:1d:7e:2d:9e:da:
         d1:89:b8:79:c5:42:90:39
-----BEGIN CERTIFICATE-----
MIIHSDCCBTCgAwIBAgICAcgwDQYJKoZIhvcNAQEFBQAwgbQxCzAJBgNVBAYTAlVT
MQswCQYDVQQIEwJDQTEVMBMGA1UEBxMMU2FuRnJhbmNpc2NvMRUwEwYDVQQKEwxQ
aXhnbG8sIEluYy4xEDAOBgNVBAsTB1ZQTi1DSUUxGjAYBgNVBAMTEXR1bm5lbC5w
aXhnbG8uY29tMRwwGgYDVQQpExNCYWxhIENoYW5kcmFzZWthcmFuMR4wHAYJKoZI
hvcNAQkBFg9iYWxhQHBpeGdsby5jb20wHhcNMTgwMjE0MDYzNDMwWhcNMjgwMjEy
MDYzNDMwWjCBqTELMAkGA1UEBhMCVVMxCzAJBgNVBAgTAkNBMRUwEwYDVQQHEwxT
YW5GcmFuY2lzY28xFTATBgNVBAoTDFBpeGdsbywgSW5jLjEQMA4GA1UECxMHVlBO
LUNJRTEPMA0GA1UEAxMGY2llNDU1MRwwGgYDVQQpExNCYWxhIENoYW5kcmFzZWth
cmFuMR4wHAYJKoZIhvcNAQkBFg9iYWxhQHBpeGdsby5jb20wggIiMA0GCSqGSIb3
DQEBAQUAA4ICDwAwggIKAoICAQC6356HqA3QvUETnfk/8e0AwQEFt8PViql+kHPk
za94mTtSHCT91lC6PYtmU7dqPSirHjGyAQ3z/FLvRRbpjDMnVLgeBTLRTgBUB3T+
gKbUYDUdMuafv93aX7O5CiKzWQtWtiZ4meFcHgnJnnir4xpwlcoXojPw6lvPIvPP
zHuOkEMLrFQdnONjWoBRrGxfNkP4YvYYSCCRtP3fk9AN5HTtYFIr/NmWKSzds+Sw
K61eXhGPNmWAXHUGD+dEw+vzo7aagRyT7qdf7qJr8WStW17h2RUrVoM2jeVS8FQW
3CDNJem0yj5T5hgaloOCF6922K80jOsCeHe2FEfHS9SNf+1IJBOGs7lPB1K7igXi
oH1qb7t4oAtFYNiq+L5sezVVwOwUu32mRYZjcX5JKGlHay5gLY87zHk6nHlmd6iM
gF1NvzuR433342/BAFT6UBdATU48FPnhdWmquG7a5dS2IqIp1kQ5yistXtBJKXVd
RLFcO73j57kRVgWk4CigZfwXjIRLFLdZn3u36/XeZdgGWtSl8VbbA41y7MIpFXNz
zEHz54tvWYax4nSDfQ+c4WSCQHTgbqn0TPxAxJuk2s/kfERr6TKihy1OBVNJw107
EdaOObbCaifU0VYUaKqnKexKuM5Ixuxhqq48DcNhUeqqjt8sPZSMc60kN2y1cmuj
qzqtqQIDAQABo4IBazCCAWcwCQYDVR0TBAIwADAtBglghkgBhvhCAQ0EIBYeRWFz
eS1SU0EgR2VuZXJhdGVkIENlcnRpZmljYXRlMB0GA1UdDgQWBBTZ26gKJ569sb5e
0aSnX2fHfqtzXzCB6QYDVR0jBIHhMIHegBTvOI0UUFinW02cF3L837msp1GwEKGB
uqSBtzCBtDELMAkGA1UEBhMCVVMxCzAJBgNVBAgTAkNBMRUwEwYDVQQHEwxTYW5G
cmFuY2lzY28xFTATBgNVBAoTDFBpeGdsbywgSW5jLjEQMA4GA1UECxMHVlBOLUNJ
RTEaMBgGA1UEAxMRdHVubmVsLnBpeGdsby5jb20xHDAaBgNVBCkTE0JhbGEgQ2hh
bmRyYXNla2FyYW4xHjAcBgkqhkiG9w0BCQEWD2JhbGFAcGl4Z2xvLmNvbYIJAKbb
xoOA5qB5MBMGA1UdJQQMMAoGCCsGAQUFBwMCMAsGA1UdDwQEAwIHgDANBgkqhkiG
9w0BAQUFAAOCAgEAnPAWjQ64uW9Q7cNaMmtUurFd6xu2nhzrwKLafNToVpF8f/al
Y/oYEviCJqm+X1bJoXREG/zczRJlJnF2NQ60sO02jEFGcEZW9eVcWiy9/6juwgoZ
jBWXqjLcliiwKbkmpnYSlwNbmQa1WYuEIfyKXLZwSZkaZS9glXknnemV7QG0V6P5
32BPpEjmZ7pz0rWt8Tp2M/YdTqpqLB/XA0has7ymGFUyy9WzGefw5whhZPUY6Nhm
sMrprN8HZaR6QLX7+SxjfJ0O4KetkDUm6rWjcCV9nYy8d9Om1mVGy8XqvdfNzvqV
5zIFPh2u1JdRLMc0Y+xtdyM/l/oktayItRTWuSoNeqlspmENBuqGUVtUTbrr2Erb
/CP9faddlErnFwRrwszyjZP3FoZ+x+AZI7NtBBchee+q7UArMiHNSlnbyCe2xuyV
OMnDho+LTeH4wCZPZ3xwYkkz2f5RGVVQtvYUChKEWAogNcmTacsp+xor4IZUr7pp
ydzXQhNnJ8hlh6Fm1Yh08mHuZllfE9Xy45sm92C0a+BWQkkKY4ZeRJOXu7wtT2B5
0MAfI8cEN13rfDiQ+RNTVFE/8oeOyESftDmiz6nXDQ6FYKZ3SBB1bzch2RtCX/Z/
knVLdBVQHPEabeZxf1xH3aD7nUyKzidNPtOhGJvyYR1+LZ7a0Ym4ecVCkDk=
-----END CERTIFICATE-----
