Certificate:
    Data:
        Version: 3 (0x2)
        Serial Number: 457 (0x1c9)
    Signature Algorithm: sha1WithRSAEncryption
        Issuer: C=US, ST=CA, L=SanFrancisco, O=Pixglo, Inc., OU=VPN-CIE, CN=tunnel.pixglo.com/name=Bala Chandrasekaran/emailAddress=bala@pixglo.com
        Validity
            Not Before: Feb 14 06:34:31 2018 GMT
            Not After : Feb 12 06:34:31 2028 GMT
        Subject: C=US, ST=CA, L=SanFrancisco, O=Pixglo, Inc., OU=VPN-CIE, CN=cie456/name=Bala Chandrasekaran/emailAddress=bala@pixglo.com
        Subject Public Key Info:
            Public Key Algorithm: rsaEncryption
                Public-Key: (4096 bit)
                Modulus:
                    00:d0:df:3e:2d:6f:6e:37:99:14:8b:84:a5:55:cb:
                    38:93:98:25:77:a1:8b:33:11:1d:56:9b:90:6d:46:
                    45:96:49:2a:67:a9:a6:31:fc:5b:b7:76:c8:8d:d7:
                    1b:07:57:79:6e:e5:98:51:fd:71:c1:94:18:bd:29:
                    e4:0a:b3:5c:47:3b:45:a7:62:dc:bb:0d:f5:2a:10:
                    ff:bf:af:a1:01:9a:e3:7e:80:ef:86:1b:8a:e6:c6:
                    3b:77:2d:63:a2:65:2e:d5:67:1a:6b:5e:6c:ed:ec:
                    f5:d2:fe:91:f6:d3:bc:d0:48:f5:0d:54:ec:ee:80:
                    c0:a9:3a:e9:a8:92:f9:3e:c2:c8:42:4d:6b:15:1a:
                    02:53:c4:85:a1:66:ec:8d:18:24:21:c3:f8:11:07:
                    9d:e7:5b:b7:fc:23:be:fc:c6:3e:97:34:2c:34:a0:
                    3c:80:47:8d:16:d9:8d:5a:31:64:d9:8e:2e:c1:cf:
                    30:89:54:e7:50:af:91:78:d9:65:2a:63:7c:8a:f0:
                    3a:20:98:94:38:4c:d4:cc:50:e7:04:9d:fc:17:d9:
                    ef:76:91:b1:50:4a:ce:40:f7:16:47:d8:d8:3d:ab:
                    dc:9a:46:21:91:74:22:8a:0d:a7:84:92:36:49:4b:
                    c6:28:85:de:05:cb:ae:fe:01:60:af:81:c2:da:83:
                    f1:f6:05:ed:33:84:61:21:56:ce:83:ae:3b:54:eb:
                    24:35:b1:cd:1e:26:7f:47:aa:62:3d:49:fb:a8:3c:
                    ce:99:97:d5:04:48:4d:94:2c:9a:80:0c:b1:40:5e:
                    77:cf:9a:34:37:6b:b8:15:d9:96:44:a1:3c:f0:fc:
                    6a:c5:f6:ad:e9:96:ea:0e:ae:9c:02:de:15:23:29:
                    e9:06:37:1e:10:d5:88:71:f5:5a:fe:63:ad:53:62:
                    6c:f8:f9:09:59:43:62:fb:db:e2:67:cc:74:44:ff:
                    2c:e5:a3:20:fe:87:c8:11:60:de:ce:40:5f:db:16:
                    88:b2:c2:0b:20:28:7f:25:8a:2e:a8:83:84:00:cc:
                    79:d1:1c:76:40:8c:9e:88:a9:b0:36:6e:e9:00:6e:
                    fe:00:83:ad:d8:a3:c6:35:51:09:46:48:95:c0:73:
                    3e:bb:04:bd:e3:ba:ef:6b:e4:dd:8f:78:39:f4:4d:
                    8b:d3:22:d5:0e:f5:88:6d:63:e4:34:97:db:31:d2:
                    6b:3a:a5:5c:d1:56:58:13:11:ca:59:d0:14:57:c6:
                    e9:19:ea:24:18:e9:a3:ea:da:00:f4:09:0e:b8:39:
                    7a:23:c3:0c:4a:9c:a3:a2:f3:3a:dd:d5:b9:86:c8:
                    24:be:0a:07:7c:66:80:13:7d:ef:c6:c6:ad:08:fb:
                    ee:45:97
                Exponent: 65537 (0x10001)
        X509v3 extensions:
            X509v3 Basic Constraints: 
                CA:FALSE
            Netscape Comment: 
                Easy-RSA Generated Certificate
            X509v3 Subject Key Identifier: 
                E6:5F:05:CD:AC:1F:17:B2:3B:15:FA:19:E2:D3:19:EE:A0:DC:0B:29
            X509v3 Authority Key Identifier: 
                keyid:EF:38:8D:14:50:58:A7:5B:4D:9C:17:72:FC:DF:B9:AC:A7:51:B0:10
                DirName:/C=US/ST=CA/L=SanFrancisco/O=Pixglo, Inc./OU=VPN-CIE/CN=tunnel.pixglo.com/name=Bala Chandrasekaran/emailAddress=bala@pixglo.com
                serial:A6:DB:C6:83:80:E6:A0:79

            X509v3 Extended Key Usage: 
                TLS Web Client Authentication
            X509v3 Key Usage: 
                Digital Signature
    Signature Algorithm: sha1WithRSAEncryption
         53:03:a4:20:6c:64:f0:ef:2e:cc:f4:b8:60:6a:c3:f6:88:9e:
         ed:d3:89:52:b4:9d:48:08:e9:70:51:b8:c6:66:39:ae:77:3b:
         40:51:ef:97:10:2a:81:fc:7d:ab:3a:b0:9b:da:59:35:d1:d8:
         90:98:45:47:c9:55:8e:ce:28:c8:8d:4c:31:2b:e2:80:d1:9b:
         1f:c1:eb:c5:66:90:b3:13:a1:77:a4:2b:fc:bf:f7:cd:90:ca:
         75:5f:8c:a7:88:c5:53:50:93:cb:8f:f0:84:b8:4d:ae:f8:19:
         90:ee:37:73:2b:24:30:d3:97:8e:3d:8f:36:51:1a:eb:ae:b1:
         21:16:e6:a5:f9:a2:e1:5e:ae:48:fd:cb:1f:96:c3:ef:a3:cc:
         a8:b0:30:1e:36:64:e9:0b:94:ec:54:da:9e:3f:19:87:f7:f6:
         6b:49:88:9f:7f:48:5b:7d:22:d3:50:e5:ff:09:a3:93:51:15:
         c9:72:5d:e5:76:d1:28:3e:8d:5e:e9:1b:0f:cb:ea:a0:f5:71:
         ab:f4:0f:d9:84:e8:b1:b5:ee:3f:26:c7:79:1f:9c:11:03:72:
         43:54:91:a3:80:08:98:7e:91:df:f9:e6:9d:81:d9:04:71:c2:
         7e:ad:b8:e8:b9:17:8b:34:8b:c6:c9:3c:c4:5f:aa:ab:66:20:
         f4:a6:fd:c7:40:b0:ea:d7:2c:76:53:30:63:06:40:72:03:b2:
         9c:56:7a:da:5d:42:6b:00:b8:b4:df:2a:73:45:42:a9:1f:56:
         fd:f3:53:bf:f5:55:a4:cd:2d:8d:bc:ca:d0:a3:7e:b8:dc:9b:
         d8:6a:eb:76:9c:fc:67:b2:da:40:63:85:70:e8:ea:85:12:1c:
         c9:91:ee:a7:37:24:47:7e:15:0e:76:33:2c:1d:27:c4:1e:f4:
         3e:65:69:42:b9:74:22:5c:4d:e2:2f:d6:68:ec:ac:68:a6:5c:
         e8:af:26:cc:cb:d0:d9:35:9a:f5:ff:55:ba:86:a3:5e:56:e0:
         27:e1:00:3b:d7:f5:ad:66:f7:ed:cb:90:37:b1:d7:59:f0:4a:
         ab:03:32:73:f2:7e:8b:59:29:46:54:34:ba:7d:a5:4f:0b:54:
         b6:8d:2e:13:03:ac:54:9f:97:f7:53:a9:8e:ff:41:65:6f:7a:
         31:72:31:99:85:7b:de:d0:1d:52:4c:98:80:09:b0:74:19:5c:
         5a:0a:dd:fd:a6:a5:29:ed:94:80:41:07:42:5a:0c:21:8c:4b:
         18:7e:7c:37:32:d9:1b:e9:bd:eb:25:8c:3c:32:6c:3a:ad:4e:
         48:e3:e9:76:9b:65:da:c2:47:7d:92:1e:84:f1:66:36:f2:1d:
         4c:91:e8:fe:77:63:d7:6d
-----BEGIN CERTIFICATE-----
MIIHSDCCBTCgAwIBAgICAckwDQYJKoZIhvcNAQEFBQAwgbQxCzAJBgNVBAYTAlVT
MQswCQYDVQQIEwJDQTEVMBMGA1UEBxMMU2FuRnJhbmNpc2NvMRUwEwYDVQQKEwxQ
aXhnbG8sIEluYy4xEDAOBgNVBAsTB1ZQTi1DSUUxGjAYBgNVBAMTEXR1bm5lbC5w
aXhnbG8uY29tMRwwGgYDVQQpExNCYWxhIENoYW5kcmFzZWthcmFuMR4wHAYJKoZI
hvcNAQkBFg9iYWxhQHBpeGdsby5jb20wHhcNMTgwMjE0MDYzNDMxWhcNMjgwMjEy
MDYzNDMxWjCBqTELMAkGA1UEBhMCVVMxCzAJBgNVBAgTAkNBMRUwEwYDVQQHEwxT
YW5GcmFuY2lzY28xFTATBgNVBAoTDFBpeGdsbywgSW5jLjEQMA4GA1UECxMHVlBO
LUNJRTEPMA0GA1UEAxMGY2llNDU2MRwwGgYDVQQpExNCYWxhIENoYW5kcmFzZWth
cmFuMR4wHAYJKoZIhvcNAQkBFg9iYWxhQHBpeGdsby5jb20wggIiMA0GCSqGSIb3
DQEBAQUAA4ICDwAwggIKAoICAQDQ3z4tb243mRSLhKVVyziTmCV3oYszER1Wm5Bt
RkWWSSpnqaYx/Fu3dsiN1xsHV3lu5ZhR/XHBlBi9KeQKs1xHO0WnYty7DfUqEP+/
r6EBmuN+gO+GG4rmxjt3LWOiZS7VZxprXmzt7PXS/pH207zQSPUNVOzugMCpOumo
kvk+wshCTWsVGgJTxIWhZuyNGCQhw/gRB53nW7f8I778xj6XNCw0oDyAR40W2Y1a
MWTZji7BzzCJVOdQr5F42WUqY3yK8DogmJQ4TNTMUOcEnfwX2e92kbFQSs5A9xZH
2Ng9q9yaRiGRdCKKDaeEkjZJS8Yohd4Fy67+AWCvgcLag/H2Be0zhGEhVs6DrjtU
6yQ1sc0eJn9HqmI9SfuoPM6Zl9UESE2ULJqADLFAXnfPmjQ3a7gV2ZZEoTzw/GrF
9q3pluoOrpwC3hUjKekGNx4Q1Yhx9Vr+Y61TYmz4+QlZQ2L72+JnzHRE/yzloyD+
h8gRYN7OQF/bFoiywgsgKH8lii6og4QAzHnRHHZAjJ6IqbA2bukAbv4Ag63Yo8Y1
UQlGSJXAcz67BL3juu9r5N2PeDn0TYvTItUO9YhtY+Q0l9sx0ms6pVzRVlgTEcpZ
0BRXxukZ6iQY6aPq2gD0CQ64OXojwwxKnKOi8zrd1bmGyCS+Cgd8ZoATfe/Gxq0I
++5FlwIDAQABo4IBazCCAWcwCQYDVR0TBAIwADAtBglghkgBhvhCAQ0EIBYeRWFz
eS1SU0EgR2VuZXJhdGVkIENlcnRpZmljYXRlMB0GA1UdDgQWBBTmXwXNrB8XsjsV
+hni0xnuoNwLKTCB6QYDVR0jBIHhMIHegBTvOI0UUFinW02cF3L837msp1GwEKGB
uqSBtzCBtDELMAkGA1UEBhMCVVMxCzAJBgNVBAgTAkNBMRUwEwYDVQQHEwxTYW5G
cmFuY2lzY28xFTATBgNVBAoTDFBpeGdsbywgSW5jLjEQMA4GA1UECxMHVlBOLUNJ
RTEaMBgGA1UEAxMRdHVubmVsLnBpeGdsby5jb20xHDAaBgNVBCkTE0JhbGEgQ2hh
bmRyYXNla2FyYW4xHjAcBgkqhkiG9w0BCQEWD2JhbGFAcGl4Z2xvLmNvbYIJAKbb
xoOA5qB5MBMGA1UdJQQMMAoGCCsGAQUFBwMCMAsGA1UdDwQEAwIHgDANBgkqhkiG
9w0BAQUFAAOCAgEAUwOkIGxk8O8uzPS4YGrD9oie7dOJUrSdSAjpcFG4xmY5rnc7
QFHvlxAqgfx9qzqwm9pZNdHYkJhFR8lVjs4oyI1MMSvigNGbH8HrxWaQsxOhd6Qr
/L/3zZDKdV+Mp4jFU1CTy4/whLhNrvgZkO43cyskMNOXjj2PNlEa666xIRbmpfmi
4V6uSP3LH5bD76PMqLAwHjZk6QuU7FTanj8Zh/f2a0mIn39IW30i01Dl/wmjk1EV
yXJd5XbRKD6NXukbD8vqoPVxq/QP2YTosbXuPybHeR+cEQNyQ1SRo4AImH6R3/nm
nYHZBHHCfq246LkXizSLxsk8xF+qq2Yg9Kb9x0Cw6tcsdlMwYwZAcgOynFZ62l1C
awC4tN8qc0VCqR9W/fNTv/VVpM0tjbzK0KN+uNyb2Grrdpz8Z7LaQGOFcOjqhRIc
yZHupzckR34VDnYzLB0nxB70PmVpQrl0IlxN4i/WaOysaKZc6K8mzMvQ2TWa9f9V
uoajXlbgJ+EAO9f1rWb37cuQN7HXWfBKqwMyc/J+i1kpRlQ0un2lTwtUto0uEwOs
VJ+X91Opjv9BZW96MXIxmYV73tAdUkyYgAmwdBlcWgrd/aalKe2UgEEHQloMIYxL
GH58NzLZG+m96yWMPDJsOq1OSOPpdptl2sJHfZIehPFmNvIdTJHo/ndj120=
-----END CERTIFICATE-----
