Certificate:
    Data:
        Version: 3 (0x2)
        Serial Number: 459 (0x1cb)
    Signature Algorithm: sha1WithRSAEncryption
        Issuer: C=US, ST=CA, L=SanFrancisco, O=Pixglo, Inc., OU=VPN-CIE, CN=tunnel.pixglo.com/name=Bala Chandrasekaran/emailAddress=bala@pixglo.com
        Validity
            Not Before: Feb 14 06:34:33 2018 GMT
            Not After : Feb 12 06:34:33 2028 GMT
        Subject: C=US, ST=CA, L=SanFrancisco, O=Pixglo, Inc., OU=VPN-CIE, CN=cie458/name=Bala Chandrasekaran/emailAddress=bala@pixglo.com
        Subject Public Key Info:
            Public Key Algorithm: rsaEncryption
                Public-Key: (4096 bit)
                Modulus:
                    00:b3:34:88:e1:f2:37:e4:a2:0c:3c:40:75:49:e1:
                    93:9b:b3:64:61:7e:8f:43:57:10:7d:dc:1f:f0:c3:
                    58:41:0d:26:63:8e:cf:ff:e8:b2:4b:40:42:94:c3:
                    4b:cf:18:bb:7f:36:48:b2:d2:ec:3b:b0:82:14:d5:
                    69:57:0f:46:c2:de:82:43:d2:a5:b8:1e:93:f0:25:
                    3f:76:04:e6:b3:f7:76:17:43:87:82:4f:dc:bd:23:
                    85:31:6e:b0:61:ff:cf:1c:88:05:fe:f5:17:29:c2:
                    71:ad:d2:52:37:cc:07:0b:79:68:1c:3f:c7:94:e4:
                    f6:ce:08:30:a6:2e:76:05:41:14:35:26:20:6e:41:
                    a6:cd:a0:4e:64:18:99:11:9a:04:13:e3:54:47:8f:
                    3b:79:2c:ce:08:7e:12:58:8a:15:3b:63:63:49:5b:
                    bf:4a:b3:64:71:b4:e9:7c:12:eb:ee:d5:ab:a4:05:
                    2e:f5:76:b1:6a:87:84:fd:90:ac:0f:d3:31:bc:c9:
                    0f:2d:0c:52:a2:b0:24:f2:4e:0d:f2:2e:97:49:9b:
                    9e:2a:05:63:55:b0:60:a2:39:61:44:28:a8:12:09:
                    7e:b5:7e:b3:8a:eb:10:4f:25:eb:b0:d6:e6:9b:dd:
                    7c:69:b6:76:fd:11:69:ca:ec:e5:bc:81:8c:4b:d1:
                    ea:d8:82:88:16:34:1c:b7:41:9e:ed:e3:0e:fe:e5:
                    36:5e:78:8b:83:e4:69:e3:02:7f:6c:2c:c1:f4:ec:
                    66:fb:db:cb:7a:73:f2:c8:53:64:ec:5b:52:99:0c:
                    19:19:d1:72:33:de:b4:ef:d4:de:47:e5:50:d9:2a:
                    da:84:5b:6b:52:b3:6f:65:c2:13:d5:29:b5:00:b0:
                    5d:0f:16:07:42:83:2e:44:ea:f1:91:f7:4e:4e:a8:
                    42:30:5c:f9:81:e0:01:d9:e0:ad:71:f3:3c:cd:53:
                    ee:a4:01:d2:ed:11:3c:41:3d:00:ce:34:c5:2c:bc:
                    72:7c:8f:eb:b6:61:2c:32:ac:bf:c0:99:ce:08:ed:
                    d2:c5:62:5f:77:5c:d1:d4:61:1e:6b:95:c0:26:ed:
                    3c:55:3a:36:b1:76:07:d3:7a:e7:24:b2:e1:18:bd:
                    f2:29:47:b6:2e:f9:cd:4e:76:c7:5e:ae:15:30:35:
                    8c:fd:28:f9:26:02:b9:e0:54:d6:a8:13:13:09:ac:
                    64:e4:21:ff:dc:50:39:8c:a9:e7:63:97:ea:c0:1f:
                    58:13:8b:82:f0:61:77:41:db:0e:01:13:12:2e:7a:
                    66:ce:6a:35:5a:5e:db:66:9e:3d:68:1c:e3:9c:ac:
                    a1:ad:be:70:25:34:bb:af:2d:cc:8e:42:70:e4:2d:
                    c1:f4:59
                Exponent: 65537 (0x10001)
        X509v3 extensions:
            X509v3 Basic Constraints: 
                CA:FALSE
            Netscape Comment: 
                Easy-RSA Generated Certificate
            X509v3 Subject Key Identifier: 
                9F:BF:9D:13:DF:A3:63:96:8D:16:FB:EE:A1:4D:0D:EF:41:AB:AC:62
            X509v3 Authority Key Identifier: 
                keyid:EF:38:8D:14:50:58:A7:5B:4D:9C:17:72:FC:DF:B9:AC:A7:51:B0:10
                DirName:/C=US/ST=CA/L=SanFrancisco/O=Pixglo, Inc./OU=VPN-CIE/CN=tunnel.pixglo.com/name=Bala Chandrasekaran/emailAddress=bala@pixglo.com
                serial:A6:DB:C6:83:80:E6:A0:79

            X509v3 Extended Key Usage: 
                TLS Web Client Authentication
            X509v3 Key Usage: 
                Digital Signature
    Signature Algorithm: sha1WithRSAEncryption
         c9:80:08:07:b4:41:b9:44:62:bb:6f:0a:a5:02:e1:fc:0f:db:
         74:3d:b2:79:5e:8e:a2:a5:34:77:ea:9f:78:9b:9f:54:10:e7:
         16:c6:df:4c:93:a7:a1:d4:19:29:ca:df:d2:64:33:37:93:4d:
         7c:a0:f3:1e:b4:25:72:3f:93:6b:ed:8c:76:93:43:4d:0a:d7:
         8c:9d:1e:b2:b9:65:c6:a4:b5:7e:4e:3f:88:45:ae:d5:f5:c1:
         72:9b:fd:f4:41:7a:21:1e:c8:4e:86:39:11:80:66:aa:08:51:
         a9:a2:03:4f:57:c9:8a:14:97:4a:ac:6c:7a:50:f6:ba:e6:f0:
         67:f1:37:9b:77:c7:21:4b:95:08:94:45:f2:61:23:01:27:fd:
         05:e9:bb:36:b6:ea:aa:15:e6:52:12:f6:b6:c8:61:7c:73:20:
         f9:7a:3b:ec:a7:e1:8a:20:52:a4:77:64:3f:61:88:de:07:40:
         24:44:4e:88:1f:c7:7d:a5:4d:73:c2:0c:b4:94:9c:a7:44:50:
         60:61:fb:e3:56:82:e7:07:fa:0d:a2:55:74:57:36:99:89:7e:
         ec:ea:52:28:ad:28:4a:ef:23:4f:d2:93:64:ba:02:4a:bb:89:
         dc:70:aa:d7:36:68:3f:55:fc:98:6f:63:a2:f6:2a:89:28:0b:
         e5:d3:74:d9:09:d2:97:ca:90:db:82:3f:eb:b6:a7:d5:76:0a:
         b2:ff:8b:e9:17:ef:e4:ca:26:fc:7e:6d:1e:20:74:ea:cb:00:
         99:e7:2c:d9:c5:8c:a2:8a:04:e1:77:7a:e7:7d:c8:fb:f3:fa:
         55:28:4c:9b:96:2a:42:08:c2:c4:7c:33:cb:47:d9:e9:51:78:
         c9:23:4a:4b:bc:bd:4c:b8:f1:0b:64:66:b6:04:be:5a:23:05:
         88:90:b9:e4:07:be:1f:be:68:22:b9:26:fe:bc:78:fb:b8:d0:
         5c:05:cb:37:e0:df:04:84:37:19:ac:f8:aa:11:74:78:9a:92:
         9f:15:fc:3d:b4:cb:6c:c7:1f:5f:f0:d8:28:81:5d:06:13:da:
         fa:09:36:fc:72:68:a7:2c:8b:26:f0:90:8c:34:9b:fe:32:02:
         61:9f:c9:91:1a:5d:8a:6d:d4:d4:76:f6:d7:fc:8e:6f:38:57:
         46:a0:39:f0:60:10:36:59:d0:e9:a0:37:74:04:a0:aa:2f:fa:
         0e:15:26:80:5f:64:31:72:13:0a:b4:5f:42:3b:39:62:a6:32:
         f0:b9:f4:e3:25:71:3e:46:cc:77:98:54:50:7c:5b:72:0b:ce:
         b0:e5:70:3d:70:b4:a0:8f:40:8b:7c:e8:73:65:95:fd:36:81:
         e5:39:73:6d:f6:51:d8:fc
-----BEGIN CERTIFICATE-----
MIIHSDCCBTCgAwIBAgICAcswDQYJKoZIhvcNAQEFBQAwgbQxCzAJBgNVBAYTAlVT
MQswCQYDVQQIEwJDQTEVMBMGA1UEBxMMU2FuRnJhbmNpc2NvMRUwEwYDVQQKEwxQ
aXhnbG8sIEluYy4xEDAOBgNVBAsTB1ZQTi1DSUUxGjAYBgNVBAMTEXR1bm5lbC5w
aXhnbG8uY29tMRwwGgYDVQQpExNCYWxhIENoYW5kcmFzZWthcmFuMR4wHAYJKoZI
hvcNAQkBFg9iYWxhQHBpeGdsby5jb20wHhcNMTgwMjE0MDYzNDMzWhcNMjgwMjEy
MDYzNDMzWjCBqTELMAkGA1UEBhMCVVMxCzAJBgNVBAgTAkNBMRUwEwYDVQQHEwxT
YW5GcmFuY2lzY28xFTATBgNVBAoTDFBpeGdsbywgSW5jLjEQMA4GA1UECxMHVlBO
LUNJRTEPMA0GA1UEAxMGY2llNDU4MRwwGgYDVQQpExNCYWxhIENoYW5kcmFzZWth
cmFuMR4wHAYJKoZIhvcNAQkBFg9iYWxhQHBpeGdsby5jb20wggIiMA0GCSqGSIb3
DQEBAQUAA4ICDwAwggIKAoICAQCzNIjh8jfkogw8QHVJ4ZObs2Rhfo9DVxB93B/w
w1hBDSZjjs//6LJLQEKUw0vPGLt/Nkiy0uw7sIIU1WlXD0bC3oJD0qW4HpPwJT92
BOaz93YXQ4eCT9y9I4UxbrBh/88ciAX+9RcpwnGt0lI3zAcLeWgcP8eU5PbOCDCm
LnYFQRQ1JiBuQabNoE5kGJkRmgQT41RHjzt5LM4IfhJYihU7Y2NJW79Ks2RxtOl8
Euvu1aukBS71drFqh4T9kKwP0zG8yQ8tDFKisCTyTg3yLpdJm54qBWNVsGCiOWFE
KKgSCX61frOK6xBPJeuw1uab3Xxptnb9EWnK7OW8gYxL0erYgogWNBy3QZ7t4w7+
5TZeeIuD5GnjAn9sLMH07Gb728t6c/LIU2TsW1KZDBkZ0XIz3rTv1N5H5VDZKtqE
W2tSs29lwhPVKbUAsF0PFgdCgy5E6vGR905OqEIwXPmB4AHZ4K1x8zzNU+6kAdLt
ETxBPQDONMUsvHJ8j+u2YSwyrL/Amc4I7dLFYl93XNHUYR5rlcAm7TxVOjaxdgfT
eucksuEYvfIpR7Yu+c1OdsderhUwNYz9KPkmArngVNaoExMJrGTkIf/cUDmMqedj
l+rAH1gTi4LwYXdB2w4BExIuembOajVaXttmnj1oHOOcrKGtvnAlNLuvLcyOQnDk
LcH0WQIDAQABo4IBazCCAWcwCQYDVR0TBAIwADAtBglghkgBhvhCAQ0EIBYeRWFz
eS1SU0EgR2VuZXJhdGVkIENlcnRpZmljYXRlMB0GA1UdDgQWBBSfv50T36Njlo0W
++6hTQ3vQausYjCB6QYDVR0jBIHhMIHegBTvOI0UUFinW02cF3L837msp1GwEKGB
uqSBtzCBtDELMAkGA1UEBhMCVVMxCzAJBgNVBAgTAkNBMRUwEwYDVQQHEwxTYW5G
cmFuY2lzY28xFTATBgNVBAoTDFBpeGdsbywgSW5jLjEQMA4GA1UECxMHVlBOLUNJ
RTEaMBgGA1UEAxMRdHVubmVsLnBpeGdsby5jb20xHDAaBgNVBCkTE0JhbGEgQ2hh
bmRyYXNla2FyYW4xHjAcBgkqhkiG9w0BCQEWD2JhbGFAcGl4Z2xvLmNvbYIJAKbb
xoOA5qB5MBMGA1UdJQQMMAoGCCsGAQUFBwMCMAsGA1UdDwQEAwIHgDANBgkqhkiG
9w0BAQUFAAOCAgEAyYAIB7RBuURiu28KpQLh/A/bdD2yeV6OoqU0d+qfeJufVBDn
FsbfTJOnodQZKcrf0mQzN5NNfKDzHrQlcj+Ta+2MdpNDTQrXjJ0esrllxqS1fk4/
iEWu1fXBcpv99EF6IR7IToY5EYBmqghRqaIDT1fJihSXSqxselD2uubwZ/E3m3fH
IUuVCJRF8mEjASf9Bem7NrbqqhXmUhL2tshhfHMg+Xo77KfhiiBSpHdkP2GI3gdA
JEROiB/HfaVNc8IMtJScp0RQYGH741aC5wf6DaJVdFc2mYl+7OpSKK0oSu8jT9KT
ZLoCSruJ3HCq1zZoP1X8mG9jovYqiSgL5dN02QnSl8qQ24I/67an1XYKsv+L6Rfv
5Mom/H5tHiB06ssAmecs2cWMoooE4Xd6533I+/P6VShMm5YqQgjCxHwzy0fZ6VF4
ySNKS7y9TLjxC2RmtgS+WiMFiJC55Ae+H75oIrkm/rx4+7jQXAXLN+DfBIQ3Gaz4
qhF0eJqSnxX8PbTLbMcfX/DYKIFdBhPa+gk2/HJopyyLJvCQjDSb/jICYZ/JkRpd
im3U1Hb21/yObzhXRqA58GAQNlnQ6aA3dASgqi/6DhUmgF9kMXITCrRfQjs5YqYy
8Ln04yVxPkbMd5hUUHxbcgvOsOVwPXC0oI9Ai3zoc2WV/TaB5TlzbfZR2Pw=
-----END CERTIFICATE-----
