Certificate:
    Data:
        Version: 3 (0x2)
        Serial Number: 460 (0x1cc)
    Signature Algorithm: sha1WithRSAEncryption
        Issuer: C=US, ST=CA, L=SanFrancisco, O=Pixglo, Inc., OU=VPN-CIE, CN=tunnel.pixglo.com/name=Bala Chandrasekaran/emailAddress=bala@pixglo.com
        Validity
            Not Before: Feb 14 06:34:38 2018 GMT
            Not After : Feb 12 06:34:38 2028 GMT
        Subject: C=US, ST=CA, L=SanFrancisco, O=Pixglo, Inc., OU=VPN-CIE, CN=cie459/name=Bala Chandrasekaran/emailAddress=bala@pixglo.com
        Subject Public Key Info:
            Public Key Algorithm: rsaEncryption
                Public-Key: (4096 bit)
                Modulus:
                    00:b9:c9:04:ac:c9:f8:1e:27:38:2e:7d:32:00:05:
                    aa:d3:66:30:78:0c:ce:bf:ab:9c:07:d5:ff:50:f4:
                    da:d0:8d:26:36:3d:34:31:95:d0:22:7e:58:fe:37:
                    1a:35:f2:04:e0:86:e8:1a:be:28:e8:75:0f:9f:99:
                    a8:b5:e1:1a:39:8d:ed:10:a4:0f:75:cc:31:c6:6c:
                    dc:dc:ce:47:1b:b6:a0:7a:26:6c:33:a2:53:d0:49:
                    08:cd:9b:c4:d9:60:de:6c:ff:12:40:e9:bd:c6:b7:
                    9a:3c:09:65:5b:d5:44:27:50:2c:34:23:42:42:fd:
                    05:0b:1e:27:61:a2:05:e6:d0:38:85:54:94:e4:61:
                    07:bb:38:4c:65:a5:3d:86:22:3f:94:00:95:a4:a5:
                    ec:2b:de:3d:90:55:86:6d:8a:50:35:98:55:38:11:
                    c8:b7:1d:93:ef:90:19:20:36:78:08:a2:b1:3f:51:
                    8b:31:a7:c7:d2:35:f6:ed:09:ac:28:4f:55:14:d9:
                    04:b9:42:83:63:f4:aa:32:ca:f3:f8:b3:f6:71:60:
                    a2:40:e8:38:a9:29:76:cc:0c:c8:32:f7:e5:e8:7b:
                    7f:99:9b:e2:0a:ca:36:4d:9c:e6:4f:43:77:ce:b3:
                    af:c1:1d:b0:0b:aa:d1:c8:2f:56:a9:c6:b7:ce:aa:
                    cb:ef:d1:ec:20:50:51:58:06:77:d7:ed:bb:b2:5b:
                    f9:78:d6:7e:bd:13:e5:72:8f:2c:a2:24:5f:08:06:
                    83:25:47:9d:09:9b:e3:5b:ed:a2:a5:bd:fd:9d:15:
                    b6:97:ee:8c:0a:85:e8:a5:8c:05:2f:8c:7c:e8:14:
                    28:d2:66:89:9e:6a:1a:e8:7c:35:37:1f:72:00:4a:
                    ba:fb:d1:e1:5a:3e:cc:c5:49:38:5e:bc:a4:c8:23:
                    76:ef:9f:06:4e:94:6d:8b:84:92:ba:47:bd:5a:da:
                    1b:32:77:f0:6f:54:c9:d9:14:64:54:79:e9:c8:ed:
                    ac:8a:fa:52:11:bb:00:27:79:34:07:fe:ca:19:ce:
                    f5:a3:d2:1a:98:4e:6d:23:20:7e:7c:8c:c0:82:d4:
                    33:7c:15:79:0c:14:97:14:ce:2f:b1:f6:65:7a:5e:
                    69:0d:53:7d:96:a0:5d:a7:e4:eb:79:9c:15:19:9b:
                    ca:19:2e:56:71:e3:8a:42:80:e3:bd:f2:ac:8d:02:
                    a1:71:cf:e7:f2:5c:f2:ad:06:03:3f:e2:2f:92:ec:
                    a8:48:14:24:b7:69:bb:6b:24:f8:89:bf:b1:2c:e2:
                    cc:fa:b3:77:90:1a:3a:d4:26:f6:6d:1b:ec:54:d0:
                    bd:6c:df:5b:53:39:12:fb:fc:f9:e6:89:8c:91:24:
                    75:02:97
                Exponent: 65537 (0x10001)
        X509v3 extensions:
            X509v3 Basic Constraints: 
                CA:FALSE
            Netscape Comment: 
                Easy-RSA Generated Certificate
            X509v3 Subject Key Identifier: 
                A1:5F:37:11:62:89:85:46:86:F0:CB:CD:13:6B:DE:6C:62:3B:5A:F4
            X509v3 Authority Key Identifier: 
                keyid:EF:38:8D:14:50:58:A7:5B:4D:9C:17:72:FC:DF:B9:AC:A7:51:B0:10
                DirName:/C=US/ST=CA/L=SanFrancisco/O=Pixglo, Inc./OU=VPN-CIE/CN=tunnel.pixglo.com/name=Bala Chandrasekaran/emailAddress=bala@pixglo.com
                serial:A6:DB:C6:83:80:E6:A0:79

            X509v3 Extended Key Usage: 
                TLS Web Client Authentication
            X509v3 Key Usage: 
                Digital Signature
    Signature Algorithm: sha1WithRSAEncryption
         39:75:b0:ab:b2:29:ce:e4:c8:bf:a0:90:d5:b1:e1:b8:1e:dc:
         2b:d4:db:d9:33:99:91:48:8d:d5:5d:87:63:f6:d7:70:e9:14:
         68:63:79:3d:08:1a:9b:6d:9a:e9:a9:90:aa:49:44:19:e2:98:
         b9:8d:68:7f:68:da:ee:5d:06:a1:b1:6e:0c:a7:ea:33:69:6b:
         c2:c6:19:d2:f9:fb:76:a5:2b:1e:aa:0a:0e:17:01:94:8d:80:
         14:dd:8c:ee:1d:a7:de:79:5f:9f:ab:d1:53:36:c6:05:dc:6a:
         b1:c9:df:12:b6:e9:41:58:38:e4:94:ed:ad:14:33:81:84:03:
         e3:7f:4b:51:4c:64:8b:53:d2:b7:cb:31:ab:d6:23:d7:2b:28:
         9f:15:6c:b5:ca:0a:c0:10:e6:fe:dc:25:64:ef:b6:4f:74:95:
         07:e7:95:06:9c:45:27:75:65:58:c7:07:e4:33:38:f3:16:21:
         25:61:b7:fb:73:83:14:f9:98:ce:87:39:76:bf:f7:95:8d:b5:
         24:f5:6c:b8:13:25:8d:94:e3:9b:d0:c4:d5:dc:d0:1f:d5:06:
         f2:2a:d0:9c:ff:29:4d:39:36:83:b0:fe:41:2a:5c:68:c1:0a:
         cd:7e:3e:06:5b:7a:ce:ae:60:6f:f9:41:bb:86:15:e4:48:70:
         28:fd:ff:62:9d:7b:4b:aa:af:f9:10:9d:5e:a6:dd:08:51:16:
         40:f9:b8:3c:4c:3e:bf:aa:1b:e5:25:02:a7:21:ad:f4:1a:2f:
         be:36:32:8e:ef:15:91:10:91:cd:ac:41:a9:5e:53:92:93:22:
         10:49:5e:e3:37:29:82:c8:9c:31:a1:b1:57:ec:85:80:c0:0a:
         ef:a8:02:70:2b:9c:b0:0b:19:0d:63:18:74:be:97:dd:89:bb:
         21:ff:f8:ea:6d:c8:7e:99:e4:26:e6:91:23:02:89:1a:dc:9c:
         01:20:50:eb:1d:68:a5:3d:06:2b:bc:d9:b2:ad:98:f7:6b:8a:
         1d:8c:7e:ea:67:a0:fe:ba:b5:ef:4b:0a:4a:5f:ac:4b:3d:cc:
         4b:c9:19:3c:4d:be:5d:41:ec:37:d3:1b:31:bd:18:03:cb:97:
         e1:d9:46:64:2a:97:0a:3b:f8:cf:d3:5d:dc:4b:f9:0f:c2:a8:
         3f:d2:ab:71:88:f8:19:c4:5a:37:cc:d8:6a:dc:80:f6:92:b8:
         00:8c:4f:39:55:be:82:0b:b9:51:34:5e:77:3f:9a:c9:b7:c6:
         f1:69:1c:1c:ca:72:88:d4:43:c6:e0:52:c2:c8:fb:64:55:c2:
         f6:63:3c:8e:25:e1:b2:be:24:50:0e:31:61:54:73:cf:94:30:
         63:c9:f6:01:4c:e2:f3:4c
-----BEGIN CERTIFICATE-----
MIIHSDCCBTCgAwIBAgICAcwwDQYJKoZIhvcNAQEFBQAwgbQxCzAJBgNVBAYTAlVT
MQswCQYDVQQIEwJDQTEVMBMGA1UEBxMMU2FuRnJhbmNpc2NvMRUwEwYDVQQKEwxQ
aXhnbG8sIEluYy4xEDAOBgNVBAsTB1ZQTi1DSUUxGjAYBgNVBAMTEXR1bm5lbC5w
aXhnbG8uY29tMRwwGgYDVQQpExNCYWxhIENoYW5kcmFzZWthcmFuMR4wHAYJKoZI
hvcNAQkBFg9iYWxhQHBpeGdsby5jb20wHhcNMTgwMjE0MDYzNDM4WhcNMjgwMjEy
MDYzNDM4WjCBqTELMAkGA1UEBhMCVVMxCzAJBgNVBAgTAkNBMRUwEwYDVQQHEwxT
YW5GcmFuY2lzY28xFTATBgNVBAoTDFBpeGdsbywgSW5jLjEQMA4GA1UECxMHVlBO
LUNJRTEPMA0GA1UEAxMGY2llNDU5MRwwGgYDVQQpExNCYWxhIENoYW5kcmFzZWth
cmFuMR4wHAYJKoZIhvcNAQkBFg9iYWxhQHBpeGdsby5jb20wggIiMA0GCSqGSIb3
DQEBAQUAA4ICDwAwggIKAoICAQC5yQSsyfgeJzgufTIABarTZjB4DM6/q5wH1f9Q
9NrQjSY2PTQxldAiflj+Nxo18gTghugavijodQ+fmai14Ro5je0QpA91zDHGbNzc
zkcbtqB6JmwzolPQSQjNm8TZYN5s/xJA6b3Gt5o8CWVb1UQnUCw0I0JC/QULHidh
ogXm0DiFVJTkYQe7OExlpT2GIj+UAJWkpewr3j2QVYZtilA1mFU4Eci3HZPvkBkg
NngIorE/UYsxp8fSNfbtCawoT1UU2QS5QoNj9KoyyvP4s/ZxYKJA6DipKXbMDMgy
9+Xoe3+Zm+IKyjZNnOZPQ3fOs6/BHbALqtHIL1apxrfOqsvv0ewgUFFYBnfX7buy
W/l41n69E+VyjyyiJF8IBoMlR50Jm+Nb7aKlvf2dFbaX7owKheiljAUvjHzoFCjS
ZomeahrofDU3H3IASrr70eFaPszFSThevKTII3bvnwZOlG2LhJK6R71a2hsyd/Bv
VMnZFGRUeenI7ayK+lIRuwAneTQH/soZzvWj0hqYTm0jIH58jMCC1DN8FXkMFJcU
zi+x9mV6XmkNU32WoF2n5Ot5nBUZm8oZLlZx44pCgOO98qyNAqFxz+fyXPKtBgM/
4i+S7KhIFCS3abtrJPiJv7Es4sz6s3eQGjrUJvZtG+xU0L1s31tTORL7/PnmiYyR
JHUClwIDAQABo4IBazCCAWcwCQYDVR0TBAIwADAtBglghkgBhvhCAQ0EIBYeRWFz
eS1SU0EgR2VuZXJhdGVkIENlcnRpZmljYXRlMB0GA1UdDgQWBBShXzcRYomFRobw
y80Ta95sYjta9DCB6QYDVR0jBIHhMIHegBTvOI0UUFinW02cF3L837msp1GwEKGB
uqSBtzCBtDELMAkGA1UEBhMCVVMxCzAJBgNVBAgTAkNBMRUwEwYDVQQHEwxTYW5G
cmFuY2lzY28xFTATBgNVBAoTDFBpeGdsbywgSW5jLjEQMA4GA1UECxMHVlBOLUNJ
RTEaMBgGA1UEAxMRdHVubmVsLnBpeGdsby5jb20xHDAaBgNVBCkTE0JhbGEgQ2hh
bmRyYXNla2FyYW4xHjAcBgkqhkiG9w0BCQEWD2JhbGFAcGl4Z2xvLmNvbYIJAKbb
xoOA5qB5MBMGA1UdJQQMMAoGCCsGAQUFBwMCMAsGA1UdDwQEAwIHgDANBgkqhkiG
9w0BAQUFAAOCAgEAOXWwq7IpzuTIv6CQ1bHhuB7cK9Tb2TOZkUiN1V2HY/bXcOkU
aGN5PQgam22a6amQqklEGeKYuY1of2ja7l0GobFuDKfqM2lrwsYZ0vn7dqUrHqoK
DhcBlI2AFN2M7h2n3nlfn6vRUzbGBdxqscnfErbpQVg45JTtrRQzgYQD439LUUxk
i1PSt8sxq9Yj1ysonxVstcoKwBDm/twlZO+2T3SVB+eVBpxFJ3VlWMcH5DM48xYh
JWG3+3ODFPmYzoc5dr/3lY21JPVsuBMljZTjm9DE1dzQH9UG8irQnP8pTTk2g7D+
QSpcaMEKzX4+Blt6zq5gb/lBu4YV5EhwKP3/Yp17S6qv+RCdXqbdCFEWQPm4PEw+
v6ob5SUCpyGt9BovvjYyju8VkRCRzaxBqV5TkpMiEEle4zcpgsicMaGxV+yFgMAK
76gCcCucsAsZDWMYdL6X3Ym7If/46m3IfpnkJuaRIwKJGtycASBQ6x1opT0GK7zZ
sq2Y92uKHYx+6meg/rq170sKSl+sSz3MS8kZPE2+XUHsN9MbMb0YA8uX4dlGZCqX
Cjv4z9Nd3Ev5D8KoP9KrcYj4GcRaN8zYatyA9pK4AIxPOVW+ggu5UTRedz+aybfG
8WkcHMpyiNRDxuBSwsj7ZFXC9mM8jiXhsr4kUA4xYVRzz5QwY8n2AUzi80w=
-----END CERTIFICATE-----
