Certificate:
    Data:
        Version: 3 (0x2)
        Serial Number: 462 (0x1ce)
    Signature Algorithm: sha1WithRSAEncryption
        Issuer: C=US, ST=CA, L=SanFrancisco, O=Pixglo, Inc., OU=VPN-CIE, CN=tunnel.pixglo.com/name=Bala Chandrasekaran/emailAddress=bala@pixglo.com
        Validity
            Not Before: Feb 14 06:34:42 2018 GMT
            Not After : Feb 12 06:34:42 2028 GMT
        Subject: C=US, ST=CA, L=SanFrancisco, O=Pixglo, Inc., OU=VPN-CIE, CN=cie461/name=Bala Chandrasekaran/emailAddress=bala@pixglo.com
        Subject Public Key Info:
            Public Key Algorithm: rsaEncryption
                Public-Key: (4096 bit)
                Modulus:
                    00:cf:8d:f4:6c:9c:aa:1e:34:9d:3b:1c:31:f9:1f:
                    23:f4:6b:ac:4d:4b:f2:42:7f:6d:bc:fa:9c:ad:32:
                    77:aa:71:af:69:8b:a0:71:42:b6:37:e1:04:2a:b0:
                    58:ff:86:6f:39:ef:ac:69:57:8f:1c:6b:9f:fe:6c:
                    a1:dc:9e:11:b8:9a:46:b2:84:a9:b7:48:ff:b9:8f:
                    0b:c5:c2:42:38:81:ea:a1:2f:50:38:d0:22:24:97:
                    7e:e2:a8:5f:1c:88:3c:59:bc:e6:24:94:94:df:bb:
                    9a:81:54:3f:dc:d4:a9:1c:ea:4d:95:97:53:e2:15:
                    d5:0f:61:7b:47:91:58:0f:01:cc:a7:62:c4:10:36:
                    bf:4d:57:6e:5d:bf:cd:27:83:8b:66:9e:15:af:27:
                    99:88:ca:3c:b5:50:c4:79:59:ee:71:61:f3:53:de:
                    96:44:21:5e:7a:0b:94:a8:4e:d2:4a:1f:43:30:b4:
                    17:69:06:68:46:2c:39:10:0d:be:d5:30:c3:c3:41:
                    9b:a0:69:81:42:65:41:9a:cd:2e:c4:ec:a8:d3:dc:
                    63:3e:4c:28:e9:f3:29:7a:d3:22:e0:e5:31:65:6a:
                    bf:76:45:de:70:64:2d:41:75:0c:9d:40:37:ff:2b:
                    d8:e3:6d:3a:e3:7c:c4:47:b3:89:63:8e:e3:c4:b7:
                    83:be:3a:b6:df:f5:df:93:dc:5c:bd:04:fc:78:2a:
                    77:8e:5b:a0:c4:17:62:ab:af:55:d3:16:b8:18:e2:
                    32:33:fd:a0:8e:44:f3:ed:0a:0c:a2:9f:9e:e1:36:
                    38:e9:18:12:9e:ad:63:e9:3b:69:86:7e:34:5a:0f:
                    09:b8:f1:99:69:e9:5a:a6:db:82:6b:57:70:aa:b8:
                    bd:74:de:90:94:99:58:da:ea:19:d8:dd:fb:6a:07:
                    df:e1:dc:f6:ed:ea:74:95:1b:c1:b5:9c:fb:37:2f:
                    12:64:2b:89:82:c0:cd:75:fd:83:db:df:69:87:2b:
                    73:9d:1b:24:9b:73:ec:0b:81:64:4b:92:a2:db:de:
                    ad:0f:83:7c:28:d8:2f:64:30:60:96:39:8f:5f:e5:
                    6b:79:d3:51:02:03:fe:1a:b9:0a:0b:d0:95:08:50:
                    a7:e5:49:1a:67:1a:ee:0a:83:87:f3:f0:7c:82:a1:
                    93:aa:f3:3c:32:ae:ec:34:c8:f4:c6:2b:ad:79:78:
                    9f:c2:7d:68:b3:72:8a:d0:1f:f7:1a:97:7b:75:44:
                    17:61:b9:be:3b:07:25:a4:bc:73:e8:10:4f:51:7b:
                    72:63:ad:cb:b5:ec:13:be:3f:0b:a1:b2:3f:54:74:
                    c6:0b:30:f6:31:39:05:05:4a:02:08:85:19:4d:a0:
                    7e:08:57
                Exponent: 65537 (0x10001)
        X509v3 extensions:
            X509v3 Basic Constraints: 
                CA:FALSE
            Netscape Comment: 
                Easy-RSA Generated Certificate
            X509v3 Subject Key Identifier: 
                93:F8:56:CC:CB:FF:8D:5A:97:64:74:9C:D5:78:79:8D:97:A1:4F:FB
            X509v3 Authority Key Identifier: 
                keyid:EF:38:8D:14:50:58:A7:5B:4D:9C:17:72:FC:DF:B9:AC:A7:51:B0:10
                DirName:/C=US/ST=CA/L=SanFrancisco/O=Pixglo, Inc./OU=VPN-CIE/CN=tunnel.pixglo.com/name=Bala Chandrasekaran/emailAddress=bala@pixglo.com
                serial:A6:DB:C6:83:80:E6:A0:79

            X509v3 Extended Key Usage: 
                TLS Web Client Authentication
            X509v3 Key Usage: 
                Digital Signature
    Signature Algorithm: sha1WithRSAEncryption
         73:15:ac:30:9e:1d:28:35:4f:5c:a7:70:1d:42:ab:13:9a:24:
         06:7a:14:4c:12:f3:9f:74:7d:7e:35:0b:d5:1b:e3:08:77:0a:
         d7:0d:8c:d8:2c:a3:6d:5a:ea:a7:90:ec:d9:9a:d9:94:b3:b8:
         8f:cc:2e:6d:02:fb:3f:78:bf:87:bf:23:46:2a:66:68:ab:c2:
         1f:d8:d2:26:e5:32:d0:15:8c:ce:2e:f7:18:41:a2:a0:0f:93:
         21:59:b0:22:59:e7:2e:64:f6:15:ed:1d:76:48:a0:07:94:7f:
         da:96:d2:49:1b:1e:94:22:17:96:53:a7:15:43:24:d0:b7:28:
         4d:d3:c6:52:36:14:00:8b:bd:0d:88:2a:40:b0:b1:5d:6e:b9:
         1f:4c:b8:3c:01:2f:40:cc:25:7f:c5:ca:a3:8f:11:df:0a:01:
         1b:b5:3a:ab:6e:6a:10:06:45:12:7e:91:20:16:cf:7e:a1:38:
         ff:ac:06:99:a4:bf:bc:8f:28:4b:c8:86:a2:cb:f1:f7:58:aa:
         95:61:95:86:5c:20:cb:8e:6b:24:63:c2:09:a2:41:27:3e:04:
         75:cc:ea:6e:c2:8c:54:a5:ba:a9:52:30:51:a7:f8:37:90:8c:
         bf:39:23:30:d7:0f:54:8d:c5:0b:bd:0e:43:f0:8f:ac:23:70:
         79:98:70:ca:9e:90:56:57:95:5f:0e:a6:c5:66:56:89:34:1f:
         6e:7f:b1:55:a8:d6:b5:af:5e:ed:be:0c:86:1f:c6:f8:e3:56:
         62:41:c5:08:12:25:ce:f3:04:4c:97:8d:b9:f3:6a:45:53:44:
         c5:60:b1:6d:03:4f:c6:38:47:3b:66:a8:51:da:92:6d:f8:6e:
         30:d6:28:17:c2:68:06:c8:8b:06:a4:e9:ff:30:71:8e:d0:f4:
         46:e8:01:1d:d8:70:5c:d8:95:9e:ed:c3:74:0d:43:ed:ac:53:
         89:e9:bf:46:7d:5e:7b:9f:4a:fa:be:56:7c:ad:9f:7c:10:5f:
         3c:5b:68:09:b2:bf:e3:d3:40:c4:b5:e2:9b:fd:6b:f7:c1:fc:
         41:af:13:65:50:28:c0:69:61:44:6d:00:8d:fe:41:8f:e4:03:
         a6:bf:d6:e0:99:57:b9:22:33:86:33:59:a8:ad:0f:e1:45:a2:
         a4:08:02:2d:69:3d:c2:8e:15:b7:43:8a:4a:9f:60:fb:f9:94:
         f3:3c:6f:3d:ce:d5:36:97:60:c7:79:42:9c:60:a1:a6:af:18:
         50:87:47:b6:14:20:6e:f9:d0:ee:6c:d8:1f:b8:37:3f:e7:2c:
         87:bd:22:a4:06:58:f6:b9:e0:40:de:c7:a3:3a:45:7b:51:72:
         8d:bb:5f:f0:8d:01:f2:f1
-----BEGIN CERTIFICATE-----
MIIHSDCCBTCgAwIBAgICAc4wDQYJKoZIhvcNAQEFBQAwgbQxCzAJBgNVBAYTAlVT
MQswCQYDVQQIEwJDQTEVMBMGA1UEBxMMU2FuRnJhbmNpc2NvMRUwEwYDVQQKEwxQ
aXhnbG8sIEluYy4xEDAOBgNVBAsTB1ZQTi1DSUUxGjAYBgNVBAMTEXR1bm5lbC5w
aXhnbG8uY29tMRwwGgYDVQQpExNCYWxhIENoYW5kcmFzZWthcmFuMR4wHAYJKoZI
hvcNAQkBFg9iYWxhQHBpeGdsby5jb20wHhcNMTgwMjE0MDYzNDQyWhcNMjgwMjEy
MDYzNDQyWjCBqTELMAkGA1UEBhMCVVMxCzAJBgNVBAgTAkNBMRUwEwYDVQQHEwxT
YW5GcmFuY2lzY28xFTATBgNVBAoTDFBpeGdsbywgSW5jLjEQMA4GA1UECxMHVlBO
LUNJRTEPMA0GA1UEAxMGY2llNDYxMRwwGgYDVQQpExNCYWxhIENoYW5kcmFzZWth
cmFuMR4wHAYJKoZIhvcNAQkBFg9iYWxhQHBpeGdsby5jb20wggIiMA0GCSqGSIb3
DQEBAQUAA4ICDwAwggIKAoICAQDPjfRsnKoeNJ07HDH5HyP0a6xNS/JCf228+pyt
Mneqca9pi6BxQrY34QQqsFj/hm8576xpV48ca5/+bKHcnhG4mkayhKm3SP+5jwvF
wkI4geqhL1A40CIkl37iqF8ciDxZvOYklJTfu5qBVD/c1Kkc6k2Vl1PiFdUPYXtH
kVgPAcynYsQQNr9NV25dv80ng4tmnhWvJ5mIyjy1UMR5We5xYfNT3pZEIV56C5So
TtJKH0MwtBdpBmhGLDkQDb7VMMPDQZugaYFCZUGazS7E7KjT3GM+TCjp8yl60yLg
5TFlar92Rd5wZC1BdQydQDf/K9jjbTrjfMRHs4ljjuPEt4O+Orbf9d+T3Fy9BPx4
KneOW6DEF2Krr1XTFrgY4jIz/aCORPPtCgyin57hNjjpGBKerWPpO2mGfjRaDwm4
8Zlp6Vqm24JrV3CquL103pCUmVja6hnY3ftqB9/h3Pbt6nSVG8G1nPs3LxJkK4mC
wM11/YPb32mHK3OdGySbc+wLgWRLkqLb3q0Pg3wo2C9kMGCWOY9f5Wt501ECA/4a
uQoL0JUIUKflSRpnGu4Kg4fz8HyCoZOq8zwyruw0yPTGK615eJ/CfWizcorQH/ca
l3t1RBdhub47ByWkvHPoEE9Re3Jjrcu17BO+Pwuhsj9UdMYLMPYxOQUFSgIIhRlN
oH4IVwIDAQABo4IBazCCAWcwCQYDVR0TBAIwADAtBglghkgBhvhCAQ0EIBYeRWFz
eS1SU0EgR2VuZXJhdGVkIENlcnRpZmljYXRlMB0GA1UdDgQWBBST+FbMy/+NWpdk
dJzVeHmNl6FP+zCB6QYDVR0jBIHhMIHegBTvOI0UUFinW02cF3L837msp1GwEKGB
uqSBtzCBtDELMAkGA1UEBhMCVVMxCzAJBgNVBAgTAkNBMRUwEwYDVQQHEwxTYW5G
cmFuY2lzY28xFTATBgNVBAoTDFBpeGdsbywgSW5jLjEQMA4GA1UECxMHVlBOLUNJ
RTEaMBgGA1UEAxMRdHVubmVsLnBpeGdsby5jb20xHDAaBgNVBCkTE0JhbGEgQ2hh
bmRyYXNla2FyYW4xHjAcBgkqhkiG9w0BCQEWD2JhbGFAcGl4Z2xvLmNvbYIJAKbb
xoOA5qB5MBMGA1UdJQQMMAoGCCsGAQUFBwMCMAsGA1UdDwQEAwIHgDANBgkqhkiG
9w0BAQUFAAOCAgEAcxWsMJ4dKDVPXKdwHUKrE5okBnoUTBLzn3R9fjUL1RvjCHcK
1w2M2CyjbVrqp5Ds2ZrZlLO4j8wubQL7P3i/h78jRipmaKvCH9jSJuUy0BWMzi73
GEGioA+TIVmwIlnnLmT2Fe0ddkigB5R/2pbSSRselCIXllOnFUMk0LcoTdPGUjYU
AIu9DYgqQLCxXW65H0y4PAEvQMwlf8XKo48R3woBG7U6q25qEAZFEn6RIBbPfqE4
/6wGmaS/vI8oS8iGosvx91iqlWGVhlwgy45rJGPCCaJBJz4EdczqbsKMVKW6qVIw
Uaf4N5CMvzkjMNcPVI3FC70OQ/CPrCNweZhwyp6QVleVXw6mxWZWiTQfbn+xVajW
ta9e7b4Mhh/G+ONWYkHFCBIlzvMETJeNufNqRVNExWCxbQNPxjhHO2aoUdqSbfhu
MNYoF8JoBsiLBqTp/zBxjtD0RugBHdhwXNiVnu3DdA1D7axTiem/Rn1ee59K+r5W
fK2ffBBfPFtoCbK/49NAxLXim/1r98H8Qa8TZVAowGlhRG0Ajf5Bj+QDpr/W4JlX
uSIzhjNZqK0P4UWipAgCLWk9wo4Vt0OKSp9g+/mU8zxvPc7VNpdgx3lCnGChpq8Y
UIdHthQgbvnQ7mzYH7g3P+csh70ipAZY9rngQN7HozpFe1Fyjbtf8I0B8vE=
-----END CERTIFICATE-----
