Certificate:
    Data:
        Version: 3 (0x2)
        Serial Number: 463 (0x1cf)
    Signature Algorithm: sha1WithRSAEncryption
        Issuer: C=US, ST=CA, L=SanFrancisco, O=Pixglo, Inc., OU=VPN-CIE, CN=tunnel.pixglo.com/name=Bala Chandrasekaran/emailAddress=bala@pixglo.com
        Validity
            Not Before: Feb 14 06:34:42 2018 GMT
            Not After : Feb 12 06:34:42 2028 GMT
        Subject: C=US, ST=CA, L=SanFrancisco, O=Pixglo, Inc., OU=VPN-CIE, CN=cie462/name=Bala Chandrasekaran/emailAddress=bala@pixglo.com
        Subject Public Key Info:
            Public Key Algorithm: rsaEncryption
                Public-Key: (4096 bit)
                Modulus:
                    00:95:9d:62:9c:7a:57:6b:d1:f1:bd:08:6f:f4:03:
                    39:9c:31:58:80:17:b0:41:48:03:fb:b4:a7:2f:13:
                    16:42:2e:4e:8d:db:6b:1c:9b:b7:e2:d2:20:a1:4f:
                    12:b9:57:37:9b:4d:33:ff:ed:22:72:ee:b2:0c:71:
                    cf:a2:7e:92:fc:30:1d:a4:de:45:88:72:95:6d:47:
                    c8:5e:57:18:a8:46:67:91:77:6a:f3:61:a5:09:60:
                    88:75:83:41:99:0c:e0:73:71:a6:f4:ff:2e:2e:be:
                    f7:2a:8c:b4:5c:2c:c5:e4:33:44:91:9a:8f:54:33:
                    8e:d5:d6:75:b0:7e:e7:17:5c:68:1b:73:85:ea:8b:
                    71:49:d7:2f:d7:ea:47:18:05:d1:19:1b:0f:29:ca:
                    5b:d9:69:5c:51:04:7a:99:e4:6a:f2:d1:7f:68:e6:
                    70:68:a3:87:24:48:ce:88:4c:4e:5e:b0:6b:ea:17:
                    9f:0e:24:51:61:68:84:31:d5:08:de:e2:b6:d4:e8:
                    d9:30:63:72:90:79:96:e9:a1:36:0e:d1:a2:19:e5:
                    54:f9:97:91:5d:f9:22:51:0f:65:50:47:da:e6:bd:
                    f0:aa:ce:79:84:dc:7e:ae:a9:b2:1d:a8:c1:89:99:
                    cc:66:fa:fd:78:23:26:21:db:a2:8f:33:61:6c:90:
                    7d:96:2d:61:bb:f2:c0:28:a4:e4:41:60:ef:06:43:
                    50:02:b5:fb:43:4c:b5:45:62:dc:64:39:6e:6b:1f:
                    2d:5e:7b:01:a7:09:77:bc:41:32:1e:b1:43:7c:fd:
                    bf:e8:20:0e:b1:f2:82:92:06:be:3a:fb:f0:70:c2:
                    af:bd:f1:23:e2:9b:5a:f5:02:f9:3a:01:8e:e3:35:
                    5e:44:92:42:d3:0b:7d:89:f1:b5:f4:e8:f5:7d:38:
                    dd:65:4c:54:ae:c0:78:5f:5a:69:e9:4f:55:f1:3b:
                    25:2b:55:a3:53:f3:43:17:61:b4:01:28:c4:38:3d:
                    99:14:2f:69:27:df:57:69:fd:e9:82:e6:86:17:54:
                    3e:40:57:c5:70:e2:dc:ce:2c:0d:9f:41:9d:bb:7a:
                    3c:62:de:01:88:9e:9c:03:e3:3c:54:d1:14:0c:ad:
                    82:69:73:2c:6d:33:88:37:77:de:f4:80:a7:ff:28:
                    8b:35:de:90:fa:5a:a9:e2:d1:30:fd:d2:7f:fc:ea:
                    28:2b:37:6b:5f:25:08:6c:ac:8b:85:bd:c2:b4:34:
                    78:ec:45:c7:c0:62:00:8a:8b:ed:fa:96:c0:ee:a8:
                    cf:42:69:80:ee:84:f1:46:2d:e8:29:71:79:c9:05:
                    61:9a:a9:8d:6b:75:ee:81:e5:22:27:24:34:fd:3a:
                    0f:cf:07
                Exponent: 65537 (0x10001)
        X509v3 extensions:
            X509v3 Basic Constraints: 
                CA:FALSE
            Netscape Comment: 
                Easy-RSA Generated Certificate
            X509v3 Subject Key Identifier: 
                C8:C3:A8:E5:95:7A:38:69:4D:DC:9C:9A:5D:73:08:2F:32:9D:59:F6
            X509v3 Authority Key Identifier: 
                keyid:EF:38:8D:14:50:58:A7:5B:4D:9C:17:72:FC:DF:B9:AC:A7:51:B0:10
                DirName:/C=US/ST=CA/L=SanFrancisco/O=Pixglo, Inc./OU=VPN-CIE/CN=tunnel.pixglo.com/name=Bala Chandrasekaran/emailAddress=bala@pixglo.com
                serial:A6:DB:C6:83:80:E6:A0:79

            X509v3 Extended Key Usage: 
                TLS Web Client Authentication
            X509v3 Key Usage: 
                Digital Signature
    Signature Algorithm: sha1WithRSAEncryption
         3c:93:e4:26:67:cc:d2:5e:de:5a:94:7b:1d:06:e2:54:40:55:
         e8:b3:a6:b4:41:5e:9f:0b:01:0e:55:f8:8e:84:d6:1b:d4:72:
         55:95:08:c6:99:f0:c5:54:29:f7:73:6e:bd:7f:5d:b0:f0:5d:
         bf:80:e8:eb:45:1d:f1:ff:09:50:ce:f9:92:a3:6a:8c:61:e1:
         10:5a:c2:6c:a2:e3:99:3e:ac:45:5d:14:80:c2:c3:39:67:01:
         4f:17:c4:ec:a3:80:40:1f:92:62:5f:0f:f2:82:c8:6b:33:5b:
         12:fe:2c:ba:d5:24:f0:5d:72:a5:a5:90:50:2e:69:b1:40:13:
         53:f5:91:2b:5a:50:f9:98:35:f4:e8:82:e2:76:6a:6a:c6:3c:
         b1:18:ed:50:7b:8f:91:f5:d3:2a:a8:1b:7a:49:86:42:77:38:
         9e:4b:1d:9c:55:71:18:0a:31:62:40:de:01:80:6a:c0:63:28:
         09:51:fd:21:9a:ea:18:f3:21:73:ea:e4:dd:54:59:bb:12:47:
         58:2e:e7:a0:7b:9e:cd:ff:64:f6:04:3b:d4:f2:f9:bd:8a:e8:
         bc:32:5c:58:59:de:4e:94:a1:20:92:12:ab:48:52:43:e3:2a:
         88:cf:87:b9:14:ce:f0:49:00:a7:ba:bd:ae:d5:80:ed:21:96:
         55:28:52:79:2a:8a:a8:50:2f:4d:33:0c:9f:0a:db:c2:5c:5c:
         6c:58:79:63:46:71:71:1f:cd:b2:78:d2:71:a1:ff:aa:f4:09:
         3f:41:c2:eb:9c:07:da:b2:d2:03:43:fa:20:a0:00:d5:a9:36:
         78:09:0b:7b:6e:2e:ce:e1:8c:17:ee:6a:1c:c1:f0:cc:ce:f0:
         c5:08:7d:42:3d:0f:40:eb:c5:8b:d7:70:2c:2b:1a:33:d3:20:
         e2:d1:4e:07:91:51:1a:70:18:a2:04:b0:3e:c8:15:b2:1d:bb:
         cc:b0:db:7b:d8:6a:ff:a7:cc:47:df:8f:bf:6f:70:3b:99:6a:
         60:11:f6:0f:ca:56:aa:3f:76:93:85:57:c3:9d:85:ff:55:c9:
         44:83:b1:2a:4f:dd:f3:d9:9f:81:1e:f9:96:64:d6:0f:84:4a:
         90:e8:3e:68:cd:aa:31:f7:2c:46:92:0d:30:58:16:1e:db:8e:
         fe:b8:bc:0c:85:c3:d1:f9:50:16:8e:6c:a5:73:3f:1f:fe:21:
         57:28:30:ab:4c:17:41:9b:39:71:e5:ab:46:78:f3:91:c8:56:
         09:68:1f:90:03:db:9a:f6:06:3b:a0:7f:13:35:79:d7:43:73:
         c7:75:ff:bc:6c:52:e6:73:50:ab:13:6e:8c:30:57:06:38:24:
         ec:04:41:53:75:c0:25:06
-----BEGIN CERTIFICATE-----
MIIHSDCCBTCgAwIBAgICAc8wDQYJKoZIhvcNAQEFBQAwgbQxCzAJBgNVBAYTAlVT
MQswCQYDVQQIEwJDQTEVMBMGA1UEBxMMU2FuRnJhbmNpc2NvMRUwEwYDVQQKEwxQ
aXhnbG8sIEluYy4xEDAOBgNVBAsTB1ZQTi1DSUUxGjAYBgNVBAMTEXR1bm5lbC5w
aXhnbG8uY29tMRwwGgYDVQQpExNCYWxhIENoYW5kcmFzZWthcmFuMR4wHAYJKoZI
hvcNAQkBFg9iYWxhQHBpeGdsby5jb20wHhcNMTgwMjE0MDYzNDQyWhcNMjgwMjEy
MDYzNDQyWjCBqTELMAkGA1UEBhMCVVMxCzAJBgNVBAgTAkNBMRUwEwYDVQQHEwxT
YW5GcmFuY2lzY28xFTATBgNVBAoTDFBpeGdsbywgSW5jLjEQMA4GA1UECxMHVlBO
LUNJRTEPMA0GA1UEAxMGY2llNDYyMRwwGgYDVQQpExNCYWxhIENoYW5kcmFzZWth
cmFuMR4wHAYJKoZIhvcNAQkBFg9iYWxhQHBpeGdsby5jb20wggIiMA0GCSqGSIb3
DQEBAQUAA4ICDwAwggIKAoICAQCVnWKceldr0fG9CG/0AzmcMViAF7BBSAP7tKcv
ExZCLk6N22scm7fi0iChTxK5VzebTTP/7SJy7rIMcc+ifpL8MB2k3kWIcpVtR8he
VxioRmeRd2rzYaUJYIh1g0GZDOBzcab0/y4uvvcqjLRcLMXkM0SRmo9UM47V1nWw
fucXXGgbc4Xqi3FJ1y/X6kcYBdEZGw8pylvZaVxRBHqZ5Gry0X9o5nBoo4ckSM6I
TE5esGvqF58OJFFhaIQx1Qje4rbU6NkwY3KQeZbpoTYO0aIZ5VT5l5Fd+SJRD2VQ
R9rmvfCqznmE3H6uqbIdqMGJmcxm+v14IyYh26KPM2FskH2WLWG78sAopORBYO8G
Q1ACtftDTLVFYtxkOW5rHy1eewGnCXe8QTIesUN8/b/oIA6x8oKSBr46+/Bwwq+9
8SPim1r1Avk6AY7jNV5EkkLTC32J8bX06PV9ON1lTFSuwHhfWmnpT1XxOyUrVaNT
80MXYbQBKMQ4PZkUL2kn31dp/emC5oYXVD5AV8Vw4tzOLA2fQZ27ejxi3gGInpwD
4zxU0RQMrYJpcyxtM4g3d970gKf/KIs13pD6Wqni0TD90n/86igrN2tfJQhsrIuF
vcK0NHjsRcfAYgCKi+36lsDuqM9CaYDuhPFGLegpcXnJBWGaqY1rde6B5SInJDT9
Og/PBwIDAQABo4IBazCCAWcwCQYDVR0TBAIwADAtBglghkgBhvhCAQ0EIBYeRWFz
eS1SU0EgR2VuZXJhdGVkIENlcnRpZmljYXRlMB0GA1UdDgQWBBTIw6jllXo4aU3c
nJpdcwgvMp1Z9jCB6QYDVR0jBIHhMIHegBTvOI0UUFinW02cF3L837msp1GwEKGB
uqSBtzCBtDELMAkGA1UEBhMCVVMxCzAJBgNVBAgTAkNBMRUwEwYDVQQHEwxTYW5G
cmFuY2lzY28xFTATBgNVBAoTDFBpeGdsbywgSW5jLjEQMA4GA1UECxMHVlBOLUNJ
RTEaMBgGA1UEAxMRdHVubmVsLnBpeGdsby5jb20xHDAaBgNVBCkTE0JhbGEgQ2hh
bmRyYXNla2FyYW4xHjAcBgkqhkiG9w0BCQEWD2JhbGFAcGl4Z2xvLmNvbYIJAKbb
xoOA5qB5MBMGA1UdJQQMMAoGCCsGAQUFBwMCMAsGA1UdDwQEAwIHgDANBgkqhkiG
9w0BAQUFAAOCAgEAPJPkJmfM0l7eWpR7HQbiVEBV6LOmtEFenwsBDlX4joTWG9Ry
VZUIxpnwxVQp93NuvX9dsPBdv4Do60Ud8f8JUM75kqNqjGHhEFrCbKLjmT6sRV0U
gMLDOWcBTxfE7KOAQB+SYl8P8oLIazNbEv4sutUk8F1ypaWQUC5psUATU/WRK1pQ
+Zg19OiC4nZqasY8sRjtUHuPkfXTKqgbekmGQnc4nksdnFVxGAoxYkDeAYBqwGMo
CVH9IZrqGPMhc+rk3VRZuxJHWC7noHuezf9k9gQ71PL5vYrovDJcWFneTpShIJIS
q0hSQ+MqiM+HuRTO8EkAp7q9rtWA7SGWVShSeSqKqFAvTTMMnwrbwlxcbFh5Y0Zx
cR/NsnjScaH/qvQJP0HC65wH2rLSA0P6IKAA1ak2eAkLe24uzuGMF+5qHMHwzM7w
xQh9Qj0PQOvFi9dwLCsaM9Mg4tFOB5FRGnAYogSwPsgVsh27zLDbe9hq/6fMR9+P
v29wO5lqYBH2D8pWqj92k4VXw52F/1XJRIOxKk/d89mfgR75lmTWD4RKkOg+aM2q
MfcsRpINMFgWHtuO/ri8DIXD0flQFo5spXM/H/4hVygwq0wXQZs5ceWrRnjzkchW
CWgfkAPbmvYGO6B/EzV510Nzx3X/vGxS5nNQqxNujDBXBjgk7ARBU3XAJQY=
-----END CERTIFICATE-----
