Certificate:
    Data:
        Version: 3 (0x2)
        Serial Number: 464 (0x1d0)
    Signature Algorithm: sha1WithRSAEncryption
        Issuer: C=US, ST=CA, L=SanFrancisco, O=Pixglo, Inc., OU=VPN-CIE, CN=tunnel.pixglo.com/name=Bala Chandrasekaran/emailAddress=bala@pixglo.com
        Validity
            Not Before: Feb 14 06:34:43 2018 GMT
            Not After : Feb 12 06:34:43 2028 GMT
        Subject: C=US, ST=CA, L=SanFrancisco, O=Pixglo, Inc., OU=VPN-CIE, CN=cie463/name=Bala Chandrasekaran/emailAddress=bala@pixglo.com
        Subject Public Key Info:
            Public Key Algorithm: rsaEncryption
                Public-Key: (4096 bit)
                Modulus:
                    00:ee:3c:6c:c3:09:33:fb:c6:91:c3:65:3f:14:96:
                    5c:d9:3a:33:fb:b6:c8:5b:06:b7:d3:cc:fb:eb:b9:
                    91:ca:8a:f5:6a:b1:d4:45:e4:44:88:3d:82:cf:01:
                    27:e1:b6:95:76:03:3e:74:7a:1d:63:64:2f:19:f5:
                    58:58:f9:2d:cc:09:ac:5a:27:ae:b9:77:fa:eb:4b:
                    74:07:af:16:ce:62:18:61:f5:b1:c6:fb:a8:a7:c3:
                    0c:8e:b1:6f:44:ee:03:4c:8e:54:01:41:59:da:fc:
                    45:74:5a:16:5a:9b:9d:ce:e3:77:af:2f:dc:ac:fa:
                    e3:7d:cc:47:34:e5:6b:3b:34:ee:ea:b2:d7:54:e9:
                    cd:d5:90:bb:c5:bd:5b:c4:99:59:53:eb:ff:15:9f:
                    65:3e:90:c5:a2:d4:b7:5a:73:0a:0e:cd:d2:51:0b:
                    b5:02:76:9c:ae:53:42:47:11:85:6c:26:1e:04:e2:
                    77:27:b4:a5:05:c0:ae:3f:59:20:3e:1a:07:d5:24:
                    fe:17:62:04:5a:b0:d0:0e:d6:e1:f1:88:02:88:c0:
                    4a:e0:72:98:a4:5b:69:12:e4:1e:0d:a3:7a:c2:37:
                    8c:06:48:10:00:48:f9:12:e8:4c:6c:30:d6:6c:9d:
                    a7:97:88:f6:5d:45:37:68:39:78:c4:f4:11:f6:15:
                    ce:a8:05:69:5d:96:ae:f1:5a:dc:e3:da:26:89:f7:
                    06:f8:62:5e:ec:c8:f7:b7:d7:1f:ed:49:58:0a:54:
                    c5:5a:c3:86:ba:cd:8b:b9:b9:06:33:71:1a:f8:4a:
                    48:6e:0c:82:40:00:d5:75:63:b8:a8:71:31:77:0a:
                    29:c2:bd:08:0d:48:68:ff:73:e4:8f:c1:f3:9c:95:
                    30:de:94:91:e2:91:66:bf:03:a8:8d:dd:8e:ba:b9:
                    1d:1b:e9:45:05:b3:37:8c:74:1a:8e:6c:c1:77:68:
                    63:0c:e7:75:ad:36:f3:b1:d1:4e:95:76:1a:83:72:
                    38:d3:9d:23:f6:4a:89:37:e0:22:d8:19:f4:1f:fd:
                    db:ba:7c:7c:1d:cb:1e:ee:ee:85:f6:2b:4a:d2:72:
                    30:95:00:a1:00:fa:31:4e:73:d5:be:c4:de:3a:f9:
                    94:b4:8a:a6:57:d2:7c:d9:d3:be:78:0f:a7:46:42:
                    70:ff:30:8f:41:30:3a:f0:6b:ad:0b:41:79:81:98:
                    68:53:87:05:09:fa:c8:aa:24:0d:eb:81:c4:f1:ed:
                    8a:11:94:9c:f1:d4:0a:7a:74:da:ef:cd:b2:eb:e8:
                    73:fb:a5:71:bb:f9:22:7f:e6:8f:2b:75:77:35:62:
                    78:f1:b2:cf:ca:34:86:2e:69:ae:34:be:66:34:e8:
                    6e:4d:b7
                Exponent: 65537 (0x10001)
        X509v3 extensions:
            X509v3 Basic Constraints: 
                CA:FALSE
            Netscape Comment: 
                Easy-RSA Generated Certificate
            X509v3 Subject Key Identifier: 
                E3:A2:94:5A:3A:E9:BC:65:D1:7B:14:8F:4C:9D:F7:B5:FB:53:FD:BA
            X509v3 Authority Key Identifier: 
                keyid:EF:38:8D:14:50:58:A7:5B:4D:9C:17:72:FC:DF:B9:AC:A7:51:B0:10
                DirName:/C=US/ST=CA/L=SanFrancisco/O=Pixglo, Inc./OU=VPN-CIE/CN=tunnel.pixglo.com/name=Bala Chandrasekaran/emailAddress=bala@pixglo.com
                serial:A6:DB:C6:83:80:E6:A0:79

            X509v3 Extended Key Usage: 
                TLS Web Client Authentication
            X509v3 Key Usage: 
                Digital Signature
    Signature Algorithm: sha1WithRSAEncryption
         42:19:17:0f:a3:e8:91:3d:29:49:33:8e:c7:b7:59:6d:78:a7:
         af:a1:5e:26:bb:86:e8:d5:d0:01:66:55:0e:54:63:d2:c1:6f:
         60:0e:3b:35:c4:3c:8f:08:64:13:bd:58:ab:a0:01:2d:0b:bc:
         3b:77:16:0f:40:72:ba:62:bf:b2:98:4d:39:e0:71:25:1e:50:
         16:ad:d4:fe:04:d7:e7:ec:62:74:8f:0c:71:18:43:5e:20:05:
         b1:c8:b2:5c:45:4f:56:4c:f7:05:d9:11:b1:65:5c:51:34:25:
         f9:71:bb:f7:f2:4f:a7:8c:81:e1:70:e2:71:43:44:8e:ba:7c:
         da:3c:f7:3c:5b:47:47:12:f3:26:a4:bb:c4:f8:fe:33:2a:29:
         37:11:37:3b:c5:e2:17:eb:f7:a8:d8:1e:97:dc:50:cf:1f:a8:
         9c:83:11:bf:d8:25:f8:fd:36:1e:35:ca:9f:a2:b1:12:57:52:
         64:00:d0:e6:86:7a:da:5c:41:11:bf:54:c9:e5:27:db:6b:04:
         be:3a:09:73:71:9d:15:8e:27:1f:da:bd:c5:5e:ce:26:24:70:
         cc:9b:cf:4c:62:9b:92:bd:20:22:db:9b:bd:7a:a5:a6:87:a7:
         35:fe:dc:9b:e7:ce:3b:63:ff:81:51:48:5f:ce:f8:4d:8d:d4:
         00:ff:1a:b4:ae:6c:f3:9b:f6:3e:66:a4:df:d5:92:25:94:ab:
         b7:3e:2d:a4:1c:dd:ec:fe:ef:18:88:48:fc:c3:4f:d4:8d:64:
         99:4b:29:20:18:4e:8e:9c:0a:86:51:a7:c4:7f:9e:93:c8:30:
         8c:c1:2a:41:8a:18:12:7f:bb:2c:57:0e:5e:62:77:ac:61:8d:
         48:bd:2f:a1:98:0e:1a:33:85:fd:9d:9f:c0:f0:f2:fd:d0:7e:
         e4:7a:cf:39:8b:7d:20:be:6f:5e:02:3a:aa:10:47:98:26:57:
         8e:dc:c8:a2:f9:8e:90:02:0b:86:16:ac:80:cb:a2:c3:4f:a0:
         f6:08:0d:01:fe:61:e8:8f:9e:a5:bb:d0:47:63:f2:f3:2c:77:
         f8:d0:8a:70:22:ed:3b:64:1e:44:a6:fd:bf:d7:24:f3:99:73:
         3e:da:84:c7:a2:6d:5c:1d:3d:e7:83:f7:3f:ef:9b:e9:2c:d7:
         d0:ed:1c:8f:89:1c:6b:11:6b:4d:97:03:da:44:8d:b1:b8:fa:
         08:41:d0:28:ba:c5:2a:3b:23:71:a7:62:62:29:00:c9:fb:b0:
         41:ca:c4:59:19:f9:55:f0:e2:99:ec:bd:b8:e3:1f:a1:5b:d1:
         a1:d6:49:2c:0b:1d:33:e8:ab:a1:33:39:e1:7e:96:7e:33:22:
         2b:6a:0a:58:83:d4:b0:4d
-----BEGIN CERTIFICATE-----
MIIHSDCCBTCgAwIBAgICAdAwDQYJKoZIhvcNAQEFBQAwgbQxCzAJBgNVBAYTAlVT
MQswCQYDVQQIEwJDQTEVMBMGA1UEBxMMU2FuRnJhbmNpc2NvMRUwEwYDVQQKEwxQ
aXhnbG8sIEluYy4xEDAOBgNVBAsTB1ZQTi1DSUUxGjAYBgNVBAMTEXR1bm5lbC5w
aXhnbG8uY29tMRwwGgYDVQQpExNCYWxhIENoYW5kcmFzZWthcmFuMR4wHAYJKoZI
hvcNAQkBFg9iYWxhQHBpeGdsby5jb20wHhcNMTgwMjE0MDYzNDQzWhcNMjgwMjEy
MDYzNDQzWjCBqTELMAkGA1UEBhMCVVMxCzAJBgNVBAgTAkNBMRUwEwYDVQQHEwxT
YW5GcmFuY2lzY28xFTATBgNVBAoTDFBpeGdsbywgSW5jLjEQMA4GA1UECxMHVlBO
LUNJRTEPMA0GA1UEAxMGY2llNDYzMRwwGgYDVQQpExNCYWxhIENoYW5kcmFzZWth
cmFuMR4wHAYJKoZIhvcNAQkBFg9iYWxhQHBpeGdsby5jb20wggIiMA0GCSqGSIb3
DQEBAQUAA4ICDwAwggIKAoICAQDuPGzDCTP7xpHDZT8UllzZOjP7tshbBrfTzPvr
uZHKivVqsdRF5ESIPYLPASfhtpV2Az50eh1jZC8Z9VhY+S3MCaxaJ665d/rrS3QH
rxbOYhhh9bHG+6inwwyOsW9E7gNMjlQBQVna/EV0WhZam53O43evL9ys+uN9zEc0
5Ws7NO7qstdU6c3VkLvFvVvEmVlT6/8Vn2U+kMWi1LdacwoOzdJRC7UCdpyuU0JH
EYVsJh4E4ncntKUFwK4/WSA+GgfVJP4XYgRasNAO1uHxiAKIwErgcpikW2kS5B4N
o3rCN4wGSBAASPkS6ExsMNZsnaeXiPZdRTdoOXjE9BH2Fc6oBWldlq7xWtzj2iaJ
9wb4Yl7syPe31x/tSVgKVMVaw4a6zYu5uQYzcRr4SkhuDIJAANV1Y7iocTF3CinC
vQgNSGj/c+SPwfOclTDelJHikWa/A6iN3Y66uR0b6UUFszeMdBqObMF3aGMM53Wt
NvOx0U6VdhqDcjjTnSP2Sok34CLYGfQf/du6fHwdyx7u7oX2K0rScjCVAKEA+jFO
c9W+xN46+ZS0iqZX0nzZ0754D6dGQnD/MI9BMDrwa60LQXmBmGhThwUJ+siqJA3r
gcTx7YoRlJzx1Ap6dNrvzbLr6HP7pXG7+SJ/5o8rdXc1Ynjxss/KNIYuaa40vmY0
6G5NtwIDAQABo4IBazCCAWcwCQYDVR0TBAIwADAtBglghkgBhvhCAQ0EIBYeRWFz
eS1SU0EgR2VuZXJhdGVkIENlcnRpZmljYXRlMB0GA1UdDgQWBBTjopRaOum8ZdF7
FI9Mnfe1+1P9ujCB6QYDVR0jBIHhMIHegBTvOI0UUFinW02cF3L837msp1GwEKGB
uqSBtzCBtDELMAkGA1UEBhMCVVMxCzAJBgNVBAgTAkNBMRUwEwYDVQQHEwxTYW5G
cmFuY2lzY28xFTATBgNVBAoTDFBpeGdsbywgSW5jLjEQMA4GA1UECxMHVlBOLUNJ
RTEaMBgGA1UEAxMRdHVubmVsLnBpeGdsby5jb20xHDAaBgNVBCkTE0JhbGEgQ2hh
bmRyYXNla2FyYW4xHjAcBgkqhkiG9w0BCQEWD2JhbGFAcGl4Z2xvLmNvbYIJAKbb
xoOA5qB5MBMGA1UdJQQMMAoGCCsGAQUFBwMCMAsGA1UdDwQEAwIHgDANBgkqhkiG
9w0BAQUFAAOCAgEAQhkXD6PokT0pSTOOx7dZbXinr6FeJruG6NXQAWZVDlRj0sFv
YA47NcQ8jwhkE71Yq6ABLQu8O3cWD0ByumK/sphNOeBxJR5QFq3U/gTX5+xidI8M
cRhDXiAFsciyXEVPVkz3BdkRsWVcUTQl+XG79/JPp4yB4XDicUNEjrp82jz3PFtH
RxLzJqS7xPj+MyopNxE3O8XiF+v3qNgel9xQzx+onIMRv9gl+P02HjXKn6KxEldS
ZADQ5oZ62lxBEb9UyeUn22sEvjoJc3GdFY4nH9q9xV7OJiRwzJvPTGKbkr0gItub
vXqlpoenNf7cm+fOO2P/gVFIX874TY3UAP8atK5s85v2Pmak39WSJZSrtz4tpBzd
7P7vGIhI/MNP1I1kmUspIBhOjpwKhlGnxH+ek8gwjMEqQYoYEn+7LFcOXmJ3rGGN
SL0voZgOGjOF/Z2fwPDy/dB+5HrPOYt9IL5vXgI6qhBHmCZXjtzIovmOkAILhhas
gMuiw0+g9ggNAf5h6I+epbvQR2Py8yx3+NCKcCLtO2QeRKb9v9ck85lzPtqEx6Jt
XB0954P3P++b6SzX0O0cj4kcaxFrTZcD2kSNsbj6CEHQKLrFKjsjcadiYikAyfuw
QcrEWRn5VfDimey9uOMfoVvRodZJLAsdM+iroTM54X6WfjMiK2oKWIPUsE0=
-----END CERTIFICATE-----
