Certificate:
    Data:
        Version: 3 (0x2)
        Serial Number: 470 (0x1d6)
    Signature Algorithm: sha1WithRSAEncryption
        Issuer: C=US, ST=CA, L=SanFrancisco, O=Pixglo, Inc., OU=VPN-CIE, CN=tunnel.pixglo.com/name=Bala Chandrasekaran/emailAddress=bala@pixglo.com
        Validity
            Not Before: Feb 14 06:34:53 2018 GMT
            Not After : Feb 12 06:34:53 2028 GMT
        Subject: C=US, ST=CA, L=SanFrancisco, O=Pixglo, Inc., OU=VPN-CIE, CN=cie469/name=Bala Chandrasekaran/emailAddress=bala@pixglo.com
        Subject Public Key Info:
            Public Key Algorithm: rsaEncryption
                Public-Key: (4096 bit)
                Modulus:
                    00:d7:8d:8e:c3:5b:d0:0e:e6:c3:ac:f5:ec:81:8d:
                    c4:c5:3e:ed:42:de:2a:ce:42:db:42:cd:26:9c:d0:
                    6c:73:98:67:8a:90:73:d9:89:d8:60:f9:42:a9:3d:
                    fe:e2:aa:bc:e5:90:9b:af:87:cd:ca:ac:3f:05:01:
                    ef:09:20:8b:30:9a:38:66:da:1a:64:bd:f0:48:65:
                    2c:8b:d3:dd:1f:b6:8f:e4:b5:4d:1c:5f:70:03:5f:
                    53:f0:67:2f:01:b8:5e:a9:e2:6f:11:49:5d:d1:5b:
                    ab:4c:64:0b:a2:10:37:10:ce:5c:78:6f:3b:46:bb:
                    33:88:70:ef:ad:86:bd:08:71:e6:e6:37:cc:ef:4d:
                    b3:f2:d8:ea:1c:8c:1d:c8:7d:e6:b4:a6:fe:8e:b5:
                    d2:0b:18:59:67:01:8a:2e:b1:53:b2:e7:2a:4f:ce:
                    62:5a:d8:47:92:ba:d9:41:f6:b9:f7:52:5d:94:80:
                    39:76:b4:c8:9b:eb:0b:86:4a:ec:8d:ff:a3:55:6a:
                    fe:4b:c0:52:fa:ca:19:b1:13:bc:1f:29:76:29:07:
                    83:e9:dc:4a:96:09:a4:9f:75:bd:de:ca:fe:83:c3:
                    91:b7:3f:e2:96:a2:7f:ae:4d:f0:b0:aa:d2:34:bb:
                    b4:6d:e8:ac:19:23:e2:ee:35:de:aa:00:f3:e2:b9:
                    6e:35:02:1f:0a:42:ea:60:2d:a1:09:32:57:d1:ec:
                    73:bd:0b:9a:48:c1:fb:5d:9a:f4:72:17:92:9d:5f:
                    b1:90:f1:f3:ce:0b:92:25:2b:fb:c6:3e:51:8f:dd:
                    9f:96:06:a8:cf:28:97:d4:ab:43:67:0f:0f:4d:19:
                    2b:f7:80:e3:69:55:54:65:00:59:bf:e9:d5:42:8a:
                    5f:cb:be:2c:ba:64:58:d9:b4:3a:6b:8a:dc:d2:3c:
                    54:c1:c6:0b:7c:9c:e4:97:dd:06:17:20:07:ac:42:
                    e1:f4:c3:2e:92:9d:e3:fc:86:85:b5:78:3c:ad:1a:
                    2d:82:83:ab:fc:4f:ef:6e:b6:9b:34:69:93:b1:ea:
                    e5:65:89:6a:c5:2e:8d:01:de:bc:48:98:4c:47:78:
                    6e:77:97:f5:7a:93:b4:58:62:d3:23:13:fe:91:ea:
                    51:1b:a3:82:e3:db:52:b4:e1:ee:c9:6b:a7:e4:95:
                    7c:83:47:ef:72:44:66:7b:cb:93:22:27:a1:e3:f6:
                    1f:99:54:1c:28:65:ea:c1:bd:d8:8a:0c:74:9c:02:
                    8e:40:92:16:c9:d0:52:7c:88:ac:0c:78:22:f8:a7:
                    39:65:7c:d4:c4:77:9d:85:3a:74:96:76:8c:93:00:
                    21:34:08:dd:81:75:a3:66:80:94:b3:3e:d3:2a:07:
                    be:cb:ef
                Exponent: 65537 (0x10001)
        X509v3 extensions:
            X509v3 Basic Constraints: 
                CA:FALSE
            Netscape Comment: 
                Easy-RSA Generated Certificate
            X509v3 Subject Key Identifier: 
                F4:07:A7:DE:D4:8C:83:D6:5D:02:98:48:B0:D3:E0:90:78:43:57:AD
            X509v3 Authority Key Identifier: 
                keyid:EF:38:8D:14:50:58:A7:5B:4D:9C:17:72:FC:DF:B9:AC:A7:51:B0:10
                DirName:/C=US/ST=CA/L=SanFrancisco/O=Pixglo, Inc./OU=VPN-CIE/CN=tunnel.pixglo.com/name=Bala Chandrasekaran/emailAddress=bala@pixglo.com
                serial:A6:DB:C6:83:80:E6:A0:79

            X509v3 Extended Key Usage: 
                TLS Web Client Authentication
            X509v3 Key Usage: 
                Digital Signature
    Signature Algorithm: sha1WithRSAEncryption
         0d:43:8e:90:26:83:47:12:f9:02:a3:ea:e6:ed:f6:b9:e6:cf:
         55:74:1a:9a:2a:2f:6e:db:b8:a8:b5:ab:d3:bf:f8:78:bc:ea:
         64:25:5d:59:c8:cd:ed:62:f7:ae:e6:6e:59:95:14:b2:8b:bc:
         73:31:e4:81:38:e2:2e:98:0e:5a:4c:42:d3:4d:36:7c:ee:c9:
         38:f0:06:47:8b:ca:57:30:e4:e8:c7:f2:65:cc:67:0c:9a:75:
         f1:34:85:f9:7a:6b:44:14:2b:4b:3f:1d:9d:e7:57:73:94:ed:
         e4:30:17:14:61:df:ee:de:f6:71:25:b2:41:96:f9:8e:cc:d0:
         d5:ed:fb:ee:65:2e:28:08:a2:6a:ff:7e:23:02:2f:5e:e4:f5:
         9d:ea:f5:cf:35:5d:61:be:fc:8d:bc:1b:74:6b:c5:69:0e:12:
         ba:5a:8a:84:99:36:78:9d:a5:9b:81:72:1a:30:10:de:27:16:
         8e:43:de:c3:a8:c4:45:4d:82:75:89:13:00:6d:e6:1a:32:ac:
         7e:5c:f0:6a:0f:50:ac:13:1f:aa:4b:45:ae:eb:1b:07:cd:94:
         d0:2a:91:89:a8:3c:08:bc:09:75:d5:37:42:f8:11:6a:eb:4d:
         7b:fd:35:5d:ae:6c:69:cf:e9:cb:b2:05:5a:e7:26:fe:27:30:
         27:d3:b9:61:8f:2f:46:a2:e9:91:ab:3d:b6:86:3b:76:65:62:
         26:32:e8:cc:29:22:5e:62:7b:46:2e:66:ca:2f:62:0a:fd:82:
         33:15:d7:98:2b:35:e0:b3:f9:dc:31:47:a6:e1:e9:e2:a4:0c:
         2f:19:51:51:7e:ac:ea:71:ac:1f:12:f6:8c:8f:38:31:fd:24:
         4e:7a:52:a2:11:76:2a:b5:9e:d0:80:d7:dc:29:28:31:1f:21:
         e9:b0:8d:21:1c:d2:d7:55:30:73:d4:5f:2c:ae:70:a7:94:b9:
         ec:6d:99:1c:4e:67:65:7c:e3:df:d9:2b:fa:4a:0e:63:63:c4:
         6d:6d:9f:aa:6b:24:b3:4f:09:24:33:4f:cc:ed:7a:51:39:bf:
         da:c7:0d:c9:a4:0b:fe:94:ad:bc:ff:35:9a:0e:3a:41:f2:51:
         1b:5e:fe:a1:89:5d:b8:f5:80:dc:a1:03:5d:b7:51:c5:2d:39:
         9e:d5:9e:21:db:91:1f:2b:57:98:27:d6:c7:08:ad:33:27:83:
         9e:d8:b9:96:43:2a:3f:de:84:0e:59:45:b4:37:e2:25:62:8a:
         0f:9e:2e:f0:c6:ab:45:6a:14:b2:51:79:95:bf:c5:73:b9:d0:
         2b:71:ce:47:86:7b:22:fc:7c:c8:b1:df:d7:0b:9a:b3:91:22:
         1f:41:54:f5:ac:92:16:6d
-----BEGIN CERTIFICATE-----
MIIHSDCCBTCgAwIBAgICAdYwDQYJKoZIhvcNAQEFBQAwgbQxCzAJBgNVBAYTAlVT
MQswCQYDVQQIEwJDQTEVMBMGA1UEBxMMU2FuRnJhbmNpc2NvMRUwEwYDVQQKEwxQ
aXhnbG8sIEluYy4xEDAOBgNVBAsTB1ZQTi1DSUUxGjAYBgNVBAMTEXR1bm5lbC5w
aXhnbG8uY29tMRwwGgYDVQQpExNCYWxhIENoYW5kcmFzZWthcmFuMR4wHAYJKoZI
hvcNAQkBFg9iYWxhQHBpeGdsby5jb20wHhcNMTgwMjE0MDYzNDUzWhcNMjgwMjEy
MDYzNDUzWjCBqTELMAkGA1UEBhMCVVMxCzAJBgNVBAgTAkNBMRUwEwYDVQQHEwxT
YW5GcmFuY2lzY28xFTATBgNVBAoTDFBpeGdsbywgSW5jLjEQMA4GA1UECxMHVlBO
LUNJRTEPMA0GA1UEAxMGY2llNDY5MRwwGgYDVQQpExNCYWxhIENoYW5kcmFzZWth
cmFuMR4wHAYJKoZIhvcNAQkBFg9iYWxhQHBpeGdsby5jb20wggIiMA0GCSqGSIb3
DQEBAQUAA4ICDwAwggIKAoICAQDXjY7DW9AO5sOs9eyBjcTFPu1C3irOQttCzSac
0GxzmGeKkHPZidhg+UKpPf7iqrzlkJuvh83KrD8FAe8JIIswmjhm2hpkvfBIZSyL
090fto/ktU0cX3ADX1PwZy8BuF6p4m8RSV3RW6tMZAuiEDcQzlx4bztGuzOIcO+t
hr0IcebmN8zvTbPy2OocjB3Ifea0pv6OtdILGFlnAYousVOy5ypPzmJa2EeSutlB
9rn3Ul2UgDl2tMib6wuGSuyN/6NVav5LwFL6yhmxE7wfKXYpB4Pp3EqWCaSfdb3e
yv6Dw5G3P+KWon+uTfCwqtI0u7Rt6KwZI+LuNd6qAPPiuW41Ah8KQupgLaEJMlfR
7HO9C5pIwftdmvRyF5KdX7GQ8fPOC5IlK/vGPlGP3Z+WBqjPKJfUq0NnDw9NGSv3
gONpVVRlAFm/6dVCil/Lviy6ZFjZtDpritzSPFTBxgt8nOSX3QYXIAesQuH0wy6S
neP8hoW1eDytGi2Cg6v8T+9utps0aZOx6uVliWrFLo0B3rxImExHeG53l/V6k7RY
YtMjE/6R6lEbo4Lj21K04e7Ja6fklXyDR+9yRGZ7y5MiJ6Hj9h+ZVBwoZerBvdiK
DHScAo5AkhbJ0FJ8iKwMeCL4pzllfNTEd52FOnSWdoyTACE0CN2BdaNmgJSzPtMq
B77L7wIDAQABo4IBazCCAWcwCQYDVR0TBAIwADAtBglghkgBhvhCAQ0EIBYeRWFz
eS1SU0EgR2VuZXJhdGVkIENlcnRpZmljYXRlMB0GA1UdDgQWBBT0B6fe1IyD1l0C
mEiw0+CQeENXrTCB6QYDVR0jBIHhMIHegBTvOI0UUFinW02cF3L837msp1GwEKGB
uqSBtzCBtDELMAkGA1UEBhMCVVMxCzAJBgNVBAgTAkNBMRUwEwYDVQQHEwxTYW5G
cmFuY2lzY28xFTATBgNVBAoTDFBpeGdsbywgSW5jLjEQMA4GA1UECxMHVlBOLUNJ
RTEaMBgGA1UEAxMRdHVubmVsLnBpeGdsby5jb20xHDAaBgNVBCkTE0JhbGEgQ2hh
bmRyYXNla2FyYW4xHjAcBgkqhkiG9w0BCQEWD2JhbGFAcGl4Z2xvLmNvbYIJAKbb
xoOA5qB5MBMGA1UdJQQMMAoGCCsGAQUFBwMCMAsGA1UdDwQEAwIHgDANBgkqhkiG
9w0BAQUFAAOCAgEADUOOkCaDRxL5AqPq5u32uebPVXQamiovbtu4qLWr07/4eLzq
ZCVdWcjN7WL3ruZuWZUUsou8czHkgTjiLpgOWkxC0002fO7JOPAGR4vKVzDk6Mfy
ZcxnDJp18TSF+XprRBQrSz8dnedXc5Tt5DAXFGHf7t72cSWyQZb5jszQ1e377mUu
KAiiav9+IwIvXuT1ner1zzVdYb78jbwbdGvFaQ4SulqKhJk2eJ2lm4FyGjAQ3icW
jkPew6jERU2CdYkTAG3mGjKsflzwag9QrBMfqktFrusbB82U0CqRiag8CLwJddU3
QvgRautNe/01Xa5sac/py7IFWucm/icwJ9O5YY8vRqLpkas9toY7dmViJjLozCki
XmJ7Ri5myi9iCv2CMxXXmCs14LP53DFHpuHp4qQMLxlRUX6s6nGsHxL2jI84Mf0k
TnpSohF2KrWe0IDX3CkoMR8h6bCNIRzS11Uwc9RfLK5wp5S57G2ZHE5nZXzj39kr
+koOY2PEbW2fqmsks08JJDNPzO16UTm/2scNyaQL/pStvP81mg46QfJRG17+oYld
uPWA3KEDXbdRxS05ntWeIduRHytXmCfWxwitMyeDnti5lkMqP96EDllFtDfiJWKK
D54u8MarRWoUslF5lb/Fc7nQK3HOR4Z7Ivx8yLHf1wuas5EiH0FU9aySFm0=
-----END CERTIFICATE-----
