Certificate:
    Data:
        Version: 3 (0x2)
        Serial Number: 472 (0x1d8)
    Signature Algorithm: sha1WithRSAEncryption
        Issuer: C=US, ST=CA, L=SanFrancisco, O=Pixglo, Inc., OU=VPN-CIE, CN=tunnel.pixglo.com/name=Bala Chandrasekaran/emailAddress=bala@pixglo.com
        Validity
            Not Before: Feb 14 06:34:56 2018 GMT
            Not After : Feb 12 06:34:56 2028 GMT
        Subject: C=US, ST=CA, L=SanFrancisco, O=Pixglo, Inc., OU=VPN-CIE, CN=cie471/name=Bala Chandrasekaran/emailAddress=bala@pixglo.com
        Subject Public Key Info:
            Public Key Algorithm: rsaEncryption
                Public-Key: (4096 bit)
                Modulus:
                    00:cb:c5:e8:de:e4:53:f7:e1:be:49:48:09:45:64:
                    79:01:25:63:0b:f6:50:96:41:25:1c:5e:d1:85:d6:
                    49:6f:50:cc:01:ce:18:e9:22:82:7d:23:09:f4:fc:
                    a6:32:8a:94:65:00:76:7c:0e:41:0e:44:ee:0a:a4:
                    25:fe:1e:33:43:af:f4:2d:da:59:4e:d8:e7:74:64:
                    8a:97:04:db:53:49:76:bb:de:e6:92:b1:70:2a:47:
                    aa:17:3c:14:15:4a:61:ae:d0:93:2c:19:48:4c:58:
                    33:41:cd:d3:d6:4f:62:fd:48:10:fa:94:3c:d8:de:
                    58:29:fe:97:cf:d7:14:9d:27:63:27:46:cb:ee:94:
                    0e:e7:f6:93:80:af:d2:ec:2e:d2:30:c8:e8:3d:ed:
                    60:e2:a5:e9:8a:17:6e:85:86:51:b0:9a:77:99:9f:
                    9b:72:9d:94:ee:c7:38:75:41:5d:27:24:80:5f:38:
                    41:bf:7e:5f:45:e6:cd:85:d7:b5:d4:27:66:44:0b:
                    cb:23:e4:21:72:cf:83:f1:6a:ee:10:dc:91:97:9e:
                    f7:4f:e9:ee:07:d4:bf:21:b8:94:f6:d8:fb:23:fa:
                    ae:f7:ae:a8:37:f7:13:5f:66:86:e6:1a:ca:81:03:
                    24:c1:68:89:d6:6a:04:6f:d3:ce:ba:c6:5c:6c:08:
                    48:72:25:67:54:3f:58:7a:9e:4b:ff:5b:4c:7f:a3:
                    b1:5f:09:ff:59:8b:8b:b1:44:9f:2f:bf:bf:76:72:
                    ea:5b:a4:66:5f:6c:f4:c8:1a:0a:14:60:f6:bb:10:
                    6c:91:9b:0f:04:59:a2:a1:ed:d5:d9:6f:58:8f:8c:
                    1b:53:cc:8a:88:d7:07:45:91:71:0d:2e:b8:bc:c9:
                    36:66:cc:0f:81:9e:14:a1:cc:37:33:2e:96:54:76:
                    92:e5:8a:99:19:91:cd:7b:bc:4a:5d:d3:76:13:c0:
                    48:cd:29:ff:4b:78:47:99:e5:0a:35:df:0f:87:49:
                    f6:a5:7b:62:a4:e5:a7:21:f5:be:b6:48:6a:26:ea:
                    38:54:78:cb:22:7d:87:9a:0a:48:5e:99:39:f5:cb:
                    0b:cf:8c:a5:24:69:d7:8b:b6:bd:36:39:73:7f:11:
                    cd:a8:e1:0f:0b:b5:9f:b5:a8:9a:0f:d8:8f:e0:2e:
                    39:ea:4d:47:70:9b:86:9c:e8:43:68:56:75:35:1c:
                    23:ca:9d:ed:18:3e:39:cc:a2:b2:2f:3a:4b:ea:4c:
                    da:74:2f:84:a9:b3:17:73:dc:d1:71:a3:a0:fc:c6:
                    45:82:ef:73:ae:5e:1d:a8:3c:20:86:87:6b:c7:43:
                    ee:18:2a:72:2b:fa:1b:35:ff:eb:f1:9f:06:f9:e8:
                    6b:72:ad
                Exponent: 65537 (0x10001)
        X509v3 extensions:
            X509v3 Basic Constraints: 
                CA:FALSE
            Netscape Comment: 
                Easy-RSA Generated Certificate
            X509v3 Subject Key Identifier: 
                70:D1:88:3E:F5:D7:16:55:48:D8:7A:1E:80:06:DA:9E:CE:4C:78:CF
            X509v3 Authority Key Identifier: 
                keyid:EF:38:8D:14:50:58:A7:5B:4D:9C:17:72:FC:DF:B9:AC:A7:51:B0:10
                DirName:/C=US/ST=CA/L=SanFrancisco/O=Pixglo, Inc./OU=VPN-CIE/CN=tunnel.pixglo.com/name=Bala Chandrasekaran/emailAddress=bala@pixglo.com
                serial:A6:DB:C6:83:80:E6:A0:79

            X509v3 Extended Key Usage: 
                TLS Web Client Authentication
            X509v3 Key Usage: 
                Digital Signature
    Signature Algorithm: sha1WithRSAEncryption
         24:eb:b2:28:21:1a:e0:42:a2:94:08:d6:38:69:6e:11:49:d2:
         df:43:50:0e:75:77:3b:f3:a2:65:c5:da:0c:c3:db:95:04:0a:
         26:be:80:5d:b3:b1:7c:06:35:c7:9a:93:0f:41:6d:53:85:c3:
         ee:30:f0:72:b8:9a:62:74:2b:cf:0d:53:20:eb:75:9e:2c:4a:
         31:35:06:8b:35:87:53:9e:a6:8b:1b:97:a8:11:cc:dd:5b:2d:
         03:96:a5:e3:81:60:2c:a7:ae:75:09:7a:bc:3e:19:f5:61:b8:
         d0:53:8c:9a:2e:71:21:ee:c0:84:57:95:a2:61:c7:91:a5:5c:
         5b:93:2d:fe:ba:47:a9:ba:0d:39:68:d8:88:35:0a:13:00:92:
         ae:8b:94:10:bb:8f:e7:b2:cb:c8:6c:e2:3f:07:38:e2:9e:50:
         b0:1a:e9:0c:84:e8:e3:1b:36:bd:8c:70:89:67:da:ec:b0:eb:
         9a:49:aa:e7:37:00:21:6e:7b:ec:a2:21:a4:c2:61:0e:9e:a8:
         fd:7d:9e:87:7f:96:f9:eb:9d:7d:68:19:0b:38:ba:bf:e4:bf:
         11:ac:bd:71:fb:ad:a4:73:c9:b4:d9:0f:9a:fd:d5:5b:9e:2e:
         45:ba:7a:15:f5:99:9b:f0:aa:42:6d:39:ff:83:48:b2:73:b7:
         5c:64:2e:a5:8e:bb:3f:ac:26:16:54:ad:76:f7:41:54:aa:84:
         9b:34:11:d8:8e:0b:47:d2:06:4f:68:f8:e6:25:6a:d7:62:11:
         05:03:a3:9d:75:b6:de:cb:27:9f:83:7d:b1:8c:d7:81:9d:94:
         66:6a:ee:64:05:3c:e1:e4:fe:94:35:15:81:69:52:c6:38:a2:
         74:d6:79:3d:aa:0c:4e:fb:3b:cc:b4:8e:77:bc:dd:5f:3a:fe:
         e9:58:61:93:f9:31:64:84:50:80:34:cd:fd:3c:e0:b1:be:21:
         90:4b:c7:ae:cd:7d:f2:f8:a2:68:2f:83:8e:25:52:da:d4:ef:
         2e:4d:e3:61:1a:60:71:ef:10:2b:5d:f5:50:c1:20:f4:04:54:
         10:9f:96:eb:55:57:49:87:fb:4e:87:dd:7d:cf:8b:bf:2d:62:
         e3:94:e0:0c:73:90:b8:2f:ff:6d:52:59:7c:3e:46:6a:de:a2:
         fc:b7:30:ee:49:3e:d2:1f:3e:58:19:ec:33:c8:f6:db:e1:2e:
         ba:68:c3:09:58:22:e8:26:c5:c1:67:78:ca:0d:13:c5:36:8a:
         59:84:b8:4c:4b:a3:18:00:72:a3:6c:18:1f:56:9a:c6:a8:26:
         a1:d0:37:d8:04:1e:a1:9b:30:75:67:37:39:ee:94:49:7b:91:
         98:8e:d8:7c:a9:47:de:cd
-----BEGIN CERTIFICATE-----
MIIHSDCCBTCgAwIBAgICAdgwDQYJKoZIhvcNAQEFBQAwgbQxCzAJBgNVBAYTAlVT
MQswCQYDVQQIEwJDQTEVMBMGA1UEBxMMU2FuRnJhbmNpc2NvMRUwEwYDVQQKEwxQ
aXhnbG8sIEluYy4xEDAOBgNVBAsTB1ZQTi1DSUUxGjAYBgNVBAMTEXR1bm5lbC5w
aXhnbG8uY29tMRwwGgYDVQQpExNCYWxhIENoYW5kcmFzZWthcmFuMR4wHAYJKoZI
hvcNAQkBFg9iYWxhQHBpeGdsby5jb20wHhcNMTgwMjE0MDYzNDU2WhcNMjgwMjEy
MDYzNDU2WjCBqTELMAkGA1UEBhMCVVMxCzAJBgNVBAgTAkNBMRUwEwYDVQQHEwxT
YW5GcmFuY2lzY28xFTATBgNVBAoTDFBpeGdsbywgSW5jLjEQMA4GA1UECxMHVlBO
LUNJRTEPMA0GA1UEAxMGY2llNDcxMRwwGgYDVQQpExNCYWxhIENoYW5kcmFzZWth
cmFuMR4wHAYJKoZIhvcNAQkBFg9iYWxhQHBpeGdsby5jb20wggIiMA0GCSqGSIb3
DQEBAQUAA4ICDwAwggIKAoICAQDLxeje5FP34b5JSAlFZHkBJWML9lCWQSUcXtGF
1klvUMwBzhjpIoJ9Iwn0/KYyipRlAHZ8DkEORO4KpCX+HjNDr/Qt2llO2Od0ZIqX
BNtTSXa73uaSsXAqR6oXPBQVSmGu0JMsGUhMWDNBzdPWT2L9SBD6lDzY3lgp/pfP
1xSdJ2MnRsvulA7n9pOAr9LsLtIwyOg97WDipemKF26FhlGwmneZn5tynZTuxzh1
QV0nJIBfOEG/fl9F5s2F17XUJ2ZEC8sj5CFyz4Pxau4Q3JGXnvdP6e4H1L8huJT2
2Psj+q73rqg39xNfZobmGsqBAyTBaInWagRv0866xlxsCEhyJWdUP1h6nkv/W0x/
o7FfCf9Zi4uxRJ8vv792cupbpGZfbPTIGgoUYPa7EGyRmw8EWaKh7dXZb1iPjBtT
zIqI1wdFkXENLri8yTZmzA+BnhShzDczLpZUdpLlipkZkc17vEpd03YTwEjNKf9L
eEeZ5Qo13w+HSfale2Kk5ach9b62SGom6jhUeMsifYeaCkhemTn1ywvPjKUkadeL
tr02OXN/Ec2o4Q8LtZ+1qJoP2I/gLjnqTUdwm4ac6ENoVnU1HCPKne0YPjnMorIv
OkvqTNp0L4Spsxdz3NFxo6D8xkWC73OuXh2oPCCGh2vHQ+4YKnIr+hs1/+vxnwb5
6GtyrQIDAQABo4IBazCCAWcwCQYDVR0TBAIwADAtBglghkgBhvhCAQ0EIBYeRWFz
eS1SU0EgR2VuZXJhdGVkIENlcnRpZmljYXRlMB0GA1UdDgQWBBRw0Yg+9dcWVUjY
eh6ABtqezkx4zzCB6QYDVR0jBIHhMIHegBTvOI0UUFinW02cF3L837msp1GwEKGB
uqSBtzCBtDELMAkGA1UEBhMCVVMxCzAJBgNVBAgTAkNBMRUwEwYDVQQHEwxTYW5G
cmFuY2lzY28xFTATBgNVBAoTDFBpeGdsbywgSW5jLjEQMA4GA1UECxMHVlBOLUNJ
RTEaMBgGA1UEAxMRdHVubmVsLnBpeGdsby5jb20xHDAaBgNVBCkTE0JhbGEgQ2hh
bmRyYXNla2FyYW4xHjAcBgkqhkiG9w0BCQEWD2JhbGFAcGl4Z2xvLmNvbYIJAKbb
xoOA5qB5MBMGA1UdJQQMMAoGCCsGAQUFBwMCMAsGA1UdDwQEAwIHgDANBgkqhkiG
9w0BAQUFAAOCAgEAJOuyKCEa4EKilAjWOGluEUnS30NQDnV3O/OiZcXaDMPblQQK
Jr6AXbOxfAY1x5qTD0FtU4XD7jDwcriaYnQrzw1TIOt1nixKMTUGizWHU56mixuX
qBHM3VstA5al44FgLKeudQl6vD4Z9WG40FOMmi5xIe7AhFeVomHHkaVcW5Mt/rpH
qboNOWjYiDUKEwCSrouUELuP57LLyGziPwc44p5QsBrpDITo4xs2vYxwiWfa7LDr
mkmq5zcAIW577KIhpMJhDp6o/X2eh3+W+eudfWgZCzi6v+S/Eay9cfutpHPJtNkP
mv3VW54uRbp6FfWZm/CqQm05/4NIsnO3XGQupY67P6wmFlStdvdBVKqEmzQR2I4L
R9IGT2j45iVq12IRBQOjnXW23ssnn4N9sYzXgZ2UZmruZAU84eT+lDUVgWlSxjii
dNZ5PaoMTvs7zLSOd7zdXzr+6Vhhk/kxZIRQgDTN/Tzgsb4hkEvHrs198viiaC+D
jiVS2tTvLk3jYRpgce8QK131UMEg9ARUEJ+W61VXSYf7Tofdfc+Lvy1i45TgDHOQ
uC//bVJZfD5Gat6i/Lcw7kk+0h8+WBnsM8j22+EuumjDCVgi6CbFwWd4yg0TxTaK
WYS4TEujGAByo2wYH1aaxqgmodA32AQeoZswdWc3Oe6USXuRmI7YfKlH3s0=
-----END CERTIFICATE-----
