Certificate:
    Data:
        Version: 3 (0x2)
        Serial Number: 475 (0x1db)
    Signature Algorithm: sha1WithRSAEncryption
        Issuer: C=US, ST=CA, L=SanFrancisco, O=Pixglo, Inc., OU=VPN-CIE, CN=tunnel.pixglo.com/name=Bala Chandrasekaran/emailAddress=bala@pixglo.com
        Validity
            Not Before: Feb 14 06:34:59 2018 GMT
            Not After : Feb 12 06:34:59 2028 GMT
        Subject: C=US, ST=CA, L=SanFrancisco, O=Pixglo, Inc., OU=VPN-CIE, CN=cie474/name=Bala Chandrasekaran/emailAddress=bala@pixglo.com
        Subject Public Key Info:
            Public Key Algorithm: rsaEncryption
                Public-Key: (4096 bit)
                Modulus:
                    00:d1:00:e8:f7:ab:cd:66:64:27:58:3e:74:00:50:
                    bd:b0:89:0c:e5:7c:71:00:e4:13:68:8f:f0:19:7e:
                    1b:b3:a2:61:a2:97:cf:4d:b9:42:4e:40:56:5c:28:
                    b6:ae:b4:c0:9c:1f:39:3b:3c:a4:d0:0d:b7:a5:f4:
                    f4:e2:54:6b:2f:7e:a7:75:7f:1e:8b:51:a0:cc:e6:
                    77:8b:c3:05:8a:c8:6d:c4:85:6c:70:04:14:21:22:
                    0a:44:1c:3a:02:13:7e:28:89:76:90:4f:aa:c4:58:
                    28:52:64:54:7d:be:64:b6:8c:23:bf:ab:58:77:78:
                    d2:da:62:7d:5a:45:e2:33:c2:57:dc:57:dd:8b:8a:
                    18:f4:b1:9c:ae:18:a8:12:15:ce:88:ed:08:a8:1b:
                    c3:f7:06:38:f4:da:8d:f4:c5:62:67:9b:d7:6e:44:
                    12:39:40:09:9a:e4:5f:77:3d:46:a2:b3:50:dc:98:
                    21:bb:0a:cf:e1:2c:ad:17:c8:33:91:41:a3:da:d8:
                    ca:3d:9a:9a:c1:26:ae:f5:4d:4c:57:57:d4:06:3d:
                    67:7f:29:0a:97:0e:35:35:81:94:20:c4:c6:9d:f0:
                    99:03:4f:ba:ef:af:ec:9d:f5:3b:12:16:6c:15:91:
                    d4:9b:4d:3b:b4:c8:c0:f4:0a:e6:20:c4:23:68:51:
                    b9:3f:df:82:3f:b4:c9:e9:4a:f4:59:e7:0f:eb:78:
                    09:30:00:cd:33:3a:2a:46:11:d2:9e:d4:17:93:11:
                    c0:32:e7:15:e6:f1:ad:6d:20:99:a1:c1:6f:08:45:
                    ed:35:f3:b1:a4:7f:20:95:ed:d5:e8:9c:fd:5b:39:
                    96:c4:cb:36:eb:fd:ee:19:1b:26:9c:00:6c:3c:82:
                    91:a6:0c:a7:e5:b1:99:37:15:c8:91:90:b1:cc:38:
                    59:3a:c8:6d:fe:49:42:16:ac:12:48:ea:3e:39:3c:
                    0a:db:30:cb:36:d5:81:ac:cb:00:a9:05:52:a2:4c:
                    07:f2:26:53:88:7d:f6:14:db:e8:11:96:0a:e1:52:
                    a7:47:c8:f5:8f:fe:36:da:2a:dd:6a:78:a1:5e:a5:
                    7d:23:67:0e:62:ad:58:df:18:29:e9:da:bc:36:d9:
                    9e:60:2b:49:5b:56:8c:95:34:10:35:06:fe:88:cc:
                    ca:83:0d:9b:1b:c0:f5:a7:37:a5:4f:7c:31:2f:9a:
                    65:97:af:c3:ce:ec:ef:8f:f7:a4:0d:43:42:57:89:
                    64:17:6a:74:64:ff:c9:33:75:5e:0d:21:75:55:c1:
                    a0:3b:eb:c4:eb:b4:3f:af:ef:ad:75:79:a9:4e:ad:
                    85:ad:c2:97:85:ea:57:68:c0:9e:18:5f:eb:40:4d:
                    42:be:bb
                Exponent: 65537 (0x10001)
        X509v3 extensions:
            X509v3 Basic Constraints: 
                CA:FALSE
            Netscape Comment: 
                Easy-RSA Generated Certificate
            X509v3 Subject Key Identifier: 
                2C:9D:25:9E:9F:AD:19:7A:A4:BE:1D:A5:EC:BE:DC:69:CB:2C:1E:F7
            X509v3 Authority Key Identifier: 
                keyid:EF:38:8D:14:50:58:A7:5B:4D:9C:17:72:FC:DF:B9:AC:A7:51:B0:10
                DirName:/C=US/ST=CA/L=SanFrancisco/O=Pixglo, Inc./OU=VPN-CIE/CN=tunnel.pixglo.com/name=Bala Chandrasekaran/emailAddress=bala@pixglo.com
                serial:A6:DB:C6:83:80:E6:A0:79

            X509v3 Extended Key Usage: 
                TLS Web Client Authentication
            X509v3 Key Usage: 
                Digital Signature
    Signature Algorithm: sha1WithRSAEncryption
         6a:1c:82:26:9d:b8:b3:bb:d8:ca:c6:b9:37:24:39:f0:e5:06:
         51:c8:72:ee:49:19:d2:f3:56:51:aa:a5:0b:68:50:4d:eb:44:
         6c:0d:7f:e4:67:cb:e0:df:a7:0e:6d:29:c3:64:fd:1a:d4:bf:
         a3:9d:8b:d8:73:af:90:2c:8c:b1:56:bc:75:3c:e7:2a:a2:2f:
         8b:c0:76:64:9b:1c:d7:08:7d:94:ea:4c:25:6c:32:34:f0:de:
         c1:a3:24:98:9c:95:c9:2c:df:de:55:08:49:46:1d:e3:f3:a0:
         e0:b5:b7:76:29:9a:6a:cc:74:11:dd:2d:c3:f5:2f:28:98:a0:
         c6:7a:99:32:08:e7:ef:d1:14:09:c9:9b:4e:2e:81:82:23:00:
         27:04:c8:77:af:d4:f5:57:86:2e:b6:e2:cc:d8:d0:f8:b4:52:
         66:0c:b7:d6:4a:13:49:b5:5b:28:4c:02:55:de:57:b3:46:86:
         ad:9a:39:bb:01:89:30:8d:83:05:fa:12:7b:f7:b5:e3:43:8f:
         8e:8a:ce:02:1f:46:1f:8d:be:81:58:f0:fd:aa:01:0d:10:f6:
         47:ef:ab:e1:d9:21:91:07:26:98:e8:72:7b:c7:f1:91:35:82:
         7f:fb:02:a0:50:11:a7:bd:3e:09:fa:3a:60:04:38:95:d8:c7:
         97:d2:13:f1:70:c8:57:86:0b:26:7c:35:1d:03:6a:18:5c:ba:
         64:96:0c:95:15:5e:fc:f8:2c:3e:6d:8d:bd:d5:2c:0b:be:b8:
         1a:53:ee:d9:a8:d8:18:90:f7:9e:63:b2:17:c8:1e:5a:97:21:
         ab:91:dc:b0:f1:1b:0d:28:1f:10:0b:e1:52:b1:70:5d:2a:19:
         a6:2d:6e:8a:d6:ba:37:7d:98:cd:78:a3:b9:2c:13:e8:56:62:
         2b:f4:e3:86:3a:86:70:2c:30:ef:79:e8:56:62:20:29:66:eb:
         8e:41:20:20:31:19:0d:48:f5:94:dc:ee:a8:03:e2:f6:ec:c2:
         55:f1:8b:07:81:2d:d4:c3:d6:23:99:80:06:2a:59:6d:4a:28:
         8d:5c:ff:48:32:0e:0d:32:1f:53:35:58:22:6a:2d:dc:63:bb:
         58:e7:9a:0c:f3:98:8d:7f:74:4d:dc:21:f2:be:47:d8:19:10:
         4b:a0:a0:cc:e8:1b:7c:b3:08:5f:e1:b7:4a:8e:47:5c:ca:c7:
         ea:5d:37:e0:ca:f7:11:0b:9d:6d:91:d3:8c:36:0c:eb:8c:11:
         d5:02:f5:fd:4b:dc:10:80:1b:b5:ee:a8:1d:8f:ba:d2:bc:3a:
         74:56:5d:d2:bd:d8:81:1f:e1:a1:46:8b:40:18:36:1d:cd:c4:
         d7:f3:1a:d5:b3:73:34:0a
-----BEGIN CERTIFICATE-----
MIIHSDCCBTCgAwIBAgICAdswDQYJKoZIhvcNAQEFBQAwgbQxCzAJBgNVBAYTAlVT
MQswCQYDVQQIEwJDQTEVMBMGA1UEBxMMU2FuRnJhbmNpc2NvMRUwEwYDVQQKEwxQ
aXhnbG8sIEluYy4xEDAOBgNVBAsTB1ZQTi1DSUUxGjAYBgNVBAMTEXR1bm5lbC5w
aXhnbG8uY29tMRwwGgYDVQQpExNCYWxhIENoYW5kcmFzZWthcmFuMR4wHAYJKoZI
hvcNAQkBFg9iYWxhQHBpeGdsby5jb20wHhcNMTgwMjE0MDYzNDU5WhcNMjgwMjEy
MDYzNDU5WjCBqTELMAkGA1UEBhMCVVMxCzAJBgNVBAgTAkNBMRUwEwYDVQQHEwxT
YW5GcmFuY2lzY28xFTATBgNVBAoTDFBpeGdsbywgSW5jLjEQMA4GA1UECxMHVlBO
LUNJRTEPMA0GA1UEAxMGY2llNDc0MRwwGgYDVQQpExNCYWxhIENoYW5kcmFzZWth
cmFuMR4wHAYJKoZIhvcNAQkBFg9iYWxhQHBpeGdsby5jb20wggIiMA0GCSqGSIb3
DQEBAQUAA4ICDwAwggIKAoICAQDRAOj3q81mZCdYPnQAUL2wiQzlfHEA5BNoj/AZ
fhuzomGil89NuUJOQFZcKLautMCcHzk7PKTQDbel9PTiVGsvfqd1fx6LUaDM5neL
wwWKyG3EhWxwBBQhIgpEHDoCE34oiXaQT6rEWChSZFR9vmS2jCO/q1h3eNLaYn1a
ReIzwlfcV92Lihj0sZyuGKgSFc6I7QioG8P3Bjj02o30xWJnm9duRBI5QAma5F93
PUais1DcmCG7Cs/hLK0XyDORQaPa2Mo9mprBJq71TUxXV9QGPWd/KQqXDjU1gZQg
xMad8JkDT7rvr+yd9TsSFmwVkdSbTTu0yMD0CuYgxCNoUbk/34I/tMnpSvRZ5w/r
eAkwAM0zOipGEdKe1BeTEcAy5xXm8a1tIJmhwW8IRe0187GkfyCV7dXonP1bOZbE
yzbr/e4ZGyacAGw8gpGmDKflsZk3FciRkLHMOFk6yG3+SUIWrBJI6j45PArbMMs2
1YGsywCpBVKiTAfyJlOIffYU2+gRlgrhUqdHyPWP/jbaKt1qeKFepX0jZw5irVjf
GCnp2rw22Z5gK0lbVoyVNBA1Bv6IzMqDDZsbwPWnN6VPfDEvmmWXr8PO7O+P96QN
Q0JXiWQXanRk/8kzdV4NIXVVwaA768TrtD+v7611ealOrYWtwpeF6ldowJ4YX+tA
TUK+uwIDAQABo4IBazCCAWcwCQYDVR0TBAIwADAtBglghkgBhvhCAQ0EIBYeRWFz
eS1SU0EgR2VuZXJhdGVkIENlcnRpZmljYXRlMB0GA1UdDgQWBBQsnSWen60ZeqS+
HaXsvtxpyywe9zCB6QYDVR0jBIHhMIHegBTvOI0UUFinW02cF3L837msp1GwEKGB
uqSBtzCBtDELMAkGA1UEBhMCVVMxCzAJBgNVBAgTAkNBMRUwEwYDVQQHEwxTYW5G
cmFuY2lzY28xFTATBgNVBAoTDFBpeGdsbywgSW5jLjEQMA4GA1UECxMHVlBOLUNJ
RTEaMBgGA1UEAxMRdHVubmVsLnBpeGdsby5jb20xHDAaBgNVBCkTE0JhbGEgQ2hh
bmRyYXNla2FyYW4xHjAcBgkqhkiG9w0BCQEWD2JhbGFAcGl4Z2xvLmNvbYIJAKbb
xoOA5qB5MBMGA1UdJQQMMAoGCCsGAQUFBwMCMAsGA1UdDwQEAwIHgDANBgkqhkiG
9w0BAQUFAAOCAgEAahyCJp24s7vYysa5NyQ58OUGUchy7kkZ0vNWUaqlC2hQTetE
bA1/5GfL4N+nDm0pw2T9GtS/o52L2HOvkCyMsVa8dTznKqIvi8B2ZJsc1wh9lOpM
JWwyNPDewaMkmJyVySzf3lUISUYd4/Og4LW3dimaasx0Ed0tw/UvKJigxnqZMgjn
79EUCcmbTi6BgiMAJwTId6/U9VeGLrbizNjQ+LRSZgy31koTSbVbKEwCVd5Xs0aG
rZo5uwGJMI2DBfoSe/e140OPjorOAh9GH42+gVjw/aoBDRD2R++r4dkhkQcmmOhy
e8fxkTWCf/sCoFARp70+Cfo6YAQ4ldjHl9IT8XDIV4YLJnw1HQNqGFy6ZJYMlRVe
/PgsPm2NvdUsC764GlPu2ajYGJD3nmOyF8geWpchq5HcsPEbDSgfEAvhUrFwXSoZ
pi1uita6N32YzXijuSwT6FZiK/TjhjqGcCww73noVmIgKWbrjkEgIDEZDUj1lNzu
qAPi9uzCVfGLB4Et1MPWI5mABipZbUoojVz/SDIODTIfUzVYImot3GO7WOeaDPOY
jX90Tdwh8r5H2BkQS6CgzOgbfLMIX+G3So5HXMrH6l034Mr3EQudbZHTjDYM64wR
1QL1/UvcEIAbte6oHY+60rw6dFZd0r3YgR/hoUaLQBg2Hc3E1/Ma1bNzNAo=
-----END CERTIFICATE-----
