Certificate:
    Data:
        Version: 3 (0x2)
        Serial Number: 477 (0x1dd)
    Signature Algorithm: sha1WithRSAEncryption
        Issuer: C=US, ST=CA, L=SanFrancisco, O=Pixglo, Inc., OU=VPN-CIE, CN=tunnel.pixglo.com/name=Bala Chandrasekaran/emailAddress=bala@pixglo.com
        Validity
            Not Before: Feb 14 06:35:06 2018 GMT
            Not After : Feb 12 06:35:06 2028 GMT
        Subject: C=US, ST=CA, L=SanFrancisco, O=Pixglo, Inc., OU=VPN-CIE, CN=cie476/name=Bala Chandrasekaran/emailAddress=bala@pixglo.com
        Subject Public Key Info:
            Public Key Algorithm: rsaEncryption
                Public-Key: (4096 bit)
                Modulus:
                    00:ae:ef:24:87:47:4c:42:53:9f:3d:22:37:b6:9b:
                    72:a6:20:8b:14:46:9b:30:34:9e:f7:5b:5e:26:bc:
                    6f:04:eb:e9:ba:bb:91:b3:8b:5b:fb:f8:ac:3a:8c:
                    b6:58:d2:b4:50:da:2d:41:3b:43:d2:60:fb:13:87:
                    b2:e7:2a:10:7f:1a:bb:06:94:cb:2b:10:e5:de:8d:
                    d5:31:7e:a4:b4:67:c0:b2:62:5a:38:8d:20:a6:02:
                    98:b4:38:45:c2:87:a9:0e:ed:7b:35:48:30:14:64:
                    42:aa:de:46:47:ef:e3:79:8d:50:88:9d:6f:b1:56:
                    82:0a:2d:0f:49:ac:9a:d3:ad:07:a7:1c:34:e0:bb:
                    f4:71:40:9b:39:4c:36:0c:8e:e5:71:ec:55:31:38:
                    27:f6:8a:81:34:e0:b7:f6:d4:6b:70:42:c1:b1:d7:
                    5a:cf:08:f9:d7:d0:ee:74:d1:68:25:e9:81:8a:6d:
                    7a:3f:3e:4c:ce:e9:55:f7:d7:0c:e7:57:03:a8:74:
                    a0:ab:b4:90:de:7c:cc:d6:ef:81:bb:20:1d:83:2f:
                    2b:95:6b:6b:94:dd:3d:ae:de:a7:57:3f:46:1b:69:
                    cc:1a:4a:d4:73:32:38:4a:3d:08:3e:f7:97:45:77:
                    5d:07:4d:c0:e5:08:00:cf:34:f0:fa:ef:de:b8:5f:
                    f8:32:ba:85:b6:11:21:fa:9e:26:1c:9f:7e:02:fa:
                    90:3d:fb:84:03:26:16:e2:5a:fd:de:c0:c2:dc:5e:
                    5e:08:75:2a:0a:55:98:19:28:9b:e4:55:de:cb:a9:
                    cd:d4:01:74:92:d6:bc:56:24:e6:71:86:97:0b:da:
                    0e:8d:15:86:2e:7c:31:69:9b:a4:b3:b5:3d:93:68:
                    fe:b1:2b:9e:05:ea:ff:83:f7:71:88:80:26:ea:de:
                    f0:aa:07:2c:24:11:40:8f:f4:31:24:13:4b:24:96:
                    71:46:6b:d6:3a:65:8e:1e:4b:ab:92:11:f8:c5:b6:
                    a4:83:d9:9d:df:ea:3b:5f:b3:18:5e:eb:cc:7d:73:
                    10:59:c5:8a:cd:cb:5b:aa:91:ab:8b:4c:d1:3c:2b:
                    db:27:da:42:8d:97:6c:2f:d1:a5:0d:df:56:24:fc:
                    f3:02:a0:a5:d9:9b:17:a7:20:c6:26:61:22:c6:cc:
                    11:00:16:24:13:87:24:6b:56:11:a5:f9:21:e0:a1:
                    8f:a9:95:63:f9:49:0c:99:ee:09:61:4a:b0:8c:bf:
                    14:94:b1:14:e8:b4:da:73:98:f9:67:ac:b5:ab:f3:
                    a4:a2:57:46:d6:ab:cb:1a:d8:92:b3:84:cf:eb:38:
                    01:dc:83:db:51:5e:a2:7d:c0:00:13:f9:09:5f:99:
                    d7:a5:81
                Exponent: 65537 (0x10001)
        X509v3 extensions:
            X509v3 Basic Constraints: 
                CA:FALSE
            Netscape Comment: 
                Easy-RSA Generated Certificate
            X509v3 Subject Key Identifier: 
                8F:C6:69:AE:8F:54:F4:E9:85:40:D2:4C:60:6D:05:0C:42:26:93:FD
            X509v3 Authority Key Identifier: 
                keyid:EF:38:8D:14:50:58:A7:5B:4D:9C:17:72:FC:DF:B9:AC:A7:51:B0:10
                DirName:/C=US/ST=CA/L=SanFrancisco/O=Pixglo, Inc./OU=VPN-CIE/CN=tunnel.pixglo.com/name=Bala Chandrasekaran/emailAddress=bala@pixglo.com
                serial:A6:DB:C6:83:80:E6:A0:79

            X509v3 Extended Key Usage: 
                TLS Web Client Authentication
            X509v3 Key Usage: 
                Digital Signature
    Signature Algorithm: sha1WithRSAEncryption
         77:9e:f3:05:cb:10:af:8a:30:8d:dd:3a:31:43:47:a9:6e:36:
         fd:b9:12:a4:ff:76:af:78:74:86:b6:26:55:38:eb:0c:c1:de:
         4c:bd:1b:4e:61:b1:86:2f:02:0d:3c:b2:14:82:38:7a:b7:f4:
         b6:5e:13:b4:75:0e:14:40:bc:7f:32:3e:82:a0:7d:2d:17:c0:
         8a:d5:2c:79:50:be:98:a2:b2:83:c2:ea:10:e5:47:33:fa:95:
         e2:bc:e4:d9:ed:53:18:93:c4:af:20:c4:27:a7:41:53:e3:85:
         ae:69:c5:46:b7:57:2a:34:26:38:82:47:27:8c:3e:37:18:8b:
         38:76:ad:87:f4:9f:62:0e:28:57:1c:21:e2:f2:77:ea:56:8a:
         b5:e8:64:e3:18:79:6e:d8:0a:5c:eb:31:77:aa:dc:2a:f9:af:
         4b:37:57:db:9e:b7:5e:a5:f8:df:e3:35:6a:15:3f:94:8e:db:
         16:a6:da:ca:fc:1b:fe:c6:e3:43:6d:b6:9d:44:06:25:e1:96:
         41:c3:bd:b1:11:e4:da:c5:de:48:3f:17:01:3f:1a:d7:a5:b8:
         a7:28:2c:59:ff:cb:12:3e:63:05:1e:54:90:37:57:4d:76:e2:
         8e:e3:63:70:31:94:b7:31:bd:a6:c7:fd:e5:92:0d:00:00:cd:
         42:96:9f:6e:39:05:38:21:86:5b:8a:1e:26:b5:5b:82:33:08:
         c0:ec:16:ec:90:5a:30:13:9d:7c:80:58:46:30:4a:b6:e4:d0:
         d7:76:03:08:8e:fd:0a:3d:7b:d0:f2:69:0d:43:96:4d:a2:2e:
         35:0b:bb:bf:c2:8b:a0:16:18:f6:90:5f:73:e8:94:b6:9f:c5:
         75:e5:50:c7:e3:0e:32:d4:6f:5c:1a:23:8d:71:7e:a6:36:78:
         a5:0f:a5:db:bb:d3:81:9b:7d:bf:ce:d5:80:24:f5:d3:aa:4e:
         c2:17:39:d2:7a:db:4e:99:cd:53:5c:3e:cb:67:a3:37:c7:2b:
         b5:58:c5:69:52:3e:ed:8e:f6:9d:34:43:20:2f:83:fe:5b:30:
         3e:64:81:d6:e5:58:a5:f7:21:8a:10:49:d6:06:b4:e1:8e:33:
         f9:5e:57:01:b5:9b:91:45:8e:36:32:a7:5d:bd:1b:9d:54:1c:
         89:f5:01:26:9c:73:cd:55:9e:74:60:88:f3:41:0c:19:6b:1c:
         a5:24:40:c1:5e:ce:79:a2:00:6a:3e:e6:41:b3:75:2f:f3:8e:
         08:71:55:22:21:43:f5:ec:8b:5e:ed:8e:a3:2e:55:9e:ba:2d:
         a0:ab:da:04:9e:c4:15:b3:8c:e0:30:33:1e:31:6b:7b:e7:67:
         7c:5e:de:06:22:cb:68:55
-----BEGIN CERTIFICATE-----
MIIHSDCCBTCgAwIBAgICAd0wDQYJKoZIhvcNAQEFBQAwgbQxCzAJBgNVBAYTAlVT
MQswCQYDVQQIEwJDQTEVMBMGA1UEBxMMU2FuRnJhbmNpc2NvMRUwEwYDVQQKEwxQ
aXhnbG8sIEluYy4xEDAOBgNVBAsTB1ZQTi1DSUUxGjAYBgNVBAMTEXR1bm5lbC5w
aXhnbG8uY29tMRwwGgYDVQQpExNCYWxhIENoYW5kcmFzZWthcmFuMR4wHAYJKoZI
hvcNAQkBFg9iYWxhQHBpeGdsby5jb20wHhcNMTgwMjE0MDYzNTA2WhcNMjgwMjEy
MDYzNTA2WjCBqTELMAkGA1UEBhMCVVMxCzAJBgNVBAgTAkNBMRUwEwYDVQQHEwxT
YW5GcmFuY2lzY28xFTATBgNVBAoTDFBpeGdsbywgSW5jLjEQMA4GA1UECxMHVlBO
LUNJRTEPMA0GA1UEAxMGY2llNDc2MRwwGgYDVQQpExNCYWxhIENoYW5kcmFzZWth
cmFuMR4wHAYJKoZIhvcNAQkBFg9iYWxhQHBpeGdsby5jb20wggIiMA0GCSqGSIb3
DQEBAQUAA4ICDwAwggIKAoICAQCu7ySHR0xCU589Ije2m3KmIIsURpswNJ73W14m
vG8E6+m6u5Gzi1v7+Kw6jLZY0rRQ2i1BO0PSYPsTh7LnKhB/GrsGlMsrEOXejdUx
fqS0Z8CyYlo4jSCmApi0OEXCh6kO7Xs1SDAUZEKq3kZH7+N5jVCInW+xVoIKLQ9J
rJrTrQenHDTgu/RxQJs5TDYMjuVx7FUxOCf2ioE04Lf21GtwQsGx11rPCPnX0O50
0Wgl6YGKbXo/PkzO6VX31wznVwOodKCrtJDefMzW74G7IB2DLyuVa2uU3T2u3qdX
P0YbacwaStRzMjhKPQg+95dFd10HTcDlCADPNPD67964X/gyuoW2ESH6niYcn34C
+pA9+4QDJhbiWv3ewMLcXl4IdSoKVZgZKJvkVd7Lqc3UAXSS1rxWJOZxhpcL2g6N
FYYufDFpm6SztT2TaP6xK54F6v+D93GIgCbq3vCqBywkEUCP9DEkE0sklnFGa9Y6
ZY4eS6uSEfjFtqSD2Z3f6jtfsxhe68x9cxBZxYrNy1uqkauLTNE8K9sn2kKNl2wv
0aUN31Yk/PMCoKXZmxenIMYmYSLGzBEAFiQThyRrVhGl+SHgoY+plWP5SQyZ7glh
SrCMvxSUsRTotNpzmPlnrLWr86SiV0bWq8sa2JKzhM/rOAHcg9tRXqJ9wAAT+Qlf
mdelgQIDAQABo4IBazCCAWcwCQYDVR0TBAIwADAtBglghkgBhvhCAQ0EIBYeRWFz
eS1SU0EgR2VuZXJhdGVkIENlcnRpZmljYXRlMB0GA1UdDgQWBBSPxmmuj1T06YVA
0kxgbQUMQiaT/TCB6QYDVR0jBIHhMIHegBTvOI0UUFinW02cF3L837msp1GwEKGB
uqSBtzCBtDELMAkGA1UEBhMCVVMxCzAJBgNVBAgTAkNBMRUwEwYDVQQHEwxTYW5G
cmFuY2lzY28xFTATBgNVBAoTDFBpeGdsbywgSW5jLjEQMA4GA1UECxMHVlBOLUNJ
RTEaMBgGA1UEAxMRdHVubmVsLnBpeGdsby5jb20xHDAaBgNVBCkTE0JhbGEgQ2hh
bmRyYXNla2FyYW4xHjAcBgkqhkiG9w0BCQEWD2JhbGFAcGl4Z2xvLmNvbYIJAKbb
xoOA5qB5MBMGA1UdJQQMMAoGCCsGAQUFBwMCMAsGA1UdDwQEAwIHgDANBgkqhkiG
9w0BAQUFAAOCAgEAd57zBcsQr4owjd06MUNHqW42/bkSpP92r3h0hrYmVTjrDMHe
TL0bTmGxhi8CDTyyFII4erf0tl4TtHUOFEC8fzI+gqB9LRfAitUseVC+mKKyg8Lq
EOVHM/qV4rzk2e1TGJPEryDEJ6dBU+OFrmnFRrdXKjQmOIJHJ4w+NxiLOHath/Sf
Yg4oVxwh4vJ36laKtehk4xh5btgKXOsxd6rcKvmvSzdX2563XqX43+M1ahU/lI7b
Fqbayvwb/sbjQ222nUQGJeGWQcO9sRHk2sXeSD8XAT8a16W4pygsWf/LEj5jBR5U
kDdXTXbijuNjcDGUtzG9psf95ZINAADNQpafbjkFOCGGW4oeJrVbgjMIwOwW7JBa
MBOdfIBYRjBKtuTQ13YDCI79Cj170PJpDUOWTaIuNQu7v8KLoBYY9pBfc+iUtp/F
deVQx+MOMtRvXBojjXF+pjZ4pQ+l27vTgZt9v87VgCT106pOwhc50nrbTpnNU1w+
y2ejN8crtVjFaVI+7Y72nTRDIC+D/lswPmSB1uVYpfchihBJ1ga04Y4z+V5XAbWb
kUWONjKnXb0bnVQcifUBJpxzzVWedGCI80EMGWscpSRAwV7OeaIAaj7mQbN1L/OO
CHFVIiFD9eyLXu2Ooy5VnrotoKvaBJ7EFbOM4DAzHjFre+dnfF7eBiLLaFU=
-----END CERTIFICATE-----
