Certificate:
    Data:
        Version: 3 (0x2)
        Serial Number: 479 (0x1df)
    Signature Algorithm: sha1WithRSAEncryption
        Issuer: C=US, ST=CA, L=SanFrancisco, O=Pixglo, Inc., OU=VPN-CIE, CN=tunnel.pixglo.com/name=Bala Chandrasekaran/emailAddress=bala@pixglo.com
        Validity
            Not Before: Feb 14 06:35:08 2018 GMT
            Not After : Feb 12 06:35:08 2028 GMT
        Subject: C=US, ST=CA, L=SanFrancisco, O=Pixglo, Inc., OU=VPN-CIE, CN=cie478/name=Bala Chandrasekaran/emailAddress=bala@pixglo.com
        Subject Public Key Info:
            Public Key Algorithm: rsaEncryption
                Public-Key: (4096 bit)
                Modulus:
                    00:bd:e9:65:06:5a:23:73:04:24:b9:0f:bd:dd:52:
                    0f:92:5c:33:9c:f1:ea:50:24:69:9c:69:6c:10:33:
                    a2:ef:80:03:f2:da:8b:fa:f5:58:df:d4:ec:36:0f:
                    7f:d1:18:24:4d:e8:ee:2a:84:28:03:d2:7c:87:02:
                    c5:82:af:a6:19:4f:4b:73:a0:c0:2f:27:bd:70:c6:
                    65:9d:96:60:dc:b3:00:74:9b:2d:f7:d8:2e:06:70:
                    0e:59:0e:ce:49:97:20:70:f6:1a:31:0a:5b:b7:00:
                    b4:14:2e:76:e5:f5:4d:b9:a1:54:3d:fe:d6:a2:3d:
                    7f:2f:24:62:d9:43:30:07:da:e2:06:02:d1:0c:40:
                    84:02:a2:05:e1:5c:09:96:42:5b:33:4e:55:21:26:
                    8b:b7:7a:7f:2a:29:51:1c:60:de:2b:72:ca:73:87:
                    03:68:ee:1a:af:f2:e8:cc:d6:2d:b9:9f:9e:73:b0:
                    10:83:43:84:41:d2:30:50:ba:b0:2f:65:f0:84:8c:
                    bc:ed:64:81:63:b7:93:d8:ac:da:a8:49:79:1e:89:
                    b7:f6:02:02:bb:f8:e2:22:35:b2:db:17:ae:44:7c:
                    c6:0d:0d:52:28:99:d6:da:cf:a2:a5:62:fc:48:45:
                    d0:ca:33:a2:95:31:cb:4d:dc:4b:2a:2c:40:70:7f:
                    89:1c:c1:3a:43:d0:f9:7e:d9:c8:fc:0a:88:9b:67:
                    2b:7c:6e:97:b1:1e:f3:85:c5:14:c9:5f:3a:21:cb:
                    10:b3:ad:ff:38:59:a7:e1:f6:ec:ba:aa:e7:bc:61:
                    8b:17:a4:27:65:03:66:17:e5:84:fb:6d:7b:a8:0c:
                    00:91:e2:8b:1b:05:0e:67:02:c2:d0:1a:e7:a2:1a:
                    d2:b9:1f:96:38:51:23:d4:f7:b5:d8:b6:39:02:f4:
                    17:1b:37:bd:b1:ee:e1:fd:46:6b:2f:a4:d2:97:21:
                    4d:5c:a5:6d:78:88:23:ab:98:f9:ff:25:2e:e3:07:
                    f7:7b:16:d8:19:48:df:79:0f:f2:45:6f:87:9b:69:
                    3b:b8:4c:24:02:5f:03:93:dd:5e:fc:d4:a9:33:cf:
                    24:48:76:6f:14:ad:5b:04:28:43:d2:36:a7:7f:23:
                    0e:61:25:c7:b9:99:0c:83:18:1f:9f:8d:60:3f:67:
                    80:17:60:30:f2:ce:a3:f1:fe:9b:47:96:66:77:55:
                    da:5f:99:df:27:2a:16:f1:29:51:5b:d2:0f:04:7e:
                    3e:7b:29:1d:ae:09:dd:84:75:39:95:61:0b:f0:ca:
                    d7:12:37:77:e0:3b:d4:67:0e:08:20:c6:d4:c7:cd:
                    ee:93:90:55:5c:de:72:5e:ba:3e:1e:0e:09:b2:67:
                    c0:63:63
                Exponent: 65537 (0x10001)
        X509v3 extensions:
            X509v3 Basic Constraints: 
                CA:FALSE
            Netscape Comment: 
                Easy-RSA Generated Certificate
            X509v3 Subject Key Identifier: 
                95:81:61:3D:7E:12:61:B7:5C:8F:EC:04:03:C6:74:C8:BA:32:30:4F
            X509v3 Authority Key Identifier: 
                keyid:EF:38:8D:14:50:58:A7:5B:4D:9C:17:72:FC:DF:B9:AC:A7:51:B0:10
                DirName:/C=US/ST=CA/L=SanFrancisco/O=Pixglo, Inc./OU=VPN-CIE/CN=tunnel.pixglo.com/name=Bala Chandrasekaran/emailAddress=bala@pixglo.com
                serial:A6:DB:C6:83:80:E6:A0:79

            X509v3 Extended Key Usage: 
                TLS Web Client Authentication
            X509v3 Key Usage: 
                Digital Signature
    Signature Algorithm: sha1WithRSAEncryption
         d2:19:9e:5c:dc:3a:bd:5b:ac:89:f3:b9:57:24:5a:7f:0b:8e:
         9f:e3:77:c9:07:23:f5:b0:67:8b:7f:bd:36:92:d9:c5:45:49:
         7e:46:8d:4b:16:71:10:6a:db:0a:52:0a:68:2b:a9:25:93:09:
         5a:92:7b:9c:9a:d4:cb:4e:04:2c:c1:b4:f6:1f:4f:ee:98:f2:
         95:44:b4:d5:7e:fe:cd:e8:c3:bf:d6:f0:e9:d1:1b:85:3d:87:
         7d:cc:49:f1:c8:81:ed:a9:93:6e:91:e6:41:45:7c:5d:27:76:
         e0:6d:a1:99:11:0f:ca:1b:14:24:9e:03:a8:ed:0b:cb:db:4f:
         86:8f:83:28:6f:a8:b1:a0:18:56:ce:6e:e7:74:ff:7e:d7:ec:
         90:4e:68:bd:f6:7f:40:74:92:97:25:e2:19:45:08:b6:a7:ee:
         6b:37:eb:d0:c3:6a:14:b2:44:c4:96:14:d7:e9:78:70:16:a3:
         df:ec:41:ae:3e:9a:4f:e3:7a:b3:96:c3:91:49:a0:6f:e1:b5:
         33:01:2e:b1:6f:b6:da:88:16:ed:fd:32:b3:de:cc:12:20:4f:
         b7:2f:c2:88:25:e7:60:23:a1:0e:3e:65:50:d9:e1:bd:01:f5:
         4f:0f:1c:87:0d:b8:bf:46:29:66:7c:c2:11:2f:03:19:54:49:
         3f:1b:29:2a:15:54:f0:57:ca:fc:7b:14:5c:ba:a8:ae:de:26:
         57:92:df:39:3b:48:2c:37:65:e2:02:32:08:b0:e4:61:0c:70:
         24:68:be:16:ba:47:ee:ad:0c:b0:54:8a:54:2a:83:fa:c5:c6:
         7f:95:9c:b5:38:36:b9:50:a5:e1:af:84:24:10:69:f6:c4:d4:
         4b:91:88:84:6c:06:8c:64:d2:ef:92:61:4f:1a:61:3a:cc:10:
         89:15:4f:4c:14:bd:27:23:d6:f3:7d:91:70:6b:ef:93:b8:ed:
         e5:2f:2b:f6:1d:0c:5f:14:b6:1d:bb:51:e1:b4:7c:21:a1:3c:
         06:14:83:c9:6d:27:71:30:d7:96:fe:76:a7:56:83:ac:24:2c:
         cc:f7:82:be:7d:89:64:be:f8:79:11:ed:b6:c5:97:23:4d:ef:
         d9:5f:e3:ac:a7:14:6f:b0:c5:be:e9:55:fe:2c:52:96:b4:45:
         dd:de:99:ab:11:a9:56:89:27:50:09:f9:ed:bc:51:fc:e2:24:
         6b:8c:56:09:5e:88:23:5b:c3:b2:46:58:65:8a:8e:bb:66:2a:
         b5:f2:e1:9f:8f:63:54:95:38:aa:30:97:f5:ce:30:f4:9a:37:
         68:ad:db:d1:55:8d:be:39:4b:cf:c3:c7:75:fe:15:1f:41:fd:
         78:4c:bb:9b:5a:cd:e5:7e
-----BEGIN CERTIFICATE-----
MIIHSDCCBTCgAwIBAgICAd8wDQYJKoZIhvcNAQEFBQAwgbQxCzAJBgNVBAYTAlVT
MQswCQYDVQQIEwJDQTEVMBMGA1UEBxMMU2FuRnJhbmNpc2NvMRUwEwYDVQQKEwxQ
aXhnbG8sIEluYy4xEDAOBgNVBAsTB1ZQTi1DSUUxGjAYBgNVBAMTEXR1bm5lbC5w
aXhnbG8uY29tMRwwGgYDVQQpExNCYWxhIENoYW5kcmFzZWthcmFuMR4wHAYJKoZI
hvcNAQkBFg9iYWxhQHBpeGdsby5jb20wHhcNMTgwMjE0MDYzNTA4WhcNMjgwMjEy
MDYzNTA4WjCBqTELMAkGA1UEBhMCVVMxCzAJBgNVBAgTAkNBMRUwEwYDVQQHEwxT
YW5GcmFuY2lzY28xFTATBgNVBAoTDFBpeGdsbywgSW5jLjEQMA4GA1UECxMHVlBO
LUNJRTEPMA0GA1UEAxMGY2llNDc4MRwwGgYDVQQpExNCYWxhIENoYW5kcmFzZWth
cmFuMR4wHAYJKoZIhvcNAQkBFg9iYWxhQHBpeGdsby5jb20wggIiMA0GCSqGSIb3
DQEBAQUAA4ICDwAwggIKAoICAQC96WUGWiNzBCS5D73dUg+SXDOc8epQJGmcaWwQ
M6LvgAPy2ov69Vjf1Ow2D3/RGCRN6O4qhCgD0nyHAsWCr6YZT0tzoMAvJ71wxmWd
lmDcswB0my332C4GcA5ZDs5JlyBw9hoxClu3ALQULnbl9U25oVQ9/taiPX8vJGLZ
QzAH2uIGAtEMQIQCogXhXAmWQlszTlUhJou3en8qKVEcYN4rcspzhwNo7hqv8ujM
1i25n55zsBCDQ4RB0jBQurAvZfCEjLztZIFjt5PYrNqoSXkeibf2AgK7+OIiNbLb
F65EfMYNDVIomdbaz6KlYvxIRdDKM6KVMctN3EsqLEBwf4kcwTpD0Pl+2cj8Coib
Zyt8bpexHvOFxRTJXzohyxCzrf84Wafh9uy6que8YYsXpCdlA2YX5YT7bXuoDACR
4osbBQ5nAsLQGueiGtK5H5Y4USPU97XYtjkC9BcbN72x7uH9RmsvpNKXIU1cpW14
iCOrmPn/JS7jB/d7FtgZSN95D/JFb4ebaTu4TCQCXwOT3V781KkzzyRIdm8UrVsE
KEPSNqd/Iw5hJce5mQyDGB+fjWA/Z4AXYDDyzqPx/ptHlmZ3Vdpfmd8nKhbxKVFb
0g8Efj57KR2uCd2EdTmVYQvwytcSN3fgO9RnDgggxtTHze6TkFVc3nJeuj4eDgmy
Z8BjYwIDAQABo4IBazCCAWcwCQYDVR0TBAIwADAtBglghkgBhvhCAQ0EIBYeRWFz
eS1SU0EgR2VuZXJhdGVkIENlcnRpZmljYXRlMB0GA1UdDgQWBBSVgWE9fhJht1yP
7AQDxnTIujIwTzCB6QYDVR0jBIHhMIHegBTvOI0UUFinW02cF3L837msp1GwEKGB
uqSBtzCBtDELMAkGA1UEBhMCVVMxCzAJBgNVBAgTAkNBMRUwEwYDVQQHEwxTYW5G
cmFuY2lzY28xFTATBgNVBAoTDFBpeGdsbywgSW5jLjEQMA4GA1UECxMHVlBOLUNJ
RTEaMBgGA1UEAxMRdHVubmVsLnBpeGdsby5jb20xHDAaBgNVBCkTE0JhbGEgQ2hh
bmRyYXNla2FyYW4xHjAcBgkqhkiG9w0BCQEWD2JhbGFAcGl4Z2xvLmNvbYIJAKbb
xoOA5qB5MBMGA1UdJQQMMAoGCCsGAQUFBwMCMAsGA1UdDwQEAwIHgDANBgkqhkiG
9w0BAQUFAAOCAgEA0hmeXNw6vVusifO5VyRafwuOn+N3yQcj9bBni3+9NpLZxUVJ
fkaNSxZxEGrbClIKaCupJZMJWpJ7nJrUy04ELMG09h9P7pjylUS01X7+zejDv9bw
6dEbhT2HfcxJ8ciB7amTbpHmQUV8XSd24G2hmREPyhsUJJ4DqO0Ly9tPho+DKG+o
saAYVs5u53T/ftfskE5ovfZ/QHSSlyXiGUUItqfuazfr0MNqFLJExJYU1+l4cBaj
3+xBrj6aT+N6s5bDkUmgb+G1MwEusW+22ogW7f0ys97MEiBPty/CiCXnYCOhDj5l
UNnhvQH1Tw8chw24v0YpZnzCES8DGVRJPxspKhVU8FfK/HsUXLqort4mV5LfOTtI
LDdl4gIyCLDkYQxwJGi+FrpH7q0MsFSKVCqD+sXGf5WctTg2uVCl4a+EJBBp9sTU
S5GIhGwGjGTS75JhTxphOswQiRVPTBS9JyPW832RcGvvk7jt5S8r9h0MXxS2HbtR
4bR8IaE8BhSDyW0ncTDXlv52p1aDrCQszPeCvn2JZL74eRHttsWXI03v2V/jrKcU
b7DFvulV/ixSlrRF3d6ZqxGpVoknUAn57bxR/OIka4xWCV6II1vDskZYZYqOu2Yq
tfLhn49jVJU4qjCX9c4w9Jo3aK3b0VWNvjlLz8PHdf4VH0H9eEy7m1rN5X4=
-----END CERTIFICATE-----
