Certificate:
    Data:
        Version: 3 (0x2)
        Serial Number: 480 (0x1e0)
    Signature Algorithm: sha1WithRSAEncryption
        Issuer: C=US, ST=CA, L=SanFrancisco, O=Pixglo, Inc., OU=VPN-CIE, CN=tunnel.pixglo.com/name=Bala Chandrasekaran/emailAddress=bala@pixglo.com
        Validity
            Not Before: Feb 14 06:35:10 2018 GMT
            Not After : Feb 12 06:35:10 2028 GMT
        Subject: C=US, ST=CA, L=SanFrancisco, O=Pixglo, Inc., OU=VPN-CIE, CN=cie479/name=Bala Chandrasekaran/emailAddress=bala@pixglo.com
        Subject Public Key Info:
            Public Key Algorithm: rsaEncryption
                Public-Key: (4096 bit)
                Modulus:
                    00:ac:a2:ea:f5:d7:f8:5f:c2:69:fa:59:26:8e:c6:
                    e5:5f:6c:62:7a:fd:8f:b1:04:c6:d0:1f:1b:ef:c4:
                    93:5e:3c:bc:a2:23:34:2e:ba:1b:f9:1d:3d:56:88:
                    d0:bc:c5:4c:99:54:49:99:7a:24:d2:d2:25:17:f1:
                    21:d0:0f:31:bc:da:70:2f:52:5b:48:00:9d:6a:79:
                    95:00:62:cf:e9:51:f3:db:fe:af:52:06:55:3e:fa:
                    5d:a1:4d:4a:d8:84:9c:18:ee:fb:90:00:55:e2:6c:
                    ab:e5:9d:09:02:f7:01:e7:c6:9b:8c:09:3f:ac:b5:
                    4f:1e:96:f0:7c:07:f3:f2:df:22:c5:6a:41:33:b4:
                    42:f4:c0:45:a7:b6:fa:87:74:80:0a:3d:c1:66:e5:
                    7d:dd:c3:db:82:a5:df:65:6e:b7:d6:db:3a:60:25:
                    e3:51:dc:c9:4d:5c:89:39:f2:8b:f1:f3:c0:32:90:
                    6b:4b:38:58:0e:9b:f8:92:0c:66:18:d4:1e:d5:6b:
                    d9:62:04:ec:ab:9d:9d:67:ce:62:b9:70:8d:6f:e7:
                    29:32:1c:86:fa:3f:1b:03:4a:a5:c1:1a:59:34:83:
                    e7:ba:53:9c:04:42:18:65:5d:62:9d:51:6f:4c:a3:
                    81:72:fa:27:2e:60:4e:ce:26:31:cc:5a:54:fa:28:
                    ea:f0:aa:06:d6:36:77:cb:25:4b:74:34:49:b7:05:
                    a4:3d:01:0d:a0:b4:6f:72:4a:5e:d1:95:a6:e4:09:
                    7e:02:d2:81:9d:3d:44:31:73:a8:13:f0:a1:9d:0a:
                    43:d9:cd:bd:15:1e:2e:fe:63:a4:2a:c1:1b:76:d7:
                    b9:d0:f3:58:1b:11:8c:56:3a:23:6e:63:97:0b:1c:
                    d0:76:7c:07:28:ff:1c:bf:57:78:d9:9a:6e:ae:cf:
                    77:b9:9b:52:fb:d5:05:ac:5a:76:3c:6f:d3:d7:bb:
                    f1:f2:84:37:cf:21:e1:ce:81:16:74:58:12:fc:e3:
                    9c:57:dd:f0:89:82:5c:eb:0b:62:4f:39:5f:a1:64:
                    cb:4a:30:2c:90:0c:2e:d1:04:9a:fe:8f:18:bf:03:
                    59:29:a8:cc:39:93:c1:db:0c:94:78:4d:60:20:69:
                    c5:b1:f7:ef:44:32:53:42:29:1a:98:24:c3:eb:ee:
                    8f:8f:dc:5d:00:20:3a:4a:64:6b:34:a0:c5:f8:dc:
                    10:be:76:9a:f3:72:a9:5b:74:80:db:06:ff:18:f9:
                    1e:ef:46:10:13:e0:e5:e4:a3:82:63:32:fa:3e:ef:
                    3b:cd:42:ff:ca:fd:6b:10:de:a1:b2:51:63:b1:b1:
                    c3:aa:70:f2:04:d0:1a:d8:be:a8:66:97:fd:7d:cd:
                    fb:c9:73
                Exponent: 65537 (0x10001)
        X509v3 extensions:
            X509v3 Basic Constraints: 
                CA:FALSE
            Netscape Comment: 
                Easy-RSA Generated Certificate
            X509v3 Subject Key Identifier: 
                8C:D9:12:EE:24:65:AC:FA:22:82:28:B9:44:57:DA:4B:55:D3:BF:FC
            X509v3 Authority Key Identifier: 
                keyid:EF:38:8D:14:50:58:A7:5B:4D:9C:17:72:FC:DF:B9:AC:A7:51:B0:10
                DirName:/C=US/ST=CA/L=SanFrancisco/O=Pixglo, Inc./OU=VPN-CIE/CN=tunnel.pixglo.com/name=Bala Chandrasekaran/emailAddress=bala@pixglo.com
                serial:A6:DB:C6:83:80:E6:A0:79

            X509v3 Extended Key Usage: 
                TLS Web Client Authentication
            X509v3 Key Usage: 
                Digital Signature
    Signature Algorithm: sha1WithRSAEncryption
         40:6b:d7:8a:58:ff:48:64:2c:f2:1a:1b:05:f3:86:11:31:42:
         72:62:15:01:02:bd:79:a5:b0:3a:a9:5b:d4:2b:80:8c:3a:98:
         e7:95:6d:c7:19:3a:a3:b6:4e:6b:33:4f:dd:8f:d7:9a:e3:a3:
         fb:6a:a9:2d:e6:93:f0:04:ed:bf:9a:82:8e:a6:37:d9:e5:20:
         39:ae:b1:25:35:6d:5f:60:42:29:d6:fb:d5:be:2f:18:b2:05:
         b1:99:ed:a2:b8:64:66:82:00:e2:bc:65:87:15:ac:41:d0:7a:
         1f:89:92:6a:94:02:a8:de:c8:5a:cc:bd:5f:77:fd:2c:04:d1:
         ed:d3:f3:64:a8:a0:33:2d:2c:43:2f:e9:4d:55:56:a2:7d:39:
         57:d0:0d:e2:b5:53:6f:67:75:45:65:d6:6b:be:60:f7:2a:ce:
         df:f6:cc:e2:95:ae:88:e1:05:65:95:03:b7:5d:d8:34:d4:bc:
         8e:ca:bb:e6:1a:bd:d9:95:6a:50:9a:8c:e5:8e:fb:e6:a3:e5:
         01:44:3f:77:d5:c3:09:22:f5:23:fa:76:35:08:b9:14:55:f6:
         c9:fc:98:bb:c1:bd:bb:ac:7b:38:3a:38:0b:2a:b1:e0:d3:87:
         c1:cb:4f:d7:f2:96:0b:ed:07:2f:4f:60:69:fc:a2:ea:09:fc:
         94:b2:93:ac:88:a2:84:d3:a2:92:b8:f3:04:3c:0a:6b:32:73:
         51:62:c0:7c:83:84:e5:ea:cb:7a:3a:a2:8f:f7:40:39:27:88:
         16:ea:cd:ff:f5:f1:92:a0:72:6c:4e:b8:da:da:8f:14:f0:5a:
         f4:91:4d:3b:3a:3d:dd:82:3a:c2:2f:58:ea:5d:63:02:dd:a7:
         60:e7:f5:93:82:3c:fd:a3:1c:d5:4d:18:3b:f3:06:97:df:39:
         69:ea:4f:b8:96:b8:65:31:04:51:23:9d:35:c1:81:d8:dd:a2:
         10:a5:37:e5:a1:8a:c8:45:10:75:66:33:a2:b9:63:c4:66:6c:
         9f:69:0d:82:f1:31:ed:16:78:d5:02:69:b9:36:c2:05:51:ee:
         6a:14:13:4d:25:56:62:d3:59:bf:27:36:96:83:dc:ab:ba:88:
         03:87:2a:d4:8d:92:6b:93:07:05:9e:02:12:76:5d:08:e8:d5:
         d4:b2:7e:d5:cd:e7:56:45:e4:34:3c:fc:8a:c9:3a:be:b4:03:
         a1:e9:17:c0:41:3d:77:9a:57:98:47:72:ea:2c:fc:fa:f9:e2:
         d5:10:b8:ce:0e:a1:25:3b:19:52:f2:83:90:30:e8:00:00:77:
         9d:09:0f:af:86:57:c0:3e:0c:81:3f:28:20:e9:f4:43:06:3e:
         1b:1c:18:07:85:42:3f:3f
-----BEGIN CERTIFICATE-----
MIIHSDCCBTCgAwIBAgICAeAwDQYJKoZIhvcNAQEFBQAwgbQxCzAJBgNVBAYTAlVT
MQswCQYDVQQIEwJDQTEVMBMGA1UEBxMMU2FuRnJhbmNpc2NvMRUwEwYDVQQKEwxQ
aXhnbG8sIEluYy4xEDAOBgNVBAsTB1ZQTi1DSUUxGjAYBgNVBAMTEXR1bm5lbC5w
aXhnbG8uY29tMRwwGgYDVQQpExNCYWxhIENoYW5kcmFzZWthcmFuMR4wHAYJKoZI
hvcNAQkBFg9iYWxhQHBpeGdsby5jb20wHhcNMTgwMjE0MDYzNTEwWhcNMjgwMjEy
MDYzNTEwWjCBqTELMAkGA1UEBhMCVVMxCzAJBgNVBAgTAkNBMRUwEwYDVQQHEwxT
YW5GcmFuY2lzY28xFTATBgNVBAoTDFBpeGdsbywgSW5jLjEQMA4GA1UECxMHVlBO
LUNJRTEPMA0GA1UEAxMGY2llNDc5MRwwGgYDVQQpExNCYWxhIENoYW5kcmFzZWth
cmFuMR4wHAYJKoZIhvcNAQkBFg9iYWxhQHBpeGdsby5jb20wggIiMA0GCSqGSIb3
DQEBAQUAA4ICDwAwggIKAoICAQCsour11/hfwmn6WSaOxuVfbGJ6/Y+xBMbQHxvv
xJNePLyiIzQuuhv5HT1WiNC8xUyZVEmZeiTS0iUX8SHQDzG82nAvUltIAJ1qeZUA
Ys/pUfPb/q9SBlU++l2hTUrYhJwY7vuQAFXibKvlnQkC9wHnxpuMCT+stU8elvB8
B/Py3yLFakEztEL0wEWntvqHdIAKPcFm5X3dw9uCpd9lbrfW2zpgJeNR3MlNXIk5
8ovx88AykGtLOFgOm/iSDGYY1B7Va9liBOyrnZ1nzmK5cI1v5ykyHIb6PxsDSqXB
Glk0g+e6U5wEQhhlXWKdUW9Mo4Fy+icuYE7OJjHMWlT6KOrwqgbWNnfLJUt0NEm3
BaQ9AQ2gtG9ySl7RlabkCX4C0oGdPUQxc6gT8KGdCkPZzb0VHi7+Y6QqwRt217nQ
81gbEYxWOiNuY5cLHNB2fAco/xy/V3jZmm6uz3e5m1L71QWsWnY8b9PXu/HyhDfP
IeHOgRZ0WBL845xX3fCJglzrC2JPOV+hZMtKMCyQDC7RBJr+jxi/A1kpqMw5k8Hb
DJR4TWAgacWx9+9EMlNCKRqYJMPr7o+P3F0AIDpKZGs0oMX43BC+dprzcqlbdIDb
Bv8Y+R7vRhAT4OXko4JjMvo+7zvNQv/K/WsQ3qGyUWOxscOqcPIE0BrYvqhml/19
zfvJcwIDAQABo4IBazCCAWcwCQYDVR0TBAIwADAtBglghkgBhvhCAQ0EIBYeRWFz
eS1SU0EgR2VuZXJhdGVkIENlcnRpZmljYXRlMB0GA1UdDgQWBBSM2RLuJGWs+iKC
KLlEV9pLVdO//DCB6QYDVR0jBIHhMIHegBTvOI0UUFinW02cF3L837msp1GwEKGB
uqSBtzCBtDELMAkGA1UEBhMCVVMxCzAJBgNVBAgTAkNBMRUwEwYDVQQHEwxTYW5G
cmFuY2lzY28xFTATBgNVBAoTDFBpeGdsbywgSW5jLjEQMA4GA1UECxMHVlBOLUNJ
RTEaMBgGA1UEAxMRdHVubmVsLnBpeGdsby5jb20xHDAaBgNVBCkTE0JhbGEgQ2hh
bmRyYXNla2FyYW4xHjAcBgkqhkiG9w0BCQEWD2JhbGFAcGl4Z2xvLmNvbYIJAKbb
xoOA5qB5MBMGA1UdJQQMMAoGCCsGAQUFBwMCMAsGA1UdDwQEAwIHgDANBgkqhkiG
9w0BAQUFAAOCAgEAQGvXilj/SGQs8hobBfOGETFCcmIVAQK9eaWwOqlb1CuAjDqY
55Vtxxk6o7ZOazNP3Y/XmuOj+2qpLeaT8ATtv5qCjqY32eUgOa6xJTVtX2BCKdb7
1b4vGLIFsZntorhkZoIA4rxlhxWsQdB6H4mSapQCqN7IWsy9X3f9LATR7dPzZKig
My0sQy/pTVVWon05V9AN4rVTb2d1RWXWa75g9yrO3/bM4pWuiOEFZZUDt13YNNS8
jsq75hq92ZVqUJqM5Y775qPlAUQ/d9XDCSL1I/p2NQi5FFX2yfyYu8G9u6x7ODo4
Cyqx4NOHwctP1/KWC+0HL09gafyi6gn8lLKTrIiihNOikrjzBDwKazJzUWLAfIOE
5erLejqij/dAOSeIFurN//XxkqBybE642tqPFPBa9JFNOzo93YI6wi9Y6l1jAt2n
YOf1k4I8/aMc1U0YO/MGl985aepPuJa4ZTEEUSOdNcGB2N2iEKU35aGKyEUQdWYz
orljxGZsn2kNgvEx7RZ41QJpuTbCBVHuahQTTSVWYtNZvyc2loPcq7qIA4cq1I2S
a5MHBZ4CEnZdCOjV1LJ+1c3nVkXkNDz8isk6vrQDoekXwEE9d5pXmEdy6iz8+vni
1RC4zg6hJTsZUvKDkDDoAAB3nQkPr4ZXwD4MgT8oIOn0QwY+GxwYB4VCPz8=
-----END CERTIFICATE-----
