Certificate:
    Data:
        Version: 3 (0x2)
        Serial Number: 483 (0x1e3)
    Signature Algorithm: sha1WithRSAEncryption
        Issuer: C=US, ST=CA, L=SanFrancisco, O=Pixglo, Inc., OU=VPN-CIE, CN=tunnel.pixglo.com/name=Bala Chandrasekaran/emailAddress=bala@pixglo.com
        Validity
            Not Before: Feb 14 06:35:14 2018 GMT
            Not After : Feb 12 06:35:14 2028 GMT
        Subject: C=US, ST=CA, L=SanFrancisco, O=Pixglo, Inc., OU=VPN-CIE, CN=cie482/name=Bala Chandrasekaran/emailAddress=bala@pixglo.com
        Subject Public Key Info:
            Public Key Algorithm: rsaEncryption
                Public-Key: (4096 bit)
                Modulus:
                    00:a3:ef:36:0e:3b:90:78:e2:72:41:3f:a8:8f:7f:
                    43:a4:8e:16:00:d3:c3:ec:8d:aa:5e:a7:25:49:bc:
                    d2:e5:fd:ee:2f:c9:18:0d:4a:70:2d:6d:f1:00:13:
                    f8:5e:3b:47:54:ef:16:95:bf:df:a6:aa:66:e4:5b:
                    4f:a8:98:5a:1a:e4:13:37:bc:ca:43:d7:50:20:b9:
                    a5:47:37:a9:b7:6b:03:04:02:22:e8:54:8f:71:cf:
                    d8:4c:5a:f8:eb:a4:9e:29:18:86:54:08:6d:f6:70:
                    e2:75:e3:03:bd:99:11:72:45:de:d9:f3:95:a4:61:
                    24:ce:64:b3:b8:5a:d1:38:57:0c:6f:1a:b9:80:a3:
                    7f:bf:51:a5:3b:57:49:c5:94:28:d9:db:b6:81:a4:
                    45:40:f9:91:a4:b4:f1:d8:70:37:c4:3e:a9:41:40:
                    85:ed:24:61:ad:e2:a9:92:75:e9:e1:b4:43:40:d4:
                    0f:3c:0e:14:1e:57:36:a7:57:55:b6:c4:3c:a8:a3:
                    a0:e4:8f:b9:57:13:1a:94:bf:09:46:2e:cc:c9:93:
                    7d:ee:d9:a9:a5:18:23:af:ab:93:4e:ff:23:59:23:
                    06:55:59:f1:1e:76:ec:a5:56:a1:f8:62:08:4c:90:
                    dd:37:54:71:6e:75:d7:f8:bf:fc:d7:91:fd:47:7e:
                    34:41:17:53:ce:35:23:e2:c1:bf:e5:7b:ea:9d:88:
                    dd:73:06:d4:67:e0:7c:3d:3d:6b:8c:cd:59:18:1d:
                    9d:42:57:4d:c5:17:fd:36:0b:ff:15:03:70:8f:34:
                    c9:4d:bb:19:ea:7b:3b:bd:83:7e:e2:4a:91:ea:5f:
                    6d:1a:c6:a7:1a:ae:0a:84:ff:2e:b0:ab:0e:13:bb:
                    66:94:d4:97:ce:b7:e4:75:83:63:dd:b4:97:23:89:
                    ae:f0:df:97:c8:d2:f9:86:fc:83:c9:a3:06:63:2f:
                    30:52:83:83:42:7f:86:55:94:82:52:9b:fe:d9:18:
                    21:89:2a:aa:69:51:5a:67:6f:f3:d5:5d:5d:1f:01:
                    52:0f:d5:7c:d0:d4:fd:58:1c:5d:47:09:27:a3:63:
                    46:b7:6e:09:bc:38:96:1e:20:60:d1:8b:26:29:79:
                    2f:fe:12:8e:71:06:92:e3:7f:d2:f4:95:3b:aa:84:
                    d9:ee:33:70:ce:46:1c:f3:8d:fb:2f:38:19:f9:54:
                    a9:5c:12:e0:5b:bf:d7:df:3b:39:2a:d6:6a:10:6d:
                    b3:ca:bb:db:b6:6b:fd:3b:47:69:2a:6c:19:cb:d8:
                    5d:16:fc:9a:cb:a1:0c:bb:49:33:88:8e:19:4f:c8:
                    fb:f9:8a:56:cf:f1:21:68:cd:89:1e:79:4b:a6:af:
                    cc:c3:0f
                Exponent: 65537 (0x10001)
        X509v3 extensions:
            X509v3 Basic Constraints: 
                CA:FALSE
            Netscape Comment: 
                Easy-RSA Generated Certificate
            X509v3 Subject Key Identifier: 
                61:A1:5E:41:53:96:60:A9:A7:83:A6:09:23:04:01:83:7B:2C:56:05
            X509v3 Authority Key Identifier: 
                keyid:EF:38:8D:14:50:58:A7:5B:4D:9C:17:72:FC:DF:B9:AC:A7:51:B0:10
                DirName:/C=US/ST=CA/L=SanFrancisco/O=Pixglo, Inc./OU=VPN-CIE/CN=tunnel.pixglo.com/name=Bala Chandrasekaran/emailAddress=bala@pixglo.com
                serial:A6:DB:C6:83:80:E6:A0:79

            X509v3 Extended Key Usage: 
                TLS Web Client Authentication
            X509v3 Key Usage: 
                Digital Signature
    Signature Algorithm: sha1WithRSAEncryption
         5d:9e:29:48:6e:01:51:ab:34:76:2b:7c:33:8e:ec:c6:4f:fb:
         b5:da:15:e0:1a:80:ad:65:ec:3c:cc:9e:e7:df:df:83:3f:99:
         db:e4:10:7c:9a:1b:34:53:d7:66:32:94:27:b0:8f:0c:dc:c5:
         00:12:60:cd:ae:fb:5c:84:14:83:20:0f:4d:a5:e9:84:23:27:
         0e:c1:28:2e:31:34:8c:9e:5c:84:37:ff:c9:e3:39:a3:ef:c2:
         c7:23:82:6b:22:f6:39:d7:db:93:f8:e0:f8:4e:3e:a0:33:3f:
         48:1e:c7:70:7a:5d:90:25:92:92:4b:67:2a:ee:ff:bd:14:d5:
         51:17:d7:79:d5:ac:df:82:fe:0f:3e:9e:5c:6c:79:83:c1:5d:
         70:6f:5a:e0:2f:17:72:c5:cb:81:be:cd:ea:15:dc:f5:6d:fb:
         6c:1e:8a:fd:55:d5:5d:8a:c4:28:9e:20:95:92:db:a3:52:2c:
         75:94:14:ac:d7:78:77:00:f1:63:c0:cb:d7:98:04:9f:19:be:
         62:1e:a5:63:a9:0e:f3:3b:8d:29:99:40:00:af:64:7a:f6:7d:
         03:00:cf:8b:49:1c:2f:28:37:33:d8:4f:8c:2e:88:77:5d:60:
         26:94:31:99:4d:ca:b6:f9:14:d5:18:a9:2d:43:e1:fa:ab:ac:
         71:88:b4:78:5d:46:a6:fd:d3:cb:9f:de:c0:e2:07:09:f6:30:
         09:7d:ac:ca:c9:1b:0b:83:19:5e:bc:de:a1:f5:61:a5:67:4b:
         15:ce:0b:f3:39:10:a5:9d:f5:bc:e8:e1:29:4e:27:1d:6a:af:
         c1:5a:9c:a3:b1:95:aa:23:dd:5f:3b:8c:70:2d:64:7d:be:07:
         d8:8b:92:c2:e4:e0:21:e1:f4:e5:72:b5:4b:ef:2b:7b:a1:cc:
         9c:d4:e7:ec:ef:72:ac:07:ce:aa:fe:03:3a:ab:8a:73:56:21:
         1f:02:5d:7e:c4:5f:9e:ab:3b:28:f5:ec:b0:ae:76:e7:da:c8:
         30:84:bd:69:6f:20:c1:2f:48:26:50:8c:52:3e:65:0c:ec:9d:
         ca:7b:4f:05:fc:ad:62:2b:f4:f1:36:e8:fc:71:2c:b7:d3:18:
         18:10:9c:06:eb:47:b6:ba:05:5f:2c:6a:7a:17:cc:db:8b:a9:
         be:05:19:af:b9:e5:3a:65:af:63:70:a2:d3:fd:cb:42:20:84:
         c3:68:3e:cd:f4:bd:68:af:a5:b1:6c:97:27:b2:49:57:95:99:
         d4:5b:2d:f6:09:c0:7c:92:ad:02:c0:c9:15:f8:15:0c:1f:8f:
         44:28:d9:be:48:07:d5:92:ad:c0:b7:50:f3:23:b1:e2:9d:4e:
         9b:71:9a:ab:2e:63:ce:27
-----BEGIN CERTIFICATE-----
MIIHSDCCBTCgAwIBAgICAeMwDQYJKoZIhvcNAQEFBQAwgbQxCzAJBgNVBAYTAlVT
MQswCQYDVQQIEwJDQTEVMBMGA1UEBxMMU2FuRnJhbmNpc2NvMRUwEwYDVQQKEwxQ
aXhnbG8sIEluYy4xEDAOBgNVBAsTB1ZQTi1DSUUxGjAYBgNVBAMTEXR1bm5lbC5w
aXhnbG8uY29tMRwwGgYDVQQpExNCYWxhIENoYW5kcmFzZWthcmFuMR4wHAYJKoZI
hvcNAQkBFg9iYWxhQHBpeGdsby5jb20wHhcNMTgwMjE0MDYzNTE0WhcNMjgwMjEy
MDYzNTE0WjCBqTELMAkGA1UEBhMCVVMxCzAJBgNVBAgTAkNBMRUwEwYDVQQHEwxT
YW5GcmFuY2lzY28xFTATBgNVBAoTDFBpeGdsbywgSW5jLjEQMA4GA1UECxMHVlBO
LUNJRTEPMA0GA1UEAxMGY2llNDgyMRwwGgYDVQQpExNCYWxhIENoYW5kcmFzZWth
cmFuMR4wHAYJKoZIhvcNAQkBFg9iYWxhQHBpeGdsby5jb20wggIiMA0GCSqGSIb3
DQEBAQUAA4ICDwAwggIKAoICAQCj7zYOO5B44nJBP6iPf0OkjhYA08PsjapepyVJ
vNLl/e4vyRgNSnAtbfEAE/heO0dU7xaVv9+mqmbkW0+omFoa5BM3vMpD11AguaVH
N6m3awMEAiLoVI9xz9hMWvjrpJ4pGIZUCG32cOJ14wO9mRFyRd7Z85WkYSTOZLO4
WtE4VwxvGrmAo3+/UaU7V0nFlCjZ27aBpEVA+ZGktPHYcDfEPqlBQIXtJGGt4qmS
denhtENA1A88DhQeVzanV1W2xDyoo6Dkj7lXExqUvwlGLszJk33u2amlGCOvq5NO
/yNZIwZVWfEeduylVqH4YghMkN03VHFuddf4v/zXkf1HfjRBF1PONSPiwb/le+qd
iN1zBtRn4Hw9PWuMzVkYHZ1CV03FF/02C/8VA3CPNMlNuxnqezu9g37iSpHqX20a
xqcargqE/y6wqw4Tu2aU1JfOt+R1g2PdtJcjia7w35fI0vmG/IPJowZjLzBSg4NC
f4ZVlIJSm/7ZGCGJKqppUVpnb/PVXV0fAVIP1XzQ1P1YHF1HCSejY0a3bgm8OJYe
IGDRiyYpeS/+Eo5xBpLjf9L0lTuqhNnuM3DORhzzjfsvOBn5VKlcEuBbv9ffOzkq
1moQbbPKu9u2a/07R2kqbBnL2F0W/JrLoQy7STOIjhlPyPv5ilbP8SFozYkeeUum
r8zDDwIDAQABo4IBazCCAWcwCQYDVR0TBAIwADAtBglghkgBhvhCAQ0EIBYeRWFz
eS1SU0EgR2VuZXJhdGVkIENlcnRpZmljYXRlMB0GA1UdDgQWBBRhoV5BU5ZgqaeD
pgkjBAGDeyxWBTCB6QYDVR0jBIHhMIHegBTvOI0UUFinW02cF3L837msp1GwEKGB
uqSBtzCBtDELMAkGA1UEBhMCVVMxCzAJBgNVBAgTAkNBMRUwEwYDVQQHEwxTYW5G
cmFuY2lzY28xFTATBgNVBAoTDFBpeGdsbywgSW5jLjEQMA4GA1UECxMHVlBOLUNJ
RTEaMBgGA1UEAxMRdHVubmVsLnBpeGdsby5jb20xHDAaBgNVBCkTE0JhbGEgQ2hh
bmRyYXNla2FyYW4xHjAcBgkqhkiG9w0BCQEWD2JhbGFAcGl4Z2xvLmNvbYIJAKbb
xoOA5qB5MBMGA1UdJQQMMAoGCCsGAQUFBwMCMAsGA1UdDwQEAwIHgDANBgkqhkiG
9w0BAQUFAAOCAgEAXZ4pSG4BUas0dit8M47sxk/7tdoV4BqArWXsPMye59/fgz+Z
2+QQfJobNFPXZjKUJ7CPDNzFABJgza77XIQUgyAPTaXphCMnDsEoLjE0jJ5chDf/
yeM5o+/CxyOCayL2Odfbk/jg+E4+oDM/SB7HcHpdkCWSkktnKu7/vRTVURfXedWs
34L+Dz6eXGx5g8FdcG9a4C8XcsXLgb7N6hXc9W37bB6K/VXVXYrEKJ4glZLbo1Is
dZQUrNd4dwDxY8DL15gEnxm+Yh6lY6kO8zuNKZlAAK9kevZ9AwDPi0kcLyg3M9hP
jC6Id11gJpQxmU3KtvkU1RipLUPh+quscYi0eF1Gpv3Ty5/ewOIHCfYwCX2syskb
C4MZXrzeofVhpWdLFc4L8zkQpZ31vOjhKU4nHWqvwVqco7GVqiPdXzuMcC1kfb4H
2IuSwuTgIeH05XK1S+8re6HMnNTn7O9yrAfOqv4DOquKc1YhHwJdfsRfnqs7KPXs
sK5259rIMIS9aW8gwS9IJlCMUj5lDOydyntPBfytYiv08Tbo/HEst9MYGBCcButH
troFXyxqehfM24upvgUZr7nlOmWvY3Ci0/3LQiCEw2g+zfS9aK+lsWyXJ7JJV5WZ
1Fst9gnAfJKtAsDJFfgVDB+PRCjZvkgH1ZKtwLdQ8yOx4p1Om3Gaqy5jzic=
-----END CERTIFICATE-----
