Certificate:
    Data:
        Version: 3 (0x2)
        Serial Number: 484 (0x1e4)
    Signature Algorithm: sha1WithRSAEncryption
        Issuer: C=US, ST=CA, L=SanFrancisco, O=Pixglo, Inc., OU=VPN-CIE, CN=tunnel.pixglo.com/name=Bala Chandrasekaran/emailAddress=bala@pixglo.com
        Validity
            Not Before: Feb 14 06:35:16 2018 GMT
            Not After : Feb 12 06:35:16 2028 GMT
        Subject: C=US, ST=CA, L=SanFrancisco, O=Pixglo, Inc., OU=VPN-CIE, CN=cie483/name=Bala Chandrasekaran/emailAddress=bala@pixglo.com
        Subject Public Key Info:
            Public Key Algorithm: rsaEncryption
                Public-Key: (4096 bit)
                Modulus:
                    00:d2:da:ee:63:5d:10:01:7c:a4:b7:bf:62:d4:1d:
                    ec:ac:43:90:34:fc:16:f3:02:cb:5e:98:dc:68:24:
                    be:82:e8:3a:c2:2a:e9:9f:ad:f8:b2:b2:98:06:4a:
                    fa:1d:fd:d8:ae:a9:e8:42:06:89:d3:f5:3f:f7:5e:
                    e1:97:49:bc:cc:c3:b5:7d:8b:18:a6:4c:63:cc:a4:
                    b8:e2:3b:34:29:d1:55:12:cd:d5:9d:f6:12:13:0c:
                    c1:f5:c7:87:21:97:39:e5:74:c7:04:54:60:a6:57:
                    58:f5:39:fc:09:d5:29:70:4e:1e:6a:5b:a3:d7:f0:
                    60:f8:97:54:87:ab:12:ba:9f:8a:b9:7c:84:63:10:
                    87:05:ce:3c:7b:19:5c:1d:75:44:72:c0:a3:8c:fc:
                    88:8a:c8:02:65:7d:f2:9c:89:7c:31:4c:f6:60:b1:
                    9d:76:8d:18:1e:62:3f:18:63:5f:1f:f7:6e:bd:c1:
                    17:46:8d:5d:1f:8a:eb:ef:6e:8d:94:1a:e5:27:92:
                    e8:ce:e2:60:1b:f2:01:02:b5:14:cc:ab:da:62:63:
                    fc:c3:01:c8:c5:3b:1e:5e:79:78:c5:8f:1e:40:b7:
                    aa:05:95:3f:5e:3b:b9:eb:c6:c3:f6:1b:86:c1:e5:
                    d4:e3:5d:4b:86:df:3c:cb:00:4b:38:b4:c0:a3:a9:
                    a7:0d:3d:6b:ee:5a:f0:9b:c6:b0:08:a8:ac:4a:ae:
                    8e:04:7c:e1:bb:24:c8:e9:6f:e0:19:b9:48:73:61:
                    74:19:9a:00:1b:5e:19:12:eb:83:f3:f8:41:bf:98:
                    5d:0c:b6:28:3b:35:42:24:da:d7:c1:e8:dd:5d:52:
                    08:16:af:29:3f:f7:e8:fb:c0:3a:f3:b5:77:e6:b2:
                    86:9a:8e:5f:d3:22:b2:59:ff:fd:00:30:02:2d:86:
                    12:04:05:ad:90:47:50:7b:e2:66:a8:66:55:ac:1e:
                    ea:1c:50:77:5e:54:9b:39:6d:0d:df:ca:5b:42:87:
                    a9:89:77:c4:06:8c:85:ef:d5:55:5a:1c:74:de:8e:
                    eb:d7:3b:54:9b:01:14:35:82:ee:14:c1:38:18:0b:
                    e4:f2:77:ff:d0:d1:86:ef:d6:03:52:17:eb:ea:ca:
                    1f:a3:db:02:b8:cc:fb:1d:b6:ce:6b:76:da:11:0d:
                    1c:0d:3d:62:e9:f4:51:e3:c5:62:87:c3:5f:6e:54:
                    8a:f5:90:7f:82:9e:de:4d:c9:5f:3d:ed:75:6f:91:
                    0f:75:38:fc:8c:23:05:d1:6d:8e:97:ce:01:2c:2d:
                    8f:b1:c5:aa:5e:91:b9:09:0d:f2:06:4f:c3:97:58:
                    f2:1a:3e:d7:ef:e5:36:11:21:2e:4f:04:3e:14:05:
                    7e:e9:a5
                Exponent: 65537 (0x10001)
        X509v3 extensions:
            X509v3 Basic Constraints: 
                CA:FALSE
            Netscape Comment: 
                Easy-RSA Generated Certificate
            X509v3 Subject Key Identifier: 
                B5:5E:61:E6:15:22:FE:DD:EF:DE:57:5A:97:FF:7E:8C:DF:B5:AD:CE
            X509v3 Authority Key Identifier: 
                keyid:EF:38:8D:14:50:58:A7:5B:4D:9C:17:72:FC:DF:B9:AC:A7:51:B0:10
                DirName:/C=US/ST=CA/L=SanFrancisco/O=Pixglo, Inc./OU=VPN-CIE/CN=tunnel.pixglo.com/name=Bala Chandrasekaran/emailAddress=bala@pixglo.com
                serial:A6:DB:C6:83:80:E6:A0:79

            X509v3 Extended Key Usage: 
                TLS Web Client Authentication
            X509v3 Key Usage: 
                Digital Signature
    Signature Algorithm: sha1WithRSAEncryption
         94:d4:76:6b:73:a9:91:dc:9c:56:32:e2:13:7c:9d:f6:ba:be:
         9b:de:d0:ba:88:a9:8d:82:93:1c:db:d8:3b:51:3b:2d:93:5e:
         dc:6e:7e:17:56:c9:e8:ef:7e:01:fd:3a:03:7b:21:1b:95:62:
         11:c6:86:7f:f8:53:4d:7a:8d:e0:e4:0c:89:95:72:ef:1c:63:
         40:36:b0:3b:f7:8e:36:c4:ae:43:23:5b:19:95:86:84:0f:66:
         a6:59:ac:6e:ce:66:df:a9:cc:6f:cd:04:9d:66:fa:cf:f4:d8:
         78:d1:af:8b:66:a9:ae:0e:2f:fd:43:8c:71:f1:a9:8e:9a:3e:
         a5:be:be:bc:42:25:67:ff:4e:de:39:b6:cf:6f:ba:94:87:fb:
         24:37:22:22:46:d3:6a:20:0a:cb:64:ab:d9:0c:36:93:fe:8d:
         59:93:d2:d5:ee:9c:4b:82:9a:cd:86:e2:17:07:50:42:62:48:
         1c:e7:9c:1b:6f:0a:48:f6:c2:9c:b6:59:7b:13:2b:f1:3a:8e:
         60:e7:f5:2b:af:23:8f:eb:de:bf:f4:8d:a9:1d:23:34:13:8b:
         5b:48:c0:36:14:6e:dd:20:db:aa:b5:48:11:57:2f:bd:42:92:
         1e:e0:7f:30:ab:ca:7b:e7:42:a0:f1:5d:21:bd:c9:d7:17:12:
         b6:9e:47:9d:5c:92:14:72:24:3a:e8:2a:54:25:4d:70:19:be:
         ce:a6:0a:cf:91:77:b3:56:9e:95:b2:27:d0:14:b8:0c:a2:8b:
         75:a6:46:f5:a8:8d:37:16:bf:e1:1d:a0:5a:f4:9c:a7:b9:d3:
         91:1e:06:7b:ca:42:81:b8:7d:08:b9:c2:d5:3f:ab:73:85:09:
         a6:9c:d0:c7:0f:85:0a:c1:4b:34:47:97:d1:fb:d6:46:17:4f:
         9f:f0:27:07:96:c3:61:b8:59:c9:da:b7:ca:2f:fb:42:42:b3:
         57:55:3c:0c:59:73:af:b3:b5:f3:f1:ce:11:e1:be:27:75:85:
         c3:63:ff:c6:f0:88:e1:cd:54:31:e5:b2:39:ba:91:0c:a0:d0:
         bc:55:7f:a9:58:73:65:f7:84:86:90:66:71:53:4e:a5:b6:98:
         8b:40:1e:d4:b7:b0:15:c2:09:69:5c:08:ed:ec:dd:6e:7e:52:
         00:22:2e:ac:fb:d2:10:1e:3a:c0:27:10:9c:ad:61:38:a6:8d:
         bc:e3:55:39:f9:da:a5:ac:15:35:bd:f4:05:02:34:dd:ef:31:
         52:a2:e4:7d:66:e7:86:b3:ad:42:7b:39:46:42:fd:03:f8:bb:
         e1:af:96:49:8d:e7:ab:84:43:78:8c:42:83:65:6b:00:92:60:
         da:b6:10:87:7c:fe:ff:a0
-----BEGIN CERTIFICATE-----
MIIHSDCCBTCgAwIBAgICAeQwDQYJKoZIhvcNAQEFBQAwgbQxCzAJBgNVBAYTAlVT
MQswCQYDVQQIEwJDQTEVMBMGA1UEBxMMU2FuRnJhbmNpc2NvMRUwEwYDVQQKEwxQ
aXhnbG8sIEluYy4xEDAOBgNVBAsTB1ZQTi1DSUUxGjAYBgNVBAMTEXR1bm5lbC5w
aXhnbG8uY29tMRwwGgYDVQQpExNCYWxhIENoYW5kcmFzZWthcmFuMR4wHAYJKoZI
hvcNAQkBFg9iYWxhQHBpeGdsby5jb20wHhcNMTgwMjE0MDYzNTE2WhcNMjgwMjEy
MDYzNTE2WjCBqTELMAkGA1UEBhMCVVMxCzAJBgNVBAgTAkNBMRUwEwYDVQQHEwxT
YW5GcmFuY2lzY28xFTATBgNVBAoTDFBpeGdsbywgSW5jLjEQMA4GA1UECxMHVlBO
LUNJRTEPMA0GA1UEAxMGY2llNDgzMRwwGgYDVQQpExNCYWxhIENoYW5kcmFzZWth
cmFuMR4wHAYJKoZIhvcNAQkBFg9iYWxhQHBpeGdsby5jb20wggIiMA0GCSqGSIb3
DQEBAQUAA4ICDwAwggIKAoICAQDS2u5jXRABfKS3v2LUHeysQ5A0/BbzAstemNxo
JL6C6DrCKumfrfiyspgGSvod/diuqehCBonT9T/3XuGXSbzMw7V9iximTGPMpLji
OzQp0VUSzdWd9hITDMH1x4chlznldMcEVGCmV1j1OfwJ1SlwTh5qW6PX8GD4l1SH
qxK6n4q5fIRjEIcFzjx7GVwddURywKOM/IiKyAJlffKciXwxTPZgsZ12jRgeYj8Y
Y18f9269wRdGjV0fiuvvbo2UGuUnkujO4mAb8gECtRTMq9piY/zDAcjFOx5eeXjF
jx5At6oFlT9eO7nrxsP2G4bB5dTjXUuG3zzLAEs4tMCjqacNPWvuWvCbxrAIqKxK
ro4EfOG7JMjpb+AZuUhzYXQZmgAbXhkS64Pz+EG/mF0Mtig7NUIk2tfB6N1dUggW
ryk/9+j7wDrztXfmsoaajl/TIrJZ//0AMAIthhIEBa2QR1B74maoZlWsHuocUHde
VJs5bQ3fyltCh6mJd8QGjIXv1VVaHHTejuvXO1SbARQ1gu4UwTgYC+Tyd//Q0Ybv
1gNSF+vqyh+j2wK4zPsdts5rdtoRDRwNPWLp9FHjxWKHw19uVIr1kH+Cnt5NyV89
7XVvkQ91OPyMIwXRbY6XzgEsLY+xxapekbkJDfIGT8OXWPIaPtfv5TYRIS5PBD4U
BX7ppQIDAQABo4IBazCCAWcwCQYDVR0TBAIwADAtBglghkgBhvhCAQ0EIBYeRWFz
eS1SU0EgR2VuZXJhdGVkIENlcnRpZmljYXRlMB0GA1UdDgQWBBS1XmHmFSL+3e/e
V1qX/36M37WtzjCB6QYDVR0jBIHhMIHegBTvOI0UUFinW02cF3L837msp1GwEKGB
uqSBtzCBtDELMAkGA1UEBhMCVVMxCzAJBgNVBAgTAkNBMRUwEwYDVQQHEwxTYW5G
cmFuY2lzY28xFTATBgNVBAoTDFBpeGdsbywgSW5jLjEQMA4GA1UECxMHVlBOLUNJ
RTEaMBgGA1UEAxMRdHVubmVsLnBpeGdsby5jb20xHDAaBgNVBCkTE0JhbGEgQ2hh
bmRyYXNla2FyYW4xHjAcBgkqhkiG9w0BCQEWD2JhbGFAcGl4Z2xvLmNvbYIJAKbb
xoOA5qB5MBMGA1UdJQQMMAoGCCsGAQUFBwMCMAsGA1UdDwQEAwIHgDANBgkqhkiG
9w0BAQUFAAOCAgEAlNR2a3OpkdycVjLiE3yd9rq+m97QuoipjYKTHNvYO1E7LZNe
3G5+F1bJ6O9+Af06A3shG5ViEcaGf/hTTXqN4OQMiZVy7xxjQDawO/eONsSuQyNb
GZWGhA9mplmsbs5m36nMb80EnWb6z/TYeNGvi2aprg4v/UOMcfGpjpo+pb6+vEIl
Z/9O3jm2z2+6lIf7JDciIkbTaiAKy2Sr2Qw2k/6NWZPS1e6cS4KazYbiFwdQQmJI
HOecG28KSPbCnLZZexMr8TqOYOf1K68jj+vev/SNqR0jNBOLW0jANhRu3SDbqrVI
EVcvvUKSHuB/MKvKe+dCoPFdIb3J1xcStp5HnVySFHIkOugqVCVNcBm+zqYKz5F3
s1aelbIn0BS4DKKLdaZG9aiNNxa/4R2gWvScp7nTkR4Ge8pCgbh9CLnC1T+rc4UJ
ppzQxw+FCsFLNEeX0fvWRhdPn/AnB5bDYbhZydq3yi/7QkKzV1U8DFlzr7O18/HO
EeG+J3WFw2P/xvCI4c1UMeWyObqRDKDQvFV/qVhzZfeEhpBmcVNOpbaYi0Ae1Lew
FcIJaVwI7ezdbn5SACIurPvSEB46wCcQnK1hOKaNvONVOfnapawVNb30BQI03e8x
UqLkfWbnhrOtQns5RkL9A/i74a+WSY3nq4RDeIxCg2VrAJJg2rYQh3z+/6A=
-----END CERTIFICATE-----
