Certificate:
    Data:
        Version: 3 (0x2)
        Serial Number: 485 (0x1e5)
    Signature Algorithm: sha1WithRSAEncryption
        Issuer: C=US, ST=CA, L=SanFrancisco, O=Pixglo, Inc., OU=VPN-CIE, CN=tunnel.pixglo.com/name=Bala Chandrasekaran/emailAddress=bala@pixglo.com
        Validity
            Not Before: Feb 14 06:35:18 2018 GMT
            Not After : Feb 12 06:35:18 2028 GMT
        Subject: C=US, ST=CA, L=SanFrancisco, O=Pixglo, Inc., OU=VPN-CIE, CN=cie484/name=Bala Chandrasekaran/emailAddress=bala@pixglo.com
        Subject Public Key Info:
            Public Key Algorithm: rsaEncryption
                Public-Key: (4096 bit)
                Modulus:
                    00:c1:66:28:1a:2a:66:db:f0:0a:bd:46:48:95:04:
                    50:f3:1b:dd:4b:6b:2a:2e:29:1e:f7:9a:c8:76:e3:
                    60:c2:82:f8:02:7e:7c:c9:d6:72:88:6a:7d:2a:c1:
                    52:5a:ea:43:24:02:13:51:f3:0a:e2:82:3c:bf:aa:
                    6f:31:a4:9c:3d:d9:4f:34:37:d1:6c:8e:e9:68:94:
                    30:5c:d6:b5:24:8f:29:d8:72:ac:ca:d7:95:76:ff:
                    98:25:8d:eb:d3:5c:2b:bd:86:c8:8b:90:05:3d:ec:
                    35:37:34:93:09:0a:43:36:00:d3:1d:ef:89:d7:4c:
                    5c:00:2f:78:3e:b8:23:fc:d8:b4:2f:1a:90:3b:d3:
                    09:08:dd:f2:1d:b1:d3:cb:a1:ac:ac:49:3d:69:2f:
                    d7:22:5e:bd:dd:cf:5f:51:b6:42:e5:00:85:cc:5c:
                    2c:7c:cb:4d:0f:ad:b4:ca:75:fc:62:99:8d:f6:02:
                    d4:d5:0a:cd:18:67:b0:af:c7:3d:4f:66:11:3d:37:
                    69:06:17:bc:0d:d3:13:27:40:0b:6d:00:b7:63:fb:
                    cd:c3:54:4e:bf:81:03:0f:8b:68:b3:86:e1:0c:16:
                    51:de:9c:67:3c:0f:4b:f3:f7:74:cc:b7:1b:f6:cc:
                    d1:79:d5:ed:ff:bc:b0:3f:e2:ea:03:f6:62:10:b1:
                    6e:3a:17:af:f5:84:a7:b4:8e:31:15:8f:be:6d:49:
                    97:2f:e1:5d:b7:77:6d:89:78:61:59:a9:4e:b3:12:
                    69:d7:3e:43:e1:40:68:98:ef:f5:c5:56:14:75:3b:
                    a9:7d:0e:4f:5a:7f:a1:30:79:44:50:17:59:1c:c7:
                    7a:55:e4:06:36:32:4a:04:2a:23:c7:c9:90:98:e6:
                    20:c5:fe:49:6f:df:55:55:7b:a5:2d:e6:74:d5:43:
                    8f:3a:a1:d1:bf:35:3c:a9:e2:01:be:30:fb:e8:6d:
                    77:d6:03:2d:a1:4d:13:96:94:d2:30:1a:8d:ba:2d:
                    75:b4:35:7c:0f:8e:c2:64:e0:d9:7c:06:71:19:4e:
                    14:18:db:12:74:7b:61:d7:4c:ca:b3:2a:b0:3c:b5:
                    de:04:08:c6:58:56:7a:7d:8d:0f:0c:65:16:79:0f:
                    72:b5:c2:b9:d9:03:21:d7:9a:26:cb:16:d6:81:31:
                    8b:8d:78:67:48:e5:83:f7:10:ac:00:28:4c:03:19:
                    8f:3b:97:81:94:91:23:f6:81:a0:41:65:c0:c8:d1:
                    3e:33:26:30:11:3c:e6:ec:4d:d4:fa:89:fd:01:30:
                    59:09:35:1e:df:a5:10:ce:ae:a4:8a:9a:c0:1b:f4:
                    67:c2:e0:64:3a:a4:93:fa:e5:cf:32:e7:3a:cf:35:
                    25:a6:45
                Exponent: 65537 (0x10001)
        X509v3 extensions:
            X509v3 Basic Constraints: 
                CA:FALSE
            Netscape Comment: 
                Easy-RSA Generated Certificate
            X509v3 Subject Key Identifier: 
                10:2F:53:E8:FE:12:71:06:12:D0:96:1E:56:20:A8:80:4A:C6:61:55
            X509v3 Authority Key Identifier: 
                keyid:EF:38:8D:14:50:58:A7:5B:4D:9C:17:72:FC:DF:B9:AC:A7:51:B0:10
                DirName:/C=US/ST=CA/L=SanFrancisco/O=Pixglo, Inc./OU=VPN-CIE/CN=tunnel.pixglo.com/name=Bala Chandrasekaran/emailAddress=bala@pixglo.com
                serial:A6:DB:C6:83:80:E6:A0:79

            X509v3 Extended Key Usage: 
                TLS Web Client Authentication
            X509v3 Key Usage: 
                Digital Signature
    Signature Algorithm: sha1WithRSAEncryption
         3b:99:f6:a3:0c:3c:4c:e8:89:6d:a7:1f:f1:bd:35:47:1b:ea:
         35:ad:14:ec:d9:6c:44:81:9c:ad:e5:e7:ba:71:60:20:03:b2:
         40:68:ab:70:72:6d:e5:53:9d:c7:d6:6d:f0:51:07:a3:28:ac:
         f1:dd:5a:48:bb:ae:ff:c4:97:cb:4f:ee:25:09:ad:f1:15:0d:
         08:45:df:e2:80:ba:0f:77:7b:ac:98:5d:db:87:30:de:e4:41:
         f5:f4:bc:de:7e:4d:e0:14:4e:8a:fd:22:05:2d:9f:f0:a0:f6:
         97:f4:41:67:45:d2:2f:a5:cf:13:fa:93:bd:a9:f6:59:c3:b0:
         28:25:90:8c:07:8d:21:08:0d:80:36:cc:6e:ac:1e:79:df:2f:
         57:03:00:1d:88:05:44:fb:80:6d:d9:14:8a:48:31:b0:0f:1d:
         ae:c8:ee:c5:b6:db:7a:a5:ca:9f:c6:47:d1:b0:80:5b:b0:de:
         79:2a:f9:30:cb:9b:0c:55:cf:7d:f6:74:13:3c:a8:30:87:c9:
         a0:ad:23:c3:12:b4:69:ae:c7:e3:88:d5:0e:b1:12:e2:7f:98:
         61:4e:a6:64:e5:9c:2e:05:20:f0:3c:82:84:eb:ad:ff:37:c0:
         7d:bb:c2:1e:fd:03:7d:38:89:8f:d0:99:94:41:06:d7:0c:99:
         8d:dd:d0:87:db:65:1a:cb:60:63:a4:86:df:c5:61:df:93:27:
         d6:8a:5b:68:a6:d0:ef:4a:b8:9c:00:3b:af:c7:db:df:3c:01:
         d0:91:2c:a0:78:61:4b:ad:e1:3c:b5:fa:44:9a:00:0d:92:eb:
         a7:a3:99:46:68:cf:36:e8:83:f0:41:9b:ab:78:d3:1f:1c:e1:
         a1:87:a9:1c:d0:f1:5a:64:f7:91:cf:1e:09:21:d2:21:2e:71:
         d4:a3:91:c7:62:69:51:f3:66:76:b6:95:0c:f7:0b:c2:40:55:
         55:e5:88:c8:c6:11:7e:8d:e9:ed:e8:9a:01:bb:e7:d0:26:08:
         00:b4:ae:02:57:ef:ce:c2:cf:f6:8e:1a:f2:75:68:18:a3:64:
         fb:c3:35:69:e9:e9:f6:9c:5e:dd:55:55:80:42:5a:74:ad:a7:
         cf:40:2f:09:97:ed:69:1d:89:9b:b9:be:d6:20:91:53:67:c6:
         23:fd:7a:c6:bf:a6:ac:85:19:49:7c:12:2f:4d:5d:56:46:1b:
         e8:2e:80:6a:46:99:ff:c0:aa:fd:f6:09:60:6f:b7:5e:ac:7e:
         86:b4:0d:c6:8f:88:8b:fc:4b:1f:fd:7e:f4:28:d3:82:ce:b7:
         90:f0:b3:06:c4:ac:39:4c:8f:70:bf:04:60:4c:90:fc:6c:1b:
         14:64:41:ed:95:82:60:dd
-----BEGIN CERTIFICATE-----
MIIHSDCCBTCgAwIBAgICAeUwDQYJKoZIhvcNAQEFBQAwgbQxCzAJBgNVBAYTAlVT
MQswCQYDVQQIEwJDQTEVMBMGA1UEBxMMU2FuRnJhbmNpc2NvMRUwEwYDVQQKEwxQ
aXhnbG8sIEluYy4xEDAOBgNVBAsTB1ZQTi1DSUUxGjAYBgNVBAMTEXR1bm5lbC5w
aXhnbG8uY29tMRwwGgYDVQQpExNCYWxhIENoYW5kcmFzZWthcmFuMR4wHAYJKoZI
hvcNAQkBFg9iYWxhQHBpeGdsby5jb20wHhcNMTgwMjE0MDYzNTE4WhcNMjgwMjEy
MDYzNTE4WjCBqTELMAkGA1UEBhMCVVMxCzAJBgNVBAgTAkNBMRUwEwYDVQQHEwxT
YW5GcmFuY2lzY28xFTATBgNVBAoTDFBpeGdsbywgSW5jLjEQMA4GA1UECxMHVlBO
LUNJRTEPMA0GA1UEAxMGY2llNDg0MRwwGgYDVQQpExNCYWxhIENoYW5kcmFzZWth
cmFuMR4wHAYJKoZIhvcNAQkBFg9iYWxhQHBpeGdsby5jb20wggIiMA0GCSqGSIb3
DQEBAQUAA4ICDwAwggIKAoICAQDBZigaKmbb8Aq9RkiVBFDzG91LayouKR73msh2
42DCgvgCfnzJ1nKIan0qwVJa6kMkAhNR8wrigjy/qm8xpJw92U80N9FsjulolDBc
1rUkjynYcqzK15V2/5gljevTXCu9hsiLkAU97DU3NJMJCkM2ANMd74nXTFwAL3g+
uCP82LQvGpA70wkI3fIdsdPLoaysST1pL9ciXr3dz19RtkLlAIXMXCx8y00PrbTK
dfximY32AtTVCs0YZ7Cvxz1PZhE9N2kGF7wN0xMnQAttALdj+83DVE6/gQMPi2iz
huEMFlHenGc8D0vz93TMtxv2zNF51e3/vLA/4uoD9mIQsW46F6/1hKe0jjEVj75t
SZcv4V23d22JeGFZqU6zEmnXPkPhQGiY7/XFVhR1O6l9Dk9af6EweURQF1kcx3pV
5AY2MkoEKiPHyZCY5iDF/klv31VVe6Ut5nTVQ486odG/NTyp4gG+MPvobXfWAy2h
TROWlNIwGo26LXW0NXwPjsJk4Nl8BnEZThQY2xJ0e2HXTMqzKrA8td4ECMZYVnp9
jQ8MZRZ5D3K1wrnZAyHXmibLFtaBMYuNeGdI5YP3EKwAKEwDGY87l4GUkSP2gaBB
ZcDI0T4zJjARPObsTdT6if0BMFkJNR7fpRDOrqSKmsAb9GfC4GQ6pJP65c8y5zrP
NSWmRQIDAQABo4IBazCCAWcwCQYDVR0TBAIwADAtBglghkgBhvhCAQ0EIBYeRWFz
eS1SU0EgR2VuZXJhdGVkIENlcnRpZmljYXRlMB0GA1UdDgQWBBQQL1Po/hJxBhLQ
lh5WIKiASsZhVTCB6QYDVR0jBIHhMIHegBTvOI0UUFinW02cF3L837msp1GwEKGB
uqSBtzCBtDELMAkGA1UEBhMCVVMxCzAJBgNVBAgTAkNBMRUwEwYDVQQHEwxTYW5G
cmFuY2lzY28xFTATBgNVBAoTDFBpeGdsbywgSW5jLjEQMA4GA1UECxMHVlBOLUNJ
RTEaMBgGA1UEAxMRdHVubmVsLnBpeGdsby5jb20xHDAaBgNVBCkTE0JhbGEgQ2hh
bmRyYXNla2FyYW4xHjAcBgkqhkiG9w0BCQEWD2JhbGFAcGl4Z2xvLmNvbYIJAKbb
xoOA5qB5MBMGA1UdJQQMMAoGCCsGAQUFBwMCMAsGA1UdDwQEAwIHgDANBgkqhkiG
9w0BAQUFAAOCAgEAO5n2oww8TOiJbacf8b01RxvqNa0U7NlsRIGcreXnunFgIAOy
QGircHJt5VOdx9Zt8FEHoyis8d1aSLuu/8SXy0/uJQmt8RUNCEXf4oC6D3d7rJhd
24cw3uRB9fS83n5N4BROiv0iBS2f8KD2l/RBZ0XSL6XPE/qTvan2WcOwKCWQjAeN
IQgNgDbMbqweed8vVwMAHYgFRPuAbdkUikgxsA8drsjuxbbbeqXKn8ZH0bCAW7De
eSr5MMubDFXPffZ0EzyoMIfJoK0jwxK0aa7H44jVDrES4n+YYU6mZOWcLgUg8DyC
hOut/zfAfbvCHv0DfTiJj9CZlEEG1wyZjd3Qh9tlGstgY6SG38Vh35Mn1opbaKbQ
70q4nAA7r8fb3zwB0JEsoHhhS63hPLX6RJoADZLrp6OZRmjPNuiD8EGbq3jTHxzh
oYepHNDxWmT3kc8eCSHSIS5x1KORx2JpUfNmdraVDPcLwkBVVeWIyMYRfo3p7eia
Abvn0CYIALSuAlfvzsLP9o4a8nVoGKNk+8M1aenp9pxe3VVVgEJadK2nz0AvCZft
aR2Jm7m+1iCRU2fGI/16xr+mrIUZSXwSL01dVkYb6C6AakaZ/8Cq/fYJYG+3Xqx+
hrQNxo+Ii/xLH/1+9CjTgs63kPCzBsSsOUyPcL8EYEyQ/GwbFGRB7ZWCYN0=
-----END CERTIFICATE-----
