Certificate:
    Data:
        Version: 3 (0x2)
        Serial Number: 488 (0x1e8)
    Signature Algorithm: sha1WithRSAEncryption
        Issuer: C=US, ST=CA, L=SanFrancisco, O=Pixglo, Inc., OU=VPN-CIE, CN=tunnel.pixglo.com/name=Bala Chandrasekaran/emailAddress=bala@pixglo.com
        Validity
            Not Before: Feb 14 06:35:21 2018 GMT
            Not After : Feb 12 06:35:21 2028 GMT
        Subject: C=US, ST=CA, L=SanFrancisco, O=Pixglo, Inc., OU=VPN-CIE, CN=cie487/name=Bala Chandrasekaran/emailAddress=bala@pixglo.com
        Subject Public Key Info:
            Public Key Algorithm: rsaEncryption
                Public-Key: (4096 bit)
                Modulus:
                    00:a5:d7:fa:51:8a:dc:ce:17:ea:d3:af:e9:ab:27:
                    23:e4:ef:f1:d2:72:dd:ef:c2:25:1c:5d:55:15:d4:
                    44:d8:92:0b:4f:7a:53:43:63:dd:a2:2b:2a:55:ce:
                    67:a5:ed:1d:30:94:08:8c:e4:e3:00:80:bf:12:a3:
                    9b:8d:42:92:04:62:d5:88:36:b6:60:82:fa:da:7b:
                    61:b9:6b:4b:ff:91:82:c2:0b:5c:24:c6:59:53:65:
                    3c:9b:86:3b:d6:ff:03:3e:e7:54:81:02:51:be:64:
                    ea:ca:34:3e:5b:c5:30:62:b4:9e:53:23:8c:e9:d0:
                    36:e1:f0:c8:d1:7c:16:28:ca:b1:c3:a0:0b:a2:8d:
                    05:db:02:7f:34:5d:50:c7:ad:e6:0c:07:21:94:ea:
                    96:4f:c8:05:c1:19:a7:c8:06:fa:95:35:98:bb:fc:
                    76:64:5e:cf:94:a9:eb:72:e5:10:90:35:ea:e5:c7:
                    81:51:39:24:14:0e:9e:f5:0b:e3:e6:05:bd:3f:58:
                    f4:cb:cc:2e:b1:02:67:c0:52:5a:df:f3:a6:de:3d:
                    12:20:e7:ba:e3:d4:4e:2c:ae:53:36:0f:70:05:52:
                    1e:72:c5:7d:ef:e9:62:92:81:b9:50:6d:c5:10:4d:
                    28:d2:16:50:bf:e2:88:b9:57:2c:a0:f2:36:83:bc:
                    ca:3c:b9:71:f1:e2:bf:76:8f:d1:9c:57:66:e0:35:
                    ac:16:fc:23:d1:fe:33:c4:7a:1c:db:7e:a6:6c:2a:
                    ba:bb:27:7b:4e:6a:fa:05:53:d2:4e:a8:58:cf:ea:
                    1d:43:79:70:20:b8:2f:67:5f:e7:db:d8:c7:bb:16:
                    4f:8c:29:85:4d:4c:10:22:c2:d4:32:c0:13:86:f1:
                    cc:a7:ec:67:8c:c4:30:5a:75:7a:87:46:7b:76:89:
                    f4:b1:c9:ea:eb:c1:a3:93:67:03:3f:6d:f9:bf:77:
                    b1:91:26:0a:02:4f:d2:da:d8:60:6a:b6:12:6d:e9:
                    ca:c7:e2:7c:46:00:67:1a:b6:c7:e3:58:26:60:34:
                    51:19:79:78:c3:3a:63:5f:6f:f5:07:f0:28:41:95:
                    95:23:f1:f2:e2:ed:7c:14:87:13:93:54:05:92:67:
                    10:0b:5f:8c:af:c6:13:f1:3b:6b:75:5a:d3:61:9f:
                    7d:5a:9d:92:e7:a1:b1:41:d0:aa:1b:28:96:eb:25:
                    e9:63:78:ca:58:d1:1f:73:79:60:8a:cc:e4:fc:78:
                    ef:5d:35:2e:88:a8:53:0b:e0:6b:c1:34:2b:5e:4d:
                    ff:61:14:e5:f7:a3:5c:ad:25:17:2b:b4:22:ab:03:
                    fb:cc:3f:11:53:7a:d4:c8:3f:16:f5:59:4d:a1:88:
                    39:fb:3d
                Exponent: 65537 (0x10001)
        X509v3 extensions:
            X509v3 Basic Constraints: 
                CA:FALSE
            Netscape Comment: 
                Easy-RSA Generated Certificate
            X509v3 Subject Key Identifier: 
                3C:BA:73:B3:80:05:71:9E:99:EC:43:19:05:1A:82:58:8A:14:3A:6E
            X509v3 Authority Key Identifier: 
                keyid:EF:38:8D:14:50:58:A7:5B:4D:9C:17:72:FC:DF:B9:AC:A7:51:B0:10
                DirName:/C=US/ST=CA/L=SanFrancisco/O=Pixglo, Inc./OU=VPN-CIE/CN=tunnel.pixglo.com/name=Bala Chandrasekaran/emailAddress=bala@pixglo.com
                serial:A6:DB:C6:83:80:E6:A0:79

            X509v3 Extended Key Usage: 
                TLS Web Client Authentication
            X509v3 Key Usage: 
                Digital Signature
    Signature Algorithm: sha1WithRSAEncryption
         1f:2d:6a:8e:a1:11:35:ec:aa:bd:c1:9a:21:93:1e:56:41:61:
         10:15:c8:c7:f3:03:2c:40:85:00:d9:63:bb:03:f1:8e:9b:d8:
         f6:af:7f:d7:98:83:9a:28:ac:65:c1:5f:74:6a:e6:81:9f:b1:
         de:bf:1f:f7:85:b5:0b:cd:53:e1:ce:67:40:6a:a2:a6:07:16:
         7a:ee:cf:3e:d2:80:19:e2:e5:37:2f:f8:dd:08:3a:03:d3:cd:
         1e:46:c6:d1:7c:cf:80:0f:01:15:bb:12:9c:3e:4f:8d:f5:48:
         92:41:8d:ff:22:cc:7b:1e:64:76:77:a1:7d:5f:32:6d:e8:9f:
         39:42:06:ef:e2:96:57:a2:d8:ad:51:40:fc:bd:c5:f1:81:54:
         2d:b4:11:43:f8:68:65:5a:9b:4a:3a:d6:95:21:26:81:c9:64:
         23:60:f4:8e:94:5f:9f:4f:f4:b1:61:80:20:ec:47:6d:6a:ce:
         73:16:e3:8f:b7:11:8a:aa:f9:10:65:d8:37:fd:7e:cd:15:c6:
         0d:bd:f0:e7:64:aa:83:f2:ed:d1:52:65:3c:7b:0a:16:1b:2f:
         ee:f9:88:b4:c3:46:98:c8:b7:7f:c4:8e:9a:8f:06:a5:d8:d1:
         cb:ef:c2:fb:52:16:58:98:9b:85:bc:f7:6f:2d:77:10:42:53:
         b3:fc:0a:35:61:65:d9:a0:d0:85:55:84:16:cf:b8:57:e8:fa:
         6d:f5:07:32:5f:b1:7f:d1:16:ee:03:8f:0d:0c:0e:a0:c1:d4:
         3c:50:75:c0:6b:96:67:75:d9:88:2e:ca:98:ee:cf:6c:77:d5:
         1a:04:e6:78:f8:a8:0b:78:cf:4d:6f:ad:92:3a:7a:95:f3:eb:
         cd:76:9a:3b:ec:7e:67:f2:01:a6:e4:84:9a:44:1f:2d:c7:de:
         5d:32:c6:52:8f:d1:c9:8b:72:c3:13:56:92:4f:82:d4:ea:c4:
         45:db:6f:96:2b:4d:f0:04:e6:1c:c9:eb:33:18:42:11:2d:9b:
         92:aa:03:f3:13:de:2e:61:0a:89:72:7d:a5:43:3e:17:4c:e5:
         01:94:5f:df:f2:ba:2d:3f:c6:d0:4e:6a:b3:d0:33:be:fc:89:
         c0:e8:da:b3:04:7f:98:60:48:3d:92:13:40:18:0f:51:1d:9b:
         ec:25:c5:e8:6d:84:71:38:c2:0b:16:77:b4:85:c0:06:68:62:
         df:5a:63:76:98:31:b5:73:73:ed:6a:45:59:f3:f1:65:dc:51:
         d1:b5:1a:23:04:1b:fe:06:46:48:e7:11:f2:3b:ad:47:48:28:
         54:4a:a6:ae:4c:1b:5c:5f:80:7d:1f:33:92:a2:19:72:95:46:
         81:6b:23:1c:f4:8a:51:a1
-----BEGIN CERTIFICATE-----
MIIHSDCCBTCgAwIBAgICAegwDQYJKoZIhvcNAQEFBQAwgbQxCzAJBgNVBAYTAlVT
MQswCQYDVQQIEwJDQTEVMBMGA1UEBxMMU2FuRnJhbmNpc2NvMRUwEwYDVQQKEwxQ
aXhnbG8sIEluYy4xEDAOBgNVBAsTB1ZQTi1DSUUxGjAYBgNVBAMTEXR1bm5lbC5w
aXhnbG8uY29tMRwwGgYDVQQpExNCYWxhIENoYW5kcmFzZWthcmFuMR4wHAYJKoZI
hvcNAQkBFg9iYWxhQHBpeGdsby5jb20wHhcNMTgwMjE0MDYzNTIxWhcNMjgwMjEy
MDYzNTIxWjCBqTELMAkGA1UEBhMCVVMxCzAJBgNVBAgTAkNBMRUwEwYDVQQHEwxT
YW5GcmFuY2lzY28xFTATBgNVBAoTDFBpeGdsbywgSW5jLjEQMA4GA1UECxMHVlBO
LUNJRTEPMA0GA1UEAxMGY2llNDg3MRwwGgYDVQQpExNCYWxhIENoYW5kcmFzZWth
cmFuMR4wHAYJKoZIhvcNAQkBFg9iYWxhQHBpeGdsby5jb20wggIiMA0GCSqGSIb3
DQEBAQUAA4ICDwAwggIKAoICAQCl1/pRitzOF+rTr+mrJyPk7/HSct3vwiUcXVUV
1ETYkgtPelNDY92iKypVzmel7R0wlAiM5OMAgL8So5uNQpIEYtWINrZggvrae2G5
a0v/kYLCC1wkxllTZTybhjvW/wM+51SBAlG+ZOrKND5bxTBitJ5TI4zp0Dbh8MjR
fBYoyrHDoAuijQXbAn80XVDHreYMByGU6pZPyAXBGafIBvqVNZi7/HZkXs+Uqety
5RCQNerlx4FROSQUDp71C+PmBb0/WPTLzC6xAmfAUlrf86bePRIg57rj1E4srlM2
D3AFUh5yxX3v6WKSgblQbcUQTSjSFlC/4oi5Vyyg8jaDvMo8uXHx4r92j9GcV2bg
NawW/CPR/jPEehzbfqZsKrq7J3tOavoFU9JOqFjP6h1DeXAguC9nX+fb2Me7Fk+M
KYVNTBAiwtQywBOG8cyn7GeMxDBadXqHRnt2ifSxyerrwaOTZwM/bfm/d7GRJgoC
T9La2GBqthJt6crH4nxGAGcatsfjWCZgNFEZeXjDOmNfb/UH8ChBlZUj8fLi7XwU
hxOTVAWSZxALX4yvxhPxO2t1WtNhn31anZLnobFB0KobKJbrJeljeMpY0R9zeWCK
zOT8eO9dNS6IqFML4GvBNCteTf9hFOX3o1ytJRcrtCKrA/vMPxFTetTIPxb1WU2h
iDn7PQIDAQABo4IBazCCAWcwCQYDVR0TBAIwADAtBglghkgBhvhCAQ0EIBYeRWFz
eS1SU0EgR2VuZXJhdGVkIENlcnRpZmljYXRlMB0GA1UdDgQWBBQ8unOzgAVxnpns
QxkFGoJYihQ6bjCB6QYDVR0jBIHhMIHegBTvOI0UUFinW02cF3L837msp1GwEKGB
uqSBtzCBtDELMAkGA1UEBhMCVVMxCzAJBgNVBAgTAkNBMRUwEwYDVQQHEwxTYW5G
cmFuY2lzY28xFTATBgNVBAoTDFBpeGdsbywgSW5jLjEQMA4GA1UECxMHVlBOLUNJ
RTEaMBgGA1UEAxMRdHVubmVsLnBpeGdsby5jb20xHDAaBgNVBCkTE0JhbGEgQ2hh
bmRyYXNla2FyYW4xHjAcBgkqhkiG9w0BCQEWD2JhbGFAcGl4Z2xvLmNvbYIJAKbb
xoOA5qB5MBMGA1UdJQQMMAoGCCsGAQUFBwMCMAsGA1UdDwQEAwIHgDANBgkqhkiG
9w0BAQUFAAOCAgEAHy1qjqERNeyqvcGaIZMeVkFhEBXIx/MDLECFANljuwPxjpvY
9q9/15iDmiisZcFfdGrmgZ+x3r8f94W1C81T4c5nQGqipgcWeu7PPtKAGeLlNy/4
3Qg6A9PNHkbG0XzPgA8BFbsSnD5PjfVIkkGN/yLMex5kdnehfV8ybeifOUIG7+KW
V6LYrVFA/L3F8YFULbQRQ/hoZVqbSjrWlSEmgclkI2D0jpRfn0/0sWGAIOxHbWrO
cxbjj7cRiqr5EGXYN/1+zRXGDb3w52Sqg/Lt0VJlPHsKFhsv7vmItMNGmMi3f8SO
mo8GpdjRy+/C+1IWWJibhbz3by13EEJTs/wKNWFl2aDQhVWEFs+4V+j6bfUHMl+x
f9EW7gOPDQwOoMHUPFB1wGuWZ3XZiC7KmO7PbHfVGgTmePioC3jPTW+tkjp6lfPr
zXaaO+x+Z/IBpuSEmkQfLcfeXTLGUo/RyYtywxNWkk+C1OrERdtvlitN8ATmHMnr
MxhCES2bkqoD8xPeLmEKiXJ9pUM+F0zlAZRf3/K6LT/G0E5qs9AzvvyJwOjaswR/
mGBIPZITQBgPUR2b7CXF6G2EcTjCCxZ3tIXABmhi31pjdpgxtXNz7WpFWfPxZdxR
0bUaIwQb/gZGSOcR8jutR0goVEqmrkwbXF+AfR8zkqIZcpVGgWsjHPSKUaE=
-----END CERTIFICATE-----
