Certificate:
    Data:
        Version: 3 (0x2)
        Serial Number: 489 (0x1e9)
    Signature Algorithm: sha1WithRSAEncryption
        Issuer: C=US, ST=CA, L=SanFrancisco, O=Pixglo, Inc., OU=VPN-CIE, CN=tunnel.pixglo.com/name=Bala Chandrasekaran/emailAddress=bala@pixglo.com
        Validity
            Not Before: Feb 14 06:35:23 2018 GMT
            Not After : Feb 12 06:35:23 2028 GMT
        Subject: C=US, ST=CA, L=SanFrancisco, O=Pixglo, Inc., OU=VPN-CIE, CN=cie488/name=Bala Chandrasekaran/emailAddress=bala@pixglo.com
        Subject Public Key Info:
            Public Key Algorithm: rsaEncryption
                Public-Key: (4096 bit)
                Modulus:
                    00:b3:4f:04:a8:7d:47:41:ea:45:1b:d0:58:bc:04:
                    9f:37:d5:07:7d:70:a5:b4:84:0f:9b:e8:02:72:fc:
                    d4:0b:e7:8d:01:fc:ed:dc:f4:f7:50:c8:28:d3:01:
                    f2:7e:80:81:97:9d:82:c7:98:51:9a:36:59:97:10:
                    d9:4a:af:66:63:98:ca:ff:ad:00:b5:5f:83:67:08:
                    ea:82:81:0c:77:ea:a1:d8:ff:86:c1:d5:7c:5b:28:
                    b5:7d:93:5c:de:86:a3:ba:9a:46:65:27:f4:30:79:
                    cb:70:7a:e4:79:9c:6f:42:54:7b:e6:bf:ce:d1:fb:
                    8e:d2:ac:de:39:45:1d:c5:f3:11:2c:57:64:d9:aa:
                    5c:b3:ac:09:82:d7:4d:2c:30:16:fb:6f:b0:69:8c:
                    53:d9:38:39:e9:55:84:ca:b1:29:6b:25:0a:a3:37:
                    39:2d:69:e1:eb:ba:06:3e:83:c5:b1:bc:c6:ba:cf:
                    d4:86:8f:d7:c2:25:71:e0:09:90:e1:c3:1a:62:4d:
                    ba:ec:8d:8b:83:36:2a:49:1b:0f:d4:2e:06:de:db:
                    6e:aa:3e:9c:43:13:f0:7b:e2:b1:4e:f6:56:f2:e3:
                    19:2c:9c:2a:86:ac:ca:d1:cf:98:3b:24:9d:a0:5d:
                    92:a9:20:9c:32:80:f2:79:fd:d9:98:cb:55:8a:e5:
                    41:be:8a:ce:e7:e7:80:5f:32:27:89:13:89:df:58:
                    46:94:aa:91:36:8a:11:07:99:dc:b6:1f:6b:f9:05:
                    4f:5e:5f:c6:0d:e4:38:14:2a:03:2d:00:36:1e:45:
                    02:aa:e7:04:d6:67:57:65:84:ec:02:e9:d2:0a:da:
                    b3:a5:8a:6e:36:41:f4:fc:b7:e9:f8:a9:3f:9c:fb:
                    0f:10:64:c8:ae:34:ac:a1:ab:3e:de:2f:41:95:46:
                    7b:9c:09:81:86:54:1b:90:41:6f:43:cf:c2:7b:45:
                    73:de:7f:1d:1a:c8:e2:72:a6:90:36:03:f0:46:2d:
                    74:22:c1:41:6e:49:49:97:1e:7b:6a:5a:54:27:30:
                    19:54:1c:b3:dc:ae:60:18:46:63:64:42:93:03:ee:
                    f8:83:41:4c:5f:db:53:48:68:b2:f5:94:e3:47:ff:
                    cd:d6:b9:16:a7:1b:93:91:63:23:65:00:15:3d:f0:
                    32:6f:2e:be:24:fb:55:69:97:1a:a4:c4:ec:b4:44:
                    e3:ca:f9:57:2a:b5:9c:e6:2c:b7:1c:66:81:6b:ff:
                    98:51:c1:f6:64:df:9b:a4:9b:49:8c:e0:1e:65:7e:
                    6c:c2:b0:93:1b:87:8d:eb:8f:a6:80:b2:b2:bf:3a:
                    8d:33:11:b1:e9:4b:d8:14:a8:7e:e9:d9:07:69:8c:
                    4a:17:f3
                Exponent: 65537 (0x10001)
        X509v3 extensions:
            X509v3 Basic Constraints: 
                CA:FALSE
            Netscape Comment: 
                Easy-RSA Generated Certificate
            X509v3 Subject Key Identifier: 
                F9:23:84:A0:80:94:32:DE:B7:B9:89:BE:77:DB:06:8F:2B:30:B3:52
            X509v3 Authority Key Identifier: 
                keyid:EF:38:8D:14:50:58:A7:5B:4D:9C:17:72:FC:DF:B9:AC:A7:51:B0:10
                DirName:/C=US/ST=CA/L=SanFrancisco/O=Pixglo, Inc./OU=VPN-CIE/CN=tunnel.pixglo.com/name=Bala Chandrasekaran/emailAddress=bala@pixglo.com
                serial:A6:DB:C6:83:80:E6:A0:79

            X509v3 Extended Key Usage: 
                TLS Web Client Authentication
            X509v3 Key Usage: 
                Digital Signature
    Signature Algorithm: sha1WithRSAEncryption
         ad:97:6e:00:1e:84:f5:36:7a:d8:d5:8d:28:c3:56:4a:c7:13:
         2f:18:e2:25:d6:2b:68:6c:9e:15:11:92:91:0d:ba:ac:12:b8:
         9a:2d:b9:87:ab:63:ec:41:9e:64:9f:ef:dd:4c:b2:f4:7c:de:
         b3:62:a2:6e:06:60:66:1f:44:df:67:f3:79:ec:51:82:54:35:
         d4:cc:58:eb:72:50:5d:5a:ae:2f:e7:8b:ba:e3:a3:91:97:57:
         43:94:d2:ef:a9:91:cc:c1:c0:8a:0c:6a:3b:2f:39:14:01:14:
         e1:35:77:dc:71:1b:0b:76:13:1b:d2:65:c0:61:28:39:73:ed:
         c8:08:51:a9:e8:71:25:7f:7f:08:bc:d5:fe:30:73:e3:30:5e:
         05:c0:9c:87:d3:fd:92:0a:21:57:a7:9d:bb:38:b9:bc:38:4f:
         f6:05:86:18:2a:f4:1f:1b:9f:3a:60:73:e9:88:f4:29:41:cf:
         cb:52:85:f2:a9:c0:6f:5d:6e:78:5a:91:c5:2b:ef:4b:02:0e:
         54:7c:51:26:6e:27:8e:93:77:b3:06:57:38:6f:1d:54:9f:06:
         61:df:9f:0d:35:14:6c:1d:ba:18:83:fb:1f:85:fe:c7:05:27:
         d2:0e:61:93:0a:f8:22:10:e4:c0:6d:d7:30:48:db:51:d7:79:
         75:eb:f4:d7:eb:67:0b:b1:e8:ec:b7:dc:d2:0f:95:58:93:0c:
         b7:b0:df:a9:91:ec:4e:83:7e:fb:61:44:97:16:88:36:92:ef:
         e9:0f:1a:28:94:70:75:1e:72:c7:36:b9:02:86:38:0d:a0:e4:
         37:fd:a0:0e:f0:43:eb:b2:bc:4f:fe:17:fc:fc:c5:28:0a:0e:
         fa:80:a0:41:a5:c0:85:5a:1c:17:04:09:37:18:97:93:d1:ad:
         79:f7:23:2e:28:66:98:66:d6:81:4c:62:13:02:c8:b3:5a:3d:
         55:dd:01:17:18:6b:50:cb:b5:82:cf:f9:0c:20:e4:c4:cb:bc:
         1b:90:e4:8f:cd:8d:1c:c4:0d:7e:7a:ca:29:be:45:ff:0b:ab:
         4a:a9:5c:58:3e:1f:0a:f7:b6:10:5d:d4:b4:f3:73:e9:d8:e2:
         86:db:56:e7:cb:d2:98:57:35:4a:06:40:70:83:2b:82:92:16:
         0c:92:24:ef:e8:de:81:c6:0b:1a:1f:f2:c2:3a:f8:5f:7e:11:
         d4:ba:9b:e3:1f:0a:22:23:08:76:7d:7e:51:fd:bc:f1:5f:94:
         aa:1e:b5:87:06:5e:51:56:f0:2e:2c:78:d9:22:a1:91:b5:4a:
         27:dd:e3:d0:73:5b:91:dd:55:b9:76:56:2f:5f:5b:e9:fa:51:
         db:9d:31:0a:e1:50:88:44
-----BEGIN CERTIFICATE-----
MIIHSDCCBTCgAwIBAgICAekwDQYJKoZIhvcNAQEFBQAwgbQxCzAJBgNVBAYTAlVT
MQswCQYDVQQIEwJDQTEVMBMGA1UEBxMMU2FuRnJhbmNpc2NvMRUwEwYDVQQKEwxQ
aXhnbG8sIEluYy4xEDAOBgNVBAsTB1ZQTi1DSUUxGjAYBgNVBAMTEXR1bm5lbC5w
aXhnbG8uY29tMRwwGgYDVQQpExNCYWxhIENoYW5kcmFzZWthcmFuMR4wHAYJKoZI
hvcNAQkBFg9iYWxhQHBpeGdsby5jb20wHhcNMTgwMjE0MDYzNTIzWhcNMjgwMjEy
MDYzNTIzWjCBqTELMAkGA1UEBhMCVVMxCzAJBgNVBAgTAkNBMRUwEwYDVQQHEwxT
YW5GcmFuY2lzY28xFTATBgNVBAoTDFBpeGdsbywgSW5jLjEQMA4GA1UECxMHVlBO
LUNJRTEPMA0GA1UEAxMGY2llNDg4MRwwGgYDVQQpExNCYWxhIENoYW5kcmFzZWth
cmFuMR4wHAYJKoZIhvcNAQkBFg9iYWxhQHBpeGdsby5jb20wggIiMA0GCSqGSIb3
DQEBAQUAA4ICDwAwggIKAoICAQCzTwSofUdB6kUb0Fi8BJ831Qd9cKW0hA+b6AJy
/NQL540B/O3c9PdQyCjTAfJ+gIGXnYLHmFGaNlmXENlKr2ZjmMr/rQC1X4NnCOqC
gQx36qHY/4bB1XxbKLV9k1zehqO6mkZlJ/QwectweuR5nG9CVHvmv87R+47SrN45
RR3F8xEsV2TZqlyzrAmC100sMBb7b7BpjFPZODnpVYTKsSlrJQqjNzktaeHrugY+
g8WxvMa6z9SGj9fCJXHgCZDhwxpiTbrsjYuDNipJGw/ULgbe226qPpxDE/B74rFO
9lby4xksnCqGrMrRz5g7JJ2gXZKpIJwygPJ5/dmYy1WK5UG+is7n54BfMieJE4nf
WEaUqpE2ihEHmdy2H2v5BU9eX8YN5DgUKgMtADYeRQKq5wTWZ1dlhOwC6dIK2rOl
im42QfT8t+n4qT+c+w8QZMiuNKyhqz7eL0GVRnucCYGGVBuQQW9Dz8J7RXPefx0a
yOJyppA2A/BGLXQiwUFuSUmXHntqWlQnMBlUHLPcrmAYRmNkQpMD7viDQUxf21NI
aLL1lONH/83WuRanG5ORYyNlABU98DJvLr4k+1VplxqkxOy0ROPK+VcqtZzmLLcc
ZoFr/5hRwfZk35ukm0mM4B5lfmzCsJMbh43rj6aAsrK/Oo0zEbHpS9gUqH7p2Qdp
jEoX8wIDAQABo4IBazCCAWcwCQYDVR0TBAIwADAtBglghkgBhvhCAQ0EIBYeRWFz
eS1SU0EgR2VuZXJhdGVkIENlcnRpZmljYXRlMB0GA1UdDgQWBBT5I4SggJQy3re5
ib532waPKzCzUjCB6QYDVR0jBIHhMIHegBTvOI0UUFinW02cF3L837msp1GwEKGB
uqSBtzCBtDELMAkGA1UEBhMCVVMxCzAJBgNVBAgTAkNBMRUwEwYDVQQHEwxTYW5G
cmFuY2lzY28xFTATBgNVBAoTDFBpeGdsbywgSW5jLjEQMA4GA1UECxMHVlBOLUNJ
RTEaMBgGA1UEAxMRdHVubmVsLnBpeGdsby5jb20xHDAaBgNVBCkTE0JhbGEgQ2hh
bmRyYXNla2FyYW4xHjAcBgkqhkiG9w0BCQEWD2JhbGFAcGl4Z2xvLmNvbYIJAKbb
xoOA5qB5MBMGA1UdJQQMMAoGCCsGAQUFBwMCMAsGA1UdDwQEAwIHgDANBgkqhkiG
9w0BAQUFAAOCAgEArZduAB6E9TZ62NWNKMNWSscTLxjiJdYraGyeFRGSkQ26rBK4
mi25h6tj7EGeZJ/v3Uyy9Hzes2KibgZgZh9E32fzeexRglQ11MxY63JQXVquL+eL
uuOjkZdXQ5TS76mRzMHAigxqOy85FAEU4TV33HEbC3YTG9JlwGEoOXPtyAhRqehx
JX9/CLzV/jBz4zBeBcCch9P9kgohV6eduzi5vDhP9gWGGCr0HxufOmBz6Yj0KUHP
y1KF8qnAb11ueFqRxSvvSwIOVHxRJm4njpN3swZXOG8dVJ8GYd+fDTUUbB26GIP7
H4X+xwUn0g5hkwr4IhDkwG3XMEjbUdd5dev01+tnC7Ho7Lfc0g+VWJMMt7DfqZHs
ToN++2FElxaINpLv6Q8aKJRwdR5yxza5AoY4DaDkN/2gDvBD67K8T/4X/PzFKAoO
+oCgQaXAhVocFwQJNxiXk9GtefcjLihmmGbWgUxiEwLIs1o9Vd0BFxhrUMu1gs/5
DCDkxMu8G5Dkj82NHMQNfnrKKb5F/wurSqlcWD4fCve2EF3UtPNz6djihttW58vS
mFc1SgZAcIMrgpIWDJIk7+jegcYLGh/ywjr4X34R1Lqb4x8KIiMIdn1+Uf288V+U
qh61hwZeUVbwLix42SKhkbVKJ93j0HNbkd1VuXZWL19b6fpR250xCuFQiEQ=
-----END CERTIFICATE-----
