Certificate:
    Data:
        Version: 3 (0x2)
        Serial Number: 490 (0x1ea)
    Signature Algorithm: sha1WithRSAEncryption
        Issuer: C=US, ST=CA, L=SanFrancisco, O=Pixglo, Inc., OU=VPN-CIE, CN=tunnel.pixglo.com/name=Bala Chandrasekaran/emailAddress=bala@pixglo.com
        Validity
            Not Before: Feb 14 06:35:24 2018 GMT
            Not After : Feb 12 06:35:24 2028 GMT
        Subject: C=US, ST=CA, L=SanFrancisco, O=Pixglo, Inc., OU=VPN-CIE, CN=cie489/name=Bala Chandrasekaran/emailAddress=bala@pixglo.com
        Subject Public Key Info:
            Public Key Algorithm: rsaEncryption
                Public-Key: (4096 bit)
                Modulus:
                    00:c7:0a:f4:08:83:3f:37:4e:af:17:23:f4:2a:c6:
                    b8:00:58:8b:d4:61:94:bb:b9:a5:1b:dd:e0:56:32:
                    f5:87:b6:89:37:81:0f:c9:bf:5c:53:14:f6:ab:dc:
                    21:33:25:2b:67:db:78:fa:3a:5d:4c:72:0b:d6:55:
                    cc:f8:d5:75:2f:ed:dd:70:d4:8f:90:f4:0b:55:02:
                    de:3e:28:04:e5:96:a7:d9:82:4c:bb:23:ae:b0:fa:
                    08:11:b7:65:42:f2:a7:d3:a4:17:38:51:3d:a1:93:
                    82:e3:10:06:56:0a:98:fc:d7:2c:29:88:8b:f2:57:
                    a7:f7:b0:a8:3d:0f:f9:68:48:11:f6:56:35:5d:eb:
                    9f:8e:5e:d3:85:7a:3f:6c:f8:eb:bb:5b:8b:d5:e5:
                    e7:72:5a:22:18:d5:f7:a6:84:23:99:d9:2f:cc:39:
                    fa:bb:45:bd:41:86:ff:c0:3a:2e:30:41:5e:f1:53:
                    2f:17:4b:58:77:fa:e5:5e:ff:04:2a:72:45:9a:35:
                    81:72:4f:3f:5d:d4:51:99:27:1c:73:f4:20:63:33:
                    68:1e:24:e7:e8:65:14:9f:ca:2e:ed:72:16:5a:2a:
                    dc:54:88:5c:17:ae:bd:5b:42:2a:bb:ea:b8:c1:4b:
                    7c:4f:fd:1d:58:7d:03:34:9c:0a:82:07:0d:e6:89:
                    d6:1a:b8:2c:41:36:05:b3:50:9b:e2:2f:d1:e8:80:
                    4d:14:13:02:a8:06:bc:ae:b6:91:7d:5c:7e:8b:88:
                    4d:d8:2d:2d:6d:a4:d9:62:7e:aa:97:7a:a4:20:13:
                    bf:42:b9:a4:be:b2:bb:24:9c:35:a9:3d:a3:fc:6c:
                    43:3a:23:e6:c4:d2:9c:35:6d:e2:16:17:3e:c4:d9:
                    82:91:0e:b6:66:0e:04:0d:69:61:d8:0e:79:4b:2d:
                    ae:40:e1:bd:62:9e:4d:0f:fe:5d:03:af:38:e7:2d:
                    05:41:ce:e4:28:04:15:d3:3b:95:39:52:49:9d:83:
                    df:8e:f0:d4:65:02:1a:6b:93:05:65:b7:33:0b:98:
                    dd:d5:75:dd:e5:6d:2c:91:3e:6f:cd:a7:07:97:0c:
                    4c:02:e3:95:bf:06:33:7b:5c:de:be:a9:59:d5:e2:
                    d5:21:36:f8:03:96:46:4b:05:a0:d6:76:88:55:7c:
                    97:5b:08:dc:a7:d3:fe:41:d6:87:62:da:20:50:3d:
                    7c:db:1e:25:53:e1:ef:cf:90:1f:71:83:0d:63:d8:
                    b7:b6:26:82:2f:a1:2e:7b:b7:a9:13:a9:48:9a:d6:
                    dc:c7:00:1c:e4:99:95:fb:72:5f:8d:c5:11:4d:92:
                    6c:42:e9:34:5f:87:e2:b4:88:92:dc:29:3e:2e:ab:
                    98:6b:ed
                Exponent: 65537 (0x10001)
        X509v3 extensions:
            X509v3 Basic Constraints: 
                CA:FALSE
            Netscape Comment: 
                Easy-RSA Generated Certificate
            X509v3 Subject Key Identifier: 
                F0:FB:6F:C7:B7:20:73:4D:38:68:00:23:B0:8F:CB:C3:EE:88:E9:24
            X509v3 Authority Key Identifier: 
                keyid:EF:38:8D:14:50:58:A7:5B:4D:9C:17:72:FC:DF:B9:AC:A7:51:B0:10
                DirName:/C=US/ST=CA/L=SanFrancisco/O=Pixglo, Inc./OU=VPN-CIE/CN=tunnel.pixglo.com/name=Bala Chandrasekaran/emailAddress=bala@pixglo.com
                serial:A6:DB:C6:83:80:E6:A0:79

            X509v3 Extended Key Usage: 
                TLS Web Client Authentication
            X509v3 Key Usage: 
                Digital Signature
    Signature Algorithm: sha1WithRSAEncryption
         9e:8f:86:bb:1f:84:73:c2:9f:1e:da:39:dc:63:09:52:b8:6a:
         8b:9d:d6:49:86:d0:2c:15:68:04:e7:b8:1a:30:81:d1:2d:05:
         5d:7f:58:30:13:e1:20:9a:61:fd:78:37:3b:f2:23:2c:6d:7e:
         3c:0e:23:87:91:6a:06:6c:cb:a2:3c:ae:fd:ec:b7:e0:08:e0:
         b9:81:c4:62:cd:4e:76:a7:00:6e:be:b5:c1:e9:ed:a3:de:16:
         a9:f5:30:3d:d3:a3:12:b8:0a:3d:c5:74:66:84:8a:fa:cf:e7:
         f2:6a:81:6a:02:60:72:1e:9e:36:94:1f:e9:f7:75:8d:57:23:
         2d:84:86:a9:66:ff:cf:4c:3f:49:c5:91:48:b7:96:4c:6d:31:
         88:45:85:8d:04:69:28:92:b5:8e:69:d8:17:80:55:dd:a8:c9:
         e9:30:0f:8f:61:5c:7f:c1:dd:4f:8c:76:6d:06:f0:ab:d1:fe:
         ca:89:ea:ef:f4:39:3b:9b:fc:fb:94:93:b2:0e:e5:d4:c3:7a:
         54:52:f6:cd:41:9c:fb:2e:5e:01:e7:e7:41:5d:94:f0:3b:24:
         8e:7e:eb:85:86:dc:8b:49:31:d9:1f:12:95:1b:7a:36:1e:f0:
         45:7d:5b:35:51:aa:bc:7b:c4:e3:2c:18:46:55:2f:96:80:d6:
         fd:7b:9f:8e:e2:49:58:2c:5d:73:0b:1f:13:e1:bf:fb:ae:9d:
         03:90:87:1c:4f:74:92:f2:e8:82:f2:8e:bd:5d:b7:61:7c:8f:
         12:12:cd:1f:89:a1:cf:b1:ed:1e:60:97:52:48:8a:1f:8a:42:
         79:0e:73:b5:b9:cd:57:6d:85:df:b2:ae:3f:f9:fb:43:87:94:
         d3:0b:f8:19:79:45:74:0e:57:9a:8c:79:58:7d:14:cb:38:73:
         d3:90:1b:05:76:43:98:0e:7b:fa:55:ec:81:b0:5d:7d:e9:e4:
         a4:66:74:f4:b7:8f:e6:6b:84:1a:d5:22:9b:a1:a9:5f:7e:4d:
         a1:02:42:ad:29:6f:fe:0e:92:15:5d:b3:8d:2a:0c:6a:ce:82:
         48:48:c8:32:59:da:c6:24:80:18:42:25:2d:ae:c1:dd:3d:e1:
         41:55:5a:42:68:6e:f6:b7:52:45:60:17:85:52:27:f5:85:6c:
         a8:e5:70:ac:77:73:18:75:97:d4:4d:0c:c3:d9:dd:26:ff:8b:
         d4:94:9e:9a:67:32:b5:94:66:de:e2:e4:24:f0:c9:b7:f3:6c:
         2f:b4:ee:a2:16:47:09:e4:d5:74:86:f2:82:7b:c1:eb:98:07:
         b9:63:c3:cc:b8:47:c4:43:d2:a2:ac:45:ed:24:cc:9b:de:78:
         2e:bc:16:de:b3:28:12:86
-----BEGIN CERTIFICATE-----
MIIHSDCCBTCgAwIBAgICAeowDQYJKoZIhvcNAQEFBQAwgbQxCzAJBgNVBAYTAlVT
MQswCQYDVQQIEwJDQTEVMBMGA1UEBxMMU2FuRnJhbmNpc2NvMRUwEwYDVQQKEwxQ
aXhnbG8sIEluYy4xEDAOBgNVBAsTB1ZQTi1DSUUxGjAYBgNVBAMTEXR1bm5lbC5w
aXhnbG8uY29tMRwwGgYDVQQpExNCYWxhIENoYW5kcmFzZWthcmFuMR4wHAYJKoZI
hvcNAQkBFg9iYWxhQHBpeGdsby5jb20wHhcNMTgwMjE0MDYzNTI0WhcNMjgwMjEy
MDYzNTI0WjCBqTELMAkGA1UEBhMCVVMxCzAJBgNVBAgTAkNBMRUwEwYDVQQHEwxT
YW5GcmFuY2lzY28xFTATBgNVBAoTDFBpeGdsbywgSW5jLjEQMA4GA1UECxMHVlBO
LUNJRTEPMA0GA1UEAxMGY2llNDg5MRwwGgYDVQQpExNCYWxhIENoYW5kcmFzZWth
cmFuMR4wHAYJKoZIhvcNAQkBFg9iYWxhQHBpeGdsby5jb20wggIiMA0GCSqGSIb3
DQEBAQUAA4ICDwAwggIKAoICAQDHCvQIgz83Tq8XI/QqxrgAWIvUYZS7uaUb3eBW
MvWHtok3gQ/Jv1xTFPar3CEzJStn23j6Ol1McgvWVcz41XUv7d1w1I+Q9AtVAt4+
KATllqfZgky7I66w+ggRt2VC8qfTpBc4UT2hk4LjEAZWCpj81ywpiIvyV6f3sKg9
D/loSBH2VjVd65+OXtOFej9s+Ou7W4vV5edyWiIY1femhCOZ2S/MOfq7Rb1Bhv/A
Oi4wQV7xUy8XS1h3+uVe/wQqckWaNYFyTz9d1FGZJxxz9CBjM2geJOfoZRSfyi7t
chZaKtxUiFwXrr1bQiq76rjBS3xP/R1YfQM0nAqCBw3midYauCxBNgWzUJviL9Ho
gE0UEwKoBryutpF9XH6LiE3YLS1tpNlifqqXeqQgE79CuaS+srsknDWpPaP8bEM6
I+bE0pw1beIWFz7E2YKRDrZmDgQNaWHYDnlLLa5A4b1ink0P/l0DrzjnLQVBzuQo
BBXTO5U5Ukmdg9+O8NRlAhprkwVltzMLmN3Vdd3lbSyRPm/NpweXDEwC45W/BjN7
XN6+qVnV4tUhNvgDlkZLBaDWdohVfJdbCNyn0/5B1odi2iBQPXzbHiVT4e/PkB9x
gw1j2Le2JoIvoS57t6kTqUia1tzHABzkmZX7cl+NxRFNkmxC6TRfh+K0iJLcKT4u
q5hr7QIDAQABo4IBazCCAWcwCQYDVR0TBAIwADAtBglghkgBhvhCAQ0EIBYeRWFz
eS1SU0EgR2VuZXJhdGVkIENlcnRpZmljYXRlMB0GA1UdDgQWBBTw+2/HtyBzTTho
ACOwj8vD7ojpJDCB6QYDVR0jBIHhMIHegBTvOI0UUFinW02cF3L837msp1GwEKGB
uqSBtzCBtDELMAkGA1UEBhMCVVMxCzAJBgNVBAgTAkNBMRUwEwYDVQQHEwxTYW5G
cmFuY2lzY28xFTATBgNVBAoTDFBpeGdsbywgSW5jLjEQMA4GA1UECxMHVlBOLUNJ
RTEaMBgGA1UEAxMRdHVubmVsLnBpeGdsby5jb20xHDAaBgNVBCkTE0JhbGEgQ2hh
bmRyYXNla2FyYW4xHjAcBgkqhkiG9w0BCQEWD2JhbGFAcGl4Z2xvLmNvbYIJAKbb
xoOA5qB5MBMGA1UdJQQMMAoGCCsGAQUFBwMCMAsGA1UdDwQEAwIHgDANBgkqhkiG
9w0BAQUFAAOCAgEAno+Gux+Ec8KfHto53GMJUrhqi53WSYbQLBVoBOe4GjCB0S0F
XX9YMBPhIJph/Xg3O/IjLG1+PA4jh5FqBmzLojyu/ey34AjguYHEYs1OdqcAbr61
wento94WqfUwPdOjErgKPcV0ZoSK+s/n8mqBagJgch6eNpQf6fd1jVcjLYSGqWb/
z0w/ScWRSLeWTG0xiEWFjQRpKJK1jmnYF4BV3ajJ6TAPj2Fcf8HdT4x2bQbwq9H+
yonq7/Q5O5v8+5STsg7l1MN6VFL2zUGc+y5eAefnQV2U8Dskjn7rhYbci0kx2R8S
lRt6Nh7wRX1bNVGqvHvE4ywYRlUvloDW/XufjuJJWCxdcwsfE+G/+66dA5CHHE90
kvLogvKOvV23YXyPEhLNH4mhz7HtHmCXUkiKH4pCeQ5ztbnNV22F37KuP/n7Q4eU
0wv4GXlFdA5Xmox5WH0Uyzhz05AbBXZDmA57+lXsgbBdfenkpGZ09LeP5muEGtUi
m6GpX35NoQJCrSlv/g6SFV2zjSoMas6CSEjIMlnaxiSAGEIlLa7B3T3hQVVaQmhu
9rdSRWAXhVIn9YVsqOVwrHdzGHWX1E0Mw9ndJv+L1JSemmcytZRm3uLkJPDJt/Ns
L7TuohZHCeTVdIbygnvB65gHuWPDzLhHxEPSoqxF7STMm954LrwW3rMoEoY=
-----END CERTIFICATE-----
