Certificate:
    Data:
        Version: 3 (0x2)
        Serial Number: 491 (0x1eb)
    Signature Algorithm: sha1WithRSAEncryption
        Issuer: C=US, ST=CA, L=SanFrancisco, O=Pixglo, Inc., OU=VPN-CIE, CN=tunnel.pixglo.com/name=Bala Chandrasekaran/emailAddress=bala@pixglo.com
        Validity
            Not Before: Feb 14 06:35:25 2018 GMT
            Not After : Feb 12 06:35:25 2028 GMT
        Subject: C=US, ST=CA, L=SanFrancisco, O=Pixglo, Inc., OU=VPN-CIE, CN=cie490/name=Bala Chandrasekaran/emailAddress=bala@pixglo.com
        Subject Public Key Info:
            Public Key Algorithm: rsaEncryption
                Public-Key: (4096 bit)
                Modulus:
                    00:b2:bf:9e:aa:54:ad:22:c0:e1:d9:bf:44:37:3b:
                    0a:14:96:21:92:df:a2:67:12:12:b1:25:a9:8b:55:
                    26:3b:f9:ac:75:de:90:d0:8b:84:e0:85:4a:88:b9:
                    18:5b:2d:5f:72:6b:1b:a0:94:43:01:36:6c:27:76:
                    72:d9:a0:32:f8:34:9d:31:34:bc:9d:49:90:58:40:
                    0f:51:cc:54:92:30:ba:88:c0:99:ed:bd:89:0d:2e:
                    39:73:97:70:6c:7c:ec:b9:f8:b7:e3:b5:f0:64:c1:
                    f0:85:68:62:25:ab:c8:6c:fb:b1:d4:10:ae:59:6a:
                    4a:af:93:c9:c5:11:1f:f4:7d:d1:e1:ca:cb:97:b1:
                    07:4b:39:e0:9d:d9:98:90:0f:95:6f:61:5e:8c:a4:
                    7c:15:2e:c9:eb:7b:6d:f9:fa:c5:0d:42:05:41:40:
                    0c:24:fb:85:08:c9:12:1c:97:8e:21:13:b4:2f:72:
                    a3:32:e3:5c:64:79:87:7e:f5:08:4e:dc:e3:a8:ae:
                    26:9d:41:78:99:a6:56:27:60:0e:b9:5b:9f:03:36:
                    97:09:4b:1e:4d:c4:91:38:de:cb:aa:96:16:66:5f:
                    33:de:c3:87:2c:a7:37:3f:fe:45:65:ed:99:9e:14:
                    40:c2:45:33:58:40:aa:63:79:31:42:44:f5:a9:64:
                    22:b0:d6:4d:6b:8e:3b:9a:d5:a1:d2:75:d9:21:95:
                    86:f8:00:51:3b:c4:1c:43:2c:e8:a3:52:27:74:c0:
                    1c:3c:c8:16:8b:1f:f9:bc:d0:1d:8f:14:b5:2e:ee:
                    09:5c:52:3a:e9:9b:d5:28:b3:2b:4f:3e:8e:f9:43:
                    9f:4f:7d:3c:7a:d3:b2:06:73:21:1f:f0:df:b2:fe:
                    1e:7a:aa:a8:9e:d0:11:57:76:52:49:e4:5b:e4:6f:
                    c5:d9:ee:b5:1e:73:54:b9:21:cb:60:b0:c1:61:9d:
                    84:57:53:b6:a5:db:3c:82:c3:20:fd:24:a5:a5:80:
                    15:43:8c:63:f1:51:48:23:58:e0:7d:f4:68:37:5e:
                    de:1e:9e:59:28:1a:78:eb:4a:49:44:82:86:c3:7c:
                    93:47:59:c3:f9:8c:2b:bf:db:84:d7:49:d3:58:55:
                    2d:22:33:f1:bd:b5:89:de:92:72:d6:a0:c7:ba:cc:
                    00:2c:fb:07:ed:60:47:41:e5:cf:c0:87:f5:26:1c:
                    94:36:ac:84:34:cf:21:78:04:9b:22:84:0a:1d:d5:
                    0b:79:18:72:fa:1d:3f:70:15:f9:46:fc:06:2f:9e:
                    34:d5:9f:63:2d:6d:a7:b2:7f:02:c9:18:23:3a:f1:
                    84:63:51:2d:e4:4b:f1:94:70:83:21:49:49:66:35:
                    a0:f1:f9
                Exponent: 65537 (0x10001)
        X509v3 extensions:
            X509v3 Basic Constraints: 
                CA:FALSE
            Netscape Comment: 
                Easy-RSA Generated Certificate
            X509v3 Subject Key Identifier: 
                A2:B6:2F:02:AE:B2:0D:22:B6:07:56:85:48:6A:42:A9:A0:6A:99:57
            X509v3 Authority Key Identifier: 
                keyid:EF:38:8D:14:50:58:A7:5B:4D:9C:17:72:FC:DF:B9:AC:A7:51:B0:10
                DirName:/C=US/ST=CA/L=SanFrancisco/O=Pixglo, Inc./OU=VPN-CIE/CN=tunnel.pixglo.com/name=Bala Chandrasekaran/emailAddress=bala@pixglo.com
                serial:A6:DB:C6:83:80:E6:A0:79

            X509v3 Extended Key Usage: 
                TLS Web Client Authentication
            X509v3 Key Usage: 
                Digital Signature
    Signature Algorithm: sha1WithRSAEncryption
         e3:ef:a2:1b:f4:8c:b7:d0:ec:a7:06:48:97:1c:2c:fa:d0:97:
         b3:6b:b7:7d:59:fc:9b:29:7c:d3:9d:d3:64:31:13:18:eb:ca:
         ba:79:c9:4e:bd:48:1e:e6:cc:35:83:af:9c:55:2e:dd:79:59:
         7e:f4:19:2e:dc:02:43:4d:a8:5b:83:83:d8:30:99:6a:7d:d1:
         fe:0f:82:44:88:b0:fb:8f:bc:24:bf:bb:92:21:95:bc:ca:a6:
         7a:ed:d2:c3:75:0d:a1:f8:0d:72:a9:24:6b:48:3e:39:ce:9a:
         38:fd:fe:d3:f9:cb:0d:d5:36:ac:1f:15:4c:11:d4:5f:78:d1:
         c3:06:0f:cb:40:9d:be:b6:c3:6c:31:c8:75:49:13:0c:05:55:
         25:7c:ec:eb:fa:38:62:6c:a3:4e:b2:78:e2:77:e8:ca:7e:a5:
         e7:ef:b6:0d:62:44:7f:1f:8a:20:e1:f5:dc:90:17:e9:dd:cf:
         04:bf:55:9e:1d:90:0c:3c:be:f1:d8:d5:d1:41:92:8f:8a:44:
         8e:ee:5d:22:b2:5c:af:9f:10:f1:c0:c1:79:fc:93:0d:42:88:
         88:7d:ac:8d:a3:eb:c0:65:14:1b:d9:be:3c:de:e3:6a:6a:28:
         8d:bd:95:66:f6:9e:1d:3d:6e:2a:2d:53:a7:c0:e2:e4:b4:a7:
         00:c9:d1:0a:a9:02:87:e0:2e:28:c7:fe:2f:b5:4f:3f:66:90:
         fb:3d:5b:d1:eb:9a:f6:43:1c:19:66:5e:62:46:1d:63:98:b0:
         63:c8:2e:60:22:91:e7:26:b8:53:ab:a9:4c:e4:07:1f:59:f7:
         71:dd:11:9a:4c:d0:e2:b2:4c:ed:46:ee:91:4f:28:67:ad:f2:
         c0:98:df:b1:77:7d:94:8c:c9:1c:29:3b:12:bc:5e:7a:4d:c8:
         fa:12:b9:7b:e0:8b:64:84:df:61:0f:8c:b1:87:d0:4d:b5:c4:
         b3:e3:94:8b:15:b2:38:12:8f:fd:16:66:f3:54:ed:6d:77:73:
         dc:d0:9a:2a:c4:77:7b:bb:8f:b1:9e:60:0c:7c:e2:fe:1c:f7:
         40:81:21:05:21:30:14:86:a7:73:5d:08:94:ac:fb:27:62:cf:
         3d:1d:51:ab:3c:91:d1:f2:6e:8a:30:25:75:bf:81:d7:52:0c:
         52:3e:f3:5f:d1:ec:3b:b9:0b:49:6b:be:14:05:3f:70:e0:ab:
         90:bb:d4:ff:88:9c:d8:94:d8:0b:81:88:c7:3b:60:84:fe:4f:
         b2:dd:bc:68:92:75:d7:f4:1c:b1:71:d5:9c:0c:64:95:1f:60:
         23:82:9d:f0:80:14:1e:2d:6d:41:22:73:ea:65:cf:e1:b5:9e:
         0c:f8:08:78:20:ba:58:79
-----BEGIN CERTIFICATE-----
MIIHSDCCBTCgAwIBAgICAeswDQYJKoZIhvcNAQEFBQAwgbQxCzAJBgNVBAYTAlVT
MQswCQYDVQQIEwJDQTEVMBMGA1UEBxMMU2FuRnJhbmNpc2NvMRUwEwYDVQQKEwxQ
aXhnbG8sIEluYy4xEDAOBgNVBAsTB1ZQTi1DSUUxGjAYBgNVBAMTEXR1bm5lbC5w
aXhnbG8uY29tMRwwGgYDVQQpExNCYWxhIENoYW5kcmFzZWthcmFuMR4wHAYJKoZI
hvcNAQkBFg9iYWxhQHBpeGdsby5jb20wHhcNMTgwMjE0MDYzNTI1WhcNMjgwMjEy
MDYzNTI1WjCBqTELMAkGA1UEBhMCVVMxCzAJBgNVBAgTAkNBMRUwEwYDVQQHEwxT
YW5GcmFuY2lzY28xFTATBgNVBAoTDFBpeGdsbywgSW5jLjEQMA4GA1UECxMHVlBO
LUNJRTEPMA0GA1UEAxMGY2llNDkwMRwwGgYDVQQpExNCYWxhIENoYW5kcmFzZWth
cmFuMR4wHAYJKoZIhvcNAQkBFg9iYWxhQHBpeGdsby5jb20wggIiMA0GCSqGSIb3
DQEBAQUAA4ICDwAwggIKAoICAQCyv56qVK0iwOHZv0Q3OwoUliGS36JnEhKxJamL
VSY7+ax13pDQi4TghUqIuRhbLV9yaxuglEMBNmwndnLZoDL4NJ0xNLydSZBYQA9R
zFSSMLqIwJntvYkNLjlzl3BsfOy5+LfjtfBkwfCFaGIlq8hs+7HUEK5Zakqvk8nF
ER/0fdHhysuXsQdLOeCd2ZiQD5VvYV6MpHwVLsnre235+sUNQgVBQAwk+4UIyRIc
l44hE7QvcqMy41xkeYd+9QhO3OOoriadQXiZplYnYA65W58DNpcJSx5NxJE43suq
lhZmXzPew4cspzc//kVl7ZmeFEDCRTNYQKpjeTFCRPWpZCKw1k1rjjua1aHSddkh
lYb4AFE7xBxDLOijUid0wBw8yBaLH/m80B2PFLUu7glcUjrpm9UosytPPo75Q59P
fTx607IGcyEf8N+y/h56qqie0BFXdlJJ5Fvkb8XZ7rUec1S5IctgsMFhnYRXU7al
2zyCwyD9JKWlgBVDjGPxUUgjWOB99Gg3Xt4enlkoGnjrSklEgobDfJNHWcP5jCu/
24TXSdNYVS0iM/G9tYneknLWoMe6zAAs+wftYEdB5c/Ah/UmHJQ2rIQ0zyF4BJsi
hAod1Qt5GHL6HT9wFflG/AYvnjTVn2MtbaeyfwLJGCM68YRjUS3kS/GUcIMhSUlm
NaDx+QIDAQABo4IBazCCAWcwCQYDVR0TBAIwADAtBglghkgBhvhCAQ0EIBYeRWFz
eS1SU0EgR2VuZXJhdGVkIENlcnRpZmljYXRlMB0GA1UdDgQWBBSiti8CrrINIrYH
VoVIakKpoGqZVzCB6QYDVR0jBIHhMIHegBTvOI0UUFinW02cF3L837msp1GwEKGB
uqSBtzCBtDELMAkGA1UEBhMCVVMxCzAJBgNVBAgTAkNBMRUwEwYDVQQHEwxTYW5G
cmFuY2lzY28xFTATBgNVBAoTDFBpeGdsbywgSW5jLjEQMA4GA1UECxMHVlBOLUNJ
RTEaMBgGA1UEAxMRdHVubmVsLnBpeGdsby5jb20xHDAaBgNVBCkTE0JhbGEgQ2hh
bmRyYXNla2FyYW4xHjAcBgkqhkiG9w0BCQEWD2JhbGFAcGl4Z2xvLmNvbYIJAKbb
xoOA5qB5MBMGA1UdJQQMMAoGCCsGAQUFBwMCMAsGA1UdDwQEAwIHgDANBgkqhkiG
9w0BAQUFAAOCAgEA4++iG/SMt9DspwZIlxws+tCXs2u3fVn8myl8053TZDETGOvK
unnJTr1IHubMNYOvnFUu3XlZfvQZLtwCQ02oW4OD2DCZan3R/g+CRIiw+4+8JL+7
kiGVvMqmeu3Sw3UNofgNcqkka0g+Oc6aOP3+0/nLDdU2rB8VTBHUX3jRwwYPy0Cd
vrbDbDHIdUkTDAVVJXzs6/o4YmyjTrJ44nfoyn6l5++2DWJEfx+KIOH13JAX6d3P
BL9Vnh2QDDy+8djV0UGSj4pEju5dIrJcr58Q8cDBefyTDUKIiH2sjaPrwGUUG9m+
PN7jamoojb2VZvaeHT1uKi1Tp8Di5LSnAMnRCqkCh+AuKMf+L7VPP2aQ+z1b0eua
9kMcGWZeYkYdY5iwY8guYCKR5ya4U6upTOQHH1n3cd0RmkzQ4rJM7UbukU8oZ63y
wJjfsXd9lIzJHCk7Erxeek3I+hK5e+CLZITfYQ+MsYfQTbXEs+OUixWyOBKP/RZm
81TtbXdz3NCaKsR3e7uPsZ5gDHzi/hz3QIEhBSEwFIanc10IlKz7J2LPPR1RqzyR
0fJuijAldb+B11IMUj7zX9HsO7kLSWu+FAU/cOCrkLvU/4ic2JTYC4GIxztghP5P
st28aJJ11/QcsXHVnAxklR9gI4Kd8IAUHi1tQSJz6mXP4bWeDPgIeCC6WHk=
-----END CERTIFICATE-----
