Certificate:
    Data:
        Version: 3 (0x2)
        Serial Number: 492 (0x1ec)
    Signature Algorithm: sha1WithRSAEncryption
        Issuer: C=US, ST=CA, L=SanFrancisco, O=Pixglo, Inc., OU=VPN-CIE, CN=tunnel.pixglo.com/name=Bala Chandrasekaran/emailAddress=bala@pixglo.com
        Validity
            Not Before: Feb 14 06:35:26 2018 GMT
            Not After : Feb 12 06:35:26 2028 GMT
        Subject: C=US, ST=CA, L=SanFrancisco, O=Pixglo, Inc., OU=VPN-CIE, CN=cie491/name=Bala Chandrasekaran/emailAddress=bala@pixglo.com
        Subject Public Key Info:
            Public Key Algorithm: rsaEncryption
                Public-Key: (4096 bit)
                Modulus:
                    00:ba:ae:73:59:6b:db:93:a9:c6:6e:e5:a5:76:dc:
                    1d:62:98:79:78:4d:73:55:49:e5:43:79:63:82:6e:
                    3a:ab:cc:1b:04:7d:a6:be:26:a9:8a:e9:78:5b:fd:
                    8c:b5:4e:3d:7f:fd:5c:a8:ce:15:7d:f6:73:5a:e1:
                    c9:cc:dd:d9:80:05:d2:d3:64:37:31:a3:0c:38:80:
                    dc:4f:49:eb:09:8a:e4:ea:63:78:34:fa:04:8b:1f:
                    e4:77:a7:8f:c8:92:f5:d1:4c:4c:ed:f8:fb:87:d5:
                    5e:a8:ce:e5:7f:2f:01:2e:b5:fe:cd:24:3f:f3:93:
                    a3:0a:f0:13:3d:36:eb:87:74:77:52:c3:50:be:a3:
                    9e:be:d2:b8:2e:7c:93:8e:d7:ba:81:a7:6a:ec:89:
                    e0:50:07:8f:67:44:7c:ac:81:9d:b5:a2:f7:0c:45:
                    6c:2b:fc:d8:e8:22:be:b6:4b:52:19:80:5e:15:46:
                    ff:f5:21:2f:d1:ce:10:f3:cc:3c:2c:82:dd:2c:14:
                    4e:d6:59:73:78:81:9b:e9:1c:9a:ef:e6:7a:e1:76:
                    f8:20:95:11:1f:95:dc:2b:3b:e0:3b:9a:0a:b2:ca:
                    2e:35:95:7b:b3:22:49:7a:75:77:07:eb:5c:cb:ad:
                    4d:f0:09:43:73:38:c4:cb:95:ee:04:99:c2:2e:80:
                    29:cb:5c:a0:13:bf:dd:59:f4:0a:10:7d:65:c3:be:
                    04:82:c5:df:ab:14:47:93:26:87:7c:cf:9f:78:dd:
                    ed:a8:6b:76:ad:d9:8f:37:ac:e4:0a:71:01:50:db:
                    4d:e5:6c:57:37:21:1d:18:1b:44:a0:cc:21:aa:a9:
                    7c:a9:d4:a3:96:f7:f7:c0:e4:38:ac:30:d0:99:a1:
                    a5:f8:2d:74:04:7d:c7:b9:ad:2e:36:f3:9e:ba:98:
                    0c:ce:56:99:e8:5d:c0:50:5c:a6:97:d5:6d:56:7d:
                    58:00:f6:c7:1f:dd:bb:c8:3a:16:ee:d5:b5:ac:27:
                    fc:45:af:3a:eb:33:4a:36:50:6b:6c:fb:db:ec:7a:
                    9a:e9:5b:28:3c:7e:a5:7a:a7:a7:79:99:76:74:25:
                    d0:b5:4a:58:3a:fc:50:59:79:7e:8e:ca:a1:30:d4:
                    5e:9f:36:ae:3b:41:a6:02:28:b9:4a:df:fe:ba:a8:
                    8d:f3:b0:04:d0:9e:47:e0:3d:1e:88:c2:b0:2d:9e:
                    59:ba:64:b0:75:6b:bc:0c:df:4b:4a:ab:cd:20:09:
                    f7:98:09:5f:d6:40:89:07:51:fa:4a:5e:54:53:7d:
                    b3:90:6a:73:74:b4:47:27:7f:57:cd:7e:ca:88:5f:
                    b1:01:75:aa:9f:cb:53:c7:d4:07:ba:b5:ed:06:bb:
                    df:48:89
                Exponent: 65537 (0x10001)
        X509v3 extensions:
            X509v3 Basic Constraints: 
                CA:FALSE
            Netscape Comment: 
                Easy-RSA Generated Certificate
            X509v3 Subject Key Identifier: 
                94:A0:91:F0:AC:6C:2E:20:BD:6F:9E:F0:5B:2F:CB:F4:DA:48:1A:C6
            X509v3 Authority Key Identifier: 
                keyid:EF:38:8D:14:50:58:A7:5B:4D:9C:17:72:FC:DF:B9:AC:A7:51:B0:10
                DirName:/C=US/ST=CA/L=SanFrancisco/O=Pixglo, Inc./OU=VPN-CIE/CN=tunnel.pixglo.com/name=Bala Chandrasekaran/emailAddress=bala@pixglo.com
                serial:A6:DB:C6:83:80:E6:A0:79

            X509v3 Extended Key Usage: 
                TLS Web Client Authentication
            X509v3 Key Usage: 
                Digital Signature
    Signature Algorithm: sha1WithRSAEncryption
         93:2a:40:fb:d6:f1:d8:0d:f1:a9:fc:ce:48:11:d2:1a:c0:0a:
         2d:a8:a6:fb:db:88:40:76:5e:75:aa:ca:4c:83:2e:e5:9b:37:
         96:18:5e:23:d3:d8:79:3a:20:9a:ec:05:bb:0b:22:3f:f4:da:
         d9:8e:03:d3:51:eb:ed:37:ef:99:1d:48:34:29:0f:fe:df:30:
         e7:95:60:66:a0:34:1f:a0:2c:47:ca:39:b4:fa:63:b8:54:01:
         d7:de:48:81:51:e1:7a:34:1e:b7:8b:5e:a4:99:cd:85:c5:fc:
         33:85:f8:b8:94:42:67:d8:04:67:fe:33:b7:27:17:89:79:57:
         8f:3a:cb:43:37:60:4c:0d:53:4d:f1:4f:1b:64:bc:9f:45:bf:
         c5:09:63:64:58:83:bd:42:1b:0f:a7:00:75:2b:60:8d:1a:23:
         c5:0d:8a:6c:f7:a9:10:6c:44:58:19:ba:26:d5:a9:f2:e0:20:
         ef:c5:52:9e:75:0e:62:de:b6:10:9a:3f:b8:96:58:da:e5:2c:
         da:e5:eb:79:06:ff:00:0e:a6:0f:15:2c:32:5b:b5:b1:e9:f9:
         a1:09:6c:a7:0c:d2:37:58:5a:4c:e4:1c:24:03:eb:cf:95:7a:
         ed:ed:9c:e9:11:a5:4d:72:4a:b0:29:f7:0b:fc:92:af:73:d4:
         45:73:1b:12:0b:92:9b:39:d6:0b:48:29:80:72:07:c6:e5:0c:
         bd:c6:90:a1:94:e4:1a:6d:d5:17:b5:77:cf:e7:28:db:1b:f0:
         96:11:b6:03:65:07:25:4a:ef:de:14:b8:5e:cb:58:17:37:79:
         77:f6:76:35:88:0e:fb:40:a1:5d:22:17:d1:3a:c5:85:9b:54:
         9c:c8:cf:e2:48:51:47:c1:36:17:50:91:54:9c:70:f0:9c:68:
         03:94:f3:8b:a4:8d:a6:1e:25:bd:7e:af:a1:72:d2:3b:7d:b1:
         80:00:dd:cb:a8:53:bb:58:94:e9:0c:38:f6:d5:36:43:2d:f1:
         1a:a0:5b:f4:29:3f:3b:7d:24:f3:15:a0:eb:b8:89:12:a5:06:
         80:8a:d1:e8:37:fc:0f:6f:7e:bb:02:9d:58:f0:fa:26:01:c3:
         e0:ea:46:69:14:73:6e:31:19:c5:59:97:65:58:61:3d:ef:46:
         71:87:66:b5:db:3d:0b:52:77:39:43:c6:77:e1:01:57:21:b5:
         fa:cd:a0:65:03:fa:19:39:ed:37:d6:96:2f:1e:e8:e3:6b:9b:
         6e:d7:dd:c7:e5:b0:b6:46:2b:66:e5:9d:fd:67:af:55:6b:c0:
         34:94:60:01:8c:fa:4f:58:12:40:41:58:d9:3d:ee:c8:aa:ba:
         67:f4:29:ee:7a:6c:a7:8c
-----BEGIN CERTIFICATE-----
MIIHSDCCBTCgAwIBAgICAewwDQYJKoZIhvcNAQEFBQAwgbQxCzAJBgNVBAYTAlVT
MQswCQYDVQQIEwJDQTEVMBMGA1UEBxMMU2FuRnJhbmNpc2NvMRUwEwYDVQQKEwxQ
aXhnbG8sIEluYy4xEDAOBgNVBAsTB1ZQTi1DSUUxGjAYBgNVBAMTEXR1bm5lbC5w
aXhnbG8uY29tMRwwGgYDVQQpExNCYWxhIENoYW5kcmFzZWthcmFuMR4wHAYJKoZI
hvcNAQkBFg9iYWxhQHBpeGdsby5jb20wHhcNMTgwMjE0MDYzNTI2WhcNMjgwMjEy
MDYzNTI2WjCBqTELMAkGA1UEBhMCVVMxCzAJBgNVBAgTAkNBMRUwEwYDVQQHEwxT
YW5GcmFuY2lzY28xFTATBgNVBAoTDFBpeGdsbywgSW5jLjEQMA4GA1UECxMHVlBO
LUNJRTEPMA0GA1UEAxMGY2llNDkxMRwwGgYDVQQpExNCYWxhIENoYW5kcmFzZWth
cmFuMR4wHAYJKoZIhvcNAQkBFg9iYWxhQHBpeGdsby5jb20wggIiMA0GCSqGSIb3
DQEBAQUAA4ICDwAwggIKAoICAQC6rnNZa9uTqcZu5aV23B1imHl4TXNVSeVDeWOC
bjqrzBsEfaa+JqmK6Xhb/Yy1Tj1//VyozhV99nNa4cnM3dmABdLTZDcxoww4gNxP
SesJiuTqY3g0+gSLH+R3p4/IkvXRTEzt+PuH1V6ozuV/LwEutf7NJD/zk6MK8BM9
NuuHdHdSw1C+o56+0rgufJOO17qBp2rsieBQB49nRHysgZ21ovcMRWwr/NjoIr62
S1IZgF4VRv/1IS/RzhDzzDwsgt0sFE7WWXN4gZvpHJrv5nrhdvgglREfldwrO+A7
mgqyyi41lXuzIkl6dXcH61zLrU3wCUNzOMTLle4EmcIugCnLXKATv91Z9AoQfWXD
vgSCxd+rFEeTJod8z5943e2oa3at2Y83rOQKcQFQ203lbFc3IR0YG0SgzCGqqXyp
1KOW9/fA5DisMNCZoaX4LXQEfce5rS428566mAzOVpnoXcBQXKaX1W1WfVgA9scf
3bvIOhbu1bWsJ/xFrzrrM0o2UGts+9vseprpWyg8fqV6p6d5mXZ0JdC1Slg6/FBZ
eX6OyqEw1F6fNq47QaYCKLlK3/66qI3zsATQnkfgPR6IwrAtnlm6ZLB1a7wM30tK
q80gCfeYCV/WQIkHUfpKXlRTfbOQanN0tEcnf1fNfsqIX7EBdaqfy1PH1Ae6te0G
u99IiQIDAQABo4IBazCCAWcwCQYDVR0TBAIwADAtBglghkgBhvhCAQ0EIBYeRWFz
eS1SU0EgR2VuZXJhdGVkIENlcnRpZmljYXRlMB0GA1UdDgQWBBSUoJHwrGwuIL1v
nvBbL8v02kgaxjCB6QYDVR0jBIHhMIHegBTvOI0UUFinW02cF3L837msp1GwEKGB
uqSBtzCBtDELMAkGA1UEBhMCVVMxCzAJBgNVBAgTAkNBMRUwEwYDVQQHEwxTYW5G
cmFuY2lzY28xFTATBgNVBAoTDFBpeGdsbywgSW5jLjEQMA4GA1UECxMHVlBOLUNJ
RTEaMBgGA1UEAxMRdHVubmVsLnBpeGdsby5jb20xHDAaBgNVBCkTE0JhbGEgQ2hh
bmRyYXNla2FyYW4xHjAcBgkqhkiG9w0BCQEWD2JhbGFAcGl4Z2xvLmNvbYIJAKbb
xoOA5qB5MBMGA1UdJQQMMAoGCCsGAQUFBwMCMAsGA1UdDwQEAwIHgDANBgkqhkiG
9w0BAQUFAAOCAgEAkypA+9bx2A3xqfzOSBHSGsAKLaim+9uIQHZedarKTIMu5Zs3
lhheI9PYeTogmuwFuwsiP/Ta2Y4D01Hr7TfvmR1INCkP/t8w55VgZqA0H6AsR8o5
tPpjuFQB195IgVHhejQet4tepJnNhcX8M4X4uJRCZ9gEZ/4ztycXiXlXjzrLQzdg
TA1TTfFPG2S8n0W/xQljZFiDvUIbD6cAdStgjRojxQ2KbPepEGxEWBm6JtWp8uAg
78VSnnUOYt62EJo/uJZY2uUs2uXreQb/AA6mDxUsMlu1sen5oQlspwzSN1haTOQc
JAPrz5V67e2c6RGlTXJKsCn3C/ySr3PURXMbEguSmznWC0gpgHIHxuUMvcaQoZTk
Gm3VF7V3z+co2xvwlhG2A2UHJUrv3hS4XstYFzd5d/Z2NYgO+0ChXSIX0TrFhZtU
nMjP4khRR8E2F1CRVJxw8JxoA5Tzi6SNph4lvX6voXLSO32xgADdy6hTu1iU6Qw4
9tU2Qy3xGqBb9Ck/O30k8xWg67iJEqUGgIrR6Df8D29+uwKdWPD6JgHD4OpGaRRz
bjEZxVmXZVhhPe9GcYdmtds9C1J3OUPGd+EBVyG1+s2gZQP6GTntN9aWLx7o42ub
btfdx+WwtkYrZuWd/WevVWvANJRgAYz6T1gSQEFY2T3uyKq6Z/Qp7npsp4w=
-----END CERTIFICATE-----
