Certificate:
    Data:
        Version: 3 (0x2)
        Serial Number: 493 (0x1ed)
    Signature Algorithm: sha1WithRSAEncryption
        Issuer: C=US, ST=CA, L=SanFrancisco, O=Pixglo, Inc., OU=VPN-CIE, CN=tunnel.pixglo.com/name=Bala Chandrasekaran/emailAddress=bala@pixglo.com
        Validity
            Not Before: Feb 14 06:35:28 2018 GMT
            Not After : Feb 12 06:35:28 2028 GMT
        Subject: C=US, ST=CA, L=SanFrancisco, O=Pixglo, Inc., OU=VPN-CIE, CN=cie492/name=Bala Chandrasekaran/emailAddress=bala@pixglo.com
        Subject Public Key Info:
            Public Key Algorithm: rsaEncryption
                Public-Key: (4096 bit)
                Modulus:
                    00:b2:ac:f6:36:b5:e3:11:b7:1f:03:ce:da:64:25:
                    34:e9:cf:9f:0c:c5:00:11:47:5a:81:28:6f:30:d3:
                    e2:d1:97:59:13:e6:03:20:ff:3e:82:e3:a7:13:a1:
                    68:0d:83:73:33:fa:e9:66:66:f9:cb:13:7e:98:86:
                    d6:c0:f1:81:00:bc:49:12:41:9f:a1:30:d7:09:10:
                    07:da:ce:35:b9:0d:b1:5a:0d:6c:9b:f1:67:d2:95:
                    62:86:fe:05:10:3a:03:f0:8b:8b:23:ac:3d:91:85:
                    14:86:70:81:e7:4d:9c:e9:68:20:ce:d5:bc:e0:30:
                    1c:5a:0d:38:72:6f:40:4d:d4:2b:f9:1a:14:c6:11:
                    44:64:3f:50:5f:86:8c:a6:a7:66:31:95:30:89:cb:
                    26:39:76:3f:64:16:23:e8:30:85:3a:da:72:c3:df:
                    9a:c4:d6:a1:83:fc:84:6d:b6:5f:24:e8:f1:a9:d3:
                    4d:89:fd:2f:94:b9:13:21:e5:52:5a:b9:ad:e5:34:
                    40:e4:10:fb:0b:29:c9:6d:28:0b:07:f4:21:10:6b:
                    e8:4f:bd:63:ea:6a:ec:03:73:7a:c3:5c:e5:b7:4d:
                    10:27:bf:df:54:fc:86:0f:69:91:99:49:41:fa:e7:
                    15:eb:a7:db:ca:cc:d5:c9:a5:51:61:54:f5:72:61:
                    3b:86:69:c0:cf:29:19:11:e7:40:7c:2f:6a:bc:23:
                    c1:e6:2f:a6:7a:32:aa:08:71:84:91:f0:d6:3d:c2:
                    d1:50:f0:2f:5d:6c:db:d4:8f:05:d8:e6:b3:52:60:
                    cc:53:09:a5:16:0f:05:7f:4d:de:ac:65:b5:53:a0:
                    8d:73:7f:49:88:74:59:52:f6:b7:df:d7:37:32:9f:
                    6f:34:da:c0:d3:a3:dd:7e:22:b5:da:e6:0d:4e:0e:
                    36:18:cf:fd:70:d3:ae:7e:0f:97:12:29:b4:b3:95:
                    57:67:5b:85:dd:cd:b3:31:37:b5:51:ce:cd:7d:37:
                    4b:3c:6b:f3:bb:d6:22:a5:2b:b5:eb:0c:4d:89:f7:
                    b9:84:89:5d:5a:9b:56:fd:39:d3:a5:98:91:11:f3:
                    c4:7b:eb:0f:35:72:8a:a9:3b:90:07:02:f5:69:1e:
                    05:b5:b3:2a:b4:d9:df:b2:10:17:2a:5b:2a:bb:18:
                    3d:68:a8:bf:90:a3:10:9c:3f:26:38:aa:a3:1a:bb:
                    01:3e:e3:6c:b2:bf:8f:22:d7:78:3b:33:c8:fd:41:
                    ab:59:cf:27:a1:bd:10:65:40:cf:9f:20:bd:d9:69:
                    3e:01:8a:58:c7:b1:fc:9b:4d:2d:c4:2c:2b:ed:e6:
                    4b:f5:1c:0b:04:2e:a9:0c:d4:7f:c5:28:29:b1:af:
                    00:cf:83
                Exponent: 65537 (0x10001)
        X509v3 extensions:
            X509v3 Basic Constraints: 
                CA:FALSE
            Netscape Comment: 
                Easy-RSA Generated Certificate
            X509v3 Subject Key Identifier: 
                94:19:EF:F0:8B:06:69:7B:5F:AB:8F:4B:FC:26:5B:CB:B4:68:9D:87
            X509v3 Authority Key Identifier: 
                keyid:EF:38:8D:14:50:58:A7:5B:4D:9C:17:72:FC:DF:B9:AC:A7:51:B0:10
                DirName:/C=US/ST=CA/L=SanFrancisco/O=Pixglo, Inc./OU=VPN-CIE/CN=tunnel.pixglo.com/name=Bala Chandrasekaran/emailAddress=bala@pixglo.com
                serial:A6:DB:C6:83:80:E6:A0:79

            X509v3 Extended Key Usage: 
                TLS Web Client Authentication
            X509v3 Key Usage: 
                Digital Signature
    Signature Algorithm: sha1WithRSAEncryption
         c7:04:4e:9c:97:92:d5:92:66:44:9c:12:8b:aa:c5:e8:a1:ea:
         94:d1:bb:72:4e:41:f7:cd:f9:eb:f1:fe:36:cb:cd:0b:4b:81:
         18:cb:f9:69:14:7e:2d:84:d0:1a:2a:0a:85:b2:82:6d:81:dc:
         a4:9a:d0:d3:fe:83:5a:b1:12:b3:e0:65:95:33:a1:a8:2a:72:
         b8:55:a4:19:a0:cc:c9:3c:36:fa:fe:c5:41:a2:cb:be:6c:d3:
         66:91:e1:d0:48:f1:ae:b0:fb:83:7b:c7:6f:74:75:c8:1a:3f:
         fe:4e:5c:fa:ad:fd:66:83:82:8c:66:21:f2:f6:30:12:3e:5e:
         f6:fe:78:82:91:9f:9d:1a:ac:32:4f:78:5b:db:69:a7:e4:0c:
         c2:bb:98:df:65:89:38:40:1f:8c:65:bb:ed:58:8d:87:2c:19:
         48:82:2c:a4:d8:07:d7:5a:88:f0:ce:d4:b8:16:33:07:13:b2:
         40:cf:63:fa:1f:b3:b2:31:0d:6c:76:0e:62:4b:cf:09:6e:3b:
         58:3d:bf:d2:8c:81:cc:91:2d:08:09:d2:bd:a5:03:e7:7b:11:
         26:3c:fa:3c:32:ef:ca:59:06:15:de:32:35:a0:f9:6b:76:bc:
         79:7e:04:04:17:c7:e4:c8:30:48:05:0a:3c:8d:46:9a:f0:c3:
         d4:fd:98:a3:66:dd:cc:6a:06:f7:ff:9c:b9:13:cf:2b:11:c8:
         ec:b7:85:1e:61:51:d2:51:50:98:8b:cf:8c:96:ae:3a:30:13:
         bf:5b:70:70:84:94:29:aa:5e:0f:3c:f1:cd:2d:8d:a8:ca:a6:
         0f:6b:12:79:3a:b5:36:ca:7b:91:b8:86:83:75:76:0e:e0:83:
         4f:da:1d:20:da:32:21:1e:2b:ea:71:f5:55:23:4c:0c:45:b0:
         66:43:0b:bb:a1:c9:61:ba:58:6d:60:c7:18:bd:36:4f:06:7b:
         ba:17:04:57:3b:7e:9a:f9:dc:7f:68:33:2f:84:79:39:2c:12:
         63:64:c5:64:cd:f1:b5:65:6c:09:b6:05:01:00:8c:b3:4e:25:
         75:dd:08:69:b6:8b:be:d7:3a:6d:06:46:b0:af:1e:d1:59:92:
         2e:da:71:fd:78:16:5a:6a:72:c2:ef:c7:fa:9b:7d:cd:6b:ae:
         5b:18:d1:88:6e:58:db:9e:20:93:0d:39:36:7a:42:50:28:5b:
         cb:5a:9c:cf:25:d6:5f:f3:95:ca:d2:5b:af:c4:03:25:90:8f:
         14:7b:25:62:b6:0a:aa:77:2f:60:30:59:6c:58:ea:93:5c:cb:
         4e:ef:e1:e5:5d:bd:80:da:06:32:e3:c5:c7:0e:cc:c2:aa:0e:
         e8:f9:50:cd:1a:8d:a1:f2
-----BEGIN CERTIFICATE-----
MIIHSDCCBTCgAwIBAgICAe0wDQYJKoZIhvcNAQEFBQAwgbQxCzAJBgNVBAYTAlVT
MQswCQYDVQQIEwJDQTEVMBMGA1UEBxMMU2FuRnJhbmNpc2NvMRUwEwYDVQQKEwxQ
aXhnbG8sIEluYy4xEDAOBgNVBAsTB1ZQTi1DSUUxGjAYBgNVBAMTEXR1bm5lbC5w
aXhnbG8uY29tMRwwGgYDVQQpExNCYWxhIENoYW5kcmFzZWthcmFuMR4wHAYJKoZI
hvcNAQkBFg9iYWxhQHBpeGdsby5jb20wHhcNMTgwMjE0MDYzNTI4WhcNMjgwMjEy
MDYzNTI4WjCBqTELMAkGA1UEBhMCVVMxCzAJBgNVBAgTAkNBMRUwEwYDVQQHEwxT
YW5GcmFuY2lzY28xFTATBgNVBAoTDFBpeGdsbywgSW5jLjEQMA4GA1UECxMHVlBO
LUNJRTEPMA0GA1UEAxMGY2llNDkyMRwwGgYDVQQpExNCYWxhIENoYW5kcmFzZWth
cmFuMR4wHAYJKoZIhvcNAQkBFg9iYWxhQHBpeGdsby5jb20wggIiMA0GCSqGSIb3
DQEBAQUAA4ICDwAwggIKAoICAQCyrPY2teMRtx8DztpkJTTpz58MxQARR1qBKG8w
0+LRl1kT5gMg/z6C46cToWgNg3Mz+ulmZvnLE36YhtbA8YEAvEkSQZ+hMNcJEAfa
zjW5DbFaDWyb8WfSlWKG/gUQOgPwi4sjrD2RhRSGcIHnTZzpaCDO1bzgMBxaDThy
b0BN1Cv5GhTGEURkP1Bfhoymp2YxlTCJyyY5dj9kFiPoMIU62nLD35rE1qGD/IRt
tl8k6PGp002J/S+UuRMh5VJaua3lNEDkEPsLKcltKAsH9CEQa+hPvWPqauwDc3rD
XOW3TRAnv99U/IYPaZGZSUH65xXrp9vKzNXJpVFhVPVyYTuGacDPKRkR50B8L2q8
I8HmL6Z6MqoIcYSR8NY9wtFQ8C9dbNvUjwXY5rNSYMxTCaUWDwV/Td6sZbVToI1z
f0mIdFlS9rff1zcyn2802sDTo91+IrXa5g1ODjYYz/1w065+D5cSKbSzlVdnW4Xd
zbMxN7VRzs19N0s8a/O71iKlK7XrDE2J97mEiV1am1b9OdOlmJER88R76w81coqp
O5AHAvVpHgW1syq02d+yEBcqWyq7GD1oqL+QoxCcPyY4qqMauwE+42yyv48i13g7
M8j9QatZzyehvRBlQM+fIL3ZaT4BiljHsfybTS3ELCvt5kv1HAsELqkM1H/FKCmx
rwDPgwIDAQABo4IBazCCAWcwCQYDVR0TBAIwADAtBglghkgBhvhCAQ0EIBYeRWFz
eS1SU0EgR2VuZXJhdGVkIENlcnRpZmljYXRlMB0GA1UdDgQWBBSUGe/wiwZpe1+r
j0v8JlvLtGidhzCB6QYDVR0jBIHhMIHegBTvOI0UUFinW02cF3L837msp1GwEKGB
uqSBtzCBtDELMAkGA1UEBhMCVVMxCzAJBgNVBAgTAkNBMRUwEwYDVQQHEwxTYW5G
cmFuY2lzY28xFTATBgNVBAoTDFBpeGdsbywgSW5jLjEQMA4GA1UECxMHVlBOLUNJ
RTEaMBgGA1UEAxMRdHVubmVsLnBpeGdsby5jb20xHDAaBgNVBCkTE0JhbGEgQ2hh
bmRyYXNla2FyYW4xHjAcBgkqhkiG9w0BCQEWD2JhbGFAcGl4Z2xvLmNvbYIJAKbb
xoOA5qB5MBMGA1UdJQQMMAoGCCsGAQUFBwMCMAsGA1UdDwQEAwIHgDANBgkqhkiG
9w0BAQUFAAOCAgEAxwROnJeS1ZJmRJwSi6rF6KHqlNG7ck5B98356/H+NsvNC0uB
GMv5aRR+LYTQGioKhbKCbYHcpJrQ0/6DWrESs+BllTOhqCpyuFWkGaDMyTw2+v7F
QaLLvmzTZpHh0EjxrrD7g3vHb3R1yBo//k5c+q39ZoOCjGYh8vYwEj5e9v54gpGf
nRqsMk94W9tpp+QMwruY32WJOEAfjGW77ViNhywZSIIspNgH11qI8M7UuBYzBxOy
QM9j+h+zsjENbHYOYkvPCW47WD2/0oyBzJEtCAnSvaUD53sRJjz6PDLvylkGFd4y
NaD5a3a8eX4EBBfH5MgwSAUKPI1GmvDD1P2Yo2bdzGoG9/+cuRPPKxHI7LeFHmFR
0lFQmIvPjJauOjATv1twcISUKapeDzzxzS2NqMqmD2sSeTq1Nsp7kbiGg3V2DuCD
T9odINoyIR4r6nH1VSNMDEWwZkMLu6HJYbpYbWDHGL02TwZ7uhcEVzt+mvncf2gz
L4R5OSwSY2TFZM3xtWVsCbYFAQCMs04ldd0IabaLvtc6bQZGsK8e0VmSLtpx/XgW
Wmpywu/H+pt9zWuuWxjRiG5Y254gkw05NnpCUChby1qczyXWX/OVytJbr8QDJZCP
FHslYrYKqncvYDBZbFjqk1zLTu/h5V29gNoGMuPFxw7MwqoO6PlQzRqNofI=
-----END CERTIFICATE-----
