Certificate:
    Data:
        Version: 3 (0x2)
        Serial Number: 495 (0x1ef)
    Signature Algorithm: sha1WithRSAEncryption
        Issuer: C=US, ST=CA, L=SanFrancisco, O=Pixglo, Inc., OU=VPN-CIE, CN=tunnel.pixglo.com/name=Bala Chandrasekaran/emailAddress=bala@pixglo.com
        Validity
            Not Before: Feb 14 06:35:33 2018 GMT
            Not After : Feb 12 06:35:33 2028 GMT
        Subject: C=US, ST=CA, L=SanFrancisco, O=Pixglo, Inc., OU=VPN-CIE, CN=cie494/name=Bala Chandrasekaran/emailAddress=bala@pixglo.com
        Subject Public Key Info:
            Public Key Algorithm: rsaEncryption
                Public-Key: (4096 bit)
                Modulus:
                    00:c0:5a:3c:64:6a:4d:b0:3d:aa:bb:39:dd:84:43:
                    59:a1:db:54:25:50:f8:92:f2:da:88:af:c9:4c:46:
                    71:d0:65:fb:53:41:65:0b:37:36:15:d0:20:26:a6:
                    d8:01:c0:40:23:a6:12:89:34:9f:63:1f:67:07:e7:
                    e2:56:67:7c:ec:ab:9f:82:29:49:ed:0c:c4:e0:74:
                    84:ed:3b:1a:d4:62:5f:93:e2:2a:e8:aa:0c:c7:44:
                    80:9a:88:e6:e5:d5:1f:d8:6e:33:51:13:0c:11:55:
                    eb:04:c7:92:7a:49:78:63:75:0b:f8:f9:8c:3c:81:
                    e4:af:e3:49:eb:fa:87:b1:87:7d:2e:d2:42:50:b8:
                    bf:b6:6d:c9:b0:df:c9:16:5a:3a:95:50:e6:3a:b7:
                    07:5f:56:9d:99:40:ab:e2:6f:94:52:8c:2b:bc:e4:
                    a8:c5:a0:17:83:a0:7c:1c:bb:cf:f5:5c:6f:3b:b9:
                    91:5c:2e:ce:ca:3e:db:72:65:d3:02:9c:72:25:ec:
                    ae:25:0d:44:7f:d2:9e:2b:a0:28:c9:bc:78:18:c4:
                    78:82:21:78:04:8a:46:94:da:36:a3:bb:f5:eb:39:
                    df:03:0e:a9:a9:62:dd:b0:e7:cc:74:b8:7e:6d:64:
                    32:64:80:6a:90:c5:64:c8:e8:1f:68:36:d1:a2:77:
                    87:f5:3e:8f:72:27:d6:12:51:9d:40:28:10:64:ea:
                    53:31:91:e4:60:91:b3:7e:b8:1a:45:80:5a:cd:e9:
                    8b:25:cc:63:fb:9a:c1:72:30:42:9e:b8:ca:15:34:
                    ac:28:d8:4a:2b:ae:7c:58:9a:fa:52:f5:e1:fe:f5:
                    8a:ae:2a:d2:a6:77:3d:60:c2:1c:d8:3c:fe:d4:8c:
                    a1:01:8b:74:27:68:41:a9:fb:dd:2d:e7:7d:0e:38:
                    c9:e8:2e:10:42:d5:d0:db:35:a5:64:82:85:50:c8:
                    c5:5c:b0:68:21:b5:b9:b8:22:7b:70:e9:67:7f:b3:
                    8b:c8:ec:17:65:fb:e8:11:fc:79:3e:9d:8e:73:7b:
                    33:a6:b4:9f:11:0f:cd:4b:98:8b:ae:25:7f:98:44:
                    fb:0e:ba:c9:f0:bd:df:d5:6d:e3:cf:b3:bd:4a:e5:
                    65:7a:08:83:19:9a:e1:c2:f1:4e:58:a1:99:4b:0e:
                    88:d8:94:6c:97:68:9e:2a:2d:df:13:45:ca:54:3d:
                    9b:1b:05:17:b9:85:0b:7f:36:f1:f7:11:84:ff:da:
                    fd:1a:92:8c:d4:20:13:3b:8a:ce:5a:e9:7e:be:c3:
                    4f:ed:a1:d5:00:0b:98:c9:dc:ab:98:c3:49:3b:a3:
                    8e:a5:ae:ed:44:5f:af:26:f1:25:68:08:b3:08:fc:
                    cd:56:d7
                Exponent: 65537 (0x10001)
        X509v3 extensions:
            X509v3 Basic Constraints: 
                CA:FALSE
            Netscape Comment: 
                Easy-RSA Generated Certificate
            X509v3 Subject Key Identifier: 
                16:F7:1D:DC:60:FA:65:B4:42:FC:A9:62:FC:31:AC:17:41:A5:D4:66
            X509v3 Authority Key Identifier: 
                keyid:EF:38:8D:14:50:58:A7:5B:4D:9C:17:72:FC:DF:B9:AC:A7:51:B0:10
                DirName:/C=US/ST=CA/L=SanFrancisco/O=Pixglo, Inc./OU=VPN-CIE/CN=tunnel.pixglo.com/name=Bala Chandrasekaran/emailAddress=bala@pixglo.com
                serial:A6:DB:C6:83:80:E6:A0:79

            X509v3 Extended Key Usage: 
                TLS Web Client Authentication
            X509v3 Key Usage: 
                Digital Signature
    Signature Algorithm: sha1WithRSAEncryption
         91:d0:1f:9e:55:b4:6f:9e:51:57:9e:71:c0:3b:48:a1:c8:cc:
         5c:1e:c2:92:ed:80:d3:c3:96:0b:e1:25:36:67:fa:a6:1a:0a:
         4f:82:b0:0d:51:10:d4:4e:8b:b4:88:4c:7a:13:cd:27:3b:99:
         ca:7f:e3:db:d9:b5:c4:68:db:97:39:5f:26:22:96:48:15:f4:
         de:23:6f:4a:49:f7:9a:ea:d4:d1:d8:d4:f6:6e:55:c9:97:20:
         b2:e6:4b:fb:c3:67:4c:28:bf:f2:34:14:80:cb:5f:7e:e2:fe:
         b6:52:7a:a7:51:c4:92:c7:a0:88:47:cd:12:cc:f6:78:81:6b:
         cf:30:81:c6:39:03:31:2c:cc:b2:2c:9b:f0:1f:ac:ab:60:0d:
         7a:f2:7a:2d:22:d4:fa:e3:29:74:fd:09:fe:af:06:74:f9:2b:
         8e:e5:48:a3:06:9b:57:ce:d4:e5:3e:27:ec:2a:ec:de:ec:99:
         30:37:a1:2d:31:27:19:59:53:4c:5d:46:d3:22:9d:19:fb:47:
         41:05:f3:03:8c:90:69:d9:3f:b0:74:9e:b1:08:e1:2b:fa:10:
         08:90:72:4b:31:79:bc:bc:09:f1:9f:db:04:84:47:0f:cb:86:
         88:a3:e0:6d:8c:67:0b:8f:b4:e4:28:fb:48:bf:86:66:b3:a0:
         a4:b9:9d:11:db:4f:dd:d7:2d:0c:04:4c:8c:75:02:3e:a4:b9:
         7f:73:ae:3c:a8:ac:ca:64:4d:25:3b:85:a6:55:2a:10:01:4d:
         20:87:4b:a5:1a:cd:ed:7e:7c:62:db:d2:f1:5f:57:c4:5b:a2:
         84:cf:de:41:42:22:41:ea:41:97:a0:bc:d1:37:59:07:93:44:
         89:f5:28:d3:03:84:f9:8a:6f:b4:4e:38:59:c1:9c:40:4b:0f:
         ff:b9:71:76:29:64:e6:1a:8b:06:7d:54:49:51:b0:24:42:12:
         83:f3:3f:72:9c:f6:88:85:98:e6:2c:ea:cb:45:9e:f9:e1:41:
         34:6f:72:48:14:9e:63:a0:8b:86:84:7b:81:21:06:57:34:f8:
         57:bd:23:03:94:dc:1e:c5:e1:87:a6:4a:32:48:9b:3a:7c:46:
         ef:ae:f4:47:85:af:51:e8:1c:98:c8:37:b3:4f:f7:b6:e6:63:
         3e:b5:4f:7e:0e:8e:18:42:55:c5:0f:e9:27:89:09:39:cc:6b:
         c8:53:16:39:8e:92:9b:35:70:ee:98:ee:f0:ff:7c:f0:5c:a8:
         5b:eb:e3:b2:d6:91:30:f7:a3:76:4e:14:1a:42:c6:e7:79:f6:
         a0:f3:03:5e:54:e8:0f:b7:2c:0a:31:51:b9:2a:af:05:23:20:
         1b:08:e8:ca:83:2d:b7:b0
-----BEGIN CERTIFICATE-----
MIIHSDCCBTCgAwIBAgICAe8wDQYJKoZIhvcNAQEFBQAwgbQxCzAJBgNVBAYTAlVT
MQswCQYDVQQIEwJDQTEVMBMGA1UEBxMMU2FuRnJhbmNpc2NvMRUwEwYDVQQKEwxQ
aXhnbG8sIEluYy4xEDAOBgNVBAsTB1ZQTi1DSUUxGjAYBgNVBAMTEXR1bm5lbC5w
aXhnbG8uY29tMRwwGgYDVQQpExNCYWxhIENoYW5kcmFzZWthcmFuMR4wHAYJKoZI
hvcNAQkBFg9iYWxhQHBpeGdsby5jb20wHhcNMTgwMjE0MDYzNTMzWhcNMjgwMjEy
MDYzNTMzWjCBqTELMAkGA1UEBhMCVVMxCzAJBgNVBAgTAkNBMRUwEwYDVQQHEwxT
YW5GcmFuY2lzY28xFTATBgNVBAoTDFBpeGdsbywgSW5jLjEQMA4GA1UECxMHVlBO
LUNJRTEPMA0GA1UEAxMGY2llNDk0MRwwGgYDVQQpExNCYWxhIENoYW5kcmFzZWth
cmFuMR4wHAYJKoZIhvcNAQkBFg9iYWxhQHBpeGdsby5jb20wggIiMA0GCSqGSIb3
DQEBAQUAA4ICDwAwggIKAoICAQDAWjxkak2wPaq7Od2EQ1mh21QlUPiS8tqIr8lM
RnHQZftTQWULNzYV0CAmptgBwEAjphKJNJ9jH2cH5+JWZ3zsq5+CKUntDMTgdITt
OxrUYl+T4iroqgzHRICaiObl1R/YbjNREwwRVesEx5J6SXhjdQv4+Yw8geSv40nr
+oexh30u0kJQuL+2bcmw38kWWjqVUOY6twdfVp2ZQKvib5RSjCu85KjFoBeDoHwc
u8/1XG87uZFcLs7KPttyZdMCnHIl7K4lDUR/0p4roCjJvHgYxHiCIXgEikaU2jaj
u/XrOd8DDqmpYt2w58x0uH5tZDJkgGqQxWTI6B9oNtGid4f1Po9yJ9YSUZ1AKBBk
6lMxkeRgkbN+uBpFgFrN6YslzGP7msFyMEKeuMoVNKwo2EorrnxYmvpS9eH+9Yqu
KtKmdz1gwhzYPP7UjKEBi3QnaEGp+90t530OOMnoLhBC1dDbNaVkgoVQyMVcsGgh
tbm4Intw6Wd/s4vI7Bdl++gR/Hk+nY5zezOmtJ8RD81LmIuuJX+YRPsOusnwvd/V
bePPs71K5WV6CIMZmuHC8U5YoZlLDojYlGyXaJ4qLd8TRcpUPZsbBRe5hQt/NvH3
EYT/2v0akozUIBM7is5a6X6+w0/todUAC5jJ3KuYw0k7o46lru1EX68m8SVoCLMI
/M1W1wIDAQABo4IBazCCAWcwCQYDVR0TBAIwADAtBglghkgBhvhCAQ0EIBYeRWFz
eS1SU0EgR2VuZXJhdGVkIENlcnRpZmljYXRlMB0GA1UdDgQWBBQW9x3cYPpltEL8
qWL8MawXQaXUZjCB6QYDVR0jBIHhMIHegBTvOI0UUFinW02cF3L837msp1GwEKGB
uqSBtzCBtDELMAkGA1UEBhMCVVMxCzAJBgNVBAgTAkNBMRUwEwYDVQQHEwxTYW5G
cmFuY2lzY28xFTATBgNVBAoTDFBpeGdsbywgSW5jLjEQMA4GA1UECxMHVlBOLUNJ
RTEaMBgGA1UEAxMRdHVubmVsLnBpeGdsby5jb20xHDAaBgNVBCkTE0JhbGEgQ2hh
bmRyYXNla2FyYW4xHjAcBgkqhkiG9w0BCQEWD2JhbGFAcGl4Z2xvLmNvbYIJAKbb
xoOA5qB5MBMGA1UdJQQMMAoGCCsGAQUFBwMCMAsGA1UdDwQEAwIHgDANBgkqhkiG
9w0BAQUFAAOCAgEAkdAfnlW0b55RV55xwDtIocjMXB7Cku2A08OWC+ElNmf6phoK
T4KwDVEQ1E6LtIhMehPNJzuZyn/j29m1xGjblzlfJiKWSBX03iNvSkn3murU0djU
9m5VyZcgsuZL+8NnTCi/8jQUgMtffuL+tlJ6p1HEksegiEfNEsz2eIFrzzCBxjkD
MSzMsiyb8B+sq2ANevJ6LSLU+uMpdP0J/q8GdPkrjuVIowabV87U5T4n7Crs3uyZ
MDehLTEnGVlTTF1G0yKdGftHQQXzA4yQadk/sHSesQjhK/oQCJBySzF5vLwJ8Z/b
BIRHD8uGiKPgbYxnC4+05Cj7SL+GZrOgpLmdEdtP3dctDARMjHUCPqS5f3OuPKis
ymRNJTuFplUqEAFNIIdLpRrN7X58YtvS8V9XxFuihM/eQUIiQepBl6C80TdZB5NE
ifUo0wOE+YpvtE44WcGcQEsP/7lxdilk5hqLBn1USVGwJEISg/M/cpz2iIWY5izq
y0We+eFBNG9ySBSeY6CLhoR7gSEGVzT4V70jA5TcHsXhh6ZKMkibOnxG7670R4Wv
UegcmMg3s0/3tuZjPrVPfg6OGEJVxQ/pJ4kJOcxryFMWOY6SmzVw7pju8P988Fyo
W+vjstaRMPejdk4UGkLG53n2oPMDXlToD7csCjFRuSqvBSMgGwjoyoMtt7A=
-----END CERTIFICATE-----
