Certificate:
    Data:
        Version: 3 (0x2)
        Serial Number: 504 (0x1f8)
    Signature Algorithm: sha1WithRSAEncryption
        Issuer: C=US, ST=CA, L=SanFrancisco, O=Pixglo, Inc., OU=VPN-CIE, CN=tunnel.pixglo.com/name=Bala Chandrasekaran/emailAddress=bala@pixglo.com
        Validity
            Not Before: Feb 14 06:35:47 2018 GMT
            Not After : Feb 12 06:35:47 2028 GMT
        Subject: C=US, ST=CA, L=SanFrancisco, O=Pixglo, Inc., OU=VPN-CIE, CN=cie503/name=Bala Chandrasekaran/emailAddress=bala@pixglo.com
        Subject Public Key Info:
            Public Key Algorithm: rsaEncryption
                Public-Key: (4096 bit)
                Modulus:
                    00:fb:0c:36:45:19:05:d4:17:66:e3:c0:e3:c2:d1:
                    bb:c7:85:22:ae:39:38:49:3a:4e:21:17:7a:2b:6f:
                    1a:ac:74:c9:59:d3:3c:d4:a6:c3:7e:71:77:d4:77:
                    c9:00:77:21:64:09:32:01:e8:26:88:f6:de:e6:60:
                    f6:9e:cd:a8:8e:ee:91:94:4b:ad:87:e9:56:fc:1b:
                    3b:33:55:e8:6a:ab:9f:69:db:17:bf:e3:46:ec:11:
                    47:7c:e2:32:e9:c0:10:51:98:88:90:24:2f:0f:e8:
                    be:de:e6:d4:d5:78:5a:3e:6f:8f:b9:ab:de:0b:6e:
                    f9:96:e3:60:bc:bb:37:03:59:ed:89:84:fc:61:dd:
                    86:55:09:84:3a:bb:fd:16:ab:12:2d:4e:37:8b:1a:
                    35:e6:52:da:14:70:cb:d9:4b:cc:9c:37:82:66:89:
                    27:e0:7d:68:9d:a0:9f:57:c3:6f:86:bf:dc:9c:d3:
                    dc:0e:8d:51:3b:6e:29:d3:a8:36:ce:5b:b0:49:98:
                    db:27:d4:9e:84:10:c0:d8:1a:55:77:ba:d1:ab:37:
                    10:a3:ed:94:0e:c4:af:2d:57:8c:ff:8c:9e:72:26:
                    50:bc:55:cd:1a:8f:36:28:9b:06:e3:74:b0:55:ab:
                    88:a1:09:87:0b:1c:cc:52:1d:34:3a:80:19:5b:3c:
                    1b:99:1b:f7:ca:c5:83:95:9b:a1:ea:d7:ea:f2:2b:
                    09:c1:80:31:10:1b:a6:91:ed:d4:62:4a:f6:69:c1:
                    b0:b7:e5:32:17:12:73:51:f7:68:cb:85:aa:48:b7:
                    57:c5:42:a2:be:c1:e1:02:47:cd:6a:10:7d:3f:99:
                    07:e1:fe:2a:38:9c:91:80:b4:92:e5:f5:1d:70:bd:
                    da:29:68:62:59:0e:32:6b:61:66:10:ec:39:c9:55:
                    3f:33:4d:e1:26:b0:db:bc:97:62:5e:a5:6d:b5:d1:
                    2d:b1:5b:b3:e5:e4:ee:ac:44:40:6e:02:23:94:bf:
                    0a:8f:5e:6d:9f:27:59:d8:59:dd:73:d3:62:86:b4:
                    6c:95:70:a4:a9:b3:0d:13:51:9a:d7:60:eb:04:a4:
                    87:91:e4:be:5c:9f:f5:9d:d5:e7:e5:e5:03:e0:54:
                    9b:05:35:cd:b5:9d:02:8f:47:3b:7c:82:d3:69:fd:
                    3d:bd:d8:d1:6f:c5:28:82:f3:5b:a1:78:95:4f:3e:
                    ba:4d:45:79:0a:66:9b:df:26:5a:8c:67:3e:38:bc:
                    06:e7:56:05:19:ea:b6:56:c8:25:4d:f6:7d:04:3d:
                    6a:d6:99:1f:de:bb:c8:8d:4d:69:c5:e3:94:6c:c1:
                    ca:13:82:65:48:05:d1:83:3d:a8:ed:44:ce:a8:71:
                    3c:08:c3
                Exponent: 65537 (0x10001)
        X509v3 extensions:
            X509v3 Basic Constraints: 
                CA:FALSE
            Netscape Comment: 
                Easy-RSA Generated Certificate
            X509v3 Subject Key Identifier: 
                58:58:31:E4:FA:83:F3:95:BA:87:6E:A5:FB:4F:78:1C:D7:A3:DF:E6
            X509v3 Authority Key Identifier: 
                keyid:EF:38:8D:14:50:58:A7:5B:4D:9C:17:72:FC:DF:B9:AC:A7:51:B0:10
                DirName:/C=US/ST=CA/L=SanFrancisco/O=Pixglo, Inc./OU=VPN-CIE/CN=tunnel.pixglo.com/name=Bala Chandrasekaran/emailAddress=bala@pixglo.com
                serial:A6:DB:C6:83:80:E6:A0:79

            X509v3 Extended Key Usage: 
                TLS Web Client Authentication
            X509v3 Key Usage: 
                Digital Signature
    Signature Algorithm: sha1WithRSAEncryption
         2b:5b:bd:a5:1f:7a:bf:d4:be:eb:aa:5f:a6:08:37:21:5a:34:
         d5:bb:c2:cd:fe:de:9e:90:f2:c4:70:a9:2b:5e:ef:e2:c1:6d:
         68:08:ec:43:4d:71:f4:85:ab:d7:41:4f:fe:a1:65:c7:55:4e:
         e2:51:89:6f:b5:fd:d0:38:a5:ac:f0:c7:87:1c:61:8b:95:6a:
         d6:b2:d2:65:88:16:aa:92:5c:3f:31:cd:aa:57:ac:13:91:a2:
         ba:9b:61:86:2a:ef:59:da:e2:3a:35:0d:77:43:ed:8d:dc:66:
         f8:74:1f:b0:f4:11:eb:f7:70:6c:03:ed:4f:de:83:9d:4d:a5:
         3b:cf:4e:8d:31:0f:f7:21:9e:07:8f:82:1c:0c:5e:d3:af:f4:
         cc:6a:d2:f5:97:f0:6d:be:4e:92:79:c4:47:94:d0:55:95:5a:
         fe:74:21:7d:5b:3f:c4:55:69:f7:66:9e:21:72:f4:89:37:89:
         79:cf:9e:a8:45:6c:00:8e:7e:35:83:ae:a8:96:b3:f1:55:8e:
         62:7d:01:d6:07:7c:8f:22:f3:7b:d3:c4:7f:08:9a:d4:19:ea:
         ca:18:b1:94:c3:28:4e:65:d3:3e:c3:b1:48:47:1a:4b:c0:30:
         21:16:4d:22:15:42:58:22:90:a6:21:36:24:c4:f2:71:23:34:
         64:98:74:d6:8d:4a:09:84:1e:23:d0:00:cc:d2:33:ea:7f:ed:
         f5:80:95:c2:3d:a3:58:c3:3e:94:b3:d1:d2:26:31:90:e4:a4:
         ff:b5:67:8b:96:1c:32:b7:58:94:fb:21:3f:ed:ec:30:26:1f:
         93:50:fa:75:7d:3e:18:5e:15:a4:13:61:ef:40:f9:e7:4a:9f:
         c0:49:21:94:de:42:1a:2e:ff:a3:6c:8e:61:0b:bc:30:96:e3:
         04:5c:66:35:04:5a:44:2c:6b:00:39:fe:af:21:2c:d4:18:7b:
         16:b0:05:ae:bb:5b:cd:dd:17:ec:27:2d:a4:57:62:fa:6f:1a:
         7a:4a:f8:fe:18:e8:3a:f7:5b:9b:3e:a6:0d:80:ca:d8:e1:42:
         55:cd:ce:6d:88:24:f3:54:6b:ca:3b:e9:92:0d:82:b3:61:b0:
         33:d2:c2:00:e8:7f:f0:b8:1b:f4:98:0f:a1:b1:55:f2:b9:7d:
         2c:9d:26:50:56:be:3a:5b:bc:4c:99:8f:bb:f0:14:c1:bd:dd:
         9a:ba:d8:e6:88:7b:db:72:0c:45:d5:4e:55:4e:1b:61:04:d4:
         9c:f9:8c:c1:e7:4f:69:a8:5f:da:7e:29:4a:9a:ab:7a:3e:4a:
         9b:e3:32:3d:21:90:47:a3:72:a3:7b:4e:66:30:1b:d9:7e:41:
         10:cd:eb:14:14:be:b0:6f
-----BEGIN CERTIFICATE-----
MIIHSDCCBTCgAwIBAgICAfgwDQYJKoZIhvcNAQEFBQAwgbQxCzAJBgNVBAYTAlVT
MQswCQYDVQQIEwJDQTEVMBMGA1UEBxMMU2FuRnJhbmNpc2NvMRUwEwYDVQQKEwxQ
aXhnbG8sIEluYy4xEDAOBgNVBAsTB1ZQTi1DSUUxGjAYBgNVBAMTEXR1bm5lbC5w
aXhnbG8uY29tMRwwGgYDVQQpExNCYWxhIENoYW5kcmFzZWthcmFuMR4wHAYJKoZI
hvcNAQkBFg9iYWxhQHBpeGdsby5jb20wHhcNMTgwMjE0MDYzNTQ3WhcNMjgwMjEy
MDYzNTQ3WjCBqTELMAkGA1UEBhMCVVMxCzAJBgNVBAgTAkNBMRUwEwYDVQQHEwxT
YW5GcmFuY2lzY28xFTATBgNVBAoTDFBpeGdsbywgSW5jLjEQMA4GA1UECxMHVlBO
LUNJRTEPMA0GA1UEAxMGY2llNTAzMRwwGgYDVQQpExNCYWxhIENoYW5kcmFzZWth
cmFuMR4wHAYJKoZIhvcNAQkBFg9iYWxhQHBpeGdsby5jb20wggIiMA0GCSqGSIb3
DQEBAQUAA4ICDwAwggIKAoICAQD7DDZFGQXUF2bjwOPC0bvHhSKuOThJOk4hF3or
bxqsdMlZ0zzUpsN+cXfUd8kAdyFkCTIB6CaI9t7mYPaezaiO7pGUS62H6Vb8Gzsz
Vehqq59p2xe/40bsEUd84jLpwBBRmIiQJC8P6L7e5tTVeFo+b4+5q94LbvmW42C8
uzcDWe2JhPxh3YZVCYQ6u/0WqxItTjeLGjXmUtoUcMvZS8ycN4JmiSfgfWidoJ9X
w2+Gv9yc09wOjVE7binTqDbOW7BJmNsn1J6EEMDYGlV3utGrNxCj7ZQOxK8tV4z/
jJ5yJlC8Vc0ajzYomwbjdLBVq4ihCYcLHMxSHTQ6gBlbPBuZG/fKxYOVm6Hq1+ry
KwnBgDEQG6aR7dRiSvZpwbC35TIXEnNR92jLhapIt1fFQqK+weECR81qEH0/mQfh
/io4nJGAtJLl9R1wvdopaGJZDjJrYWYQ7DnJVT8zTeEmsNu8l2JepW210S2xW7Pl
5O6sREBuAiOUvwqPXm2fJ1nYWd1z02KGtGyVcKSpsw0TUZrXYOsEpIeR5L5cn/Wd
1efl5QPgVJsFNc21nQKPRzt8gtNp/T292NFvxSiC81uheJVPPrpNRXkKZpvfJlqM
Zz44vAbnVgUZ6rZWyCVN9n0EPWrWmR/eu8iNTWnF45RswcoTgmVIBdGDPajtRM6o
cTwIwwIDAQABo4IBazCCAWcwCQYDVR0TBAIwADAtBglghkgBhvhCAQ0EIBYeRWFz
eS1SU0EgR2VuZXJhdGVkIENlcnRpZmljYXRlMB0GA1UdDgQWBBRYWDHk+oPzlbqH
bqX7T3gc16Pf5jCB6QYDVR0jBIHhMIHegBTvOI0UUFinW02cF3L837msp1GwEKGB
uqSBtzCBtDELMAkGA1UEBhMCVVMxCzAJBgNVBAgTAkNBMRUwEwYDVQQHEwxTYW5G
cmFuY2lzY28xFTATBgNVBAoTDFBpeGdsbywgSW5jLjEQMA4GA1UECxMHVlBOLUNJ
RTEaMBgGA1UEAxMRdHVubmVsLnBpeGdsby5jb20xHDAaBgNVBCkTE0JhbGEgQ2hh
bmRyYXNla2FyYW4xHjAcBgkqhkiG9w0BCQEWD2JhbGFAcGl4Z2xvLmNvbYIJAKbb
xoOA5qB5MBMGA1UdJQQMMAoGCCsGAQUFBwMCMAsGA1UdDwQEAwIHgDANBgkqhkiG
9w0BAQUFAAOCAgEAK1u9pR96v9S+66pfpgg3IVo01bvCzf7enpDyxHCpK17v4sFt
aAjsQ01x9IWr10FP/qFlx1VO4lGJb7X90DilrPDHhxxhi5Vq1rLSZYgWqpJcPzHN
qlesE5GiupthhirvWdriOjUNd0Ptjdxm+HQfsPQR6/dwbAPtT96DnU2lO89OjTEP
9yGeB4+CHAxe06/0zGrS9Zfwbb5OknnER5TQVZVa/nQhfVs/xFVp92aeIXL0iTeJ
ec+eqEVsAI5+NYOuqJaz8VWOYn0B1gd8jyLze9PEfwia1BnqyhixlMMoTmXTPsOx
SEcaS8AwIRZNIhVCWCKQpiE2JMTycSM0ZJh01o1KCYQeI9AAzNIz6n/t9YCVwj2j
WMM+lLPR0iYxkOSk/7Vni5YcMrdYlPshP+3sMCYfk1D6dX0+GF4VpBNh70D550qf
wEkhlN5CGi7/o2yOYQu8MJbjBFxmNQRaRCxrADn+ryEs1Bh7FrAFrrtbzd0X7Cct
pFdi+m8aekr4/hjoOvdbmz6mDYDK2OFCVc3ObYgk81Rryjvpkg2Cs2GwM9LCAOh/
8Lgb9JgPobFV8rl9LJ0mUFa+Olu8TJmPu/AUwb3dmrrY5oh723IMRdVOVU4bYQTU
nPmMwedPaahf2n4pSpqrej5Km+MyPSGQR6Nyo3tOZjAb2X5BEM3rFBS+sG8=
-----END CERTIFICATE-----
