Certificate:
    Data:
        Version: 3 (0x2)
        Serial Number: 506 (0x1fa)
    Signature Algorithm: sha1WithRSAEncryption
        Issuer: C=US, ST=CA, L=SanFrancisco, O=Pixglo, Inc., OU=VPN-CIE, CN=tunnel.pixglo.com/name=Bala Chandrasekaran/emailAddress=bala@pixglo.com
        Validity
            Not Before: Feb 14 06:35:50 2018 GMT
            Not After : Feb 12 06:35:50 2028 GMT
        Subject: C=US, ST=CA, L=SanFrancisco, O=Pixglo, Inc., OU=VPN-CIE, CN=cie505/name=Bala Chandrasekaran/emailAddress=bala@pixglo.com
        Subject Public Key Info:
            Public Key Algorithm: rsaEncryption
                Public-Key: (4096 bit)
                Modulus:
                    00:ec:7a:13:26:23:43:2f:f5:6b:05:fa:2e:c0:99:
                    a9:9a:bf:74:b1:3c:b1:13:5c:fb:33:a1:db:a2:9f:
                    2a:fb:f2:8c:02:a2:65:33:64:9c:8a:89:74:97:cc:
                    d9:e7:d2:5f:5b:98:b4:03:c4:1c:35:b5:0e:18:f2:
                    3b:8c:52:6b:ed:54:89:5b:96:90:9f:54:03:d3:20:
                    c2:99:eb:9d:c5:e9:0a:c0:5f:59:5e:0d:38:ba:43:
                    ca:50:4c:d8:d2:56:78:b7:65:1e:29:a6:31:28:78:
                    a5:fd:46:90:b0:d6:c2:e5:60:5f:21:35:40:b8:e4:
                    8e:be:47:f5:ee:fc:8b:fa:9c:7d:1b:7c:16:67:31:
                    94:88:61:e7:f0:2b:99:7b:ad:90:e2:3a:03:da:4b:
                    d9:ce:6e:9b:c5:ff:ce:a1:07:42:0e:5b:b0:7d:9f:
                    6f:8f:bf:ac:be:5f:c7:91:e6:89:9d:65:30:c0:8a:
                    78:8e:12:c1:01:bd:46:05:42:13:f9:aa:3e:7e:0a:
                    6a:c5:2c:cb:cf:d1:7e:41:a6:4b:a3:ce:56:54:72:
                    b8:76:c2:d8:5a:d5:94:7f:f8:a6:1c:80:76:97:cd:
                    54:e6:77:60:3e:cd:4f:61:3d:62:b5:7a:d2:d4:c6:
                    72:0a:0a:00:de:ae:fa:7a:59:9a:93:ee:02:bc:4e:
                    56:bb:ba:74:15:f3:81:2b:1e:9e:df:9a:4f:94:fb:
                    30:28:e7:3e:9f:24:0e:1e:6f:f0:06:20:06:a7:1c:
                    6b:8c:18:04:0d:f3:61:bc:c9:14:62:8e:3e:60:ae:
                    4d:f0:37:66:d5:3b:e7:f3:02:a2:70:43:ab:62:fa:
                    a0:13:8f:a6:4f:46:45:4b:8c:2a:61:eb:89:28:36:
                    05:15:c3:60:8e:f1:23:ef:a5:a2:e3:81:cc:1b:3d:
                    17:65:bc:e6:da:89:cc:b0:82:a4:c0:73:39:64:cd:
                    2a:47:3f:69:f3:73:00:65:ef:7c:7a:2a:d0:82:cf:
                    29:61:a8:32:e0:37:21:4e:b3:0b:fb:dd:5b:9b:d5:
                    33:ff:6a:63:e0:b3:0d:e8:e9:f2:6d:aa:31:92:45:
                    c5:4a:4d:81:39:3b:82:50:80:02:4d:19:8b:46:f2:
                    b0:1e:f7:67:62:f1:f5:db:e8:cd:02:92:fa:72:60:
                    2b:80:69:07:d7:3f:32:95:2e:67:77:fb:1f:ac:5f:
                    1d:ed:c6:b2:a4:c0:1b:11:f7:f1:76:13:26:c1:64:
                    68:d1:89:b2:f1:5e:4c:c4:b5:ec:6a:8a:d5:7a:07:
                    f5:ac:2b:b9:5b:d8:02:3c:ff:45:98:95:37:0a:d1:
                    57:e8:9d:f7:20:d6:30:9d:ef:2a:10:1f:67:b6:d4:
                    07:89:19
                Exponent: 65537 (0x10001)
        X509v3 extensions:
            X509v3 Basic Constraints: 
                CA:FALSE
            Netscape Comment: 
                Easy-RSA Generated Certificate
            X509v3 Subject Key Identifier: 
                7E:83:F2:D6:82:02:FB:28:A7:B0:0A:60:8F:90:62:3F:8A:6F:8B:5E
            X509v3 Authority Key Identifier: 
                keyid:EF:38:8D:14:50:58:A7:5B:4D:9C:17:72:FC:DF:B9:AC:A7:51:B0:10
                DirName:/C=US/ST=CA/L=SanFrancisco/O=Pixglo, Inc./OU=VPN-CIE/CN=tunnel.pixglo.com/name=Bala Chandrasekaran/emailAddress=bala@pixglo.com
                serial:A6:DB:C6:83:80:E6:A0:79

            X509v3 Extended Key Usage: 
                TLS Web Client Authentication
            X509v3 Key Usage: 
                Digital Signature
    Signature Algorithm: sha1WithRSAEncryption
         09:e4:94:6a:7c:4f:b2:3b:e6:4c:d5:3b:86:4f:cf:e9:1e:e1:
         80:e8:20:89:3e:72:30:a1:8c:22:24:8c:1d:91:32:72:ea:07:
         b2:91:60:6b:66:6a:8c:3e:a4:71:44:a1:bf:0d:fe:b4:c3:d0:
         e9:e9:9f:6e:22:a5:6e:73:67:ab:87:66:d9:cf:2b:79:1f:56:
         80:df:a4:fa:21:6b:c1:4d:e3:95:e4:3a:bd:44:3c:40:30:18:
         23:ea:27:01:8c:af:8d:64:07:2b:64:b1:ac:2e:25:8c:3a:1a:
         29:63:e7:5d:45:0c:6e:f0:0a:85:56:06:ee:f2:fd:2c:dd:b5:
         e1:2a:f1:74:74:fa:06:00:d3:df:e2:84:1e:81:c9:97:fa:40:
         af:79:52:81:1a:8f:fb:fb:78:4d:89:c4:b5:ba:95:fa:c0:c5:
         ee:a2:7d:6a:92:9c:6d:08:e4:5d:4b:09:ca:2d:9a:53:16:f1:
         cd:0b:2e:fd:47:20:62:43:35:3e:d2:75:f8:d9:13:db:36:b0:
         ca:26:cc:b0:ff:cb:55:dd:a2:78:47:3a:1b:b3:6d:ab:c5:f8:
         05:39:ed:9a:04:95:9c:de:56:5c:6d:a2:f1:94:0d:f9:42:9f:
         d6:24:c3:be:8a:9d:3b:00:98:32:1f:bb:0c:3a:be:17:a9:d5:
         f8:35:e0:b6:26:f2:b3:99:80:0e:1b:78:99:fd:81:06:c4:f4:
         62:8b:25:07:6e:61:46:8a:3d:ff:24:f2:36:25:2a:cb:78:26:
         c7:05:fc:06:89:ff:d6:e3:18:35:40:fc:10:61:51:45:8e:92:
         5a:96:d3:19:4f:79:26:0b:ae:66:1b:ab:04:97:c8:54:0a:cf:
         b8:41:7f:bb:08:38:bd:da:c2:ea:f8:8d:33:41:fa:2f:be:8c:
         ae:c1:71:b4:eb:19:d4:f2:39:36:7c:bd:9e:65:63:d5:0a:1a:
         c1:0d:28:b3:1e:e5:f5:cd:3e:41:e3:50:e8:7f:92:7c:36:a7:
         f3:1d:26:c4:93:6f:cc:eb:b2:bd:17:09:05:b2:f2:bd:c0:38:
         24:75:08:ad:a2:45:97:8a:aa:77:84:0e:74:68:6f:84:e9:b2:
         7b:3f:32:45:c7:c4:03:ad:fd:93:8c:a7:58:83:cb:1a:2a:c1:
         c3:0c:a7:21:18:c8:55:b0:47:68:3b:8d:70:2d:83:c7:2a:fa:
         2c:72:06:aa:d1:de:8b:09:eb:9c:8d:54:d9:c2:c9:15:fa:6f:
         23:a6:26:55:71:5a:53:74:46:50:84:a4:2a:1b:05:66:2c:9e:
         f8:2e:78:4e:97:79:50:8e:2c:1a:9b:32:6f:8f:d5:45:2e:0c:
         e8:69:e1:ec:8d:46:3a:d9
-----BEGIN CERTIFICATE-----
MIIHSDCCBTCgAwIBAgICAfowDQYJKoZIhvcNAQEFBQAwgbQxCzAJBgNVBAYTAlVT
MQswCQYDVQQIEwJDQTEVMBMGA1UEBxMMU2FuRnJhbmNpc2NvMRUwEwYDVQQKEwxQ
aXhnbG8sIEluYy4xEDAOBgNVBAsTB1ZQTi1DSUUxGjAYBgNVBAMTEXR1bm5lbC5w
aXhnbG8uY29tMRwwGgYDVQQpExNCYWxhIENoYW5kcmFzZWthcmFuMR4wHAYJKoZI
hvcNAQkBFg9iYWxhQHBpeGdsby5jb20wHhcNMTgwMjE0MDYzNTUwWhcNMjgwMjEy
MDYzNTUwWjCBqTELMAkGA1UEBhMCVVMxCzAJBgNVBAgTAkNBMRUwEwYDVQQHEwxT
YW5GcmFuY2lzY28xFTATBgNVBAoTDFBpeGdsbywgSW5jLjEQMA4GA1UECxMHVlBO
LUNJRTEPMA0GA1UEAxMGY2llNTA1MRwwGgYDVQQpExNCYWxhIENoYW5kcmFzZWth
cmFuMR4wHAYJKoZIhvcNAQkBFg9iYWxhQHBpeGdsby5jb20wggIiMA0GCSqGSIb3
DQEBAQUAA4ICDwAwggIKAoICAQDsehMmI0Mv9WsF+i7Amamav3SxPLETXPszodui
nyr78owComUzZJyKiXSXzNnn0l9bmLQDxBw1tQ4Y8juMUmvtVIlblpCfVAPTIMKZ
653F6QrAX1leDTi6Q8pQTNjSVni3ZR4ppjEoeKX9RpCw1sLlYF8hNUC45I6+R/Xu
/Iv6nH0bfBZnMZSIYefwK5l7rZDiOgPaS9nObpvF/86hB0IOW7B9n2+Pv6y+X8eR
5omdZTDAiniOEsEBvUYFQhP5qj5+CmrFLMvP0X5BpkujzlZUcrh2wtha1ZR/+KYc
gHaXzVTmd2A+zU9hPWK1etLUxnIKCgDervp6WZqT7gK8Tla7unQV84ErHp7fmk+U
+zAo5z6fJA4eb/AGIAanHGuMGAQN82G8yRRijj5grk3wN2bVO+fzAqJwQ6ti+qAT
j6ZPRkVLjCph64koNgUVw2CO8SPvpaLjgcwbPRdlvObaicywgqTAczlkzSpHP2nz
cwBl73x6KtCCzylhqDLgNyFOswv73Vub1TP/amPgsw3o6fJtqjGSRcVKTYE5O4JQ
gAJNGYtG8rAe92di8fXb6M0CkvpyYCuAaQfXPzKVLmd3+x+sXx3txrKkwBsR9/F2
EybBZGjRibLxXkzEtexqitV6B/WsK7lb2AI8/0WYlTcK0Vfonfcg1jCd7yoQH2e2
1AeJGQIDAQABo4IBazCCAWcwCQYDVR0TBAIwADAtBglghkgBhvhCAQ0EIBYeRWFz
eS1SU0EgR2VuZXJhdGVkIENlcnRpZmljYXRlMB0GA1UdDgQWBBR+g/LWggL7KKew
CmCPkGI/im+LXjCB6QYDVR0jBIHhMIHegBTvOI0UUFinW02cF3L837msp1GwEKGB
uqSBtzCBtDELMAkGA1UEBhMCVVMxCzAJBgNVBAgTAkNBMRUwEwYDVQQHEwxTYW5G
cmFuY2lzY28xFTATBgNVBAoTDFBpeGdsbywgSW5jLjEQMA4GA1UECxMHVlBOLUNJ
RTEaMBgGA1UEAxMRdHVubmVsLnBpeGdsby5jb20xHDAaBgNVBCkTE0JhbGEgQ2hh
bmRyYXNla2FyYW4xHjAcBgkqhkiG9w0BCQEWD2JhbGFAcGl4Z2xvLmNvbYIJAKbb
xoOA5qB5MBMGA1UdJQQMMAoGCCsGAQUFBwMCMAsGA1UdDwQEAwIHgDANBgkqhkiG
9w0BAQUFAAOCAgEACeSUanxPsjvmTNU7hk/P6R7hgOggiT5yMKGMIiSMHZEycuoH
spFga2ZqjD6kcUShvw3+tMPQ6emfbiKlbnNnq4dm2c8reR9WgN+k+iFrwU3jleQ6
vUQ8QDAYI+onAYyvjWQHK2SxrC4ljDoaKWPnXUUMbvAKhVYG7vL9LN214SrxdHT6
BgDT3+KEHoHJl/pAr3lSgRqP+/t4TYnEtbqV+sDF7qJ9apKcbQjkXUsJyi2aUxbx
zQsu/UcgYkM1PtJ1+NkT2zawyibMsP/LVd2ieEc6G7Ntq8X4BTntmgSVnN5WXG2i
8ZQN+UKf1iTDvoqdOwCYMh+7DDq+F6nV+DXgtibys5mADht4mf2BBsT0YoslB25h
Roo9/yTyNiUqy3gmxwX8Bon/1uMYNUD8EGFRRY6SWpbTGU95JguuZhurBJfIVArP
uEF/uwg4vdrC6viNM0H6L76MrsFxtOsZ1PI5Nny9nmVj1QoawQ0osx7l9c0+QeNQ
6H+SfDan8x0mxJNvzOuyvRcJBbLyvcA4JHUIraJFl4qqd4QOdGhvhOmyez8yRcfE
A639k4ynWIPLGirBwwynIRjIVbBHaDuNcC2Dxyr6LHIGqtHeiwnrnI1U2cLJFfpv
I6YmVXFaU3RGUISkKhsFZiye+C54Tpd5UI4sGpsyb4/VRS4M6Gnh7I1GOtk=
-----END CERTIFICATE-----
