Certificate:
    Data:
        Version: 3 (0x2)
        Serial Number: 507 (0x1fb)
    Signature Algorithm: sha1WithRSAEncryption
        Issuer: C=US, ST=CA, L=SanFrancisco, O=Pixglo, Inc., OU=VPN-CIE, CN=tunnel.pixglo.com/name=Bala Chandrasekaran/emailAddress=bala@pixglo.com
        Validity
            Not Before: Feb 14 06:35:51 2018 GMT
            Not After : Feb 12 06:35:51 2028 GMT
        Subject: C=US, ST=CA, L=SanFrancisco, O=Pixglo, Inc., OU=VPN-CIE, CN=cie506/name=Bala Chandrasekaran/emailAddress=bala@pixglo.com
        Subject Public Key Info:
            Public Key Algorithm: rsaEncryption
                Public-Key: (4096 bit)
                Modulus:
                    00:c6:86:80:61:15:fc:5d:01:eb:95:78:77:76:f9:
                    77:82:be:24:61:aa:d4:f2:a5:24:d7:fa:c6:39:a0:
                    85:5b:3a:e2:cc:18:3c:0d:6b:da:85:d5:e5:da:a6:
                    9c:ba:c7:06:1e:23:d9:78:d6:69:e2:b9:e9:55:6c:
                    67:3a:5c:8f:5f:92:69:d2:c8:c9:e5:6d:82:17:a5:
                    6a:bb:97:81:c3:2b:cc:bd:e6:9b:ad:cb:3b:99:37:
                    33:bd:5d:8b:2e:15:b3:6a:ff:93:99:86:49:b0:42:
                    47:aa:a0:d8:67:75:bb:e9:c8:27:b4:6d:98:df:a6:
                    70:69:20:35:e3:65:24:d7:b6:6c:9a:8f:8a:8b:f9:
                    c1:47:ff:30:28:da:bf:f2:f7:29:7c:bf:33:98:f6:
                    09:65:8f:57:d1:e2:37:00:d4:37:8b:bd:16:56:73:
                    ef:c5:fc:8b:08:ad:2a:cd:c8:c9:6b:68:b4:e3:20:
                    ae:bf:f6:15:37:e5:f3:6b:cb:b7:0b:21:24:a0:4d:
                    58:fa:f1:ee:89:ed:e2:04:80:03:25:68:9a:60:3e:
                    9d:d0:33:77:f2:0b:d6:3a:62:64:c5:e9:9b:c8:ea:
                    a9:82:d6:94:21:ba:00:69:51:f8:e5:36:30:5d:2b:
                    c6:77:e3:71:72:ad:54:83:38:d5:da:aa:8e:90:18:
                    9e:34:c1:9e:3d:2c:41:ca:1b:06:f1:47:2b:32:1a:
                    55:35:f3:3f:db:ac:e6:0f:e4:2e:a5:6e:16:51:bb:
                    f0:74:d6:52:21:c6:f0:c1:ce:23:84:0d:1d:c2:c2:
                    13:98:9f:2b:c8:59:77:92:7d:67:08:22:6e:14:e7:
                    8c:43:47:11:92:71:24:66:75:3e:52:75:f8:fc:4d:
                    9a:e4:11:53:29:c3:de:fc:6c:bb:35:ce:a9:49:ea:
                    35:3b:4b:17:9f:0a:b5:7b:f9:ef:b6:fb:05:13:1e:
                    20:ee:a5:cb:98:85:02:f7:1b:b0:28:09:84:ac:7d:
                    7e:af:21:ee:94:7c:20:13:ef:99:9c:04:bb:bb:b2:
                    12:0f:35:08:43:f1:1e:48:cc:57:87:ed:7a:75:db:
                    48:a9:9c:e0:36:f6:1c:3a:a3:5d:e1:89:3f:49:11:
                    36:f9:2e:08:0f:64:7b:27:dc:f9:3a:ec:ea:af:49:
                    70:32:92:da:e4:5e:d2:66:08:d2:e1:65:5e:d5:5c:
                    5b:4f:7c:87:bb:84:7c:24:d6:7b:c1:4f:a3:da:3f:
                    c9:03:86:9f:7b:e8:d7:c2:90:2f:80:b5:a8:73:63:
                    5e:2e:a4:e7:43:cc:a6:6d:23:56:53:de:67:57:d2:
                    cf:26:3c:26:d3:5c:d9:4f:0f:78:ff:7a:1f:4f:ea:
                    a7:19:c9
                Exponent: 65537 (0x10001)
        X509v3 extensions:
            X509v3 Basic Constraints: 
                CA:FALSE
            Netscape Comment: 
                Easy-RSA Generated Certificate
            X509v3 Subject Key Identifier: 
                30:15:A9:4B:2B:87:40:93:1F:90:46:FF:E7:5A:FA:CE:01:B9:B4:2D
            X509v3 Authority Key Identifier: 
                keyid:EF:38:8D:14:50:58:A7:5B:4D:9C:17:72:FC:DF:B9:AC:A7:51:B0:10
                DirName:/C=US/ST=CA/L=SanFrancisco/O=Pixglo, Inc./OU=VPN-CIE/CN=tunnel.pixglo.com/name=Bala Chandrasekaran/emailAddress=bala@pixglo.com
                serial:A6:DB:C6:83:80:E6:A0:79

            X509v3 Extended Key Usage: 
                TLS Web Client Authentication
            X509v3 Key Usage: 
                Digital Signature
    Signature Algorithm: sha1WithRSAEncryption
         47:bc:49:5c:23:04:3e:12:c9:8c:51:42:4a:f1:53:cc:4f:32:
         85:f6:9b:24:d3:43:44:10:1d:5a:87:56:1f:8e:01:ab:6a:2b:
         4d:8a:b7:65:92:10:71:26:49:03:4f:2e:3c:74:51:c3:27:53:
         62:0d:ff:0b:39:f8:29:f6:12:d7:89:62:07:25:c3:9f:8e:e1:
         cd:cf:ea:20:27:58:61:fe:c4:b5:f6:a0:da:ee:c7:90:4d:6f:
         f8:2f:fa:a4:0e:3f:d0:10:93:12:bd:d1:2e:ae:2c:5f:0b:7e:
         ed:5f:95:1e:01:35:72:53:cf:d3:52:37:1b:88:cf:c5:5c:88:
         d4:92:c7:b7:84:04:47:4d:01:e4:7a:5c:e8:3d:43:e7:56:7c:
         71:5e:80:a0:a9:31:80:ce:4a:a4:65:04:fd:3f:96:fd:68:6c:
         52:fc:69:5b:a9:a4:a6:aa:af:81:51:37:32:e5:2f:e1:16:7f:
         89:1a:18:5c:68:0f:dc:39:ab:4c:08:d8:08:8c:29:6f:b8:09:
         10:f2:ed:62:77:70:ca:bc:ab:2b:b4:54:99:3c:24:af:74:2f:
         cb:8c:a6:fd:b9:2d:05:9f:fd:2e:11:1f:ed:65:cd:8e:9a:be:
         92:e7:81:b4:2b:fd:f5:bf:22:e3:7f:a6:8d:0c:4c:32:19:f8:
         77:7d:9a:e4:49:0e:94:9c:10:42:bd:39:34:cb:a5:91:b9:35:
         20:24:68:96:37:7b:7e:e5:f7:ed:c5:b7:b4:04:b3:8a:16:b4:
         b1:49:65:6b:4b:80:aa:8e:f2:c2:f1:f7:5d:f4:14:6d:8c:e9:
         67:3c:58:e4:2e:d8:3c:a1:e5:d7:92:f4:1f:b5:f0:e5:5e:ee:
         c7:04:42:86:a5:6d:ff:42:47:a1:17:38:29:09:41:59:06:d9:
         34:2a:66:29:91:5b:51:b9:98:b6:85:c9:7e:f5:0b:d8:31:f9:
         f9:a3:c0:b0:a2:a9:a1:4b:96:e2:b0:c3:91:13:a4:59:20:3f:
         50:91:bc:9a:11:c5:83:fc:7e:d6:db:5f:5b:c5:76:d9:28:11:
         b8:6b:4b:d7:d7:12:9d:df:ac:ca:90:3e:21:e0:6d:2e:ed:ea:
         7a:e4:b9:dd:a3:3c:8e:a7:89:f4:71:af:ee:1b:7e:31:20:f0:
         09:78:b6:c0:cc:5f:f7:96:41:58:bd:ac:b4:5d:db:35:39:71:
         0b:27:f0:4b:99:d5:23:65:e8:3d:cc:7b:a2:8e:97:fd:9c:13:
         7b:8b:4a:e1:02:cb:9b:6b:6b:a1:b6:81:4e:78:f7:d5:ae:7c:
         d9:be:1e:1b:74:8a:15:58:06:f2:dd:24:7a:03:6f:cd:b8:4d:
         5b:6d:f8:ab:9b:8a:b8:fd
-----BEGIN CERTIFICATE-----
MIIHSDCCBTCgAwIBAgICAfswDQYJKoZIhvcNAQEFBQAwgbQxCzAJBgNVBAYTAlVT
MQswCQYDVQQIEwJDQTEVMBMGA1UEBxMMU2FuRnJhbmNpc2NvMRUwEwYDVQQKEwxQ
aXhnbG8sIEluYy4xEDAOBgNVBAsTB1ZQTi1DSUUxGjAYBgNVBAMTEXR1bm5lbC5w
aXhnbG8uY29tMRwwGgYDVQQpExNCYWxhIENoYW5kcmFzZWthcmFuMR4wHAYJKoZI
hvcNAQkBFg9iYWxhQHBpeGdsby5jb20wHhcNMTgwMjE0MDYzNTUxWhcNMjgwMjEy
MDYzNTUxWjCBqTELMAkGA1UEBhMCVVMxCzAJBgNVBAgTAkNBMRUwEwYDVQQHEwxT
YW5GcmFuY2lzY28xFTATBgNVBAoTDFBpeGdsbywgSW5jLjEQMA4GA1UECxMHVlBO
LUNJRTEPMA0GA1UEAxMGY2llNTA2MRwwGgYDVQQpExNCYWxhIENoYW5kcmFzZWth
cmFuMR4wHAYJKoZIhvcNAQkBFg9iYWxhQHBpeGdsby5jb20wggIiMA0GCSqGSIb3
DQEBAQUAA4ICDwAwggIKAoICAQDGhoBhFfxdAeuVeHd2+XeCviRhqtTypSTX+sY5
oIVbOuLMGDwNa9qF1eXappy6xwYeI9l41mniuelVbGc6XI9fkmnSyMnlbYIXpWq7
l4HDK8y95putyzuZNzO9XYsuFbNq/5OZhkmwQkeqoNhndbvpyCe0bZjfpnBpIDXj
ZSTXtmyaj4qL+cFH/zAo2r/y9yl8vzOY9gllj1fR4jcA1DeLvRZWc+/F/IsIrSrN
yMlraLTjIK6/9hU35fNry7cLISSgTVj68e6J7eIEgAMlaJpgPp3QM3fyC9Y6YmTF
6ZvI6qmC1pQhugBpUfjlNjBdK8Z343FyrVSDONXaqo6QGJ40wZ49LEHKGwbxRysy
GlU18z/brOYP5C6lbhZRu/B01lIhxvDBziOEDR3CwhOYnyvIWXeSfWcIIm4U54xD
RxGScSRmdT5Sdfj8TZrkEVMpw978bLs1zqlJ6jU7SxefCrV7+e+2+wUTHiDupcuY
hQL3G7AoCYSsfX6vIe6UfCAT75mcBLu7shIPNQhD8R5IzFeH7Xp120ipnOA29hw6
o13hiT9JETb5LggPZHsn3Pk67OqvSXAyktrkXtJmCNLhZV7VXFtPfIe7hHwk1nvB
T6PaP8kDhp976NfCkC+AtahzY14upOdDzKZtI1ZT3mdX0s8mPCbTXNlPD3j/eh9P
6qcZyQIDAQABo4IBazCCAWcwCQYDVR0TBAIwADAtBglghkgBhvhCAQ0EIBYeRWFz
eS1SU0EgR2VuZXJhdGVkIENlcnRpZmljYXRlMB0GA1UdDgQWBBQwFalLK4dAkx+Q
Rv/nWvrOAbm0LTCB6QYDVR0jBIHhMIHegBTvOI0UUFinW02cF3L837msp1GwEKGB
uqSBtzCBtDELMAkGA1UEBhMCVVMxCzAJBgNVBAgTAkNBMRUwEwYDVQQHEwxTYW5G
cmFuY2lzY28xFTATBgNVBAoTDFBpeGdsbywgSW5jLjEQMA4GA1UECxMHVlBOLUNJ
RTEaMBgGA1UEAxMRdHVubmVsLnBpeGdsby5jb20xHDAaBgNVBCkTE0JhbGEgQ2hh
bmRyYXNla2FyYW4xHjAcBgkqhkiG9w0BCQEWD2JhbGFAcGl4Z2xvLmNvbYIJAKbb
xoOA5qB5MBMGA1UdJQQMMAoGCCsGAQUFBwMCMAsGA1UdDwQEAwIHgDANBgkqhkiG
9w0BAQUFAAOCAgEAR7xJXCMEPhLJjFFCSvFTzE8yhfabJNNDRBAdWodWH44Bq2or
TYq3ZZIQcSZJA08uPHRRwydTYg3/Czn4KfYS14liByXDn47hzc/qICdYYf7Etfag
2u7HkE1v+C/6pA4/0BCTEr3RLq4sXwt+7V+VHgE1clPP01I3G4jPxVyI1JLHt4QE
R00B5Hpc6D1D51Z8cV6AoKkxgM5KpGUE/T+W/WhsUvxpW6mkpqqvgVE3MuUv4RZ/
iRoYXGgP3DmrTAjYCIwpb7gJEPLtYndwyryrK7RUmTwkr3Qvy4ym/bktBZ/9LhEf
7WXNjpq+kueBtCv99b8i43+mjQxMMhn4d32a5EkOlJwQQr05NMulkbk1ICRoljd7
fuX37cW3tASziha0sUlla0uAqo7ywvH3XfQUbYzpZzxY5C7YPKHl15L0H7Xw5V7u
xwRChqVt/0JHoRc4KQlBWQbZNCpmKZFbUbmYtoXJfvUL2DH5+aPAsKKpoUuW4rDD
kROkWSA/UJG8mhHFg/x+1ttfW8V22SgRuGtL19cSnd+sypA+IeBtLu3qeuS53aM8
jqeJ9HGv7ht+MSDwCXi2wMxf95ZBWL2stF3bNTlxCyfwS5nVI2XoPcx7oo6X/ZwT
e4tK4QLLm2trobaBTnj31a582b4eG3SKFVgG8t0kegNvzbhNW234q5uKuP0=
-----END CERTIFICATE-----
