Certificate:
    Data:
        Version: 3 (0x2)
        Serial Number: 509 (0x1fd)
    Signature Algorithm: sha1WithRSAEncryption
        Issuer: C=US, ST=CA, L=SanFrancisco, O=Pixglo, Inc., OU=VPN-CIE, CN=tunnel.pixglo.com/name=Bala Chandrasekaran/emailAddress=bala@pixglo.com
        Validity
            Not Before: Feb 14 06:35:53 2018 GMT
            Not After : Feb 12 06:35:53 2028 GMT
        Subject: C=US, ST=CA, L=SanFrancisco, O=Pixglo, Inc., OU=VPN-CIE, CN=cie508/name=Bala Chandrasekaran/emailAddress=bala@pixglo.com
        Subject Public Key Info:
            Public Key Algorithm: rsaEncryption
                Public-Key: (4096 bit)
                Modulus:
                    00:c8:ef:5d:38:fd:da:dd:29:a7:85:a6:5a:27:2e:
                    8b:0f:6d:a6:21:f6:a9:d8:34:31:76:a1:28:d3:f0:
                    55:69:cd:52:6e:19:a4:5d:89:ae:f3:1f:fa:b0:68:
                    81:84:62:5f:0e:a3:ea:ed:d3:97:3f:d4:1a:21:16:
                    d4:37:a9:bd:25:d0:18:9f:14:6b:56:53:18:5e:13:
                    09:ce:43:4c:8c:90:b3:33:42:b2:44:a2:49:f4:ce:
                    21:c7:49:30:2f:05:05:e9:1a:b3:a8:60:97:c0:d8:
                    04:84:d8:14:a3:54:4d:e5:bb:23:b4:7b:c9:7d:1d:
                    83:12:97:02:cb:d6:01:44:a9:90:74:47:ba:4c:31:
                    03:a2:d8:94:3a:f6:f1:30:e9:26:f1:ed:b2:53:c6:
                    d8:80:4a:ca:f6:95:1e:28:d9:5f:0d:93:7a:16:56:
                    6b:d0:fa:4e:2f:b2:e9:68:f7:70:7d:23:2f:26:34:
                    b2:9d:03:3b:24:05:7b:a0:88:41:87:71:40:7b:08:
                    73:be:e2:28:e8:08:3a:92:d9:a1:12:96:ba:23:ea:
                    ab:e6:c5:5c:0a:0a:47:5b:3b:53:ac:7d:6f:5c:fe:
                    37:8f:26:2e:65:76:e6:5a:32:d7:ae:dd:00:aa:87:
                    65:3b:81:01:98:02:b1:b5:a1:5d:e5:3a:eb:0c:bb:
                    ed:7d:d9:ed:3a:49:fa:96:01:18:f0:25:03:fb:79:
                    b1:52:96:c4:a9:2d:22:d8:e3:ee:97:a2:1a:20:bc:
                    9d:0f:e8:30:34:d5:e1:e7:a0:16:39:c1:2e:f1:7d:
                    d2:11:9e:75:03:d3:ee:20:ed:6d:ba:bc:1c:c4:43:
                    74:3e:e6:30:5b:cc:bb:0f:5f:14:e6:ec:ed:c6:0d:
                    4f:78:63:00:78:1f:94:35:36:79:78:53:e1:75:96:
                    26:65:84:27:53:4e:01:f4:d5:83:24:91:70:8e:25:
                    58:59:e8:6a:f0:5e:1b:2f:53:b7:7b:8b:f0:6a:82:
                    ba:bb:bc:04:fd:de:09:18:db:ad:5d:33:0e:e2:0f:
                    5b:59:27:2c:67:c9:d9:a9:13:b8:ae:a1:71:35:af:
                    19:c4:c6:22:03:82:04:85:5b:75:7e:47:e9:df:c0:
                    99:3e:d1:65:ea:b7:2d:a4:b8:29:f6:ae:67:e3:e4:
                    55:80:0c:d0:a2:8f:5d:9f:37:7f:e5:90:21:7c:1f:
                    43:4f:ef:7a:f3:ef:eb:0b:a8:c9:b0:30:a2:9c:be:
                    32:40:0f:cb:bb:05:2a:de:7c:73:8a:77:16:dd:02:
                    a4:92:01:e7:b0:1d:28:7e:f7:56:c2:68:64:b4:7a:
                    1d:bc:54:32:c7:86:7d:74:2d:7f:b2:0f:58:0c:01:
                    89:e6:8d
                Exponent: 65537 (0x10001)
        X509v3 extensions:
            X509v3 Basic Constraints: 
                CA:FALSE
            Netscape Comment: 
                Easy-RSA Generated Certificate
            X509v3 Subject Key Identifier: 
                31:49:A1:B2:4F:96:0A:BF:EB:A4:5E:42:FE:1D:20:B2:95:8F:75:79
            X509v3 Authority Key Identifier: 
                keyid:EF:38:8D:14:50:58:A7:5B:4D:9C:17:72:FC:DF:B9:AC:A7:51:B0:10
                DirName:/C=US/ST=CA/L=SanFrancisco/O=Pixglo, Inc./OU=VPN-CIE/CN=tunnel.pixglo.com/name=Bala Chandrasekaran/emailAddress=bala@pixglo.com
                serial:A6:DB:C6:83:80:E6:A0:79

            X509v3 Extended Key Usage: 
                TLS Web Client Authentication
            X509v3 Key Usage: 
                Digital Signature
    Signature Algorithm: sha1WithRSAEncryption
         1e:f3:40:5e:34:73:dd:4b:2c:c3:03:24:9a:79:e2:52:95:de:
         35:ea:f7:60:0c:02:71:01:04:d9:da:6c:3d:50:0c:ae:63:0e:
         cd:66:a3:ad:e3:cd:59:4b:86:8d:2a:45:00:d8:7a:35:0d:04:
         b6:b5:7b:8e:71:61:e4:87:32:29:da:4d:48:61:8f:bc:e2:43:
         bc:21:d3:5f:58:6d:83:f0:9e:8d:7e:44:92:ee:e0:4e:2f:9d:
         88:86:90:f2:f0:40:b4:ff:85:4b:a0:f3:9c:e3:c0:16:0b:4f:
         ef:70:ac:d9:63:25:11:72:2d:f5:cf:fd:af:67:07:86:49:3a:
         20:55:e0:c0:a0:cb:c7:17:4b:42:d5:8d:02:4f:92:43:e0:52:
         3e:48:10:04:8f:2c:d7:af:a5:fd:ce:c6:c8:9a:af:33:ed:c2:
         5f:05:5f:26:d3:35:69:5b:7c:d0:37:35:dd:8b:2a:85:cb:be:
         a8:c2:d6:53:a0:8a:f3:32:3d:9b:31:0c:16:67:e9:4c:57:1c:
         71:7b:4e:33:ad:1c:94:ba:e0:be:e9:a0:ba:4e:17:29:62:d5:
         21:00:e9:15:48:bf:70:2d:8e:72:f1:5a:6e:bb:8d:b5:9b:4d:
         44:77:a1:f0:18:e3:4f:87:11:d5:47:4a:8d:40:a6:a2:06:39:
         56:23:19:62:1b:97:4f:91:7d:1c:c8:6a:9e:7a:28:7b:6e:51:
         87:06:b5:d2:28:28:79:6a:f3:87:1d:be:45:e1:fe:9d:93:ca:
         60:a0:09:ae:a5:34:ac:b5:7a:22:05:a8:f0:a2:08:66:87:82:
         52:69:84:67:b0:99:82:d8:0c:16:0e:bc:5f:7b:3f:3a:01:09:
         e1:ac:58:d3:07:93:7c:8f:2c:30:ad:a8:86:54:f7:53:25:cb:
         d3:5e:28:aa:dc:41:7e:33:46:a7:a6:7a:c2:40:73:63:3d:bf:
         95:1c:b7:79:57:28:ae:59:b8:18:e1:5b:d7:c5:3c:56:59:e2:
         c4:d8:09:d9:1f:66:d2:d1:18:4c:4a:93:2f:28:67:da:cb:33:
         56:29:64:0a:d8:46:b1:d7:87:cc:1a:c4:ef:b6:a0:b5:c8:d3:
         85:f7:8a:fa:c7:41:fe:ef:57:db:d7:e4:fd:c4:34:a7:75:51:
         6c:91:35:f5:1a:50:e7:a6:2d:8b:10:6f:3b:45:41:31:93:ab:
         da:a2:be:62:2f:54:f6:ba:e8:44:4c:e1:02:c7:44:dc:92:eb:
         7c:9f:51:2b:7b:3d:02:3d:14:ca:31:9c:01:f4:50:fc:58:80:
         39:36:e6:1f:cd:c2:aa:c9:74:f6:fa:43:81:f3:45:48:ba:2b:
         89:85:01:42:75:82:cb:b6
-----BEGIN CERTIFICATE-----
MIIHSDCCBTCgAwIBAgICAf0wDQYJKoZIhvcNAQEFBQAwgbQxCzAJBgNVBAYTAlVT
MQswCQYDVQQIEwJDQTEVMBMGA1UEBxMMU2FuRnJhbmNpc2NvMRUwEwYDVQQKEwxQ
aXhnbG8sIEluYy4xEDAOBgNVBAsTB1ZQTi1DSUUxGjAYBgNVBAMTEXR1bm5lbC5w
aXhnbG8uY29tMRwwGgYDVQQpExNCYWxhIENoYW5kcmFzZWthcmFuMR4wHAYJKoZI
hvcNAQkBFg9iYWxhQHBpeGdsby5jb20wHhcNMTgwMjE0MDYzNTUzWhcNMjgwMjEy
MDYzNTUzWjCBqTELMAkGA1UEBhMCVVMxCzAJBgNVBAgTAkNBMRUwEwYDVQQHEwxT
YW5GcmFuY2lzY28xFTATBgNVBAoTDFBpeGdsbywgSW5jLjEQMA4GA1UECxMHVlBO
LUNJRTEPMA0GA1UEAxMGY2llNTA4MRwwGgYDVQQpExNCYWxhIENoYW5kcmFzZWth
cmFuMR4wHAYJKoZIhvcNAQkBFg9iYWxhQHBpeGdsby5jb20wggIiMA0GCSqGSIb3
DQEBAQUAA4ICDwAwggIKAoICAQDI7104/drdKaeFplonLosPbaYh9qnYNDF2oSjT
8FVpzVJuGaRdia7zH/qwaIGEYl8Oo+rt05c/1BohFtQ3qb0l0BifFGtWUxheEwnO
Q0yMkLMzQrJEokn0ziHHSTAvBQXpGrOoYJfA2ASE2BSjVE3luyO0e8l9HYMSlwLL
1gFEqZB0R7pMMQOi2JQ69vEw6Sbx7bJTxtiASsr2lR4o2V8Nk3oWVmvQ+k4vsulo
93B9Iy8mNLKdAzskBXugiEGHcUB7CHO+4ijoCDqS2aESlroj6qvmxVwKCkdbO1Os
fW9c/jePJi5lduZaMteu3QCqh2U7gQGYArG1oV3lOusMu+192e06SfqWARjwJQP7
ebFSlsSpLSLY4+6XohogvJ0P6DA01eHnoBY5wS7xfdIRnnUD0+4g7W26vBzEQ3Q+
5jBbzLsPXxTm7O3GDU94YwB4H5Q1Nnl4U+F1liZlhCdTTgH01YMkkXCOJVhZ6Grw
XhsvU7d7i/Bqgrq7vAT93gkY261dMw7iD1tZJyxnydmpE7iuoXE1rxnExiIDggSF
W3V+R+nfwJk+0WXqty2kuCn2rmfj5FWADNCij12fN3/lkCF8H0NP73rz7+sLqMmw
MKKcvjJAD8u7BSrefHOKdxbdAqSSAeewHSh+91bCaGS0eh28VDLHhn10LX+yD1gM
AYnmjQIDAQABo4IBazCCAWcwCQYDVR0TBAIwADAtBglghkgBhvhCAQ0EIBYeRWFz
eS1SU0EgR2VuZXJhdGVkIENlcnRpZmljYXRlMB0GA1UdDgQWBBQxSaGyT5YKv+uk
XkL+HSCylY91eTCB6QYDVR0jBIHhMIHegBTvOI0UUFinW02cF3L837msp1GwEKGB
uqSBtzCBtDELMAkGA1UEBhMCVVMxCzAJBgNVBAgTAkNBMRUwEwYDVQQHEwxTYW5G
cmFuY2lzY28xFTATBgNVBAoTDFBpeGdsbywgSW5jLjEQMA4GA1UECxMHVlBOLUNJ
RTEaMBgGA1UEAxMRdHVubmVsLnBpeGdsby5jb20xHDAaBgNVBCkTE0JhbGEgQ2hh
bmRyYXNla2FyYW4xHjAcBgkqhkiG9w0BCQEWD2JhbGFAcGl4Z2xvLmNvbYIJAKbb
xoOA5qB5MBMGA1UdJQQMMAoGCCsGAQUFBwMCMAsGA1UdDwQEAwIHgDANBgkqhkiG
9w0BAQUFAAOCAgEAHvNAXjRz3UsswwMkmnniUpXeNer3YAwCcQEE2dpsPVAMrmMO
zWajrePNWUuGjSpFANh6NQ0EtrV7jnFh5IcyKdpNSGGPvOJDvCHTX1htg/CejX5E
ku7gTi+diIaQ8vBAtP+FS6DznOPAFgtP73Cs2WMlEXIt9c/9r2cHhkk6IFXgwKDL
xxdLQtWNAk+SQ+BSPkgQBI8s16+l/c7GyJqvM+3CXwVfJtM1aVt80Dc13Ysqhcu+
qMLWU6CK8zI9mzEMFmfpTFcccXtOM60clLrgvumguk4XKWLVIQDpFUi/cC2OcvFa
bruNtZtNRHeh8BjjT4cR1UdKjUCmogY5ViMZYhuXT5F9HMhqnnooe25Rhwa10igo
eWrzhx2+ReH+nZPKYKAJrqU0rLV6IgWo8KIIZoeCUmmEZ7CZgtgMFg68X3s/OgEJ
4axY0weTfI8sMK2ohlT3UyXL014oqtxBfjNGp6Z6wkBzYz2/lRy3eVcorlm4GOFb
18U8VlnixNgJ2R9m0tEYTEqTLyhn2sszVilkCthGsdeHzBrE77agtcjThfeK+sdB
/u9X29fk/cQ0p3VRbJE19RpQ56YtixBvO0VBMZOr2qK+Yi9U9rroREzhAsdE3JLr
fJ9RK3s9Aj0UyjGcAfRQ/FiAOTbmH83Cqsl09vpDgfNFSLoriYUBQnWCy7Y=
-----END CERTIFICATE-----
