Certificate:
    Data:
        Version: 3 (0x2)
        Serial Number: 2 (0x2)
    Signature Algorithm: sha1WithRSAEncryption
        Issuer: C=US, ST=CA, L=SanFrancisco, O=Pixglo, Inc., OU=VPN-CIE, CN=tunnel.pixglo.com/name=Bala Chandrasekaran/emailAddress=bala@pixglo.com
        Validity
            Not Before: Feb 14 06:24:11 2018 GMT
            Not After : Feb 12 06:24:11 2028 GMT
        Subject: C=US, ST=CA, L=SanFrancisco, O=Pixglo, Inc., OU=VPN-CIE, CN=cie1/name=Bala Chandrasekaran/emailAddress=bala@pixglo.com
        Subject Public Key Info:
            Public Key Algorithm: rsaEncryption
                Public-Key: (4096 bit)
                Modulus:
                    00:c5:f1:ae:d6:35:f8:ca:b1:31:0c:c0:54:1b:2e:
                    9d:0e:c9:3f:7a:27:7e:ae:d2:01:06:ac:f5:fa:63:
                    ec:98:32:af:1e:ae:49:60:94:f2:ca:5d:bb:42:54:
                    d5:25:9c:1c:d3:34:7e:e4:18:81:a0:3f:6b:c6:79:
                    89:9a:14:48:f6:a2:0d:a8:a5:ed:cd:58:41:5a:c0:
                    b6:cb:3c:1b:93:60:a6:6e:1e:73:1b:fe:17:cc:96:
                    35:06:e1:2e:0d:ed:da:18:ad:cd:61:5d:f2:9f:18:
                    28:72:c3:6c:7c:0d:96:e5:0e:06:0c:12:d5:d4:a6:
                    7d:e8:19:b6:9d:d3:d6:d4:0d:45:20:b4:04:d6:6a:
                    f9:ed:ae:43:d9:c4:9a:c7:e6:c9:06:83:43:42:86:
                    d5:b2:5b:5e:f1:64:43:48:83:0c:d8:1e:2b:6e:fe:
                    39:fb:ee:1c:8b:e4:ee:94:81:05:6a:5f:50:e6:48:
                    4a:30:0e:7f:df:b6:42:4c:77:32:90:66:79:32:8d:
                    e3:90:50:e9:22:d6:9e:20:96:c3:6c:a6:38:c3:6a:
                    c6:b2:21:5c:64:9f:49:ff:92:17:06:ef:33:52:b7:
                    d2:15:a5:3f:6e:ec:7b:b1:4d:12:22:48:5f:89:80:
                    71:8d:c7:72:6f:36:22:07:da:bc:b1:2f:4a:c9:6d:
                    96:6d:17:26:a0:45:3e:2c:b4:d2:4b:6c:3d:40:ed:
                    ac:c0:64:e4:78:ea:73:73:92:69:5f:fd:8e:3f:d6:
                    2a:25:73:eb:31:ad:72:bd:8d:d8:b2:2e:ff:d8:60:
                    9f:ec:8a:a7:28:d1:8a:a6:39:55:fc:49:2b:a9:0c:
                    04:f8:9a:9e:3f:2c:0c:98:12:f5:a5:a2:12:2d:ed:
                    ea:c5:df:41:2f:57:fb:dc:43:ef:c3:e7:57:9f:0b:
                    2c:74:81:76:8a:6c:6c:59:5c:b8:0e:b7:3f:8e:c6:
                    cc:e4:a4:c4:cb:23:8b:5c:04:21:3b:07:9a:d2:6d:
                    ef:0b:24:49:9f:1f:0b:46:d6:ac:5c:98:a9:4e:b8:
                    98:35:af:73:6f:c9:1f:08:de:e4:bf:5b:95:c0:01:
                    00:48:c9:dc:99:b8:28:ab:79:4e:c9:01:2f:98:66:
                    1e:0e:af:77:20:1e:6c:74:12:90:fe:76:3e:33:94:
                    a7:d2:1c:e1:32:9f:a8:b4:8b:6e:d0:26:fb:87:f6:
                    2f:51:cc:7d:56:4c:3d:ad:ed:ca:d0:5b:d4:9a:20:
                    02:bb:e5:99:97:3b:dc:c6:6a:18:28:28:1e:0a:32:
                    20:35:2b:23:2a:d2:d8:3d:ae:c2:70:8d:e1:f7:60:
                    03:9c:d3:28:b7:88:7f:85:3a:eb:08:69:b8:87:44:
                    06:5a:9d
                Exponent: 65537 (0x10001)
        X509v3 extensions:
            X509v3 Basic Constraints: 
                CA:FALSE
            Netscape Comment: 
                Easy-RSA Generated Certificate
            X509v3 Subject Key Identifier: 
                DC:7E:5A:D9:81:82:A7:11:40:EB:8C:FA:5E:FC:4B:AF:04:C8:F6:29
            X509v3 Authority Key Identifier: 
                keyid:EF:38:8D:14:50:58:A7:5B:4D:9C:17:72:FC:DF:B9:AC:A7:51:B0:10
                DirName:/C=US/ST=CA/L=SanFrancisco/O=Pixglo, Inc./OU=VPN-CIE/CN=tunnel.pixglo.com/name=Bala Chandrasekaran/emailAddress=bala@pixglo.com
                serial:A6:DB:C6:83:80:E6:A0:79

            X509v3 Extended Key Usage: 
                TLS Web Client Authentication
            X509v3 Key Usage: 
                Digital Signature
    Signature Algorithm: sha1WithRSAEncryption
         d8:30:0e:e6:b7:9b:22:64:6e:30:c9:31:c7:e4:f7:54:e1:9e:
         84:7b:bb:f7:a3:0b:1b:6a:5f:b4:ab:6b:f7:ed:1d:64:69:b6:
         88:85:42:c5:1c:71:e6:97:1f:98:f2:4c:bc:2e:2e:01:a5:dd:
         73:61:20:0a:f4:d3:0d:c4:01:a0:7f:58:f4:9b:a9:32:23:6b:
         67:19:28:77:6b:25:b0:24:93:f8:53:53:2d:70:2e:ad:6f:a4:
         b5:77:2c:2c:2b:78:41:5b:85:4b:71:73:9e:1a:fe:47:ae:95:
         45:c4:aa:9d:75:6f:a1:be:7c:58:9d:96:d8:9c:c4:d6:b7:48:
         c7:b2:64:6d:ed:0c:3a:26:9b:05:19:19:03:fa:7f:ca:0e:06:
         e0:4f:4d:63:c0:99:89:80:01:7f:6b:44:25:31:f9:74:86:5a:
         1e:74:3d:00:06:93:4e:ac:2c:f4:70:12:40:b0:ae:c9:49:85:
         6c:9d:bc:05:2c:a0:6d:98:14:67:de:a6:3b:42:bb:31:b0:ec:
         fb:81:75:76:a7:df:e0:93:2d:5c:f0:6b:1c:b7:09:6f:3e:f4:
         85:4f:b0:f1:11:1a:f1:af:d9:94:d6:86:21:88:87:92:91:cf:
         76:3a:15:51:69:f7:24:ed:35:55:9b:9c:54:bc:64:4f:ae:66:
         33:0b:c8:fb:23:ef:cc:1d:9a:94:bf:c9:6c:7b:00:e8:5c:53:
         df:d1:e7:96:0b:4b:99:44:b1:2b:ad:68:bc:6a:aa:37:04:44:
         cd:99:9c:55:b8:73:ca:22:d1:ea:1a:72:5d:b3:0c:5e:d4:f0:
         e3:d9:57:88:e8:2d:5c:76:f6:3b:27:a3:37:5a:7d:04:96:84:
         cb:1a:ef:01:37:89:47:cc:47:d9:55:1a:1a:53:9a:99:9d:fd:
         a0:5f:01:a1:36:2e:92:ad:61:55:76:75:af:0b:30:15:4c:9d:
         bb:1a:6b:be:ac:54:b8:72:56:bc:e5:45:cf:62:05:ea:91:1e:
         6f:a6:f4:af:fa:29:5e:5e:e7:c7:98:30:50:de:b1:1e:6e:83:
         7e:22:d0:33:65:7b:f9:93:41:17:25:a9:c9:57:0b:4e:90:2c:
         56:20:64:9c:30:f4:0e:1f:4e:33:62:a4:21:76:b8:39:ca:2a:
         10:93:e3:e9:45:53:67:d3:80:fb:a4:81:27:f5:f3:13:2c:59:
         66:b8:6e:bf:d2:15:a1:f1:04:b2:2f:e7:e3:1f:b3:df:56:74:
         57:f0:be:7a:7b:0d:19:e2:eb:b4:5a:22:1d:d8:72:ad:30:f0:
         bf:dd:55:76:e3:99:a7:a7:d5:a8:94:b5:06:03:ff:ca:da:4a:
         81:45:0f:45:a0:a6:75:57
-----BEGIN CERTIFICATE-----
MIIHRTCCBS2gAwIBAgIBAjANBgkqhkiG9w0BAQUFADCBtDELMAkGA1UEBhMCVVMx
CzAJBgNVBAgTAkNBMRUwEwYDVQQHEwxTYW5GcmFuY2lzY28xFTATBgNVBAoTDFBp
eGdsbywgSW5jLjEQMA4GA1UECxMHVlBOLUNJRTEaMBgGA1UEAxMRdHVubmVsLnBp
eGdsby5jb20xHDAaBgNVBCkTE0JhbGEgQ2hhbmRyYXNla2FyYW4xHjAcBgkqhkiG
9w0BCQEWD2JhbGFAcGl4Z2xvLmNvbTAeFw0xODAyMTQwNjI0MTFaFw0yODAyMTIw
NjI0MTFaMIGnMQswCQYDVQQGEwJVUzELMAkGA1UECBMCQ0ExFTATBgNVBAcTDFNh
bkZyYW5jaXNjbzEVMBMGA1UEChMMUGl4Z2xvLCBJbmMuMRAwDgYDVQQLEwdWUE4t
Q0lFMQ0wCwYDVQQDEwRjaWUxMRwwGgYDVQQpExNCYWxhIENoYW5kcmFzZWthcmFu
MR4wHAYJKoZIhvcNAQkBFg9iYWxhQHBpeGdsby5jb20wggIiMA0GCSqGSIb3DQEB
AQUAA4ICDwAwggIKAoICAQDF8a7WNfjKsTEMwFQbLp0OyT96J36u0gEGrPX6Y+yY
Mq8erklglPLKXbtCVNUlnBzTNH7kGIGgP2vGeYmaFEj2og2ope3NWEFawLbLPBuT
YKZuHnMb/hfMljUG4S4N7doYrc1hXfKfGChyw2x8DZblDgYMEtXUpn3oGbad09bU
DUUgtATWavntrkPZxJrH5skGg0NChtWyW17xZENIgwzYHitu/jn77hyL5O6UgQVq
X1DmSEowDn/ftkJMdzKQZnkyjeOQUOki1p4glsNspjjDasayIVxkn0n/khcG7zNS
t9IVpT9u7HuxTRIiSF+JgHGNx3JvNiIH2ryxL0rJbZZtFyagRT4stNJLbD1A7azA
ZOR46nNzkmlf/Y4/1iolc+sxrXK9jdiyLv/YYJ/siqco0YqmOVX8SSupDAT4mp4/
LAyYEvWlohIt7erF30EvV/vcQ+/D51efCyx0gXaKbGxZXLgOtz+OxszkpMTLI4tc
BCE7B5rSbe8LJEmfHwtG1qxcmKlOuJg1r3NvyR8I3uS/W5XAAQBIydyZuCireU7J
AS+YZh4Or3cgHmx0EpD+dj4zlKfSHOEyn6i0i27QJvuH9i9RzH1WTD2t7crQW9Sa
IAK75ZmXO9zGahgoKB4KMiA1KyMq0tg9rsJwjeH3YAOc0yi3iH+FOusIabiHRAZa
nQIDAQABo4IBazCCAWcwCQYDVR0TBAIwADAtBglghkgBhvhCAQ0EIBYeRWFzeS1S
U0EgR2VuZXJhdGVkIENlcnRpZmljYXRlMB0GA1UdDgQWBBTcflrZgYKnEUDrjPpe
/EuvBMj2KTCB6QYDVR0jBIHhMIHegBTvOI0UUFinW02cF3L837msp1GwEKGBuqSB
tzCBtDELMAkGA1UEBhMCVVMxCzAJBgNVBAgTAkNBMRUwEwYDVQQHEwxTYW5GcmFu
Y2lzY28xFTATBgNVBAoTDFBpeGdsbywgSW5jLjEQMA4GA1UECxMHVlBOLUNJRTEa
MBgGA1UEAxMRdHVubmVsLnBpeGdsby5jb20xHDAaBgNVBCkTE0JhbGEgQ2hhbmRy
YXNla2FyYW4xHjAcBgkqhkiG9w0BCQEWD2JhbGFAcGl4Z2xvLmNvbYIJAKbbxoOA
5qB5MBMGA1UdJQQMMAoGCCsGAQUFBwMCMAsGA1UdDwQEAwIHgDANBgkqhkiG9w0B
AQUFAAOCAgEA2DAO5rebImRuMMkxx+T3VOGehHu796MLG2pftKtr9+0dZGm2iIVC
xRxx5pcfmPJMvC4uAaXdc2EgCvTTDcQBoH9Y9JupMiNrZxkod2slsCST+FNTLXAu
rW+ktXcsLCt4QVuFS3Fznhr+R66VRcSqnXVvob58WJ2W2JzE1rdIx7Jkbe0MOiab
BRkZA/p/yg4G4E9NY8CZiYABf2tEJTH5dIZaHnQ9AAaTTqws9HASQLCuyUmFbJ28
BSygbZgUZ96mO0K7MbDs+4F1dqff4JMtXPBrHLcJbz70hU+w8REa8a/ZlNaGIYiH
kpHPdjoVUWn3JO01VZucVLxkT65mMwvI+yPvzB2alL/JbHsA6FxT39HnlgtLmUSx
K61ovGqqNwREzZmcVbhzyiLR6hpyXbMMXtTw49lXiOgtXHb2OyejN1p9BJaEyxrv
ATeJR8xH2VUaGlOamZ39oF8BoTYukq1hVXZ1rwswFUyduxprvqxUuHJWvOVFz2IF
6pEeb6b0r/opXl7nx5gwUN6xHm6DfiLQM2V7+ZNBFyWpyVcLTpAsViBknDD0Dh9O
M2KkIXa4OcoqEJPj6UVTZ9OA+6SBJ/XzEyxZZrhuv9IVofEEsi/n4x+z31Z0V/C+
ensNGeLrtFoiHdhyrTDwv91VduOZp6fVqJS1BgP/ytpKgUUPRaCmdVc=
-----END CERTIFICATE-----
