Certificate:
    Data:
        Version: 3 (0x2)
        Serial Number: 512 (0x200)
    Signature Algorithm: sha1WithRSAEncryption
        Issuer: C=US, ST=CA, L=SanFrancisco, O=Pixglo, Inc., OU=VPN-CIE, CN=tunnel.pixglo.com/name=Bala Chandrasekaran/emailAddress=bala@pixglo.com
        Validity
            Not Before: Feb 14 06:35:57 2018 GMT
            Not After : Feb 12 06:35:57 2028 GMT
        Subject: C=US, ST=CA, L=SanFrancisco, O=Pixglo, Inc., OU=VPN-CIE, CN=cie511/name=Bala Chandrasekaran/emailAddress=bala@pixglo.com
        Subject Public Key Info:
            Public Key Algorithm: rsaEncryption
                Public-Key: (4096 bit)
                Modulus:
                    00:98:8b:62:9d:f9:af:3b:de:0a:f7:c5:a9:77:8f:
                    19:a6:5e:19:43:55:d0:01:63:fc:7f:c3:3a:26:89:
                    3b:4f:1e:29:99:6f:74:6e:88:da:81:f0:19:80:9b:
                    1d:c7:9b:82:7a:c8:78:3c:04:90:e1:34:b5:b8:1b:
                    6e:3d:84:f0:09:27:6b:cb:ae:f7:48:27:34:44:38:
                    68:04:7f:f2:7d:75:18:77:dc:dd:07:8a:58:f3:a3:
                    75:70:fc:93:60:ca:f0:a5:1d:ff:47:96:be:c0:2d:
                    a4:4e:97:39:9f:00:4c:93:80:19:73:a8:2a:71:5d:
                    f7:58:7c:6b:74:f5:a3:19:8b:13:c3:6f:c2:fa:0b:
                    06:4a:1e:34:fe:f7:4a:18:bd:34:a7:f6:95:f2:c6:
                    c2:36:d7:db:ae:42:d3:c8:e1:1d:b7:12:52:f2:d7:
                    2b:54:f7:1d:ee:24:06:c7:ff:1f:23:0b:6a:64:92:
                    5f:ac:ba:94:46:28:a2:af:07:af:54:32:7f:38:ef:
                    4b:d7:4b:fe:9a:5b:7d:85:79:57:2a:43:eb:7e:db:
                    fa:2f:9b:07:7c:00:35:e3:5e:64:99:12:5d:b9:db:
                    33:f4:fa:40:09:9b:72:09:e3:d8:58:33:be:aa:4e:
                    4e:62:b6:4b:72:fc:e4:53:55:c6:ac:e4:ae:3c:b9:
                    b7:94:22:c8:68:9f:57:3f:d0:d9:61:bd:5a:b1:37:
                    51:e5:49:7a:0f:37:3f:e6:6d:ae:71:e7:87:f1:46:
                    f8:05:3c:29:f1:0e:73:e9:d9:49:24:69:7d:93:15:
                    92:67:0d:48:f9:0a:1b:6a:71:4b:06:52:8a:0f:b6:
                    78:2d:8d:5a:1d:d7:8f:64:52:42:a3:9e:2f:ff:aa:
                    3a:99:0f:13:17:73:af:ae:bc:c5:2b:4b:7b:ff:83:
                    b7:62:cf:5a:cb:86:03:30:98:1b:db:ce:63:1b:ea:
                    b3:7c:ec:77:5d:9d:63:f4:c0:a2:9e:9c:a2:97:f0:
                    9f:51:bb:b3:b8:e9:38:94:0d:b7:42:46:17:7a:3e:
                    6d:66:17:bc:10:c8:e0:69:1b:7f:0e:a2:11:cb:42:
                    d7:ea:a8:60:64:5d:1d:7d:9a:a5:ee:ca:d4:60:fe:
                    c4:bd:43:ec:f7:d4:a0:8d:6f:a1:65:89:6b:20:de:
                    36:68:8b:c6:db:3e:1d:b9:b9:ab:ca:ca:7e:0a:a5:
                    77:77:ab:d8:46:b9:ce:c8:62:81:86:1a:25:1d:bb:
                    7c:32:18:9f:71:11:f0:17:41:e8:a7:f3:0b:39:3d:
                    80:f5:27:ab:17:f6:28:52:e8:c8:9d:1d:6e:12:72:
                    55:01:5a:9d:5d:4a:78:49:bf:27:f5:7c:d7:39:ee:
                    48:19:43
                Exponent: 65537 (0x10001)
        X509v3 extensions:
            X509v3 Basic Constraints: 
                CA:FALSE
            Netscape Comment: 
                Easy-RSA Generated Certificate
            X509v3 Subject Key Identifier: 
                BE:F8:D0:CE:7C:A7:AC:92:32:66:96:98:21:1B:E2:7A:0E:12:9A:35
            X509v3 Authority Key Identifier: 
                keyid:EF:38:8D:14:50:58:A7:5B:4D:9C:17:72:FC:DF:B9:AC:A7:51:B0:10
                DirName:/C=US/ST=CA/L=SanFrancisco/O=Pixglo, Inc./OU=VPN-CIE/CN=tunnel.pixglo.com/name=Bala Chandrasekaran/emailAddress=bala@pixglo.com
                serial:A6:DB:C6:83:80:E6:A0:79

            X509v3 Extended Key Usage: 
                TLS Web Client Authentication
            X509v3 Key Usage: 
                Digital Signature
    Signature Algorithm: sha1WithRSAEncryption
         d6:6a:85:a8:96:46:66:08:32:81:56:7f:85:b7:a4:e8:65:68:
         7f:d3:ef:14:ea:af:79:d3:5b:8c:4a:be:30:f8:81:1d:f7:9e:
         6e:5c:52:a0:d2:50:07:b4:4f:fa:ac:52:d1:74:cd:7c:6b:af:
         03:17:69:b3:62:27:e0:75:9e:aa:7b:da:1e:97:ce:ce:5d:d0:
         fa:33:0e:be:a4:f3:9f:d5:aa:27:5a:48:75:8b:48:de:ae:be:
         bb:f3:fd:6d:09:68:79:7c:8b:b6:97:88:48:86:5b:bd:3e:c9:
         07:45:bf:58:04:bc:83:5d:13:db:ac:ec:95:3d:1d:ab:91:8c:
         7d:39:f8:76:89:e8:32:19:6e:85:27:7f:c1:3c:07:67:b3:86:
         14:9b:3c:c5:32:2f:d8:63:6e:ae:7c:b9:c7:d1:0e:93:b5:4a:
         36:32:6b:62:0b:e3:10:43:1e:b6:96:bc:d2:62:46:44:a2:26:
         cf:95:80:19:b2:ce:06:0e:ca:99:07:dc:02:7a:ae:ff:e5:c9:
         1a:22:5f:da:ce:b2:80:0b:84:c2:2a:48:c8:9f:cd:d4:31:a6:
         51:04:65:a6:e2:ab:77:3f:9a:5a:d7:bd:5b:08:de:56:cc:d0:
         20:7e:70:1f:20:81:a3:26:42:a3:00:1f:b5:a6:3f:13:ae:c5:
         83:f9:fb:40:4a:ef:80:ec:95:ab:1a:d4:ab:97:58:7c:4f:a5:
         f2:24:3a:dc:aa:6f:91:8e:3f:12:a6:34:4c:20:cb:4a:56:9b:
         a7:1d:01:b4:a3:5c:e2:b5:31:58:5c:ed:98:03:33:1a:ce:e5:
         74:66:a7:2c:25:eb:5e:9f:14:f7:4f:62:03:27:04:fa:1c:aa:
         3e:a2:3a:5c:11:0c:25:83:f4:4e:45:0e:b2:01:d3:ec:2f:14:
         d3:41:0c:6c:39:1a:93:6b:54:bf:6e:70:a3:d8:4e:89:ba:55:
         38:a8:cc:de:28:d5:95:75:8f:cd:80:95:5a:b5:c7:f9:89:03:
         cc:8e:ca:45:65:df:60:7b:95:09:75:8c:54:8f:39:f9:09:c2:
         71:34:5b:d6:79:aa:df:cf:17:6a:f4:f6:f9:eb:60:29:ed:f6:
         cf:26:8d:42:7d:39:e2:90:6e:43:35:42:e1:31:9a:3c:f1:5f:
         a3:a9:d2:ff:cb:90:28:56:3d:a3:d6:af:3b:c6:a2:ee:32:a2:
         c4:08:23:fe:87:ab:f9:92:b8:d9:46:73:e7:0a:c3:06:67:50:
         79:0f:5d:cc:f5:b2:4e:3e:48:2b:1b:0c:28:83:93:73:2d:f0:
         05:66:72:d0:29:c0:78:10:73:c9:a6:3f:8e:0e:65:2e:03:b9:
         b8:62:06:46:9c:f0:90:7c
-----BEGIN CERTIFICATE-----
MIIHSDCCBTCgAwIBAgICAgAwDQYJKoZIhvcNAQEFBQAwgbQxCzAJBgNVBAYTAlVT
MQswCQYDVQQIEwJDQTEVMBMGA1UEBxMMU2FuRnJhbmNpc2NvMRUwEwYDVQQKEwxQ
aXhnbG8sIEluYy4xEDAOBgNVBAsTB1ZQTi1DSUUxGjAYBgNVBAMTEXR1bm5lbC5w
aXhnbG8uY29tMRwwGgYDVQQpExNCYWxhIENoYW5kcmFzZWthcmFuMR4wHAYJKoZI
hvcNAQkBFg9iYWxhQHBpeGdsby5jb20wHhcNMTgwMjE0MDYzNTU3WhcNMjgwMjEy
MDYzNTU3WjCBqTELMAkGA1UEBhMCVVMxCzAJBgNVBAgTAkNBMRUwEwYDVQQHEwxT
YW5GcmFuY2lzY28xFTATBgNVBAoTDFBpeGdsbywgSW5jLjEQMA4GA1UECxMHVlBO
LUNJRTEPMA0GA1UEAxMGY2llNTExMRwwGgYDVQQpExNCYWxhIENoYW5kcmFzZWth
cmFuMR4wHAYJKoZIhvcNAQkBFg9iYWxhQHBpeGdsby5jb20wggIiMA0GCSqGSIb3
DQEBAQUAA4ICDwAwggIKAoICAQCYi2Kd+a873gr3xal3jxmmXhlDVdABY/x/wzom
iTtPHimZb3RuiNqB8BmAmx3Hm4J6yHg8BJDhNLW4G249hPAJJ2vLrvdIJzREOGgE
f/J9dRh33N0Hiljzo3Vw/JNgyvClHf9Hlr7ALaROlzmfAEyTgBlzqCpxXfdYfGt0
9aMZixPDb8L6CwZKHjT+90oYvTSn9pXyxsI219uuQtPI4R23ElLy1ytU9x3uJAbH
/x8jC2pkkl+supRGKKKvB69UMn8470vXS/6aW32FeVcqQ+t+2/ovmwd8ADXjXmSZ
El252zP0+kAJm3IJ49hYM76qTk5itkty/ORTVcas5K48ubeUIshon1c/0NlhvVqx
N1HlSXoPNz/mba5x54fxRvgFPCnxDnPp2UkkaX2TFZJnDUj5ChtqcUsGUooPtngt
jVod149kUkKjni//qjqZDxMXc6+uvMUrS3v/g7diz1rLhgMwmBvbzmMb6rN87Hdd
nWP0wKKenKKX8J9Ru7O46TiUDbdCRhd6Pm1mF7wQyOBpG38OohHLQtfqqGBkXR19
mqXuytRg/sS9Q+z31KCNb6FliWsg3jZoi8bbPh25uavKyn4KpXd3q9hGuc7IYoGG
GiUdu3wyGJ9xEfAXQein8ws5PYD1J6sX9ihS6MidHW4SclUBWp1dSnhJvyf1fNc5
7kgZQwIDAQABo4IBazCCAWcwCQYDVR0TBAIwADAtBglghkgBhvhCAQ0EIBYeRWFz
eS1SU0EgR2VuZXJhdGVkIENlcnRpZmljYXRlMB0GA1UdDgQWBBS++NDOfKeskjJm
lpghG+J6DhKaNTCB6QYDVR0jBIHhMIHegBTvOI0UUFinW02cF3L837msp1GwEKGB
uqSBtzCBtDELMAkGA1UEBhMCVVMxCzAJBgNVBAgTAkNBMRUwEwYDVQQHEwxTYW5G
cmFuY2lzY28xFTATBgNVBAoTDFBpeGdsbywgSW5jLjEQMA4GA1UECxMHVlBOLUNJ
RTEaMBgGA1UEAxMRdHVubmVsLnBpeGdsby5jb20xHDAaBgNVBCkTE0JhbGEgQ2hh
bmRyYXNla2FyYW4xHjAcBgkqhkiG9w0BCQEWD2JhbGFAcGl4Z2xvLmNvbYIJAKbb
xoOA5qB5MBMGA1UdJQQMMAoGCCsGAQUFBwMCMAsGA1UdDwQEAwIHgDANBgkqhkiG
9w0BAQUFAAOCAgEA1mqFqJZGZggygVZ/hbek6GVof9PvFOqvedNbjEq+MPiBHfee
blxSoNJQB7RP+qxS0XTNfGuvAxdps2In4HWeqnvaHpfOzl3Q+jMOvqTzn9WqJ1pI
dYtI3q6+u/P9bQloeXyLtpeISIZbvT7JB0W/WAS8g10T26zslT0dq5GMfTn4dono
MhluhSd/wTwHZ7OGFJs8xTIv2GNurny5x9EOk7VKNjJrYgvjEEMetpa80mJGRKIm
z5WAGbLOBg7KmQfcAnqu/+XJGiJf2s6ygAuEwipIyJ/N1DGmUQRlpuKrdz+aWte9
WwjeVszQIH5wHyCBoyZCowAftaY/E67Fg/n7QErvgOyVqxrUq5dYfE+l8iQ63Kpv
kY4/EqY0TCDLSlabpx0BtKNc4rUxWFztmAMzGs7ldGanLCXrXp8U909iAycE+hyq
PqI6XBEMJYP0TkUOsgHT7C8U00EMbDkak2tUv25wo9hOibpVOKjM3ijVlXWPzYCV
WrXH+YkDzI7KRWXfYHuVCXWMVI85+QnCcTRb1nmq388XavT2+etgKe32zyaNQn05
4pBuQzVC4TGaPPFfo6nS/8uQKFY9o9avO8ai7jKixAgj/oer+ZK42UZz5wrDBmdQ
eQ9dzPWyTj5IKxsMKIOTcy3wBWZy0CnAeBBzyaY/jg5lLgO5uGIGRpzwkHw=
-----END CERTIFICATE-----
