Certificate:
    Data:
        Version: 3 (0x2)
        Serial Number: 513 (0x201)
    Signature Algorithm: sha1WithRSAEncryption
        Issuer: C=US, ST=CA, L=SanFrancisco, O=Pixglo, Inc., OU=VPN-CIE, CN=tunnel.pixglo.com/name=Bala Chandrasekaran/emailAddress=bala@pixglo.com
        Validity
            Not Before: Feb 14 06:36:00 2018 GMT
            Not After : Feb 12 06:36:00 2028 GMT
        Subject: C=US, ST=CA, L=SanFrancisco, O=Pixglo, Inc., OU=VPN-CIE, CN=cie512/name=Bala Chandrasekaran/emailAddress=bala@pixglo.com
        Subject Public Key Info:
            Public Key Algorithm: rsaEncryption
                Public-Key: (4096 bit)
                Modulus:
                    00:ce:03:06:73:0e:3e:42:92:48:79:fc:1d:b6:5f:
                    1c:f0:35:76:fa:58:54:d9:7d:d9:e0:52:72:08:81:
                    06:29:0d:ee:df:f6:41:aa:37:4a:cf:76:49:0f:02:
                    36:55:c3:5e:a6:29:29:b7:cd:99:55:8e:29:3b:e8:
                    a8:82:24:e1:49:2a:22:d7:f5:46:c2:52:53:bd:e3:
                    a1:88:6d:e3:0b:32:bc:ab:de:18:e4:a1:06:e5:08:
                    2d:c7:a3:2f:33:37:5b:1e:83:20:7b:d8:63:66:11:
                    8d:ad:ac:5e:4a:d5:ad:cd:c1:4e:e6:99:ee:f6:52:
                    83:14:7c:e6:7f:7f:1a:0e:8b:af:eb:4c:72:b1:60:
                    9e:ea:ea:1d:22:50:7d:9a:15:39:27:e4:e9:14:2b:
                    9c:92:49:5f:6c:67:e9:43:63:82:17:39:3f:76:5a:
                    51:4c:5b:f1:ec:eb:e2:f8:33:9f:3d:04:3b:8d:37:
                    87:9a:69:22:99:af:ae:d5:a6:89:3d:61:d5:12:b7:
                    9a:90:1d:b4:26:c3:c6:72:4a:6a:b5:ae:5b:04:34:
                    39:46:95:cb:e2:10:e5:45:3d:94:6c:3b:38:cd:24:
                    1b:88:a2:43:5e:cc:af:e4:de:ce:6e:59:af:95:46:
                    02:36:3e:74:53:01:1e:44:84:31:ec:4d:14:c1:3f:
                    af:50:1f:3a:a3:2f:80:41:85:ac:c2:2e:7f:b9:20:
                    ee:de:68:f9:1e:de:3e:68:d7:be:75:f8:b4:d9:54:
                    96:19:3f:32:0d:e9:4c:19:95:0c:d2:df:8c:01:42:
                    67:b0:32:21:02:20:ea:15:10:52:ae:06:de:79:ee:
                    96:f7:c4:39:8a:f7:42:4d:c0:1a:ef:4a:38:64:75:
                    1e:60:17:f1:b6:9a:0e:ae:4a:cb:95:73:eb:79:bb:
                    44:74:e3:61:81:e8:e1:bb:a0:48:6c:dc:53:ba:47:
                    05:83:bf:79:32:fe:86:72:8c:c5:81:de:95:49:6a:
                    a7:66:28:dc:87:ab:fe:f7:7a:fb:ce:3d:86:02:39:
                    82:b4:cc:95:d9:d5:9e:6c:33:40:b9:22:72:47:91:
                    e0:eb:54:cd:b7:f2:99:31:27:6c:3a:de:e0:f5:17:
                    9d:37:31:8e:50:19:78:3a:ce:9e:e9:ea:1a:77:9e:
                    03:d4:51:8f:8e:dd:78:f4:66:00:e2:04:e9:2e:d5:
                    7a:a8:0b:72:af:dc:9c:96:b3:26:00:f7:03:39:f1:
                    31:87:8a:24:1b:60:65:54:20:53:79:ed:09:55:df:
                    b3:4f:be:50:2a:d4:3e:dc:1f:50:4a:55:67:84:85:
                    2c:5c:5d:ae:7e:46:f4:29:e6:db:3c:48:16:e3:b7:
                    c4:d1:bf
                Exponent: 65537 (0x10001)
        X509v3 extensions:
            X509v3 Basic Constraints: 
                CA:FALSE
            Netscape Comment: 
                Easy-RSA Generated Certificate
            X509v3 Subject Key Identifier: 
                54:3C:03:B7:A0:AE:41:08:E7:6A:D1:51:86:A7:90:F2:A1:40:9F:3B
            X509v3 Authority Key Identifier: 
                keyid:EF:38:8D:14:50:58:A7:5B:4D:9C:17:72:FC:DF:B9:AC:A7:51:B0:10
                DirName:/C=US/ST=CA/L=SanFrancisco/O=Pixglo, Inc./OU=VPN-CIE/CN=tunnel.pixglo.com/name=Bala Chandrasekaran/emailAddress=bala@pixglo.com
                serial:A6:DB:C6:83:80:E6:A0:79

            X509v3 Extended Key Usage: 
                TLS Web Client Authentication
            X509v3 Key Usage: 
                Digital Signature
    Signature Algorithm: sha1WithRSAEncryption
         be:b0:04:95:79:2d:0b:da:a5:07:2c:79:f0:5c:e0:1e:f6:ac:
         e8:4e:fe:c9:12:69:60:6a:50:5e:1a:19:4f:56:4c:1b:10:6a:
         f5:3e:20:de:d2:09:33:82:eb:0d:d6:7c:80:37:04:3d:39:da:
         24:f9:00:37:20:8f:3b:cd:22:f1:56:e0:94:e8:9e:3f:80:b1:
         08:f4:56:e7:ef:22:95:c3:0a:a4:13:82:76:fd:cf:8f:21:82:
         df:e9:1c:26:b8:f7:3a:68:21:ca:af:11:74:7a:70:00:0a:94:
         f1:40:50:35:22:5d:cb:58:3d:91:71:25:5b:4b:6f:1e:53:58:
         27:16:ca:13:af:e3:1f:0d:97:04:40:77:30:7e:9f:cb:41:45:
         17:54:2a:64:9e:b1:e1:6d:6e:88:2f:f5:6c:58:a7:9a:b5:2d:
         99:ab:1b:70:a3:3d:ed:5c:9f:56:e2:c8:c7:ff:6e:4e:9a:98:
         fd:4c:80:8b:e2:10:7b:fe:85:82:66:53:92:1c:c8:1b:ac:81:
         47:63:48:23:5b:9c:f7:82:5c:1b:36:42:50:41:87:6c:f4:a9:
         a5:3d:f0:eb:92:1e:ef:f6:73:05:10:15:89:95:8a:84:10:0d:
         b3:32:c9:20:56:93:30:50:64:5f:3a:38:67:f1:88:86:af:a3:
         66:93:57:26:6b:56:5b:ca:93:ac:de:61:e2:a7:72:2e:9b:5e:
         cb:91:0a:9d:e8:0e:47:d0:f7:c4:4c:21:be:df:0e:12:45:41:
         03:ce:e0:e9:04:e4:4b:84:46:29:ac:dc:69:ec:5e:17:7f:86:
         14:92:65:4b:39:a4:bd:09:3e:e9:97:94:d6:d9:6f:0c:a9:ad:
         42:ae:e0:40:b5:ea:25:eb:e0:92:f8:95:c9:40:62:24:a2:05:
         65:f3:4d:af:22:fd:42:11:cd:4d:42:2e:79:f6:01:65:50:e4:
         94:b0:b5:e5:fd:a1:de:98:7d:a0:e3:2f:3e:80:bb:ab:b5:31:
         30:e6:3b:c9:31:a7:64:98:26:7b:9c:43:82:bb:8c:9e:e7:31:
         11:40:f0:b8:69:ec:ec:df:81:e0:47:45:74:1d:c6:ef:98:4f:
         89:f8:d2:9d:c1:1b:a7:22:ad:1c:88:be:f3:63:7d:ae:7d:1c:
         96:a8:c4:84:9a:9f:47:e3:53:44:8d:b3:5e:41:f8:fb:ff:5c:
         8d:cc:ef:19:19:dd:8c:82:f1:92:71:b0:db:8f:76:79:cd:5f:
         d2:be:9d:3b:a8:2c:67:ea:87:68:6b:f5:aa:93:ac:bf:e2:be:
         39:50:1b:e9:0e:28:75:ce:95:e8:69:76:47:78:1f:61:19:10:
         f2:94:4e:9a:69:84:4a:dc
-----BEGIN CERTIFICATE-----
MIIHSDCCBTCgAwIBAgICAgEwDQYJKoZIhvcNAQEFBQAwgbQxCzAJBgNVBAYTAlVT
MQswCQYDVQQIEwJDQTEVMBMGA1UEBxMMU2FuRnJhbmNpc2NvMRUwEwYDVQQKEwxQ
aXhnbG8sIEluYy4xEDAOBgNVBAsTB1ZQTi1DSUUxGjAYBgNVBAMTEXR1bm5lbC5w
aXhnbG8uY29tMRwwGgYDVQQpExNCYWxhIENoYW5kcmFzZWthcmFuMR4wHAYJKoZI
hvcNAQkBFg9iYWxhQHBpeGdsby5jb20wHhcNMTgwMjE0MDYzNjAwWhcNMjgwMjEy
MDYzNjAwWjCBqTELMAkGA1UEBhMCVVMxCzAJBgNVBAgTAkNBMRUwEwYDVQQHEwxT
YW5GcmFuY2lzY28xFTATBgNVBAoTDFBpeGdsbywgSW5jLjEQMA4GA1UECxMHVlBO
LUNJRTEPMA0GA1UEAxMGY2llNTEyMRwwGgYDVQQpExNCYWxhIENoYW5kcmFzZWth
cmFuMR4wHAYJKoZIhvcNAQkBFg9iYWxhQHBpeGdsby5jb20wggIiMA0GCSqGSIb3
DQEBAQUAA4ICDwAwggIKAoICAQDOAwZzDj5Ckkh5/B22XxzwNXb6WFTZfdngUnII
gQYpDe7f9kGqN0rPdkkPAjZVw16mKSm3zZlVjik76KiCJOFJKiLX9UbCUlO946GI
beMLMryr3hjkoQblCC3Hoy8zN1segyB72GNmEY2trF5K1a3NwU7mme72UoMUfOZ/
fxoOi6/rTHKxYJ7q6h0iUH2aFTkn5OkUK5ySSV9sZ+lDY4IXOT92WlFMW/Hs6+L4
M589BDuNN4eaaSKZr67Vpok9YdUSt5qQHbQmw8ZySmq1rlsENDlGlcviEOVFPZRs
OzjNJBuIokNezK/k3s5uWa+VRgI2PnRTAR5EhDHsTRTBP69QHzqjL4BBhazCLn+5
IO7eaPke3j5o1751+LTZVJYZPzIN6UwZlQzS34wBQmewMiECIOoVEFKuBt557pb3
xDmK90JNwBrvSjhkdR5gF/G2mg6uSsuVc+t5u0R042GB6OG7oEhs3FO6RwWDv3ky
/oZyjMWB3pVJaqdmKNyHq/73evvOPYYCOYK0zJXZ1Z5sM0C5InJHkeDrVM238pkx
J2w63uD1F503MY5QGXg6zp7p6hp3ngPUUY+O3Xj0ZgDiBOku1XqoC3Kv3JyWsyYA
9wM58TGHiiQbYGVUIFN57QlV37NPvlAq1D7cH1BKVWeEhSxcXa5+RvQp5ts8SBbj
t8TRvwIDAQABo4IBazCCAWcwCQYDVR0TBAIwADAtBglghkgBhvhCAQ0EIBYeRWFz
eS1SU0EgR2VuZXJhdGVkIENlcnRpZmljYXRlMB0GA1UdDgQWBBRUPAO3oK5BCOdq
0VGGp5DyoUCfOzCB6QYDVR0jBIHhMIHegBTvOI0UUFinW02cF3L837msp1GwEKGB
uqSBtzCBtDELMAkGA1UEBhMCVVMxCzAJBgNVBAgTAkNBMRUwEwYDVQQHEwxTYW5G
cmFuY2lzY28xFTATBgNVBAoTDFBpeGdsbywgSW5jLjEQMA4GA1UECxMHVlBOLUNJ
RTEaMBgGA1UEAxMRdHVubmVsLnBpeGdsby5jb20xHDAaBgNVBCkTE0JhbGEgQ2hh
bmRyYXNla2FyYW4xHjAcBgkqhkiG9w0BCQEWD2JhbGFAcGl4Z2xvLmNvbYIJAKbb
xoOA5qB5MBMGA1UdJQQMMAoGCCsGAQUFBwMCMAsGA1UdDwQEAwIHgDANBgkqhkiG
9w0BAQUFAAOCAgEAvrAElXktC9qlByx58FzgHvas6E7+yRJpYGpQXhoZT1ZMGxBq
9T4g3tIJM4LrDdZ8gDcEPTnaJPkANyCPO80i8VbglOieP4CxCPRW5+8ilcMKpBOC
dv3PjyGC3+kcJrj3Omghyq8RdHpwAAqU8UBQNSJdy1g9kXElW0tvHlNYJxbKE6/j
Hw2XBEB3MH6fy0FFF1QqZJ6x4W1uiC/1bFinmrUtmasbcKM97VyfVuLIx/9uTpqY
/UyAi+IQe/6FgmZTkhzIG6yBR2NII1uc94JcGzZCUEGHbPSppT3w65Ie7/ZzBRAV
iZWKhBANszLJIFaTMFBkXzo4Z/GIhq+jZpNXJmtWW8qTrN5h4qdyLptey5EKnegO
R9D3xEwhvt8OEkVBA87g6QTkS4RGKazcaexeF3+GFJJlSzmkvQk+6ZeU1tlvDKmt
Qq7gQLXqJevgkviVyUBiJKIFZfNNryL9QhHNTUIuefYBZVDklLC15f2h3ph9oOMv
PoC7q7UxMOY7yTGnZJgme5xDgruMnucxEUDwuGns7N+B4EdFdB3G75hPifjSncEb
pyKtHIi+82N9rn0clqjEhJqfR+NTRI2zXkH4+/9cjczvGRndjILxknGw2492ec1f
0r6dO6gsZ+qHaGv1qpOsv+K+OVAb6Q4odc6V6Gl2R3gfYRkQ8pROmmmEStw=
-----END CERTIFICATE-----
