Certificate:
    Data:
        Version: 3 (0x2)
        Serial Number: 517 (0x205)
    Signature Algorithm: sha1WithRSAEncryption
        Issuer: C=US, ST=CA, L=SanFrancisco, O=Pixglo, Inc., OU=VPN-CIE, CN=tunnel.pixglo.com/name=Bala Chandrasekaran/emailAddress=bala@pixglo.com
        Validity
            Not Before: Feb 14 06:36:05 2018 GMT
            Not After : Feb 12 06:36:05 2028 GMT
        Subject: C=US, ST=CA, L=SanFrancisco, O=Pixglo, Inc., OU=VPN-CIE, CN=cie516/name=Bala Chandrasekaran/emailAddress=bala@pixglo.com
        Subject Public Key Info:
            Public Key Algorithm: rsaEncryption
                Public-Key: (4096 bit)
                Modulus:
                    00:ec:8e:f7:3a:25:28:ac:91:d7:94:50:2a:57:74:
                    2b:da:fe:1a:33:7f:09:1b:d3:b5:4f:16:15:84:67:
                    76:0a:15:b5:bf:e8:22:d8:6b:c7:c6:a3:4d:03:cc:
                    fd:c9:11:b4:ee:90:85:12:fc:0e:f8:f1:7b:34:36:
                    94:ef:1a:82:8b:11:e2:d9:8c:4a:32:a6:2a:a8:d1:
                    ea:0b:db:79:9d:4c:1e:d6:dd:d2:99:ed:c1:99:23:
                    33:51:06:2f:a7:ea:be:83:a6:2a:c0:bd:a3:ac:43:
                    ac:4c:58:c3:a0:f4:46:68:e3:5f:a3:0c:7a:e1:d0:
                    fb:df:b1:d3:14:74:f9:5b:e5:4e:da:6f:c6:7a:9b:
                    16:f3:79:e1:34:89:6d:d1:10:ac:52:be:eb:bc:13:
                    9c:55:4c:5d:bb:60:4f:13:13:11:d5:42:2a:f1:b0:
                    fc:46:e9:ad:70:ae:28:02:5d:f6:bf:fe:7f:cd:de:
                    25:5f:d8:c8:f6:17:ee:b0:d3:4f:48:34:39:d2:5f:
                    d0:5f:84:1a:15:18:4d:62:90:3c:83:bb:f1:73:f4:
                    c8:05:4f:9d:cf:c1:01:26:f0:1f:59:85:bf:fe:a6:
                    45:ca:da:e0:a3:b9:f0:4c:3e:3f:20:e0:3a:0f:37:
                    75:ce:64:94:7c:5c:a9:aa:55:9e:95:99:1b:26:b7:
                    fb:af:ba:34:d3:d5:96:3e:18:99:ec:a9:f0:f0:43:
                    f2:c6:a4:71:a9:d5:72:b5:01:3b:8e:06:3e:a9:f4:
                    e8:71:df:a0:95:d8:24:1f:30:6d:02:dd:4e:1d:cc:
                    07:c8:6f:89:c3:d4:b1:88:4a:7c:03:74:93:65:97:
                    d5:bc:3c:55:bc:21:f6:16:74:1b:8f:17:94:57:01:
                    f3:f2:60:c6:b4:54:72:e3:1c:b6:75:4e:23:19:1a:
                    59:da:d3:d1:86:35:23:f3:ad:f5:e4:c2:0f:6a:c6:
                    cc:77:e9:42:cc:7d:6b:79:b1:47:94:cb:17:44:fa:
                    2d:d5:f6:6e:fb:f8:86:d0:bd:66:65:d0:e0:5f:6a:
                    58:4b:d0:0d:a4:e3:e8:cb:3e:31:19:b3:07:3c:55:
                    44:3e:c6:d8:f1:a6:c5:a5:fa:6d:0d:12:1a:58:04:
                    4a:84:35:28:f8:9a:ad:d8:f1:1e:75:27:76:26:42:
                    c9:9d:89:32:2c:50:0f:a1:13:8c:3a:fe:72:a2:b4:
                    00:1a:98:11:59:a3:be:ce:9d:19:82:90:2e:34:3a:
                    f4:22:2f:9f:92:bc:a0:60:74:6a:78:d8:f7:bf:c1:
                    53:91:3d:f2:1d:59:86:21:8a:df:a5:df:02:1c:58:
                    3d:40:ef:65:5a:73:6d:e1:4b:46:a5:79:15:a0:6f:
                    9a:d4:85
                Exponent: 65537 (0x10001)
        X509v3 extensions:
            X509v3 Basic Constraints: 
                CA:FALSE
            Netscape Comment: 
                Easy-RSA Generated Certificate
            X509v3 Subject Key Identifier: 
                F2:FE:54:19:AA:FA:4E:77:BE:73:95:10:BC:1A:24:50:4E:C9:0E:C8
            X509v3 Authority Key Identifier: 
                keyid:EF:38:8D:14:50:58:A7:5B:4D:9C:17:72:FC:DF:B9:AC:A7:51:B0:10
                DirName:/C=US/ST=CA/L=SanFrancisco/O=Pixglo, Inc./OU=VPN-CIE/CN=tunnel.pixglo.com/name=Bala Chandrasekaran/emailAddress=bala@pixglo.com
                serial:A6:DB:C6:83:80:E6:A0:79

            X509v3 Extended Key Usage: 
                TLS Web Client Authentication
            X509v3 Key Usage: 
                Digital Signature
    Signature Algorithm: sha1WithRSAEncryption
         90:a8:d6:05:ce:ff:d8:7d:92:1a:18:5a:e7:f1:62:f8:28:00:
         bb:0a:b7:73:33:1b:81:81:50:9e:f9:4e:26:f9:2c:5d:01:08:
         70:fd:ef:f9:9c:5b:18:2a:99:c5:a1:56:11:8d:47:b9:4d:a9:
         04:97:eb:6f:16:ef:88:f1:41:3e:e9:fb:7e:1e:05:b9:2e:2e:
         e9:c0:46:6f:6a:17:b8:88:a4:1c:b3:d6:a9:af:07:44:e2:36:
         23:dd:6e:d5:bc:a1:f4:a8:6f:fb:06:c8:c3:33:00:95:fc:f5:
         61:03:75:df:a7:dd:3e:9a:9f:ab:27:73:8f:bb:85:8f:36:dd:
         f4:dd:f8:a2:5a:be:16:12:a6:aa:4c:f0:24:77:81:4f:b0:d0:
         7b:29:c3:ee:63:b5:35:a4:81:a8:f0:df:e9:b5:f3:23:04:63:
         d9:7a:85:7b:07:0d:cd:3b:a6:67:56:aa:fb:ef:a0:ab:10:28:
         f1:ca:c9:94:52:01:5f:3d:d2:f9:39:7b:ed:bf:6d:8c:dd:89:
         10:55:14:44:0e:0a:ba:35:46:17:c6:19:eb:28:b4:f8:0c:95:
         87:d9:39:df:33:95:37:28:79:77:46:62:78:76:0c:48:3d:41:
         15:40:e7:ed:08:1c:60:fe:17:55:87:0d:d2:05:79:60:bd:39:
         bf:ef:8f:17:07:52:89:86:4a:d5:49:6d:5d:9b:6b:c1:29:fd:
         fc:b9:f9:c8:e6:20:4f:2e:86:57:26:81:43:03:19:0c:ff:f8:
         a4:87:21:64:c5:35:d9:f8:ed:fe:30:29:a3:6b:a2:d1:26:1c:
         92:d1:0f:fb:13:3a:d2:5c:6f:0c:9c:48:0a:c3:30:88:d3:59:
         3a:34:ff:78:73:5c:6b:b8:70:73:c8:66:ad:7e:eb:7a:0b:2f:
         01:2a:f0:43:4a:9f:95:e4:c9:96:d3:4d:2c:a0:8d:0a:a1:10:
         6e:be:ed:58:8f:a1:11:0d:a5:ce:85:c3:c1:53:9d:84:f8:dc:
         f4:67:09:f9:19:45:63:1e:4a:f1:c8:eb:36:c6:1e:bb:dd:33:
         d2:5c:db:8c:94:ad:77:07:2d:75:3e:a1:0e:db:a5:28:35:1f:
         fd:2a:79:3b:2e:07:65:be:2a:b5:25:5f:a3:65:56:7b:f0:c3:
         1c:e1:6d:1f:53:f3:18:0f:9d:00:0e:a9:56:b9:a0:e2:50:a5:
         58:b5:52:c8:49:14:c3:30:e7:e4:30:02:bd:a7:7a:aa:d1:c1:
         b4:7b:0c:92:07:84:89:77:5e:fa:a9:83:34:12:06:5c:ed:99:
         90:c2:d1:0b:13:5c:17:d3:6e:3b:ed:13:88:3b:f1:fb:fb:b9:
         5a:ab:38:66:12:bd:ce:0f
-----BEGIN CERTIFICATE-----
MIIHSDCCBTCgAwIBAgICAgUwDQYJKoZIhvcNAQEFBQAwgbQxCzAJBgNVBAYTAlVT
MQswCQYDVQQIEwJDQTEVMBMGA1UEBxMMU2FuRnJhbmNpc2NvMRUwEwYDVQQKEwxQ
aXhnbG8sIEluYy4xEDAOBgNVBAsTB1ZQTi1DSUUxGjAYBgNVBAMTEXR1bm5lbC5w
aXhnbG8uY29tMRwwGgYDVQQpExNCYWxhIENoYW5kcmFzZWthcmFuMR4wHAYJKoZI
hvcNAQkBFg9iYWxhQHBpeGdsby5jb20wHhcNMTgwMjE0MDYzNjA1WhcNMjgwMjEy
MDYzNjA1WjCBqTELMAkGA1UEBhMCVVMxCzAJBgNVBAgTAkNBMRUwEwYDVQQHEwxT
YW5GcmFuY2lzY28xFTATBgNVBAoTDFBpeGdsbywgSW5jLjEQMA4GA1UECxMHVlBO
LUNJRTEPMA0GA1UEAxMGY2llNTE2MRwwGgYDVQQpExNCYWxhIENoYW5kcmFzZWth
cmFuMR4wHAYJKoZIhvcNAQkBFg9iYWxhQHBpeGdsby5jb20wggIiMA0GCSqGSIb3
DQEBAQUAA4ICDwAwggIKAoICAQDsjvc6JSiskdeUUCpXdCva/hozfwkb07VPFhWE
Z3YKFbW/6CLYa8fGo00DzP3JEbTukIUS/A748Xs0NpTvGoKLEeLZjEoypiqo0eoL
23mdTB7W3dKZ7cGZIzNRBi+n6r6DpirAvaOsQ6xMWMOg9EZo41+jDHrh0PvfsdMU
dPlb5U7ab8Z6mxbzeeE0iW3REKxSvuu8E5xVTF27YE8TExHVQirxsPxG6a1wrigC
Xfa//n/N3iVf2Mj2F+6w009INDnSX9BfhBoVGE1ikDyDu/Fz9MgFT53PwQEm8B9Z
hb/+pkXK2uCjufBMPj8g4DoPN3XOZJR8XKmqVZ6VmRsmt/uvujTT1ZY+GJnsqfDw
Q/LGpHGp1XK1ATuOBj6p9Ohx36CV2CQfMG0C3U4dzAfIb4nD1LGISnwDdJNll9W8
PFW8IfYWdBuPF5RXAfPyYMa0VHLjHLZ1TiMZGlna09GGNSPzrfXkwg9qxsx36ULM
fWt5sUeUyxdE+i3V9m77+IbQvWZl0OBfalhL0A2k4+jLPjEZswc8VUQ+xtjxpsWl
+m0NEhpYBEqENSj4mq3Y8R51J3YmQsmdiTIsUA+hE4w6/nKitAAamBFZo77OnRmC
kC40OvQiL5+SvKBgdGp42Pe/wVORPfIdWYYhit+l3wIcWD1A72Vac23hS0aleRWg
b5rUhQIDAQABo4IBazCCAWcwCQYDVR0TBAIwADAtBglghkgBhvhCAQ0EIBYeRWFz
eS1SU0EgR2VuZXJhdGVkIENlcnRpZmljYXRlMB0GA1UdDgQWBBTy/lQZqvpOd75z
lRC8GiRQTskOyDCB6QYDVR0jBIHhMIHegBTvOI0UUFinW02cF3L837msp1GwEKGB
uqSBtzCBtDELMAkGA1UEBhMCVVMxCzAJBgNVBAgTAkNBMRUwEwYDVQQHEwxTYW5G
cmFuY2lzY28xFTATBgNVBAoTDFBpeGdsbywgSW5jLjEQMA4GA1UECxMHVlBOLUNJ
RTEaMBgGA1UEAxMRdHVubmVsLnBpeGdsby5jb20xHDAaBgNVBCkTE0JhbGEgQ2hh
bmRyYXNla2FyYW4xHjAcBgkqhkiG9w0BCQEWD2JhbGFAcGl4Z2xvLmNvbYIJAKbb
xoOA5qB5MBMGA1UdJQQMMAoGCCsGAQUFBwMCMAsGA1UdDwQEAwIHgDANBgkqhkiG
9w0BAQUFAAOCAgEAkKjWBc7/2H2SGhha5/Fi+CgAuwq3czMbgYFQnvlOJvksXQEI
cP3v+ZxbGCqZxaFWEY1HuU2pBJfrbxbviPFBPun7fh4FuS4u6cBGb2oXuIikHLPW
qa8HROI2I91u1byh9Khv+wbIwzMAlfz1YQN136fdPpqfqydzj7uFjzbd9N34olq+
FhKmqkzwJHeBT7DQeynD7mO1NaSBqPDf6bXzIwRj2XqFewcNzTumZ1aq+++gqxAo
8crJlFIBXz3S+Tl77b9tjN2JEFUURA4KujVGF8YZ6yi0+AyVh9k53zOVNyh5d0Zi
eHYMSD1BFUDn7QgcYP4XVYcN0gV5YL05v++PFwdSiYZK1UltXZtrwSn9/Ln5yOYg
Ty6GVyaBQwMZDP/4pIchZMU12fjt/jApo2ui0SYcktEP+xM60lxvDJxICsMwiNNZ
OjT/eHNca7hwc8hmrX7regsvASrwQ0qfleTJltNNLKCNCqEQbr7tWI+hEQ2lzoXD
wVOdhPjc9GcJ+RlFYx5K8cjrNsYeu90z0lzbjJStdwctdT6hDtulKDUf/Sp5Oy4H
Zb4qtSVfo2VWe/DDHOFtH1PzGA+dAA6pVrmg4lClWLVSyEkUwzDn5DACvad6qtHB
tHsMkgeEiXde+qmDNBIGXO2ZkMLRCxNcF9NuO+0TiDvx+/u5Wqs4ZhK9zg8=
-----END CERTIFICATE-----
