Certificate:
    Data:
        Version: 3 (0x2)
        Serial Number: 518 (0x206)
    Signature Algorithm: sha1WithRSAEncryption
        Issuer: C=US, ST=CA, L=SanFrancisco, O=Pixglo, Inc., OU=VPN-CIE, CN=tunnel.pixglo.com/name=Bala Chandrasekaran/emailAddress=bala@pixglo.com
        Validity
            Not Before: Feb 14 06:36:06 2018 GMT
            Not After : Feb 12 06:36:06 2028 GMT
        Subject: C=US, ST=CA, L=SanFrancisco, O=Pixglo, Inc., OU=VPN-CIE, CN=cie517/name=Bala Chandrasekaran/emailAddress=bala@pixglo.com
        Subject Public Key Info:
            Public Key Algorithm: rsaEncryption
                Public-Key: (4096 bit)
                Modulus:
                    00:b9:54:69:23:ee:c4:8a:02:2f:a5:6f:df:4a:ad:
                    c5:d9:6e:f1:2f:69:86:a6:83:30:3f:02:c6:6e:36:
                    7e:de:7f:ee:6e:59:ba:39:30:cd:b2:19:12:e3:a4:
                    e4:c9:fd:1c:bb:5b:93:6f:a1:51:fa:70:fa:30:80:
                    7a:00:04:ee:d5:d0:b3:db:cf:48:25:c5:e2:10:3c:
                    67:b3:ea:c1:d8:75:79:59:2b:0e:bf:3b:ad:1c:11:
                    53:db:2c:16:af:56:ca:05:05:96:c3:6f:83:d4:8a:
                    2f:b6:c1:cb:5f:ca:4e:ba:51:2a:ed:5a:39:70:dd:
                    c2:40:5b:c1:c7:65:9c:3a:72:07:23:73:66:8f:4d:
                    53:d9:aa:92:ca:00:ed:01:a2:74:26:46:e7:41:a0:
                    57:da:e4:3c:b4:ab:a9:af:44:bc:dd:e7:87:54:a1:
                    f5:20:5d:ad:f1:9b:d7:43:44:f7:cf:7c:9a:38:84:
                    c9:58:a7:61:cb:0e:3c:af:b2:9d:bb:49:bf:ce:ea:
                    13:d5:b4:6d:68:00:72:eb:9e:bb:7e:ce:9f:8b:7c:
                    ae:87:b3:d8:8d:c4:a7:25:d3:d7:ea:a5:47:5a:e8:
                    e8:f8:32:ce:28:8b:5f:06:dd:bf:23:df:5e:25:5a:
                    07:5d:02:56:4e:c4:68:2c:00:c3:9f:51:ca:0e:21:
                    6a:13:40:b1:a2:77:ed:9c:7f:0e:ef:ff:52:b4:a7:
                    cc:49:37:7a:f1:22:b4:55:a0:98:5e:d8:43:04:27:
                    51:cb:dd:34:d7:02:d5:ac:f6:f5:fb:08:c7:52:cf:
                    03:27:2f:1c:7d:3c:69:f6:c0:3b:7e:54:f2:77:87:
                    3e:4c:1a:5f:8a:42:b3:85:de:12:1b:7a:db:84:16:
                    a0:84:c5:5d:5d:1a:50:7f:28:60:a2:9b:dd:a8:c1:
                    01:52:24:6e:9b:7a:16:28:60:86:bc:3e:5f:91:6b:
                    5c:f5:ce:c0:b3:48:56:a0:65:88:4f:07:b6:5f:ab:
                    93:d0:cd:3f:ec:c0:a1:4f:3c:b4:a7:6e:30:38:23:
                    39:df:70:80:b0:f3:58:22:69:b6:8c:72:ca:14:e8:
                    2e:e8:33:aa:cf:c2:b2:3c:91:d9:e3:b5:3c:d4:b3:
                    9f:82:ce:02:cb:e2:4c:ef:a2:58:6c:99:53:56:95:
                    10:52:60:13:b5:92:b4:b2:58:da:74:8c:fe:fe:57:
                    42:17:85:61:ce:9a:8a:df:b9:50:b3:21:58:21:27:
                    47:a7:23:71:35:53:a0:f8:2b:13:4a:8d:9b:4d:52:
                    32:db:e4:62:af:26:54:0f:bb:eb:e8:9d:1b:f0:c8:
                    04:30:f9:6f:32:a0:35:f9:d8:5a:26:85:33:43:85:
                    93:3c:4f
                Exponent: 65537 (0x10001)
        X509v3 extensions:
            X509v3 Basic Constraints: 
                CA:FALSE
            Netscape Comment: 
                Easy-RSA Generated Certificate
            X509v3 Subject Key Identifier: 
                D9:90:10:35:F2:22:78:A0:EF:7E:13:8D:9D:04:CA:2F:88:3D:7E:E3
            X509v3 Authority Key Identifier: 
                keyid:EF:38:8D:14:50:58:A7:5B:4D:9C:17:72:FC:DF:B9:AC:A7:51:B0:10
                DirName:/C=US/ST=CA/L=SanFrancisco/O=Pixglo, Inc./OU=VPN-CIE/CN=tunnel.pixglo.com/name=Bala Chandrasekaran/emailAddress=bala@pixglo.com
                serial:A6:DB:C6:83:80:E6:A0:79

            X509v3 Extended Key Usage: 
                TLS Web Client Authentication
            X509v3 Key Usage: 
                Digital Signature
    Signature Algorithm: sha1WithRSAEncryption
         2d:4d:05:b6:9f:9c:39:dc:a5:c9:48:cc:e0:ff:46:c6:bd:f9:
         d0:6a:8a:da:93:ce:7a:d1:93:1e:38:f2:a7:12:f1:ac:d8:9c:
         f1:0a:76:51:ab:dc:cb:be:b2:0a:d2:63:e4:0d:14:ee:e4:18:
         eb:06:a9:8f:4b:dc:1b:4b:4f:aa:66:59:ac:a2:8d:52:2c:a0:
         11:d3:51:55:a0:0d:8c:d5:9b:12:3d:14:19:a8:9b:c4:d5:22:
         b5:ca:e8:92:b1:b6:d9:41:6f:49:82:12:f0:2c:a2:51:b8:74:
         5f:a8:71:85:99:e2:ad:03:7f:6d:b3:e6:7b:0b:47:45:3e:d3:
         e4:12:e9:7c:0e:b9:63:94:c7:cd:2f:08:a1:6b:3f:48:45:52:
         79:56:f3:79:8c:92:17:5d:a3:54:57:e7:35:d9:04:51:b9:ee:
         f1:b6:c2:3b:9b:f2:99:25:06:b0:66:04:b2:46:d5:85:64:86:
         06:68:67:3f:46:cc:29:24:80:af:14:0e:69:f4:ca:51:e2:e2:
         33:08:63:ae:09:29:b2:78:82:5a:d1:74:13:47:b9:a9:22:65:
         53:e7:96:09:de:b1:96:60:95:42:0b:16:af:e2:95:b5:ff:f3:
         f5:64:f5:2f:bf:b7:1e:22:67:6a:95:89:52:3e:22:3f:0d:be:
         d3:d6:95:7b:c9:93:b8:c8:24:79:0e:ea:35:a2:4b:b6:25:e9:
         4e:31:4c:20:d7:14:70:09:84:68:a8:2c:b5:e1:e4:cf:30:96:
         72:b0:1a:cf:bc:4f:a8:9b:92:cc:f0:b5:09:b6:c2:06:02:ae:
         8e:cf:bd:b1:f2:ad:ce:9a:9d:ae:3d:59:5e:96:9a:fd:62:1c:
         01:59:8b:63:12:9b:67:44:af:4f:05:e1:68:ab:d8:8a:ba:cc:
         fb:be:f0:5b:1e:a3:8c:df:d4:fc:dd:c4:03:a8:ca:4a:8f:47:
         65:7d:59:a4:c0:ce:4b:58:c9:21:a5:fd:11:22:1e:7e:9c:5b:
         7f:98:d1:14:3a:dd:0a:47:a9:00:8c:76:6f:a1:3d:31:e0:3e:
         2b:c4:fe:55:2a:d1:d4:1a:b5:4d:03:42:c9:91:cb:32:81:59:
         cf:26:a2:01:fa:a9:b3:4d:38:80:94:6c:62:d4:06:cf:53:f7:
         fa:05:b8:3d:df:77:d0:ec:4b:04:16:b4:50:27:0b:33:80:6e:
         eb:0c:96:66:e7:01:6f:5e:54:4e:8f:28:1e:b2:c5:39:07:e0:
         c1:94:cb:01:1b:a0:b0:78:08:a4:fb:3e:db:36:4c:94:ae:89:
         79:1f:b8:e4:84:76:1c:4c:5e:f0:5c:ba:de:b8:40:0a:fc:bf:
         78:0e:bb:4f:63:3d:88:c0
-----BEGIN CERTIFICATE-----
MIIHSDCCBTCgAwIBAgICAgYwDQYJKoZIhvcNAQEFBQAwgbQxCzAJBgNVBAYTAlVT
MQswCQYDVQQIEwJDQTEVMBMGA1UEBxMMU2FuRnJhbmNpc2NvMRUwEwYDVQQKEwxQ
aXhnbG8sIEluYy4xEDAOBgNVBAsTB1ZQTi1DSUUxGjAYBgNVBAMTEXR1bm5lbC5w
aXhnbG8uY29tMRwwGgYDVQQpExNCYWxhIENoYW5kcmFzZWthcmFuMR4wHAYJKoZI
hvcNAQkBFg9iYWxhQHBpeGdsby5jb20wHhcNMTgwMjE0MDYzNjA2WhcNMjgwMjEy
MDYzNjA2WjCBqTELMAkGA1UEBhMCVVMxCzAJBgNVBAgTAkNBMRUwEwYDVQQHEwxT
YW5GcmFuY2lzY28xFTATBgNVBAoTDFBpeGdsbywgSW5jLjEQMA4GA1UECxMHVlBO
LUNJRTEPMA0GA1UEAxMGY2llNTE3MRwwGgYDVQQpExNCYWxhIENoYW5kcmFzZWth
cmFuMR4wHAYJKoZIhvcNAQkBFg9iYWxhQHBpeGdsby5jb20wggIiMA0GCSqGSIb3
DQEBAQUAA4ICDwAwggIKAoICAQC5VGkj7sSKAi+lb99KrcXZbvEvaYamgzA/AsZu
Nn7ef+5uWbo5MM2yGRLjpOTJ/Ry7W5NvoVH6cPowgHoABO7V0LPbz0glxeIQPGez
6sHYdXlZKw6/O60cEVPbLBavVsoFBZbDb4PUii+2wctfyk66USrtWjlw3cJAW8HH
ZZw6cgcjc2aPTVPZqpLKAO0BonQmRudBoFfa5Dy0q6mvRLzd54dUofUgXa3xm9dD
RPfPfJo4hMlYp2HLDjyvsp27Sb/O6hPVtG1oAHLrnrt+zp+LfK6Hs9iNxKcl09fq
pUda6Oj4Ms4oi18G3b8j314lWgddAlZOxGgsAMOfUcoOIWoTQLGid+2cfw7v/1K0
p8xJN3rxIrRVoJhe2EMEJ1HL3TTXAtWs9vX7CMdSzwMnLxx9PGn2wDt+VPJ3hz5M
Gl+KQrOF3hIbetuEFqCExV1dGlB/KGCim92owQFSJG6behYoYIa8Pl+Ra1z1zsCz
SFagZYhPB7Zfq5PQzT/swKFPPLSnbjA4IznfcICw81giabaMcsoU6C7oM6rPwrI8
kdnjtTzUs5+CzgLL4kzvolhsmVNWlRBSYBO1krSyWNp0jP7+V0IXhWHOmorfuVCz
IVghJ0enI3E1U6D4KxNKjZtNUjLb5GKvJlQPu+vonRvwyAQw+W8yoDX52FomhTND
hZM8TwIDAQABo4IBazCCAWcwCQYDVR0TBAIwADAtBglghkgBhvhCAQ0EIBYeRWFz
eS1SU0EgR2VuZXJhdGVkIENlcnRpZmljYXRlMB0GA1UdDgQWBBTZkBA18iJ4oO9+
E42dBMoviD1+4zCB6QYDVR0jBIHhMIHegBTvOI0UUFinW02cF3L837msp1GwEKGB
uqSBtzCBtDELMAkGA1UEBhMCVVMxCzAJBgNVBAgTAkNBMRUwEwYDVQQHEwxTYW5G
cmFuY2lzY28xFTATBgNVBAoTDFBpeGdsbywgSW5jLjEQMA4GA1UECxMHVlBOLUNJ
RTEaMBgGA1UEAxMRdHVubmVsLnBpeGdsby5jb20xHDAaBgNVBCkTE0JhbGEgQ2hh
bmRyYXNla2FyYW4xHjAcBgkqhkiG9w0BCQEWD2JhbGFAcGl4Z2xvLmNvbYIJAKbb
xoOA5qB5MBMGA1UdJQQMMAoGCCsGAQUFBwMCMAsGA1UdDwQEAwIHgDANBgkqhkiG
9w0BAQUFAAOCAgEALU0Ftp+cOdylyUjM4P9Gxr350GqK2pPOetGTHjjypxLxrNic
8Qp2Uavcy76yCtJj5A0U7uQY6wapj0vcG0tPqmZZrKKNUiygEdNRVaANjNWbEj0U
GaibxNUitcrokrG22UFvSYIS8CyiUbh0X6hxhZnirQN/bbPmewtHRT7T5BLpfA65
Y5THzS8IoWs/SEVSeVbzeYySF12jVFfnNdkEUbnu8bbCO5vymSUGsGYEskbVhWSG
BmhnP0bMKSSArxQOafTKUeLiMwhjrgkpsniCWtF0E0e5qSJlU+eWCd6xlmCVQgsW
r+KVtf/z9WT1L7+3HiJnapWJUj4iPw2+09aVe8mTuMgkeQ7qNaJLtiXpTjFMINcU
cAmEaKgsteHkzzCWcrAaz7xPqJuSzPC1CbbCBgKujs+9sfKtzpqdrj1ZXpaa/WIc
AVmLYxKbZ0SvTwXhaKvYirrM+77wWx6jjN/U/N3EA6jKSo9HZX1ZpMDOS1jJIaX9
ESIefpxbf5jRFDrdCkepAIx2b6E9MeA+K8T+VSrR1Bq1TQNCyZHLMoFZzyaiAfqp
s004gJRsYtQGz1P3+gW4Pd930OxLBBa0UCcLM4Bu6wyWZucBb15UTo8oHrLFOQfg
wZTLARugsHgIpPs+2zZMlK6JeR+45IR2HExe8Fy63rhACvy/eA67T2M9iMA=
-----END CERTIFICATE-----
