Certificate:
    Data:
        Version: 3 (0x2)
        Serial Number: 520 (0x208)
    Signature Algorithm: sha1WithRSAEncryption
        Issuer: C=US, ST=CA, L=SanFrancisco, O=Pixglo, Inc., OU=VPN-CIE, CN=tunnel.pixglo.com/name=Bala Chandrasekaran/emailAddress=bala@pixglo.com
        Validity
            Not Before: Feb 14 06:36:07 2018 GMT
            Not After : Feb 12 06:36:07 2028 GMT
        Subject: C=US, ST=CA, L=SanFrancisco, O=Pixglo, Inc., OU=VPN-CIE, CN=cie519/name=Bala Chandrasekaran/emailAddress=bala@pixglo.com
        Subject Public Key Info:
            Public Key Algorithm: rsaEncryption
                Public-Key: (4096 bit)
                Modulus:
                    00:b8:45:8b:48:df:54:cd:8c:fb:3a:b1:8b:89:af:
                    55:7d:11:1a:ae:84:ee:a5:56:25:08:72:b4:23:15:
                    a0:2a:f2:54:ad:65:1b:05:b0:50:eb:73:03:46:65:
                    4d:68:24:6b:49:81:a5:d6:66:93:ec:8c:cf:fa:71:
                    2e:dd:00:38:ee:97:65:42:44:93:d9:a2:21:8a:66:
                    c2:28:fa:83:c8:9f:81:07:3d:d0:36:72:49:82:1f:
                    f8:de:3c:58:bc:97:71:3d:db:88:04:b6:89:bf:bc:
                    c1:b6:e8:06:d2:ce:26:9e:25:38:eb:b0:31:a9:ff:
                    7b:5e:2b:49:01:d2:3e:ab:c3:aa:1f:60:3b:50:04:
                    9b:4d:f3:b0:38:0e:17:b2:16:9c:cc:cd:73:04:ed:
                    32:71:6f:6e:2c:1b:c5:d3:9d:68:1b:01:7c:be:28:
                    d1:29:e9:b4:6f:2a:bc:65:c7:ec:09:94:79:a7:e2:
                    1f:70:6d:50:a4:56:42:66:6b:58:d5:54:30:b7:cd:
                    18:ac:09:28:16:d9:83:50:0d:53:da:9e:19:4b:58:
                    21:8c:69:73:ca:56:f2:e6:5d:e5:fe:92:ba:61:08:
                    fe:a9:36:0e:0d:22:01:dc:aa:39:82:c8:b5:46:91:
                    1b:ef:61:7c:c5:dd:0e:d5:9b:90:34:f9:98:f0:5a:
                    63:8f:0b:28:99:46:ff:ae:4e:49:05:63:04:bb:74:
                    60:e8:67:c2:2f:5c:5c:a3:dd:d2:07:28:0c:95:95:
                    08:97:22:63:ab:37:98:57:30:fc:d6:e1:ec:87:c9:
                    a5:7b:62:72:cb:1b:40:5b:d6:3b:73:c1:d7:8c:3b:
                    eb:4e:f7:b3:b5:7a:3c:0d:19:68:26:17:5e:8e:6e:
                    e1:99:13:24:51:a1:87:f7:e5:a5:65:f8:b2:9c:87:
                    60:94:14:10:16:30:e9:24:22:17:e0:ad:42:c5:ed:
                    98:0c:5f:8f:8f:b4:b7:b9:1c:c6:47:dd:1b:ab:a9:
                    f1:0f:9b:c8:d3:d9:dd:3e:04:76:d3:cd:2a:89:96:
                    25:51:09:7d:16:0e:0c:c9:36:75:5b:b8:00:10:39:
                    31:5f:99:ed:c0:8f:2f:5a:47:51:07:a5:80:14:c9:
                    35:e9:01:a2:04:75:13:a0:5c:99:40:64:67:30:79:
                    0e:d8:d9:1f:25:5d:b6:7e:65:43:84:94:8a:00:46:
                    bb:8f:1d:07:be:53:15:9d:c3:44:4d:b3:37:9e:ec:
                    d9:fe:a3:5f:f6:7b:b0:a7:95:cd:58:06:ab:59:db:
                    ef:8e:e1:db:4f:7c:30:f8:9c:5d:e3:14:2f:83:12:
                    14:db:4c:cd:08:80:78:73:97:c7:09:2a:8c:f3:7a:
                    4e:86:ed
                Exponent: 65537 (0x10001)
        X509v3 extensions:
            X509v3 Basic Constraints: 
                CA:FALSE
            Netscape Comment: 
                Easy-RSA Generated Certificate
            X509v3 Subject Key Identifier: 
                07:4E:6A:62:5B:54:9C:EE:85:4F:3A:FC:5D:C0:B2:E0:63:A8:60:C3
            X509v3 Authority Key Identifier: 
                keyid:EF:38:8D:14:50:58:A7:5B:4D:9C:17:72:FC:DF:B9:AC:A7:51:B0:10
                DirName:/C=US/ST=CA/L=SanFrancisco/O=Pixglo, Inc./OU=VPN-CIE/CN=tunnel.pixglo.com/name=Bala Chandrasekaran/emailAddress=bala@pixglo.com
                serial:A6:DB:C6:83:80:E6:A0:79

            X509v3 Extended Key Usage: 
                TLS Web Client Authentication
            X509v3 Key Usage: 
                Digital Signature
    Signature Algorithm: sha1WithRSAEncryption
         aa:e7:03:ee:bf:ba:ec:b1:b7:12:fe:f3:48:9c:19:d6:6b:4a:
         ca:b6:16:d2:fa:61:fb:76:ba:6c:b5:32:ee:6b:43:4d:7b:a2:
         db:d7:23:bb:e4:69:49:a0:89:df:f5:78:15:f1:7f:80:da:fc:
         4a:b0:be:50:22:2d:35:c4:a1:1c:46:19:0d:f9:61:87:53:02:
         11:16:7b:ea:26:2a:f7:e4:7c:af:ea:f0:6a:f2:b3:3a:78:36:
         c4:52:05:9f:67:63:0b:70:81:1b:61:fb:a5:6a:f3:05:c0:d1:
         ed:5a:bc:80:06:a0:08:88:3c:df:ce:13:f3:05:0c:8e:47:8d:
         3b:6a:0b:9a:55:15:b4:0d:c7:df:88:7e:81:37:4f:5f:80:35:
         f2:60:30:e6:9b:c0:fc:4f:3b:99:42:95:7f:c2:13:f2:4c:5e:
         09:3f:6e:7c:79:c8:e1:a3:d2:d7:39:0e:ab:22:07:68:14:9d:
         65:85:f8:fb:2c:01:4e:ff:13:3b:39:52:2c:76:b6:1a:be:50:
         2b:da:c5:c5:d2:de:6b:66:86:9c:63:cf:36:7e:2f:55:49:ed:
         6f:51:02:af:e1:6f:32:e2:2b:bf:42:3a:d9:99:f3:9a:cd:a4:
         0a:9e:3f:ac:62:75:d9:eb:70:39:45:11:66:af:0f:03:1b:27:
         82:9c:14:95:c5:20:32:f2:e6:17:36:25:23:14:d4:3f:ab:22:
         14:d4:0f:a7:71:1e:b0:e7:38:89:20:5f:5b:65:7d:ad:f1:e7:
         f4:50:f6:c5:89:69:7e:2a:6d:d9:88:2b:91:80:28:7b:e3:67:
         fb:e5:3f:11:fc:2c:c9:74:db:7a:e6:b7:ec:88:76:40:a8:72:
         e8:13:b9:2d:34:ec:8e:8b:22:a7:c9:92:7d:e4:9b:9b:c2:e9:
         97:d2:86:cd:6c:e1:bf:93:c1:6f:a0:11:dc:d2:89:f7:48:5e:
         b2:e2:56:69:d6:9a:68:06:33:19:5c:dc:a5:b8:51:3f:ba:2f:
         9a:d7:5f:09:ca:db:c4:6d:e2:c2:cf:51:81:88:fe:e7:b1:0a:
         3f:f9:42:b6:1a:d6:76:4b:ce:b8:32:a3:a8:c4:35:ee:5e:ab:
         91:09:e7:5f:6f:1f:41:40:77:7d:62:d4:50:92:65:ff:70:02:
         f8:85:da:6d:b2:41:fa:a0:55:b3:df:1c:31:50:ce:5e:d7:08:
         b4:d9:5f:7d:81:7a:28:a3:ba:e1:6a:ce:af:e3:e1:65:8c:fa:
         b9:24:4b:ff:87:2f:41:f3:83:f4:59:08:d0:19:91:9b:73:28:
         f8:ef:d8:9a:38:d1:26:8c:5b:00:e8:f0:03:ec:fc:29:d0:57:
         82:ee:7e:2c:a6:79:88:f5
-----BEGIN CERTIFICATE-----
MIIHSDCCBTCgAwIBAgICAggwDQYJKoZIhvcNAQEFBQAwgbQxCzAJBgNVBAYTAlVT
MQswCQYDVQQIEwJDQTEVMBMGA1UEBxMMU2FuRnJhbmNpc2NvMRUwEwYDVQQKEwxQ
aXhnbG8sIEluYy4xEDAOBgNVBAsTB1ZQTi1DSUUxGjAYBgNVBAMTEXR1bm5lbC5w
aXhnbG8uY29tMRwwGgYDVQQpExNCYWxhIENoYW5kcmFzZWthcmFuMR4wHAYJKoZI
hvcNAQkBFg9iYWxhQHBpeGdsby5jb20wHhcNMTgwMjE0MDYzNjA3WhcNMjgwMjEy
MDYzNjA3WjCBqTELMAkGA1UEBhMCVVMxCzAJBgNVBAgTAkNBMRUwEwYDVQQHEwxT
YW5GcmFuY2lzY28xFTATBgNVBAoTDFBpeGdsbywgSW5jLjEQMA4GA1UECxMHVlBO
LUNJRTEPMA0GA1UEAxMGY2llNTE5MRwwGgYDVQQpExNCYWxhIENoYW5kcmFzZWth
cmFuMR4wHAYJKoZIhvcNAQkBFg9iYWxhQHBpeGdsby5jb20wggIiMA0GCSqGSIb3
DQEBAQUAA4ICDwAwggIKAoICAQC4RYtI31TNjPs6sYuJr1V9ERquhO6lViUIcrQj
FaAq8lStZRsFsFDrcwNGZU1oJGtJgaXWZpPsjM/6cS7dADjul2VCRJPZoiGKZsIo
+oPIn4EHPdA2ckmCH/jePFi8l3E924gEtom/vMG26AbSziaeJTjrsDGp/3teK0kB
0j6rw6ofYDtQBJtN87A4DheyFpzMzXME7TJxb24sG8XTnWgbAXy+KNEp6bRvKrxl
x+wJlHmn4h9wbVCkVkJma1jVVDC3zRisCSgW2YNQDVPanhlLWCGMaXPKVvLmXeX+
krphCP6pNg4NIgHcqjmCyLVGkRvvYXzF3Q7Vm5A0+ZjwWmOPCyiZRv+uTkkFYwS7
dGDoZ8IvXFyj3dIHKAyVlQiXImOrN5hXMPzW4eyHyaV7YnLLG0Bb1jtzwdeMO+tO
97O1ejwNGWgmF16ObuGZEyRRoYf35aVl+LKch2CUFBAWMOkkIhfgrULF7ZgMX4+P
tLe5HMZH3RurqfEPm8jT2d0+BHbTzSqJliVRCX0WDgzJNnVbuAAQOTFfme3Ajy9a
R1EHpYAUyTXpAaIEdROgXJlAZGcweQ7Y2R8lXbZ+ZUOElIoARruPHQe+UxWdw0RN
szee7Nn+o1/2e7Cnlc1YBqtZ2++O4dtPfDD4nF3jFC+DEhTbTM0IgHhzl8cJKozz
ek6G7QIDAQABo4IBazCCAWcwCQYDVR0TBAIwADAtBglghkgBhvhCAQ0EIBYeRWFz
eS1SU0EgR2VuZXJhdGVkIENlcnRpZmljYXRlMB0GA1UdDgQWBBQHTmpiW1Sc7oVP
OvxdwLLgY6hgwzCB6QYDVR0jBIHhMIHegBTvOI0UUFinW02cF3L837msp1GwEKGB
uqSBtzCBtDELMAkGA1UEBhMCVVMxCzAJBgNVBAgTAkNBMRUwEwYDVQQHEwxTYW5G
cmFuY2lzY28xFTATBgNVBAoTDFBpeGdsbywgSW5jLjEQMA4GA1UECxMHVlBOLUNJ
RTEaMBgGA1UEAxMRdHVubmVsLnBpeGdsby5jb20xHDAaBgNVBCkTE0JhbGEgQ2hh
bmRyYXNla2FyYW4xHjAcBgkqhkiG9w0BCQEWD2JhbGFAcGl4Z2xvLmNvbYIJAKbb
xoOA5qB5MBMGA1UdJQQMMAoGCCsGAQUFBwMCMAsGA1UdDwQEAwIHgDANBgkqhkiG
9w0BAQUFAAOCAgEAqucD7r+67LG3Ev7zSJwZ1mtKyrYW0vph+3a6bLUy7mtDTXui
29cju+RpSaCJ3/V4FfF/gNr8SrC+UCItNcShHEYZDflhh1MCERZ76iYq9+R8r+rw
avKzOng2xFIFn2djC3CBG2H7pWrzBcDR7Vq8gAagCIg8384T8wUMjkeNO2oLmlUV
tA3H34h+gTdPX4A18mAw5pvA/E87mUKVf8IT8kxeCT9ufHnI4aPS1zkOqyIHaBSd
ZYX4+ywBTv8TOzlSLHa2Gr5QK9rFxdLea2aGnGPPNn4vVUntb1ECr+FvMuIrv0I6
2Znzms2kCp4/rGJ12etwOUURZq8PAxsngpwUlcUgMvLmFzYlIxTUP6siFNQPp3Ee
sOc4iSBfW2V9rfHn9FD2xYlpfipt2YgrkYAoe+Nn++U/EfwsyXTbeua37Ih2QKhy
6BO5LTTsjosip8mSfeSbm8Lpl9KGzWzhv5PBb6AR3NKJ90hesuJWadaaaAYzGVzc
pbhRP7ovmtdfCcrbxG3iws9RgYj+57EKP/lCthrWdkvOuDKjqMQ17l6rkQnnX28f
QUB3fWLUUJJl/3AC+IXabbJB+qBVs98cMVDOXtcItNlffYF6KKO64WrOr+PhZYz6
uSRL/4cvQfOD9FkI0BmRm3Mo+O/YmjjRJoxbAOjwA+z8KdBXgu5+LKZ5iPU=
-----END CERTIFICATE-----
