Certificate:
    Data:
        Version: 3 (0x2)
        Serial Number: 522 (0x20a)
    Signature Algorithm: sha1WithRSAEncryption
        Issuer: C=US, ST=CA, L=SanFrancisco, O=Pixglo, Inc., OU=VPN-CIE, CN=tunnel.pixglo.com/name=Bala Chandrasekaran/emailAddress=bala@pixglo.com
        Validity
            Not Before: Feb 14 06:36:12 2018 GMT
            Not After : Feb 12 06:36:12 2028 GMT
        Subject: C=US, ST=CA, L=SanFrancisco, O=Pixglo, Inc., OU=VPN-CIE, CN=cie521/name=Bala Chandrasekaran/emailAddress=bala@pixglo.com
        Subject Public Key Info:
            Public Key Algorithm: rsaEncryption
                Public-Key: (4096 bit)
                Modulus:
                    00:da:43:4a:03:31:ee:a5:28:3e:1e:92:d3:8f:76:
                    2a:8d:05:f1:5e:78:60:22:44:6c:5d:d8:0a:bb:d8:
                    ee:b5:36:11:b6:d7:93:62:82:77:0a:c9:3b:33:01:
                    42:70:c8:d3:70:cc:4a:2d:94:3e:05:74:0d:e3:95:
                    98:0d:87:e8:54:82:30:b3:9e:13:ed:23:5e:f1:6f:
                    5e:ef:b7:fa:26:e1:6f:fe:9e:d3:2a:31:cd:ac:33:
                    d4:95:a6:76:ab:0b:c7:4d:94:13:57:a5:5c:5a:8d:
                    95:3f:be:46:d5:f9:0d:42:35:18:d9:52:6f:f7:b5:
                    27:54:61:b5:67:95:cd:22:c3:28:65:df:40:19:63:
                    9b:78:26:d2:c2:24:65:ae:8b:4b:c7:6a:31:86:a4:
                    69:3a:e4:b7:a1:c7:9d:10:18:47:60:7c:e5:b7:69:
                    23:8d:5f:cf:5b:6f:9e:fb:c3:79:37:e3:7f:ff:e6:
                    33:0f:7e:1d:63:45:44:d6:2d:5c:bf:64:0e:ae:66:
                    6a:c3:c1:42:16:6a:86:1e:02:55:9b:3d:5e:6c:f4:
                    06:72:55:d6:ba:45:05:b8:eb:29:d6:5c:da:95:99:
                    12:b2:33:48:02:15:d3:37:cf:b8:07:67:88:0c:95:
                    70:60:ac:bf:39:8f:42:50:0a:39:10:73:d6:73:01:
                    56:f3:d8:15:bc:f8:3a:cf:eb:e9:ac:dc:49:29:63:
                    0a:a1:25:7f:d6:4e:1c:6c:17:9f:0a:84:a3:88:ac:
                    fe:63:9d:c9:28:f4:d0:b0:74:c3:69:88:43:7a:12:
                    85:bc:d4:61:a5:1a:a9:47:b6:39:0b:51:52:51:02:
                    09:cd:5d:42:a8:ba:ee:75:da:c7:ed:1f:ae:56:70:
                    98:f1:14:be:13:9e:e4:4a:97:10:4e:11:35:88:f6:
                    a2:63:a1:42:02:7f:a5:b5:c1:fc:f6:cb:e9:1f:8d:
                    51:09:17:8a:73:4f:70:5b:12:7c:39:79:d4:3f:8a:
                    7d:7b:9a:eb:e9:9f:87:0d:68:be:7b:d8:c4:41:f5:
                    04:23:62:3d:f3:d5:cc:8d:48:7a:00:4f:33:37:f3:
                    19:ca:c1:1d:98:31:5b:c2:4c:91:32:78:9e:73:f4:
                    b1:69:d2:72:7c:02:51:8b:51:43:f2:bd:6d:9f:63:
                    9d:c4:4d:93:24:4c:ab:c5:19:47:33:a2:3d:e2:8d:
                    38:41:87:42:51:cf:c0:0a:67:f9:2f:bf:46:0b:a1:
                    32:ba:94:0d:67:4a:33:f0:17:fd:3f:1e:e7:5b:d3:
                    04:c4:51:2d:c4:6b:5f:c7:1f:e9:27:b4:36:ca:77:
                    60:d2:b4:48:22:60:e7:09:27:37:74:c3:42:4a:bc:
                    3b:cb:2b
                Exponent: 65537 (0x10001)
        X509v3 extensions:
            X509v3 Basic Constraints: 
                CA:FALSE
            Netscape Comment: 
                Easy-RSA Generated Certificate
            X509v3 Subject Key Identifier: 
                A7:6A:33:9B:7D:B8:C6:CC:1C:47:EF:C0:FC:1B:0D:5F:A5:AF:A4:89
            X509v3 Authority Key Identifier: 
                keyid:EF:38:8D:14:50:58:A7:5B:4D:9C:17:72:FC:DF:B9:AC:A7:51:B0:10
                DirName:/C=US/ST=CA/L=SanFrancisco/O=Pixglo, Inc./OU=VPN-CIE/CN=tunnel.pixglo.com/name=Bala Chandrasekaran/emailAddress=bala@pixglo.com
                serial:A6:DB:C6:83:80:E6:A0:79

            X509v3 Extended Key Usage: 
                TLS Web Client Authentication
            X509v3 Key Usage: 
                Digital Signature
    Signature Algorithm: sha1WithRSAEncryption
         13:44:f2:c5:2e:0c:ce:9e:06:d3:3d:1e:0c:1e:66:3f:9d:4e:
         55:02:7e:ff:5a:05:b3:56:1a:8d:b5:d3:ce:97:fc:85:f4:00:
         49:db:60:54:95:0c:90:16:23:e9:84:0c:18:db:c0:77:ac:8d:
         82:ac:82:23:a9:43:8c:39:88:6e:22:6a:6e:3a:16:f8:30:02:
         49:93:61:f0:18:3a:fa:ea:93:29:00:ea:ee:c0:80:8d:59:aa:
         67:d7:66:03:aa:99:08:73:02:7a:e9:b0:b4:95:2d:4d:a8:27:
         f1:6b:ad:9b:86:a0:f6:b9:e4:9d:ac:4d:73:33:0b:71:b3:8d:
         c2:67:c2:35:4e:03:73:28:66:79:34:eb:b9:1c:36:42:4e:ff:
         10:a5:f8:71:e2:e4:97:d6:b5:f0:67:e0:9d:64:a1:d4:62:11:
         f1:90:ef:c5:f4:65:b1:c2:46:27:15:e6:a2:a5:9b:5a:50:58:
         72:f4:95:89:06:ed:40:de:b7:e8:3c:18:7f:56:ed:26:c4:65:
         cc:d7:58:2d:d9:e0:13:48:f1:4e:a3:43:4d:1e:13:60:cd:0b:
         dc:2f:2c:a5:72:f9:48:2c:c7:57:16:8f:ad:a3:30:31:a2:3c:
         fd:e9:72:fc:01:c2:62:49:b7:bc:cd:fa:e6:29:14:98:f3:f2:
         9a:7c:7b:97:e3:5a:02:a6:96:55:2d:ac:56:67:33:aa:f8:61:
         e7:ad:a4:a4:d5:44:cf:4b:22:b2:b9:db:55:f1:b4:0c:4c:13:
         92:f9:73:37:1b:c5:62:b5:1a:ce:50:80:93:07:f2:41:df:a6:
         46:f9:c5:4f:53:bf:eb:c9:30:c2:a1:62:6a:83:71:19:8e:4f:
         c5:b9:3b:10:d0:8c:3d:49:1f:af:be:d8:7c:0b:3b:f3:6d:7e:
         55:fe:06:58:7c:8f:33:27:6a:2e:54:ef:02:2e:c3:2d:0d:3c:
         9a:b3:e8:c4:b2:f7:7d:8e:d1:ba:3e:00:80:0b:21:91:35:10:
         6d:41:0b:68:d3:2f:c0:33:70:33:22:ad:5a:97:ff:fe:03:b2:
         a3:85:e0:55:f9:be:23:26:92:2a:6e:f7:f4:43:fa:ea:4f:e9:
         e4:4a:72:0a:7b:a5:6b:b1:67:bf:86:36:a4:3e:1b:f1:68:10:
         bb:0b:b7:c2:ed:5d:d9:79:fd:a4:09:a2:58:a0:ef:51:b1:7d:
         ff:29:4c:30:64:9b:db:bf:4e:4a:d1:5f:6b:98:22:a4:da:a7:
         09:04:11:1c:2e:76:42:83:8e:50:1f:26:fe:05:07:36:5d:e4:
         4e:35:a1:af:e1:d2:fd:f7:a0:9a:da:98:24:07:d6:33:ae:8e:
         f6:a8:ce:84:06:1f:40:29
-----BEGIN CERTIFICATE-----
MIIHSDCCBTCgAwIBAgICAgowDQYJKoZIhvcNAQEFBQAwgbQxCzAJBgNVBAYTAlVT
MQswCQYDVQQIEwJDQTEVMBMGA1UEBxMMU2FuRnJhbmNpc2NvMRUwEwYDVQQKEwxQ
aXhnbG8sIEluYy4xEDAOBgNVBAsTB1ZQTi1DSUUxGjAYBgNVBAMTEXR1bm5lbC5w
aXhnbG8uY29tMRwwGgYDVQQpExNCYWxhIENoYW5kcmFzZWthcmFuMR4wHAYJKoZI
hvcNAQkBFg9iYWxhQHBpeGdsby5jb20wHhcNMTgwMjE0MDYzNjEyWhcNMjgwMjEy
MDYzNjEyWjCBqTELMAkGA1UEBhMCVVMxCzAJBgNVBAgTAkNBMRUwEwYDVQQHEwxT
YW5GcmFuY2lzY28xFTATBgNVBAoTDFBpeGdsbywgSW5jLjEQMA4GA1UECxMHVlBO
LUNJRTEPMA0GA1UEAxMGY2llNTIxMRwwGgYDVQQpExNCYWxhIENoYW5kcmFzZWth
cmFuMR4wHAYJKoZIhvcNAQkBFg9iYWxhQHBpeGdsby5jb20wggIiMA0GCSqGSIb3
DQEBAQUAA4ICDwAwggIKAoICAQDaQ0oDMe6lKD4ektOPdiqNBfFeeGAiRGxd2Aq7
2O61NhG215NigncKyTszAUJwyNNwzEotlD4FdA3jlZgNh+hUgjCznhPtI17xb17v
t/om4W/+ntMqMc2sM9SVpnarC8dNlBNXpVxajZU/vkbV+Q1CNRjZUm/3tSdUYbVn
lc0iwyhl30AZY5t4JtLCJGWui0vHajGGpGk65Lehx50QGEdgfOW3aSONX89bb577
w3k343//5jMPfh1jRUTWLVy/ZA6uZmrDwUIWaoYeAlWbPV5s9AZyVda6RQW46ynW
XNqVmRKyM0gCFdM3z7gHZ4gMlXBgrL85j0JQCjkQc9ZzAVbz2BW8+DrP6+ms3Ekp
YwqhJX/WThxsF58KhKOIrP5jncko9NCwdMNpiEN6EoW81GGlGqlHtjkLUVJRAgnN
XUKouu512sftH65WcJjxFL4TnuRKlxBOETWI9qJjoUICf6W1wfz2y+kfjVEJF4pz
T3BbEnw5edQ/in17muvpn4cNaL572MRB9QQjYj3z1cyNSHoATzM38xnKwR2YMVvC
TJEyeJ5z9LFp0nJ8AlGLUUPyvW2fY53ETZMkTKvFGUczoj3ijThBh0JRz8AKZ/kv
v0YLoTK6lA1nSjPwF/0/Hudb0wTEUS3Ea1/HH+kntDbKd2DStEgiYOcJJzd0w0JK
vDvLKwIDAQABo4IBazCCAWcwCQYDVR0TBAIwADAtBglghkgBhvhCAQ0EIBYeRWFz
eS1SU0EgR2VuZXJhdGVkIENlcnRpZmljYXRlMB0GA1UdDgQWBBSnajObfbjGzBxH
78D8Gw1fpa+kiTCB6QYDVR0jBIHhMIHegBTvOI0UUFinW02cF3L837msp1GwEKGB
uqSBtzCBtDELMAkGA1UEBhMCVVMxCzAJBgNVBAgTAkNBMRUwEwYDVQQHEwxTYW5G
cmFuY2lzY28xFTATBgNVBAoTDFBpeGdsbywgSW5jLjEQMA4GA1UECxMHVlBOLUNJ
RTEaMBgGA1UEAxMRdHVubmVsLnBpeGdsby5jb20xHDAaBgNVBCkTE0JhbGEgQ2hh
bmRyYXNla2FyYW4xHjAcBgkqhkiG9w0BCQEWD2JhbGFAcGl4Z2xvLmNvbYIJAKbb
xoOA5qB5MBMGA1UdJQQMMAoGCCsGAQUFBwMCMAsGA1UdDwQEAwIHgDANBgkqhkiG
9w0BAQUFAAOCAgEAE0TyxS4Mzp4G0z0eDB5mP51OVQJ+/1oFs1YajbXTzpf8hfQA
SdtgVJUMkBYj6YQMGNvAd6yNgqyCI6lDjDmIbiJqbjoW+DACSZNh8Bg6+uqTKQDq
7sCAjVmqZ9dmA6qZCHMCeumwtJUtTagn8Wutm4ag9rnknaxNczMLcbONwmfCNU4D
cyhmeTTruRw2Qk7/EKX4ceLkl9a18GfgnWSh1GIR8ZDvxfRlscJGJxXmoqWbWlBY
cvSViQbtQN636DwYf1btJsRlzNdYLdngE0jxTqNDTR4TYM0L3C8spXL5SCzHVxaP
raMwMaI8/ely/AHCYkm3vM365ikUmPPymnx7l+NaAqaWVS2sVmczqvhh562kpNVE
z0sisrnbVfG0DEwTkvlzNxvFYrUazlCAkwfyQd+mRvnFT1O/68kwwqFiaoNxGY5P
xbk7ENCMPUkfr77YfAs7821+Vf4GWHyPMydqLlTvAi7DLQ08mrPoxLL3fY7Ruj4A
gAshkTUQbUELaNMvwDNwMyKtWpf//gOyo4XgVfm+IyaSKm739EP66k/p5EpyCnul
a7Fnv4Y2pD4b8WgQuwu3wu1d2Xn9pAmiWKDvUbF9/ylMMGSb279OStFfa5gipNqn
CQQRHC52QoOOUB8m/gUHNl3kTjWhr+HS/fegmtqYJAfWM66O9qjOhAYfQCk=
-----END CERTIFICATE-----
