Certificate:
    Data:
        Version: 3 (0x2)
        Serial Number: 523 (0x20b)
    Signature Algorithm: sha1WithRSAEncryption
        Issuer: C=US, ST=CA, L=SanFrancisco, O=Pixglo, Inc., OU=VPN-CIE, CN=tunnel.pixglo.com/name=Bala Chandrasekaran/emailAddress=bala@pixglo.com
        Validity
            Not Before: Feb 14 06:36:16 2018 GMT
            Not After : Feb 12 06:36:16 2028 GMT
        Subject: C=US, ST=CA, L=SanFrancisco, O=Pixglo, Inc., OU=VPN-CIE, CN=cie522/name=Bala Chandrasekaran/emailAddress=bala@pixglo.com
        Subject Public Key Info:
            Public Key Algorithm: rsaEncryption
                Public-Key: (4096 bit)
                Modulus:
                    00:cf:c9:16:8e:d3:69:4a:ff:eb:0c:1e:05:bd:cf:
                    c4:f5:53:51:cd:21:c1:27:d5:27:b4:40:aa:0d:8c:
                    0e:52:e1:22:eb:b4:e0:3a:49:1a:1b:bf:0b:17:f8:
                    53:80:b0:2b:e2:8d:7a:72:6f:ab:ea:19:85:fd:c6:
                    c7:e1:76:cf:72:ff:10:a0:37:ac:c1:8d:da:7e:0a:
                    12:24:d8:3a:3d:f0:d9:f8:e5:54:f5:25:4a:d5:9c:
                    03:32:07:0d:a5:06:09:2d:4d:11:76:f3:64:c7:c2:
                    d4:9e:cc:18:5e:56:6e:e9:2c:56:44:c1:31:57:25:
                    a8:1a:be:cc:de:70:fa:72:20:e8:9a:4f:b1:67:1b:
                    ed:67:4f:2d:b4:d9:ba:24:f5:41:1e:d7:f2:1d:12:
                    91:55:63:12:7e:e8:9f:58:4c:53:bc:c1:2e:84:6b:
                    c3:2d:51:f2:b1:1c:38:99:1b:6a:93:41:db:e3:02:
                    05:d2:7e:32:60:3a:58:c1:8d:bd:23:b5:4c:1e:41:
                    67:d0:2e:fc:ce:4e:d3:46:1a:47:fc:65:18:be:65:
                    5d:5e:3b:87:00:da:29:06:82:e5:a5:3e:aa:43:02:
                    33:9f:1e:85:1b:eb:58:ad:45:dc:76:52:19:94:17:
                    ee:6c:52:68:e9:6c:19:c8:47:e1:d5:29:31:5b:0e:
                    1d:ca:a5:6c:d4:ed:37:2a:dd:44:ec:c2:e3:df:39:
                    97:69:6a:d0:88:b1:c9:9b:c0:4b:e3:ee:b1:ce:c5:
                    bf:40:de:dd:8b:2e:80:94:cb:1e:d0:17:7f:6a:a4:
                    75:56:0f:f7:3a:cc:4b:53:e6:83:10:c4:64:1d:05:
                    a3:b4:a3:b7:e2:01:7d:2c:41:89:4c:bf:d4:13:83:
                    2d:7a:cf:c6:6a:ed:01:8e:f2:96:31:09:88:c0:4f:
                    a9:26:6c:c7:be:e1:50:10:9d:39:15:ea:4b:b8:e9:
                    b2:b4:20:2d:86:38:02:26:24:bc:75:c3:25:4e:e1:
                    3c:0b:8c:46:b0:ef:2a:e3:ca:a1:02:3d:00:54:f6:
                    6d:86:7b:3a:ed:b8:d6:09:95:0e:d8:de:de:a3:d7:
                    63:cf:2f:38:a0:df:cc:23:cd:9a:39:f8:b4:cb:f2:
                    43:5c:ea:22:ac:57:92:ee:9d:4b:b0:80:9b:2f:94:
                    53:86:23:e1:0e:75:f8:26:c0:e6:f3:04:7f:d0:ca:
                    86:b8:c5:ca:d0:cf:86:a6:56:87:b6:b3:d1:d5:92:
                    a9:df:11:d0:dc:b7:99:2f:a2:50:96:d8:6d:65:18:
                    1a:c2:40:33:70:50:d8:ec:6e:f2:d3:1d:2c:d6:f2:
                    3d:ee:d6:c4:7c:42:96:c3:74:47:a3:d4:ab:29:3e:
                    c7:8d:65
                Exponent: 65537 (0x10001)
        X509v3 extensions:
            X509v3 Basic Constraints: 
                CA:FALSE
            Netscape Comment: 
                Easy-RSA Generated Certificate
            X509v3 Subject Key Identifier: 
                1C:C5:00:C7:A4:9D:0B:77:B7:E6:AE:2A:94:6F:93:73:73:59:A7:C0
            X509v3 Authority Key Identifier: 
                keyid:EF:38:8D:14:50:58:A7:5B:4D:9C:17:72:FC:DF:B9:AC:A7:51:B0:10
                DirName:/C=US/ST=CA/L=SanFrancisco/O=Pixglo, Inc./OU=VPN-CIE/CN=tunnel.pixglo.com/name=Bala Chandrasekaran/emailAddress=bala@pixglo.com
                serial:A6:DB:C6:83:80:E6:A0:79

            X509v3 Extended Key Usage: 
                TLS Web Client Authentication
            X509v3 Key Usage: 
                Digital Signature
    Signature Algorithm: sha1WithRSAEncryption
         7c:bb:09:97:67:21:af:3f:38:65:ff:05:aa:b8:6f:4e:bd:1d:
         cc:74:96:42:8e:a6:b0:28:12:44:ed:a8:3d:cd:07:5f:b7:10:
         7b:54:e5:b7:f5:33:ab:d0:ce:ed:b2:b6:df:24:dc:d6:c7:10:
         47:f5:70:11:b2:e8:9d:13:f8:aa:1c:3f:33:cc:ca:24:91:9b:
         80:e0:75:87:c9:96:4f:ec:17:87:54:22:ad:c0:99:e8:2e:c1:
         0c:b8:58:98:07:ab:01:e9:e1:2f:4c:79:02:db:55:fb:69:81:
         a8:8b:00:e7:71:d1:40:e2:cb:e4:38:f8:bb:9b:d5:ef:42:e1:
         4b:b8:27:09:d9:bf:b6:18:83:7f:64:77:c7:2e:af:cc:09:87:
         3a:96:ff:48:66:c2:49:f6:90:3c:39:89:5f:60:55:38:fb:b6:
         2c:29:5a:88:5c:6d:46:c2:ac:e1:6a:e2:6d:51:b1:bb:79:96:
         4c:f1:09:c5:c9:d7:c4:3a:e9:f0:ef:c6:0c:8f:a2:a9:b2:35:
         da:ac:dd:9a:fa:cd:2d:d7:a4:6d:c0:bf:b7:c3:00:e2:41:5e:
         77:a7:1b:6d:08:9d:da:b9:00:9e:ca:df:05:4e:4f:bc:b7:83:
         e0:af:27:3e:08:46:5e:b5:1c:34:0f:e6:b9:a9:eb:37:8a:46:
         43:51:14:80:ec:df:9b:9a:15:2c:fd:8a:41:ba:5a:dd:68:a5:
         c7:fb:8e:21:b4:c4:2e:e7:c0:c8:d5:ae:ed:d4:cc:6e:38:1e:
         a9:33:b0:67:82:d9:ee:11:23:d2:12:ad:85:2e:6f:17:27:91:
         c8:71:14:a1:f3:51:a2:a7:5e:c4:70:6b:4e:fa:f6:ab:81:da:
         59:7f:a9:62:23:64:d9:e1:d3:ac:3e:a7:2d:f6:24:4a:32:fb:
         99:64:8d:eb:3e:66:5a:06:cf:3e:0f:48:0f:45:ac:da:15:dc:
         f0:a7:81:60:1a:2b:37:08:8e:c6:81:19:2a:b1:a7:2e:26:b7:
         71:4d:b5:4c:76:bb:f3:9a:46:9c:f2:67:86:27:7c:1b:71:94:
         2f:b9:20:cc:85:e5:68:cf:b5:4e:46:47:e9:64:af:5f:de:77:
         bb:3b:54:d8:88:23:ce:c0:97:a0:f5:69:ba:51:a4:f5:bc:32:
         10:52:b6:e5:74:af:88:90:6c:07:33:6d:dc:66:fe:9c:e0:bb:
         48:86:c8:d7:28:ee:c0:52:37:3f:53:f1:17:6b:79:ad:07:9a:
         c0:67:57:25:a2:0f:1c:63:c7:2e:96:8f:b4:ec:36:b3:1c:6c:
         34:4a:35:42:eb:28:cd:2c:9f:42:07:e9:72:14:2e:88:75:3b:
         01:d1:8c:d9:23:3a:3c:43
-----BEGIN CERTIFICATE-----
MIIHSDCCBTCgAwIBAgICAgswDQYJKoZIhvcNAQEFBQAwgbQxCzAJBgNVBAYTAlVT
MQswCQYDVQQIEwJDQTEVMBMGA1UEBxMMU2FuRnJhbmNpc2NvMRUwEwYDVQQKEwxQ
aXhnbG8sIEluYy4xEDAOBgNVBAsTB1ZQTi1DSUUxGjAYBgNVBAMTEXR1bm5lbC5w
aXhnbG8uY29tMRwwGgYDVQQpExNCYWxhIENoYW5kcmFzZWthcmFuMR4wHAYJKoZI
hvcNAQkBFg9iYWxhQHBpeGdsby5jb20wHhcNMTgwMjE0MDYzNjE2WhcNMjgwMjEy
MDYzNjE2WjCBqTELMAkGA1UEBhMCVVMxCzAJBgNVBAgTAkNBMRUwEwYDVQQHEwxT
YW5GcmFuY2lzY28xFTATBgNVBAoTDFBpeGdsbywgSW5jLjEQMA4GA1UECxMHVlBO
LUNJRTEPMA0GA1UEAxMGY2llNTIyMRwwGgYDVQQpExNCYWxhIENoYW5kcmFzZWth
cmFuMR4wHAYJKoZIhvcNAQkBFg9iYWxhQHBpeGdsby5jb20wggIiMA0GCSqGSIb3
DQEBAQUAA4ICDwAwggIKAoICAQDPyRaO02lK/+sMHgW9z8T1U1HNIcEn1Se0QKoN
jA5S4SLrtOA6SRobvwsX+FOAsCvijXpyb6vqGYX9xsfhds9y/xCgN6zBjdp+ChIk
2Do98Nn45VT1JUrVnAMyBw2lBgktTRF282THwtSezBheVm7pLFZEwTFXJagavsze
cPpyIOiaT7FnG+1nTy202bok9UEe1/IdEpFVYxJ+6J9YTFO8wS6Ea8MtUfKxHDiZ
G2qTQdvjAgXSfjJgOljBjb0jtUweQWfQLvzOTtNGGkf8ZRi+ZV1eO4cA2ikGguWl
PqpDAjOfHoUb61itRdx2UhmUF+5sUmjpbBnIR+HVKTFbDh3KpWzU7Tcq3UTswuPf
OZdpatCIscmbwEvj7rHOxb9A3t2LLoCUyx7QF39qpHVWD/c6zEtT5oMQxGQdBaO0
o7fiAX0sQYlMv9QTgy16z8Zq7QGO8pYxCYjAT6kmbMe+4VAQnTkV6ku46bK0IC2G
OAImJLx1wyVO4TwLjEaw7yrjyqECPQBU9m2GezrtuNYJlQ7Y3t6j12PPLzig38wj
zZo5+LTL8kNc6iKsV5LunUuwgJsvlFOGI+EOdfgmwObzBH/Qyoa4xcrQz4amVoe2
s9HVkqnfEdDct5kvolCW2G1lGBrCQDNwUNjsbvLTHSzW8j3u1sR8QpbDdEej1Ksp
PseNZQIDAQABo4IBazCCAWcwCQYDVR0TBAIwADAtBglghkgBhvhCAQ0EIBYeRWFz
eS1SU0EgR2VuZXJhdGVkIENlcnRpZmljYXRlMB0GA1UdDgQWBBQcxQDHpJ0Ld7fm
riqUb5Nzc1mnwDCB6QYDVR0jBIHhMIHegBTvOI0UUFinW02cF3L837msp1GwEKGB
uqSBtzCBtDELMAkGA1UEBhMCVVMxCzAJBgNVBAgTAkNBMRUwEwYDVQQHEwxTYW5G
cmFuY2lzY28xFTATBgNVBAoTDFBpeGdsbywgSW5jLjEQMA4GA1UECxMHVlBOLUNJ
RTEaMBgGA1UEAxMRdHVubmVsLnBpeGdsby5jb20xHDAaBgNVBCkTE0JhbGEgQ2hh
bmRyYXNla2FyYW4xHjAcBgkqhkiG9w0BCQEWD2JhbGFAcGl4Z2xvLmNvbYIJAKbb
xoOA5qB5MBMGA1UdJQQMMAoGCCsGAQUFBwMCMAsGA1UdDwQEAwIHgDANBgkqhkiG
9w0BAQUFAAOCAgEAfLsJl2chrz84Zf8FqrhvTr0dzHSWQo6msCgSRO2oPc0HX7cQ
e1Tlt/Uzq9DO7bK23yTc1scQR/VwEbLonRP4qhw/M8zKJJGbgOB1h8mWT+wXh1Qi
rcCZ6C7BDLhYmAerAenhL0x5AttV+2mBqIsA53HRQOLL5Dj4u5vV70LhS7gnCdm/
thiDf2R3xy6vzAmHOpb/SGbCSfaQPDmJX2BVOPu2LClaiFxtRsKs4WribVGxu3mW
TPEJxcnXxDrp8O/GDI+iqbI12qzdmvrNLdekbcC/t8MA4kFed6cbbQid2rkAnsrf
BU5PvLeD4K8nPghGXrUcNA/muanrN4pGQ1EUgOzfm5oVLP2KQbpa3Wilx/uOIbTE
LufAyNWu7dTMbjgeqTOwZ4LZ7hEj0hKthS5vFyeRyHEUofNRoqdexHBrTvr2q4Ha
WX+pYiNk2eHTrD6nLfYkSjL7mWSN6z5mWgbPPg9ID0Ws2hXc8KeBYBorNwiOxoEZ
KrGnLia3cU21THa785pGnPJnhid8G3GUL7kgzIXlaM+1TkZH6WSvX953uztU2Igj
zsCXoPVpulGk9bwyEFK25XSviJBsBzNt3Gb+nOC7SIbI1yjuwFI3P1PxF2t5rQea
wGdXJaIPHGPHLpaPtOw2sxxsNEo1QusozSyfQgfpchQuiHU7AdGM2SM6PEM=
-----END CERTIFICATE-----
