Certificate:
    Data:
        Version: 3 (0x2)
        Serial Number: 527 (0x20f)
    Signature Algorithm: sha1WithRSAEncryption
        Issuer: C=US, ST=CA, L=SanFrancisco, O=Pixglo, Inc., OU=VPN-CIE, CN=tunnel.pixglo.com/name=Bala Chandrasekaran/emailAddress=bala@pixglo.com
        Validity
            Not Before: Feb 14 06:36:22 2018 GMT
            Not After : Feb 12 06:36:22 2028 GMT
        Subject: C=US, ST=CA, L=SanFrancisco, O=Pixglo, Inc., OU=VPN-CIE, CN=cie526/name=Bala Chandrasekaran/emailAddress=bala@pixglo.com
        Subject Public Key Info:
            Public Key Algorithm: rsaEncryption
                Public-Key: (4096 bit)
                Modulus:
                    00:9b:89:e8:86:9e:53:44:49:b8:98:9e:2d:d4:d3:
                    be:1f:6a:77:c7:6d:5f:dc:f6:72:d0:2c:53:1b:35:
                    0e:97:cf:8f:f2:b8:14:ed:ad:33:b9:06:b4:5a:e7:
                    9a:12:d8:2f:dd:da:bc:27:f9:d9:18:e2:04:3f:db:
                    58:f0:cc:06:62:e8:32:bf:c3:68:28:91:3e:16:9b:
                    49:da:5c:69:13:0b:48:57:e1:4a:67:0f:ab:69:de:
                    33:09:b4:49:1d:09:4d:3c:d5:06:18:a6:01:14:d1:
                    e5:98:18:c8:03:65:18:06:b0:c6:27:43:40:8d:16:
                    ad:e0:a3:c7:a2:be:33:41:4e:72:43:06:2e:16:bc:
                    7a:8a:b4:1f:bd:c7:32:17:94:af:d2:68:95:3f:de:
                    b8:7f:d7:cc:19:8a:01:a3:b5:92:17:e2:a7:3d:72:
                    85:d0:9a:de:22:d8:55:ac:c4:8b:da:64:2b:27:f3:
                    2f:12:e0:85:88:ff:4e:e7:4d:1f:cd:f6:df:e8:08:
                    3a:c2:67:3c:1b:1a:c6:5a:60:44:a3:7d:2d:ee:5a:
                    bb:02:6c:42:89:b5:cd:71:50:96:f2:57:01:96:31:
                    f8:d2:71:f6:5f:3e:71:fa:a0:35:5a:cd:5a:3b:93:
                    c4:08:54:16:56:8e:40:cc:5b:6c:cb:78:14:40:d9:
                    00:e1:91:f0:34:5b:e7:66:51:3b:ab:22:1b:05:7a:
                    ce:f3:f7:b5:38:93:aa:22:9a:ab:bb:d7:a0:fd:54:
                    e2:74:b5:29:f8:32:e9:ef:27:05:2a:71:a1:71:be:
                    97:97:08:5a:f6:b4:d6:0b:e1:4a:dd:b3:98:e8:97:
                    0b:b9:72:59:4f:d6:8d:df:97:c3:c4:9d:4a:97:4a:
                    c2:0a:4e:47:d3:26:09:cf:7b:2e:b0:57:67:97:4e:
                    c9:ad:87:3d:1e:22:8b:bd:63:00:4f:f4:71:d4:63:
                    6a:3d:28:d2:0d:ab:72:2f:e8:23:6d:5d:45:dd:2c:
                    29:2a:1e:0a:c6:23:4e:06:32:0c:ce:55:52:f1:46:
                    46:74:c6:f6:41:7f:95:df:9d:76:83:d8:2c:31:ab:
                    e3:cd:ea:11:7f:d6:66:b8:be:61:5f:4d:91:2a:ac:
                    98:25:f8:71:c6:7f:a9:95:c2:c0:63:e5:15:e9:63:
                    fb:54:35:4c:c8:c8:67:ea:0f:d8:86:e4:e8:4e:ed:
                    11:a9:11:0a:b5:4f:a3:f8:bb:d8:f2:ff:c6:3b:7e:
                    ab:fb:ed:6d:22:86:29:b0:28:a4:3d:66:9c:0d:dd:
                    46:f6:cd:17:59:f3:3a:f1:fc:90:a8:37:da:c1:e0:
                    04:62:b8:c7:f5:b2:b8:77:c6:d1:87:11:ac:2d:d4:
                    0d:9e:f7
                Exponent: 65537 (0x10001)
        X509v3 extensions:
            X509v3 Basic Constraints: 
                CA:FALSE
            Netscape Comment: 
                Easy-RSA Generated Certificate
            X509v3 Subject Key Identifier: 
                12:B0:A3:FB:66:5D:8E:03:41:72:39:70:9B:F6:5C:47:ED:AD:5E:E7
            X509v3 Authority Key Identifier: 
                keyid:EF:38:8D:14:50:58:A7:5B:4D:9C:17:72:FC:DF:B9:AC:A7:51:B0:10
                DirName:/C=US/ST=CA/L=SanFrancisco/O=Pixglo, Inc./OU=VPN-CIE/CN=tunnel.pixglo.com/name=Bala Chandrasekaran/emailAddress=bala@pixglo.com
                serial:A6:DB:C6:83:80:E6:A0:79

            X509v3 Extended Key Usage: 
                TLS Web Client Authentication
            X509v3 Key Usage: 
                Digital Signature
    Signature Algorithm: sha1WithRSAEncryption
         11:81:e8:9d:66:09:87:4b:20:06:2d:ed:b2:2f:c9:4e:30:62:
         9e:8b:58:9e:cf:e1:be:d7:a1:23:a5:b7:33:05:32:75:bd:43:
         9e:af:83:e4:57:bb:17:62:37:04:e3:50:95:a6:54:29:52:fd:
         fc:b1:f5:06:4b:01:7a:bd:97:94:85:b5:7a:4d:88:dd:76:1c:
         66:9d:7f:d6:50:03:18:c4:5a:81:e6:df:46:c5:74:9b:90:29:
         ba:56:d3:12:b2:5a:ff:6e:fb:aa:5d:7b:73:0a:89:34:81:18:
         df:d4:9f:c1:71:d2:df:27:dd:00:32:6d:6a:be:09:31:2c:53:
         04:45:53:1f:a8:b1:ab:c7:b2:3e:bb:ec:92:1b:27:f7:8e:07:
         17:b2:a0:f3:ac:b8:ab:db:fc:c9:8a:89:de:5a:f3:73:17:cd:
         1f:72:b4:dd:7c:ea:d8:c8:35:95:ee:8c:e1:c2:6b:74:67:42:
         d9:d0:d7:6a:85:9f:ef:2a:27:48:76:18:d3:6a:54:2e:9e:fb:
         52:e4:0b:a1:45:c7:74:c2:43:6b:aa:27:3f:85:23:1d:53:eb:
         03:4a:bc:f9:d3:8a:d4:aa:95:bc:88:0a:8a:f8:cd:e5:19:a5:
         24:00:05:04:ec:10:a9:0d:ca:65:70:96:ff:34:5a:c9:5d:14:
         c4:b2:04:49:ee:43:58:76:58:43:12:e4:e4:84:f8:13:d7:e8:
         aa:55:ba:57:94:e6:52:e7:18:be:92:b9:cc:63:40:2e:e3:54:
         ad:65:cc:93:b7:67:3e:34:d7:ba:42:ce:9f:a0:b1:f7:71:f5:
         a8:d4:8f:87:03:f7:f0:1f:11:a8:5f:2e:4e:1e:ac:07:7e:9b:
         c4:9a:9e:ca:19:6c:da:9a:22:54:d4:7e:5f:94:01:b9:9c:cb:
         70:d4:32:c5:d3:5b:39:06:8b:40:17:28:30:7c:50:09:75:e8:
         41:96:d7:65:07:56:da:e2:5a:b7:21:9a:ea:6b:26:57:88:4b:
         d7:85:8e:bd:26:1d:0d:bb:5f:b8:ac:ef:b9:22:59:f1:99:71:
         9e:53:e4:9b:56:94:a9:2b:5f:6c:e6:40:93:38:7a:47:94:15:
         7d:5f:e9:40:9a:29:ca:53:10:07:80:7d:fc:0b:b6:7f:9d:12:
         da:20:19:cb:5e:e9:e4:38:ac:ed:3e:be:2c:ef:66:0f:f3:9c:
         c1:94:ce:a8:2e:1d:5c:f3:86:2b:3e:63:bc:1a:1c:d3:d0:26:
         22:ed:5b:8d:c7:4e:41:b8:4b:f3:ee:53:05:f5:9d:d9:ec:1b:
         f9:73:d3:23:1c:12:4d:08:0c:ab:1c:c5:53:0f:f2:59:2b:52:
         69:72:b4:65:48:45:f2:d6
-----BEGIN CERTIFICATE-----
MIIHSDCCBTCgAwIBAgICAg8wDQYJKoZIhvcNAQEFBQAwgbQxCzAJBgNVBAYTAlVT
MQswCQYDVQQIEwJDQTEVMBMGA1UEBxMMU2FuRnJhbmNpc2NvMRUwEwYDVQQKEwxQ
aXhnbG8sIEluYy4xEDAOBgNVBAsTB1ZQTi1DSUUxGjAYBgNVBAMTEXR1bm5lbC5w
aXhnbG8uY29tMRwwGgYDVQQpExNCYWxhIENoYW5kcmFzZWthcmFuMR4wHAYJKoZI
hvcNAQkBFg9iYWxhQHBpeGdsby5jb20wHhcNMTgwMjE0MDYzNjIyWhcNMjgwMjEy
MDYzNjIyWjCBqTELMAkGA1UEBhMCVVMxCzAJBgNVBAgTAkNBMRUwEwYDVQQHEwxT
YW5GcmFuY2lzY28xFTATBgNVBAoTDFBpeGdsbywgSW5jLjEQMA4GA1UECxMHVlBO
LUNJRTEPMA0GA1UEAxMGY2llNTI2MRwwGgYDVQQpExNCYWxhIENoYW5kcmFzZWth
cmFuMR4wHAYJKoZIhvcNAQkBFg9iYWxhQHBpeGdsby5jb20wggIiMA0GCSqGSIb3
DQEBAQUAA4ICDwAwggIKAoICAQCbieiGnlNESbiYni3U074fanfHbV/c9nLQLFMb
NQ6Xz4/yuBTtrTO5BrRa55oS2C/d2rwn+dkY4gQ/21jwzAZi6DK/w2gokT4Wm0na
XGkTC0hX4UpnD6tp3jMJtEkdCU081QYYpgEU0eWYGMgDZRgGsMYnQ0CNFq3go8ei
vjNBTnJDBi4WvHqKtB+9xzIXlK/SaJU/3rh/18wZigGjtZIX4qc9coXQmt4i2FWs
xIvaZCsn8y8S4IWI/07nTR/N9t/oCDrCZzwbGsZaYESjfS3uWrsCbEKJtc1xUJby
VwGWMfjScfZfPnH6oDVazVo7k8QIVBZWjkDMW2zLeBRA2QDhkfA0W+dmUTurIhsF
es7z97U4k6oimqu716D9VOJ0tSn4MunvJwUqcaFxvpeXCFr2tNYL4Urds5jolwu5
cllP1o3fl8PEnUqXSsIKTkfTJgnPey6wV2eXTsmthz0eIou9YwBP9HHUY2o9KNIN
q3Iv6CNtXUXdLCkqHgrGI04GMgzOVVLxRkZ0xvZBf5XfnXaD2Cwxq+PN6hF/1ma4
vmFfTZEqrJgl+HHGf6mVwsBj5RXpY/tUNUzIyGfqD9iG5OhO7RGpEQq1T6P4u9jy
/8Y7fqv77W0ihimwKKQ9ZpwN3Ub2zRdZ8zrx/JCoN9rB4ARiuMf1srh3xtGHEawt
1A2e9wIDAQABo4IBazCCAWcwCQYDVR0TBAIwADAtBglghkgBhvhCAQ0EIBYeRWFz
eS1SU0EgR2VuZXJhdGVkIENlcnRpZmljYXRlMB0GA1UdDgQWBBQSsKP7Zl2OA0Fy
OXCb9lxH7a1e5zCB6QYDVR0jBIHhMIHegBTvOI0UUFinW02cF3L837msp1GwEKGB
uqSBtzCBtDELMAkGA1UEBhMCVVMxCzAJBgNVBAgTAkNBMRUwEwYDVQQHEwxTYW5G
cmFuY2lzY28xFTATBgNVBAoTDFBpeGdsbywgSW5jLjEQMA4GA1UECxMHVlBOLUNJ
RTEaMBgGA1UEAxMRdHVubmVsLnBpeGdsby5jb20xHDAaBgNVBCkTE0JhbGEgQ2hh
bmRyYXNla2FyYW4xHjAcBgkqhkiG9w0BCQEWD2JhbGFAcGl4Z2xvLmNvbYIJAKbb
xoOA5qB5MBMGA1UdJQQMMAoGCCsGAQUFBwMCMAsGA1UdDwQEAwIHgDANBgkqhkiG
9w0BAQUFAAOCAgEAEYHonWYJh0sgBi3tsi/JTjBinotYns/hvtehI6W3MwUydb1D
nq+D5Fe7F2I3BONQlaZUKVL9/LH1BksBer2XlIW1ek2I3XYcZp1/1lADGMRagebf
RsV0m5ApulbTErJa/277ql17cwqJNIEY39SfwXHS3yfdADJtar4JMSxTBEVTH6ix
q8eyPrvskhsn944HF7Kg86y4q9v8yYqJ3lrzcxfNH3K03Xzq2Mg1le6M4cJrdGdC
2dDXaoWf7yonSHYY02pULp77UuQLoUXHdMJDa6onP4UjHVPrA0q8+dOK1KqVvIgK
ivjN5RmlJAAFBOwQqQ3KZXCW/zRayV0UxLIESe5DWHZYQxLk5IT4E9foqlW6V5Tm
UucYvpK5zGNALuNUrWXMk7dnPjTXukLOn6Cx93H1qNSPhwP38B8RqF8uTh6sB36b
xJqeyhls2poiVNR+X5QBuZzLcNQyxdNbOQaLQBcoMHxQCXXoQZbXZQdW2uJatyGa
6msmV4hL14WOvSYdDbtfuKzvuSJZ8ZlxnlPkm1aUqStfbOZAkzh6R5QVfV/pQJop
ylMQB4B9/Au2f50S2iAZy17p5Dis7T6+LO9mD/OcwZTOqC4dXPOGKz5jvBoc09Am
Iu1bjcdOQbhL8+5TBfWd2ewb+XPTIxwSTQgMqxzFUw/yWStSaXK0ZUhF8tY=
-----END CERTIFICATE-----
