Certificate:
    Data:
        Version: 3 (0x2)
        Serial Number: 530 (0x212)
    Signature Algorithm: sha1WithRSAEncryption
        Issuer: C=US, ST=CA, L=SanFrancisco, O=Pixglo, Inc., OU=VPN-CIE, CN=tunnel.pixglo.com/name=Bala Chandrasekaran/emailAddress=bala@pixglo.com
        Validity
            Not Before: Feb 14 06:36:25 2018 GMT
            Not After : Feb 12 06:36:25 2028 GMT
        Subject: C=US, ST=CA, L=SanFrancisco, O=Pixglo, Inc., OU=VPN-CIE, CN=cie529/name=Bala Chandrasekaran/emailAddress=bala@pixglo.com
        Subject Public Key Info:
            Public Key Algorithm: rsaEncryption
                Public-Key: (4096 bit)
                Modulus:
                    00:b5:ad:ad:f2:7b:a5:93:4e:5a:e0:74:ea:37:f8:
                    6e:7e:87:19:34:1f:18:23:db:ca:40:3a:38:4c:ad:
                    f9:81:b0:4f:50:f4:88:44:00:ca:e3:10:b7:90:5f:
                    d9:cb:ae:23:0c:08:e2:04:bf:ed:c0:f2:d1:49:ce:
                    23:d7:e2:9f:c7:d0:47:06:8c:f6:2a:15:ea:bb:ed:
                    b8:e0:b9:43:78:1d:86:24:50:ba:f5:e7:fa:77:b0:
                    e7:9f:cc:ae:6c:93:9d:ab:79:c3:1a:5a:3d:6a:da:
                    c9:be:93:41:e3:5a:c5:87:8d:09:1c:30:56:d4:33:
                    ed:72:0a:dd:09:60:e3:d5:d8:dd:40:9d:d4:71:c4:
                    e4:e4:09:ea:1a:be:11:b7:7e:6b:a9:cd:2c:15:0e:
                    df:be:bb:f2:11:78:43:ad:15:7e:e9:97:0d:37:7a:
                    e7:8c:ad:48:df:3c:b1:7e:e3:5b:f7:bc:c8:d8:71:
                    a7:32:76:23:a4:68:f1:ee:dc:21:1b:23:a4:11:e0:
                    99:a5:38:f1:3b:c9:cd:b0:84:54:9f:42:fd:e1:50:
                    5a:e0:c1:f8:a5:7d:92:05:3b:ca:2f:7b:e4:98:48:
                    9f:0b:d6:d6:fc:33:fe:a9:6d:19:f3:bb:19:ee:f7:
                    29:6b:5e:7d:31:aa:3e:42:ec:48:00:ba:1e:36:35:
                    4b:06:68:e1:02:30:15:79:42:ee:2e:3c:b4:18:e4:
                    03:50:f7:40:57:fd:f1:bf:d3:fa:81:fd:b1:1d:ea:
                    4d:08:83:99:6d:fb:bf:11:f1:4e:1e:60:b7:38:d0:
                    f8:27:03:5c:7d:61:61:fb:bb:98:a6:ca:5d:b4:3f:
                    0a:48:42:25:36:d4:79:ca:26:cc:80:79:1f:0b:b5:
                    25:25:9d:24:f8:7d:e8:5a:06:6e:47:75:a8:fb:cc:
                    fb:bc:44:36:e0:bf:0d:9f:42:a4:ec:da:e8:50:08:
                    1e:c1:a2:50:eb:f2:34:32:a3:a3:ec:fc:17:95:90:
                    76:5d:c4:62:01:2e:fa:e7:bd:85:d5:9b:76:dd:41:
                    02:eb:62:51:be:a2:30:55:12:7e:df:68:98:f6:13:
                    cf:37:9e:31:56:5d:dc:f6:c9:f1:1a:ea:fa:ca:1c:
                    c1:8d:39:af:d1:8d:51:55:82:e2:84:88:35:69:9c:
                    d3:7b:d6:5c:55:28:8c:f1:23:93:7e:7a:46:a3:dc:
                    a6:0a:7f:d7:bd:d8:de:64:a2:a1:8a:6b:ba:51:9f:
                    9f:0c:e7:4e:3a:b8:87:68:83:d0:3d:22:e1:46:9d:
                    ae:3c:82:14:ea:e5:a2:77:40:8d:e9:2e:20:4b:95:
                    43:84:0d:11:c2:3c:e1:0e:cf:3f:85:a2:7d:d3:f1:
                    0b:00:eb
                Exponent: 65537 (0x10001)
        X509v3 extensions:
            X509v3 Basic Constraints: 
                CA:FALSE
            Netscape Comment: 
                Easy-RSA Generated Certificate
            X509v3 Subject Key Identifier: 
                AA:A9:24:9C:91:F0:77:2C:19:EB:D4:93:7C:64:32:C8:F0:F3:E8:2F
            X509v3 Authority Key Identifier: 
                keyid:EF:38:8D:14:50:58:A7:5B:4D:9C:17:72:FC:DF:B9:AC:A7:51:B0:10
                DirName:/C=US/ST=CA/L=SanFrancisco/O=Pixglo, Inc./OU=VPN-CIE/CN=tunnel.pixglo.com/name=Bala Chandrasekaran/emailAddress=bala@pixglo.com
                serial:A6:DB:C6:83:80:E6:A0:79

            X509v3 Extended Key Usage: 
                TLS Web Client Authentication
            X509v3 Key Usage: 
                Digital Signature
    Signature Algorithm: sha1WithRSAEncryption
         70:04:4b:6f:03:cf:f4:e0:c6:27:72:47:6f:64:8f:11:64:0b:
         8f:33:b3:51:20:d9:75:ca:34:5e:b9:03:d3:86:c6:1c:f5:93:
         16:1a:0d:c1:8a:01:a5:72:c3:33:92:15:e0:00:dc:64:62:a6:
         5a:bc:0a:ec:41:6b:9f:c2:2f:89:82:65:2f:ad:27:38:ff:ab:
         2a:5c:11:65:c2:ad:4c:36:d5:84:4f:e9:8d:bd:a3:53:b4:43:
         f5:8b:e6:0a:50:a1:fa:02:5c:c3:42:4d:e7:24:ec:d3:4d:f4:
         e8:b5:f8:79:d8:62:b3:9f:23:49:79:75:28:ca:82:89:53:44:
         96:7b:86:28:44:a7:38:4d:8a:b0:df:b4:78:84:b1:37:a7:8a:
         ce:26:cf:0f:16:2a:65:7d:7e:75:c3:9e:bc:ff:e8:ce:9d:ec:
         3e:e8:42:78:d4:fb:52:17:2d:7d:da:39:54:e3:07:e4:87:a6:
         d3:dd:f8:01:60:9f:6e:7a:16:2c:6b:d1:f4:82:09:33:28:cb:
         56:16:ab:dd:b4:ef:f7:49:b0:b2:0c:c2:a1:59:e5:09:57:28:
         30:bf:21:bc:fe:b7:b9:64:e3:fb:98:7b:31:17:75:81:97:1f:
         21:ac:90:65:f9:9c:7a:f2:61:56:cb:e9:7a:37:cd:57:0a:72:
         1d:ca:f9:36:65:1a:a8:f3:80:95:43:c3:58:b6:a8:ef:ac:e7:
         fc:56:30:fc:53:d9:69:cc:10:02:2c:ef:56:a9:7c:fb:a8:8c:
         48:99:d5:55:6e:98:38:f6:b2:81:f7:91:5b:d3:60:79:56:1d:
         34:14:c2:9b:c2:30:0f:be:9b:4c:34:51:fa:d9:1e:c0:3a:f9:
         ce:60:3e:0d:98:35:ff:c7:5f:89:47:de:93:88:c2:65:c0:aa:
         91:5a:cb:4e:ec:54:69:63:54:b9:19:a1:c4:ad:b9:e9:24:4e:
         e9:af:41:a6:76:09:18:85:52:5b:8b:df:d2:0b:99:05:81:93:
         87:b1:16:6a:55:46:ba:5b:d4:23:da:58:ef:49:a7:23:95:e1:
         82:3c:1f:f6:0d:ea:fe:6f:26:d8:ad:03:47:ab:ca:86:be:3e:
         2b:6f:bb:e9:15:0b:6f:31:4b:88:ba:d2:c7:98:b9:80:37:56:
         dd:97:1f:d8:3e:90:30:a3:cf:7c:65:69:77:ce:51:2c:26:49:
         70:20:31:48:28:40:48:28:e3:c3:ed:42:00:80:99:95:84:6a:
         33:d0:84:7b:f6:b8:02:9d:e8:5e:b1:bf:59:f0:44:1a:7d:1e:
         05:9c:86:1c:c3:bd:dc:18:fc:52:e6:eb:fe:fd:83:29:e4:68:
         91:ad:ad:9a:69:d7:c7:4e
-----BEGIN CERTIFICATE-----
MIIHSDCCBTCgAwIBAgICAhIwDQYJKoZIhvcNAQEFBQAwgbQxCzAJBgNVBAYTAlVT
MQswCQYDVQQIEwJDQTEVMBMGA1UEBxMMU2FuRnJhbmNpc2NvMRUwEwYDVQQKEwxQ
aXhnbG8sIEluYy4xEDAOBgNVBAsTB1ZQTi1DSUUxGjAYBgNVBAMTEXR1bm5lbC5w
aXhnbG8uY29tMRwwGgYDVQQpExNCYWxhIENoYW5kcmFzZWthcmFuMR4wHAYJKoZI
hvcNAQkBFg9iYWxhQHBpeGdsby5jb20wHhcNMTgwMjE0MDYzNjI1WhcNMjgwMjEy
MDYzNjI1WjCBqTELMAkGA1UEBhMCVVMxCzAJBgNVBAgTAkNBMRUwEwYDVQQHEwxT
YW5GcmFuY2lzY28xFTATBgNVBAoTDFBpeGdsbywgSW5jLjEQMA4GA1UECxMHVlBO
LUNJRTEPMA0GA1UEAxMGY2llNTI5MRwwGgYDVQQpExNCYWxhIENoYW5kcmFzZWth
cmFuMR4wHAYJKoZIhvcNAQkBFg9iYWxhQHBpeGdsby5jb20wggIiMA0GCSqGSIb3
DQEBAQUAA4ICDwAwggIKAoICAQC1ra3ye6WTTlrgdOo3+G5+hxk0Hxgj28pAOjhM
rfmBsE9Q9IhEAMrjELeQX9nLriMMCOIEv+3A8tFJziPX4p/H0EcGjPYqFeq77bjg
uUN4HYYkULr15/p3sOefzK5sk52recMaWj1q2sm+k0HjWsWHjQkcMFbUM+1yCt0J
YOPV2N1AndRxxOTkCeoavhG3fmupzSwVDt++u/IReEOtFX7plw03eueMrUjfPLF+
41v3vMjYcacydiOkaPHu3CEbI6QR4JmlOPE7yc2whFSfQv3hUFrgwfilfZIFO8ov
e+SYSJ8L1tb8M/6pbRnzuxnu9ylrXn0xqj5C7EgAuh42NUsGaOECMBV5Qu4uPLQY
5ANQ90BX/fG/0/qB/bEd6k0Ig5lt+78R8U4eYLc40PgnA1x9YWH7u5imyl20PwpI
QiU21HnKJsyAeR8LtSUlnST4fehaBm5Hdaj7zPu8RDbgvw2fQqTs2uhQCB7BolDr
8jQyo6Ps/BeVkHZdxGIBLvrnvYXVm3bdQQLrYlG+ojBVEn7faJj2E883njFWXdz2
yfEa6vrKHMGNOa/RjVFVguKEiDVpnNN71lxVKIzxI5N+ekaj3KYKf9e92N5koqGK
a7pRn58M5046uIdog9A9IuFGna48ghTq5aJ3QI3pLiBLlUOEDRHCPOEOzz+Fon3T
8QsA6wIDAQABo4IBazCCAWcwCQYDVR0TBAIwADAtBglghkgBhvhCAQ0EIBYeRWFz
eS1SU0EgR2VuZXJhdGVkIENlcnRpZmljYXRlMB0GA1UdDgQWBBSqqSSckfB3LBnr
1JN8ZDLI8PPoLzCB6QYDVR0jBIHhMIHegBTvOI0UUFinW02cF3L837msp1GwEKGB
uqSBtzCBtDELMAkGA1UEBhMCVVMxCzAJBgNVBAgTAkNBMRUwEwYDVQQHEwxTYW5G
cmFuY2lzY28xFTATBgNVBAoTDFBpeGdsbywgSW5jLjEQMA4GA1UECxMHVlBOLUNJ
RTEaMBgGA1UEAxMRdHVubmVsLnBpeGdsby5jb20xHDAaBgNVBCkTE0JhbGEgQ2hh
bmRyYXNla2FyYW4xHjAcBgkqhkiG9w0BCQEWD2JhbGFAcGl4Z2xvLmNvbYIJAKbb
xoOA5qB5MBMGA1UdJQQMMAoGCCsGAQUFBwMCMAsGA1UdDwQEAwIHgDANBgkqhkiG
9w0BAQUFAAOCAgEAcARLbwPP9ODGJ3JHb2SPEWQLjzOzUSDZdco0XrkD04bGHPWT
FhoNwYoBpXLDM5IV4ADcZGKmWrwK7EFrn8IviYJlL60nOP+rKlwRZcKtTDbVhE/p
jb2jU7RD9YvmClCh+gJcw0JN5yTs00306LX4edhis58jSXl1KMqCiVNElnuGKESn
OE2KsN+0eISxN6eKzibPDxYqZX1+dcOevP/ozp3sPuhCeNT7Uhctfdo5VOMH5Iem
0934AWCfbnoWLGvR9IIJMyjLVhar3bTv90mwsgzCoVnlCVcoML8hvP63uWTj+5h7
MRd1gZcfIayQZfmcevJhVsvpejfNVwpyHcr5NmUaqPOAlUPDWLao76zn/FYw/FPZ
acwQAizvVql8+6iMSJnVVW6YOPaygfeRW9NgeVYdNBTCm8IwD76bTDRR+tkewDr5
zmA+DZg1/8dfiUfek4jCZcCqkVrLTuxUaWNUuRmhxK256SRO6a9BpnYJGIVSW4vf
0guZBYGTh7EWalVGulvUI9pY70mnI5Xhgjwf9g3q/m8m2K0DR6vKhr4+K2+76RUL
bzFLiLrSx5i5gDdW3Zcf2D6QMKPPfGVpd85RLCZJcCAxSChASCjjw+1CAICZlYRq
M9CEe/a4Ap3oXrG/WfBEGn0eBZyGHMO93Bj8Uubr/v2DKeRoka2tmmnXx04=
-----END CERTIFICATE-----
