Certificate:
    Data:
        Version: 3 (0x2)
        Serial Number: 531 (0x213)
    Signature Algorithm: sha1WithRSAEncryption
        Issuer: C=US, ST=CA, L=SanFrancisco, O=Pixglo, Inc., OU=VPN-CIE, CN=tunnel.pixglo.com/name=Bala Chandrasekaran/emailAddress=bala@pixglo.com
        Validity
            Not Before: Feb 14 06:36:26 2018 GMT
            Not After : Feb 12 06:36:26 2028 GMT
        Subject: C=US, ST=CA, L=SanFrancisco, O=Pixglo, Inc., OU=VPN-CIE, CN=cie530/name=Bala Chandrasekaran/emailAddress=bala@pixglo.com
        Subject Public Key Info:
            Public Key Algorithm: rsaEncryption
                Public-Key: (4096 bit)
                Modulus:
                    00:e6:75:6a:ba:0c:0e:58:09:9d:55:62:f6:d6:be:
                    99:a8:28:50:4f:81:b9:72:09:62:fc:06:7e:9e:46:
                    5d:02:2b:79:87:8f:23:61:99:26:c0:30:cb:05:b6:
                    9d:d7:aa:88:99:42:d5:a4:d5:45:9f:1f:a2:8b:30:
                    c8:95:53:ba:bb:96:2f:29:8d:f3:b0:79:1f:52:f8:
                    65:e6:e0:cb:e1:b7:d5:ab:f5:51:7b:30:ff:24:b3:
                    56:e9:c7:71:df:41:84:2c:84:83:47:ba:67:df:f2:
                    23:cd:9d:ac:94:0c:69:88:f9:82:37:02:fd:20:2c:
                    07:b8:e8:a3:ea:b5:c7:5d:00:57:95:b9:c7:de:af:
                    b4:c2:8a:c3:08:f1:52:78:87:87:db:dc:42:73:7c:
                    9d:aa:8f:97:5f:1f:f1:e8:0c:f6:ec:84:33:0a:01:
                    76:34:b8:dd:ce:c9:c0:d5:1c:0d:f2:b3:3b:84:74:
                    2a:34:ab:89:4e:6f:2a:28:32:74:f7:45:30:79:05:
                    ed:80:72:b9:60:bb:76:a3:cf:98:89:bb:e7:13:e8:
                    ac:1b:ef:0d:26:a3:ac:a0:90:5c:13:1f:66:53:78:
                    97:46:8c:c1:f8:ac:f8:c2:ac:2b:e6:dd:58:bd:db:
                    57:0c:1c:6d:3e:9f:9c:01:e9:b6:9a:0f:09:89:d5:
                    be:e1:30:4b:f3:c6:b1:0d:6e:f4:44:85:76:ea:08:
                    57:7d:ee:de:51:cd:c2:cd:62:81:fb:2f:d8:b1:bf:
                    b8:3b:04:42:cd:ea:00:45:9b:f5:7a:8c:e4:68:7d:
                    12:b5:11:9d:80:f4:96:78:f7:5b:28:68:f5:82:9f:
                    b3:85:bb:a3:44:0b:1b:10:e8:9b:d2:55:cf:02:42:
                    9d:f5:8b:37:5c:0d:b7:b8:a7:71:6e:61:c3:f3:4b:
                    e6:4d:57:50:c1:ec:20:20:c5:6b:f6:1c:8a:6a:94:
                    ad:d1:5a:0b:a0:2a:5d:4a:34:cc:9d:58:4e:76:f7:
                    45:cd:2e:dc:77:55:bb:13:31:3b:df:23:89:95:a0:
                    2b:4c:61:61:fb:9c:98:33:2e:52:c4:89:b1:3d:2d:
                    1d:f2:be:56:c7:ca:35:cf:94:61:28:4e:d1:d1:ac:
                    18:12:94:f2:d0:10:bb:98:ed:a9:8f:bd:e5:08:73:
                    c7:f1:c2:7f:2d:17:a8:54:7b:c9:87:d7:63:91:2e:
                    99:0b:cb:0f:33:e5:7a:14:e3:b4:f1:fd:ca:1d:bd:
                    b2:f6:1f:4e:8a:43:e9:c6:6a:81:dc:98:8e:e9:12:
                    8d:b5:1d:78:ad:5f:75:ef:5e:e3:cc:a2:93:04:82:
                    00:57:6b:69:f5:f3:8c:37:b9:89:6a:41:7b:1c:f5:
                    a5:27:c9
                Exponent: 65537 (0x10001)
        X509v3 extensions:
            X509v3 Basic Constraints: 
                CA:FALSE
            Netscape Comment: 
                Easy-RSA Generated Certificate
            X509v3 Subject Key Identifier: 
                38:EB:7B:CE:61:75:30:B1:F5:BA:31:82:E5:46:48:1A:D8:FD:53:4F
            X509v3 Authority Key Identifier: 
                keyid:EF:38:8D:14:50:58:A7:5B:4D:9C:17:72:FC:DF:B9:AC:A7:51:B0:10
                DirName:/C=US/ST=CA/L=SanFrancisco/O=Pixglo, Inc./OU=VPN-CIE/CN=tunnel.pixglo.com/name=Bala Chandrasekaran/emailAddress=bala@pixglo.com
                serial:A6:DB:C6:83:80:E6:A0:79

            X509v3 Extended Key Usage: 
                TLS Web Client Authentication
            X509v3 Key Usage: 
                Digital Signature
    Signature Algorithm: sha1WithRSAEncryption
         61:81:fe:31:d9:cd:33:d7:e9:2a:f0:3b:1e:a3:ee:04:30:ea:
         61:62:82:16:14:90:2e:18:19:fc:08:d2:a6:d9:6a:42:b5:d3:
         d8:de:1e:dc:87:c9:3f:dc:c8:5f:e4:4b:a1:19:b2:cf:c0:37:
         0d:6a:8c:b2:f8:c9:7e:0a:37:fb:aa:21:c4:c6:2a:58:9d:bd:
         66:21:dd:94:9a:6a:48:4b:6e:ae:da:1a:a9:75:97:74:4e:db:
         99:4d:58:91:0f:8f:58:a2:7f:14:b9:28:6e:b4:d8:5a:a1:70:
         92:29:d4:de:f0:b4:58:a7:79:5e:2a:97:94:fe:5a:c3:27:66:
         2b:92:17:fd:88:c8:c2:a4:37:5c:e6:66:53:e5:02:f0:de:9d:
         94:f9:95:06:9f:df:af:32:e7:4e:4f:64:cb:7f:46:e0:52:f2:
         bd:8d:1a:82:d5:b3:24:c9:a3:44:b7:a5:4d:a4:c7:75:ca:c3:
         b4:f1:bf:0d:a5:cc:78:94:69:5b:97:85:62:b3:60:9c:1d:cc:
         11:d0:58:46:46:d1:f9:5e:54:99:8a:b4:f1:4d:7e:72:30:86:
         55:20:77:a9:67:0b:40:05:58:d2:50:fd:a5:6b:86:1c:f9:03:
         10:2d:53:ad:bc:84:1e:f0:50:8e:12:b8:83:c1:82:a7:fc:be:
         17:46:9c:e0:53:78:77:3b:07:66:56:b6:d3:06:24:86:59:d4:
         c4:0c:82:ac:c9:4f:e4:f5:5d:16:de:79:23:0e:47:9a:5d:2d:
         f8:3e:17:60:9e:92:9e:1b:77:ec:39:6d:ba:ea:b2:fd:ee:92:
         4f:e8:53:a1:58:2b:05:de:88:27:da:6a:0a:10:bd:3e:ac:09:
         ca:24:51:d7:88:5a:c5:7c:dc:71:e1:e7:53:d4:fb:02:51:35:
         17:8c:ee:02:23:0f:a7:86:3b:e6:86:ec:1c:38:9c:61:98:8d:
         e4:eb:38:11:be:91:bf:9a:78:75:d9:2f:d2:44:bc:b6:e3:cb:
         f2:f6:6b:68:a5:b4:75:71:37:fb:1b:e8:0c:c8:e3:e3:01:6b:
         1a:c2:18:01:9e:4e:55:17:2e:c9:08:c0:1f:25:81:63:5e:6c:
         f6:2e:25:9b:93:11:46:66:9f:95:e6:8f:c9:4a:a3:23:1b:3c:
         52:13:ef:43:6a:6d:33:26:ac:86:24:b3:12:85:e4:f8:ac:c1:
         56:2c:5b:11:33:32:cd:f7:dc:64:53:03:c1:3c:61:c3:11:17:
         52:09:b2:f5:9f:5e:dc:a1:8e:7b:d8:f9:e3:b9:5a:4f:92:b7:
         bb:f1:52:a0:b9:39:b4:b8:2c:f1:5b:0c:6f:d4:1d:85:cd:23:
         76:4e:7a:0e:02:af:5a:8b
-----BEGIN CERTIFICATE-----
MIIHSDCCBTCgAwIBAgICAhMwDQYJKoZIhvcNAQEFBQAwgbQxCzAJBgNVBAYTAlVT
MQswCQYDVQQIEwJDQTEVMBMGA1UEBxMMU2FuRnJhbmNpc2NvMRUwEwYDVQQKEwxQ
aXhnbG8sIEluYy4xEDAOBgNVBAsTB1ZQTi1DSUUxGjAYBgNVBAMTEXR1bm5lbC5w
aXhnbG8uY29tMRwwGgYDVQQpExNCYWxhIENoYW5kcmFzZWthcmFuMR4wHAYJKoZI
hvcNAQkBFg9iYWxhQHBpeGdsby5jb20wHhcNMTgwMjE0MDYzNjI2WhcNMjgwMjEy
MDYzNjI2WjCBqTELMAkGA1UEBhMCVVMxCzAJBgNVBAgTAkNBMRUwEwYDVQQHEwxT
YW5GcmFuY2lzY28xFTATBgNVBAoTDFBpeGdsbywgSW5jLjEQMA4GA1UECxMHVlBO
LUNJRTEPMA0GA1UEAxMGY2llNTMwMRwwGgYDVQQpExNCYWxhIENoYW5kcmFzZWth
cmFuMR4wHAYJKoZIhvcNAQkBFg9iYWxhQHBpeGdsby5jb20wggIiMA0GCSqGSIb3
DQEBAQUAA4ICDwAwggIKAoICAQDmdWq6DA5YCZ1VYvbWvpmoKFBPgblyCWL8Bn6e
Rl0CK3mHjyNhmSbAMMsFtp3XqoiZQtWk1UWfH6KLMMiVU7q7li8pjfOweR9S+GXm
4Mvht9Wr9VF7MP8ks1bpx3HfQYQshINHumff8iPNnayUDGmI+YI3Av0gLAe46KPq
tcddAFeVucfer7TCisMI8VJ4h4fb3EJzfJ2qj5dfH/HoDPbshDMKAXY0uN3OycDV
HA3yszuEdCo0q4lObyooMnT3RTB5Be2Acrlgu3ajz5iJu+cT6Kwb7w0mo6ygkFwT
H2ZTeJdGjMH4rPjCrCvm3Vi921cMHG0+n5wB6baaDwmJ1b7hMEvzxrENbvREhXbq
CFd97t5RzcLNYoH7L9ixv7g7BELN6gBFm/V6jORofRK1EZ2A9JZ491soaPWCn7OF
u6NECxsQ6JvSVc8CQp31izdcDbe4p3FuYcPzS+ZNV1DB7CAgxWv2HIpqlK3RWgug
Kl1KNMydWE5290XNLtx3VbsTMTvfI4mVoCtMYWH7nJgzLlLEibE9LR3yvlbHyjXP
lGEoTtHRrBgSlPLQELuY7amPveUIc8fxwn8tF6hUe8mH12ORLpkLyw8z5XoU47Tx
/codvbL2H06KQ+nGaoHcmI7pEo21HXitX3XvXuPMopMEggBXa2n184w3uYlqQXsc
9aUnyQIDAQABo4IBazCCAWcwCQYDVR0TBAIwADAtBglghkgBhvhCAQ0EIBYeRWFz
eS1SU0EgR2VuZXJhdGVkIENlcnRpZmljYXRlMB0GA1UdDgQWBBQ463vOYXUwsfW6
MYLlRkga2P1TTzCB6QYDVR0jBIHhMIHegBTvOI0UUFinW02cF3L837msp1GwEKGB
uqSBtzCBtDELMAkGA1UEBhMCVVMxCzAJBgNVBAgTAkNBMRUwEwYDVQQHEwxTYW5G
cmFuY2lzY28xFTATBgNVBAoTDFBpeGdsbywgSW5jLjEQMA4GA1UECxMHVlBOLUNJ
RTEaMBgGA1UEAxMRdHVubmVsLnBpeGdsby5jb20xHDAaBgNVBCkTE0JhbGEgQ2hh
bmRyYXNla2FyYW4xHjAcBgkqhkiG9w0BCQEWD2JhbGFAcGl4Z2xvLmNvbYIJAKbb
xoOA5qB5MBMGA1UdJQQMMAoGCCsGAQUFBwMCMAsGA1UdDwQEAwIHgDANBgkqhkiG
9w0BAQUFAAOCAgEAYYH+MdnNM9fpKvA7HqPuBDDqYWKCFhSQLhgZ/AjSptlqQrXT
2N4e3IfJP9zIX+RLoRmyz8A3DWqMsvjJfgo3+6ohxMYqWJ29ZiHdlJpqSEturtoa
qXWXdE7bmU1YkQ+PWKJ/FLkobrTYWqFwkinU3vC0WKd5XiqXlP5awydmK5IX/YjI
wqQ3XOZmU+UC8N6dlPmVBp/frzLnTk9ky39G4FLyvY0agtWzJMmjRLelTaTHdcrD
tPG/DaXMeJRpW5eFYrNgnB3MEdBYRkbR+V5UmYq08U1+cjCGVSB3qWcLQAVY0lD9
pWuGHPkDEC1TrbyEHvBQjhK4g8GCp/y+F0ac4FN4dzsHZla20wYkhlnUxAyCrMlP
5PVdFt55Iw5Hml0t+D4XYJ6Snht37Dltuuqy/e6ST+hToVgrBd6IJ9pqChC9PqwJ
yiRR14haxXzcceHnU9T7AlE1F4zuAiMPp4Y75obsHDicYZiN5Os4Eb6Rv5p4ddkv
0kS8tuPL8vZraKW0dXE3+xvoDMjj4wFrGsIYAZ5OVRcuyQjAHyWBY15s9i4lm5MR
RmafleaPyUqjIxs8UhPvQ2ptMyashiSzEoXk+KzBVixbETMyzffcZFMDwTxhwxEX
Ugmy9Z9e3KGOe9j547laT5K3u/FSoLk5tLgs8VsMb9Qdhc0jdk56DgKvWos=
-----END CERTIFICATE-----
