Certificate:
    Data:
        Version: 3 (0x2)
        Serial Number: 532 (0x214)
    Signature Algorithm: sha1WithRSAEncryption
        Issuer: C=US, ST=CA, L=SanFrancisco, O=Pixglo, Inc., OU=VPN-CIE, CN=tunnel.pixglo.com/name=Bala Chandrasekaran/emailAddress=bala@pixglo.com
        Validity
            Not Before: Feb 14 06:36:28 2018 GMT
            Not After : Feb 12 06:36:28 2028 GMT
        Subject: C=US, ST=CA, L=SanFrancisco, O=Pixglo, Inc., OU=VPN-CIE, CN=cie531/name=Bala Chandrasekaran/emailAddress=bala@pixglo.com
        Subject Public Key Info:
            Public Key Algorithm: rsaEncryption
                Public-Key: (4096 bit)
                Modulus:
                    00:cf:81:54:57:8a:1f:73:f6:c6:10:c0:c2:a9:85:
                    67:66:00:21:b1:2a:47:a9:30:f7:5e:90:8b:57:91:
                    71:fc:7d:1b:86:32:98:f9:99:3e:eb:c9:ea:33:1b:
                    c3:32:2e:99:d6:09:19:24:e1:82:91:fc:f9:1d:63:
                    e3:3e:9d:25:f6:1f:15:da:70:32:da:88:a2:d1:fa:
                    45:4a:13:c5:3d:79:62:2f:90:34:88:f5:66:e6:29:
                    ba:61:1c:e7:8a:f3:fe:31:7b:a5:14:b7:1e:42:36:
                    17:3c:a0:6d:2c:30:59:7f:f3:8f:94:53:4f:08:41:
                    34:7e:b8:f6:dd:aa:b0:a5:55:35:a3:a4:04:e8:6e:
                    b0:7e:9b:49:1f:c1:f4:25:3e:f8:6f:fa:74:99:27:
                    3a:70:1b:9b:e0:9d:68:48:eb:4e:3d:14:86:67:8b:
                    25:ac:6f:de:4d:ee:d4:f7:55:1d:19:73:ae:00:43:
                    99:a4:04:5f:e5:3a:7d:69:08:45:8c:d8:2e:05:4a:
                    39:83:24:dd:4c:17:d0:43:47:f2:d9:a4:a8:f9:3d:
                    86:2a:58:6d:0e:83:2a:94:89:96:3a:7e:77:3f:1d:
                    27:fb:b9:28:e4:bd:7f:e7:43:a4:bb:af:f9:6c:24:
                    f0:75:c5:20:a0:d7:63:df:83:36:cc:7f:69:d2:6f:
                    cd:86:8f:b1:98:5d:b1:b1:b6:4f:48:5f:83:2a:da:
                    14:b5:04:fe:63:19:23:d9:a3:d6:3c:0a:04:9f:0f:
                    dc:26:a5:21:aa:86:d9:4a:6a:a4:7d:93:d9:b9:8d:
                    5b:ab:55:2e:a4:73:0a:32:14:8f:c7:3b:d0:13:21:
                    45:33:6f:30:ba:30:54:fe:4e:a9:d5:68:84:eb:cc:
                    c6:18:18:5d:68:41:e1:31:e3:f8:b5:17:4b:55:6f:
                    4a:59:14:0c:14:1a:35:dd:a6:f5:2f:31:b5:21:ee:
                    1e:85:bc:6f:04:d5:f5:fb:34:6b:99:39:b9:cd:36:
                    3c:2a:f7:ae:b7:8d:09:24:bf:b0:28:06:59:12:5e:
                    03:a0:7c:9f:5f:51:1e:70:e2:a5:2c:d7:4e:12:2f:
                    0d:79:45:51:60:f7:9f:7b:61:2b:a4:26:dd:f1:9e:
                    0a:bc:48:b7:9b:55:1e:ca:03:3b:ce:ca:3b:19:c7:
                    b9:51:36:aa:5c:69:ab:13:14:ec:e2:dd:f9:e5:c6:
                    0e:34:1c:a7:43:d2:58:09:50:8c:a1:1c:6f:8e:5d:
                    be:ca:9c:62:16:4c:6f:70:23:91:d3:35:da:20:59:
                    0a:8b:57:70:d7:53:76:5b:8a:8e:ee:ff:4b:a4:59:
                    b9:ab:1c:89:04:92:0a:95:70:59:d2:d4:8d:fa:29:
                    2d:c3:8f
                Exponent: 65537 (0x10001)
        X509v3 extensions:
            X509v3 Basic Constraints: 
                CA:FALSE
            Netscape Comment: 
                Easy-RSA Generated Certificate
            X509v3 Subject Key Identifier: 
                5B:5E:7D:83:69:4A:FE:45:02:B3:25:59:74:BD:A2:0C:E5:D0:DF:12
            X509v3 Authority Key Identifier: 
                keyid:EF:38:8D:14:50:58:A7:5B:4D:9C:17:72:FC:DF:B9:AC:A7:51:B0:10
                DirName:/C=US/ST=CA/L=SanFrancisco/O=Pixglo, Inc./OU=VPN-CIE/CN=tunnel.pixglo.com/name=Bala Chandrasekaran/emailAddress=bala@pixglo.com
                serial:A6:DB:C6:83:80:E6:A0:79

            X509v3 Extended Key Usage: 
                TLS Web Client Authentication
            X509v3 Key Usage: 
                Digital Signature
    Signature Algorithm: sha1WithRSAEncryption
         b2:ec:65:ef:5f:12:02:ca:9e:37:ca:af:b8:04:cf:ad:9b:c4:
         8c:b1:27:54:0d:f4:b3:a7:7d:d3:cd:70:6e:05:0f:1e:f6:d6:
         a4:c4:1d:88:39:46:cd:de:e3:94:f8:2f:57:09:d5:56:eb:a6:
         9b:f4:ad:77:32:9a:ed:68:df:21:ce:e1:00:9d:4d:4c:ab:ec:
         9a:55:b2:46:9d:1f:ce:d9:3d:9d:af:69:56:75:59:2a:a2:3c:
         fc:67:6d:56:c4:e3:e4:13:dd:73:a7:c4:d2:45:48:ea:23:06:
         a0:a8:b4:aa:af:8f:42:ff:a9:e9:a7:19:3f:82:ed:d7:7b:3c:
         9b:c9:04:79:6d:9c:7f:ef:58:71:ad:15:9b:3d:c0:47:06:f9:
         a5:a0:73:c4:af:c2:1c:81:23:03:b2:08:c0:33:c4:e8:74:7b:
         19:57:f7:71:98:7b:23:0b:07:24:27:2b:33:c1:c4:90:48:5a:
         af:db:c0:a7:45:90:e0:a7:a5:33:e8:5b:0a:bc:c9:b5:b5:22:
         5a:4f:77:38:f9:0b:d2:28:b1:db:7e:df:4d:6f:d7:64:9f:2e:
         38:d7:e7:d7:a2:9a:d7:0d:b1:23:d2:67:90:58:a2:54:08:a0:
         59:b6:79:62:c6:37:dc:ad:d3:04:79:3b:bc:08:d9:d7:08:64:
         7b:ef:be:9b:43:82:1d:ae:db:bb:ec:a1:7a:73:3b:c1:0f:4b:
         8c:2b:d7:ea:0a:40:17:ef:2b:20:a9:55:69:c6:7c:81:f0:66:
         78:28:60:6a:10:1b:a8:a8:67:d7:7c:91:38:b2:26:21:20:5f:
         39:b6:fa:dc:af:0a:01:c1:60:25:9a:92:6c:54:64:b4:3b:c6:
         f9:79:9a:f6:3c:00:7d:12:0a:f2:56:78:92:59:ea:bf:b1:72:
         17:3f:29:88:50:92:d0:9f:93:8c:c0:38:76:2b:98:88:be:d8:
         84:9d:fa:82:3d:ac:ca:8d:ad:48:30:7f:f0:9c:d7:a1:8d:aa:
         56:d4:da:cf:b9:97:12:e3:52:77:75:2d:75:fe:12:81:4b:56:
         67:e9:72:ee:e4:d6:45:60:5e:d8:2e:28:a1:18:71:2f:0a:8b:
         bc:45:71:ed:ac:40:a7:c2:37:ec:43:fa:bc:78:30:3d:78:9d:
         3c:c4:fb:ba:1f:ec:4d:cf:b6:0e:e7:09:d5:90:cf:f1:44:ba:
         71:5f:85:97:9e:ec:09:71:6b:02:21:dd:f3:b5:ab:66:ce:5e:
         b8:69:f4:61:d5:c3:cd:52:bd:4a:88:2f:91:00:bf:6e:32:9f:
         b7:81:b4:de:96:1b:1b:f5:e9:5b:b1:8f:bc:26:e5:35:66:4c:
         b9:f0:65:e8:a5:1c:91:c2
-----BEGIN CERTIFICATE-----
MIIHSDCCBTCgAwIBAgICAhQwDQYJKoZIhvcNAQEFBQAwgbQxCzAJBgNVBAYTAlVT
MQswCQYDVQQIEwJDQTEVMBMGA1UEBxMMU2FuRnJhbmNpc2NvMRUwEwYDVQQKEwxQ
aXhnbG8sIEluYy4xEDAOBgNVBAsTB1ZQTi1DSUUxGjAYBgNVBAMTEXR1bm5lbC5w
aXhnbG8uY29tMRwwGgYDVQQpExNCYWxhIENoYW5kcmFzZWthcmFuMR4wHAYJKoZI
hvcNAQkBFg9iYWxhQHBpeGdsby5jb20wHhcNMTgwMjE0MDYzNjI4WhcNMjgwMjEy
MDYzNjI4WjCBqTELMAkGA1UEBhMCVVMxCzAJBgNVBAgTAkNBMRUwEwYDVQQHEwxT
YW5GcmFuY2lzY28xFTATBgNVBAoTDFBpeGdsbywgSW5jLjEQMA4GA1UECxMHVlBO
LUNJRTEPMA0GA1UEAxMGY2llNTMxMRwwGgYDVQQpExNCYWxhIENoYW5kcmFzZWth
cmFuMR4wHAYJKoZIhvcNAQkBFg9iYWxhQHBpeGdsby5jb20wggIiMA0GCSqGSIb3
DQEBAQUAA4ICDwAwggIKAoICAQDPgVRXih9z9sYQwMKphWdmACGxKkepMPdekItX
kXH8fRuGMpj5mT7ryeozG8MyLpnWCRkk4YKR/PkdY+M+nSX2HxXacDLaiKLR+kVK
E8U9eWIvkDSI9WbmKbphHOeK8/4xe6UUtx5CNhc8oG0sMFl/84+UU08IQTR+uPbd
qrClVTWjpATobrB+m0kfwfQlPvhv+nSZJzpwG5vgnWhI6049FIZniyWsb95N7tT3
VR0Zc64AQ5mkBF/lOn1pCEWM2C4FSjmDJN1MF9BDR/LZpKj5PYYqWG0OgyqUiZY6
fnc/HSf7uSjkvX/nQ6S7r/lsJPB1xSCg12PfgzbMf2nSb82Gj7GYXbGxtk9IX4Mq
2hS1BP5jGSPZo9Y8CgSfD9wmpSGqhtlKaqR9k9m5jVurVS6kcwoyFI/HO9ATIUUz
bzC6MFT+TqnVaITrzMYYGF1oQeEx4/i1F0tVb0pZFAwUGjXdpvUvMbUh7h6FvG8E
1fX7NGuZObnNNjwq9663jQkkv7AoBlkSXgOgfJ9fUR5w4qUs104SLw15RVFg9597
YSukJt3xngq8SLebVR7KAzvOyjsZx7lRNqpcaasTFOzi3fnlxg40HKdD0lgJUIyh
HG+OXb7KnGIWTG9wI5HTNdogWQqLV3DXU3Zbio7u/0ukWbmrHIkEkgqVcFnS1I36
KS3DjwIDAQABo4IBazCCAWcwCQYDVR0TBAIwADAtBglghkgBhvhCAQ0EIBYeRWFz
eS1SU0EgR2VuZXJhdGVkIENlcnRpZmljYXRlMB0GA1UdDgQWBBRbXn2DaUr+RQKz
JVl0vaIM5dDfEjCB6QYDVR0jBIHhMIHegBTvOI0UUFinW02cF3L837msp1GwEKGB
uqSBtzCBtDELMAkGA1UEBhMCVVMxCzAJBgNVBAgTAkNBMRUwEwYDVQQHEwxTYW5G
cmFuY2lzY28xFTATBgNVBAoTDFBpeGdsbywgSW5jLjEQMA4GA1UECxMHVlBOLUNJ
RTEaMBgGA1UEAxMRdHVubmVsLnBpeGdsby5jb20xHDAaBgNVBCkTE0JhbGEgQ2hh
bmRyYXNla2FyYW4xHjAcBgkqhkiG9w0BCQEWD2JhbGFAcGl4Z2xvLmNvbYIJAKbb
xoOA5qB5MBMGA1UdJQQMMAoGCCsGAQUFBwMCMAsGA1UdDwQEAwIHgDANBgkqhkiG
9w0BAQUFAAOCAgEAsuxl718SAsqeN8qvuATPrZvEjLEnVA30s6d9081wbgUPHvbW
pMQdiDlGzd7jlPgvVwnVVuumm/StdzKa7WjfIc7hAJ1NTKvsmlWyRp0fztk9na9p
VnVZKqI8/GdtVsTj5BPdc6fE0kVI6iMGoKi0qq+PQv+p6acZP4Lt13s8m8kEeW2c
f+9Yca0Vmz3ARwb5paBzxK/CHIEjA7IIwDPE6HR7GVf3cZh7IwsHJCcrM8HEkEha
r9vAp0WQ4KelM+hbCrzJtbUiWk93OPkL0iix237fTW/XZJ8uONfn16Ka1w2xI9Jn
kFiiVAigWbZ5YsY33K3TBHk7vAjZ1whke+++m0OCHa7bu+yhenM7wQ9LjCvX6gpA
F+8rIKlVacZ8gfBmeChgahAbqKhn13yROLImISBfObb63K8KAcFgJZqSbFRktDvG
+Xma9jwAfRIK8lZ4klnqv7FyFz8piFCS0J+TjMA4diuYiL7YhJ36gj2syo2tSDB/
8JzXoY2qVtTaz7mXEuNSd3Utdf4SgUtWZ+ly7uTWRWBe2C4ooRhxLwqLvEVx7axA
p8I37EP6vHgwPXidPMT7uh/sTc+2DucJ1ZDP8US6cV+Fl57sCXFrAiHd87WrZs5e
uGn0YdXDzVK9SogvkQC/bjKft4G03pYbG/XpW7GPvCblNWZMufBl6KUckcI=
-----END CERTIFICATE-----
