Certificate:
    Data:
        Version: 3 (0x2)
        Serial Number: 533 (0x215)
    Signature Algorithm: sha1WithRSAEncryption
        Issuer: C=US, ST=CA, L=SanFrancisco, O=Pixglo, Inc., OU=VPN-CIE, CN=tunnel.pixglo.com/name=Bala Chandrasekaran/emailAddress=bala@pixglo.com
        Validity
            Not Before: Feb 14 06:36:29 2018 GMT
            Not After : Feb 12 06:36:29 2028 GMT
        Subject: C=US, ST=CA, L=SanFrancisco, O=Pixglo, Inc., OU=VPN-CIE, CN=cie532/name=Bala Chandrasekaran/emailAddress=bala@pixglo.com
        Subject Public Key Info:
            Public Key Algorithm: rsaEncryption
                Public-Key: (4096 bit)
                Modulus:
                    00:bf:a7:44:1c:ec:e9:6f:85:e9:41:bf:1d:3e:fe:
                    e3:2c:21:3a:48:0a:c8:d3:c9:c4:7f:48:61:3b:f2:
                    5b:b5:a1:42:22:a1:5c:29:01:0b:7c:a8:f7:06:cd:
                    8a:c8:26:5e:fd:db:10:ee:a0:9b:c4:a1:ca:80:97:
                    0d:f5:30:68:17:81:1b:c1:66:56:e0:ea:9e:89:63:
                    20:a2:c9:a8:6d:01:23:01:56:78:6a:48:4a:40:b5:
                    be:f4:bd:92:69:c9:4d:4d:88:f9:eb:3f:3b:60:c1:
                    07:33:8b:f1:55:b6:ae:b9:39:ff:15:c6:49:20:76:
                    93:84:bd:45:26:9c:93:04:92:03:67:cd:db:53:76:
                    02:b5:a1:c7:c9:6b:78:cf:d7:0a:ab:16:8c:9a:a2:
                    3c:01:48:44:a4:58:8b:94:c9:e6:ef:74:d0:d4:59:
                    b0:35:ff:0e:05:92:36:4f:46:15:0d:27:00:bf:82:
                    72:37:05:75:3d:02:f7:84:f2:01:71:8a:9c:6b:cb:
                    c1:cc:27:05:5e:60:59:0d:c5:0d:78:7a:03:ef:0e:
                    63:12:05:4d:13:17:fc:e6:5b:68:4c:e4:73:af:34:
                    95:34:4b:45:e2:ae:67:df:9c:63:09:e5:a3:23:32:
                    ee:bc:8d:1b:bc:3a:96:06:f8:e4:f5:9d:8b:e2:bd:
                    6b:4a:10:a0:1a:b1:d1:cd:a6:a2:e6:6e:8d:56:45:
                    51:1b:64:83:7e:14:6f:43:c8:2f:55:f3:94:33:0c:
                    55:7f:16:c8:55:57:df:4a:8c:b2:0c:68:28:de:cd:
                    96:40:da:7e:38:fd:f0:97:f0:b3:69:fc:e0:d7:64:
                    c2:cd:ae:91:cc:60:82:d9:b3:62:74:93:18:02:1b:
                    99:a7:75:ee:fd:9b:10:72:74:b9:41:48:fb:43:8b:
                    49:a0:2a:94:93:72:a2:3c:7f:8b:65:98:0e:f7:b5:
                    9e:d9:df:4a:8a:20:16:3d:d0:e1:a9:c9:ad:26:ce:
                    14:5a:87:f9:b5:75:03:25:2b:a3:29:2c:0a:2f:af:
                    93:9c:21:b5:f7:d0:4f:e1:50:0e:c2:73:d5:d9:92:
                    33:68:59:71:e1:bc:0a:12:30:7f:38:4b:70:09:89:
                    c1:24:70:a3:16:5e:5e:3d:25:68:20:12:0a:ce:fc:
                    fe:d1:bd:e5:e2:fb:d9:5b:11:c1:c3:82:d8:3a:8c:
                    78:38:40:33:09:c8:53:5c:67:ae:bf:17:d6:06:76:
                    0c:9a:95:dd:5e:f0:3b:6f:43:e8:d6:63:9f:c0:d7:
                    cb:c5:49:cd:83:e9:b2:98:b5:f6:04:91:9f:3a:c7:
                    5a:df:35:d9:ac:38:8b:45:ea:e7:47:65:1b:6e:fa:
                    e5:3b:a3
                Exponent: 65537 (0x10001)
        X509v3 extensions:
            X509v3 Basic Constraints: 
                CA:FALSE
            Netscape Comment: 
                Easy-RSA Generated Certificate
            X509v3 Subject Key Identifier: 
                D3:DD:34:34:28:53:17:F5:79:36:FC:2F:B6:B3:44:3A:3B:CE:E9:90
            X509v3 Authority Key Identifier: 
                keyid:EF:38:8D:14:50:58:A7:5B:4D:9C:17:72:FC:DF:B9:AC:A7:51:B0:10
                DirName:/C=US/ST=CA/L=SanFrancisco/O=Pixglo, Inc./OU=VPN-CIE/CN=tunnel.pixglo.com/name=Bala Chandrasekaran/emailAddress=bala@pixglo.com
                serial:A6:DB:C6:83:80:E6:A0:79

            X509v3 Extended Key Usage: 
                TLS Web Client Authentication
            X509v3 Key Usage: 
                Digital Signature
    Signature Algorithm: sha1WithRSAEncryption
         78:bb:4c:7b:ab:f6:78:cc:1d:1d:68:7f:47:1f:af:e7:c1:8b:
         cb:26:c9:90:7e:a8:0c:8b:f4:6e:ad:ba:15:b2:b3:78:6d:03:
         7b:fb:7c:93:f4:28:04:a3:c1:35:90:8c:88:cb:c6:99:13:3d:
         27:69:be:33:c8:2a:7a:e8:db:2b:7e:61:6b:69:ea:18:57:22:
         cb:83:08:3c:ba:19:11:4e:eb:91:df:f7:f9:97:4d:ed:bf:e6:
         6c:96:a5:2d:1f:32:73:ed:ee:ce:01:cb:3b:37:bb:15:73:29:
         51:ba:4a:ca:f2:09:e5:a6:16:83:e0:85:b4:ba:2e:63:cd:41:
         df:2e:f6:85:37:71:7d:94:d9:4b:c7:59:b7:cc:46:92:b2:22:
         97:74:ec:af:62:0f:79:a9:9f:c3:55:fe:0d:78:03:17:22:09:
         13:d6:6a:38:39:a2:40:dd:4d:c8:8b:9c:fa:81:07:86:df:83:
         40:1b:29:fe:42:7a:31:76:56:e7:c6:a5:ed:b8:62:d4:82:85:
         20:68:c4:95:a9:4c:5a:69:38:93:88:26:37:9e:ae:3e:37:99:
         9f:8a:78:cc:54:d2:d2:af:99:27:9d:23:67:72:21:c2:94:41:
         96:9e:71:c2:6b:ea:5c:eb:ad:6a:4c:52:59:0a:64:ca:57:ed:
         ee:52:3a:0d:e4:22:6b:7b:e0:29:2d:cb:f7:03:fb:b9:85:04:
         a4:e5:a4:18:76:64:4a:6d:c7:cc:b9:de:c3:a2:fc:04:19:ce:
         c8:28:c0:2b:79:6e:08:2b:1a:1a:4f:99:c7:af:00:00:bf:2b:
         74:5b:c1:75:c6:f9:17:08:03:83:cd:82:7c:b7:56:3c:0e:e5:
         05:8f:49:7f:53:da:ad:db:75:40:d3:15:9a:44:44:fa:f0:00:
         1e:7e:ab:fa:86:fd:1d:2c:d5:b2:68:5f:bd:01:66:b5:7f:91:
         c9:bb:46:d8:de:44:65:db:36:5b:02:54:3e:21:de:53:61:2b:
         d3:99:5f:6c:1c:03:3b:0a:05:d7:54:c7:31:04:dd:f3:29:b4:
         ee:c0:2b:2d:7d:0e:d2:be:8d:ee:70:06:5c:11:f8:91:5a:4e:
         69:ca:d0:24:6c:83:43:40:34:06:f3:d8:cb:a8:5b:87:f5:86:
         79:c7:f9:2a:6c:0b:30:bf:67:67:e4:7b:59:d5:6b:2d:7d:95:
         bf:35:2f:55:de:58:91:c6:a8:74:8c:1b:9e:41:32:09:ed:40:
         da:5b:23:5d:4d:6b:8f:40:a5:2f:8d:09:36:8e:48:70:a1:89:
         0a:ed:b3:7d:1b:7c:ad:5d:20:ff:bd:fb:5c:83:b3:db:e5:d5:
         b7:d1:c9:cb:d3:cf:97:3b
-----BEGIN CERTIFICATE-----
MIIHSDCCBTCgAwIBAgICAhUwDQYJKoZIhvcNAQEFBQAwgbQxCzAJBgNVBAYTAlVT
MQswCQYDVQQIEwJDQTEVMBMGA1UEBxMMU2FuRnJhbmNpc2NvMRUwEwYDVQQKEwxQ
aXhnbG8sIEluYy4xEDAOBgNVBAsTB1ZQTi1DSUUxGjAYBgNVBAMTEXR1bm5lbC5w
aXhnbG8uY29tMRwwGgYDVQQpExNCYWxhIENoYW5kcmFzZWthcmFuMR4wHAYJKoZI
hvcNAQkBFg9iYWxhQHBpeGdsby5jb20wHhcNMTgwMjE0MDYzNjI5WhcNMjgwMjEy
MDYzNjI5WjCBqTELMAkGA1UEBhMCVVMxCzAJBgNVBAgTAkNBMRUwEwYDVQQHEwxT
YW5GcmFuY2lzY28xFTATBgNVBAoTDFBpeGdsbywgSW5jLjEQMA4GA1UECxMHVlBO
LUNJRTEPMA0GA1UEAxMGY2llNTMyMRwwGgYDVQQpExNCYWxhIENoYW5kcmFzZWth
cmFuMR4wHAYJKoZIhvcNAQkBFg9iYWxhQHBpeGdsby5jb20wggIiMA0GCSqGSIb3
DQEBAQUAA4ICDwAwggIKAoICAQC/p0Qc7OlvhelBvx0+/uMsITpICsjTycR/SGE7
8lu1oUIioVwpAQt8qPcGzYrIJl792xDuoJvEocqAlw31MGgXgRvBZlbg6p6JYyCi
yahtASMBVnhqSEpAtb70vZJpyU1NiPnrPztgwQczi/FVtq65Of8VxkkgdpOEvUUm
nJMEkgNnzdtTdgK1ocfJa3jP1wqrFoyaojwBSESkWIuUyebvdNDUWbA1/w4FkjZP
RhUNJwC/gnI3BXU9AveE8gFxipxry8HMJwVeYFkNxQ14egPvDmMSBU0TF/zmW2hM
5HOvNJU0S0XirmffnGMJ5aMjMu68jRu8OpYG+OT1nYvivWtKEKAasdHNpqLmbo1W
RVEbZIN+FG9DyC9V85QzDFV/FshVV99KjLIMaCjezZZA2n44/fCX8LNp/ODXZMLN
rpHMYILZs2J0kxgCG5mnde79mxBydLlBSPtDi0mgKpSTcqI8f4tlmA73tZ7Z30qK
IBY90OGpya0mzhRah/m1dQMlK6MpLAovr5OcIbX30E/hUA7Cc9XZkjNoWXHhvAoS
MH84S3AJicEkcKMWXl49JWggEgrO/P7RveXi+9lbEcHDgtg6jHg4QDMJyFNcZ66/
F9YGdgyald1e8DtvQ+jWY5/A18vFSc2D6bKYtfYEkZ86x1rfNdmsOItF6udHZRtu
+uU7owIDAQABo4IBazCCAWcwCQYDVR0TBAIwADAtBglghkgBhvhCAQ0EIBYeRWFz
eS1SU0EgR2VuZXJhdGVkIENlcnRpZmljYXRlMB0GA1UdDgQWBBTT3TQ0KFMX9Xk2
/C+2s0Q6O87pkDCB6QYDVR0jBIHhMIHegBTvOI0UUFinW02cF3L837msp1GwEKGB
uqSBtzCBtDELMAkGA1UEBhMCVVMxCzAJBgNVBAgTAkNBMRUwEwYDVQQHEwxTYW5G
cmFuY2lzY28xFTATBgNVBAoTDFBpeGdsbywgSW5jLjEQMA4GA1UECxMHVlBOLUNJ
RTEaMBgGA1UEAxMRdHVubmVsLnBpeGdsby5jb20xHDAaBgNVBCkTE0JhbGEgQ2hh
bmRyYXNla2FyYW4xHjAcBgkqhkiG9w0BCQEWD2JhbGFAcGl4Z2xvLmNvbYIJAKbb
xoOA5qB5MBMGA1UdJQQMMAoGCCsGAQUFBwMCMAsGA1UdDwQEAwIHgDANBgkqhkiG
9w0BAQUFAAOCAgEAeLtMe6v2eMwdHWh/Rx+v58GLyybJkH6oDIv0bq26FbKzeG0D
e/t8k/QoBKPBNZCMiMvGmRM9J2m+M8gqeujbK35ha2nqGFciy4MIPLoZEU7rkd/3
+ZdN7b/mbJalLR8yc+3uzgHLOze7FXMpUbpKyvIJ5aYWg+CFtLouY81B3y72hTdx
fZTZS8dZt8xGkrIil3Tsr2IPeamfw1X+DXgDFyIJE9ZqODmiQN1NyIuc+oEHht+D
QBsp/kJ6MXZW58al7bhi1IKFIGjElalMWmk4k4gmN56uPjeZn4p4zFTS0q+ZJ50j
Z3IhwpRBlp5xwmvqXOutakxSWQpkylft7lI6DeQia3vgKS3L9wP7uYUEpOWkGHZk
Sm3HzLnew6L8BBnOyCjAK3luCCsaGk+Zx68AAL8rdFvBdcb5FwgDg82CfLdWPA7l
BY9Jf1Pardt1QNMVmkRE+vAAHn6r+ob9HSzVsmhfvQFmtX+RybtG2N5EZds2WwJU
PiHeU2Er05lfbBwDOwoF11THMQTd8ym07sArLX0O0r6N7nAGXBH4kVpOacrQJGyD
Q0A0BvPYy6hbh/WGecf5KmwLML9nZ+R7WdVrLX2VvzUvVd5YkcaodIwbnkEyCe1A
2lsjXU1rj0ClL40JNo5IcKGJCu2zfRt8rV0g/737XIOz2+XVt9HJy9PPlzs=
-----END CERTIFICATE-----
