Certificate:
    Data:
        Version: 3 (0x2)
        Serial Number: 534 (0x216)
    Signature Algorithm: sha1WithRSAEncryption
        Issuer: C=US, ST=CA, L=SanFrancisco, O=Pixglo, Inc., OU=VPN-CIE, CN=tunnel.pixglo.com/name=Bala Chandrasekaran/emailAddress=bala@pixglo.com
        Validity
            Not Before: Feb 14 06:36:31 2018 GMT
            Not After : Feb 12 06:36:31 2028 GMT
        Subject: C=US, ST=CA, L=SanFrancisco, O=Pixglo, Inc., OU=VPN-CIE, CN=cie533/name=Bala Chandrasekaran/emailAddress=bala@pixglo.com
        Subject Public Key Info:
            Public Key Algorithm: rsaEncryption
                Public-Key: (4096 bit)
                Modulus:
                    00:c4:14:b5:21:1b:90:a0:39:c0:39:6b:fc:7e:b7:
                    e2:65:41:09:ae:e9:9b:8f:05:de:3e:71:b3:16:0e:
                    27:75:5d:81:3a:f1:60:10:8c:dd:5a:fd:dd:8f:f0:
                    03:e3:82:c4:ed:6c:eb:ee:97:e1:ce:26:7a:1c:ed:
                    e1:84:82:16:82:d2:86:f3:64:b1:b3:c4:e1:7b:9c:
                    ed:2a:71:ee:f3:fc:f7:83:5a:59:e3:9c:59:a4:f6:
                    83:95:08:37:a6:38:65:d3:6d:19:91:30:9b:97:0d:
                    ae:65:36:a6:a6:ab:66:c4:dd:fa:16:b6:d0:58:00:
                    58:92:c4:49:d9:0a:20:61:74:a3:6a:cf:99:d1:8d:
                    fc:ce:94:c0:0c:00:46:24:a4:47:b5:ce:d0:86:ad:
                    07:84:43:49:bb:48:33:59:2e:61:4d:b7:a4:4c:ec:
                    3b:d0:e0:84:13:b0:24:a0:d0:8b:21:1e:54:51:b4:
                    d6:ac:ab:f4:62:c3:0d:16:e1:50:fb:48:91:30:f1:
                    4b:58:84:45:c9:34:08:a6:42:b8:ca:21:2c:28:68:
                    04:1a:3e:96:b2:c7:9a:60:08:e4:6f:77:f3:b2:51:
                    32:00:24:d6:df:cc:db:4d:e7:17:13:19:0a:43:6c:
                    9e:56:b9:bd:1f:69:55:25:7c:a2:49:fd:aa:ac:16:
                    03:2c:fe:97:79:88:0a:79:ef:93:bf:f8:48:39:90:
                    68:fe:e4:b2:20:79:a4:f7:e9:25:45:d2:e6:1f:4f:
                    a5:85:56:13:55:d2:97:ec:e4:0a:c1:dd:9f:d7:0d:
                    ae:6a:9a:f7:94:c8:15:ec:12:e3:cd:e6:5f:48:21:
                    33:e9:a5:d2:6b:9e:28:d8:1a:a3:a7:8f:ff:61:2c:
                    56:93:0d:ac:01:71:c9:bc:e0:6e:46:9b:93:5f:d2:
                    0b:78:e4:3b:89:cb:d8:b5:06:26:ba:86:2c:ca:8c:
                    7d:c0:ec:23:e0:88:93:ff:f2:45:84:70:e4:2e:62:
                    54:30:32:81:f2:db:bc:0c:14:c7:b5:bf:2a:a9:7d:
                    37:24:61:8b:b0:fd:2d:89:4f:c5:7c:85:48:0e:b8:
                    2a:5d:2a:01:4c:d3:87:6a:65:cf:88:77:77:fe:9f:
                    52:16:89:d2:68:d7:54:18:e2:50:13:14:0a:48:70:
                    3d:7c:b7:59:77:72:63:e4:66:60:28:8d:ba:76:bd:
                    87:d5:8d:ab:33:2a:38:4b:f3:aa:f9:62:d0:12:dc:
                    c3:11:28:48:2a:bb:1a:b3:30:14:09:a8:7f:06:b3:
                    b6:b9:57:4a:6f:72:84:a3:85:d9:e7:99:f1:50:1b:
                    e0:de:16:ff:bd:ae:d3:d6:1d:47:34:09:15:eb:58:
                    46:b7:6d
                Exponent: 65537 (0x10001)
        X509v3 extensions:
            X509v3 Basic Constraints: 
                CA:FALSE
            Netscape Comment: 
                Easy-RSA Generated Certificate
            X509v3 Subject Key Identifier: 
                5E:94:EE:85:EE:2A:5B:2B:CC:2A:2C:8D:32:77:36:89:05:10:6E:5F
            X509v3 Authority Key Identifier: 
                keyid:EF:38:8D:14:50:58:A7:5B:4D:9C:17:72:FC:DF:B9:AC:A7:51:B0:10
                DirName:/C=US/ST=CA/L=SanFrancisco/O=Pixglo, Inc./OU=VPN-CIE/CN=tunnel.pixglo.com/name=Bala Chandrasekaran/emailAddress=bala@pixglo.com
                serial:A6:DB:C6:83:80:E6:A0:79

            X509v3 Extended Key Usage: 
                TLS Web Client Authentication
            X509v3 Key Usage: 
                Digital Signature
    Signature Algorithm: sha1WithRSAEncryption
         8a:63:26:63:15:b3:2b:35:78:82:d8:b9:6a:39:57:35:f4:a1:
         5e:7e:26:9f:94:13:25:1d:db:77:48:4d:32:61:bf:2e:c1:93:
         db:18:0a:23:5a:2f:86:d0:19:7b:10:8c:f9:41:1e:f4:3e:27:
         8d:ad:88:33:c2:81:ba:59:40:9b:f7:da:e9:dc:87:ce:f3:ca:
         40:ac:0c:cd:86:8e:ee:8a:db:82:0c:5d:fc:b0:1a:42:29:96:
         64:55:43:91:03:4d:d6:7d:fe:62:2d:2f:89:cb:4b:14:7f:4d:
         4c:f0:ab:07:ca:98:52:8e:92:01:04:dd:32:74:f7:80:c0:4a:
         23:0a:e2:36:dc:ea:e9:ff:3b:a8:e7:79:88:b8:89:77:71:b1:
         1c:ba:8e:c9:21:f1:22:2b:c7:2c:f7:e8:d1:4b:01:44:d8:bc:
         27:29:20:5f:c8:96:a6:fd:87:9b:1e:38:a5:01:74:fd:28:64:
         ce:ca:91:68:7a:94:69:87:00:0b:bc:6b:3f:aa:49:4e:48:72:
         2e:6c:63:de:53:b9:84:38:44:fa:6a:28:0f:7f:f0:b3:a6:bc:
         55:1a:aa:eb:fd:dd:a8:33:df:3e:b4:8f:81:44:8d:fa:55:15:
         95:dc:c4:c1:6d:c0:94:ab:76:b5:0c:76:8c:f6:23:5c:9d:5d:
         f5:47:dc:2c:b3:b4:97:15:d3:ac:6c:8c:1e:ae:75:07:0d:60:
         8a:55:91:7f:ae:5b:2b:45:89:37:27:1c:73:87:81:e0:60:8c:
         80:11:9c:9e:0c:5f:1b:63:3e:6a:b1:b4:ab:af:02:77:8a:d0:
         a4:5b:c2:ba:80:53:ce:df:3c:5f:a0:28:e4:69:30:ab:c2:f7:
         ce:fe:47:f6:36:80:13:b2:bc:1a:2b:f7:21:ce:35:62:2f:aa:
         71:4e:b0:84:f9:73:f3:28:20:b5:63:08:99:d1:dd:54:44:57:
         53:04:4b:c8:57:8b:04:04:c5:c1:e4:1f:04:26:1c:d0:e0:f2:
         a7:b9:1a:73:67:56:11:78:1f:fc:63:a5:33:82:f0:35:fa:6a:
         6a:05:29:63:a8:f2:a7:cc:91:4d:73:bb:8f:80:00:f8:c0:ec:
         68:c9:6e:08:4a:2f:e4:d6:38:03:12:7f:36:1b:32:e6:f7:9f:
         e1:c9:23:a0:30:f0:0e:5a:a7:69:f2:cb:91:d9:58:9b:76:89:
         0a:48:79:f3:df:85:05:4e:45:03:12:1a:ab:9c:2d:92:0e:99:
         e8:4e:f8:1a:5d:67:38:ef:4f:72:2a:2f:f5:69:b9:57:2f:53:
         b1:f0:a2:3a:28:12:42:d7:36:1b:57:5a:15:b5:d9:f0:5d:de:
         4a:6f:8b:49:d2:7e:d1:83
-----BEGIN CERTIFICATE-----
MIIHSDCCBTCgAwIBAgICAhYwDQYJKoZIhvcNAQEFBQAwgbQxCzAJBgNVBAYTAlVT
MQswCQYDVQQIEwJDQTEVMBMGA1UEBxMMU2FuRnJhbmNpc2NvMRUwEwYDVQQKEwxQ
aXhnbG8sIEluYy4xEDAOBgNVBAsTB1ZQTi1DSUUxGjAYBgNVBAMTEXR1bm5lbC5w
aXhnbG8uY29tMRwwGgYDVQQpExNCYWxhIENoYW5kcmFzZWthcmFuMR4wHAYJKoZI
hvcNAQkBFg9iYWxhQHBpeGdsby5jb20wHhcNMTgwMjE0MDYzNjMxWhcNMjgwMjEy
MDYzNjMxWjCBqTELMAkGA1UEBhMCVVMxCzAJBgNVBAgTAkNBMRUwEwYDVQQHEwxT
YW5GcmFuY2lzY28xFTATBgNVBAoTDFBpeGdsbywgSW5jLjEQMA4GA1UECxMHVlBO
LUNJRTEPMA0GA1UEAxMGY2llNTMzMRwwGgYDVQQpExNCYWxhIENoYW5kcmFzZWth
cmFuMR4wHAYJKoZIhvcNAQkBFg9iYWxhQHBpeGdsby5jb20wggIiMA0GCSqGSIb3
DQEBAQUAA4ICDwAwggIKAoICAQDEFLUhG5CgOcA5a/x+t+JlQQmu6ZuPBd4+cbMW
Did1XYE68WAQjN1a/d2P8APjgsTtbOvul+HOJnoc7eGEghaC0obzZLGzxOF7nO0q
ce7z/PeDWlnjnFmk9oOVCDemOGXTbRmRMJuXDa5lNqamq2bE3foWttBYAFiSxEnZ
CiBhdKNqz5nRjfzOlMAMAEYkpEe1ztCGrQeEQ0m7SDNZLmFNt6RM7DvQ4IQTsCSg
0IshHlRRtNasq/Riww0W4VD7SJEw8UtYhEXJNAimQrjKISwoaAQaPpayx5pgCORv
d/OyUTIAJNbfzNtN5xcTGQpDbJ5Wub0faVUlfKJJ/aqsFgMs/pd5iAp575O/+Eg5
kGj+5LIgeaT36SVF0uYfT6WFVhNV0pfs5ArB3Z/XDa5qmveUyBXsEuPN5l9IITPp
pdJrnijYGqOnj/9hLFaTDawBccm84G5Gm5Nf0gt45DuJy9i1Bia6hizKjH3A7CPg
iJP/8kWEcOQuYlQwMoHy27wMFMe1vyqpfTckYYuw/S2JT8V8hUgOuCpdKgFM04dq
Zc+Id3f+n1IWidJo11QY4lATFApIcD18t1l3cmPkZmAojbp2vYfVjaszKjhL86r5
YtAS3MMRKEgquxqzMBQJqH8Gs7a5V0pvcoSjhdnnmfFQG+DeFv+9rtPWHUc0CRXr
WEa3bQIDAQABo4IBazCCAWcwCQYDVR0TBAIwADAtBglghkgBhvhCAQ0EIBYeRWFz
eS1SU0EgR2VuZXJhdGVkIENlcnRpZmljYXRlMB0GA1UdDgQWBBRelO6F7ipbK8wq
LI0ydzaJBRBuXzCB6QYDVR0jBIHhMIHegBTvOI0UUFinW02cF3L837msp1GwEKGB
uqSBtzCBtDELMAkGA1UEBhMCVVMxCzAJBgNVBAgTAkNBMRUwEwYDVQQHEwxTYW5G
cmFuY2lzY28xFTATBgNVBAoTDFBpeGdsbywgSW5jLjEQMA4GA1UECxMHVlBOLUNJ
RTEaMBgGA1UEAxMRdHVubmVsLnBpeGdsby5jb20xHDAaBgNVBCkTE0JhbGEgQ2hh
bmRyYXNla2FyYW4xHjAcBgkqhkiG9w0BCQEWD2JhbGFAcGl4Z2xvLmNvbYIJAKbb
xoOA5qB5MBMGA1UdJQQMMAoGCCsGAQUFBwMCMAsGA1UdDwQEAwIHgDANBgkqhkiG
9w0BAQUFAAOCAgEAimMmYxWzKzV4gti5ajlXNfShXn4mn5QTJR3bd0hNMmG/LsGT
2xgKI1ovhtAZexCM+UEe9D4nja2IM8KBullAm/fa6dyHzvPKQKwMzYaO7orbggxd
/LAaQimWZFVDkQNN1n3+Yi0victLFH9NTPCrB8qYUo6SAQTdMnT3gMBKIwriNtzq
6f87qOd5iLiJd3GxHLqOySHxIivHLPfo0UsBRNi8JykgX8iWpv2Hmx44pQF0/Shk
zsqRaHqUaYcAC7xrP6pJTkhyLmxj3lO5hDhE+mooD3/ws6a8VRqq6/3dqDPfPrSP
gUSN+lUVldzEwW3AlKt2tQx2jPYjXJ1d9UfcLLO0lxXTrGyMHq51Bw1gilWRf65b
K0WJNyccc4eB4GCMgBGcngxfG2M+arG0q68Cd4rQpFvCuoBTzt88X6Ao5Gkwq8L3
zv5H9jaAE7K8Giv3Ic41Yi+qcU6whPlz8yggtWMImdHdVERXUwRLyFeLBATFweQf
BCYc0ODyp7kac2dWEXgf/GOlM4LwNfpqagUpY6jyp8yRTXO7j4AA+MDsaMluCEov
5NY4AxJ/Nhsy5vef4ckjoDDwDlqnafLLkdlYm3aJCkh589+FBU5FAxIaq5wtkg6Z
6E74Gl1nOO9Pciov9Wm5Vy9TsfCiOigSQtc2G1daFbXZ8F3eSm+LSdJ+0YM=
-----END CERTIFICATE-----
