Certificate:
    Data:
        Version: 3 (0x2)
        Serial Number: 537 (0x219)
    Signature Algorithm: sha1WithRSAEncryption
        Issuer: C=US, ST=CA, L=SanFrancisco, O=Pixglo, Inc., OU=VPN-CIE, CN=tunnel.pixglo.com/name=Bala Chandrasekaran/emailAddress=bala@pixglo.com
        Validity
            Not Before: Feb 14 06:36:34 2018 GMT
            Not After : Feb 12 06:36:34 2028 GMT
        Subject: C=US, ST=CA, L=SanFrancisco, O=Pixglo, Inc., OU=VPN-CIE, CN=cie536/name=Bala Chandrasekaran/emailAddress=bala@pixglo.com
        Subject Public Key Info:
            Public Key Algorithm: rsaEncryption
                Public-Key: (4096 bit)
                Modulus:
                    00:da:3a:51:07:73:78:f1:02:ca:45:19:9f:93:4c:
                    8b:3d:7b:e4:3a:c3:da:c6:6d:2a:1f:d9:2c:48:c1:
                    a6:5f:20:a7:e3:cb:e0:4c:a7:5d:32:0e:c8:d9:77:
                    f0:67:b5:df:89:84:5e:f3:9a:6f:81:c7:dd:6c:18:
                    bd:8d:8a:16:0b:64:cb:a6:3e:b4:d5:24:ea:c1:85:
                    c8:21:49:91:56:12:12:e9:bf:13:59:d4:b5:d3:49:
                    6a:a8:47:14:99:b2:94:9d:3a:11:d7:73:dc:83:dc:
                    df:3e:f2:04:41:4f:fe:a6:66:52:61:b1:7e:ce:1d:
                    ca:03:01:60:12:ac:50:c7:97:98:95:11:79:b9:77:
                    3e:9e:bf:97:bb:3e:6b:c6:1c:ad:0e:7f:d1:d2:fd:
                    7f:3b:8f:cc:cc:36:25:77:f0:84:3f:b0:c7:5c:1a:
                    e2:30:61:6f:db:67:21:9c:6b:f1:6c:bd:54:af:23:
                    f1:5f:84:b0:d7:fd:8c:46:64:1a:b5:a4:b2:57:e4:
                    57:90:03:dc:fe:0c:d3:ee:1e:79:5f:c5:e4:57:5c:
                    dc:22:16:84:96:ff:46:46:2c:72:ee:0d:cb:f4:28:
                    d2:25:ee:6e:ab:2f:44:2c:29:a7:f2:85:50:c9:1f:
                    17:e3:24:ad:12:31:e3:e6:a5:9b:89:13:c6:75:32:
                    f6:d8:39:4b:db:e0:58:7f:ea:e7:85:e4:b1:c7:2e:
                    5c:86:63:10:19:d8:8c:2e:c6:54:e6:fe:78:83:b5:
                    0a:e6:28:82:cd:56:b1:3f:18:92:3f:09:2b:c6:00:
                    89:14:15:d5:b3:2d:ba:46:3d:88:15:07:8d:e3:99:
                    20:43:22:bc:c5:d8:b9:87:1c:39:b1:03:30:ea:6c:
                    80:c8:ec:3f:50:29:e6:a3:6e:8c:ec:d2:26:ae:08:
                    d9:13:13:81:99:c3:1e:b2:d7:b4:16:cc:3b:62:af:
                    65:2f:5b:c5:80:2b:6f:77:f4:03:ca:fa:6f:9b:8e:
                    02:45:51:7d:e7:16:b5:ab:d2:a1:0d:a5:38:bd:45:
                    e2:e0:ca:67:e6:b4:c7:0e:ed:4e:22:e3:d9:af:79:
                    ff:70:61:1d:fc:17:99:54:99:3e:0f:ec:fa:5c:80:
                    bf:08:d3:99:1b:a1:ff:bd:4b:fe:50:cb:50:54:a8:
                    64:60:51:14:d4:b7:a6:b6:6e:f4:a3:c1:d4:f9:e9:
                    26:df:38:86:eb:5c:64:30:f9:c3:0d:41:2e:81:38:
                    49:ac:67:23:da:97:4e:89:9b:05:c2:e8:9d:79:b4:
                    53:72:0a:21:15:05:cc:ec:bb:86:25:16:4d:4a:74:
                    d9:00:05:a8:6a:c0:45:e3:cd:e9:52:b7:b2:30:7a:
                    8c:f3:cd
                Exponent: 65537 (0x10001)
        X509v3 extensions:
            X509v3 Basic Constraints: 
                CA:FALSE
            Netscape Comment: 
                Easy-RSA Generated Certificate
            X509v3 Subject Key Identifier: 
                49:40:F4:11:83:99:23:C5:F0:41:5C:70:93:BD:F1:3E:AE:D4:5E:63
            X509v3 Authority Key Identifier: 
                keyid:EF:38:8D:14:50:58:A7:5B:4D:9C:17:72:FC:DF:B9:AC:A7:51:B0:10
                DirName:/C=US/ST=CA/L=SanFrancisco/O=Pixglo, Inc./OU=VPN-CIE/CN=tunnel.pixglo.com/name=Bala Chandrasekaran/emailAddress=bala@pixglo.com
                serial:A6:DB:C6:83:80:E6:A0:79

            X509v3 Extended Key Usage: 
                TLS Web Client Authentication
            X509v3 Key Usage: 
                Digital Signature
    Signature Algorithm: sha1WithRSAEncryption
         7a:ce:0b:f0:cd:18:fc:4b:02:55:d5:3c:89:e6:1b:1b:5b:01:
         24:de:20:77:11:88:06:d6:e4:2c:04:14:9e:73:79:d5:b0:70:
         2b:96:10:21:61:90:4d:3a:b3:48:79:9c:ed:0c:3c:fb:d5:3d:
         75:70:38:ad:6b:24:15:e1:29:f7:e2:67:41:43:a6:27:1f:ce:
         46:8d:c4:17:b7:cb:b3:eb:06:0b:76:58:3c:18:7a:78:b0:72:
         54:a4:3d:c1:26:35:e6:9d:92:52:80:17:25:3b:67:31:5f:1c:
         d6:55:54:98:64:2f:fe:0d:c8:cb:82:c5:94:a3:33:ab:38:26:
         90:2d:18:26:e8:83:a6:a5:c3:d2:5d:b8:a9:b7:30:9e:3f:22:
         49:33:2b:ce:0f:1a:e4:a8:67:da:ab:48:8e:11:cc:47:31:3e:
         d9:cb:06:a3:cd:d2:13:0b:5e:64:73:b6:7b:cc:dc:31:b6:20:
         e1:92:23:b1:0d:cc:32:fa:fc:3d:39:45:d2:27:21:bc:97:bc:
         f9:30:80:a9:db:3e:6b:57:34:ab:4a:c0:ff:6e:18:85:68:ef:
         25:b3:6f:e8:28:fe:ea:77:82:d5:bc:96:e0:5b:74:c4:af:ee:
         0b:59:c1:a0:3f:ad:49:fd:fc:0d:82:11:4a:c7:a7:a2:b9:e7:
         ca:00:5e:a7:5e:b2:ed:cc:0e:25:a6:d9:03:fe:27:2a:c7:55:
         ea:d3:41:bd:62:35:34:5d:77:57:c5:5e:ca:ba:8c:ad:18:aa:
         b5:9e:aa:d1:91:fc:01:94:58:04:6c:8b:35:60:d4:4a:25:e1:
         e5:9b:da:ba:7c:41:00:3c:d1:ac:1a:58:6e:48:dd:70:24:2f:
         ef:9d:89:40:eb:83:c8:73:66:7c:50:9a:4a:64:4a:2f:5d:c8:
         9f:27:b0:de:67:df:08:56:89:07:88:2b:eb:f8:40:d2:5c:4c:
         7c:a3:be:c5:8d:f8:74:51:f9:49:70:9e:09:01:e1:f9:88:6d:
         04:38:8c:c9:d2:50:db:33:be:5a:37:af:81:7b:68:1f:ae:ae:
         75:8d:d9:af:8f:7c:23:2e:51:f4:f6:d7:65:82:aa:75:ef:b8:
         8c:84:87:0d:1c:0f:62:f4:c1:d8:06:af:78:f2:23:7b:c3:1a:
         5b:bd:29:85:4d:e2:d6:da:af:44:44:a9:14:3a:e8:7c:6e:58:
         ab:d5:3c:9b:ee:e7:4a:9b:fa:0d:81:c8:ba:34:48:2a:20:04:
         ff:a1:60:0a:30:bf:ee:bb:6b:4e:d7:c0:30:cc:54:66:6f:cd:
         7b:07:5b:9a:8b:f4:9e:8d:db:3b:56:37:8f:19:68:9d:23:55:
         82:a8:49:a3:f3:3c:30:48
-----BEGIN CERTIFICATE-----
MIIHSDCCBTCgAwIBAgICAhkwDQYJKoZIhvcNAQEFBQAwgbQxCzAJBgNVBAYTAlVT
MQswCQYDVQQIEwJDQTEVMBMGA1UEBxMMU2FuRnJhbmNpc2NvMRUwEwYDVQQKEwxQ
aXhnbG8sIEluYy4xEDAOBgNVBAsTB1ZQTi1DSUUxGjAYBgNVBAMTEXR1bm5lbC5w
aXhnbG8uY29tMRwwGgYDVQQpExNCYWxhIENoYW5kcmFzZWthcmFuMR4wHAYJKoZI
hvcNAQkBFg9iYWxhQHBpeGdsby5jb20wHhcNMTgwMjE0MDYzNjM0WhcNMjgwMjEy
MDYzNjM0WjCBqTELMAkGA1UEBhMCVVMxCzAJBgNVBAgTAkNBMRUwEwYDVQQHEwxT
YW5GcmFuY2lzY28xFTATBgNVBAoTDFBpeGdsbywgSW5jLjEQMA4GA1UECxMHVlBO
LUNJRTEPMA0GA1UEAxMGY2llNTM2MRwwGgYDVQQpExNCYWxhIENoYW5kcmFzZWth
cmFuMR4wHAYJKoZIhvcNAQkBFg9iYWxhQHBpeGdsby5jb20wggIiMA0GCSqGSIb3
DQEBAQUAA4ICDwAwggIKAoICAQDaOlEHc3jxAspFGZ+TTIs9e+Q6w9rGbSof2SxI
waZfIKfjy+BMp10yDsjZd/Bntd+JhF7zmm+Bx91sGL2NihYLZMumPrTVJOrBhcgh
SZFWEhLpvxNZ1LXTSWqoRxSZspSdOhHXc9yD3N8+8gRBT/6mZlJhsX7OHcoDAWAS
rFDHl5iVEXm5dz6ev5e7PmvGHK0Of9HS/X87j8zMNiV38IQ/sMdcGuIwYW/bZyGc
a/FsvVSvI/FfhLDX/YxGZBq1pLJX5FeQA9z+DNPuHnlfxeRXXNwiFoSW/0ZGLHLu
Dcv0KNIl7m6rL0QsKafyhVDJHxfjJK0SMePmpZuJE8Z1MvbYOUvb4Fh/6ueF5LHH
LlyGYxAZ2IwuxlTm/niDtQrmKILNVrE/GJI/CSvGAIkUFdWzLbpGPYgVB43jmSBD
IrzF2LmHHDmxAzDqbIDI7D9QKeajbozs0iauCNkTE4GZwx6y17QWzDtir2UvW8WA
K2939APK+m+bjgJFUX3nFrWr0qENpTi9ReLgymfmtMcO7U4i49mvef9wYR38F5lU
mT4P7PpcgL8I05kbof+9S/5Qy1BUqGRgURTUt6a2bvSjwdT56SbfOIbrXGQw+cMN
QS6BOEmsZyPal06JmwXC6J15tFNyCiEVBczsu4YlFk1KdNkABahqwEXjzelSt7Iw
eozzzQIDAQABo4IBazCCAWcwCQYDVR0TBAIwADAtBglghkgBhvhCAQ0EIBYeRWFz
eS1SU0EgR2VuZXJhdGVkIENlcnRpZmljYXRlMB0GA1UdDgQWBBRJQPQRg5kjxfBB
XHCTvfE+rtReYzCB6QYDVR0jBIHhMIHegBTvOI0UUFinW02cF3L837msp1GwEKGB
uqSBtzCBtDELMAkGA1UEBhMCVVMxCzAJBgNVBAgTAkNBMRUwEwYDVQQHEwxTYW5G
cmFuY2lzY28xFTATBgNVBAoTDFBpeGdsbywgSW5jLjEQMA4GA1UECxMHVlBOLUNJ
RTEaMBgGA1UEAxMRdHVubmVsLnBpeGdsby5jb20xHDAaBgNVBCkTE0JhbGEgQ2hh
bmRyYXNla2FyYW4xHjAcBgkqhkiG9w0BCQEWD2JhbGFAcGl4Z2xvLmNvbYIJAKbb
xoOA5qB5MBMGA1UdJQQMMAoGCCsGAQUFBwMCMAsGA1UdDwQEAwIHgDANBgkqhkiG
9w0BAQUFAAOCAgEAes4L8M0Y/EsCVdU8ieYbG1sBJN4gdxGIBtbkLAQUnnN51bBw
K5YQIWGQTTqzSHmc7Qw8+9U9dXA4rWskFeEp9+JnQUOmJx/ORo3EF7fLs+sGC3ZY
PBh6eLByVKQ9wSY15p2SUoAXJTtnMV8c1lVUmGQv/g3Iy4LFlKMzqzgmkC0YJuiD
pqXD0l24qbcwnj8iSTMrzg8a5Khn2qtIjhHMRzE+2csGo83SEwteZHO2e8zcMbYg
4ZIjsQ3MMvr8PTlF0ichvJe8+TCAqds+a1c0q0rA/24YhWjvJbNv6Cj+6neC1byW
4Ft0xK/uC1nBoD+tSf38DYIRSsenornnygBep16y7cwOJabZA/4nKsdV6tNBvWI1
NF13V8VeyrqMrRiqtZ6q0ZH8AZRYBGyLNWDUSiXh5ZvaunxBADzRrBpYbkjdcCQv
752JQOuDyHNmfFCaSmRKL13Inyew3mffCFaJB4gr6/hA0lxMfKO+xY34dFH5SXCe
CQHh+YhtBDiMydJQ2zO+WjevgXtoH66udY3Zr498Iy5R9PbXZYKqde+4jISHDRwP
YvTB2AavePIje8MaW70phU3i1tqvRESpFDrofG5Yq9U8m+7nSpv6DYHIujRIKiAE
/6FgCjC/7rtrTtfAMMxUZm/Newdbmov0no3bO1Y3jxlonSNVgqhJo/M8MEg=
-----END CERTIFICATE-----
