Certificate:
    Data:
        Version: 3 (0x2)
        Serial Number: 538 (0x21a)
    Signature Algorithm: sha1WithRSAEncryption
        Issuer: C=US, ST=CA, L=SanFrancisco, O=Pixglo, Inc., OU=VPN-CIE, CN=tunnel.pixglo.com/name=Bala Chandrasekaran/emailAddress=bala@pixglo.com
        Validity
            Not Before: Feb 14 06:36:36 2018 GMT
            Not After : Feb 12 06:36:36 2028 GMT
        Subject: C=US, ST=CA, L=SanFrancisco, O=Pixglo, Inc., OU=VPN-CIE, CN=cie537/name=Bala Chandrasekaran/emailAddress=bala@pixglo.com
        Subject Public Key Info:
            Public Key Algorithm: rsaEncryption
                Public-Key: (4096 bit)
                Modulus:
                    00:93:50:65:60:51:d5:fb:a3:9b:3f:09:c3:c7:a6:
                    1e:c6:ec:62:e3:7a:d5:40:2d:bd:5c:78:f4:8a:1b:
                    f8:5d:fe:9d:e5:13:f6:5a:49:70:2a:34:63:9c:9e:
                    c4:c0:93:34:45:c3:bb:d4:a0:68:69:20:78:07:01:
                    68:b3:ef:ad:9e:f2:b3:ab:c1:9e:cf:30:9b:88:6c:
                    f1:7d:2e:7f:0c:d2:f1:f0:fc:56:9e:ca:31:d9:dd:
                    0a:a4:8b:3f:91:fc:2d:97:ae:e1:33:13:d2:09:5b:
                    d6:bf:8b:b4:35:41:14:34:b1:80:22:57:09:a0:43:
                    dc:0f:8b:9c:98:16:d4:e8:e8:f7:ff:56:c1:7f:bc:
                    c4:02:0f:3b:5b:78:7d:0c:90:c8:72:04:42:1e:7e:
                    ae:78:74:fb:b2:45:a5:9a:e1:19:02:e4:c2:59:71:
                    38:08:40:52:10:86:e7:aa:90:6d:e8:d7:e4:df:ef:
                    19:c0:f5:cf:27:d5:b2:d8:ec:df:38:fc:fe:e6:be:
                    5b:c1:fe:2f:40:0d:86:51:e6:88:77:93:cd:66:e2:
                    97:1b:f1:4a:b0:20:96:94:57:d1:48:8e:f8:1f:3a:
                    0c:53:ed:75:cc:a4:6c:7e:a4:5d:fb:63:8e:b7:0c:
                    30:21:be:23:ad:0b:9a:27:9b:5f:8e:d3:92:86:e8:
                    79:8e:3d:83:46:60:de:21:f2:e3:62:6c:73:64:c2:
                    8c:dc:6c:fe:42:61:54:40:5e:3c:53:7c:d2:a5:05:
                    b5:55:cb:b3:e3:d2:87:44:ec:e5:bc:7c:7a:48:11:
                    f3:d5:19:9d:c3:8c:61:ac:8b:0d:a9:91:23:8c:74:
                    49:d1:03:c9:ce:78:43:e8:24:b4:a1:bf:4a:b7:44:
                    e3:49:0a:4f:67:0a:40:19:de:76:21:09:8e:29:c9:
                    ab:2f:6c:dc:0f:4d:a4:72:a5:5e:76:8f:21:7f:ee:
                    2b:5f:b1:d7:2a:a3:20:b0:18:f0:74:6a:78:74:3c:
                    63:09:7e:21:5f:ea:49:80:07:36:6e:36:57:e5:f1:
                    45:c3:f3:42:db:fd:e9:3c:9f:d7:57:2f:5c:b2:4c:
                    83:af:be:5d:31:6c:2f:a3:bf:95:62:85:e4:a7:86:
                    4a:7a:8f:9c:10:63:77:20:b3:33:04:88:39:aa:07:
                    f8:e8:ee:05:32:be:b0:39:fd:6c:6d:ff:cb:47:3f:
                    e9:cb:4e:93:a6:30:fa:27:99:9b:9b:bc:cb:e3:32:
                    04:ca:d4:25:5b:e1:ab:d5:23:57:a5:91:01:cb:5f:
                    35:4c:24:5d:78:70:fd:c7:7d:68:25:fc:5d:83:f4:
                    7a:ae:ad:b3:c0:ec:6b:af:46:f6:7d:01:fe:2f:82:
                    f1:6b:fb
                Exponent: 65537 (0x10001)
        X509v3 extensions:
            X509v3 Basic Constraints: 
                CA:FALSE
            Netscape Comment: 
                Easy-RSA Generated Certificate
            X509v3 Subject Key Identifier: 
                09:98:94:0F:E7:C0:B9:A3:58:D8:54:CC:D5:CE:98:31:1E:F9:80:9C
            X509v3 Authority Key Identifier: 
                keyid:EF:38:8D:14:50:58:A7:5B:4D:9C:17:72:FC:DF:B9:AC:A7:51:B0:10
                DirName:/C=US/ST=CA/L=SanFrancisco/O=Pixglo, Inc./OU=VPN-CIE/CN=tunnel.pixglo.com/name=Bala Chandrasekaran/emailAddress=bala@pixglo.com
                serial:A6:DB:C6:83:80:E6:A0:79

            X509v3 Extended Key Usage: 
                TLS Web Client Authentication
            X509v3 Key Usage: 
                Digital Signature
    Signature Algorithm: sha1WithRSAEncryption
         08:7b:5e:7c:d9:80:b5:24:07:b1:df:be:89:ea:d5:0d:12:fd:
         7a:d7:bc:38:e3:90:b8:a2:51:60:a7:46:a5:d0:df:fd:93:5a:
         91:3d:1c:11:16:1e:b7:fb:33:3c:42:14:82:4e:74:80:d6:9d:
         a5:96:b1:67:9f:ed:e0:93:c9:1f:8a:f3:41:b6:d4:64:54:a7:
         df:25:6f:f1:e3:e5:38:28:89:bc:75:13:03:a3:f2:ca:73:2a:
         f6:17:c8:c8:83:6a:5e:36:bd:dd:b4:dd:10:e6:fc:e8:ad:51:
         67:a9:1c:f0:9d:e8:fe:27:0d:24:fe:b8:21:f3:ef:a8:24:4e:
         85:2d:70:6b:db:a2:08:8c:e7:b9:7a:5e:c3:3a:42:13:15:08:
         33:f6:76:1f:2f:74:46:7b:6c:3c:99:5c:24:f5:fd:c4:35:01:
         6c:c8:82:9b:40:f0:74:17:7a:fb:55:20:bd:23:b8:5b:c0:4a:
         a2:a0:0f:e8:f3:8f:4d:8f:55:d6:4a:a6:69:d9:87:f9:81:dc:
         be:34:3e:e8:14:bd:07:e3:50:60:ac:a9:a9:74:2a:4d:c6:4a:
         ae:19:5d:46:7a:82:aa:c2:49:74:8b:8a:84:c9:8a:c4:7f:94:
         3f:8b:16:94:88:e5:bd:8c:59:b0:d5:f3:ae:1f:d8:de:c3:ab:
         5e:b5:12:16:f0:51:08:d5:42:a2:38:c0:a7:77:93:7e:36:90:
         91:6a:30:a5:aa:4a:88:1c:b5:9d:0d:60:a8:3d:b6:c5:ed:36:
         9d:33:98:ee:4d:10:a0:32:ed:3d:04:a5:d2:b8:fe:d4:e3:27:
         af:29:c6:88:59:08:cc:3b:3b:3c:e4:7c:23:d9:ba:01:b7:c1:
         9b:b8:d6:53:9a:fe:e3:69:5a:11:e0:6f:1d:2a:e8:fc:d1:f5:
         bd:a2:49:5a:3b:95:74:76:65:19:08:4b:93:0f:b2:c4:2c:52:
         80:ee:dc:f0:91:ca:28:26:f1:16:ae:88:0f:70:3f:2a:ed:4c:
         71:f7:89:c6:d2:61:59:9e:6f:f1:82:b7:cd:25:3f:be:d9:cb:
         a7:ac:b3:3e:fe:6d:f3:7c:92:17:71:6b:6f:89:65:cf:8a:58:
         c7:c6:3d:38:fa:8e:a4:40:c7:5d:79:60:5f:58:b4:23:2d:02:
         55:83:4a:f6:f9:3f:c5:7e:06:1c:99:1f:72:a0:29:0f:ff:18:
         f2:e8:1c:b1:15:d2:ab:81:22:3d:59:d9:6a:97:ce:ee:e4:15:
         bd:1d:26:67:92:a5:2b:96:87:6c:42:e0:cc:d4:0e:69:c5:6e:
         ab:b9:f5:01:20:f0:f2:d0:bb:81:e8:fe:92:c5:b7:39:22:8d:
         13:2f:27:49:6a:59:bf:ec
-----BEGIN CERTIFICATE-----
MIIHSDCCBTCgAwIBAgICAhowDQYJKoZIhvcNAQEFBQAwgbQxCzAJBgNVBAYTAlVT
MQswCQYDVQQIEwJDQTEVMBMGA1UEBxMMU2FuRnJhbmNpc2NvMRUwEwYDVQQKEwxQ
aXhnbG8sIEluYy4xEDAOBgNVBAsTB1ZQTi1DSUUxGjAYBgNVBAMTEXR1bm5lbC5w
aXhnbG8uY29tMRwwGgYDVQQpExNCYWxhIENoYW5kcmFzZWthcmFuMR4wHAYJKoZI
hvcNAQkBFg9iYWxhQHBpeGdsby5jb20wHhcNMTgwMjE0MDYzNjM2WhcNMjgwMjEy
MDYzNjM2WjCBqTELMAkGA1UEBhMCVVMxCzAJBgNVBAgTAkNBMRUwEwYDVQQHEwxT
YW5GcmFuY2lzY28xFTATBgNVBAoTDFBpeGdsbywgSW5jLjEQMA4GA1UECxMHVlBO
LUNJRTEPMA0GA1UEAxMGY2llNTM3MRwwGgYDVQQpExNCYWxhIENoYW5kcmFzZWth
cmFuMR4wHAYJKoZIhvcNAQkBFg9iYWxhQHBpeGdsby5jb20wggIiMA0GCSqGSIb3
DQEBAQUAA4ICDwAwggIKAoICAQCTUGVgUdX7o5s/CcPHph7G7GLjetVALb1cePSK
G/hd/p3lE/ZaSXAqNGOcnsTAkzRFw7vUoGhpIHgHAWiz762e8rOrwZ7PMJuIbPF9
Ln8M0vHw/FaeyjHZ3Qqkiz+R/C2XruEzE9IJW9a/i7Q1QRQ0sYAiVwmgQ9wPi5yY
FtTo6Pf/VsF/vMQCDztbeH0MkMhyBEIefq54dPuyRaWa4RkC5MJZcTgIQFIQhueq
kG3o1+Tf7xnA9c8n1bLY7N84/P7mvlvB/i9ADYZR5oh3k81m4pcb8UqwIJaUV9FI
jvgfOgxT7XXMpGx+pF37Y463DDAhviOtC5onm1+O05KG6HmOPYNGYN4h8uNibHNk
wozcbP5CYVRAXjxTfNKlBbVVy7Pj0odE7OW8fHpIEfPVGZ3DjGGsiw2pkSOMdEnR
A8nOeEPoJLShv0q3RONJCk9nCkAZ3nYhCY4pyasvbNwPTaRypV52jyF/7itfsdcq
oyCwGPB0anh0PGMJfiFf6kmABzZuNlfl8UXD80Lb/ek8n9dXL1yyTIOvvl0xbC+j
v5ViheSnhkp6j5wQY3cgszMEiDmqB/jo7gUyvrA5/Wxt/8tHP+nLTpOmMPonmZub
vMvjMgTK1CVb4avVI1elkQHLXzVMJF14cP3HfWgl/F2D9HqurbPA7GuvRvZ9Af4v
gvFr+wIDAQABo4IBazCCAWcwCQYDVR0TBAIwADAtBglghkgBhvhCAQ0EIBYeRWFz
eS1SU0EgR2VuZXJhdGVkIENlcnRpZmljYXRlMB0GA1UdDgQWBBQJmJQP58C5o1jY
VMzVzpgxHvmAnDCB6QYDVR0jBIHhMIHegBTvOI0UUFinW02cF3L837msp1GwEKGB
uqSBtzCBtDELMAkGA1UEBhMCVVMxCzAJBgNVBAgTAkNBMRUwEwYDVQQHEwxTYW5G
cmFuY2lzY28xFTATBgNVBAoTDFBpeGdsbywgSW5jLjEQMA4GA1UECxMHVlBOLUNJ
RTEaMBgGA1UEAxMRdHVubmVsLnBpeGdsby5jb20xHDAaBgNVBCkTE0JhbGEgQ2hh
bmRyYXNla2FyYW4xHjAcBgkqhkiG9w0BCQEWD2JhbGFAcGl4Z2xvLmNvbYIJAKbb
xoOA5qB5MBMGA1UdJQQMMAoGCCsGAQUFBwMCMAsGA1UdDwQEAwIHgDANBgkqhkiG
9w0BAQUFAAOCAgEACHtefNmAtSQHsd++ierVDRL9ete8OOOQuKJRYKdGpdDf/ZNa
kT0cERYet/szPEIUgk50gNadpZaxZ5/t4JPJH4rzQbbUZFSn3yVv8ePlOCiJvHUT
A6PyynMq9hfIyINqXja93bTdEOb86K1RZ6kc8J3o/icNJP64IfPvqCROhS1wa9ui
CIznuXpewzpCExUIM/Z2Hy90RntsPJlcJPX9xDUBbMiCm0DwdBd6+1UgvSO4W8BK
oqAP6POPTY9V1kqmadmH+YHcvjQ+6BS9B+NQYKypqXQqTcZKrhldRnqCqsJJdIuK
hMmKxH+UP4sWlIjlvYxZsNXzrh/Y3sOrXrUSFvBRCNVCojjAp3eTfjaQkWowpapK
iBy1nQ1gqD22xe02nTOY7k0QoDLtPQSl0rj+1OMnrynGiFkIzDs7POR8I9m6AbfB
m7jWU5r+42laEeBvHSro/NH1vaJJWjuVdHZlGQhLkw+yxCxSgO7c8JHKKCbxFq6I
D3A/Ku1McfeJxtJhWZ5v8YK3zSU/vtnLp6yzPv5t83ySF3Frb4llz4pYx8Y9OPqO
pEDHXXlgX1i0Iy0CVYNK9vk/xX4GHJkfcqApD/8Y8ugcsRXSq4EiPVnZapfO7uQV
vR0mZ5KlK5aHbELgzNQOacVuq7n1ASDw8tC7gej+ksW3OSKNEy8nSWpZv+w=
-----END CERTIFICATE-----
