Certificate:
    Data:
        Version: 3 (0x2)
        Serial Number: 539 (0x21b)
    Signature Algorithm: sha1WithRSAEncryption
        Issuer: C=US, ST=CA, L=SanFrancisco, O=Pixglo, Inc., OU=VPN-CIE, CN=tunnel.pixglo.com/name=Bala Chandrasekaran/emailAddress=bala@pixglo.com
        Validity
            Not Before: Feb 14 06:36:38 2018 GMT
            Not After : Feb 12 06:36:38 2028 GMT
        Subject: C=US, ST=CA, L=SanFrancisco, O=Pixglo, Inc., OU=VPN-CIE, CN=cie538/name=Bala Chandrasekaran/emailAddress=bala@pixglo.com
        Subject Public Key Info:
            Public Key Algorithm: rsaEncryption
                Public-Key: (4096 bit)
                Modulus:
                    00:bf:07:f4:86:04:db:2f:35:38:c0:2f:71:d7:b0:
                    e2:7e:9b:13:e8:41:af:5a:b7:39:07:5a:5d:2a:a8:
                    90:1e:c0:5b:20:f0:f8:ff:c8:25:2d:c6:fd:7d:a6:
                    cc:ea:ae:07:bd:3c:15:d1:30:9f:5b:2f:59:c0:15:
                    8b:18:12:8f:6a:73:3b:d0:83:87:31:9c:b5:f8:68:
                    02:84:aa:4c:cd:96:30:c9:cd:e9:ce:d3:53:b3:06:
                    97:3a:8c:77:c3:09:21:fd:d6:f9:f2:75:a0:d4:36:
                    03:b1:f4:a3:1c:00:ed:54:1a:43:31:28:b5:8b:4b:
                    26:5d:11:ae:18:bc:89:b1:ec:fc:8b:17:3b:7d:0f:
                    76:dd:60:4f:4d:da:3f:df:bc:a6:a1:56:5c:1d:00:
                    e8:b4:e6:01:36:b8:d5:18:39:1f:9b:21:ad:62:44:
                    89:e3:c4:25:c7:2f:86:d0:50:7c:bf:56:c7:dc:de:
                    4f:01:ff:0e:d3:02:23:86:f3:bc:72:f5:64:b5:7f:
                    dc:40:4c:65:6f:46:06:ef:e4:24:05:ef:ac:73:be:
                    59:fb:80:1d:d2:5e:0d:01:74:2f:51:65:4f:4f:fe:
                    a3:80:95:ae:f6:21:ca:af:4f:7c:f3:de:bc:30:e5:
                    aa:07:ae:41:09:ae:4f:bb:14:03:36:3b:89:6d:50:
                    39:c0:0d:f9:16:2a:59:eb:5c:d5:9e:78:5a:b3:9e:
                    a5:dd:4d:61:2e:a0:f5:bf:90:13:74:7c:33:f5:77:
                    49:2f:ea:a4:53:e1:08:da:fe:11:ae:3c:19:4d:d9:
                    dc:f2:3e:18:98:ab:ee:d0:5b:36:be:3f:ac:c0:b4:
                    0a:26:6a:b3:ca:38:22:71:23:ec:cf:f8:a9:3d:37:
                    61:13:17:04:39:f7:15:38:c7:9f:3e:63:b8:19:ae:
                    b7:95:de:86:7f:22:02:84:c8:2b:2a:23:7f:a7:16:
                    73:3a:6d:79:d0:be:5f:40:53:95:60:8f:bf:06:58:
                    08:cd:0e:78:44:59:22:da:6b:fe:ad:ec:b5:85:70:
                    8e:52:5e:85:4f:e3:c4:42:a8:e7:0c:1f:8c:a7:b6:
                    c1:50:56:7c:be:0e:5d:fe:5f:ec:0d:b2:29:f3:24:
                    85:b3:93:ad:b9:1e:81:8a:5c:6e:2b:f0:37:dc:86:
                    ad:f5:8a:83:17:27:e2:ec:76:f3:5e:d9:9f:61:98:
                    35:58:55:0f:d4:ae:1d:b9:9e:24:16:16:74:a2:b6:
                    78:20:8d:ff:61:29:fb:5d:d8:15:91:da:a8:2b:46:
                    c7:56:29:74:07:4b:9c:8d:17:15:c1:d7:2c:6c:02:
                    02:54:66:a2:4d:f8:00:b2:b4:0a:5f:25:4c:52:39:
                    22:33:59
                Exponent: 65537 (0x10001)
        X509v3 extensions:
            X509v3 Basic Constraints: 
                CA:FALSE
            Netscape Comment: 
                Easy-RSA Generated Certificate
            X509v3 Subject Key Identifier: 
                15:88:0E:79:78:4D:D5:12:04:B2:5A:4F:55:56:F9:36:A3:8D:C0:FE
            X509v3 Authority Key Identifier: 
                keyid:EF:38:8D:14:50:58:A7:5B:4D:9C:17:72:FC:DF:B9:AC:A7:51:B0:10
                DirName:/C=US/ST=CA/L=SanFrancisco/O=Pixglo, Inc./OU=VPN-CIE/CN=tunnel.pixglo.com/name=Bala Chandrasekaran/emailAddress=bala@pixglo.com
                serial:A6:DB:C6:83:80:E6:A0:79

            X509v3 Extended Key Usage: 
                TLS Web Client Authentication
            X509v3 Key Usage: 
                Digital Signature
    Signature Algorithm: sha1WithRSAEncryption
         d1:9c:8e:bd:e0:30:ac:77:ba:b0:2c:f8:72:ae:42:04:5b:12:
         eb:ff:08:81:b3:d2:fb:64:f0:4c:ba:c8:64:c9:ef:e9:2a:90:
         cb:86:e2:a9:ac:ff:d3:c3:a2:1d:a4:f6:a8:3e:e9:96:94:28:
         dc:62:74:ed:8b:af:17:97:82:b4:40:a0:c4:10:1e:32:43:52:
         68:40:d1:1f:fd:6e:53:15:49:4a:24:be:71:c3:16:03:bd:64:
         66:91:fb:b4:6a:88:3b:2f:a9:02:61:26:bc:25:a2:66:2c:20:
         e3:28:aa:19:6d:99:a8:bd:af:df:88:69:b1:7f:51:21:36:8f:
         7f:15:6b:79:9a:29:07:66:de:26:e8:59:08:c4:a6:09:96:18:
         8a:38:6a:a4:13:5b:5a:81:02:90:d9:e4:b8:5b:19:4a:29:45:
         ad:7e:59:68:41:a7:0b:0b:17:37:7d:bc:80:35:5a:58:54:a7:
         e9:85:45:09:1c:7c:ea:8b:fc:0e:bd:32:1a:7b:e1:69:03:4e:
         b6:e5:c2:cb:8d:37:fe:62:f6:9c:06:b0:77:2f:62:3a:70:6f:
         05:97:c5:13:a3:8e:44:f6:5d:95:09:63:b0:21:33:2a:9f:bb:
         3a:77:58:0f:f0:a9:d8:4d:b6:56:9b:54:ee:41:37:67:5b:9a:
         d4:24:82:a8:4a:1d:83:54:2b:af:c2:a0:0c:81:1d:e9:d1:a2:
         33:8b:ab:cc:cb:d4:cc:3e:9c:7b:16:98:75:ef:a0:12:d1:e5:
         44:a6:29:52:0d:ab:10:bb:01:45:cd:77:af:39:10:b5:70:f4:
         69:77:09:61:2d:d4:6d:ed:bf:f9:98:f1:e6:18:cf:f1:7d:fb:
         34:bf:93:6e:c1:c9:db:bf:e5:3d:2e:33:45:e6:97:38:9a:39:
         17:c2:12:66:a4:66:52:25:33:81:cd:ec:fa:0c:16:93:63:86:
         16:9d:b3:1b:1f:ea:2d:ea:12:75:0d:2a:26:75:bc:b9:c3:71:
         a1:5b:dc:05:2f:b7:88:d3:9a:da:e6:9f:fb:89:22:82:4f:af:
         1a:69:11:a6:59:80:32:4a:1b:ec:7d:52:49:9e:a2:be:21:b0:
         8c:89:ac:c1:ab:03:c9:cd:cf:32:cc:d2:7b:54:65:5a:b4:a0:
         89:4d:31:96:56:1b:26:8d:d1:ab:b4:4c:d9:4c:aa:4b:c4:aa:
         dd:4a:c9:c2:86:4a:cd:2a:8a:83:e5:29:95:d3:bf:3a:1f:96:
         8b:39:e0:7b:a1:08:cb:9d:2a:f5:49:6f:ec:36:26:a8:fa:9d:
         a6:29:f5:cc:ee:9e:63:39:bf:6f:5f:77:3d:8c:93:90:10:3c:
         5b:ab:f9:90:d5:2b:0d:fc
-----BEGIN CERTIFICATE-----
MIIHSDCCBTCgAwIBAgICAhswDQYJKoZIhvcNAQEFBQAwgbQxCzAJBgNVBAYTAlVT
MQswCQYDVQQIEwJDQTEVMBMGA1UEBxMMU2FuRnJhbmNpc2NvMRUwEwYDVQQKEwxQ
aXhnbG8sIEluYy4xEDAOBgNVBAsTB1ZQTi1DSUUxGjAYBgNVBAMTEXR1bm5lbC5w
aXhnbG8uY29tMRwwGgYDVQQpExNCYWxhIENoYW5kcmFzZWthcmFuMR4wHAYJKoZI
hvcNAQkBFg9iYWxhQHBpeGdsby5jb20wHhcNMTgwMjE0MDYzNjM4WhcNMjgwMjEy
MDYzNjM4WjCBqTELMAkGA1UEBhMCVVMxCzAJBgNVBAgTAkNBMRUwEwYDVQQHEwxT
YW5GcmFuY2lzY28xFTATBgNVBAoTDFBpeGdsbywgSW5jLjEQMA4GA1UECxMHVlBO
LUNJRTEPMA0GA1UEAxMGY2llNTM4MRwwGgYDVQQpExNCYWxhIENoYW5kcmFzZWth
cmFuMR4wHAYJKoZIhvcNAQkBFg9iYWxhQHBpeGdsby5jb20wggIiMA0GCSqGSIb3
DQEBAQUAA4ICDwAwggIKAoICAQC/B/SGBNsvNTjAL3HXsOJ+mxPoQa9atzkHWl0q
qJAewFsg8Pj/yCUtxv19pszqrge9PBXRMJ9bL1nAFYsYEo9qczvQg4cxnLX4aAKE
qkzNljDJzenO01OzBpc6jHfDCSH91vnydaDUNgOx9KMcAO1UGkMxKLWLSyZdEa4Y
vImx7PyLFzt9D3bdYE9N2j/fvKahVlwdAOi05gE2uNUYOR+bIa1iRInjxCXHL4bQ
UHy/Vsfc3k8B/w7TAiOG87xy9WS1f9xATGVvRgbv5CQF76xzvln7gB3SXg0BdC9R
ZU9P/qOAla72IcqvT3zz3rww5aoHrkEJrk+7FAM2O4ltUDnADfkWKlnrXNWeeFqz
nqXdTWEuoPW/kBN0fDP1d0kv6qRT4Qja/hGuPBlN2dzyPhiYq+7QWza+P6zAtAom
arPKOCJxI+zP+Kk9N2ETFwQ59xU4x58+Y7gZrreV3oZ/IgKEyCsqI3+nFnM6bXnQ
vl9AU5Vgj78GWAjNDnhEWSLaa/6t7LWFcI5SXoVP48RCqOcMH4yntsFQVny+Dl3+
X+wNsinzJIWzk625HoGKXG4r8Dfchq31ioMXJ+LsdvNe2Z9hmDVYVQ/Urh25niQW
FnSitnggjf9hKftd2BWR2qgrRsdWKXQHS5yNFxXB1yxsAgJUZqJN+ACytApfJUxS
OSIzWQIDAQABo4IBazCCAWcwCQYDVR0TBAIwADAtBglghkgBhvhCAQ0EIBYeRWFz
eS1SU0EgR2VuZXJhdGVkIENlcnRpZmljYXRlMB0GA1UdDgQWBBQViA55eE3VEgSy
Wk9VVvk2o43A/jCB6QYDVR0jBIHhMIHegBTvOI0UUFinW02cF3L837msp1GwEKGB
uqSBtzCBtDELMAkGA1UEBhMCVVMxCzAJBgNVBAgTAkNBMRUwEwYDVQQHEwxTYW5G
cmFuY2lzY28xFTATBgNVBAoTDFBpeGdsbywgSW5jLjEQMA4GA1UECxMHVlBOLUNJ
RTEaMBgGA1UEAxMRdHVubmVsLnBpeGdsby5jb20xHDAaBgNVBCkTE0JhbGEgQ2hh
bmRyYXNla2FyYW4xHjAcBgkqhkiG9w0BCQEWD2JhbGFAcGl4Z2xvLmNvbYIJAKbb
xoOA5qB5MBMGA1UdJQQMMAoGCCsGAQUFBwMCMAsGA1UdDwQEAwIHgDANBgkqhkiG
9w0BAQUFAAOCAgEA0ZyOveAwrHe6sCz4cq5CBFsS6/8IgbPS+2TwTLrIZMnv6SqQ
y4biqaz/08OiHaT2qD7plpQo3GJ07YuvF5eCtECgxBAeMkNSaEDRH/1uUxVJSiS+
ccMWA71kZpH7tGqIOy+pAmEmvCWiZiwg4yiqGW2ZqL2v34hpsX9RITaPfxVreZop
B2beJuhZCMSmCZYYijhqpBNbWoECkNnkuFsZSilFrX5ZaEGnCwsXN328gDVaWFSn
6YVFCRx86ov8Dr0yGnvhaQNOtuXCy403/mL2nAawdy9iOnBvBZfFE6OORPZdlQlj
sCEzKp+7OndYD/Cp2E22VptU7kE3Z1ua1CSCqEodg1Qrr8KgDIEd6dGiM4urzMvU
zD6cexaYde+gEtHlRKYpUg2rELsBRc13rzkQtXD0aXcJYS3Ube2/+Zjx5hjP8X37
NL+TbsHJ27/lPS4zReaXOJo5F8ISZqRmUiUzgc3s+gwWk2OGFp2zGx/qLeoSdQ0q
JnW8ucNxoVvcBS+3iNOa2uaf+4kigk+vGmkRplmAMkob7H1SSZ6iviGwjImswasD
yc3PMszSe1RlWrSgiU0xllYbJo3Rq7RM2UyqS8Sq3UrJwoZKzSqKg+UpldO/Oh+W
iznge6EIy50q9Ulv7DYmqPqdpin1zO6eYzm/b193PYyTkBA8W6v5kNUrDfw=
-----END CERTIFICATE-----
