Certificate:
    Data:
        Version: 3 (0x2)
        Serial Number: 540 (0x21c)
    Signature Algorithm: sha1WithRSAEncryption
        Issuer: C=US, ST=CA, L=SanFrancisco, O=Pixglo, Inc., OU=VPN-CIE, CN=tunnel.pixglo.com/name=Bala Chandrasekaran/emailAddress=bala@pixglo.com
        Validity
            Not Before: Feb 14 06:36:38 2018 GMT
            Not After : Feb 12 06:36:38 2028 GMT
        Subject: C=US, ST=CA, L=SanFrancisco, O=Pixglo, Inc., OU=VPN-CIE, CN=cie539/name=Bala Chandrasekaran/emailAddress=bala@pixglo.com
        Subject Public Key Info:
            Public Key Algorithm: rsaEncryption
                Public-Key: (4096 bit)
                Modulus:
                    00:d1:60:cc:c8:71:6e:06:30:f6:be:9f:23:24:2a:
                    d4:0a:8c:6f:7e:9b:e9:1a:4b:38:c5:6d:5c:d9:22:
                    1c:34:26:b8:08:3d:f9:36:c2:e9:65:dc:65:52:c6:
                    41:dd:c2:65:ac:d6:dd:3b:6b:82:39:9a:eb:e4:c8:
                    6f:0c:8d:0f:ff:39:27:d9:02:ef:7f:d5:88:94:83:
                    8a:5e:b7:83:5e:87:f8:2a:84:eb:cd:06:cb:86:59:
                    d4:f2:20:71:39:75:70:b5:62:fd:06:8e:7e:36:e0:
                    93:5b:52:a9:c1:f1:5e:c8:3d:8d:78:89:5e:38:d3:
                    1b:3f:a9:fa:13:4c:04:54:e5:9e:6a:ab:a9:1e:95:
                    04:0b:ad:ca:de:c4:a4:2c:b5:c9:a3:6f:df:e0:d4:
                    8a:b9:8e:f4:ca:b4:e3:39:f0:06:3f:35:35:6b:0a:
                    d9:fd:65:ee:4f:f9:8a:a4:bd:df:04:a0:70:04:b1:
                    70:99:55:84:11:a5:03:5c:af:0a:a1:51:e5:25:ca:
                    81:d9:e4:38:25:90:c5:16:84:1f:60:a5:46:c3:37:
                    72:0f:99:f2:dc:fd:c1:51:2e:44:b8:0b:05:50:5b:
                    98:8a:e1:6a:8a:58:10:e3:f7:3b:4c:38:4f:99:a4:
                    08:08:a3:d7:a8:0d:99:26:02:fc:8c:d4:5a:c1:ee:
                    1b:5e:71:ed:1c:3f:00:39:95:76:19:d9:c6:59:91:
                    36:60:ac:f9:a2:29:bb:ec:ec:62:cd:13:1b:96:6c:
                    a0:db:47:c6:06:35:88:1f:c0:fb:2e:26:a6:f6:32:
                    9e:d5:f0:4a:6f:5d:27:3f:b6:2b:89:df:61:90:14:
                    b8:91:b9:fe:a4:0d:b2:91:b9:a5:7f:78:a0:4e:a5:
                    e2:1b:2c:30:51:f6:34:19:76:23:17:ea:3b:a0:92:
                    88:bf:6f:0f:27:a9:16:e2:ab:e5:ac:0e:bd:f6:bf:
                    ab:0d:99:59:46:09:cc:e0:32:ed:75:66:03:5b:5e:
                    ac:fb:0f:2a:72:5b:51:1a:e3:a2:8e:dd:5d:cf:80:
                    23:ca:f3:36:30:3b:50:08:a5:ab:a4:29:2d:2f:47:
                    ce:6f:29:12:cb:b6:e4:c4:26:43:d0:9f:8b:7e:3d:
                    f3:1f:5f:65:60:d0:1c:26:17:97:fd:38:ab:58:3a:
                    3f:a3:9d:3a:12:18:dc:1a:19:78:75:85:4c:da:da:
                    e4:bf:de:03:24:3a:c5:cf:2f:d4:68:d0:e4:8e:84:
                    90:b8:33:34:6c:57:02:d4:5a:e7:06:c9:32:fa:fb:
                    cb:3c:76:f4:eb:56:e1:0e:ed:a8:e5:32:17:c3:85:
                    fe:69:b9:da:0d:06:e4:aa:2d:cd:36:c0:89:58:86:
                    51:1b:c5
                Exponent: 65537 (0x10001)
        X509v3 extensions:
            X509v3 Basic Constraints: 
                CA:FALSE
            Netscape Comment: 
                Easy-RSA Generated Certificate
            X509v3 Subject Key Identifier: 
                36:35:63:A1:9E:A9:D1:50:35:A7:06:C4:43:58:C3:2B:95:70:A8:74
            X509v3 Authority Key Identifier: 
                keyid:EF:38:8D:14:50:58:A7:5B:4D:9C:17:72:FC:DF:B9:AC:A7:51:B0:10
                DirName:/C=US/ST=CA/L=SanFrancisco/O=Pixglo, Inc./OU=VPN-CIE/CN=tunnel.pixglo.com/name=Bala Chandrasekaran/emailAddress=bala@pixglo.com
                serial:A6:DB:C6:83:80:E6:A0:79

            X509v3 Extended Key Usage: 
                TLS Web Client Authentication
            X509v3 Key Usage: 
                Digital Signature
    Signature Algorithm: sha1WithRSAEncryption
         2b:a7:cf:76:a2:50:77:77:0c:14:1e:47:b4:3d:19:1f:9a:32:
         d4:52:46:88:81:b1:34:20:7f:90:1c:ad:ca:a8:b3:0c:0f:a5:
         49:30:31:db:68:af:b3:44:21:0b:0c:b1:07:75:66:e8:d5:5d:
         a9:83:e7:7a:14:84:97:64:70:0d:c1:97:4f:f4:fb:ff:a9:b0:
         01:94:c8:1f:49:f6:91:61:d0:20:62:36:25:d3:74:c9:ab:56:
         9b:27:c0:b0:4a:3a:17:37:44:d4:0e:f6:27:78:51:1e:0f:85:
         1a:37:6d:7d:7f:aa:85:b0:d5:ee:cf:b1:c8:33:7c:3c:f7:db:
         af:a8:3f:7c:05:30:46:25:f4:52:75:9f:73:8b:f3:f2:33:c8:
         a7:0a:d5:da:a5:8c:eb:67:29:cd:38:a9:c8:b5:d0:8a:17:f4:
         ef:74:e0:e1:45:1a:50:c1:04:e5:14:01:f0:1b:d0:c2:22:07:
         03:4f:c3:94:9a:9a:af:9c:5c:bd:f0:f6:5e:5b:27:7e:07:b5:
         a5:92:8f:53:7b:cd:40:66:05:b4:ba:ff:b8:22:47:8a:97:37:
         fc:f1:72:bd:e5:9f:de:0e:89:e9:fd:6e:f2:0c:6c:7e:4c:9c:
         40:08:1a:38:96:7c:43:ce:e7:4c:45:59:7c:d8:f6:6c:08:c8:
         78:fd:19:9f:d2:6c:f8:7b:f8:99:6e:c5:13:c3:8a:f9:7e:13:
         64:85:b1:23:93:f5:b3:df:d6:a4:85:08:39:9b:dd:5f:f6:be:
         97:a4:ef:08:2c:d6:56:11:53:0c:da:03:0b:0f:6a:3f:9a:eb:
         84:cf:e7:f6:34:d2:58:d9:29:fe:54:dc:91:68:72:4c:7b:61:
         60:bb:4f:1c:f1:dc:52:ef:a7:d9:b2:17:68:b5:5d:5c:75:b2:
         97:49:0f:d9:3e:5a:92:a7:b7:6b:63:d4:ef:2b:19:45:db:fa:
         58:c8:1b:72:c0:a1:6f:7c:86:52:64:94:3e:c0:4a:b6:95:4b:
         bc:88:8a:bf:b1:f7:e9:ee:ff:35:bb:2a:cc:3d:f2:e0:95:d5:
         25:7c:2b:f1:c9:15:0f:a1:6d:7c:c8:0c:f9:9a:0f:a4:90:47:
         04:64:e8:5f:a9:52:0a:98:4b:fe:d5:bb:32:bb:cf:bd:d6:a2:
         5e:13:5a:bd:3b:2c:a6:42:c8:e0:9b:72:68:c4:54:c1:7d:5d:
         ea:6e:c2:92:7e:1d:54:f6:05:55:e9:d4:35:72:e6:4e:85:38:
         3f:2e:59:f2:a3:04:70:32:d3:d8:c3:2f:64:08:d1:07:cf:f6:
         82:3d:a1:f3:e2:46:96:af:27:6d:65:0a:cf:2b:88:b5:94:98:
         07:f9:30:6b:f4:66:e1:40
-----BEGIN CERTIFICATE-----
MIIHSDCCBTCgAwIBAgICAhwwDQYJKoZIhvcNAQEFBQAwgbQxCzAJBgNVBAYTAlVT
MQswCQYDVQQIEwJDQTEVMBMGA1UEBxMMU2FuRnJhbmNpc2NvMRUwEwYDVQQKEwxQ
aXhnbG8sIEluYy4xEDAOBgNVBAsTB1ZQTi1DSUUxGjAYBgNVBAMTEXR1bm5lbC5w
aXhnbG8uY29tMRwwGgYDVQQpExNCYWxhIENoYW5kcmFzZWthcmFuMR4wHAYJKoZI
hvcNAQkBFg9iYWxhQHBpeGdsby5jb20wHhcNMTgwMjE0MDYzNjM4WhcNMjgwMjEy
MDYzNjM4WjCBqTELMAkGA1UEBhMCVVMxCzAJBgNVBAgTAkNBMRUwEwYDVQQHEwxT
YW5GcmFuY2lzY28xFTATBgNVBAoTDFBpeGdsbywgSW5jLjEQMA4GA1UECxMHVlBO
LUNJRTEPMA0GA1UEAxMGY2llNTM5MRwwGgYDVQQpExNCYWxhIENoYW5kcmFzZWth
cmFuMR4wHAYJKoZIhvcNAQkBFg9iYWxhQHBpeGdsby5jb20wggIiMA0GCSqGSIb3
DQEBAQUAA4ICDwAwggIKAoICAQDRYMzIcW4GMPa+nyMkKtQKjG9+m+kaSzjFbVzZ
Ihw0JrgIPfk2wull3GVSxkHdwmWs1t07a4I5muvkyG8MjQ//OSfZAu9/1YiUg4pe
t4Neh/gqhOvNBsuGWdTyIHE5dXC1Yv0Gjn424JNbUqnB8V7IPY14iV440xs/qfoT
TARU5Z5qq6kelQQLrcrexKQstcmjb9/g1Iq5jvTKtOM58AY/NTVrCtn9Ze5P+Yqk
vd8EoHAEsXCZVYQRpQNcrwqhUeUlyoHZ5DglkMUWhB9gpUbDN3IPmfLc/cFRLkS4
CwVQW5iK4WqKWBDj9ztMOE+ZpAgIo9eoDZkmAvyM1FrB7htece0cPwA5lXYZ2cZZ
kTZgrPmiKbvs7GLNExuWbKDbR8YGNYgfwPsuJqb2Mp7V8EpvXSc/tiuJ32GQFLiR
uf6kDbKRuaV/eKBOpeIbLDBR9jQZdiMX6jugkoi/bw8nqRbiq+WsDr32v6sNmVlG
CczgMu11ZgNbXqz7DypyW1Ea46KO3V3PgCPK8zYwO1AIpaukKS0vR85vKRLLtuTE
JkPQn4t+PfMfX2Vg0BwmF5f9OKtYOj+jnToSGNwaGXh1hUza2uS/3gMkOsXPL9Ro
0OSOhJC4MzRsVwLUWucGyTL6+8s8dvTrVuEO7ajlMhfDhf5pudoNBuSqLc02wIlY
hlEbxQIDAQABo4IBazCCAWcwCQYDVR0TBAIwADAtBglghkgBhvhCAQ0EIBYeRWFz
eS1SU0EgR2VuZXJhdGVkIENlcnRpZmljYXRlMB0GA1UdDgQWBBQ2NWOhnqnRUDWn
BsRDWMMrlXCodDCB6QYDVR0jBIHhMIHegBTvOI0UUFinW02cF3L837msp1GwEKGB
uqSBtzCBtDELMAkGA1UEBhMCVVMxCzAJBgNVBAgTAkNBMRUwEwYDVQQHEwxTYW5G
cmFuY2lzY28xFTATBgNVBAoTDFBpeGdsbywgSW5jLjEQMA4GA1UECxMHVlBOLUNJ
RTEaMBgGA1UEAxMRdHVubmVsLnBpeGdsby5jb20xHDAaBgNVBCkTE0JhbGEgQ2hh
bmRyYXNla2FyYW4xHjAcBgkqhkiG9w0BCQEWD2JhbGFAcGl4Z2xvLmNvbYIJAKbb
xoOA5qB5MBMGA1UdJQQMMAoGCCsGAQUFBwMCMAsGA1UdDwQEAwIHgDANBgkqhkiG
9w0BAQUFAAOCAgEAK6fPdqJQd3cMFB5HtD0ZH5oy1FJGiIGxNCB/kBytyqizDA+l
STAx22ivs0QhCwyxB3Vm6NVdqYPnehSEl2RwDcGXT/T7/6mwAZTIH0n2kWHQIGI2
JdN0yatWmyfAsEo6FzdE1A72J3hRHg+FGjdtfX+qhbDV7s+xyDN8PPfbr6g/fAUw
RiX0UnWfc4vz8jPIpwrV2qWM62cpzTipyLXQihf073Tg4UUaUMEE5RQB8BvQwiIH
A0/DlJqar5xcvfD2Xlsnfge1pZKPU3vNQGYFtLr/uCJHipc3/PFyveWf3g6J6f1u
8gxsfkycQAgaOJZ8Q87nTEVZfNj2bAjIeP0Zn9Js+Hv4mW7FE8OK+X4TZIWxI5P1
s9/WpIUIOZvdX/a+l6TvCCzWVhFTDNoDCw9qP5rrhM/n9jTSWNkp/lTckWhyTHth
YLtPHPHcUu+n2bIXaLVdXHWyl0kP2T5akqe3a2PU7ysZRdv6WMgbcsChb3yGUmSU
PsBKtpVLvIiKv7H36e7/NbsqzD3y4JXVJXwr8ckVD6FtfMgM+ZoPpJBHBGToX6lS
CphL/tW7MrvPvdaiXhNavTsspkLI4JtyaMRUwX1d6m7Ckn4dVPYFVenUNXLmToU4
Py5Z8qMEcDLT2MMvZAjRB8/2gj2h8+JGlq8nbWUKzyuItZSYB/kwa/Rm4UA=
-----END CERTIFICATE-----
