Certificate:
    Data:
        Version: 3 (0x2)
        Serial Number: 543 (0x21f)
    Signature Algorithm: sha1WithRSAEncryption
        Issuer: C=US, ST=CA, L=SanFrancisco, O=Pixglo, Inc., OU=VPN-CIE, CN=tunnel.pixglo.com/name=Bala Chandrasekaran/emailAddress=bala@pixglo.com
        Validity
            Not Before: Feb 14 06:36:43 2018 GMT
            Not After : Feb 12 06:36:43 2028 GMT
        Subject: C=US, ST=CA, L=SanFrancisco, O=Pixglo, Inc., OU=VPN-CIE, CN=cie542/name=Bala Chandrasekaran/emailAddress=bala@pixglo.com
        Subject Public Key Info:
            Public Key Algorithm: rsaEncryption
                Public-Key: (4096 bit)
                Modulus:
                    00:d2:04:74:78:1f:6d:2f:43:a7:2f:56:ca:0a:a9:
                    75:6b:6b:56:28:73:8f:39:68:cd:f2:30:04:b5:dc:
                    82:b6:6a:d5:7f:f8:3b:ec:76:cf:23:fe:b0:a8:35:
                    fb:b0:fe:a1:d5:60:98:f6:29:25:50:03:64:c6:76:
                    ae:0f:7a:10:a3:e4:b1:73:d8:d4:74:ff:ca:f3:74:
                    ea:a1:5d:a2:e9:b2:32:b2:e9:85:6a:18:9a:ad:6a:
                    61:65:d1:f7:75:50:5b:e3:f6:56:aa:4f:40:e8:27:
                    3c:2e:43:74:4c:80:56:e9:cc:e6:89:98:5e:01:dd:
                    34:94:e8:39:48:0e:81:8b:01:df:88:dc:43:e4:bf:
                    52:32:5b:5c:a7:51:c3:63:f4:54:48:fd:a2:1b:d0:
                    75:d9:96:da:c8:ce:5e:10:87:88:ce:72:26:ea:47:
                    35:60:fc:a9:de:e1:2a:98:83:5e:ef:04:b2:e3:ea:
                    71:c2:07:44:4e:73:20:be:4e:55:ed:4a:c9:7a:72:
                    04:87:35:a0:8b:41:2a:fa:48:45:e8:b8:dc:ac:b0:
                    69:7e:4f:70:5a:c3:83:3d:81:9b:75:47:3e:aa:8e:
                    33:e6:5c:08:b7:4f:6a:67:79:45:d3:6b:69:7b:ba:
                    53:0d:ac:ab:20:3c:4f:1e:27:7d:74:02:b7:b0:db:
                    21:c0:8e:c5:2d:a1:db:95:5e:c5:56:bf:0a:3d:52:
                    80:6d:2a:a6:14:04:37:f4:b2:cf:2d:c1:09:66:a5:
                    bd:2b:9e:21:5f:c2:59:84:1d:c2:0f:c0:2a:37:d0:
                    9d:f4:84:69:ba:55:9b:a2:2e:ed:46:c6:81:76:6b:
                    5b:85:bd:7c:20:61:ab:51:1f:1d:84:79:09:66:23:
                    06:e9:cf:8e:b6:eb:62:bb:7c:47:23:22:a8:2c:73:
                    e7:85:20:9c:bf:10:e7:43:e8:1a:53:f2:df:61:0a:
                    5e:57:f1:e5:18:1f:b2:90:45:78:dd:1d:5d:de:82:
                    37:30:81:92:94:05:5e:fe:2b:63:fa:cf:9c:65:54:
                    34:e0:e6:71:54:d8:04:f9:06:ee:7c:74:5c:6b:4c:
                    66:c7:d2:98:ba:3a:aa:65:80:3b:00:83:8f:5f:38:
                    b2:7d:6a:c9:d0:25:ae:f6:fc:25:98:8b:b0:4d:ce:
                    70:27:f8:57:e0:96:4f:c0:49:a2:cd:3a:75:bd:15:
                    b8:c1:0e:83:60:48:c7:4d:20:2e:d8:b1:72:a9:7a:
                    04:9a:b2:0b:c8:db:19:82:45:cf:18:cb:b3:f8:74:
                    f8:f8:84:6b:4f:0c:23:73:e7:ef:9e:6c:a0:20:ee:
                    7c:79:86:b8:b7:46:62:ee:fe:10:cc:10:ca:0a:1d:
                    e4:46:89
                Exponent: 65537 (0x10001)
        X509v3 extensions:
            X509v3 Basic Constraints: 
                CA:FALSE
            Netscape Comment: 
                Easy-RSA Generated Certificate
            X509v3 Subject Key Identifier: 
                28:19:CD:F6:89:74:0C:04:BA:DA:61:94:43:57:42:8F:33:E4:8A:8E
            X509v3 Authority Key Identifier: 
                keyid:EF:38:8D:14:50:58:A7:5B:4D:9C:17:72:FC:DF:B9:AC:A7:51:B0:10
                DirName:/C=US/ST=CA/L=SanFrancisco/O=Pixglo, Inc./OU=VPN-CIE/CN=tunnel.pixglo.com/name=Bala Chandrasekaran/emailAddress=bala@pixglo.com
                serial:A6:DB:C6:83:80:E6:A0:79

            X509v3 Extended Key Usage: 
                TLS Web Client Authentication
            X509v3 Key Usage: 
                Digital Signature
    Signature Algorithm: sha1WithRSAEncryption
         50:c5:33:cd:b6:5c:18:e3:a3:a8:36:5e:3a:6e:fe:27:87:15:
         6b:83:6b:d0:a2:e2:24:99:fe:b4:41:12:c9:3b:09:af:7a:70:
         ac:1d:af:59:25:36:80:25:a3:ca:ba:b3:68:ac:e8:62:bd:d0:
         18:52:87:17:29:7a:d3:81:fd:df:ee:fe:ac:8b:60:1c:19:56:
         05:c1:f5:71:5b:19:2b:56:5b:b4:48:59:d8:4d:8f:05:ed:9d:
         58:6e:d5:e8:a3:1f:96:61:f1:30:67:66:1a:66:fc:73:5a:1b:
         52:8a:0e:24:8b:3b:d8:76:92:2e:85:55:64:d6:37:1c:88:89:
         c9:fb:10:cd:fb:c4:19:df:b4:5e:5f:cf:c1:15:36:8d:8e:30:
         d9:72:b3:05:08:a6:6c:2e:6e:f0:58:c0:d6:c3:bd:da:a2:7a:
         61:b5:20:9e:33:1d:0f:51:42:e2:82:21:6f:86:38:38:c8:84:
         a1:b7:83:7e:68:7f:63:89:ff:c0:16:77:12:a8:c0:fc:49:46:
         ba:41:4f:32:3d:5e:9a:46:48:df:76:29:2e:64:da:62:bb:01:
         86:a6:d7:3a:0b:28:48:1b:3d:0b:7f:4f:82:65:b7:d8:c1:ff:
         b9:c2:ba:88:41:78:24:89:f9:79:a5:7a:12:7a:31:b9:c8:dc:
         9f:f1:ff:db:84:02:73:53:09:23:e9:14:d5:6a:dc:df:8c:5c:
         86:0d:51:87:b8:61:d0:5d:57:5e:c8:f7:db:fb:1b:46:38:b8:
         58:6d:d3:84:d1:aa:6b:f9:65:96:58:15:c2:f4:95:79:75:fd:
         47:21:b7:c7:e2:90:49:e7:bd:b3:bc:35:64:3e:20:18:c7:b5:
         29:d1:5e:5c:22:fd:19:c5:a1:ba:f4:b5:a2:c0:e1:e1:b9:82:
         9c:4e:e0:50:01:94:a6:c5:13:39:68:93:c4:59:29:54:41:62:
         db:c2:8d:8e:6b:ed:79:c3:59:eb:10:c4:e6:cf:8c:98:95:40:
         cd:d7:f0:62:8c:35:b0:d5:77:dc:ef:9f:3c:00:1b:eb:f7:a8:
         47:eb:e7:37:df:63:6d:26:b1:f3:5e:44:01:6c:89:29:97:69:
         a3:8b:7c:16:52:04:ca:4c:ef:00:e0:27:45:c7:96:5d:9a:37:
         33:2d:ed:d0:73:e2:16:39:6a:84:21:d0:7d:d8:ca:54:ce:6b:
         f3:bd:d5:85:62:3e:02:1c:df:96:95:24:90:d9:e0:17:d0:b6:
         3a:10:bc:a6:f1:8b:c4:9d:33:b9:58:21:a2:f7:c3:8a:af:c3:
         f1:5e:5f:f1:a7:b6:4a:86:52:5e:6d:8b:c4:15:5c:a3:cf:0b:
         5f:e1:17:b2:a9:de:69:b4
-----BEGIN CERTIFICATE-----
MIIHSDCCBTCgAwIBAgICAh8wDQYJKoZIhvcNAQEFBQAwgbQxCzAJBgNVBAYTAlVT
MQswCQYDVQQIEwJDQTEVMBMGA1UEBxMMU2FuRnJhbmNpc2NvMRUwEwYDVQQKEwxQ
aXhnbG8sIEluYy4xEDAOBgNVBAsTB1ZQTi1DSUUxGjAYBgNVBAMTEXR1bm5lbC5w
aXhnbG8uY29tMRwwGgYDVQQpExNCYWxhIENoYW5kcmFzZWthcmFuMR4wHAYJKoZI
hvcNAQkBFg9iYWxhQHBpeGdsby5jb20wHhcNMTgwMjE0MDYzNjQzWhcNMjgwMjEy
MDYzNjQzWjCBqTELMAkGA1UEBhMCVVMxCzAJBgNVBAgTAkNBMRUwEwYDVQQHEwxT
YW5GcmFuY2lzY28xFTATBgNVBAoTDFBpeGdsbywgSW5jLjEQMA4GA1UECxMHVlBO
LUNJRTEPMA0GA1UEAxMGY2llNTQyMRwwGgYDVQQpExNCYWxhIENoYW5kcmFzZWth
cmFuMR4wHAYJKoZIhvcNAQkBFg9iYWxhQHBpeGdsby5jb20wggIiMA0GCSqGSIb3
DQEBAQUAA4ICDwAwggIKAoICAQDSBHR4H20vQ6cvVsoKqXVra1Yoc485aM3yMAS1
3IK2atV/+Dvsds8j/rCoNfuw/qHVYJj2KSVQA2TGdq4PehCj5LFz2NR0/8rzdOqh
XaLpsjKy6YVqGJqtamFl0fd1UFvj9laqT0DoJzwuQ3RMgFbpzOaJmF4B3TSU6DlI
DoGLAd+I3EPkv1IyW1ynUcNj9FRI/aIb0HXZltrIzl4Qh4jOcibqRzVg/Kne4SqY
g17vBLLj6nHCB0ROcyC+TlXtSsl6cgSHNaCLQSr6SEXouNyssGl+T3Baw4M9gZt1
Rz6qjjPmXAi3T2pneUXTa2l7ulMNrKsgPE8eJ310Arew2yHAjsUtoduVXsVWvwo9
UoBtKqYUBDf0ss8twQlmpb0rniFfwlmEHcIPwCo30J30hGm6VZuiLu1GxoF2a1uF
vXwgYatRHx2EeQlmIwbpz46262K7fEcjIqgsc+eFIJy/EOdD6BpT8t9hCl5X8eUY
H7KQRXjdHV3egjcwgZKUBV7+K2P6z5xlVDTg5nFU2AT5Bu58dFxrTGbH0pi6Oqpl
gDsAg49fOLJ9asnQJa72/CWYi7BNznAn+Ffglk/ASaLNOnW9FbjBDoNgSMdNIC7Y
sXKpegSasgvI2xmCRc8Yy7P4dPj4hGtPDCNz5++ebKAg7nx5hri3RmLu/hDMEMoK
HeRGiQIDAQABo4IBazCCAWcwCQYDVR0TBAIwADAtBglghkgBhvhCAQ0EIBYeRWFz
eS1SU0EgR2VuZXJhdGVkIENlcnRpZmljYXRlMB0GA1UdDgQWBBQoGc32iXQMBLra
YZRDV0KPM+SKjjCB6QYDVR0jBIHhMIHegBTvOI0UUFinW02cF3L837msp1GwEKGB
uqSBtzCBtDELMAkGA1UEBhMCVVMxCzAJBgNVBAgTAkNBMRUwEwYDVQQHEwxTYW5G
cmFuY2lzY28xFTATBgNVBAoTDFBpeGdsbywgSW5jLjEQMA4GA1UECxMHVlBOLUNJ
RTEaMBgGA1UEAxMRdHVubmVsLnBpeGdsby5jb20xHDAaBgNVBCkTE0JhbGEgQ2hh
bmRyYXNla2FyYW4xHjAcBgkqhkiG9w0BCQEWD2JhbGFAcGl4Z2xvLmNvbYIJAKbb
xoOA5qB5MBMGA1UdJQQMMAoGCCsGAQUFBwMCMAsGA1UdDwQEAwIHgDANBgkqhkiG
9w0BAQUFAAOCAgEAUMUzzbZcGOOjqDZeOm7+J4cVa4Nr0KLiJJn+tEESyTsJr3pw
rB2vWSU2gCWjyrqzaKzoYr3QGFKHFyl604H93+7+rItgHBlWBcH1cVsZK1ZbtEhZ
2E2PBe2dWG7V6KMflmHxMGdmGmb8c1obUooOJIs72HaSLoVVZNY3HIiJyfsQzfvE
Gd+0Xl/PwRU2jY4w2XKzBQimbC5u8FjA1sO92qJ6YbUgnjMdD1FC4oIhb4Y4OMiE
obeDfmh/Y4n/wBZ3EqjA/ElGukFPMj1emkZI33YpLmTaYrsBhqbXOgsoSBs9C39P
gmW32MH/ucK6iEF4JIn5eaV6Enoxucjcn/H/24QCc1MJI+kU1Wrc34xchg1Rh7hh
0F1XXsj32/sbRji4WG3ThNGqa/llllgVwvSVeXX9RyG3x+KQSee9s7w1ZD4gGMe1
KdFeXCL9GcWhuvS1osDh4bmCnE7gUAGUpsUTOWiTxFkpVEFi28KNjmvtecNZ6xDE
5s+MmJVAzdfwYow1sNV33O+fPAAb6/eoR+vnN99jbSax815EAWyJKZdpo4t8FlIE
ykzvAOAnRceWXZo3My3t0HPiFjlqhCHQfdjKVM5r873VhWI+AhzflpUkkNngF9C2
OhC8pvGLxJ0zuVghovfDiq/D8V5f8ae2SoZSXm2LxBVco88LX+EXsqneabQ=
-----END CERTIFICATE-----
