Certificate:
    Data:
        Version: 3 (0x2)
        Serial Number: 544 (0x220)
    Signature Algorithm: sha1WithRSAEncryption
        Issuer: C=US, ST=CA, L=SanFrancisco, O=Pixglo, Inc., OU=VPN-CIE, CN=tunnel.pixglo.com/name=Bala Chandrasekaran/emailAddress=bala@pixglo.com
        Validity
            Not Before: Feb 14 06:36:44 2018 GMT
            Not After : Feb 12 06:36:44 2028 GMT
        Subject: C=US, ST=CA, L=SanFrancisco, O=Pixglo, Inc., OU=VPN-CIE, CN=cie543/name=Bala Chandrasekaran/emailAddress=bala@pixglo.com
        Subject Public Key Info:
            Public Key Algorithm: rsaEncryption
                Public-Key: (4096 bit)
                Modulus:
                    00:95:89:21:25:36:7a:54:57:02:47:87:49:51:9f:
                    ca:e6:5f:20:d8:79:ec:27:55:9d:92:e5:90:9c:f0:
                    7e:9a:92:bb:22:a2:c6:48:f5:3d:96:96:22:e0:7c:
                    21:99:94:05:c6:da:55:de:d7:fe:b0:83:85:ca:8e:
                    38:2a:8e:d1:f2:a4:c8:34:24:d5:d9:a7:33:f9:d4:
                    ed:52:2c:47:ca:46:d9:e6:54:74:f8:6f:fb:c6:d0:
                    bd:3f:56:50:ea:97:1f:71:4a:5c:36:60:22:e2:d0:
                    6e:3b:ba:c5:5e:a8:09:29:14:cb:80:00:27:13:e5:
                    e1:66:27:ad:2f:41:b4:5c:84:78:77:22:92:54:ad:
                    58:de:c5:8f:ae:ac:65:60:5d:b6:c4:fd:28:26:b5:
                    d8:29:50:20:da:2d:2c:8a:b5:d1:8e:81:12:b2:38:
                    67:36:63:7e:8e:8b:23:7e:19:f6:c8:0e:bb:0f:5f:
                    2e:df:c4:67:1c:89:0f:61:2b:55:16:2f:e0:5b:88:
                    b8:ec:e8:b3:e2:ce:86:0b:af:fb:78:a3:23:cf:cc:
                    a5:d4:26:d1:5b:dc:bc:83:0a:5e:81:e0:a3:aa:8d:
                    df:3f:4d:81:94:f1:f9:4c:e7:33:f0:65:5c:c1:7a:
                    f5:7b:aa:62:6f:4e:24:f1:64:b0:71:60:36:83:fc:
                    47:7e:e9:8a:b4:9d:a6:b9:64:22:c1:d2:0e:f8:94:
                    95:b6:06:df:ba:77:0a:4d:d2:b5:b9:a4:fd:1e:1d:
                    3b:0b:d3:b1:94:21:ed:89:87:c9:72:3f:a4:e2:08:
                    e8:a4:31:88:3a:c4:87:7c:e0:5c:f7:65:f4:8b:46:
                    9e:52:06:c6:8a:d7:1f:bb:5e:7c:4d:d8:2d:54:67:
                    23:d3:8b:76:26:71:e5:22:93:71:02:65:00:36:35:
                    fc:81:eb:4f:95:b9:ea:4a:5a:84:b7:b0:f8:05:f4:
                    4a:6a:04:7c:a4:7c:00:50:da:3b:4a:12:fc:68:35:
                    1b:30:40:47:33:f9:7c:13:a8:65:4a:cd:5a:2a:fb:
                    c5:73:bc:f6:07:eb:64:41:60:ce:77:72:4d:14:d6:
                    b7:7b:45:cc:09:1c:24:f2:c1:c4:94:fd:e0:71:b2:
                    13:60:fd:9e:74:4d:6f:be:d7:71:77:0e:08:4f:1d:
                    05:71:9f:ae:85:80:4f:46:b2:bd:69:7e:fd:8d:eb:
                    fa:10:15:7e:13:6d:51:b7:ca:2a:46:c4:37:13:e9:
                    66:c8:a0:ad:5e:59:f0:d7:e6:7e:1b:a9:a0:5a:c2:
                    4e:26:c3:f3:4a:60:70:e4:95:f3:26:0a:52:44:2e:
                    26:a3:ea:5b:52:91:b6:5e:eb:15:0e:8b:f1:ab:cf:
                    6c:12:3d
                Exponent: 65537 (0x10001)
        X509v3 extensions:
            X509v3 Basic Constraints: 
                CA:FALSE
            Netscape Comment: 
                Easy-RSA Generated Certificate
            X509v3 Subject Key Identifier: 
                04:CD:84:C3:E5:5A:53:3C:5E:53:A0:CF:54:53:B3:BA:BA:1F:23:4D
            X509v3 Authority Key Identifier: 
                keyid:EF:38:8D:14:50:58:A7:5B:4D:9C:17:72:FC:DF:B9:AC:A7:51:B0:10
                DirName:/C=US/ST=CA/L=SanFrancisco/O=Pixglo, Inc./OU=VPN-CIE/CN=tunnel.pixglo.com/name=Bala Chandrasekaran/emailAddress=bala@pixglo.com
                serial:A6:DB:C6:83:80:E6:A0:79

            X509v3 Extended Key Usage: 
                TLS Web Client Authentication
            X509v3 Key Usage: 
                Digital Signature
    Signature Algorithm: sha1WithRSAEncryption
         15:be:46:8a:05:e9:23:bf:fc:c8:25:e3:99:dc:69:73:e8:58:
         5b:4c:54:92:c1:65:ee:0d:95:de:d5:31:c8:e1:ea:c3:c4:03:
         7b:91:de:47:ea:2a:b7:48:0b:82:a3:0f:22:9b:ac:c2:e7:2d:
         83:a2:f8:b1:70:bf:26:77:bd:46:82:41:97:d1:21:b8:e2:2d:
         f8:4c:17:6b:1a:7a:17:8e:e2:a0:7c:1e:6c:7a:4d:f1:de:d3:
         7b:b1:f0:60:d9:52:57:05:81:6e:89:69:da:61:ff:8b:e0:82:
         3a:ae:57:a8:bd:02:8d:1d:0b:f7:c6:7b:95:0f:0c:94:89:32:
         e0:88:6b:54:95:09:d4:da:66:e5:1f:67:ed:24:e8:96:db:f5:
         bd:51:c8:29:b0:ce:cd:f1:25:69:d0:45:6f:01:c3:01:67:df:
         82:46:e2:7d:c7:eb:45:19:6b:96:77:b1:4f:e9:82:95:5c:00:
         21:d7:b6:96:dd:c3:e3:9e:fb:ba:98:2e:2e:eb:a2:99:80:6a:
         e2:57:66:70:d0:0b:42:7f:08:8b:49:ae:69:1c:39:88:a9:95:
         72:82:f3:21:2e:c8:b0:7b:52:f7:c2:e4:75:bc:5d:6d:9f:b4:
         ad:6c:b6:fe:b3:0d:c2:b5:91:9f:b7:de:0a:01:ff:ff:8c:6a:
         45:ad:c6:3e:46:70:37:e5:55:22:5b:35:25:0e:44:b9:15:c4:
         7d:24:aa:53:84:dc:50:ac:8a:9a:22:19:6c:f6:c1:64:89:9d:
         5c:a0:d4:53:46:01:d9:18:83:cf:f8:8c:73:f8:ba:ea:cf:42:
         0d:db:19:76:1d:43:08:90:53:56:e2:de:77:97:92:c5:fc:d7:
         62:37:88:e2:1f:9d:61:ee:87:df:9b:9d:03:4b:b6:1c:9f:3c:
         04:0c:c9:5d:69:73:21:97:36:32:ce:ae:0c:88:aa:9d:2d:2c:
         b4:14:bd:22:22:46:ee:99:8a:4c:b0:4f:21:71:57:a1:73:de:
         49:23:85:92:a2:e7:a7:76:a3:a4:5c:cf:b1:09:6e:3c:16:0e:
         27:af:5f:34:5e:ae:0e:22:d4:3e:9f:8e:dd:d9:04:46:df:a2:
         a4:a0:8e:95:b6:89:90:07:eb:fb:f6:0e:9d:a8:36:63:f3:a4:
         39:7a:ed:fb:40:0f:aa:e5:8d:36:b3:85:f0:c0:bb:23:a7:ce:
         9b:04:0a:b4:4f:09:22:5e:9b:20:9b:f5:a6:f1:b9:42:fd:b6:
         a6:11:9f:da:50:61:77:9c:ad:41:b5:1d:fa:0d:64:a0:1b:52:
         aa:0c:fa:73:17:02:e7:dd:0f:80:c2:48:9c:fd:9d:83:40:fc:
         1c:60:45:b5:5b:ff:a2:b3
-----BEGIN CERTIFICATE-----
MIIHSDCCBTCgAwIBAgICAiAwDQYJKoZIhvcNAQEFBQAwgbQxCzAJBgNVBAYTAlVT
MQswCQYDVQQIEwJDQTEVMBMGA1UEBxMMU2FuRnJhbmNpc2NvMRUwEwYDVQQKEwxQ
aXhnbG8sIEluYy4xEDAOBgNVBAsTB1ZQTi1DSUUxGjAYBgNVBAMTEXR1bm5lbC5w
aXhnbG8uY29tMRwwGgYDVQQpExNCYWxhIENoYW5kcmFzZWthcmFuMR4wHAYJKoZI
hvcNAQkBFg9iYWxhQHBpeGdsby5jb20wHhcNMTgwMjE0MDYzNjQ0WhcNMjgwMjEy
MDYzNjQ0WjCBqTELMAkGA1UEBhMCVVMxCzAJBgNVBAgTAkNBMRUwEwYDVQQHEwxT
YW5GcmFuY2lzY28xFTATBgNVBAoTDFBpeGdsbywgSW5jLjEQMA4GA1UECxMHVlBO
LUNJRTEPMA0GA1UEAxMGY2llNTQzMRwwGgYDVQQpExNCYWxhIENoYW5kcmFzZWth
cmFuMR4wHAYJKoZIhvcNAQkBFg9iYWxhQHBpeGdsby5jb20wggIiMA0GCSqGSIb3
DQEBAQUAA4ICDwAwggIKAoICAQCViSElNnpUVwJHh0lRn8rmXyDYeewnVZ2S5ZCc
8H6akrsiosZI9T2WliLgfCGZlAXG2lXe1/6wg4XKjjgqjtHypMg0JNXZpzP51O1S
LEfKRtnmVHT4b/vG0L0/VlDqlx9xSlw2YCLi0G47usVeqAkpFMuAACcT5eFmJ60v
QbRchHh3IpJUrVjexY+urGVgXbbE/SgmtdgpUCDaLSyKtdGOgRKyOGc2Y36OiyN+
GfbIDrsPXy7fxGcciQ9hK1UWL+BbiLjs6LPizoYLr/t4oyPPzKXUJtFb3LyDCl6B
4KOqjd8/TYGU8flM5zPwZVzBevV7qmJvTiTxZLBxYDaD/Ed+6Yq0naa5ZCLB0g74
lJW2Bt+6dwpN0rW5pP0eHTsL07GUIe2Jh8lyP6TiCOikMYg6xId84Fz3ZfSLRp5S
BsaK1x+7XnxN2C1UZyPTi3YmceUik3ECZQA2NfyB60+VuepKWoS3sPgF9EpqBHyk
fABQ2jtKEvxoNRswQEcz+XwTqGVKzVoq+8VzvPYH62RBYM53ck0U1rd7RcwJHCTy
wcSU/eBxshNg/Z50TW++13F3DghPHQVxn66FgE9Gsr1pfv2N6/oQFX4TbVG3yipG
xDcT6WbIoK1eWfDX5n4bqaBawk4mw/NKYHDklfMmClJELiaj6ltSkbZe6xUOi/Gr
z2wSPQIDAQABo4IBazCCAWcwCQYDVR0TBAIwADAtBglghkgBhvhCAQ0EIBYeRWFz
eS1SU0EgR2VuZXJhdGVkIENlcnRpZmljYXRlMB0GA1UdDgQWBBQEzYTD5VpTPF5T
oM9UU7O6uh8jTTCB6QYDVR0jBIHhMIHegBTvOI0UUFinW02cF3L837msp1GwEKGB
uqSBtzCBtDELMAkGA1UEBhMCVVMxCzAJBgNVBAgTAkNBMRUwEwYDVQQHEwxTYW5G
cmFuY2lzY28xFTATBgNVBAoTDFBpeGdsbywgSW5jLjEQMA4GA1UECxMHVlBOLUNJ
RTEaMBgGA1UEAxMRdHVubmVsLnBpeGdsby5jb20xHDAaBgNVBCkTE0JhbGEgQ2hh
bmRyYXNla2FyYW4xHjAcBgkqhkiG9w0BCQEWD2JhbGFAcGl4Z2xvLmNvbYIJAKbb
xoOA5qB5MBMGA1UdJQQMMAoGCCsGAQUFBwMCMAsGA1UdDwQEAwIHgDANBgkqhkiG
9w0BAQUFAAOCAgEAFb5GigXpI7/8yCXjmdxpc+hYW0xUksFl7g2V3tUxyOHqw8QD
e5HeR+oqt0gLgqMPIpuswuctg6L4sXC/Jne9RoJBl9EhuOIt+EwXaxp6F47ioHwe
bHpN8d7Te7HwYNlSVwWBbolp2mH/i+CCOq5XqL0CjR0L98Z7lQ8MlIky4IhrVJUJ
1Npm5R9n7SToltv1vVHIKbDOzfEladBFbwHDAWffgkbifcfrRRlrlnexT+mClVwA
Ide2lt3D4577upguLuuimYBq4ldmcNALQn8Ii0muaRw5iKmVcoLzIS7IsHtS98Lk
dbxdbZ+0rWy2/rMNwrWRn7feCgH//4xqRa3GPkZwN+VVIls1JQ5EuRXEfSSqU4Tc
UKyKmiIZbPbBZImdXKDUU0YB2RiDz/iMc/i66s9CDdsZdh1DCJBTVuLed5eSxfzX
YjeI4h+dYe6H35udA0u2HJ88BAzJXWlzIZc2Ms6uDIiqnS0stBS9IiJG7pmKTLBP
IXFXoXPeSSOFkqLnp3ajpFzPsQluPBYOJ69fNF6uDiLUPp+O3dkERt+ipKCOlbaJ
kAfr+/YOnag2Y/OkOXrt+0APquWNNrOF8MC7I6fOmwQKtE8JIl6bIJv1pvG5Qv22
phGf2lBhd5ytQbUd+g1koBtSqgz6cxcC590PgMJInP2dg0D8HGBFtVv/orM=
-----END CERTIFICATE-----
