Certificate:
    Data:
        Version: 3 (0x2)
        Serial Number: 546 (0x222)
    Signature Algorithm: sha1WithRSAEncryption
        Issuer: C=US, ST=CA, L=SanFrancisco, O=Pixglo, Inc., OU=VPN-CIE, CN=tunnel.pixglo.com/name=Bala Chandrasekaran/emailAddress=bala@pixglo.com
        Validity
            Not Before: Feb 14 06:36:47 2018 GMT
            Not After : Feb 12 06:36:47 2028 GMT
        Subject: C=US, ST=CA, L=SanFrancisco, O=Pixglo, Inc., OU=VPN-CIE, CN=cie545/name=Bala Chandrasekaran/emailAddress=bala@pixglo.com
        Subject Public Key Info:
            Public Key Algorithm: rsaEncryption
                Public-Key: (4096 bit)
                Modulus:
                    00:c2:a3:f7:69:d9:b3:be:2d:89:14:f9:79:9f:77:
                    ce:3a:c2:4c:44:a0:77:e1:df:a8:67:46:04:48:30:
                    c0:15:bc:24:ac:9c:b9:09:33:af:b9:f2:af:fc:30:
                    97:d7:af:c4:0e:9d:6a:0b:82:08:12:5f:f9:e7:5b:
                    f3:2a:43:42:23:19:33:36:5b:e0:60:f8:4d:0c:2d:
                    89:9d:e0:ac:52:82:84:39:74:69:a0:4d:28:85:75:
                    e1:52:20:c1:7a:1f:6c:b4:9a:16:9e:64:ab:d2:ba:
                    1f:cc:2b:51:ae:46:40:07:76:89:41:b0:a4:4a:22:
                    69:db:a7:1e:f7:90:f7:c6:b0:00:22:07:8e:64:46:
                    cb:25:34:f0:79:cf:22:52:67:36:28:ee:19:27:89:
                    73:f7:c7:b7:01:51:d9:91:5c:8e:d5:71:68:f6:19:
                    1a:10:c0:38:11:55:26:72:40:bb:8a:f2:f5:21:66:
                    02:6a:44:4e:7d:d1:9d:7b:74:f0:ac:ea:5e:ec:df:
                    70:c0:49:5f:5d:31:2e:95:90:f8:02:d0:6d:f1:db:
                    4e:db:28:7d:ea:5b:9a:19:f0:86:a3:23:69:1d:7b:
                    31:fb:18:f1:22:22:74:22:f8:47:fd:66:91:4d:8b:
                    5d:d9:f0:61:74:ce:bd:58:29:b6:97:18:4b:dd:26:
                    0d:c9:91:ed:57:ae:b6:f1:7f:55:5d:c1:a3:7a:ab:
                    f6:d6:b1:00:1c:fa:89:06:14:71:08:91:99:29:17:
                    05:4d:df:37:4d:f6:29:ac:c1:ec:b8:8f:ab:e2:b0:
                    2f:36:89:ac:4d:2c:88:ea:15:94:1c:45:bc:b9:9c:
                    ec:db:c6:0b:f8:c4:f4:91:1e:ac:42:28:97:11:79:
                    c9:7c:8b:f2:d4:c2:2f:9d:d3:94:ba:08:b5:f5:63:
                    fa:61:79:94:65:32:4d:96:4c:3e:7f:46:f3:71:57:
                    7e:8a:e3:23:ae:06:b7:81:bb:53:b8:f4:64:98:55:
                    fc:6e:7c:99:07:84:28:6d:f1:e7:14:cb:c2:41:6f:
                    7d:31:2b:a3:b6:c8:f7:63:62:be:0a:57:53:05:5f:
                    ae:db:f1:d0:e7:9e:25:7e:bd:19:c6:0e:e8:2e:31:
                    1f:6c:ac:00:e2:8a:20:23:e3:4a:49:bf:e2:a1:08:
                    74:80:79:3e:35:42:5d:d3:c4:73:11:a2:64:4e:2d:
                    f9:fb:05:f3:e0:02:cc:b9:f2:94:0e:af:d6:d9:62:
                    31:4e:b5:8b:db:37:9a:d9:f9:d5:c2:b3:92:df:51:
                    f9:d3:f6:ec:75:9d:54:8c:63:e6:a6:59:6a:32:b9:
                    49:f9:91:19:db:0b:84:3f:1d:6a:c7:29:45:01:76:
                    4a:0d:f9
                Exponent: 65537 (0x10001)
        X509v3 extensions:
            X509v3 Basic Constraints: 
                CA:FALSE
            Netscape Comment: 
                Easy-RSA Generated Certificate
            X509v3 Subject Key Identifier: 
                96:FC:1A:7A:14:10:F1:D6:78:86:85:1C:02:EB:60:BE:AE:68:21:D0
            X509v3 Authority Key Identifier: 
                keyid:EF:38:8D:14:50:58:A7:5B:4D:9C:17:72:FC:DF:B9:AC:A7:51:B0:10
                DirName:/C=US/ST=CA/L=SanFrancisco/O=Pixglo, Inc./OU=VPN-CIE/CN=tunnel.pixglo.com/name=Bala Chandrasekaran/emailAddress=bala@pixglo.com
                serial:A6:DB:C6:83:80:E6:A0:79

            X509v3 Extended Key Usage: 
                TLS Web Client Authentication
            X509v3 Key Usage: 
                Digital Signature
    Signature Algorithm: sha1WithRSAEncryption
         46:46:2e:56:e7:d3:13:07:8b:79:7b:68:29:f4:56:7c:7a:73:
         7c:d5:1a:1b:6a:3c:15:47:df:df:7b:7e:28:cd:13:54:c2:74:
         ec:3c:a7:e0:28:f9:f5:4b:0d:0e:d3:85:cd:86:19:26:02:3f:
         95:53:62:21:0e:aa:dc:59:ef:90:b1:50:ee:a1:40:aa:75:83:
         c0:e2:c8:cb:9c:22:de:86:aa:1c:09:ce:bb:f5:46:c1:48:4d:
         46:5a:3c:39:7c:ec:30:76:72:23:a1:ee:4d:51:6d:bd:3c:d4:
         61:45:fa:43:a1:04:9e:d2:48:5e:4c:58:6f:e5:c8:34:27:ff:
         fd:fc:2a:65:68:ec:9e:09:2a:86:01:ef:79:ee:52:95:0b:d0:
         05:f7:8c:9c:f5:17:40:d5:94:05:fd:ac:18:a2:3f:f9:8c:e2:
         d3:c0:9d:97:3e:b2:37:3c:90:00:54:5f:3b:4d:fe:a9:41:5c:
         30:3a:a0:23:03:79:d9:13:17:8a:00:ec:cf:c1:ad:88:f2:a2:
         8b:63:80:5f:08:48:64:01:1c:9f:19:15:a4:69:8a:f3:c3:de:
         9e:83:3f:5a:05:74:68:a1:d0:e5:33:4d:06:df:62:1a:2c:59:
         db:ab:44:ee:35:49:a7:5e:8b:11:03:d0:94:f4:6f:5d:1c:61:
         2e:c4:bb:49:15:23:bb:ff:db:b3:21:f0:17:a5:f7:17:13:d0:
         d9:d2:5b:aa:bc:dc:08:93:7e:e8:aa:3b:25:9c:2c:95:10:cb:
         fc:fa:52:26:aa:2a:04:43:71:4f:c3:6f:40:67:c7:d4:bf:44:
         10:11:11:dd:cb:1a:a4:06:cd:68:c5:90:ba:f7:58:07:18:8b:
         96:ae:85:7e:c3:fa:2a:97:a2:d7:22:05:42:37:e9:c1:09:92:
         b1:c4:c6:94:3b:15:e8:b5:60:fa:63:78:29:bd:cc:ef:f4:aa:
         26:5d:7a:a4:6b:2e:bd:60:4f:33:b6:e8:bd:e0:d5:bb:2a:cd:
         e9:00:ff:42:c0:e9:f6:9a:62:3b:56:d9:5f:44:90:e6:f1:86:
         64:4d:b6:8b:1e:c8:9c:6d:aa:9e:73:28:29:6f:92:69:7c:9c:
         97:bd:3e:d8:c8:89:40:bb:50:e3:64:cb:d8:b2:f2:9a:4d:8c:
         55:fd:3a:e2:d4:c7:bd:7e:a8:cc:3f:b2:93:60:17:82:61:a1:
         c8:43:c1:ec:e9:2d:d1:e6:09:56:64:d4:f4:5a:88:f7:2c:ab:
         67:3d:3c:13:ec:87:a3:c6:ba:fe:db:d9:71:61:5e:5e:00:6e:
         35:53:3b:c2:82:62:ab:c6:f0:5d:55:c2:ec:70:13:09:6f:02:
         70:af:3e:cc:a6:8e:7c:8d
-----BEGIN CERTIFICATE-----
MIIHSDCCBTCgAwIBAgICAiIwDQYJKoZIhvcNAQEFBQAwgbQxCzAJBgNVBAYTAlVT
MQswCQYDVQQIEwJDQTEVMBMGA1UEBxMMU2FuRnJhbmNpc2NvMRUwEwYDVQQKEwxQ
aXhnbG8sIEluYy4xEDAOBgNVBAsTB1ZQTi1DSUUxGjAYBgNVBAMTEXR1bm5lbC5w
aXhnbG8uY29tMRwwGgYDVQQpExNCYWxhIENoYW5kcmFzZWthcmFuMR4wHAYJKoZI
hvcNAQkBFg9iYWxhQHBpeGdsby5jb20wHhcNMTgwMjE0MDYzNjQ3WhcNMjgwMjEy
MDYzNjQ3WjCBqTELMAkGA1UEBhMCVVMxCzAJBgNVBAgTAkNBMRUwEwYDVQQHEwxT
YW5GcmFuY2lzY28xFTATBgNVBAoTDFBpeGdsbywgSW5jLjEQMA4GA1UECxMHVlBO
LUNJRTEPMA0GA1UEAxMGY2llNTQ1MRwwGgYDVQQpExNCYWxhIENoYW5kcmFzZWth
cmFuMR4wHAYJKoZIhvcNAQkBFg9iYWxhQHBpeGdsby5jb20wggIiMA0GCSqGSIb3
DQEBAQUAA4ICDwAwggIKAoICAQDCo/dp2bO+LYkU+Xmfd846wkxEoHfh36hnRgRI
MMAVvCSsnLkJM6+58q/8MJfXr8QOnWoLgggSX/nnW/MqQ0IjGTM2W+Bg+E0MLYmd
4KxSgoQ5dGmgTSiFdeFSIMF6H2y0mhaeZKvSuh/MK1GuRkAHdolBsKRKImnbpx73
kPfGsAAiB45kRsslNPB5zyJSZzYo7hkniXP3x7cBUdmRXI7VcWj2GRoQwDgRVSZy
QLuK8vUhZgJqRE590Z17dPCs6l7s33DASV9dMS6VkPgC0G3x207bKH3qW5oZ8Iaj
I2kdezH7GPEiInQi+Ef9ZpFNi13Z8GF0zr1YKbaXGEvdJg3Jke1Xrrbxf1VdwaN6
q/bWsQAc+okGFHEIkZkpFwVN3zdN9imswey4j6visC82iaxNLIjqFZQcRby5nOzb
xgv4xPSRHqxCKJcRecl8i/LUwi+d05S6CLX1Y/pheZRlMk2WTD5/RvNxV36K4yOu
BreBu1O49GSYVfxufJkHhCht8ecUy8JBb30xK6O2yPdjYr4KV1MFX67b8dDnniV+
vRnGDuguMR9srADiiiAj40pJv+KhCHSAeT41Ql3TxHMRomROLfn7BfPgAsy58pQO
r9bZYjFOtYvbN5rZ+dXCs5LfUfnT9ux1nVSMY+amWWoyuUn5kRnbC4Q/HWrHKUUB
dkoN+QIDAQABo4IBazCCAWcwCQYDVR0TBAIwADAtBglghkgBhvhCAQ0EIBYeRWFz
eS1SU0EgR2VuZXJhdGVkIENlcnRpZmljYXRlMB0GA1UdDgQWBBSW/Bp6FBDx1niG
hRwC62C+rmgh0DCB6QYDVR0jBIHhMIHegBTvOI0UUFinW02cF3L837msp1GwEKGB
uqSBtzCBtDELMAkGA1UEBhMCVVMxCzAJBgNVBAgTAkNBMRUwEwYDVQQHEwxTYW5G
cmFuY2lzY28xFTATBgNVBAoTDFBpeGdsbywgSW5jLjEQMA4GA1UECxMHVlBOLUNJ
RTEaMBgGA1UEAxMRdHVubmVsLnBpeGdsby5jb20xHDAaBgNVBCkTE0JhbGEgQ2hh
bmRyYXNla2FyYW4xHjAcBgkqhkiG9w0BCQEWD2JhbGFAcGl4Z2xvLmNvbYIJAKbb
xoOA5qB5MBMGA1UdJQQMMAoGCCsGAQUFBwMCMAsGA1UdDwQEAwIHgDANBgkqhkiG
9w0BAQUFAAOCAgEARkYuVufTEweLeXtoKfRWfHpzfNUaG2o8FUff33t+KM0TVMJ0
7Dyn4Cj59UsNDtOFzYYZJgI/lVNiIQ6q3FnvkLFQ7qFAqnWDwOLIy5wi3oaqHAnO
u/VGwUhNRlo8OXzsMHZyI6HuTVFtvTzUYUX6Q6EEntJIXkxYb+XINCf//fwqZWjs
ngkqhgHvee5SlQvQBfeMnPUXQNWUBf2sGKI/+Yzi08Cdlz6yNzyQAFRfO03+qUFc
MDqgIwN52RMXigDsz8GtiPKii2OAXwhIZAEcnxkVpGmK88PenoM/WgV0aKHQ5TNN
Bt9iGixZ26tE7jVJp16LEQPQlPRvXRxhLsS7SRUju//bsyHwF6X3FxPQ2dJbqrzc
CJN+6Ko7JZwslRDL/PpSJqoqBENxT8NvQGfH1L9EEBER3csapAbNaMWQuvdYBxiL
lq6FfsP6Kpei1yIFQjfpwQmSscTGlDsV6LVg+mN4Kb3M7/SqJl16pGsuvWBPM7bo
veDVuyrN6QD/QsDp9ppiO1bZX0SQ5vGGZE22ix7InG2qnnMoKW+SaXycl70+2MiJ
QLtQ42TL2LLymk2MVf064tTHvX6ozD+yk2AXgmGhyEPB7Okt0eYJVmTU9FqI9yyr
Zz08E+yHo8a6/tvZcWFeXgBuNVM7woJiq8bwXVXC7HATCW8CcK8+zKaOfI0=
-----END CERTIFICATE-----
