Certificate:
    Data:
        Version: 3 (0x2)
        Serial Number: 549 (0x225)
    Signature Algorithm: sha1WithRSAEncryption
        Issuer: C=US, ST=CA, L=SanFrancisco, O=Pixglo, Inc., OU=VPN-CIE, CN=tunnel.pixglo.com/name=Bala Chandrasekaran/emailAddress=bala@pixglo.com
        Validity
            Not Before: Feb 14 06:36:50 2018 GMT
            Not After : Feb 12 06:36:50 2028 GMT
        Subject: C=US, ST=CA, L=SanFrancisco, O=Pixglo, Inc., OU=VPN-CIE, CN=cie548/name=Bala Chandrasekaran/emailAddress=bala@pixglo.com
        Subject Public Key Info:
            Public Key Algorithm: rsaEncryption
                Public-Key: (4096 bit)
                Modulus:
                    00:d4:46:94:e1:21:83:cd:f1:72:8c:a2:4f:b0:08:
                    e8:b9:95:a9:3a:0b:a0:e6:ed:32:0c:8b:90:9d:b7:
                    d4:ce:35:c3:c0:e9:61:70:92:92:36:70:cd:de:bf:
                    b8:2c:4c:74:28:af:ef:2b:07:36:0d:8a:85:b9:52:
                    89:bb:01:7c:a9:d7:f2:49:03:c1:1c:11:34:e2:17:
                    a2:43:49:f6:a7:31:f8:91:49:5e:f8:11:29:09:e8:
                    df:9e:41:07:f0:06:f4:ee:69:92:bf:c8:26:f8:d4:
                    00:96:68:26:f8:24:64:12:cb:5b:fb:17:d8:cf:df:
                    08:00:90:34:54:5f:9b:73:c6:d7:5e:37:72:8f:57:
                    82:e8:a8:b8:04:33:e4:f9:7d:65:47:6a:16:fa:8c:
                    dd:75:be:8f:b3:c0:4f:69:f1:c3:5a:78:e3:cb:bf:
                    26:a5:be:c9:90:81:7b:6d:a6:28:82:5f:c0:5f:49:
                    e5:11:ae:3d:af:d6:99:c6:6c:3c:00:7f:29:5d:2c:
                    49:2d:5d:c4:80:c8:ca:54:f2:b7:a8:7e:e6:c0:39:
                    c1:72:23:7a:9c:f7:3a:0a:37:3b:16:d0:48:52:ad:
                    0b:a7:66:76:d2:05:92:69:55:50:9a:c9:1f:e8:df:
                    87:74:04:e6:07:dd:2e:e1:30:39:a2:14:eb:16:fa:
                    08:31:e2:bc:ee:94:6f:2a:eb:f5:b3:8b:12:6a:22:
                    a8:9f:8b:bf:dc:83:55:91:fc:3f:11:a5:f5:7c:a0:
                    26:e9:77:fb:d0:6e:c5:03:c9:89:36:af:9f:90:dc:
                    08:ab:f7:2b:bb:f8:56:ce:5f:81:b7:91:06:00:c8:
                    3f:a8:fc:18:72:b3:e6:db:8b:da:1f:0a:15:f6:57:
                    6c:35:ce:f8:47:57:cd:76:d7:ff:8d:0c:a5:50:16:
                    65:23:a8:2b:e0:58:0c:a8:3a:3f:ad:67:66:4e:27:
                    2b:94:14:6a:70:c7:b3:fd:f8:d0:f2:32:14:1e:4d:
                    7e:ee:9a:46:e7:36:99:21:46:63:53:48:82:c1:4d:
                    44:fe:eb:d1:a9:44:79:49:c4:fe:67:77:d0:8c:90:
                    34:b7:f0:94:35:7c:b9:91:e6:0d:eb:fb:f7:e4:69:
                    92:2a:f1:f3:34:08:2c:98:26:fa:f6:8b:a2:6c:54:
                    e1:6e:43:f1:89:c4:ff:10:a4:f7:ee:dc:09:af:7e:
                    40:3e:a7:7d:b5:32:a5:5c:a7:24:ef:1b:9d:76:63:
                    2b:1e:7f:3c:8d:9a:b5:94:8c:a9:fa:a7:a4:98:48:
                    d4:4a:59:e0:8e:26:83:6c:2c:bb:0b:63:7f:5a:e0:
                    15:8d:e3:f3:e4:e5:d9:c5:da:b1:3a:38:3b:03:55:
                    d0:1b:a1
                Exponent: 65537 (0x10001)
        X509v3 extensions:
            X509v3 Basic Constraints: 
                CA:FALSE
            Netscape Comment: 
                Easy-RSA Generated Certificate
            X509v3 Subject Key Identifier: 
                FB:A9:EE:51:60:42:0B:29:D0:9B:91:B1:F3:9C:FE:E6:68:3D:60:7A
            X509v3 Authority Key Identifier: 
                keyid:EF:38:8D:14:50:58:A7:5B:4D:9C:17:72:FC:DF:B9:AC:A7:51:B0:10
                DirName:/C=US/ST=CA/L=SanFrancisco/O=Pixglo, Inc./OU=VPN-CIE/CN=tunnel.pixglo.com/name=Bala Chandrasekaran/emailAddress=bala@pixglo.com
                serial:A6:DB:C6:83:80:E6:A0:79

            X509v3 Extended Key Usage: 
                TLS Web Client Authentication
            X509v3 Key Usage: 
                Digital Signature
    Signature Algorithm: sha1WithRSAEncryption
         3f:34:61:95:19:f2:82:44:ea:b9:3e:65:55:e7:22:4c:10:ab:
         a6:56:02:1e:49:60:30:0a:a3:aa:3a:3e:e5:36:93:04:a2:82:
         4a:cf:c8:d0:f8:4c:89:27:51:e1:20:1d:9e:4f:e5:58:5c:9f:
         94:51:ef:cc:53:27:02:49:2a:fc:0c:47:51:55:9d:ad:a1:92:
         a8:b8:7f:73:08:3e:a7:e8:8f:b6:80:d1:01:8c:e6:f6:12:e8:
         90:57:b5:c1:6d:73:d5:0e:76:ea:45:4c:a1:d2:c1:f7:2f:17:
         0a:db:05:f1:18:01:41:f7:cf:95:e8:5a:d1:c6:2f:4d:65:81:
         68:80:c9:17:b4:d9:5a:9e:36:fa:e6:81:85:1b:e9:93:bd:76:
         a4:39:8d:b5:9c:cf:0c:57:15:01:a7:01:fb:73:db:09:eb:b8:
         ee:f1:f9:76:83:98:f5:e1:e6:35:13:ec:74:49:42:9c:74:34:
         49:fd:75:7a:22:90:27:cd:10:47:ea:a8:03:f6:1d:af:ef:60:
         5b:2b:c8:eb:b0:84:dd:ee:b8:c6:b1:f1:75:0f:25:ec:55:5b:
         42:88:f6:2b:34:cc:4d:84:b7:89:92:42:7d:68:4e:e1:09:45:
         02:84:2b:fe:5d:73:52:02:f7:02:87:ce:c4:4a:fb:37:4d:05:
         6b:28:91:95:17:eb:e6:2f:d6:da:89:f6:9a:d1:d4:a8:bf:7e:
         a8:ba:46:58:3c:8e:ff:ef:55:fb:2c:b0:35:b3:00:d5:30:62:
         7e:82:a7:27:aa:da:cb:21:17:6a:a8:33:b3:f5:2f:a4:d5:ce:
         e8:92:7b:29:8c:c4:0f:77:0f:45:6d:8f:b6:aa:cc:d2:3b:fa:
         01:b2:fb:02:20:b0:c4:0c:53:90:16:ef:79:ec:3f:98:3d:3a:
         9c:a9:44:d8:38:1d:d8:bd:0e:8d:cd:d0:ed:7f:9b:d5:f5:a3:
         ba:29:51:87:b6:ac:5c:a3:2c:aa:33:59:e1:0e:f9:ef:fe:0d:
         ec:96:42:be:e4:ef:e2:3f:25:79:dd:1e:2f:42:bc:3f:fc:41:
         b1:4f:f4:93:71:9e:85:87:2b:ac:18:5c:e9:08:2b:be:5c:22:
         5b:06:2c:66:73:e3:37:3f:02:64:66:e4:1e:3e:3e:91:14:59:
         e8:0f:ce:24:8d:dc:c4:69:0e:ee:23:4f:c2:6d:21:b1:39:74:
         4b:a8:a6:e4:fc:bf:84:c8:84:ae:1b:08:27:00:e7:a7:06:9b:
         f5:de:72:88:a1:25:8b:89:5a:b5:17:ac:b8:79:8e:2a:9f:a3:
         45:39:b4:64:b2:f1:c1:6d:82:53:53:27:b2:71:41:77:72:14:
         1b:3e:aa:c0:e5:d3:03:bb
-----BEGIN CERTIFICATE-----
MIIHSDCCBTCgAwIBAgICAiUwDQYJKoZIhvcNAQEFBQAwgbQxCzAJBgNVBAYTAlVT
MQswCQYDVQQIEwJDQTEVMBMGA1UEBxMMU2FuRnJhbmNpc2NvMRUwEwYDVQQKEwxQ
aXhnbG8sIEluYy4xEDAOBgNVBAsTB1ZQTi1DSUUxGjAYBgNVBAMTEXR1bm5lbC5w
aXhnbG8uY29tMRwwGgYDVQQpExNCYWxhIENoYW5kcmFzZWthcmFuMR4wHAYJKoZI
hvcNAQkBFg9iYWxhQHBpeGdsby5jb20wHhcNMTgwMjE0MDYzNjUwWhcNMjgwMjEy
MDYzNjUwWjCBqTELMAkGA1UEBhMCVVMxCzAJBgNVBAgTAkNBMRUwEwYDVQQHEwxT
YW5GcmFuY2lzY28xFTATBgNVBAoTDFBpeGdsbywgSW5jLjEQMA4GA1UECxMHVlBO
LUNJRTEPMA0GA1UEAxMGY2llNTQ4MRwwGgYDVQQpExNCYWxhIENoYW5kcmFzZWth
cmFuMR4wHAYJKoZIhvcNAQkBFg9iYWxhQHBpeGdsby5jb20wggIiMA0GCSqGSIb3
DQEBAQUAA4ICDwAwggIKAoICAQDURpThIYPN8XKMok+wCOi5lak6C6Dm7TIMi5Cd
t9TONcPA6WFwkpI2cM3ev7gsTHQor+8rBzYNioW5Uom7AXyp1/JJA8EcETTiF6JD
SfanMfiRSV74ESkJ6N+eQQfwBvTuaZK/yCb41ACWaCb4JGQSy1v7F9jP3wgAkDRU
X5tzxtdeN3KPV4LoqLgEM+T5fWVHahb6jN11vo+zwE9p8cNaeOPLvyalvsmQgXtt
piiCX8BfSeURrj2v1pnGbDwAfyldLEktXcSAyMpU8reofubAOcFyI3qc9zoKNzsW
0EhSrQunZnbSBZJpVVCayR/o34d0BOYH3S7hMDmiFOsW+ggx4rzulG8q6/WzixJq
Iqifi7/cg1WR/D8RpfV8oCbpd/vQbsUDyYk2r5+Q3Air9yu7+FbOX4G3kQYAyD+o
/Bhys+bbi9ofChX2V2w1zvhHV8121/+NDKVQFmUjqCvgWAyoOj+tZ2ZOJyuUFGpw
x7P9+NDyMhQeTX7umkbnNpkhRmNTSILBTUT+69GpRHlJxP5nd9CMkDS38JQ1fLmR
5g3r+/fkaZIq8fM0CCyYJvr2i6JsVOFuQ/GJxP8QpPfu3AmvfkA+p321MqVcpyTv
G512YysefzyNmrWUjKn6p6SYSNRKWeCOJoNsLLsLY39a4BWN4/Pk5dnF2rE6ODsD
VdAboQIDAQABo4IBazCCAWcwCQYDVR0TBAIwADAtBglghkgBhvhCAQ0EIBYeRWFz
eS1SU0EgR2VuZXJhdGVkIENlcnRpZmljYXRlMB0GA1UdDgQWBBT7qe5RYEILKdCb
kbHznP7maD1gejCB6QYDVR0jBIHhMIHegBTvOI0UUFinW02cF3L837msp1GwEKGB
uqSBtzCBtDELMAkGA1UEBhMCVVMxCzAJBgNVBAgTAkNBMRUwEwYDVQQHEwxTYW5G
cmFuY2lzY28xFTATBgNVBAoTDFBpeGdsbywgSW5jLjEQMA4GA1UECxMHVlBOLUNJ
RTEaMBgGA1UEAxMRdHVubmVsLnBpeGdsby5jb20xHDAaBgNVBCkTE0JhbGEgQ2hh
bmRyYXNla2FyYW4xHjAcBgkqhkiG9w0BCQEWD2JhbGFAcGl4Z2xvLmNvbYIJAKbb
xoOA5qB5MBMGA1UdJQQMMAoGCCsGAQUFBwMCMAsGA1UdDwQEAwIHgDANBgkqhkiG
9w0BAQUFAAOCAgEAPzRhlRnygkTquT5lVeciTBCrplYCHklgMAqjqjo+5TaTBKKC
Ss/I0PhMiSdR4SAdnk/lWFyflFHvzFMnAkkq/AxHUVWdraGSqLh/cwg+p+iPtoDR
AYzm9hLokFe1wW1z1Q526kVModLB9y8XCtsF8RgBQffPleha0cYvTWWBaIDJF7TZ
Wp42+uaBhRvpk712pDmNtZzPDFcVAacB+3PbCeu47vH5doOY9eHmNRPsdElCnHQ0
Sf11eiKQJ80QR+qoA/Ydr+9gWyvI67CE3e64xrHxdQ8l7FVbQoj2KzTMTYS3iZJC
fWhO4QlFAoQr/l1zUgL3AofOxEr7N00FayiRlRfr5i/W2on2mtHUqL9+qLpGWDyO
/+9V+yywNbMA1TBifoKnJ6rayyEXaqgzs/UvpNXO6JJ7KYzED3cPRW2PtqrM0jv6
AbL7AiCwxAxTkBbveew/mD06nKlE2Dgd2L0Ojc3Q7X+b1fWjuilRh7asXKMsqjNZ
4Q757/4N7JZCvuTv4j8led0eL0K8P/xBsU/0k3GehYcrrBhc6QgrvlwiWwYsZnPj
Nz8CZGbkHj4+kRRZ6A/OJI3cxGkO7iNPwm0hsTl0S6im5Py/hMiErhsIJwDnpwab
9d5yiKEli4latResuHmOKp+jRTm0ZLLxwW2CU1MnsnFBd3IUGz6qwOXTA7s=
-----END CERTIFICATE-----
