Certificate:
    Data:
        Version: 3 (0x2)
        Serial Number: 552 (0x228)
    Signature Algorithm: sha1WithRSAEncryption
        Issuer: C=US, ST=CA, L=SanFrancisco, O=Pixglo, Inc., OU=VPN-CIE, CN=tunnel.pixglo.com/name=Bala Chandrasekaran/emailAddress=bala@pixglo.com
        Validity
            Not Before: Feb 14 06:36:57 2018 GMT
            Not After : Feb 12 06:36:57 2028 GMT
        Subject: C=US, ST=CA, L=SanFrancisco, O=Pixglo, Inc., OU=VPN-CIE, CN=cie551/name=Bala Chandrasekaran/emailAddress=bala@pixglo.com
        Subject Public Key Info:
            Public Key Algorithm: rsaEncryption
                Public-Key: (4096 bit)
                Modulus:
                    00:c5:7c:03:70:e3:b9:17:37:fa:71:2d:94:9e:ae:
                    58:18:b7:b1:0e:42:1b:29:84:3b:08:9d:67:47:89:
                    5b:f0:cd:e4:81:98:5c:20:62:53:f1:2c:46:fd:70:
                    4d:db:cb:a8:8b:b0:1d:4f:b1:40:6e:5c:51:a9:8b:
                    e2:3b:e4:61:d4:82:19:11:1a:86:49:3d:7c:83:50:
                    70:24:31:bc:1f:51:35:56:72:cf:55:e2:19:56:76:
                    43:ae:d8:ac:8b:26:a9:97:37:5f:1c:46:36:be:b3:
                    02:06:46:1a:40:fa:25:48:fd:ba:02:43:1b:81:7f:
                    15:21:e8:ef:cd:1a:41:05:f5:05:73:e4:0f:3b:da:
                    bf:17:d2:a7:47:0a:62:8c:d0:c9:1f:d9:cb:77:82:
                    0d:87:64:dc:8e:c6:3f:ad:d0:54:a6:e5:87:cc:43:
                    5b:dc:ce:f5:ce:e7:02:f5:c0:88:00:a9:55:2f:7c:
                    11:37:ed:b4:c6:65:2a:e1:4e:ee:37:51:6d:19:95:
                    22:0f:b5:82:62:dd:0b:22:db:0f:88:80:d5:71:ed:
                    59:4f:91:a0:e4:f8:7e:2d:d9:a9:fe:d6:ac:ee:cf:
                    5e:6a:92:28:f2:fc:e0:02:50:68:d7:ec:be:7c:41:
                    c9:e4:12:b3:c4:15:b6:71:25:a2:a1:85:f7:8b:22:
                    27:e7:e8:81:72:02:a5:b9:e9:9b:66:f4:26:e9:e9:
                    8f:c3:92:48:a4:25:23:1e:97:c4:d1:6f:c4:bb:44:
                    de:20:e0:a3:74:fb:1c:b2:5e:c3:97:8c:65:36:d9:
                    51:a2:08:82:ed:c0:67:e8:0d:ef:bc:4d:4f:77:dc:
                    e4:dc:ee:1c:ed:70:ba:35:d8:84:b5:1e:39:4f:67:
                    9c:90:90:53:b0:e8:3a:c9:0a:f4:79:31:fe:aa:e5:
                    38:45:0e:60:62:f2:43:c8:e9:8c:c8:86:65:96:86:
                    40:76:6e:a2:5d:6a:62:96:4e:1f:a6:90:94:2f:f3:
                    ac:8b:bf:9f:84:d3:31:ff:27:a9:68:36:e8:6d:b8:
                    b0:80:b3:87:ab:b6:eb:74:bc:d2:22:cc:52:e8:93:
                    cd:98:b5:ee:2f:ba:51:b0:a9:be:6d:04:21:3f:50:
                    eb:dc:01:6e:a7:8f:72:2d:48:90:f9:79:b8:77:2a:
                    cf:8a:53:26:c8:8b:c1:4c:11:06:77:d5:1f:5f:33:
                    49:16:84:66:52:d2:02:dc:d2:90:ef:a9:c0:f0:7e:
                    f2:c0:13:04:91:d1:9e:97:97:d5:b5:08:fd:8d:91:
                    a6:7a:5f:aa:bd:a4:38:cc:38:61:a6:07:f5:2f:65:
                    40:63:f5:cc:90:90:44:2d:95:f6:49:ae:43:79:b9:
                    ba:d3:73
                Exponent: 65537 (0x10001)
        X509v3 extensions:
            X509v3 Basic Constraints: 
                CA:FALSE
            Netscape Comment: 
                Easy-RSA Generated Certificate
            X509v3 Subject Key Identifier: 
                B7:BE:8D:35:6B:74:E2:53:8A:00:90:80:AE:65:42:53:C8:C3:A5:0A
            X509v3 Authority Key Identifier: 
                keyid:EF:38:8D:14:50:58:A7:5B:4D:9C:17:72:FC:DF:B9:AC:A7:51:B0:10
                DirName:/C=US/ST=CA/L=SanFrancisco/O=Pixglo, Inc./OU=VPN-CIE/CN=tunnel.pixglo.com/name=Bala Chandrasekaran/emailAddress=bala@pixglo.com
                serial:A6:DB:C6:83:80:E6:A0:79

            X509v3 Extended Key Usage: 
                TLS Web Client Authentication
            X509v3 Key Usage: 
                Digital Signature
    Signature Algorithm: sha1WithRSAEncryption
         11:03:e0:47:cd:fa:4f:49:42:4c:75:13:65:23:25:f6:43:b8:
         2f:0d:64:45:05:0b:79:62:34:88:d7:43:f6:4c:99:93:ad:b9:
         f0:00:92:26:8b:8f:9d:2f:b0:17:53:4d:60:b1:54:a2:fc:89:
         d0:cc:a0:6d:31:2f:c7:47:38:b3:d8:7a:3d:f2:57:33:1c:4b:
         77:52:52:58:9c:4f:bc:96:7b:ff:18:6a:04:2a:3b:71:22:08:
         e6:4b:5b:fc:fc:f5:ea:f9:14:8a:6b:dc:df:fa:e9:43:4b:52:
         b3:5f:94:59:c8:13:62:a2:77:48:90:69:eb:bc:fe:a8:42:c5:
         11:ba:1c:67:d7:a3:ce:33:3d:28:f6:c4:3e:a8:4c:79:d2:b7:
         ab:a9:40:24:ee:12:37:5f:af:9e:53:0f:c7:2c:2b:56:01:61:
         3c:05:bf:b5:bd:6f:af:08:bf:f1:7e:46:15:ea:96:ac:70:6a:
         eb:53:f6:55:bd:bf:d9:6f:e4:ce:f0:10:01:df:ac:79:16:d2:
         7c:35:d1:59:56:d3:c6:48:35:84:7e:37:94:eb:18:fa:dd:41:
         f9:92:8b:7d:e5:b7:95:41:55:9e:64:61:d9:30:f6:ab:05:e5:
         d4:52:be:b2:c3:c1:7f:63:72:d7:da:15:d2:65:01:d3:e9:2b:
         3d:57:1a:1c:3e:f7:93:20:b5:87:b8:de:9d:73:f2:aa:f3:ec:
         6f:84:45:77:9d:4f:5c:d9:2c:a9:ab:0e:15:1e:c4:da:aa:79:
         78:4f:90:fe:de:68:23:ed:77:93:30:c1:71:96:8f:20:a1:8d:
         d2:55:da:68:89:e8:33:c2:8b:92:65:a4:d9:e8:e4:f6:a2:f2:
         19:1f:89:61:7b:d4:34:41:09:4d:d1:13:a3:0b:ca:f9:e2:17:
         ed:21:0b:8e:c1:a9:97:ac:be:cf:b2:bd:b1:d2:af:d5:63:14:
         76:00:0b:3e:d8:3a:dc:f0:27:76:b2:3b:1d:70:7a:6c:38:32:
         cc:66:3a:33:e8:61:b2:a6:a8:78:17:ba:ba:60:9f:6c:7e:4e:
         35:af:fe:8c:cd:e2:27:73:5b:c8:c3:d6:54:c6:b1:10:90:f3:
         9b:23:a0:35:9f:30:d4:f7:80:1c:7a:3b:05:e6:69:59:e2:99:
         df:5f:e3:d3:d3:53:88:2b:27:6c:ce:dc:2a:c3:8c:1f:39:61:
         13:41:3c:24:0a:5b:36:06:6d:c9:dc:50:32:aa:c0:3d:1c:74:
         38:c2:d9:a5:dc:b3:4f:4a:11:5f:d0:65:ac:69:ad:b2:20:ac:
         b2:3a:ca:00:3c:c5:76:8e:63:d4:7b:db:19:f7:e1:a3:51:13:
         33:fc:35:b6:73:23:03:77
-----BEGIN CERTIFICATE-----
MIIHSDCCBTCgAwIBAgICAigwDQYJKoZIhvcNAQEFBQAwgbQxCzAJBgNVBAYTAlVT
MQswCQYDVQQIEwJDQTEVMBMGA1UEBxMMU2FuRnJhbmNpc2NvMRUwEwYDVQQKEwxQ
aXhnbG8sIEluYy4xEDAOBgNVBAsTB1ZQTi1DSUUxGjAYBgNVBAMTEXR1bm5lbC5w
aXhnbG8uY29tMRwwGgYDVQQpExNCYWxhIENoYW5kcmFzZWthcmFuMR4wHAYJKoZI
hvcNAQkBFg9iYWxhQHBpeGdsby5jb20wHhcNMTgwMjE0MDYzNjU3WhcNMjgwMjEy
MDYzNjU3WjCBqTELMAkGA1UEBhMCVVMxCzAJBgNVBAgTAkNBMRUwEwYDVQQHEwxT
YW5GcmFuY2lzY28xFTATBgNVBAoTDFBpeGdsbywgSW5jLjEQMA4GA1UECxMHVlBO
LUNJRTEPMA0GA1UEAxMGY2llNTUxMRwwGgYDVQQpExNCYWxhIENoYW5kcmFzZWth
cmFuMR4wHAYJKoZIhvcNAQkBFg9iYWxhQHBpeGdsby5jb20wggIiMA0GCSqGSIb3
DQEBAQUAA4ICDwAwggIKAoICAQDFfANw47kXN/pxLZSerlgYt7EOQhsphDsInWdH
iVvwzeSBmFwgYlPxLEb9cE3by6iLsB1PsUBuXFGpi+I75GHUghkRGoZJPXyDUHAk
MbwfUTVWcs9V4hlWdkOu2KyLJqmXN18cRja+swIGRhpA+iVI/boCQxuBfxUh6O/N
GkEF9QVz5A872r8X0qdHCmKM0Mkf2ct3gg2HZNyOxj+t0FSm5YfMQ1vczvXO5wL1
wIgAqVUvfBE37bTGZSrhTu43UW0ZlSIPtYJi3Qsi2w+IgNVx7VlPkaDk+H4t2an+
1qzuz15qkijy/OACUGjX7L58QcnkErPEFbZxJaKhhfeLIifn6IFyAqW56Ztm9Cbp
6Y/DkkikJSMel8TRb8S7RN4g4KN0+xyyXsOXjGU22VGiCILtwGfoDe+8TU933OTc
7hztcLo12IS1HjlPZ5yQkFOw6DrJCvR5Mf6q5ThFDmBi8kPI6YzIhmWWhkB2bqJd
amKWTh+mkJQv86yLv5+E0zH/J6loNuhtuLCAs4ertut0vNIizFLok82Yte4vulGw
qb5tBCE/UOvcAW6nj3ItSJD5ebh3Ks+KUybIi8FMEQZ31R9fM0kWhGZS0gLc0pDv
qcDwfvLAEwSR0Z6Xl9W1CP2NkaZ6X6q9pDjMOGGmB/UvZUBj9cyQkEQtlfZJrkN5
ubrTcwIDAQABo4IBazCCAWcwCQYDVR0TBAIwADAtBglghkgBhvhCAQ0EIBYeRWFz
eS1SU0EgR2VuZXJhdGVkIENlcnRpZmljYXRlMB0GA1UdDgQWBBS3vo01a3TiU4oA
kICuZUJTyMOlCjCB6QYDVR0jBIHhMIHegBTvOI0UUFinW02cF3L837msp1GwEKGB
uqSBtzCBtDELMAkGA1UEBhMCVVMxCzAJBgNVBAgTAkNBMRUwEwYDVQQHEwxTYW5G
cmFuY2lzY28xFTATBgNVBAoTDFBpeGdsbywgSW5jLjEQMA4GA1UECxMHVlBOLUNJ
RTEaMBgGA1UEAxMRdHVubmVsLnBpeGdsby5jb20xHDAaBgNVBCkTE0JhbGEgQ2hh
bmRyYXNla2FyYW4xHjAcBgkqhkiG9w0BCQEWD2JhbGFAcGl4Z2xvLmNvbYIJAKbb
xoOA5qB5MBMGA1UdJQQMMAoGCCsGAQUFBwMCMAsGA1UdDwQEAwIHgDANBgkqhkiG
9w0BAQUFAAOCAgEAEQPgR836T0lCTHUTZSMl9kO4Lw1kRQULeWI0iNdD9kyZk625
8ACSJouPnS+wF1NNYLFUovyJ0MygbTEvx0c4s9h6PfJXMxxLd1JSWJxPvJZ7/xhq
BCo7cSII5ktb/Pz16vkUimvc3/rpQ0tSs1+UWcgTYqJ3SJBp67z+qELFEbocZ9ej
zjM9KPbEPqhMedK3q6lAJO4SN1+vnlMPxywrVgFhPAW/tb1vrwi/8X5GFeqWrHBq
61P2Vb2/2W/kzvAQAd+seRbSfDXRWVbTxkg1hH43lOsY+t1B+ZKLfeW3lUFVnmRh
2TD2qwXl1FK+ssPBf2Ny19oV0mUB0+krPVcaHD73kyC1h7jenXPyqvPsb4RFd51P
XNksqasOFR7E2qp5eE+Q/t5oI+13kzDBcZaPIKGN0lXaaInoM8KLkmWk2ejk9qLy
GR+JYXvUNEEJTdETowvK+eIX7SELjsGpl6y+z7K9sdKv1WMUdgALPtg63PAndrI7
HXB6bDgyzGY6M+hhsqaoeBe6umCfbH5ONa/+jM3iJ3NbyMPWVMaxEJDzmyOgNZ8w
1PeAHHo7BeZpWeKZ31/j09NTiCsnbM7cKsOMHzlhE0E8JApbNgZtydxQMqrAPRx0
OMLZpdyzT0oRX9BlrGmtsiCssjrKADzFdo5j1HvbGffho1ETM/w1tnMjA3c=
-----END CERTIFICATE-----
