Certificate:
    Data:
        Version: 3 (0x2)
        Serial Number: 553 (0x229)
    Signature Algorithm: sha1WithRSAEncryption
        Issuer: C=US, ST=CA, L=SanFrancisco, O=Pixglo, Inc., OU=VPN-CIE, CN=tunnel.pixglo.com/name=Bala Chandrasekaran/emailAddress=bala@pixglo.com
        Validity
            Not Before: Feb 14 06:37:02 2018 GMT
            Not After : Feb 12 06:37:02 2028 GMT
        Subject: C=US, ST=CA, L=SanFrancisco, O=Pixglo, Inc., OU=VPN-CIE, CN=cie552/name=Bala Chandrasekaran/emailAddress=bala@pixglo.com
        Subject Public Key Info:
            Public Key Algorithm: rsaEncryption
                Public-Key: (4096 bit)
                Modulus:
                    00:a2:24:e3:71:69:ea:f9:8a:2e:f9:31:98:fd:52:
                    76:89:a2:d1:12:74:e9:8f:81:28:0a:69:f8:a3:86:
                    ab:a4:75:2f:c5:63:70:0c:eb:97:b0:dc:22:a2:e5:
                    35:08:45:d7:aa:72:76:13:93:18:08:01:0b:50:e4:
                    92:e0:f4:14:20:d4:d3:e5:37:2f:f3:7f:c6:39:c0:
                    1c:46:4b:07:2f:ec:1f:97:d9:f8:9f:8c:02:f7:a1:
                    66:ac:01:28:b8:71:58:27:e0:8c:f4:54:ab:a1:b9:
                    51:a7:f1:60:2d:b0:a3:23:4c:53:cc:30:32:b6:ae:
                    ad:58:21:3d:bf:a5:ff:cf:aa:e6:0c:a1:c4:01:55:
                    94:35:a3:01:08:0c:a0:4d:97:ec:6e:58:dd:52:3b:
                    25:b1:7b:82:8a:fd:76:92:d9:ab:46:5c:31:3f:98:
                    8c:75:2c:12:97:eb:40:d7:6b:d9:29:0d:0f:4e:ce:
                    93:3b:f9:02:17:59:89:8b:09:43:ee:21:8a:e8:cd:
                    b4:62:71:9f:2e:cc:4d:33:55:3e:7b:41:47:42:8e:
                    e3:e7:d1:24:74:c5:d8:e5:42:dc:ab:2d:51:cc:ec:
                    43:f6:f6:6b:f5:a9:d4:c0:89:6e:40:ba:d9:6e:5d:
                    e9:6a:a5:e8:a9:b2:1b:27:d5:4d:eb:ab:2d:d7:70:
                    eb:89:24:bd:d5:98:1f:6a:17:4d:f6:76:c1:00:08:
                    4f:a8:ea:57:37:eb:81:66:7e:0f:61:50:c5:02:50:
                    ec:a1:53:7b:df:e2:55:8f:81:d1:7c:42:74:55:05:
                    41:8f:f6:07:3a:9f:0c:8c:43:4e:67:38:89:ea:df:
                    0d:52:25:79:08:cb:8b:19:87:f2:ff:52:64:ad:d8:
                    55:7d:f3:71:06:e3:97:c7:5c:ec:46:14:2b:56:d9:
                    8f:31:e3:be:62:d0:6e:27:81:1a:95:0b:6e:c1:3e:
                    81:9c:19:14:9a:16:98:ed:9b:0b:2f:00:2c:45:d9:
                    22:b2:8d:0a:37:42:46:f3:cd:b9:2f:a1:dd:0a:23:
                    90:3d:b5:2f:97:fe:3d:9b:2c:99:6d:d7:69:37:64:
                    66:97:45:fa:54:7d:47:eb:75:de:a8:83:4b:bb:5e:
                    61:30:64:08:8c:d5:1d:55:b4:c8:24:53:e3:ed:b9:
                    bf:c9:30:49:6b:77:60:0b:ae:28:40:25:29:20:5f:
                    46:5e:f2:1a:07:ca:99:3e:4b:d5:10:99:4b:c0:63:
                    30:d4:1f:4f:c5:26:d5:87:ef:56:d3:6b:af:cb:b1:
                    e1:00:af:c2:e5:7b:3d:2d:98:29:9a:d8:02:68:96:
                    a2:d8:0e:cd:ef:fe:35:03:3c:b3:a7:b9:01:1e:7f:
                    4b:9a:c3
                Exponent: 65537 (0x10001)
        X509v3 extensions:
            X509v3 Basic Constraints: 
                CA:FALSE
            Netscape Comment: 
                Easy-RSA Generated Certificate
            X509v3 Subject Key Identifier: 
                6F:B0:04:14:68:7D:F4:59:67:36:AE:9C:17:3A:0C:FD:68:68:7C:FA
            X509v3 Authority Key Identifier: 
                keyid:EF:38:8D:14:50:58:A7:5B:4D:9C:17:72:FC:DF:B9:AC:A7:51:B0:10
                DirName:/C=US/ST=CA/L=SanFrancisco/O=Pixglo, Inc./OU=VPN-CIE/CN=tunnel.pixglo.com/name=Bala Chandrasekaran/emailAddress=bala@pixglo.com
                serial:A6:DB:C6:83:80:E6:A0:79

            X509v3 Extended Key Usage: 
                TLS Web Client Authentication
            X509v3 Key Usage: 
                Digital Signature
    Signature Algorithm: sha1WithRSAEncryption
         b4:74:ef:1a:17:2e:a8:b9:4e:2a:b3:ea:ac:44:c5:5c:f0:30:
         78:4e:af:33:23:74:b8:05:e4:83:c3:11:93:98:ef:02:0a:0c:
         ba:25:6c:c3:30:b7:4e:f2:ae:f3:24:d5:57:05:8d:5a:c0:40:
         b1:f6:5d:af:d5:41:88:58:7e:ee:d5:f3:f4:6e:06:c8:98:e0:
         0f:d7:82:2e:1d:70:f4:dd:2b:68:11:80:b0:58:97:7c:2b:72:
         67:39:d7:67:d2:a8:5d:2f:65:90:42:e1:aa:c6:a1:dc:7f:00:
         7a:ee:c0:51:68:66:9f:27:27:53:12:a5:40:3e:59:fc:59:61:
         e4:dc:47:77:9d:b2:af:46:72:ce:5b:2e:9e:9c:99:25:4b:34:
         4e:28:09:a0:55:31:96:09:a2:c4:dd:55:80:35:4a:dd:8f:25:
         14:32:04:bb:bd:fa:ef:4f:64:24:ba:f2:9d:07:f4:91:a0:b1:
         16:b4:ff:80:e7:85:ed:a6:ca:bf:ad:00:0a:54:5f:05:07:68:
         a2:3e:07:0f:91:59:e8:67:c4:84:c0:65:45:37:ef:73:c7:3b:
         31:4d:dd:9f:27:47:fd:c5:1d:aa:60:46:b0:a0:89:56:6f:1a:
         e2:50:6e:56:7d:fe:e9:44:c7:4e:6d:b3:e7:f9:80:18:b9:f3:
         b6:2c:d7:a0:d5:f7:75:06:52:4c:96:e4:5d:0f:21:54:e1:75:
         59:5f:dc:d3:47:d5:ee:79:ee:3f:74:c3:7c:94:0e:cf:48:f7:
         80:71:f3:48:d5:a1:ca:d4:e0:fe:aa:66:68:53:9f:90:5f:67:
         ec:52:92:cc:4c:80:88:8f:13:76:ac:75:a5:e0:23:73:52:70:
         3b:a3:fc:75:86:9f:1d:a0:6d:d9:a2:5a:0d:35:f2:5b:b2:97:
         6c:22:90:56:9d:0a:1a:ed:5d:4b:a4:e6:ba:f7:5d:f9:b0:46:
         68:96:41:ba:8c:e4:25:3a:22:62:e4:69:75:d5:d5:c3:7d:12:
         cd:28:e3:6a:a6:84:10:65:cb:ee:bc:f2:0e:dd:b3:2e:0b:92:
         9f:6f:2c:ba:fb:17:f1:52:4b:56:05:3e:40:03:23:a0:56:a1:
         a7:4f:7e:4b:d4:f6:7b:c3:f8:58:a8:12:47:09:04:c7:dc:19:
         1c:5a:34:c0:a3:95:cc:30:1d:1a:22:bc:a7:28:03:15:9c:21:
         0d:c7:d6:72:a7:a9:8d:17:36:1b:85:6b:5d:0c:fc:37:93:91:
         b3:33:31:43:8d:43:93:33:93:93:ea:91:85:6f:2d:fe:93:a2:
         07:33:e5:63:be:78:a9:e9:26:4b:16:63:cb:0d:42:37:05:17:
         63:e7:04:d6:64:f8:0d:21
-----BEGIN CERTIFICATE-----
MIIHSDCCBTCgAwIBAgICAikwDQYJKoZIhvcNAQEFBQAwgbQxCzAJBgNVBAYTAlVT
MQswCQYDVQQIEwJDQTEVMBMGA1UEBxMMU2FuRnJhbmNpc2NvMRUwEwYDVQQKEwxQ
aXhnbG8sIEluYy4xEDAOBgNVBAsTB1ZQTi1DSUUxGjAYBgNVBAMTEXR1bm5lbC5w
aXhnbG8uY29tMRwwGgYDVQQpExNCYWxhIENoYW5kcmFzZWthcmFuMR4wHAYJKoZI
hvcNAQkBFg9iYWxhQHBpeGdsby5jb20wHhcNMTgwMjE0MDYzNzAyWhcNMjgwMjEy
MDYzNzAyWjCBqTELMAkGA1UEBhMCVVMxCzAJBgNVBAgTAkNBMRUwEwYDVQQHEwxT
YW5GcmFuY2lzY28xFTATBgNVBAoTDFBpeGdsbywgSW5jLjEQMA4GA1UECxMHVlBO
LUNJRTEPMA0GA1UEAxMGY2llNTUyMRwwGgYDVQQpExNCYWxhIENoYW5kcmFzZWth
cmFuMR4wHAYJKoZIhvcNAQkBFg9iYWxhQHBpeGdsby5jb20wggIiMA0GCSqGSIb3
DQEBAQUAA4ICDwAwggIKAoICAQCiJONxaer5ii75MZj9UnaJotESdOmPgSgKafij
hqukdS/FY3AM65ew3CKi5TUIRdeqcnYTkxgIAQtQ5JLg9BQg1NPlNy/zf8Y5wBxG
Swcv7B+X2fifjAL3oWasASi4cVgn4Iz0VKuhuVGn8WAtsKMjTFPMMDK2rq1YIT2/
pf/PquYMocQBVZQ1owEIDKBNl+xuWN1SOyWxe4KK/XaS2atGXDE/mIx1LBKX60DX
a9kpDQ9OzpM7+QIXWYmLCUPuIYrozbRicZ8uzE0zVT57QUdCjuPn0SR0xdjlQtyr
LVHM7EP29mv1qdTAiW5AutluXelqpeipshsn1U3rqy3XcOuJJL3VmB9qF032dsEA
CE+o6lc364Fmfg9hUMUCUOyhU3vf4lWPgdF8QnRVBUGP9gc6nwyMQ05nOInq3w1S
JXkIy4sZh/L/UmSt2FV983EG45fHXOxGFCtW2Y8x475i0G4ngRqVC27BPoGcGRSa
FpjtmwsvACxF2SKyjQo3Qkbzzbkvod0KI5A9tS+X/j2bLJlt12k3ZGaXRfpUfUfr
dd6og0u7XmEwZAiM1R1VtMgkU+Ptub/JMElrd2ALrihAJSkgX0Ze8hoHypk+S9UQ
mUvAYzDUH0/FJtWH71bTa6/LseEAr8Llez0tmCma2AJolqLYDs3v/jUDPLOnuQEe
f0uawwIDAQABo4IBazCCAWcwCQYDVR0TBAIwADAtBglghkgBhvhCAQ0EIBYeRWFz
eS1SU0EgR2VuZXJhdGVkIENlcnRpZmljYXRlMB0GA1UdDgQWBBRvsAQUaH30WWc2
rpwXOgz9aGh8+jCB6QYDVR0jBIHhMIHegBTvOI0UUFinW02cF3L837msp1GwEKGB
uqSBtzCBtDELMAkGA1UEBhMCVVMxCzAJBgNVBAgTAkNBMRUwEwYDVQQHEwxTYW5G
cmFuY2lzY28xFTATBgNVBAoTDFBpeGdsbywgSW5jLjEQMA4GA1UECxMHVlBOLUNJ
RTEaMBgGA1UEAxMRdHVubmVsLnBpeGdsby5jb20xHDAaBgNVBCkTE0JhbGEgQ2hh
bmRyYXNla2FyYW4xHjAcBgkqhkiG9w0BCQEWD2JhbGFAcGl4Z2xvLmNvbYIJAKbb
xoOA5qB5MBMGA1UdJQQMMAoGCCsGAQUFBwMCMAsGA1UdDwQEAwIHgDANBgkqhkiG
9w0BAQUFAAOCAgEAtHTvGhcuqLlOKrPqrETFXPAweE6vMyN0uAXkg8MRk5jvAgoM
uiVswzC3TvKu8yTVVwWNWsBAsfZdr9VBiFh+7tXz9G4GyJjgD9eCLh1w9N0raBGA
sFiXfCtyZznXZ9KoXS9lkELhqsah3H8Aeu7AUWhmnycnUxKlQD5Z/Flh5NxHd52y
r0ZyzlsunpyZJUs0TigJoFUxlgmixN1VgDVK3Y8lFDIEu736709kJLrynQf0kaCx
FrT/gOeF7abKv60AClRfBQdooj4HD5FZ6GfEhMBlRTfvc8c7MU3dnydH/cUdqmBG
sKCJVm8a4lBuVn3+6UTHTm2z5/mAGLnztizXoNX3dQZSTJbkXQ8hVOF1WV/c00fV
7nnuP3TDfJQOz0j3gHHzSNWhytTg/qpmaFOfkF9n7FKSzEyAiI8Tdqx1peAjc1Jw
O6P8dYafHaBt2aJaDTXyW7KXbCKQVp0KGu1dS6Tmuvdd+bBGaJZBuozkJToiYuRp
ddXVw30SzSjjaqaEEGXL7rzyDt2zLguSn28suvsX8VJLVgU+QAMjoFahp09+S9T2
e8P4WKgSRwkEx9wZHFo0wKOVzDAdGiK8pygDFZwhDcfWcqepjRc2G4VrXQz8N5OR
szMxQ41DkzOTk+qRhW8t/pOiBzPlY754qekmSxZjyw1CNwUXY+cE1mT4DSE=
-----END CERTIFICATE-----
