Certificate:
    Data:
        Version: 3 (0x2)
        Serial Number: 554 (0x22a)
    Signature Algorithm: sha1WithRSAEncryption
        Issuer: C=US, ST=CA, L=SanFrancisco, O=Pixglo, Inc., OU=VPN-CIE, CN=tunnel.pixglo.com/name=Bala Chandrasekaran/emailAddress=bala@pixglo.com
        Validity
            Not Before: Feb 14 06:37:02 2018 GMT
            Not After : Feb 12 06:37:02 2028 GMT
        Subject: C=US, ST=CA, L=SanFrancisco, O=Pixglo, Inc., OU=VPN-CIE, CN=cie553/name=Bala Chandrasekaran/emailAddress=bala@pixglo.com
        Subject Public Key Info:
            Public Key Algorithm: rsaEncryption
                Public-Key: (4096 bit)
                Modulus:
                    00:ae:68:22:6c:72:9a:38:20:93:0b:53:1e:0e:b9:
                    7a:44:4b:05:65:01:ed:8b:22:04:e9:3f:e9:ba:8b:
                    86:e0:a8:ee:e8:23:dc:b2:42:94:52:81:65:73:21:
                    eb:cf:60:c4:cf:5b:d5:dc:92:50:22:84:d0:3d:75:
                    83:60:9e:09:a2:55:da:0a:28:33:bf:3a:0a:d0:98:
                    95:69:ce:de:71:21:ab:96:a7:d8:fb:b3:d6:be:36:
                    70:78:ab:eb:80:fa:b4:e7:50:62:b5:b1:c6:f9:ba:
                    a6:10:88:3a:de:0c:86:3a:3b:e0:4b:48:4c:03:4e:
                    39:c4:1a:4c:96:18:48:fe:3c:3b:be:4b:fd:37:46:
                    62:d2:0a:7a:cc:94:81:af:3f:9f:bd:fa:56:35:d1:
                    85:5f:a9:52:ce:34:bf:ca:63:bf:2c:34:1f:09:e2:
                    cf:3c:42:26:b3:c3:3b:8d:c7:6f:c0:59:c8:fb:ea:
                    32:0b:95:12:d2:7b:33:af:fd:63:75:81:98:56:30:
                    4a:60:36:a6:85:b0:95:8b:e6:df:1a:69:d3:d6:af:
                    ef:4d:b4:78:d9:37:07:8e:e6:a2:8b:91:ea:c4:e4:
                    dd:9d:a6:cf:aa:83:cf:24:6b:16:9b:64:dc:18:e0:
                    cc:7c:7e:3b:cf:8a:e1:a1:fd:34:ef:4b:d4:be:fb:
                    ea:a0:6b:c4:cd:b7:52:e3:d6:77:2b:68:75:1c:4a:
                    e4:34:15:a4:70:94:ee:8e:3a:82:3c:1d:fc:b2:9e:
                    80:99:ce:fa:3b:c0:a2:db:0d:6c:3c:77:5d:b7:76:
                    ac:1d:11:ed:e2:ad:8e:af:5d:fa:fc:74:71:e8:47:
                    b8:f1:de:f2:ac:38:6a:8b:9f:a2:0f:04:ce:86:a2:
                    ab:88:1d:0f:fa:96:f4:19:c4:b4:30:ce:4a:d7:0c:
                    1f:d5:8a:ca:7e:25:eb:30:c3:3c:70:5c:75:92:fd:
                    a7:b4:0d:d7:3c:96:c7:26:3b:04:ab:66:d8:16:93:
                    af:3c:c8:63:ff:39:57:e5:3e:4e:8c:30:9c:36:6b:
                    ac:6d:ca:5a:ec:e9:fc:d5:5d:7c:71:53:5d:e6:7f:
                    9c:56:02:a1:03:9f:87:de:e0:ad:ad:67:fc:fd:22:
                    42:e4:d7:4d:c2:eb:93:8d:c2:d5:24:21:00:19:84:
                    2f:62:e9:34:52:77:33:c3:a0:5a:bd:19:46:81:cd:
                    50:f3:64:10:ff:3a:03:2d:e5:6a:88:59:fa:2b:21:
                    ed:3c:f1:fc:39:ef:27:2b:b5:c5:65:a7:5b:df:a8:
                    c4:1e:a1:cd:30:02:6a:dd:17:1f:a3:d9:de:99:08:
                    13:e1:51:16:43:65:0e:8f:75:24:9a:a7:4e:27:a2:
                    81:aa:33
                Exponent: 65537 (0x10001)
        X509v3 extensions:
            X509v3 Basic Constraints: 
                CA:FALSE
            Netscape Comment: 
                Easy-RSA Generated Certificate
            X509v3 Subject Key Identifier: 
                0E:18:34:0A:B6:FA:54:46:66:D8:0F:E7:A6:BA:30:A4:6B:78:15:13
            X509v3 Authority Key Identifier: 
                keyid:EF:38:8D:14:50:58:A7:5B:4D:9C:17:72:FC:DF:B9:AC:A7:51:B0:10
                DirName:/C=US/ST=CA/L=SanFrancisco/O=Pixglo, Inc./OU=VPN-CIE/CN=tunnel.pixglo.com/name=Bala Chandrasekaran/emailAddress=bala@pixglo.com
                serial:A6:DB:C6:83:80:E6:A0:79

            X509v3 Extended Key Usage: 
                TLS Web Client Authentication
            X509v3 Key Usage: 
                Digital Signature
    Signature Algorithm: sha1WithRSAEncryption
         e2:ae:f0:cb:1b:a8:14:1c:b2:71:2c:d8:7e:77:1c:35:df:ea:
         e1:ac:12:69:4c:4b:23:02:e1:0e:eb:6b:35:55:3a:69:35:a7:
         a4:d2:3c:6d:f3:f3:de:1c:2b:ce:ed:b9:e2:3d:b4:e0:6f:f8:
         a9:25:44:ff:b2:14:0e:20:d8:cd:1a:b6:50:3e:21:1e:9d:36:
         79:02:57:29:f3:94:5c:cd:01:58:1f:e9:13:43:13:e3:f4:da:
         75:ed:76:b7:c5:a3:85:1e:f9:c2:9e:30:5e:91:ad:f4:6f:fc:
         a8:1e:d0:ff:77:bb:e2:78:a2:2f:67:34:78:df:98:25:8c:f5:
         29:c6:6f:ae:46:64:d4:14:2f:c2:50:c4:8d:46:55:77:65:4a:
         d4:6e:8d:a9:14:9e:90:09:87:08:63:b6:80:96:36:94:16:39:
         98:26:77:5f:54:d5:56:9d:02:84:e1:94:3f:65:ba:21:b9:41:
         84:7d:c7:1f:d9:2d:d1:cc:45:31:80:d7:35:e6:14:f9:12:d2:
         8d:4e:43:89:9e:4d:9e:2c:9c:44:7e:19:56:5c:d0:5e:f5:1f:
         c4:41:44:ed:6a:5a:56:ec:68:71:0e:cb:8d:ef:6b:7d:8b:68:
         31:65:5f:a7:fc:91:c2:7a:ad:eb:a8:91:11:a4:98:c6:6e:11:
         57:e7:df:f2:c4:1d:a6:a4:2e:9c:17:de:9b:16:52:77:6c:3c:
         57:95:d9:f6:ac:df:33:d0:02:94:4a:7a:46:48:be:2a:7a:c1:
         1f:dd:f6:09:ce:8a:81:0d:c0:f0:43:89:bd:bb:20:5e:2a:a9:
         00:1e:b4:2d:dd:4e:f8:44:16:bf:d5:fc:fd:cb:ee:47:d0:7d:
         7b:14:cf:a2:91:02:4f:eb:9a:cf:50:6e:f5:d1:73:32:72:50:
         4c:6d:ac:13:8b:18:5b:47:14:4e:08:45:1a:07:63:15:c0:66:
         06:f2:db:59:8f:81:bf:66:39:b3:69:ed:8b:9e:1d:8e:a5:86:
         7c:a8:51:3c:18:e4:1e:72:f8:25:2b:e9:e1:c3:db:95:1d:bf:
         26:a4:52:e2:a6:f4:d1:b3:15:af:a4:c3:1a:eb:44:43:68:2f:
         0a:0c:93:25:52:75:a9:23:af:91:07:f4:fa:a7:a2:43:3f:bb:
         7b:69:75:02:b7:50:4e:10:4c:b9:49:f7:e3:ca:74:34:ce:94:
         03:26:46:4d:75:f3:92:df:5b:17:5b:b5:aa:62:c9:f7:d0:94:
         02:e0:c7:86:14:05:4d:96:9e:10:24:06:54:88:14:fb:0c:24:
         e3:1c:8b:05:21:b0:34:72:14:1f:d0:0e:57:20:f1:ca:dc:00:
         9f:f7:60:2e:ca:1a:e5:b0
-----BEGIN CERTIFICATE-----
MIIHSDCCBTCgAwIBAgICAiowDQYJKoZIhvcNAQEFBQAwgbQxCzAJBgNVBAYTAlVT
MQswCQYDVQQIEwJDQTEVMBMGA1UEBxMMU2FuRnJhbmNpc2NvMRUwEwYDVQQKEwxQ
aXhnbG8sIEluYy4xEDAOBgNVBAsTB1ZQTi1DSUUxGjAYBgNVBAMTEXR1bm5lbC5w
aXhnbG8uY29tMRwwGgYDVQQpExNCYWxhIENoYW5kcmFzZWthcmFuMR4wHAYJKoZI
hvcNAQkBFg9iYWxhQHBpeGdsby5jb20wHhcNMTgwMjE0MDYzNzAyWhcNMjgwMjEy
MDYzNzAyWjCBqTELMAkGA1UEBhMCVVMxCzAJBgNVBAgTAkNBMRUwEwYDVQQHEwxT
YW5GcmFuY2lzY28xFTATBgNVBAoTDFBpeGdsbywgSW5jLjEQMA4GA1UECxMHVlBO
LUNJRTEPMA0GA1UEAxMGY2llNTUzMRwwGgYDVQQpExNCYWxhIENoYW5kcmFzZWth
cmFuMR4wHAYJKoZIhvcNAQkBFg9iYWxhQHBpeGdsby5jb20wggIiMA0GCSqGSIb3
DQEBAQUAA4ICDwAwggIKAoICAQCuaCJscpo4IJMLUx4OuXpESwVlAe2LIgTpP+m6
i4bgqO7oI9yyQpRSgWVzIevPYMTPW9XcklAihNA9dYNgngmiVdoKKDO/OgrQmJVp
zt5xIauWp9j7s9a+NnB4q+uA+rTnUGK1scb5uqYQiDreDIY6O+BLSEwDTjnEGkyW
GEj+PDu+S/03RmLSCnrMlIGvP5+9+lY10YVfqVLONL/KY78sNB8J4s88QiazwzuN
x2/AWcj76jILlRLSezOv/WN1gZhWMEpgNqaFsJWL5t8aadPWr+9NtHjZNweO5qKL
kerE5N2dps+qg88kaxabZNwY4Mx8fjvPiuGh/TTvS9S+++qga8TNt1Lj1ncraHUc
SuQ0FaRwlO6OOoI8HfyynoCZzvo7wKLbDWw8d123dqwdEe3irY6vXfr8dHHoR7jx
3vKsOGqLn6IPBM6GoquIHQ/6lvQZxLQwzkrXDB/Visp+JeswwzxwXHWS/ae0Ddc8
lscmOwSrZtgWk688yGP/OVflPk6MMJw2a6xtylrs6fzVXXxxU13mf5xWAqEDn4fe
4K2tZ/z9IkLk103C65ONwtUkIQAZhC9i6TRSdzPDoFq9GUaBzVDzZBD/OgMt5WqI
WforIe088fw57ycrtcVlp1vfqMQeoc0wAmrdFx+j2d6ZCBPhURZDZQ6PdSSap04n
ooGqMwIDAQABo4IBazCCAWcwCQYDVR0TBAIwADAtBglghkgBhvhCAQ0EIBYeRWFz
eS1SU0EgR2VuZXJhdGVkIENlcnRpZmljYXRlMB0GA1UdDgQWBBQOGDQKtvpURmbY
D+emujCka3gVEzCB6QYDVR0jBIHhMIHegBTvOI0UUFinW02cF3L837msp1GwEKGB
uqSBtzCBtDELMAkGA1UEBhMCVVMxCzAJBgNVBAgTAkNBMRUwEwYDVQQHEwxTYW5G
cmFuY2lzY28xFTATBgNVBAoTDFBpeGdsbywgSW5jLjEQMA4GA1UECxMHVlBOLUNJ
RTEaMBgGA1UEAxMRdHVubmVsLnBpeGdsby5jb20xHDAaBgNVBCkTE0JhbGEgQ2hh
bmRyYXNla2FyYW4xHjAcBgkqhkiG9w0BCQEWD2JhbGFAcGl4Z2xvLmNvbYIJAKbb
xoOA5qB5MBMGA1UdJQQMMAoGCCsGAQUFBwMCMAsGA1UdDwQEAwIHgDANBgkqhkiG
9w0BAQUFAAOCAgEA4q7wyxuoFByycSzYfnccNd/q4awSaUxLIwLhDutrNVU6aTWn
pNI8bfPz3hwrzu254j204G/4qSVE/7IUDiDYzRq2UD4hHp02eQJXKfOUXM0BWB/p
E0MT4/Tade12t8WjhR75wp4wXpGt9G/8qB7Q/3e74niiL2c0eN+YJYz1KcZvrkZk
1BQvwlDEjUZVd2VK1G6NqRSekAmHCGO2gJY2lBY5mCZ3X1TVVp0ChOGUP2W6IblB
hH3HH9kt0cxFMYDXNeYU+RLSjU5DiZ5NniycRH4ZVlzQXvUfxEFE7WpaVuxocQ7L
je9rfYtoMWVfp/yRwnqt66iREaSYxm4RV+ff8sQdpqQunBfemxZSd2w8V5XZ9qzf
M9AClEp6Rki+KnrBH932Cc6KgQ3A8EOJvbsgXiqpAB60Ld1O+EQWv9X8/cvuR9B9
exTPopECT+uaz1Bu9dFzMnJQTG2sE4sYW0cUTghFGgdjFcBmBvLbWY+Bv2Y5s2nt
i54djqWGfKhRPBjkHnL4JSvp4cPblR2/JqRS4qb00bMVr6TDGutEQ2gvCgyTJVJ1
qSOvkQf0+qeiQz+7e2l1ArdQThBMuUn348p0NM6UAyZGTXXzkt9bF1u1qmLJ99CU
AuDHhhQFTZaeECQGVIgU+wwk4xyLBSGwNHIUH9AOVyDxytwAn/dgLsoa5bA=
-----END CERTIFICATE-----
