Certificate:
    Data:
        Version: 3 (0x2)
        Serial Number: 557 (0x22d)
    Signature Algorithm: sha1WithRSAEncryption
        Issuer: C=US, ST=CA, L=SanFrancisco, O=Pixglo, Inc., OU=VPN-CIE, CN=tunnel.pixglo.com/name=Bala Chandrasekaran/emailAddress=bala@pixglo.com
        Validity
            Not Before: Feb 14 06:37:04 2018 GMT
            Not After : Feb 12 06:37:04 2028 GMT
        Subject: C=US, ST=CA, L=SanFrancisco, O=Pixglo, Inc., OU=VPN-CIE, CN=cie556/name=Bala Chandrasekaran/emailAddress=bala@pixglo.com
        Subject Public Key Info:
            Public Key Algorithm: rsaEncryption
                Public-Key: (4096 bit)
                Modulus:
                    00:bc:5b:a0:22:9b:f4:61:53:56:38:5c:72:b9:cc:
                    02:82:1c:3c:f2:9a:a8:c3:e1:4c:ac:d1:77:42:a8:
                    6b:18:67:4c:50:9f:70:99:57:df:70:c6:56:84:6e:
                    e9:d4:ea:c2:f7:0d:ca:32:a2:be:ab:bf:19:bc:a2:
                    1c:46:4f:8c:2e:fc:97:c0:42:48:44:96:df:42:6e:
                    3e:48:8d:99:04:b4:ff:c9:a0:ad:4a:1d:45:dc:10:
                    d0:53:d0:0b:e6:4c:34:31:b2:13:77:17:92:f0:18:
                    df:1e:85:cb:ff:ea:f0:cb:70:de:1d:46:7d:c6:a2:
                    79:cb:cf:25:52:79:1d:1f:1d:80:9a:ae:fb:0c:4f:
                    6c:4c:00:8b:51:a8:c8:00:3f:e0:0b:d5:f9:16:15:
                    4f:db:3b:c6:c2:0b:f2:30:3d:3a:74:62:88:9e:b9:
                    b9:d7:29:eb:a4:d8:f6:29:33:80:57:c6:38:8e:23:
                    82:78:a8:0c:dc:d2:40:00:6d:e2:04:31:6f:52:c3:
                    cf:79:0c:3d:ef:56:89:21:4c:88:d3:32:b9:39:b9:
                    3c:ce:72:07:87:b2:46:70:9e:94:57:10:63:19:d1:
                    85:db:d4:2b:75:2a:af:27:85:7e:8c:72:a1:53:b1:
                    3e:80:67:47:b3:4f:ad:12:f0:6b:58:98:b0:35:23:
                    e2:50:a0:6e:31:d3:d7:79:08:39:1e:55:54:aa:52:
                    eb:50:16:39:28:33:28:3e:f7:64:59:3f:8e:a6:4e:
                    0a:fc:c9:9a:4e:12:a3:72:5e:32:7e:4b:52:6e:d3:
                    d6:1b:bf:aa:73:76:60:20:5c:82:1c:8a:e4:6c:10:
                    77:34:8c:68:3c:d7:20:c5:ab:26:5d:d1:9c:d8:6b:
                    1b:55:01:00:b1:42:36:13:5a:40:07:4c:35:5c:7a:
                    6b:7f:d9:e3:d3:ba:0c:a4:62:5f:88:b0:0a:c0:17:
                    75:eb:27:17:75:e7:e3:87:6f:df:f3:cd:5d:8f:ce:
                    2b:0b:e1:06:f1:07:b7:bf:ad:cb:d6:0d:8b:21:27:
                    f0:62:ce:2e:0c:be:af:6a:3b:c2:71:d6:5b:1f:81:
                    06:cb:cc:24:4c:44:3e:ad:cb:58:93:1d:3f:d9:6d:
                    11:a2:d8:5d:a9:77:11:0c:bc:c8:f8:4b:f6:fe:a8:
                    11:57:f8:89:6f:35:9b:78:c2:0e:a6:31:b0:d4:0c:
                    0d:a8:c5:54:54:2d:d4:78:48:e6:be:30:dd:f6:f0:
                    1e:1e:ce:c2:83:5f:4d:19:56:88:d7:06:6f:6c:ff:
                    e2:e7:7d:2f:b3:89:c5:d2:78:69:a3:cb:70:bc:2e:
                    2d:b8:a1:41:bd:b5:1d:c0:17:29:c1:51:ba:b8:b7:
                    80:5f:e1
                Exponent: 65537 (0x10001)
        X509v3 extensions:
            X509v3 Basic Constraints: 
                CA:FALSE
            Netscape Comment: 
                Easy-RSA Generated Certificate
            X509v3 Subject Key Identifier: 
                DB:CB:10:6E:BA:EA:26:11:37:30:1B:6B:5F:AC:BB:66:4E:5B:1C:F4
            X509v3 Authority Key Identifier: 
                keyid:EF:38:8D:14:50:58:A7:5B:4D:9C:17:72:FC:DF:B9:AC:A7:51:B0:10
                DirName:/C=US/ST=CA/L=SanFrancisco/O=Pixglo, Inc./OU=VPN-CIE/CN=tunnel.pixglo.com/name=Bala Chandrasekaran/emailAddress=bala@pixglo.com
                serial:A6:DB:C6:83:80:E6:A0:79

            X509v3 Extended Key Usage: 
                TLS Web Client Authentication
            X509v3 Key Usage: 
                Digital Signature
    Signature Algorithm: sha1WithRSAEncryption
         a2:0a:21:da:05:6e:4b:21:b1:3d:47:c7:e1:c9:74:e4:7c:5e:
         e4:eb:ec:e4:9a:ba:7a:2f:c9:f3:ee:ab:56:4a:98:83:0e:a7:
         75:0e:d9:17:82:c1:eb:98:62:25:7c:5d:43:f9:13:bd:6c:ce:
         a6:91:ae:25:d8:7c:72:8d:77:42:86:68:af:48:61:59:16:78:
         e5:ca:3b:32:62:f7:d8:16:8e:85:20:91:b3:6e:fa:26:b9:ed:
         72:14:ce:aa:54:37:6b:7b:1e:83:8a:a1:4d:3b:3e:b3:8f:55:
         7e:5d:78:d1:1a:02:66:bd:d4:15:7e:40:d1:59:02:8c:26:55:
         c2:22:01:71:a2:b8:e9:c2:b5:21:9b:d8:bb:a9:20:4e:77:52:
         de:9d:a5:1b:03:bf:17:c8:98:fc:6f:db:3b:a6:79:d2:2a:8f:
         c5:5e:dd:1a:07:62:d7:56:3b:3d:e5:e3:40:c2:d4:d4:91:56:
         dd:3c:3e:05:2d:f9:05:1f:e5:e9:ab:2d:a2:8c:80:29:12:ea:
         37:69:c2:1d:1f:80:af:08:a6:5e:f6:e6:71:fc:6c:48:f6:c8:
         e4:c5:c1:fb:51:0f:39:12:10:2d:17:2d:a9:70:a9:55:9b:54:
         bc:fa:62:0e:f0:47:89:f8:7b:d6:35:9b:ff:d1:bb:64:11:17:
         ba:ae:58:8d:68:33:c9:37:df:25:49:ff:96:89:d3:58:83:7c:
         86:61:fd:e9:e6:0f:6a:62:5e:04:12:66:e6:ca:17:77:b6:df:
         9a:4d:39:f4:2e:84:4b:26:7e:bc:71:f7:88:4e:b6:d9:a5:50:
         28:30:43:11:6d:83:5d:9c:9b:80:bd:b1:5c:0d:98:d7:85:8e:
         16:a3:59:3e:4e:dc:9d:b6:ca:ab:78:00:29:66:83:2b:aa:5e:
         f5:39:ac:81:c9:8c:77:65:ef:fc:9a:24:70:42:ff:3a:23:3b:
         03:b2:21:51:a7:57:69:ee:73:aa:2f:21:78:ee:33:bd:fe:2e:
         d1:e3:76:8f:a5:17:c0:1c:78:e2:ae:8c:a3:30:9c:be:25:ab:
         bb:09:22:e6:39:65:f9:c3:98:5b:63:02:a3:68:98:82:e3:b9:
         fb:95:d9:df:68:7c:95:d6:80:0b:68:98:9e:af:16:a4:24:e0:
         70:52:67:a8:df:46:67:22:ac:69:b5:39:c1:3c:03:5f:3f:91:
         f3:de:5a:f1:24:70:35:ef:98:1d:c7:3f:59:8f:af:9e:a1:b0:
         e2:17:79:47:24:c2:47:92:61:6f:7b:30:09:ba:6c:66:41:48:
         6d:6f:33:e8:dd:c9:22:a6:82:69:21:73:2f:81:d2:cb:c6:51:
         39:a5:01:65:b4:76:9e:97
-----BEGIN CERTIFICATE-----
MIIHSDCCBTCgAwIBAgICAi0wDQYJKoZIhvcNAQEFBQAwgbQxCzAJBgNVBAYTAlVT
MQswCQYDVQQIEwJDQTEVMBMGA1UEBxMMU2FuRnJhbmNpc2NvMRUwEwYDVQQKEwxQ
aXhnbG8sIEluYy4xEDAOBgNVBAsTB1ZQTi1DSUUxGjAYBgNVBAMTEXR1bm5lbC5w
aXhnbG8uY29tMRwwGgYDVQQpExNCYWxhIENoYW5kcmFzZWthcmFuMR4wHAYJKoZI
hvcNAQkBFg9iYWxhQHBpeGdsby5jb20wHhcNMTgwMjE0MDYzNzA0WhcNMjgwMjEy
MDYzNzA0WjCBqTELMAkGA1UEBhMCVVMxCzAJBgNVBAgTAkNBMRUwEwYDVQQHEwxT
YW5GcmFuY2lzY28xFTATBgNVBAoTDFBpeGdsbywgSW5jLjEQMA4GA1UECxMHVlBO
LUNJRTEPMA0GA1UEAxMGY2llNTU2MRwwGgYDVQQpExNCYWxhIENoYW5kcmFzZWth
cmFuMR4wHAYJKoZIhvcNAQkBFg9iYWxhQHBpeGdsby5jb20wggIiMA0GCSqGSIb3
DQEBAQUAA4ICDwAwggIKAoICAQC8W6Aim/RhU1Y4XHK5zAKCHDzymqjD4Uys0XdC
qGsYZ0xQn3CZV99wxlaEbunU6sL3Dcoyor6rvxm8ohxGT4wu/JfAQkhElt9Cbj5I
jZkEtP/JoK1KHUXcENBT0AvmTDQxshN3F5LwGN8ehcv/6vDLcN4dRn3GonnLzyVS
eR0fHYCarvsMT2xMAItRqMgAP+AL1fkWFU/bO8bCC/IwPTp0YoieubnXKeuk2PYp
M4BXxjiOI4J4qAzc0kAAbeIEMW9Sw895DD3vVokhTIjTMrk5uTzOcgeHskZwnpRX
EGMZ0YXb1Ct1Kq8nhX6McqFTsT6AZ0ezT60S8GtYmLA1I+JQoG4x09d5CDkeVVSq
UutQFjkoMyg+92RZP46mTgr8yZpOEqNyXjJ+S1Ju09Ybv6pzdmAgXIIciuRsEHc0
jGg81yDFqyZd0ZzYaxtVAQCxQjYTWkAHTDVcemt/2ePTugykYl+IsArAF3XrJxd1
5+OHb9/zzV2PzisL4QbxB7e/rcvWDYshJ/Bizi4Mvq9qO8Jx1lsfgQbLzCRMRD6t
y1iTHT/ZbRGi2F2pdxEMvMj4S/b+qBFX+IlvNZt4wg6mMbDUDA2oxVRULdR4SOa+
MN328B4ezsKDX00ZVojXBm9s/+LnfS+zicXSeGmjy3C8Li24oUG9tR3AFynBUbq4
t4Bf4QIDAQABo4IBazCCAWcwCQYDVR0TBAIwADAtBglghkgBhvhCAQ0EIBYeRWFz
eS1SU0EgR2VuZXJhdGVkIENlcnRpZmljYXRlMB0GA1UdDgQWBBTbyxBuuuomETcw
G2tfrLtmTlsc9DCB6QYDVR0jBIHhMIHegBTvOI0UUFinW02cF3L837msp1GwEKGB
uqSBtzCBtDELMAkGA1UEBhMCVVMxCzAJBgNVBAgTAkNBMRUwEwYDVQQHEwxTYW5G
cmFuY2lzY28xFTATBgNVBAoTDFBpeGdsbywgSW5jLjEQMA4GA1UECxMHVlBOLUNJ
RTEaMBgGA1UEAxMRdHVubmVsLnBpeGdsby5jb20xHDAaBgNVBCkTE0JhbGEgQ2hh
bmRyYXNla2FyYW4xHjAcBgkqhkiG9w0BCQEWD2JhbGFAcGl4Z2xvLmNvbYIJAKbb
xoOA5qB5MBMGA1UdJQQMMAoGCCsGAQUFBwMCMAsGA1UdDwQEAwIHgDANBgkqhkiG
9w0BAQUFAAOCAgEAogoh2gVuSyGxPUfH4cl05Hxe5Ovs5Jq6ei/J8+6rVkqYgw6n
dQ7ZF4LB65hiJXxdQ/kTvWzOppGuJdh8co13QoZor0hhWRZ45co7MmL32BaOhSCR
s276JrntchTOqlQ3a3seg4qhTTs+s49Vfl140RoCZr3UFX5A0VkCjCZVwiIBcaK4
6cK1IZvYu6kgTndS3p2lGwO/F8iY/G/bO6Z50iqPxV7dGgdi11Y7PeXjQMLU1JFW
3Tw+BS35BR/l6astooyAKRLqN2nCHR+ArwimXvbmcfxsSPbI5MXB+1EPORIQLRct
qXCpVZtUvPpiDvBHifh71jWb/9G7ZBEXuq5YjWgzyTffJUn/lonTWIN8hmH96eYP
amJeBBJm5soXd7bfmk059C6ESyZ+vHH3iE622aVQKDBDEW2DXZybgL2xXA2Y14WO
FqNZPk7cnbbKq3gAKWaDK6pe9TmsgcmMd2Xv/JokcEL/OiM7A7IhUadXae5zqi8h
eO4zvf4u0eN2j6UXwBx44q6MozCcviWruwki5jll+cOYW2MCo2iYguO5+5XZ32h8
ldaAC2iYnq8WpCTgcFJnqN9GZyKsabU5wTwDXz+R895a8SRwNe+YHcc/WY+vnqGw
4hd5RyTCR5Jhb3swCbpsZkFIbW8z6N3JIqaCaSFzL4HSy8ZROaUBZbR2npc=
-----END CERTIFICATE-----
