Certificate:
    Data:
        Version: 3 (0x2)
        Serial Number: 560 (0x230)
    Signature Algorithm: sha1WithRSAEncryption
        Issuer: C=US, ST=CA, L=SanFrancisco, O=Pixglo, Inc., OU=VPN-CIE, CN=tunnel.pixglo.com/name=Bala Chandrasekaran/emailAddress=bala@pixglo.com
        Validity
            Not Before: Feb 14 06:37:08 2018 GMT
            Not After : Feb 12 06:37:08 2028 GMT
        Subject: C=US, ST=CA, L=SanFrancisco, O=Pixglo, Inc., OU=VPN-CIE, CN=cie559/name=Bala Chandrasekaran/emailAddress=bala@pixglo.com
        Subject Public Key Info:
            Public Key Algorithm: rsaEncryption
                Public-Key: (4096 bit)
                Modulus:
                    00:ba:80:3b:d0:20:b3:7c:37:24:7a:ed:ab:a4:1a:
                    88:5d:48:54:12:0a:e3:6c:1f:a6:54:65:93:58:f3:
                    a5:10:67:a8:08:58:ef:4f:8e:76:fb:8f:2d:40:86:
                    59:14:c6:a0:2d:66:df:18:00:33:43:03:49:d8:d5:
                    14:50:ff:dc:05:7f:f0:ac:2f:19:82:a9:53:2b:50:
                    11:be:92:75:c1:10:85:99:83:fb:9b:7d:3d:b0:7d:
                    4c:e9:9f:00:9c:bf:9d:4f:4a:37:33:e3:58:8b:fc:
                    c8:b7:79:e2:c5:04:db:c0:b3:47:c0:82:2e:6c:d8:
                    15:6c:f4:b6:bd:f5:2f:f6:2d:14:09:ce:3f:43:2b:
                    8f:09:a4:66:06:24:8b:95:7b:c3:95:bd:49:6a:e1:
                    27:2e:cc:0e:39:e9:a0:4c:a8:f9:48:e8:fd:87:4f:
                    40:56:d1:9b:87:e1:d4:cb:fc:8a:98:ed:f6:52:01:
                    b3:0b:16:58:af:fe:af:2d:f0:d5:27:f6:60:24:a8:
                    cc:d7:04:44:a0:5e:5b:bb:49:49:56:85:a7:ac:af:
                    3b:4c:d8:3c:19:2a:c8:1f:bb:cf:0d:90:7c:a8:74:
                    00:06:58:cb:b9:ae:2d:fa:bb:49:b7:c3:26:f7:83:
                    83:d4:77:65:66:a5:52:88:06:77:e9:c3:71:6b:f5:
                    66:7f:cc:30:6a:6f:cd:75:d4:b4:c3:74:1d:c8:8d:
                    5e:9c:42:62:ab:0a:ff:c0:54:6a:ac:a6:90:97:c6:
                    97:d5:76:35:cf:2f:6b:15:92:1e:7f:8f:51:bb:87:
                    d0:16:3e:ca:e5:5d:e8:1e:ac:31:ba:fc:ac:6e:a6:
                    15:a6:b0:ee:fe:29:07:8a:88:f0:79:9d:81:87:2b:
                    e9:6e:9b:f6:36:f9:a5:34:c5:ce:8e:08:2b:c7:aa:
                    73:57:ab:9e:d1:e7:36:bf:0f:e2:7c:1f:7b:06:0e:
                    26:5e:b6:a2:bf:df:64:46:53:ce:53:cc:a5:78:89:
                    17:e1:bf:1c:55:c1:c9:31:07:fb:30:b2:a1:e7:5b:
                    8c:8c:48:a4:b7:d1:55:aa:5d:e0:8f:d9:bf:d2:88:
                    70:a6:fd:bf:5f:16:0f:41:7c:86:69:7d:ec:e7:d6:
                    b1:83:54:33:60:31:03:02:52:9c:97:f4:0a:5a:9c:
                    31:6a:88:6b:a0:c4:b9:cb:b7:4f:20:ac:2e:e1:96:
                    00:71:dc:6d:05:b7:da:a4:1c:de:58:d7:14:00:be:
                    14:72:48:23:87:c5:d1:d9:a9:29:6a:73:71:30:8c:
                    24:15:f1:fe:8b:4f:e9:09:c1:97:c9:c2:64:94:2b:
                    cf:36:80:b5:8d:2a:12:85:91:89:55:6c:aa:70:6e:
                    f3:c4:3f
                Exponent: 65537 (0x10001)
        X509v3 extensions:
            X509v3 Basic Constraints: 
                CA:FALSE
            Netscape Comment: 
                Easy-RSA Generated Certificate
            X509v3 Subject Key Identifier: 
                FF:23:52:D1:A2:A4:AD:2B:63:D2:C6:A6:74:27:CF:1B:56:28:08:B8
            X509v3 Authority Key Identifier: 
                keyid:EF:38:8D:14:50:58:A7:5B:4D:9C:17:72:FC:DF:B9:AC:A7:51:B0:10
                DirName:/C=US/ST=CA/L=SanFrancisco/O=Pixglo, Inc./OU=VPN-CIE/CN=tunnel.pixglo.com/name=Bala Chandrasekaran/emailAddress=bala@pixglo.com
                serial:A6:DB:C6:83:80:E6:A0:79

            X509v3 Extended Key Usage: 
                TLS Web Client Authentication
            X509v3 Key Usage: 
                Digital Signature
    Signature Algorithm: sha1WithRSAEncryption
         dc:08:af:f2:f1:3b:d8:6c:88:d6:2b:ca:dd:51:da:c6:eb:1a:
         ff:26:c8:32:94:48:ea:ec:4a:14:14:e8:fc:b5:35:ec:5b:ac:
         f6:79:c1:50:d6:51:2f:03:4b:36:fd:ae:46:a5:ff:c7:41:a2:
         3c:b5:75:cc:4d:03:f2:04:20:af:3d:f7:2a:d4:84:c6:54:c8:
         a6:e9:f1:1f:f6:88:eb:19:c9:51:66:e7:01:45:34:f8:f7:d3:
         cb:51:37:32:30:95:9c:84:b5:90:00:dd:7b:ec:31:bd:3f:8d:
         14:6d:ea:49:55:aa:22:bf:0c:91:75:85:b9:ab:c6:a3:72:d6:
         cf:14:e9:07:bb:e1:a4:e4:5f:61:4f:e5:66:15:4e:4c:9e:d8:
         0a:76:08:1a:08:88:ec:1a:e4:11:f2:9a:07:f0:5d:55:ea:ae:
         b7:f9:a9:8a:b1:a6:12:84:83:38:02:85:07:66:78:35:0e:97:
         9d:a7:11:6e:28:a1:51:36:7f:75:48:b7:77:a0:69:00:de:05:
         20:63:3b:3e:a1:24:c7:81:9d:fb:33:29:4d:b9:e1:83:e6:0d:
         ec:08:7d:04:c7:eb:55:c3:b8:f6:5b:68:2e:08:93:01:16:c2:
         33:52:5d:c6:4f:bb:c7:b0:37:4e:bb:09:69:7a:c6:97:d3:62:
         f5:f1:e3:32:96:68:de:68:7a:a4:22:9d:c1:81:c1:ed:43:59:
         08:b6:f7:b2:eb:79:55:f8:86:4e:41:fb:a4:61:de:51:b9:f4:
         95:12:e3:57:3e:11:5a:b9:d2:49:86:33:66:6f:41:46:b8:fe:
         f4:fe:87:ee:4c:c7:a7:4a:5e:bf:93:c7:07:b9:39:c1:93:a6:
         0e:35:19:48:58:c6:78:80:07:99:d6:e8:12:2e:db:cd:11:2e:
         e2:d9:6f:d7:83:ac:b2:a5:bb:f8:37:29:a4:01:b0:d0:7d:e9:
         2b:ad:2b:94:ef:f2:80:90:74:4a:14:3b:57:7e:ef:4b:10:d1:
         ad:cf:87:47:ba:99:e3:7d:e4:43:3e:c5:cc:d7:b2:f4:94:3f:
         62:30:39:b6:07:fe:f5:64:cc:82:25:ca:d3:f4:3e:3b:f0:76:
         6c:7a:cf:19:be:dc:ad:e0:97:74:9d:ca:f1:76:7f:87:ce:0a:
         ec:a0:f2:9d:b4:6e:89:a9:d8:4b:4a:86:cd:c8:23:cd:a8:b2:
         01:0b:cb:41:13:4f:b8:a2:6e:c9:ef:d2:b5:55:7d:cf:00:91:
         5e:54:29:a1:81:c0:bd:73:0a:f0:98:78:bb:47:10:2c:13:47:
         9b:49:4a:52:3d:b1:e0:9e:ac:df:d7:30:0b:8b:80:77:64:a1:
         1f:83:ed:9a:86:24:80:85
-----BEGIN CERTIFICATE-----
MIIHSDCCBTCgAwIBAgICAjAwDQYJKoZIhvcNAQEFBQAwgbQxCzAJBgNVBAYTAlVT
MQswCQYDVQQIEwJDQTEVMBMGA1UEBxMMU2FuRnJhbmNpc2NvMRUwEwYDVQQKEwxQ
aXhnbG8sIEluYy4xEDAOBgNVBAsTB1ZQTi1DSUUxGjAYBgNVBAMTEXR1bm5lbC5w
aXhnbG8uY29tMRwwGgYDVQQpExNCYWxhIENoYW5kcmFzZWthcmFuMR4wHAYJKoZI
hvcNAQkBFg9iYWxhQHBpeGdsby5jb20wHhcNMTgwMjE0MDYzNzA4WhcNMjgwMjEy
MDYzNzA4WjCBqTELMAkGA1UEBhMCVVMxCzAJBgNVBAgTAkNBMRUwEwYDVQQHEwxT
YW5GcmFuY2lzY28xFTATBgNVBAoTDFBpeGdsbywgSW5jLjEQMA4GA1UECxMHVlBO
LUNJRTEPMA0GA1UEAxMGY2llNTU5MRwwGgYDVQQpExNCYWxhIENoYW5kcmFzZWth
cmFuMR4wHAYJKoZIhvcNAQkBFg9iYWxhQHBpeGdsby5jb20wggIiMA0GCSqGSIb3
DQEBAQUAA4ICDwAwggIKAoICAQC6gDvQILN8NyR67aukGohdSFQSCuNsH6ZUZZNY
86UQZ6gIWO9Pjnb7jy1AhlkUxqAtZt8YADNDA0nY1RRQ/9wFf/CsLxmCqVMrUBG+
knXBEIWZg/ubfT2wfUzpnwCcv51PSjcz41iL/Mi3eeLFBNvAs0fAgi5s2BVs9La9
9S/2LRQJzj9DK48JpGYGJIuVe8OVvUlq4ScuzA456aBMqPlI6P2HT0BW0ZuH4dTL
/IqY7fZSAbMLFliv/q8t8NUn9mAkqMzXBESgXlu7SUlWhaesrztM2DwZKsgfu88N
kHyodAAGWMu5ri36u0m3wyb3g4PUd2VmpVKIBnfpw3Fr9WZ/zDBqb8111LTDdB3I
jV6cQmKrCv/AVGqsppCXxpfVdjXPL2sVkh5/j1G7h9AWPsrlXegerDG6/KxuphWm
sO7+KQeKiPB5nYGHK+lum/Y2+aU0xc6OCCvHqnNXq57R5za/D+J8H3sGDiZetqK/
32RGU85TzKV4iRfhvxxVwckxB/swsqHnW4yMSKS30VWqXeCP2b/SiHCm/b9fFg9B
fIZpfezn1rGDVDNgMQMCUpyX9ApanDFqiGugxLnLt08grC7hlgBx3G0Ft9qkHN5Y
1xQAvhRySCOHxdHZqSlqc3EwjCQV8f6LT+kJwZfJwmSUK882gLWNKhKFkYlVbKpw
bvPEPwIDAQABo4IBazCCAWcwCQYDVR0TBAIwADAtBglghkgBhvhCAQ0EIBYeRWFz
eS1SU0EgR2VuZXJhdGVkIENlcnRpZmljYXRlMB0GA1UdDgQWBBT/I1LRoqStK2PS
xqZ0J88bVigIuDCB6QYDVR0jBIHhMIHegBTvOI0UUFinW02cF3L837msp1GwEKGB
uqSBtzCBtDELMAkGA1UEBhMCVVMxCzAJBgNVBAgTAkNBMRUwEwYDVQQHEwxTYW5G
cmFuY2lzY28xFTATBgNVBAoTDFBpeGdsbywgSW5jLjEQMA4GA1UECxMHVlBOLUNJ
RTEaMBgGA1UEAxMRdHVubmVsLnBpeGdsby5jb20xHDAaBgNVBCkTE0JhbGEgQ2hh
bmRyYXNla2FyYW4xHjAcBgkqhkiG9w0BCQEWD2JhbGFAcGl4Z2xvLmNvbYIJAKbb
xoOA5qB5MBMGA1UdJQQMMAoGCCsGAQUFBwMCMAsGA1UdDwQEAwIHgDANBgkqhkiG
9w0BAQUFAAOCAgEA3Aiv8vE72GyI1ivK3VHaxusa/ybIMpRI6uxKFBTo/LU17Fus
9nnBUNZRLwNLNv2uRqX/x0GiPLV1zE0D8gQgrz33KtSExlTIpunxH/aI6xnJUWbn
AUU0+PfTy1E3MjCVnIS1kADde+wxvT+NFG3qSVWqIr8MkXWFuavGo3LWzxTpB7vh
pORfYU/lZhVOTJ7YCnYIGgiI7BrkEfKaB/BdVequt/mpirGmEoSDOAKFB2Z4NQ6X
nacRbiihUTZ/dUi3d6BpAN4FIGM7PqEkx4Gd+zMpTbnhg+YN7Ah9BMfrVcO49lto
LgiTARbCM1Jdxk+7x7A3TrsJaXrGl9Ni9fHjMpZo3mh6pCKdwYHB7UNZCLb3sut5
VfiGTkH7pGHeUbn0lRLjVz4RWrnSSYYzZm9BRrj+9P6H7kzHp0pev5PHB7k5wZOm
DjUZSFjGeIAHmdboEi7bzREu4tlv14OssqW7+DcppAGw0H3pK60rlO/ygJB0ShQ7
V37vSxDRrc+HR7qZ433kQz7FzNey9JQ/YjA5tgf+9WTMgiXK0/Q+O/B2bHrPGb7c
reCXdJ3K8XZ/h84K7KDynbRuianYS0qGzcgjzaiyAQvLQRNPuKJuye/StVV9zwCR
XlQpoYHAvXMK8Jh4u0cQLBNHm0lKUj2x4J6s39cwC4uAd2ShH4PtmoYkgIU=
-----END CERTIFICATE-----
