Certificate:
    Data:
        Version: 3 (0x2)
        Serial Number: 566 (0x236)
    Signature Algorithm: sha1WithRSAEncryption
        Issuer: C=US, ST=CA, L=SanFrancisco, O=Pixglo, Inc., OU=VPN-CIE, CN=tunnel.pixglo.com/name=Bala Chandrasekaran/emailAddress=bala@pixglo.com
        Validity
            Not Before: Feb 14 06:37:17 2018 GMT
            Not After : Feb 12 06:37:17 2028 GMT
        Subject: C=US, ST=CA, L=SanFrancisco, O=Pixglo, Inc., OU=VPN-CIE, CN=cie565/name=Bala Chandrasekaran/emailAddress=bala@pixglo.com
        Subject Public Key Info:
            Public Key Algorithm: rsaEncryption
                Public-Key: (4096 bit)
                Modulus:
                    00:f2:98:71:30:b8:c7:d9:e8:3f:98:48:ce:17:d6:
                    06:17:9f:70:df:fa:65:06:e5:5b:bd:d6:5a:59:7f:
                    56:8b:0b:79:56:da:0a:5f:1a:35:1d:1b:f2:d3:d2:
                    0a:2f:a8:88:f6:89:d6:f9:b1:f8:f5:53:92:c4:14:
                    6f:76:20:34:e4:cd:90:ea:7b:3d:2b:68:5a:50:1c:
                    60:7c:a8:c3:dc:b5:db:59:1c:4b:c8:6c:7a:1d:40:
                    cf:f9:28:86:2c:06:db:6a:c2:77:5d:d3:ae:e3:42:
                    a8:d6:9c:81:0f:9e:71:b1:ef:70:31:e8:5d:c8:c2:
                    79:16:62:aa:2a:80:a6:9b:ea:8c:04:11:d3:52:84:
                    79:fc:01:c6:2c:84:b6:e9:54:15:5c:41:db:70:9c:
                    be:0f:fe:71:1c:c0:36:39:80:29:02:66:37:9f:fd:
                    13:06:07:a9:03:7c:a1:cc:e9:01:57:4b:68:2f:62:
                    c4:11:78:e3:53:ed:81:cf:24:b2:f2:2e:ee:6c:db:
                    fb:17:9c:04:e4:70:bb:cc:37:87:e8:51:a9:0e:e9:
                    ff:57:07:b4:c3:7b:7d:0e:3b:c4:dd:38:ef:e9:af:
                    1f:38:20:56:37:b0:7a:66:97:53:c4:be:2b:5b:52:
                    08:af:69:da:4e:db:d0:9c:ce:11:16:9e:b3:7a:de:
                    c5:26:d5:eb:ef:dd:cf:93:5f:1e:1b:80:8f:04:33:
                    57:8e:f1:86:d0:70:31:a9:44:a3:f9:21:e2:a0:9a:
                    a9:c1:8a:94:0f:ad:71:0c:46:3f:30:21:bb:24:b0:
                    d6:9f:ee:03:b2:09:38:70:8b:e5:ec:c5:ef:15:71:
                    26:69:94:54:b8:31:5f:27:af:e2:a3:22:89:8d:f6:
                    bc:fe:ed:db:91:cb:9c:fe:5f:56:08:31:f2:c6:a3:
                    03:3b:77:6d:5c:e1:0f:07:20:53:e1:d2:a5:04:06:
                    eb:53:53:e1:4b:61:f6:ce:fb:3a:cc:7c:27:e5:24:
                    9d:28:fa:45:29:7f:3f:4e:c5:c5:29:63:c3:78:4b:
                    c2:60:64:eb:33:64:2c:08:6a:ba:93:3c:cb:f8:8f:
                    da:f8:c5:87:43:c8:3c:c9:66:61:07:e7:98:4f:0f:
                    7a:56:41:93:8a:ce:5a:ea:cf:da:d7:53:f3:a8:b9:
                    70:af:86:bd:a7:4d:b5:d6:6e:c0:32:19:e7:64:a8:
                    d2:94:3e:30:db:01:4b:84:ec:c7:fb:7e:29:08:b2:
                    9c:95:82:ce:97:d3:1c:f9:02:5f:05:cc:9b:75:10:
                    57:fa:55:64:1b:04:f3:5b:d7:34:14:bb:29:66:85:
                    68:dd:c2:d3:74:11:9c:bd:d1:0a:38:5a:e9:41:1f:
                    c2:b1:91
                Exponent: 65537 (0x10001)
        X509v3 extensions:
            X509v3 Basic Constraints: 
                CA:FALSE
            Netscape Comment: 
                Easy-RSA Generated Certificate
            X509v3 Subject Key Identifier: 
                30:7A:EE:C4:DE:14:7C:31:34:89:1D:D2:D5:C3:55:8C:46:44:08:1F
            X509v3 Authority Key Identifier: 
                keyid:EF:38:8D:14:50:58:A7:5B:4D:9C:17:72:FC:DF:B9:AC:A7:51:B0:10
                DirName:/C=US/ST=CA/L=SanFrancisco/O=Pixglo, Inc./OU=VPN-CIE/CN=tunnel.pixglo.com/name=Bala Chandrasekaran/emailAddress=bala@pixglo.com
                serial:A6:DB:C6:83:80:E6:A0:79

            X509v3 Extended Key Usage: 
                TLS Web Client Authentication
            X509v3 Key Usage: 
                Digital Signature
    Signature Algorithm: sha1WithRSAEncryption
         6a:fd:70:a4:1e:f8:78:50:ea:87:62:3f:af:aa:4d:d5:81:8e:
         18:43:43:2d:4d:c4:c4:a9:63:19:8c:2b:44:58:f2:be:23:21:
         e1:35:0e:a3:28:a1:55:14:af:28:bb:ed:1c:41:81:0c:c8:2c:
         27:46:aa:26:c1:dd:cb:ef:b5:79:dc:b7:8a:b7:91:79:24:8d:
         38:da:d6:84:16:de:36:2a:ee:ff:77:eb:dc:2b:26:c3:e4:8f:
         1b:6b:bd:60:b4:93:99:ab:62:0e:44:c0:07:3b:32:f6:15:3c:
         35:07:74:0c:ed:f1:1c:48:42:c2:38:df:5b:9e:b7:94:8e:23:
         0d:c4:a7:0e:43:b4:60:c1:b8:f4:c9:24:a9:ef:5a:0e:a8:5a:
         5e:22:8c:a2:b7:89:28:97:aa:20:4d:a3:f3:b8:94:57:70:9f:
         71:f8:75:e9:b8:82:30:20:b4:15:da:f7:28:ab:19:db:c8:f1:
         60:e2:c6:0b:f0:cf:ab:c1:97:40:35:c8:f1:91:6a:41:47:89:
         23:a3:1d:3f:7b:11:2d:99:43:44:f7:f8:17:bd:94:5c:8c:c8:
         e5:13:68:03:10:5e:f9:0e:00:04:f1:d4:9b:18:a2:b9:07:02:
         48:6a:0b:a3:a9:0e:c0:64:8e:5a:25:49:14:12:1d:ab:9f:f6:
         db:62:6d:bf:3c:df:a3:b8:ec:b3:b0:a0:ca:4f:fd:e2:de:71:
         77:db:63:f9:43:df:a8:8e:90:fa:3f:07:f3:df:98:9b:aa:dd:
         46:9f:e9:63:6c:a1:37:68:2e:14:52:a0:35:f3:d5:22:66:e1:
         38:cd:13:f3:e0:64:2c:1e:1a:9f:fa:13:a7:8e:9d:be:76:3c:
         41:4b:ad:41:98:2c:36:72:13:21:65:13:ed:48:14:20:af:31:
         6f:d2:65:b6:36:70:ca:2c:0d:cb:84:96:54:b9:c9:2e:d8:17:
         50:49:bd:83:af:c7:e0:c0:92:a3:49:10:fb:12:c4:94:2d:43:
         9b:f0:41:80:d0:74:65:7f:7f:a6:55:8f:24:be:f8:ea:c2:46:
         ef:b4:93:f7:ae:ac:b9:e6:4b:7a:34:b9:70:c9:1b:75:7e:9a:
         66:9f:e9:12:2a:eb:46:f8:b7:c0:99:be:93:16:d7:17:91:32:
         c1:b1:ee:c1:97:2d:2b:6a:4a:38:67:23:d8:20:41:6a:46:22:
         fa:5a:67:5f:63:ee:db:f2:32:1a:63:17:68:39:a6:50:02:98:
         a1:01:36:4b:19:6e:d6:11:c6:4c:6c:66:b8:ee:9b:f9:01:5c:
         ec:0c:c0:15:cb:9f:1d:d6:e6:3f:28:7b:7b:15:8f:04:02:ae:
         0f:5f:0e:4e:26:9b:aa:25
-----BEGIN CERTIFICATE-----
MIIHSDCCBTCgAwIBAgICAjYwDQYJKoZIhvcNAQEFBQAwgbQxCzAJBgNVBAYTAlVT
MQswCQYDVQQIEwJDQTEVMBMGA1UEBxMMU2FuRnJhbmNpc2NvMRUwEwYDVQQKEwxQ
aXhnbG8sIEluYy4xEDAOBgNVBAsTB1ZQTi1DSUUxGjAYBgNVBAMTEXR1bm5lbC5w
aXhnbG8uY29tMRwwGgYDVQQpExNCYWxhIENoYW5kcmFzZWthcmFuMR4wHAYJKoZI
hvcNAQkBFg9iYWxhQHBpeGdsby5jb20wHhcNMTgwMjE0MDYzNzE3WhcNMjgwMjEy
MDYzNzE3WjCBqTELMAkGA1UEBhMCVVMxCzAJBgNVBAgTAkNBMRUwEwYDVQQHEwxT
YW5GcmFuY2lzY28xFTATBgNVBAoTDFBpeGdsbywgSW5jLjEQMA4GA1UECxMHVlBO
LUNJRTEPMA0GA1UEAxMGY2llNTY1MRwwGgYDVQQpExNCYWxhIENoYW5kcmFzZWth
cmFuMR4wHAYJKoZIhvcNAQkBFg9iYWxhQHBpeGdsby5jb20wggIiMA0GCSqGSIb3
DQEBAQUAA4ICDwAwggIKAoICAQDymHEwuMfZ6D+YSM4X1gYXn3Df+mUG5Vu91lpZ
f1aLC3lW2gpfGjUdG/LT0govqIj2idb5sfj1U5LEFG92IDTkzZDqez0raFpQHGB8
qMPctdtZHEvIbHodQM/5KIYsBttqwndd067jQqjWnIEPnnGx73Ax6F3IwnkWYqoq
gKab6owEEdNShHn8AcYshLbpVBVcQdtwnL4P/nEcwDY5gCkCZjef/RMGB6kDfKHM
6QFXS2gvYsQReONT7YHPJLLyLu5s2/sXnATkcLvMN4foUakO6f9XB7TDe30OO8Td
OO/prx84IFY3sHpml1PEvitbUgivadpO29CczhEWnrN63sUm1evv3c+TXx4bgI8E
M1eO8YbQcDGpRKP5IeKgmqnBipQPrXEMRj8wIbsksNaf7gOyCThwi+Xsxe8VcSZp
lFS4MV8nr+KjIomN9rz+7duRy5z+X1YIMfLGowM7d21c4Q8HIFPh0qUEButTU+FL
YfbO+zrMfCflJJ0o+kUpfz9OxcUpY8N4S8JgZOszZCwIarqTPMv4j9r4xYdDyDzJ
ZmEH55hPD3pWQZOKzlrqz9rXU/OouXCvhr2nTbXWbsAyGedkqNKUPjDbAUuE7Mf7
fikIspyVgs6X0xz5Al8FzJt1EFf6VWQbBPNb1zQUuylmhWjdwtN0EZy90Qo4WulB
H8KxkQIDAQABo4IBazCCAWcwCQYDVR0TBAIwADAtBglghkgBhvhCAQ0EIBYeRWFz
eS1SU0EgR2VuZXJhdGVkIENlcnRpZmljYXRlMB0GA1UdDgQWBBQweu7E3hR8MTSJ
HdLVw1WMRkQIHzCB6QYDVR0jBIHhMIHegBTvOI0UUFinW02cF3L837msp1GwEKGB
uqSBtzCBtDELMAkGA1UEBhMCVVMxCzAJBgNVBAgTAkNBMRUwEwYDVQQHEwxTYW5G
cmFuY2lzY28xFTATBgNVBAoTDFBpeGdsbywgSW5jLjEQMA4GA1UECxMHVlBOLUNJ
RTEaMBgGA1UEAxMRdHVubmVsLnBpeGdsby5jb20xHDAaBgNVBCkTE0JhbGEgQ2hh
bmRyYXNla2FyYW4xHjAcBgkqhkiG9w0BCQEWD2JhbGFAcGl4Z2xvLmNvbYIJAKbb
xoOA5qB5MBMGA1UdJQQMMAoGCCsGAQUFBwMCMAsGA1UdDwQEAwIHgDANBgkqhkiG
9w0BAQUFAAOCAgEAav1wpB74eFDqh2I/r6pN1YGOGENDLU3ExKljGYwrRFjyviMh
4TUOoyihVRSvKLvtHEGBDMgsJ0aqJsHdy++1edy3ireReSSNONrWhBbeNiru/3fr
3Csmw+SPG2u9YLSTmatiDkTABzsy9hU8NQd0DO3xHEhCwjjfW563lI4jDcSnDkO0
YMG49Mkkqe9aDqhaXiKMoreJKJeqIE2j87iUV3Cfcfh16biCMCC0Fdr3KKsZ28jx
YOLGC/DPq8GXQDXI8ZFqQUeJI6MdP3sRLZlDRPf4F72UXIzI5RNoAxBe+Q4ABPHU
mxiiuQcCSGoLo6kOwGSOWiVJFBIdq5/222Jtvzzfo7jss7Cgyk/94t5xd9tj+UPf
qI6Q+j8H89+Ym6rdRp/pY2yhN2guFFKgNfPVImbhOM0T8+BkLB4an/oTp46dvnY8
QUutQZgsNnITIWUT7UgUIK8xb9JltjZwyiwNy4SWVLnJLtgXUEm9g6/H4MCSo0kQ
+xLElC1Dm/BBgNB0ZX9/plWPJL746sJG77ST966sueZLejS5cMkbdX6aZp/pEirr
Rvi3wJm+kxbXF5EywbHuwZctK2pKOGcj2CBBakYi+lpnX2Pu2/IyGmMXaDmmUAKY
oQE2Sxlu1hHGTGxmuO6b+QFc7AzAFcufHdbmPyh7exWPBAKuD18OTiabqiU=
-----END CERTIFICATE-----
