Certificate:
    Data:
        Version: 3 (0x2)
        Serial Number: 567 (0x237)
    Signature Algorithm: sha1WithRSAEncryption
        Issuer: C=US, ST=CA, L=SanFrancisco, O=Pixglo, Inc., OU=VPN-CIE, CN=tunnel.pixglo.com/name=Bala Chandrasekaran/emailAddress=bala@pixglo.com
        Validity
            Not Before: Feb 14 06:37:18 2018 GMT
            Not After : Feb 12 06:37:18 2028 GMT
        Subject: C=US, ST=CA, L=SanFrancisco, O=Pixglo, Inc., OU=VPN-CIE, CN=cie566/name=Bala Chandrasekaran/emailAddress=bala@pixglo.com
        Subject Public Key Info:
            Public Key Algorithm: rsaEncryption
                Public-Key: (4096 bit)
                Modulus:
                    00:e6:f2:db:84:b0:da:e2:92:30:58:0e:ef:23:45:
                    e2:d1:0e:1a:84:57:a9:4e:50:39:18:ad:7a:e0:49:
                    e4:67:02:0e:a7:99:2c:ab:b2:a3:34:58:3a:b5:21:
                    f9:fc:29:40:31:31:61:a9:d7:f7:a9:e3:ba:1b:7e:
                    46:5a:db:03:ea:5d:62:af:0a:bd:55:44:7c:9e:26:
                    9d:0c:9c:7a:bb:08:17:5a:00:cc:a3:c6:fb:23:94:
                    57:4b:e6:42:ba:29:b1:36:6c:3b:1c:a6:de:ef:40:
                    2d:bf:6e:63:a3:87:5a:7c:c6:5c:c5:4c:b3:da:11:
                    4f:0b:1b:10:02:92:d4:83:08:ca:51:fb:89:80:11:
                    94:d3:cd:f4:fe:36:5e:d8:ed:a5:c5:61:1e:47:8a:
                    5f:e2:36:bd:18:4d:b4:69:4a:ca:01:a7:46:24:75:
                    0a:c1:6b:6b:61:93:01:76:e7:27:19:9a:99:fe:fa:
                    4f:01:52:87:35:17:5e:76:6c:37:2a:64:ac:50:d9:
                    2c:d5:3c:86:9c:72:80:3a:bd:22:0b:ab:de:f6:91:
                    5b:69:93:12:1c:ad:af:6a:35:52:f8:f7:b7:ee:f5:
                    e9:94:6c:98:9d:87:cf:17:c6:e8:57:1f:45:81:89:
                    b7:09:1f:a2:8c:77:73:99:c4:70:3d:e1:ec:e1:43:
                    75:ce:b8:0b:dc:9c:23:33:86:b7:26:a9:e8:9a:78:
                    42:f9:a3:81:da:6b:92:09:74:b7:bb:47:f8:73:84:
                    0a:82:0f:ee:e8:41:d8:f2:c7:4c:2d:e9:2a:be:2f:
                    96:be:31:cf:a5:c3:e3:c0:e9:b2:ee:7d:83:81:12:
                    6d:a0:fe:71:16:04:73:fd:56:2d:c2:7a:e6:06:45:
                    f4:96:f1:36:88:54:01:09:1c:d7:65:20:db:c8:20:
                    bb:5c:6c:34:3c:f5:e1:e6:41:a6:e9:cd:94:71:f0:
                    c4:70:1e:42:e0:f7:54:34:b5:28:30:21:1e:ec:d9:
                    b3:77:ea:83:d5:69:4d:5a:68:5e:e0:7e:c1:ad:1e:
                    b4:48:fd:c9:07:91:ff:6a:e5:d9:13:73:d0:b1:ab:
                    6e:92:b4:1d:e6:4e:c8:2a:8f:53:bc:17:3f:4c:ea:
                    0a:09:c0:19:63:5a:cd:3f:0e:48:d6:69:56:90:2b:
                    b8:66:2c:6f:9b:43:d8:44:88:3d:e4:e5:1d:b5:02:
                    32:bf:e3:f8:f6:b2:35:c6:f3:56:12:eb:7d:06:5f:
                    ac:11:d5:c1:ae:21:b8:64:5c:e6:9a:03:0c:5e:e3:
                    c0:f0:b5:5f:6e:af:34:25:cc:e8:74:60:6e:cb:a7:
                    2f:c1:26:10:63:d9:10:ad:d8:f9:dd:76:9d:9a:78:
                    42:8f:65
                Exponent: 65537 (0x10001)
        X509v3 extensions:
            X509v3 Basic Constraints: 
                CA:FALSE
            Netscape Comment: 
                Easy-RSA Generated Certificate
            X509v3 Subject Key Identifier: 
                12:9B:C1:E1:44:E4:91:04:AE:86:A2:CF:5D:B0:DD:65:75:D4:45:04
            X509v3 Authority Key Identifier: 
                keyid:EF:38:8D:14:50:58:A7:5B:4D:9C:17:72:FC:DF:B9:AC:A7:51:B0:10
                DirName:/C=US/ST=CA/L=SanFrancisco/O=Pixglo, Inc./OU=VPN-CIE/CN=tunnel.pixglo.com/name=Bala Chandrasekaran/emailAddress=bala@pixglo.com
                serial:A6:DB:C6:83:80:E6:A0:79

            X509v3 Extended Key Usage: 
                TLS Web Client Authentication
            X509v3 Key Usage: 
                Digital Signature
    Signature Algorithm: sha1WithRSAEncryption
         bc:87:36:cf:b6:09:16:76:6a:30:00:3b:b4:48:72:31:26:cc:
         65:9c:b5:eb:69:0a:1b:fc:45:df:6e:22:b6:54:9d:45:2f:d7:
         6e:f9:5e:63:07:c0:6c:e0:54:06:66:d5:df:96:7a:a1:3a:0f:
         15:60:d9:20:02:a0:15:56:91:38:86:cc:9b:4c:fd:db:cd:d6:
         cf:33:ae:f3:ed:7f:ec:cb:c9:49:10:9f:0d:57:49:03:5b:d5:
         e1:3c:50:3d:b5:e3:38:98:a5:41:bf:d5:ea:99:7a:ea:30:9b:
         1b:aa:28:ce:b5:32:3a:22:ec:a7:c5:c1:7d:87:fd:67:39:39:
         55:42:63:8a:a3:6f:87:3f:7b:40:cb:96:75:46:28:0a:db:d2:
         55:f4:e0:7b:28:ee:cb:80:a2:98:dc:37:e7:c4:80:10:55:d9:
         4b:95:f1:26:b8:79:3b:a0:f4:87:2f:4b:ba:6c:67:f4:18:8c:
         26:4c:02:1c:5d:0a:ee:de:e9:e8:c0:7e:cb:05:78:b0:0d:52:
         10:ca:0d:fe:6b:e4:0e:0d:32:0a:3b:f2:ff:82:35:ce:06:d5:
         27:51:81:4c:8d:76:43:a0:ad:f0:22:75:59:5a:ff:9e:09:19:
         e6:05:7d:61:b6:92:20:5d:95:6d:c0:2b:a8:86:0d:cd:cf:51:
         08:ec:21:6b:42:9e:d8:87:3e:2d:93:b7:c2:8e:67:82:50:a9:
         93:64:0a:14:9e:2e:81:41:1e:61:d5:a1:53:6c:d7:6b:d1:a8:
         bf:12:22:77:81:78:41:8b:d9:2e:26:f2:38:e8:70:e9:a9:63:
         0a:58:6f:92:6c:2e:71:42:5b:d7:84:9c:10:ca:76:a4:71:49:
         c5:a7:bd:f2:a7:e0:f0:67:4c:24:f4:2e:37:a5:a4:c3:14:de:
         b4:bf:72:83:8c:e6:2d:13:a6:f8:3b:1b:ff:e3:62:29:49:86:
         db:84:14:7d:69:72:cd:91:82:51:bd:45:1b:1d:7e:9d:1c:3b:
         2d:6d:fa:a7:d7:2e:d0:60:dc:d0:82:76:e3:5a:c4:10:f2:a2:
         39:7e:bd:b0:0f:2b:ef:77:34:63:70:ad:fb:eb:c0:2d:15:8b:
         91:01:0c:ab:7a:f4:93:51:4b:d2:9e:7e:65:d4:4d:3c:57:e0:
         b7:06:8c:c9:22:98:e7:26:df:1f:8e:05:36:66:da:b7:bf:b2:
         66:01:14:40:de:75:72:a7:78:c2:3c:a7:e9:9b:ad:d7:d8:67:
         6b:d1:f9:b6:52:8f:1b:14:13:ce:8c:32:be:fe:c0:2a:04:2d:
         ec:f1:8f:33:7d:71:95:9a:0d:ca:0e:9f:3a:61:e7:4a:b8:13:
         a7:df:8f:34:05:06:eb:1f
-----BEGIN CERTIFICATE-----
MIIHSDCCBTCgAwIBAgICAjcwDQYJKoZIhvcNAQEFBQAwgbQxCzAJBgNVBAYTAlVT
MQswCQYDVQQIEwJDQTEVMBMGA1UEBxMMU2FuRnJhbmNpc2NvMRUwEwYDVQQKEwxQ
aXhnbG8sIEluYy4xEDAOBgNVBAsTB1ZQTi1DSUUxGjAYBgNVBAMTEXR1bm5lbC5w
aXhnbG8uY29tMRwwGgYDVQQpExNCYWxhIENoYW5kcmFzZWthcmFuMR4wHAYJKoZI
hvcNAQkBFg9iYWxhQHBpeGdsby5jb20wHhcNMTgwMjE0MDYzNzE4WhcNMjgwMjEy
MDYzNzE4WjCBqTELMAkGA1UEBhMCVVMxCzAJBgNVBAgTAkNBMRUwEwYDVQQHEwxT
YW5GcmFuY2lzY28xFTATBgNVBAoTDFBpeGdsbywgSW5jLjEQMA4GA1UECxMHVlBO
LUNJRTEPMA0GA1UEAxMGY2llNTY2MRwwGgYDVQQpExNCYWxhIENoYW5kcmFzZWth
cmFuMR4wHAYJKoZIhvcNAQkBFg9iYWxhQHBpeGdsby5jb20wggIiMA0GCSqGSIb3
DQEBAQUAA4ICDwAwggIKAoICAQDm8tuEsNrikjBYDu8jReLRDhqEV6lOUDkYrXrg
SeRnAg6nmSyrsqM0WDq1Ifn8KUAxMWGp1/ep47obfkZa2wPqXWKvCr1VRHyeJp0M
nHq7CBdaAMyjxvsjlFdL5kK6KbE2bDscpt7vQC2/bmOjh1p8xlzFTLPaEU8LGxAC
ktSDCMpR+4mAEZTTzfT+Nl7Y7aXFYR5Hil/iNr0YTbRpSsoBp0YkdQrBa2thkwF2
5ycZmpn++k8BUoc1F152bDcqZKxQ2SzVPIaccoA6vSILq972kVtpkxIcra9qNVL4
97fu9emUbJidh88XxuhXH0WBibcJH6KMd3OZxHA94ezhQ3XOuAvcnCMzhrcmqeia
eEL5o4Haa5IJdLe7R/hzhAqCD+7oQdjyx0wt6Sq+L5a+Mc+lw+PA6bLufYOBEm2g
/nEWBHP9Vi3CeuYGRfSW8TaIVAEJHNdlINvIILtcbDQ89eHmQabpzZRx8MRwHkLg
91Q0tSgwIR7s2bN36oPVaU1aaF7gfsGtHrRI/ckHkf9q5dkTc9Cxq26StB3mTsgq
j1O8Fz9M6goJwBljWs0/DkjWaVaQK7hmLG+bQ9hEiD3k5R21AjK/4/j2sjXG81YS
630GX6wR1cGuIbhkXOaaAwxe48DwtV9urzQlzOh0YG7Lpy/BJhBj2RCt2Pnddp2a
eEKPZQIDAQABo4IBazCCAWcwCQYDVR0TBAIwADAtBglghkgBhvhCAQ0EIBYeRWFz
eS1SU0EgR2VuZXJhdGVkIENlcnRpZmljYXRlMB0GA1UdDgQWBBQSm8HhROSRBK6G
os9dsN1lddRFBDCB6QYDVR0jBIHhMIHegBTvOI0UUFinW02cF3L837msp1GwEKGB
uqSBtzCBtDELMAkGA1UEBhMCVVMxCzAJBgNVBAgTAkNBMRUwEwYDVQQHEwxTYW5G
cmFuY2lzY28xFTATBgNVBAoTDFBpeGdsbywgSW5jLjEQMA4GA1UECxMHVlBOLUNJ
RTEaMBgGA1UEAxMRdHVubmVsLnBpeGdsby5jb20xHDAaBgNVBCkTE0JhbGEgQ2hh
bmRyYXNla2FyYW4xHjAcBgkqhkiG9w0BCQEWD2JhbGFAcGl4Z2xvLmNvbYIJAKbb
xoOA5qB5MBMGA1UdJQQMMAoGCCsGAQUFBwMCMAsGA1UdDwQEAwIHgDANBgkqhkiG
9w0BAQUFAAOCAgEAvIc2z7YJFnZqMAA7tEhyMSbMZZy162kKG/xF324itlSdRS/X
bvleYwfAbOBUBmbV35Z6oToPFWDZIAKgFVaROIbMm0z9283WzzOu8+1/7MvJSRCf
DVdJA1vV4TxQPbXjOJilQb/V6pl66jCbG6oozrUyOiLsp8XBfYf9Zzk5VUJjiqNv
hz97QMuWdUYoCtvSVfTgeyjuy4CimNw358SAEFXZS5XxJrh5O6D0hy9Lumxn9BiM
JkwCHF0K7t7p6MB+ywV4sA1SEMoN/mvkDg0yCjvy/4I1zgbVJ1GBTI12Q6Ct8CJ1
WVr/ngkZ5gV9YbaSIF2VbcArqIYNzc9RCOwha0Ke2Ic+LZO3wo5nglCpk2QKFJ4u
gUEeYdWhU2zXa9GovxIid4F4QYvZLibyOOhw6aljClhvkmwucUJb14ScEMp2pHFJ
xae98qfg8GdMJPQuN6WkwxTetL9yg4zmLROm+Dsb/+NiKUmG24QUfWlyzZGCUb1F
Gx1+nRw7LW36p9cu0GDc0IJ241rEEPKiOX69sA8r73c0Y3Ct++vALRWLkQEMq3r0
k1FL0p5+ZdRNPFfgtwaMySKY5ybfH44FNmbat7+yZgEUQN51cqd4wjyn6Zut19hn
a9H5tlKPGxQTzowyvv7AKgQt7PGPM31xlZoNyg6fOmHnSrgTp9+PNAUG6x8=
-----END CERTIFICATE-----
