Certificate:
    Data:
        Version: 3 (0x2)
        Serial Number: 569 (0x239)
    Signature Algorithm: sha1WithRSAEncryption
        Issuer: C=US, ST=CA, L=SanFrancisco, O=Pixglo, Inc., OU=VPN-CIE, CN=tunnel.pixglo.com/name=Bala Chandrasekaran/emailAddress=bala@pixglo.com
        Validity
            Not Before: Feb 14 06:37:20 2018 GMT
            Not After : Feb 12 06:37:20 2028 GMT
        Subject: C=US, ST=CA, L=SanFrancisco, O=Pixglo, Inc., OU=VPN-CIE, CN=cie568/name=Bala Chandrasekaran/emailAddress=bala@pixglo.com
        Subject Public Key Info:
            Public Key Algorithm: rsaEncryption
                Public-Key: (4096 bit)
                Modulus:
                    00:ce:53:04:1f:18:fc:75:f3:02:52:f9:52:52:6c:
                    42:66:8c:3e:48:15:28:33:dd:62:2d:87:31:4e:0d:
                    0c:dc:02:62:a7:39:01:4e:a6:f3:e6:04:28:32:a0:
                    f4:37:df:6c:4e:0a:bb:a1:3c:e9:e9:20:7a:a4:98:
                    83:47:5e:76:4b:0b:ff:80:5c:e6:dd:95:f1:4d:c0:
                    93:1e:69:4a:c1:2b:97:64:bc:5b:7f:08:c0:69:99:
                    66:46:35:b5:47:40:1d:2c:08:56:2b:f4:78:e4:65:
                    38:2b:3c:e1:5e:96:2f:f9:ca:d7:ca:7d:d4:0c:ca:
                    1c:18:e0:1c:2f:9e:a7:38:6b:d2:bb:58:96:5c:09:
                    6e:33:f6:cd:3a:1d:fa:5c:84:0b:17:7e:a2:46:41:
                    e6:f0:c1:7c:c0:fc:f3:33:f6:5d:2e:f6:2d:d6:14:
                    16:93:83:a4:ed:a0:19:8b:bd:75:7c:94:eb:59:59:
                    bf:d3:ff:0e:bf:9d:cd:fe:10:39:e0:f5:9c:35:04:
                    1c:4e:e9:1f:98:c1:9d:1c:e0:88:00:ca:9d:5b:26:
                    9b:97:d3:93:df:f2:85:cf:7b:26:db:fc:2f:a1:0a:
                    70:f4:e9:4c:69:02:8f:3b:1b:0c:8e:92:28:da:02:
                    bc:40:99:16:4e:dd:12:3a:40:b1:f6:32:3d:02:be:
                    49:f0:c8:37:0b:f8:d9:ff:f9:79:81:69:0b:04:06:
                    d6:84:90:30:1e:43:d4:42:2a:57:58:b1:3c:ad:79:
                    a3:9d:f1:f6:6c:10:da:b1:c4:5f:13:ab:2f:1e:f9:
                    3c:c3:d9:46:d3:56:41:76:7f:70:f1:b8:84:b0:97:
                    43:33:c3:db:ad:c4:b3:c6:96:3d:67:c9:04:3c:0c:
                    47:13:e4:12:8b:e5:5d:9a:10:04:c0:29:83:4f:a9:
                    1f:02:37:62:d7:5f:83:99:10:30:7a:7c:2a:22:10:
                    09:2a:17:32:a0:fb:58:67:d2:21:a7:86:32:5b:e7:
                    13:66:d2:98:cf:5e:e7:64:0c:9d:bc:e0:68:58:d2:
                    86:aa:78:ea:4a:f3:1f:9d:71:e7:90:62:da:ed:c1:
                    af:90:f7:1c:17:c0:88:f3:1e:f4:22:ea:99:2d:63:
                    83:49:a8:69:23:c5:4f:b8:ef:27:0e:1e:55:9d:10:
                    c1:bf:41:ec:36:8e:16:1a:28:4a:9b:4e:44:95:85:
                    33:e4:3b:cb:d3:7a:0f:b1:d5:dc:7e:01:f0:e0:af:
                    74:7f:37:28:7e:05:24:b0:f1:8d:b4:ce:b9:a8:24:
                    84:25:a2:e1:15:87:e7:16:21:4a:37:f0:e8:1e:f4:
                    e0:60:e5:56:36:e4:f7:46:5c:5e:40:42:74:3c:50:
                    d6:50:47
                Exponent: 65537 (0x10001)
        X509v3 extensions:
            X509v3 Basic Constraints: 
                CA:FALSE
            Netscape Comment: 
                Easy-RSA Generated Certificate
            X509v3 Subject Key Identifier: 
                FB:E6:A8:27:16:DC:6F:57:B8:F3:26:3D:D2:83:85:86:53:30:53:80
            X509v3 Authority Key Identifier: 
                keyid:EF:38:8D:14:50:58:A7:5B:4D:9C:17:72:FC:DF:B9:AC:A7:51:B0:10
                DirName:/C=US/ST=CA/L=SanFrancisco/O=Pixglo, Inc./OU=VPN-CIE/CN=tunnel.pixglo.com/name=Bala Chandrasekaran/emailAddress=bala@pixglo.com
                serial:A6:DB:C6:83:80:E6:A0:79

            X509v3 Extended Key Usage: 
                TLS Web Client Authentication
            X509v3 Key Usage: 
                Digital Signature
    Signature Algorithm: sha1WithRSAEncryption
         24:f3:29:f3:98:c5:bf:d5:25:ef:df:2e:3e:42:4b:61:b1:d8:
         4a:e3:a7:09:4f:44:46:d8:fa:6d:db:87:b6:58:7b:47:ea:6c:
         67:59:e0:b3:b1:57:73:4c:d4:e1:e5:ad:a1:9d:14:90:60:07:
         cc:30:81:91:31:76:9a:fe:90:8a:67:da:26:55:5c:11:6f:4e:
         57:1b:d5:05:6c:42:f2:6f:68:46:26:eb:33:61:15:f7:a8:92:
         0d:0e:8c:37:06:b7:e5:35:cb:7e:d8:d6:20:63:e7:47:aa:d9:
         0a:8f:a0:6b:e8:e7:43:64:ec:8e:17:6f:60:63:e4:aa:05:f9:
         ed:82:6c:c1:a3:94:fb:ee:f8:4e:d6:03:95:71:8c:be:8c:ca:
         d1:a5:d8:49:4f:db:5a:09:2a:bd:38:7b:57:78:c3:9b:88:b3:
         aa:af:7b:aa:ef:f0:e4:5c:e5:32:8c:a4:29:92:93:38:02:e1:
         5b:7d:9a:19:e8:6e:71:e1:93:f9:59:b4:c7:67:b5:0a:bc:4f:
         f9:dd:85:fa:46:cb:20:d7:65:50:58:d5:e7:87:3d:22:27:47:
         ca:87:29:3f:e8:88:92:3a:3f:ee:a2:37:cb:a6:57:b0:06:2b:
         d2:5a:10:b2:70:20:01:9e:03:67:21:86:46:70:62:1e:43:e3:
         2d:e8:8a:67:0d:66:e3:d3:ea:c2:db:15:6b:59:46:aa:ac:5a:
         a5:08:6d:11:6a:14:f0:22:dd:f0:ce:ef:a4:1f:ff:c9:12:cd:
         ec:5b:fa:ac:d1:99:fe:26:b1:cd:99:b6:0a:1b:ab:0c:2a:8e:
         5b:92:06:d3:fb:7a:be:4c:8f:f8:46:cd:6e:13:82:3a:5d:11:
         3e:46:be:2f:11:7c:c9:b4:69:e4:84:41:d2:ad:19:c1:ce:a8:
         a3:e3:a2:a0:f8:6d:b9:8c:b6:72:2f:8c:4f:60:0d:c2:cf:64:
         a9:90:f0:ce:4a:b0:c7:2f:3c:c0:4c:72:a5:5b:7d:d6:f0:e1:
         81:b4:18:f2:1a:3e:26:83:60:fc:9e:d8:dd:ae:e8:7f:19:00:
         d7:cb:79:47:31:48:bc:91:ce:b2:42:5c:98:46:29:6b:f8:8f:
         a3:f3:93:fd:64:e7:e7:f2:53:62:ef:5a:a3:95:0f:6d:2f:28:
         1f:a3:83:1e:1f:58:b5:83:60:25:4b:c5:9a:6d:60:14:89:bd:
         1b:da:cb:74:8b:3f:f8:75:e4:89:6b:c6:ef:01:fb:fb:7b:e9:
         a9:37:f4:ea:00:0f:08:84:f1:91:0c:c3:0b:f8:aa:3a:85:cf:
         1a:79:ce:d0:00:a6:62:91:b7:5d:3d:ad:ec:d4:f6:8a:04:c8:
         6d:a0:f9:0c:6f:c6:36:c4
-----BEGIN CERTIFICATE-----
MIIHSDCCBTCgAwIBAgICAjkwDQYJKoZIhvcNAQEFBQAwgbQxCzAJBgNVBAYTAlVT
MQswCQYDVQQIEwJDQTEVMBMGA1UEBxMMU2FuRnJhbmNpc2NvMRUwEwYDVQQKEwxQ
aXhnbG8sIEluYy4xEDAOBgNVBAsTB1ZQTi1DSUUxGjAYBgNVBAMTEXR1bm5lbC5w
aXhnbG8uY29tMRwwGgYDVQQpExNCYWxhIENoYW5kcmFzZWthcmFuMR4wHAYJKoZI
hvcNAQkBFg9iYWxhQHBpeGdsby5jb20wHhcNMTgwMjE0MDYzNzIwWhcNMjgwMjEy
MDYzNzIwWjCBqTELMAkGA1UEBhMCVVMxCzAJBgNVBAgTAkNBMRUwEwYDVQQHEwxT
YW5GcmFuY2lzY28xFTATBgNVBAoTDFBpeGdsbywgSW5jLjEQMA4GA1UECxMHVlBO
LUNJRTEPMA0GA1UEAxMGY2llNTY4MRwwGgYDVQQpExNCYWxhIENoYW5kcmFzZWth
cmFuMR4wHAYJKoZIhvcNAQkBFg9iYWxhQHBpeGdsby5jb20wggIiMA0GCSqGSIb3
DQEBAQUAA4ICDwAwggIKAoICAQDOUwQfGPx18wJS+VJSbEJmjD5IFSgz3WIthzFO
DQzcAmKnOQFOpvPmBCgyoPQ332xOCruhPOnpIHqkmINHXnZLC/+AXObdlfFNwJMe
aUrBK5dkvFt/CMBpmWZGNbVHQB0sCFYr9HjkZTgrPOFeli/5ytfKfdQMyhwY4Bwv
nqc4a9K7WJZcCW4z9s06HfpchAsXfqJGQebwwXzA/PMz9l0u9i3WFBaTg6TtoBmL
vXV8lOtZWb/T/w6/nc3+EDng9Zw1BBxO6R+YwZ0c4IgAyp1bJpuX05Pf8oXPeybb
/C+hCnD06UxpAo87GwyOkijaArxAmRZO3RI6QLH2Mj0CvknwyDcL+Nn/+XmBaQsE
BtaEkDAeQ9RCKldYsTyteaOd8fZsENqxxF8Tqy8e+TzD2UbTVkF2f3DxuISwl0Mz
w9utxLPGlj1nyQQ8DEcT5BKL5V2aEATAKYNPqR8CN2LXX4OZEDB6fCoiEAkqFzKg
+1hn0iGnhjJb5xNm0pjPXudkDJ284GhY0oaqeOpK8x+dceeQYtrtwa+Q9xwXwIjz
HvQi6pktY4NJqGkjxU+47ycOHlWdEMG/Qew2jhYaKEqbTkSVhTPkO8vTeg+x1dx+
AfDgr3R/Nyh+BSSw8Y20zrmoJIQlouEVh+cWIUo38Oge9OBg5VY25PdGXF5AQnQ8
UNZQRwIDAQABo4IBazCCAWcwCQYDVR0TBAIwADAtBglghkgBhvhCAQ0EIBYeRWFz
eS1SU0EgR2VuZXJhdGVkIENlcnRpZmljYXRlMB0GA1UdDgQWBBT75qgnFtxvV7jz
Jj3Sg4WGUzBTgDCB6QYDVR0jBIHhMIHegBTvOI0UUFinW02cF3L837msp1GwEKGB
uqSBtzCBtDELMAkGA1UEBhMCVVMxCzAJBgNVBAgTAkNBMRUwEwYDVQQHEwxTYW5G
cmFuY2lzY28xFTATBgNVBAoTDFBpeGdsbywgSW5jLjEQMA4GA1UECxMHVlBOLUNJ
RTEaMBgGA1UEAxMRdHVubmVsLnBpeGdsby5jb20xHDAaBgNVBCkTE0JhbGEgQ2hh
bmRyYXNla2FyYW4xHjAcBgkqhkiG9w0BCQEWD2JhbGFAcGl4Z2xvLmNvbYIJAKbb
xoOA5qB5MBMGA1UdJQQMMAoGCCsGAQUFBwMCMAsGA1UdDwQEAwIHgDANBgkqhkiG
9w0BAQUFAAOCAgEAJPMp85jFv9Ul798uPkJLYbHYSuOnCU9ERtj6bduHtlh7R+ps
Z1ngs7FXc0zU4eWtoZ0UkGAHzDCBkTF2mv6QimfaJlVcEW9OVxvVBWxC8m9oRibr
M2EV96iSDQ6MNwa35TXLftjWIGPnR6rZCo+ga+jnQ2TsjhdvYGPkqgX57YJswaOU
++74TtYDlXGMvozK0aXYSU/bWgkqvTh7V3jDm4izqq97qu/w5FzlMoykKZKTOALh
W32aGehuceGT+Vm0x2e1CrxP+d2F+kbLINdlUFjV54c9IidHyocpP+iIkjo/7qI3
y6ZXsAYr0loQsnAgAZ4DZyGGRnBiHkPjLeiKZw1m49PqwtsVa1lGqqxapQhtEWoU
8CLd8M7vpB//yRLN7Fv6rNGZ/iaxzZm2ChurDCqOW5IG0/t6vkyP+EbNbhOCOl0R
Pka+LxF8ybRp5IRB0q0Zwc6oo+OioPhtuYy2ci+MT2ANws9kqZDwzkqwxy88wExy
pVt91vDhgbQY8ho+JoNg/J7Y3a7ofxkA18t5RzFIvJHOskJcmEYpa/iPo/OT/WTn
5/JTYu9ao5UPbS8oH6ODHh9YtYNgJUvFmm1gFIm9G9rLdIs/+HXkiWvG7wH7+3vp
qTf06gAPCITxkQzDC/iqOoXPGnnO0ACmYpG3XT2t7NT2igTIbaD5DG/GNsQ=
-----END CERTIFICATE-----
