Certificate:
    Data:
        Version: 3 (0x2)
        Serial Number: 570 (0x23a)
    Signature Algorithm: sha1WithRSAEncryption
        Issuer: C=US, ST=CA, L=SanFrancisco, O=Pixglo, Inc., OU=VPN-CIE, CN=tunnel.pixglo.com/name=Bala Chandrasekaran/emailAddress=bala@pixglo.com
        Validity
            Not Before: Feb 14 06:37:21 2018 GMT
            Not After : Feb 12 06:37:21 2028 GMT
        Subject: C=US, ST=CA, L=SanFrancisco, O=Pixglo, Inc., OU=VPN-CIE, CN=cie569/name=Bala Chandrasekaran/emailAddress=bala@pixglo.com
        Subject Public Key Info:
            Public Key Algorithm: rsaEncryption
                Public-Key: (4096 bit)
                Modulus:
                    00:bf:c5:88:c5:11:53:bf:61:da:0d:01:69:b5:60:
                    18:06:4a:cc:46:94:ca:d5:7f:a3:53:80:bc:10:5a:
                    aa:15:ac:26:9a:45:9c:36:7e:9f:4a:88:f8:1f:7e:
                    bb:9a:2b:61:01:ea:12:d0:b6:4b:b6:ff:e6:9a:ad:
                    e9:67:b4:6f:94:1c:d7:de:e2:c4:14:d5:5b:7c:4b:
                    8e:9f:f7:95:2e:4b:7c:f2:f2:19:21:70:76:33:83:
                    39:66:47:e1:7b:55:9f:0d:93:90:03:05:46:98:96:
                    8d:44:5a:16:43:70:08:99:2b:c2:3d:52:d9:09:66:
                    b8:78:1a:c0:da:19:e2:e2:1a:5c:dc:34:bc:d5:94:
                    d8:fd:14:67:2f:32:7f:5f:82:fa:95:6e:06:ad:ab:
                    bc:19:71:cc:69:12:3c:71:a1:a6:a9:36:46:50:1d:
                    74:1e:07:2c:6e:07:0d:b6:f7:19:c6:1a:dc:96:57:
                    d1:d3:37:b4:3b:08:6f:f4:e3:3e:76:86:b7:9f:71:
                    ed:68:12:c1:6d:cd:be:b1:c9:c7:05:13:95:1f:42:
                    6b:c5:9b:bf:3d:34:0f:14:bd:0e:91:68:5a:55:95:
                    a5:8d:3c:cf:98:37:0a:a3:f4:bc:86:21:50:4b:0e:
                    a1:d7:1c:c6:c2:b1:ee:2c:d4:cb:99:8b:ab:89:52:
                    bb:0d:a9:1c:b4:f6:c7:bb:9c:66:25:66:75:b8:24:
                    33:47:a6:00:d7:31:4f:74:3d:ab:26:7a:02:61:54:
                    01:66:3d:2a:3e:40:ee:2c:54:e0:e6:18:40:57:f3:
                    fc:ff:05:e0:14:8f:f8:b4:32:74:32:64:e1:ed:4b:
                    cf:80:11:7f:1c:4a:7b:22:1f:3b:7d:4b:84:c4:9c:
                    7d:34:11:1e:64:a8:13:16:f4:c1:8c:cf:da:e3:52:
                    e8:1b:7f:12:c8:4a:84:69:e0:e8:0b:9d:16:86:2c:
                    52:5f:eb:12:12:17:7b:4e:28:e0:8a:65:d3:0c:f3:
                    3c:58:05:4b:2f:4d:39:e3:e4:8a:9a:89:d3:e5:f0:
                    7a:e4:47:84:83:5e:8f:7f:48:5d:3e:1b:36:8d:e1:
                    bc:5d:fa:5b:b9:8b:05:a1:1b:41:9f:5a:85:55:11:
                    7f:53:e3:68:d4:20:33:1b:5e:bc:f7:34:26:08:e2:
                    08:dc:db:3a:89:33:69:54:40:00:fb:46:02:76:5f:
                    65:79:5d:a7:dc:69:22:1b:c9:58:ae:23:47:60:33:
                    d3:cb:5e:42:47:16:df:2a:66:39:e2:b5:4a:f9:65:
                    e1:03:05:31:7f:3c:ab:71:b9:59:fd:c6:3f:60:27:
                    69:28:09:3b:76:86:ce:e5:ea:bc:f0:13:f5:17:db:
                    fd:e5:f9
                Exponent: 65537 (0x10001)
        X509v3 extensions:
            X509v3 Basic Constraints: 
                CA:FALSE
            Netscape Comment: 
                Easy-RSA Generated Certificate
            X509v3 Subject Key Identifier: 
                A8:43:0F:2F:8E:7F:B5:86:27:11:51:0F:DE:88:59:3D:66:06:56:47
            X509v3 Authority Key Identifier: 
                keyid:EF:38:8D:14:50:58:A7:5B:4D:9C:17:72:FC:DF:B9:AC:A7:51:B0:10
                DirName:/C=US/ST=CA/L=SanFrancisco/O=Pixglo, Inc./OU=VPN-CIE/CN=tunnel.pixglo.com/name=Bala Chandrasekaran/emailAddress=bala@pixglo.com
                serial:A6:DB:C6:83:80:E6:A0:79

            X509v3 Extended Key Usage: 
                TLS Web Client Authentication
            X509v3 Key Usage: 
                Digital Signature
    Signature Algorithm: sha1WithRSAEncryption
         8c:c1:9f:b4:f6:da:45:d1:b4:df:47:14:11:ec:08:b3:10:82:
         c0:fd:d4:8d:d4:21:78:29:44:86:83:7a:32:71:c0:2f:48:ae:
         30:af:ff:8b:8b:c4:ca:8c:7b:39:7e:0b:f7:92:63:a9:aa:b9:
         e8:03:10:98:9c:40:a2:34:c7:f1:ab:7b:84:89:ed:2a:7b:4e:
         3e:92:32:fa:70:cc:8d:54:3d:70:7d:bd:1c:65:07:70:d0:e6:
         a4:15:e4:ca:2e:96:a6:e2:3f:94:59:be:61:54:01:93:1c:d2:
         39:2f:2d:4f:90:65:27:c3:9b:f2:ac:1f:e3:11:5f:be:dc:a1:
         7c:c8:3d:65:f9:87:0c:6e:3c:34:a1:50:38:9c:53:48:91:dc:
         70:ca:da:67:f4:28:7c:2e:c1:7a:02:9f:fb:a7:0b:70:74:6b:
         0e:eb:d2:5f:c9:7c:d4:16:11:6a:9a:a2:ce:3c:b8:e2:74:f8:
         98:cd:73:20:b7:e1:fd:24:fc:b4:26:51:eb:02:c0:45:77:65:
         e1:e5:07:48:31:00:7b:6a:49:ac:6a:9e:89:3b:e8:c3:7a:9e:
         81:2c:ef:31:4a:3b:53:c6:59:c4:ef:f8:5f:55:3c:63:f8:b1:
         9b:dd:37:a6:f0:80:5d:f2:11:b4:19:ca:54:5c:d9:39:cd:f3:
         a6:9a:6f:e4:68:90:43:05:6d:bb:b5:ae:d6:30:14:4d:d9:8b:
         b8:f2:78:44:9b:df:28:ee:25:56:f8:8b:37:85:a5:0f:fe:f7:
         66:d7:84:06:8d:9d:44:ea:11:f6:48:07:f6:45:90:03:6c:fd:
         7e:aa:11:f1:93:6c:cb:fd:e4:89:96:c7:00:6b:44:c3:44:01:
         6c:c8:fa:9e:48:23:f8:5f:77:77:e6:9c:a2:2e:1f:0a:bf:46:
         e3:26:36:97:de:38:0b:a8:1b:bc:6d:ea:eb:92:70:1f:1a:9c:
         ea:7f:6b:03:21:22:3f:72:a3:bd:55:cf:51:4c:0a:9b:bf:a1:
         30:78:c4:ce:b6:01:c5:29:a2:1e:41:b4:8e:93:ae:33:34:8a:
         d6:34:fa:64:10:0d:8b:71:ff:2a:51:2a:dd:d4:86:fe:7e:79:
         d4:1e:ba:c5:73:fa:9b:51:7b:da:5e:33:ad:83:44:50:53:5b:
         06:17:39:5d:ac:cd:b5:14:55:96:b3:cf:7c:45:2a:95:a4:e9:
         0e:90:ca:f5:58:9a:6d:97:3e:66:ad:78:6c:4f:52:f0:0e:cb:
         45:83:1f:02:16:5f:a1:17:58:09:cb:78:e3:16:ed:05:95:d3:
         63:c3:e6:85:e6:33:22:8f:54:61:7a:de:75:af:b2:0a:73:2e:
         0e:b4:e4:0a:77:29:50:1b
-----BEGIN CERTIFICATE-----
MIIHSDCCBTCgAwIBAgICAjowDQYJKoZIhvcNAQEFBQAwgbQxCzAJBgNVBAYTAlVT
MQswCQYDVQQIEwJDQTEVMBMGA1UEBxMMU2FuRnJhbmNpc2NvMRUwEwYDVQQKEwxQ
aXhnbG8sIEluYy4xEDAOBgNVBAsTB1ZQTi1DSUUxGjAYBgNVBAMTEXR1bm5lbC5w
aXhnbG8uY29tMRwwGgYDVQQpExNCYWxhIENoYW5kcmFzZWthcmFuMR4wHAYJKoZI
hvcNAQkBFg9iYWxhQHBpeGdsby5jb20wHhcNMTgwMjE0MDYzNzIxWhcNMjgwMjEy
MDYzNzIxWjCBqTELMAkGA1UEBhMCVVMxCzAJBgNVBAgTAkNBMRUwEwYDVQQHEwxT
YW5GcmFuY2lzY28xFTATBgNVBAoTDFBpeGdsbywgSW5jLjEQMA4GA1UECxMHVlBO
LUNJRTEPMA0GA1UEAxMGY2llNTY5MRwwGgYDVQQpExNCYWxhIENoYW5kcmFzZWth
cmFuMR4wHAYJKoZIhvcNAQkBFg9iYWxhQHBpeGdsby5jb20wggIiMA0GCSqGSIb3
DQEBAQUAA4ICDwAwggIKAoICAQC/xYjFEVO/YdoNAWm1YBgGSsxGlMrVf6NTgLwQ
WqoVrCaaRZw2fp9KiPgffruaK2EB6hLQtku2/+aarelntG+UHNfe4sQU1Vt8S46f
95UuS3zy8hkhcHYzgzlmR+F7VZ8Nk5ADBUaYlo1EWhZDcAiZK8I9UtkJZrh4GsDa
GeLiGlzcNLzVlNj9FGcvMn9fgvqVbgatq7wZccxpEjxxoaapNkZQHXQeByxuBw22
9xnGGtyWV9HTN7Q7CG/04z52hrefce1oEsFtzb6xyccFE5UfQmvFm789NA8UvQ6R
aFpVlaWNPM+YNwqj9LyGIVBLDqHXHMbCse4s1MuZi6uJUrsNqRy09se7nGYlZnW4
JDNHpgDXMU90PasmegJhVAFmPSo+QO4sVODmGEBX8/z/BeAUj/i0MnQyZOHtS8+A
EX8cSnsiHzt9S4TEnH00ER5kqBMW9MGMz9rjUugbfxLISoRp4OgLnRaGLFJf6xIS
F3tOKOCKZdMM8zxYBUsvTTnj5IqaidPl8HrkR4SDXo9/SF0+GzaN4bxd+lu5iwWh
G0GfWoVVEX9T42jUIDMbXrz3NCYI4gjc2zqJM2lUQAD7RgJ2X2V5XafcaSIbyViu
I0dgM9PLXkJHFt8qZjnitUr5ZeEDBTF/PKtxuVn9xj9gJ2koCTt2hs7l6rzwE/UX
2/3l+QIDAQABo4IBazCCAWcwCQYDVR0TBAIwADAtBglghkgBhvhCAQ0EIBYeRWFz
eS1SU0EgR2VuZXJhdGVkIENlcnRpZmljYXRlMB0GA1UdDgQWBBSoQw8vjn+1hicR
UQ/eiFk9ZgZWRzCB6QYDVR0jBIHhMIHegBTvOI0UUFinW02cF3L837msp1GwEKGB
uqSBtzCBtDELMAkGA1UEBhMCVVMxCzAJBgNVBAgTAkNBMRUwEwYDVQQHEwxTYW5G
cmFuY2lzY28xFTATBgNVBAoTDFBpeGdsbywgSW5jLjEQMA4GA1UECxMHVlBOLUNJ
RTEaMBgGA1UEAxMRdHVubmVsLnBpeGdsby5jb20xHDAaBgNVBCkTE0JhbGEgQ2hh
bmRyYXNla2FyYW4xHjAcBgkqhkiG9w0BCQEWD2JhbGFAcGl4Z2xvLmNvbYIJAKbb
xoOA5qB5MBMGA1UdJQQMMAoGCCsGAQUFBwMCMAsGA1UdDwQEAwIHgDANBgkqhkiG
9w0BAQUFAAOCAgEAjMGftPbaRdG030cUEewIsxCCwP3UjdQheClEhoN6MnHAL0iu
MK//i4vEyox7OX4L95Jjqaq56AMQmJxAojTH8at7hIntKntOPpIy+nDMjVQ9cH29
HGUHcNDmpBXkyi6WpuI/lFm+YVQBkxzSOS8tT5BlJ8Ob8qwf4xFfvtyhfMg9ZfmH
DG48NKFQOJxTSJHccMraZ/QofC7BegKf+6cLcHRrDuvSX8l81BYRapqizjy44nT4
mM1zILfh/ST8tCZR6wLARXdl4eUHSDEAe2pJrGqeiTvow3qegSzvMUo7U8ZZxO/4
X1U8Y/ixm903pvCAXfIRtBnKVFzZOc3zpppv5GiQQwVtu7Wu1jAUTdmLuPJ4RJvf
KO4lVviLN4WlD/73ZteEBo2dROoR9kgH9kWQA2z9fqoR8ZNsy/3kiZbHAGtEw0QB
bMj6nkgj+F93d+acoi4fCr9G4yY2l944C6gbvG3q65JwHxqc6n9rAyEiP3KjvVXP
UUwKm7+hMHjEzrYBxSmiHkG0jpOuMzSK1jT6ZBANi3H/KlEq3dSG/n551B66xXP6
m1F72l4zrYNEUFNbBhc5XazNtRRVlrPPfEUqlaTpDpDK9ViabZc+Zq14bE9S8A7L
RYMfAhZfoRdYCct44xbtBZXTY8PmheYzIo9UYXreda+yCnMuDrTkCncpUBs=
-----END CERTIFICATE-----
