Certificate:
    Data:
        Version: 3 (0x2)
        Serial Number: 571 (0x23b)
    Signature Algorithm: sha1WithRSAEncryption
        Issuer: C=US, ST=CA, L=SanFrancisco, O=Pixglo, Inc., OU=VPN-CIE, CN=tunnel.pixglo.com/name=Bala Chandrasekaran/emailAddress=bala@pixglo.com
        Validity
            Not Before: Feb 14 06:37:24 2018 GMT
            Not After : Feb 12 06:37:24 2028 GMT
        Subject: C=US, ST=CA, L=SanFrancisco, O=Pixglo, Inc., OU=VPN-CIE, CN=cie570/name=Bala Chandrasekaran/emailAddress=bala@pixglo.com
        Subject Public Key Info:
            Public Key Algorithm: rsaEncryption
                Public-Key: (4096 bit)
                Modulus:
                    00:d4:4d:9e:7c:b9:94:13:3f:81:04:1b:83:1e:db:
                    48:90:c0:f3:9c:10:31:74:c7:35:5f:83:b6:9d:87:
                    6c:73:c2:19:4b:88:56:f7:c8:00:36:7e:be:1c:f5:
                    b1:36:81:c6:d9:c7:dd:35:98:91:03:b0:1e:06:5f:
                    81:74:6e:a1:99:67:6a:75:94:84:cc:83:db:66:53:
                    13:5c:e5:94:56:b0:0d:38:59:6d:aa:b8:4c:1c:c4:
                    5b:82:8f:35:bf:8a:c0:c9:1e:6f:06:17:2a:d6:56:
                    47:00:bf:d8:c7:38:63:a0:ba:d2:ac:c3:53:4e:0c:
                    c8:d2:bb:ed:79:fe:32:85:38:1d:71:2c:26:9e:0b:
                    fe:f0:58:01:97:82:55:76:f6:5a:b2:08:76:7f:a6:
                    48:0a:a4:3f:e8:55:87:35:83:64:0f:70:bb:d1:da:
                    ea:61:0e:bf:25:8e:1f:79:db:d0:d4:a7:3b:c0:46:
                    6b:de:59:d6:52:d9:38:f2:57:c2:4c:90:18:24:22:
                    c8:42:aa:0c:ca:13:c3:7b:27:52:52:41:6f:f2:33:
                    0f:d1:22:43:14:5f:4d:d8:1a:80:ff:48:6f:7d:1d:
                    c4:fc:9b:db:87:6b:22:d9:8b:25:1f:a8:aa:61:fc:
                    99:8d:f1:a8:b0:15:18:81:1d:8d:2b:bd:ed:05:41:
                    73:ca:6f:8b:c2:7d:d2:64:81:72:d2:e4:5e:4d:3f:
                    18:c8:95:09:b7:8d:5f:f3:45:13:c0:5c:61:94:a7:
                    f3:36:24:42:08:2c:1d:0d:d7:76:bd:2b:d8:63:40:
                    7d:26:c0:bf:ce:30:60:56:b7:ea:db:5e:07:f9:ab:
                    3d:24:09:d8:ac:21:df:0a:c5:84:4b:df:f4:48:e0:
                    b4:d7:78:4e:7f:64:1e:40:a5:e0:db:0a:62:a4:42:
                    a3:1a:98:32:d0:82:5b:8c:3d:dd:41:c1:09:fa:48:
                    37:92:ba:b4:7a:60:00:b3:c9:e8:2e:43:b8:af:ff:
                    bf:b6:f4:74:62:b8:a8:22:af:89:16:57:b9:cf:cb:
                    d4:b7:4d:58:f7:72:be:e0:33:c5:9b:c5:57:b2:37:
                    ac:e8:d7:b9:45:87:6a:c6:48:64:ef:11:11:09:5f:
                    d4:c5:8e:da:0f:cc:71:4d:36:25:bf:47:17:45:4a:
                    86:80:95:54:35:e6:6a:42:e2:37:a1:f5:99:61:20:
                    e0:cb:14:ad:2c:e0:7f:0f:d6:64:41:d3:11:5b:32:
                    82:7d:ac:cb:01:c8:ea:c5:c1:ff:69:49:62:8c:20:
                    68:06:e8:d4:da:ff:17:c6:34:4c:d0:90:df:97:50:
                    9e:04:f7:73:2e:2f:27:2f:a1:c1:cd:c4:4e:a5:6f:
                    c2:fc:07
                Exponent: 65537 (0x10001)
        X509v3 extensions:
            X509v3 Basic Constraints: 
                CA:FALSE
            Netscape Comment: 
                Easy-RSA Generated Certificate
            X509v3 Subject Key Identifier: 
                73:27:68:BA:FD:82:FF:80:65:05:F3:F8:A0:CE:3B:16:E7:BC:37:80
            X509v3 Authority Key Identifier: 
                keyid:EF:38:8D:14:50:58:A7:5B:4D:9C:17:72:FC:DF:B9:AC:A7:51:B0:10
                DirName:/C=US/ST=CA/L=SanFrancisco/O=Pixglo, Inc./OU=VPN-CIE/CN=tunnel.pixglo.com/name=Bala Chandrasekaran/emailAddress=bala@pixglo.com
                serial:A6:DB:C6:83:80:E6:A0:79

            X509v3 Extended Key Usage: 
                TLS Web Client Authentication
            X509v3 Key Usage: 
                Digital Signature
    Signature Algorithm: sha1WithRSAEncryption
         9b:0d:d7:ac:13:65:32:59:68:20:ab:31:a6:7c:fa:1e:4f:47:
         0a:a0:a8:f8:62:66:d4:a3:9b:a0:bd:0c:51:a1:5f:22:cd:6e:
         ca:d0:ed:27:4b:16:57:2a:e2:a6:eb:3c:51:29:62:c9:46:bc:
         5d:cc:81:31:ad:33:ee:64:d6:28:cb:b5:8b:58:d7:09:5c:aa:
         59:5c:f9:28:af:5e:71:62:49:d7:06:13:25:76:5d:f7:a6:1b:
         4e:d4:5c:97:36:9b:d0:e3:c8:23:bf:01:49:34:71:d0:e4:d5:
         e3:2f:f1:66:90:b0:69:d9:51:49:d7:39:98:f3:31:8e:7e:e2:
         ec:fe:b9:fe:8c:16:f6:cf:40:ef:76:84:59:95:2a:cf:09:a3:
         24:19:35:63:1c:61:34:28:34:27:3f:73:3a:77:a4:a0:3b:db:
         95:79:6a:45:a8:8e:cd:44:b2:72:33:08:4d:b4:ef:7b:07:30:
         8c:c4:99:9d:1c:48:56:ae:9f:41:7f:fd:a3:41:60:ab:3f:d4:
         a9:8b:d8:e3:45:dc:71:61:52:2b:4c:4e:19:c8:44:a7:b1:28:
         d3:8c:eb:9a:ff:4b:78:b6:53:52:d8:92:ac:6f:97:c4:37:5f:
         2d:7f:d8:01:20:d7:64:4a:55:8e:d0:0d:3d:d6:8d:34:6c:ae:
         dc:c4:37:75:c2:7e:a1:95:8a:a1:29:df:3b:e6:7d:b6:c0:b3:
         d8:5a:3c:d8:eb:34:30:99:2c:c4:27:b0:a8:4c:61:b2:2c:95:
         6c:71:ac:dc:ee:a4:85:95:25:1c:df:35:70:a2:71:7a:95:c1:
         d2:37:45:ca:ef:6e:8c:ff:18:cc:a6:40:6b:50:27:70:98:d1:
         7b:04:d8:a7:10:7d:4a:dd:eb:96:fb:00:38:6a:32:d2:2d:3a:
         73:e0:a7:9d:ce:27:ca:4f:41:e7:24:52:5c:6c:fb:b5:fc:be:
         b7:6c:1e:17:55:08:fe:19:1e:86:52:4f:ff:43:fd:c7:67:6e:
         f9:fd:54:1a:54:d9:8b:1f:aa:9f:34:38:b3:00:68:60:e0:41:
         08:06:8d:60:46:42:82:2e:be:d5:0d:12:33:ab:c2:c0:7d:2a:
         36:97:ac:68:91:6c:9c:85:35:45:e5:7c:9e:40:48:21:e1:47:
         8b:15:77:3a:e9:18:50:50:0b:83:2d:1a:ee:f9:00:aa:44:7c:
         5e:d6:66:8c:6e:46:0b:92:c9:8a:c7:3f:dd:1c:65:b7:dc:5d:
         4d:14:ef:f1:51:f7:14:aa:23:c3:7a:93:08:32:15:fa:e8:c5:
         ae:c7:d5:46:b7:31:e5:30:27:47:c8:fd:36:b1:2f:3d:1b:1e:
         1e:ec:8a:56:14:25:f5:f6
-----BEGIN CERTIFICATE-----
MIIHSDCCBTCgAwIBAgICAjswDQYJKoZIhvcNAQEFBQAwgbQxCzAJBgNVBAYTAlVT
MQswCQYDVQQIEwJDQTEVMBMGA1UEBxMMU2FuRnJhbmNpc2NvMRUwEwYDVQQKEwxQ
aXhnbG8sIEluYy4xEDAOBgNVBAsTB1ZQTi1DSUUxGjAYBgNVBAMTEXR1bm5lbC5w
aXhnbG8uY29tMRwwGgYDVQQpExNCYWxhIENoYW5kcmFzZWthcmFuMR4wHAYJKoZI
hvcNAQkBFg9iYWxhQHBpeGdsby5jb20wHhcNMTgwMjE0MDYzNzI0WhcNMjgwMjEy
MDYzNzI0WjCBqTELMAkGA1UEBhMCVVMxCzAJBgNVBAgTAkNBMRUwEwYDVQQHEwxT
YW5GcmFuY2lzY28xFTATBgNVBAoTDFBpeGdsbywgSW5jLjEQMA4GA1UECxMHVlBO
LUNJRTEPMA0GA1UEAxMGY2llNTcwMRwwGgYDVQQpExNCYWxhIENoYW5kcmFzZWth
cmFuMR4wHAYJKoZIhvcNAQkBFg9iYWxhQHBpeGdsby5jb20wggIiMA0GCSqGSIb3
DQEBAQUAA4ICDwAwggIKAoICAQDUTZ58uZQTP4EEG4Me20iQwPOcEDF0xzVfg7ad
h2xzwhlLiFb3yAA2fr4c9bE2gcbZx901mJEDsB4GX4F0bqGZZ2p1lITMg9tmUxNc
5ZRWsA04WW2quEwcxFuCjzW/isDJHm8GFyrWVkcAv9jHOGOgutKsw1NODMjSu+15
/jKFOB1xLCaeC/7wWAGXglV29lqyCHZ/pkgKpD/oVYc1g2QPcLvR2uphDr8ljh95
29DUpzvARmveWdZS2TjyV8JMkBgkIshCqgzKE8N7J1JSQW/yMw/RIkMUX03YGoD/
SG99HcT8m9uHayLZiyUfqKph/JmN8aiwFRiBHY0rve0FQXPKb4vCfdJkgXLS5F5N
PxjIlQm3jV/zRRPAXGGUp/M2JEIILB0N13a9K9hjQH0mwL/OMGBWt+rbXgf5qz0k
CdisId8KxYRL3/RI4LTXeE5/ZB5ApeDbCmKkQqMamDLQgluMPd1BwQn6SDeSurR6
YACzyeguQ7iv/7+29HRiuKgir4kWV7nPy9S3TVj3cr7gM8WbxVeyN6zo17lFh2rG
SGTvEREJX9TFjtoPzHFNNiW/RxdFSoaAlVQ15mpC4jeh9ZlhIODLFK0s4H8P1mRB
0xFbMoJ9rMsByOrFwf9pSWKMIGgG6NTa/xfGNEzQkN+XUJ4E93MuLycvocHNxE6l
b8L8BwIDAQABo4IBazCCAWcwCQYDVR0TBAIwADAtBglghkgBhvhCAQ0EIBYeRWFz
eS1SU0EgR2VuZXJhdGVkIENlcnRpZmljYXRlMB0GA1UdDgQWBBRzJ2i6/YL/gGUF
8/igzjsW57w3gDCB6QYDVR0jBIHhMIHegBTvOI0UUFinW02cF3L837msp1GwEKGB
uqSBtzCBtDELMAkGA1UEBhMCVVMxCzAJBgNVBAgTAkNBMRUwEwYDVQQHEwxTYW5G
cmFuY2lzY28xFTATBgNVBAoTDFBpeGdsbywgSW5jLjEQMA4GA1UECxMHVlBOLUNJ
RTEaMBgGA1UEAxMRdHVubmVsLnBpeGdsby5jb20xHDAaBgNVBCkTE0JhbGEgQ2hh
bmRyYXNla2FyYW4xHjAcBgkqhkiG9w0BCQEWD2JhbGFAcGl4Z2xvLmNvbYIJAKbb
xoOA5qB5MBMGA1UdJQQMMAoGCCsGAQUFBwMCMAsGA1UdDwQEAwIHgDANBgkqhkiG
9w0BAQUFAAOCAgEAmw3XrBNlMlloIKsxpnz6Hk9HCqCo+GJm1KOboL0MUaFfIs1u
ytDtJ0sWVyripus8USliyUa8XcyBMa0z7mTWKMu1i1jXCVyqWVz5KK9ecWJJ1wYT
JXZd96YbTtRclzab0OPII78BSTRx0OTV4y/xZpCwadlRSdc5mPMxjn7i7P65/owW
9s9A73aEWZUqzwmjJBk1YxxhNCg0Jz9zOnekoDvblXlqRaiOzUSycjMITbTvewcw
jMSZnRxIVq6fQX/9o0Fgqz/UqYvY40XccWFSK0xOGchEp7Eo04zrmv9LeLZTUtiS
rG+XxDdfLX/YASDXZEpVjtANPdaNNGyu3MQ3dcJ+oZWKoSnfO+Z9tsCz2Fo82Os0
MJksxCewqExhsiyVbHGs3O6khZUlHN81cKJxepXB0jdFyu9ujP8YzKZAa1AncJjR
ewTYpxB9St3rlvsAOGoy0i06c+Cnnc4nyk9B5yRSXGz7tfy+t2weF1UI/hkehlJP
/0P9x2du+f1UGlTZix+qnzQ4swBoYOBBCAaNYEZCgi6+1Q0SM6vCwH0qNpesaJFs
nIU1ReV8nkBIIeFHixV3OukYUFALgy0a7vkAqkR8XtZmjG5GC5LJisc/3Rxlt9xd
TRTv8VH3FKojw3qTCDIV+ujFrsfVRrcx5TAnR8j9NrEvPRseHuyKVhQl9fY=
-----END CERTIFICATE-----
