Certificate:
    Data:
        Version: 3 (0x2)
        Serial Number: 576 (0x240)
    Signature Algorithm: sha1WithRSAEncryption
        Issuer: C=US, ST=CA, L=SanFrancisco, O=Pixglo, Inc., OU=VPN-CIE, CN=tunnel.pixglo.com/name=Bala Chandrasekaran/emailAddress=bala@pixglo.com
        Validity
            Not Before: Feb 14 06:37:29 2018 GMT
            Not After : Feb 12 06:37:29 2028 GMT
        Subject: C=US, ST=CA, L=SanFrancisco, O=Pixglo, Inc., OU=VPN-CIE, CN=cie575/name=Bala Chandrasekaran/emailAddress=bala@pixglo.com
        Subject Public Key Info:
            Public Key Algorithm: rsaEncryption
                Public-Key: (4096 bit)
                Modulus:
                    00:be:9c:53:23:63:38:b8:03:17:26:c1:8e:52:fc:
                    8d:05:87:2f:1d:78:b8:2c:0b:4f:49:c6:24:80:63:
                    96:0e:3d:ed:e2:d4:0e:02:ca:d9:58:b5:48:2e:c6:
                    1e:a5:8c:b1:04:62:ef:20:b5:65:4e:01:56:95:d9:
                    b8:bc:3e:1f:f5:9d:9f:ab:1c:c4:46:a9:e7:1a:69:
                    fc:1a:34:87:0c:0c:16:e3:4c:66:0a:c9:f8:9f:f1:
                    29:f7:29:f2:95:9b:1e:4f:b4:51:22:10:ef:eb:7b:
                    a6:51:e9:40:87:92:71:6d:10:a4:1a:80:7a:26:1a:
                    c5:7d:a7:1b:9f:97:a1:a4:1c:a2:03:9d:25:4e:a4:
                    fb:0e:28:21:0b:72:36:9b:e6:39:8c:20:8e:9a:07:
                    3e:ba:94:2e:4b:e8:2d:3a:c5:99:33:04:09:52:16:
                    70:37:b3:82:89:67:e1:72:fc:fa:b3:6c:60:3c:46:
                    6f:8a:fd:98:16:fb:4b:bc:03:cf:34:93:34:8d:f4:
                    22:25:d6:1b:a8:fa:37:a0:aa:7b:20:60:ca:41:5a:
                    9f:26:fa:b8:78:f0:7a:f9:bf:2a:2b:10:68:e5:b4:
                    8f:c5:2c:26:a7:8e:64:58:5c:8f:d6:d7:5e:a0:a5:
                    73:64:4f:49:0f:e2:4b:c4:48:f8:f5:a2:3c:61:21:
                    72:47:e7:fc:96:b5:db:1b:95:59:a4:f7:0e:ff:fd:
                    46:97:82:34:ee:92:be:f6:05:04:f3:e8:01:7d:a2:
                    87:39:10:32:1f:c1:1d:29:f8:81:3a:80:32:b4:f2:
                    49:dd:9f:24:34:c4:32:48:81:2b:a6:3b:9a:4b:e7:
                    ca:43:75:05:b5:2d:bf:b6:18:e8:4d:36:e8:11:df:
                    41:4e:14:c7:e5:a5:f0:fe:01:93:3a:92:35:76:1f:
                    5d:31:e6:06:df:44:79:be:d3:bd:15:39:b5:6d:f2:
                    12:5b:f9:69:3f:0d:93:ae:78:2d:df:1d:1e:3e:8d:
                    ad:ec:bd:f7:2a:e0:8a:c6:84:b3:d0:36:ed:a0:c2:
                    12:c1:4c:e7:36:d0:1e:14:79:16:29:06:8f:42:f6:
                    25:6e:b8:e6:2f:5d:7d:2c:e9:c6:04:44:48:57:de:
                    cb:66:ab:a2:7e:b3:3a:32:46:b8:3f:9f:9f:9b:4c:
                    b0:72:97:dd:51:76:38:48:8b:2a:fb:f4:c9:9d:15:
                    6d:1a:fb:c8:07:66:77:ad:39:d2:40:c3:26:44:2e:
                    8d:6b:8e:13:c8:f7:b2:8d:22:5e:a2:40:f0:9d:0c:
                    da:e9:3a:37:3d:eb:7a:b0:1a:69:de:9e:8b:66:28:
                    1c:5a:ea:1d:a9:17:d6:f4:cc:35:95:c9:44:91:4a:
                    37:75:3b
                Exponent: 65537 (0x10001)
        X509v3 extensions:
            X509v3 Basic Constraints: 
                CA:FALSE
            Netscape Comment: 
                Easy-RSA Generated Certificate
            X509v3 Subject Key Identifier: 
                60:17:EE:CB:8F:ED:C8:DE:37:10:9E:F4:14:B4:94:AC:24:8A:B7:ED
            X509v3 Authority Key Identifier: 
                keyid:EF:38:8D:14:50:58:A7:5B:4D:9C:17:72:FC:DF:B9:AC:A7:51:B0:10
                DirName:/C=US/ST=CA/L=SanFrancisco/O=Pixglo, Inc./OU=VPN-CIE/CN=tunnel.pixglo.com/name=Bala Chandrasekaran/emailAddress=bala@pixglo.com
                serial:A6:DB:C6:83:80:E6:A0:79

            X509v3 Extended Key Usage: 
                TLS Web Client Authentication
            X509v3 Key Usage: 
                Digital Signature
    Signature Algorithm: sha1WithRSAEncryption
         0e:10:18:c6:95:5f:44:73:0d:5e:26:f4:c8:a4:5e:76:97:71:
         d6:a2:e6:66:90:ea:47:ad:d3:56:56:0c:e9:3e:ce:09:a1:83:
         38:93:b4:89:42:f5:6f:52:0c:23:66:a7:6f:ea:d8:36:15:2b:
         b3:9a:c3:c6:f5:8a:82:85:8e:4a:76:9d:b2:d8:6a:b3:0a:0a:
         66:87:4a:18:16:1a:93:c1:13:ae:6e:1a:45:e9:ea:95:ce:6e:
         4c:ed:2f:9c:b9:c4:8a:cc:4e:35:25:36:b7:8f:9e:4c:aa:dc:
         e0:76:47:6a:cc:ab:0a:6d:9d:0a:1f:48:b7:40:01:a4:d1:e0:
         64:8b:bb:12:03:cc:bd:29:a1:25:6f:50:0a:dd:13:0c:9b:60:
         1f:34:ef:2f:42:7d:0d:7c:07:e7:56:41:58:48:5b:53:db:f6:
         9d:60:a2:12:9f:42:b9:61:4b:20:42:b0:f6:35:b8:ed:a8:42:
         42:d3:8d:a2:c1:5e:4b:b3:0a:b7:85:26:4a:61:fa:98:07:cf:
         b2:a9:a9:e0:fe:54:68:cd:94:38:93:17:77:d1:a8:ff:28:71:
         fe:1b:da:9f:20:c9:b2:5b:4f:f6:25:4e:db:c7:03:23:53:d8:
         fc:0e:12:0b:55:d5:81:a6:10:8f:d5:cc:28:86:c3:d2:ee:0c:
         8a:95:ed:9a:77:82:08:e2:69:55:39:86:60:23:ba:53:70:2d:
         da:3c:05:fa:90:e2:51:60:ba:31:af:c1:bc:5d:92:f6:29:a1:
         a3:9c:22:27:a2:5e:c0:b1:52:ec:2a:a2:7c:aa:2f:eb:a8:08:
         45:dd:6a:82:c4:10:1b:f6:9c:20:3e:e7:6d:eb:36:64:4e:07:
         e1:b5:3b:3d:1a:9b:29:e3:ae:8d:8f:30:eb:f1:15:fe:f5:ab:
         09:f6:84:2e:d6:ba:84:c5:12:55:37:90:75:c7:bb:aa:e7:ee:
         95:c1:b5:9f:97:39:76:b5:ff:bc:16:59:2b:f0:64:eb:97:49:
         d2:b7:eb:85:fd:a5:4f:69:50:24:e0:8a:c3:1d:6f:5b:95:ef:
         d2:a4:0a:a3:77:07:05:61:c1:22:92:46:51:83:68:f6:11:43:
         aa:ca:3b:11:5d:dc:4f:5e:fd:4e:1b:a3:fb:f9:15:0b:ec:7c:
         6f:e5:2e:69:bf:10:0b:ec:77:4d:55:c6:a5:c3:8b:24:25:d4:
         d3:dc:c6:81:ae:b5:fd:fd:2d:95:71:40:d9:c7:fb:40:c2:a4:
         84:d8:8d:91:69:6e:5d:e3:e4:3c:3d:26:84:e0:77:b3:7a:e3:
         7c:63:9e:e0:f2:ed:2d:f0:93:00:b5:e6:9b:9f:c7:b6:58:61:
         30:f2:34:55:d0:4b:f8:dd
-----BEGIN CERTIFICATE-----
MIIHSDCCBTCgAwIBAgICAkAwDQYJKoZIhvcNAQEFBQAwgbQxCzAJBgNVBAYTAlVT
MQswCQYDVQQIEwJDQTEVMBMGA1UEBxMMU2FuRnJhbmNpc2NvMRUwEwYDVQQKEwxQ
aXhnbG8sIEluYy4xEDAOBgNVBAsTB1ZQTi1DSUUxGjAYBgNVBAMTEXR1bm5lbC5w
aXhnbG8uY29tMRwwGgYDVQQpExNCYWxhIENoYW5kcmFzZWthcmFuMR4wHAYJKoZI
hvcNAQkBFg9iYWxhQHBpeGdsby5jb20wHhcNMTgwMjE0MDYzNzI5WhcNMjgwMjEy
MDYzNzI5WjCBqTELMAkGA1UEBhMCVVMxCzAJBgNVBAgTAkNBMRUwEwYDVQQHEwxT
YW5GcmFuY2lzY28xFTATBgNVBAoTDFBpeGdsbywgSW5jLjEQMA4GA1UECxMHVlBO
LUNJRTEPMA0GA1UEAxMGY2llNTc1MRwwGgYDVQQpExNCYWxhIENoYW5kcmFzZWth
cmFuMR4wHAYJKoZIhvcNAQkBFg9iYWxhQHBpeGdsby5jb20wggIiMA0GCSqGSIb3
DQEBAQUAA4ICDwAwggIKAoICAQC+nFMjYzi4AxcmwY5S/I0Fhy8deLgsC09JxiSA
Y5YOPe3i1A4CytlYtUguxh6ljLEEYu8gtWVOAVaV2bi8Ph/1nZ+rHMRGqecaafwa
NIcMDBbjTGYKyfif8Sn3KfKVmx5PtFEiEO/re6ZR6UCHknFtEKQagHomGsV9pxuf
l6GkHKIDnSVOpPsOKCELcjab5jmMII6aBz66lC5L6C06xZkzBAlSFnA3s4KJZ+Fy
/PqzbGA8Rm+K/ZgW+0u8A880kzSN9CIl1huo+jegqnsgYMpBWp8m+rh48Hr5vyor
EGjltI/FLCanjmRYXI/W116gpXNkT0kP4kvESPj1ojxhIXJH5/yWtdsblVmk9w7/
/UaXgjTukr72BQTz6AF9ooc5EDIfwR0p+IE6gDK08kndnyQ0xDJIgSumO5pL58pD
dQW1Lb+2GOhNNugR30FOFMflpfD+AZM6kjV2H10x5gbfRHm+070VObVt8hJb+Wk/
DZOueC3fHR4+ja3svfcq4IrGhLPQNu2gwhLBTOc20B4UeRYpBo9C9iVuuOYvXX0s
6cYEREhX3stmq6J+szoyRrg/n5+bTLByl91RdjhIiyr79MmdFW0a+8gHZnetOdJA
wyZELo1rjhPI97KNIl6iQPCdDNrpOjc963qwGmnenotmKBxa6h2pF9b0zDWVyUSR
Sjd1OwIDAQABo4IBazCCAWcwCQYDVR0TBAIwADAtBglghkgBhvhCAQ0EIBYeRWFz
eS1SU0EgR2VuZXJhdGVkIENlcnRpZmljYXRlMB0GA1UdDgQWBBRgF+7Lj+3I3jcQ
nvQUtJSsJIq37TCB6QYDVR0jBIHhMIHegBTvOI0UUFinW02cF3L837msp1GwEKGB
uqSBtzCBtDELMAkGA1UEBhMCVVMxCzAJBgNVBAgTAkNBMRUwEwYDVQQHEwxTYW5G
cmFuY2lzY28xFTATBgNVBAoTDFBpeGdsbywgSW5jLjEQMA4GA1UECxMHVlBOLUNJ
RTEaMBgGA1UEAxMRdHVubmVsLnBpeGdsby5jb20xHDAaBgNVBCkTE0JhbGEgQ2hh
bmRyYXNla2FyYW4xHjAcBgkqhkiG9w0BCQEWD2JhbGFAcGl4Z2xvLmNvbYIJAKbb
xoOA5qB5MBMGA1UdJQQMMAoGCCsGAQUFBwMCMAsGA1UdDwQEAwIHgDANBgkqhkiG
9w0BAQUFAAOCAgEADhAYxpVfRHMNXib0yKRedpdx1qLmZpDqR63TVlYM6T7OCaGD
OJO0iUL1b1IMI2anb+rYNhUrs5rDxvWKgoWOSnadsthqswoKZodKGBYak8ETrm4a
Renqlc5uTO0vnLnEisxONSU2t4+eTKrc4HZHasyrCm2dCh9It0ABpNHgZIu7EgPM
vSmhJW9QCt0TDJtgHzTvL0J9DXwH51ZBWEhbU9v2nWCiEp9CuWFLIEKw9jW47ahC
QtONosFeS7MKt4UmSmH6mAfPsqmp4P5UaM2UOJMXd9Go/yhx/hvanyDJsltP9iVO
28cDI1PY/A4SC1XVgaYQj9XMKIbD0u4MipXtmneCCOJpVTmGYCO6U3At2jwF+pDi
UWC6Ma/BvF2S9imho5wiJ6JewLFS7CqifKov66gIRd1qgsQQG/acID7nbes2ZE4H
4bU7PRqbKeOujY8w6/EV/vWrCfaELta6hMUSVTeQdce7qufulcG1n5c5drX/vBZZ
K/Bk65dJ0rfrhf2lT2lQJOCKwx1vW5Xv0qQKo3cHBWHBIpJGUYNo9hFDqso7EV3c
T179Thuj+/kVC+x8b+Uuab8QC+x3TVXGpcOLJCXU09zGga61/f0tlXFA2cf7QMKk
hNiNkWluXePkPD0mhOB3s3rjfGOe4PLtLfCTALXmm5/HtlhhMPI0VdBL+N0=
-----END CERTIFICATE-----
