Certificate:
    Data:
        Version: 3 (0x2)
        Serial Number: 577 (0x241)
    Signature Algorithm: sha1WithRSAEncryption
        Issuer: C=US, ST=CA, L=SanFrancisco, O=Pixglo, Inc., OU=VPN-CIE, CN=tunnel.pixglo.com/name=Bala Chandrasekaran/emailAddress=bala@pixglo.com
        Validity
            Not Before: Feb 14 06:37:30 2018 GMT
            Not After : Feb 12 06:37:30 2028 GMT
        Subject: C=US, ST=CA, L=SanFrancisco, O=Pixglo, Inc., OU=VPN-CIE, CN=cie576/name=Bala Chandrasekaran/emailAddress=bala@pixglo.com
        Subject Public Key Info:
            Public Key Algorithm: rsaEncryption
                Public-Key: (4096 bit)
                Modulus:
                    00:c1:5e:6c:0b:30:2b:33:40:e0:e4:57:a7:3d:ed:
                    7b:25:a7:98:99:55:c2:f0:41:47:2d:f0:60:72:52:
                    d7:3f:de:2e:d2:0b:f3:5b:8c:8b:79:39:9c:2b:5a:
                    5c:85:70:d4:82:eb:ed:66:eb:e7:b4:53:be:59:f0:
                    b3:b9:31:c4:42:a3:44:a9:9d:73:b8:ee:66:ce:80:
                    67:86:c0:5c:3d:40:f7:d3:3f:3a:99:3a:5c:c8:26:
                    4e:66:4e:d0:31:83:2c:32:a9:c0:48:f4:fb:af:40:
                    4b:a2:a0:b3:8e:28:30:63:c5:dc:ac:67:d1:4c:8e:
                    91:18:0f:83:d2:19:7f:5a:47:73:10:aa:58:e0:59:
                    c3:59:09:f5:bd:c7:1f:7f:4b:46:29:e4:67:c3:14:
                    57:52:ea:4f:09:4e:09:14:ee:96:f6:24:e9:7e:ad:
                    e8:ce:ae:85:76:58:71:27:6e:fb:a7:4c:3e:92:e9:
                    84:f8:93:4f:10:e7:3d:dd:ce:36:4f:55:67:ec:d3:
                    c3:00:05:07:87:70:77:bd:07:af:ee:14:6d:60:30:
                    41:65:72:71:51:fb:b7:99:a0:53:ed:9e:58:2e:4f:
                    54:9a:e8:62:04:a7:d0:e8:6b:30:55:b7:cb:59:a6:
                    18:39:3a:af:d2:ba:eb:82:83:3d:4e:b4:62:17:34:
                    5e:c8:0f:45:36:8e:91:6a:1c:6a:77:e6:93:0a:5b:
                    eb:d3:ad:b7:7e:67:1e:48:0f:32:06:48:e3:ae:5d:
                    86:7b:1b:49:56:31:a9:ec:dd:bf:30:9f:e1:5b:6c:
                    64:91:e1:71:b6:3a:4a:f2:aa:9c:57:99:58:fc:31:
                    fd:74:1e:2d:5a:2c:7e:70:0f:2c:74:07:92:25:c2:
                    d1:2f:60:ee:cc:fe:90:b2:00:cc:bd:52:b4:47:7c:
                    f8:6a:2d:e5:97:2b:e9:49:12:fe:2f:83:39:e7:a3:
                    de:e4:3a:00:50:d2:91:1a:de:9a:1c:7a:c4:9e:12:
                    fc:00:97:67:82:e9:86:7c:ac:14:7e:94:83:aa:d4:
                    a9:a1:9c:3a:02:60:26:1b:b8:6c:25:63:a4:6f:91:
                    e4:27:e1:f1:1c:f7:e3:f0:57:60:f6:f3:37:d0:cb:
                    81:8b:55:6f:a1:7d:29:dd:f3:70:d5:82:bb:70:29:
                    cc:33:fb:07:58:18:2b:68:fb:f9:f7:42:e7:3f:05:
                    50:17:a7:5a:cf:ed:96:ef:e8:ed:45:09:f6:35:d4:
                    a6:74:35:f0:12:7f:f1:31:6c:19:42:7e:00:d3:ae:
                    d0:84:1f:40:4e:fc:bd:21:f5:d3:c2:22:c5:dd:77:
                    16:81:e2:c0:77:1e:b9:bd:42:ee:43:d8:39:11:d5:
                    57:87:df
                Exponent: 65537 (0x10001)
        X509v3 extensions:
            X509v3 Basic Constraints: 
                CA:FALSE
            Netscape Comment: 
                Easy-RSA Generated Certificate
            X509v3 Subject Key Identifier: 
                6D:3D:F7:73:62:54:82:0F:00:2F:E0:0F:49:7E:BC:6E:A4:03:97:C0
            X509v3 Authority Key Identifier: 
                keyid:EF:38:8D:14:50:58:A7:5B:4D:9C:17:72:FC:DF:B9:AC:A7:51:B0:10
                DirName:/C=US/ST=CA/L=SanFrancisco/O=Pixglo, Inc./OU=VPN-CIE/CN=tunnel.pixglo.com/name=Bala Chandrasekaran/emailAddress=bala@pixglo.com
                serial:A6:DB:C6:83:80:E6:A0:79

            X509v3 Extended Key Usage: 
                TLS Web Client Authentication
            X509v3 Key Usage: 
                Digital Signature
    Signature Algorithm: sha1WithRSAEncryption
         cf:74:06:68:ee:66:76:25:be:85:03:ce:c6:93:90:cb:21:df:
         40:1e:59:a1:64:83:7e:54:49:18:bc:fd:33:f4:68:d2:88:ce:
         ba:53:e4:9a:49:86:e8:fb:bc:16:e5:c6:79:b8:43:de:c6:88:
         e7:57:ed:f8:e1:fb:70:d1:97:06:a2:c7:55:dc:ca:4b:b3:61:
         0f:00:df:ba:31:ea:e5:f9:24:e3:34:10:3c:81:9f:19:07:d6:
         18:ba:6c:01:a5:27:2e:4a:20:0e:1a:53:18:e1:36:9c:ba:96:
         47:f1:43:66:4d:47:64:01:29:0b:cf:c9:29:11:26:a3:0e:47:
         fa:a1:4c:62:da:58:61:a4:7d:0e:93:15:2c:3f:c5:17:39:2e:
         4a:0c:40:4e:24:f4:fe:d2:78:a4:a0:76:ea:1a:4c:43:07:c4:
         b4:3b:2e:c0:1c:01:ef:af:3d:4c:67:93:e0:b3:a7:75:7a:78:
         0b:6a:f8:d6:7a:e1:33:a1:52:4a:03:c6:0e:ad:a6:76:37:7a:
         f8:69:83:9b:ab:88:6a:9c:3c:e7:33:12:c3:04:ec:24:4f:bb:
         14:9e:f7:d4:11:5f:8d:d9:3f:ae:a0:6d:60:dd:c2:98:4d:85:
         d4:17:26:71:97:67:88:b2:cb:46:48:f4:09:2f:f4:ab:32:c5:
         a6:4c:29:13:51:0a:c8:45:ba:2a:0a:a2:54:03:32:da:3a:45:
         d2:62:a9:54:f6:75:0e:10:77:45:79:4f:70:9f:8d:1e:59:ab:
         05:c3:43:8b:c8:c6:7f:f8:5d:dd:1f:8a:a5:36:15:6a:f9:51:
         68:ad:43:86:58:7c:d7:30:79:25:4d:30:9f:41:9a:fc:95:b5:
         4f:be:a4:16:2e:13:17:db:0a:9b:f7:68:bc:80:81:ec:31:90:
         23:39:40:d8:72:e4:cf:a5:c1:1b:e2:a4:19:b0:27:2e:2e:d4:
         77:29:ae:32:ce:a1:c4:fa:f9:23:0a:72:06:21:46:b8:c6:21:
         63:35:41:78:7b:aa:07:83:36:72:39:ba:45:b3:18:2e:87:1f:
         84:78:b6:e8:ef:a7:a4:65:af:38:ab:c7:82:1c:f6:80:2e:fd:
         68:b5:9d:a7:b8:e8:8c:b8:08:40:6f:b8:f2:f0:6b:8e:52:a0:
         59:dc:da:41:c6:fa:70:cc:1a:86:30:63:49:7a:24:b9:f3:01:
         ef:51:22:d6:61:46:6d:53:8b:a4:09:fd:15:ea:1a:ad:d8:37:
         82:a7:ed:4f:2b:ec:e7:47:67:f5:cc:f8:94:04:29:ec:a0:8a:
         c1:35:f7:fe:9e:bc:a3:ae:bb:b8:0e:13:5b:1a:04:c8:48:70:
         ac:05:9b:0b:7a:d8:23:03
-----BEGIN CERTIFICATE-----
MIIHSDCCBTCgAwIBAgICAkEwDQYJKoZIhvcNAQEFBQAwgbQxCzAJBgNVBAYTAlVT
MQswCQYDVQQIEwJDQTEVMBMGA1UEBxMMU2FuRnJhbmNpc2NvMRUwEwYDVQQKEwxQ
aXhnbG8sIEluYy4xEDAOBgNVBAsTB1ZQTi1DSUUxGjAYBgNVBAMTEXR1bm5lbC5w
aXhnbG8uY29tMRwwGgYDVQQpExNCYWxhIENoYW5kcmFzZWthcmFuMR4wHAYJKoZI
hvcNAQkBFg9iYWxhQHBpeGdsby5jb20wHhcNMTgwMjE0MDYzNzMwWhcNMjgwMjEy
MDYzNzMwWjCBqTELMAkGA1UEBhMCVVMxCzAJBgNVBAgTAkNBMRUwEwYDVQQHEwxT
YW5GcmFuY2lzY28xFTATBgNVBAoTDFBpeGdsbywgSW5jLjEQMA4GA1UECxMHVlBO
LUNJRTEPMA0GA1UEAxMGY2llNTc2MRwwGgYDVQQpExNCYWxhIENoYW5kcmFzZWth
cmFuMR4wHAYJKoZIhvcNAQkBFg9iYWxhQHBpeGdsby5jb20wggIiMA0GCSqGSIb3
DQEBAQUAA4ICDwAwggIKAoICAQDBXmwLMCszQODkV6c97Xslp5iZVcLwQUct8GBy
Utc/3i7SC/NbjIt5OZwrWlyFcNSC6+1m6+e0U75Z8LO5McRCo0SpnXO47mbOgGeG
wFw9QPfTPzqZOlzIJk5mTtAxgywyqcBI9PuvQEuioLOOKDBjxdysZ9FMjpEYD4PS
GX9aR3MQqljgWcNZCfW9xx9/S0Yp5GfDFFdS6k8JTgkU7pb2JOl+rejOroV2WHEn
bvunTD6S6YT4k08Q5z3dzjZPVWfs08MABQeHcHe9B6/uFG1gMEFlcnFR+7eZoFPt
nlguT1Sa6GIEp9DoazBVt8tZphg5Oq/SuuuCgz1OtGIXNF7ID0U2jpFqHGp35pMK
W+vTrbd+Zx5IDzIGSOOuXYZ7G0lWMans3b8wn+FbbGSR4XG2OkryqpxXmVj8Mf10
Hi1aLH5wDyx0B5IlwtEvYO7M/pCyAMy9UrRHfPhqLeWXK+lJEv4vgznno97kOgBQ
0pEa3pocesSeEvwAl2eC6YZ8rBR+lIOq1KmhnDoCYCYbuGwlY6RvkeQn4fEc9+Pw
V2D28zfQy4GLVW+hfSnd83DVgrtwKcwz+wdYGCto+/n3Quc/BVAXp1rP7Zbv6O1F
CfY11KZ0NfASf/ExbBlCfgDTrtCEH0BO/L0h9dPCIsXddxaB4sB3Hrm9Qu5D2DkR
1VeH3wIDAQABo4IBazCCAWcwCQYDVR0TBAIwADAtBglghkgBhvhCAQ0EIBYeRWFz
eS1SU0EgR2VuZXJhdGVkIENlcnRpZmljYXRlMB0GA1UdDgQWBBRtPfdzYlSCDwAv
4A9JfrxupAOXwDCB6QYDVR0jBIHhMIHegBTvOI0UUFinW02cF3L837msp1GwEKGB
uqSBtzCBtDELMAkGA1UEBhMCVVMxCzAJBgNVBAgTAkNBMRUwEwYDVQQHEwxTYW5G
cmFuY2lzY28xFTATBgNVBAoTDFBpeGdsbywgSW5jLjEQMA4GA1UECxMHVlBOLUNJ
RTEaMBgGA1UEAxMRdHVubmVsLnBpeGdsby5jb20xHDAaBgNVBCkTE0JhbGEgQ2hh
bmRyYXNla2FyYW4xHjAcBgkqhkiG9w0BCQEWD2JhbGFAcGl4Z2xvLmNvbYIJAKbb
xoOA5qB5MBMGA1UdJQQMMAoGCCsGAQUFBwMCMAsGA1UdDwQEAwIHgDANBgkqhkiG
9w0BAQUFAAOCAgEAz3QGaO5mdiW+hQPOxpOQyyHfQB5ZoWSDflRJGLz9M/Ro0ojO
ulPkmkmG6Pu8FuXGebhD3saI51ft+OH7cNGXBqLHVdzKS7NhDwDfujHq5fkk4zQQ
PIGfGQfWGLpsAaUnLkogDhpTGOE2nLqWR/FDZk1HZAEpC8/JKREmow5H+qFMYtpY
YaR9DpMVLD/FFzkuSgxATiT0/tJ4pKB26hpMQwfEtDsuwBwB7689TGeT4LOndXp4
C2r41nrhM6FSSgPGDq2mdjd6+GmDm6uIapw85zMSwwTsJE+7FJ731BFfjdk/rqBt
YN3CmE2F1BcmcZdniLLLRkj0CS/0qzLFpkwpE1EKyEW6KgqiVAMy2jpF0mKpVPZ1
DhB3RXlPcJ+NHlmrBcNDi8jGf/hd3R+KpTYVavlRaK1Dhlh81zB5JU0wn0Ga/JW1
T76kFi4TF9sKm/dovICB7DGQIzlA2HLkz6XBG+KkGbAnLi7UdymuMs6hxPr5Iwpy
BiFGuMYhYzVBeHuqB4M2cjm6RbMYLocfhHi26O+npGWvOKvHghz2gC79aLWdp7jo
jLgIQG+48vBrjlKgWdzaQcb6cMwahjBjSXokufMB71Ei1mFGbVOLpAn9Feoardg3
gqftTyvs50dn9cz4lAQp7KCKwTX3/p68o667uA4TWxoEyEhwrAWbC3rYIwM=
-----END CERTIFICATE-----
