Certificate:
    Data:
        Version: 3 (0x2)
        Serial Number: 578 (0x242)
    Signature Algorithm: sha1WithRSAEncryption
        Issuer: C=US, ST=CA, L=SanFrancisco, O=Pixglo, Inc., OU=VPN-CIE, CN=tunnel.pixglo.com/name=Bala Chandrasekaran/emailAddress=bala@pixglo.com
        Validity
            Not Before: Feb 14 06:37:31 2018 GMT
            Not After : Feb 12 06:37:31 2028 GMT
        Subject: C=US, ST=CA, L=SanFrancisco, O=Pixglo, Inc., OU=VPN-CIE, CN=cie577/name=Bala Chandrasekaran/emailAddress=bala@pixglo.com
        Subject Public Key Info:
            Public Key Algorithm: rsaEncryption
                Public-Key: (4096 bit)
                Modulus:
                    00:ca:42:5d:24:4e:0c:d6:2c:2b:85:71:d5:86:46:
                    8b:7c:3e:b8:70:51:31:3d:65:e2:1d:e9:58:5f:6e:
                    2b:52:c7:cf:04:f9:3c:2b:fe:31:21:cc:33:b7:60:
                    18:6f:20:a9:df:54:53:29:df:40:3a:2b:58:81:4c:
                    d1:fa:d7:91:f2:37:9a:5e:c3:d9:98:c9:87:c5:79:
                    27:a2:0c:76:f1:a0:47:6a:92:8a:af:e1:e2:d7:57:
                    10:75:6c:5d:9a:a3:d4:6e:0c:1c:9a:d7:a1:0b:65:
                    48:02:83:c7:78:18:de:58:4f:71:26:09:43:c7:09:
                    2e:9a:5c:1c:98:3e:cc:59:6b:00:64:eb:0f:51:05:
                    01:3c:11:6f:ea:48:d4:20:7c:29:3c:1c:ae:a8:d5:
                    d5:53:df:3c:24:a5:bd:8a:0d:8c:b3:cc:36:18:3c:
                    92:a5:83:48:2b:7a:34:eb:5a:7d:99:19:09:f1:f9:
                    d6:bf:52:88:1a:5c:a1:6f:96:2d:37:71:b9:8d:16:
                    f9:9e:bd:0c:d0:7f:df:11:37:54:77:fe:e0:0b:a2:
                    b2:f6:99:34:f8:aa:1c:f1:36:73:9a:b0:36:33:98:
                    08:20:cb:48:13:41:b2:9f:e6:08:b0:43:5c:79:8e:
                    38:c1:44:5d:4c:6e:46:88:6b:c7:59:56:f4:04:a5:
                    41:92:c2:46:25:6d:6f:44:49:68:da:a5:86:05:f2:
                    db:5b:9a:52:a6:97:d9:09:f4:3d:3e:a9:ee:f4:02:
                    1e:3a:af:a9:3f:d6:39:f8:24:4a:4f:f4:45:b8:69:
                    bd:10:80:d2:42:57:e5:6d:5a:13:d6:a0:42:5b:69:
                    83:66:70:e0:45:b0:39:10:8b:6c:47:68:7c:29:26:
                    09:c9:e5:6d:27:19:f2:46:fc:d3:55:f7:96:6e:28:
                    f8:0d:a8:82:e0:75:ca:98:31:e0:4f:21:c2:4c:e3:
                    e1:99:36:57:06:58:f1:c8:f3:00:06:dd:93:2e:2a:
                    30:4d:30:08:73:34:d8:6f:93:c5:00:fc:63:4b:9e:
                    d2:70:65:2f:f5:f8:75:e3:35:4a:a6:b7:96:56:49:
                    64:fd:e0:8d:69:cc:27:06:07:25:db:52:c6:9b:4e:
                    83:19:d2:37:0e:95:dc:76:d2:21:d5:f5:df:79:b8:
                    bb:c3:eb:df:cd:90:61:8d:8f:2b:dc:c8:f7:5f:c4:
                    5e:e9:fc:64:38:78:f3:49:7c:f5:47:89:ec:57:cb:
                    c4:ab:b1:2c:ab:87:c8:7d:c5:30:30:db:8d:6d:cc:
                    1b:f4:c7:c1:b6:09:f5:7f:98:01:f9:1d:28:45:70:
                    59:dd:1d:00:7d:21:26:8f:be:cf:a6:0c:5e:95:34:
                    da:10:b5
                Exponent: 65537 (0x10001)
        X509v3 extensions:
            X509v3 Basic Constraints: 
                CA:FALSE
            Netscape Comment: 
                Easy-RSA Generated Certificate
            X509v3 Subject Key Identifier: 
                DC:B1:58:4C:3E:83:0F:CE:88:CD:FE:83:03:6D:FC:11:00:C5:CD:BA
            X509v3 Authority Key Identifier: 
                keyid:EF:38:8D:14:50:58:A7:5B:4D:9C:17:72:FC:DF:B9:AC:A7:51:B0:10
                DirName:/C=US/ST=CA/L=SanFrancisco/O=Pixglo, Inc./OU=VPN-CIE/CN=tunnel.pixglo.com/name=Bala Chandrasekaran/emailAddress=bala@pixglo.com
                serial:A6:DB:C6:83:80:E6:A0:79

            X509v3 Extended Key Usage: 
                TLS Web Client Authentication
            X509v3 Key Usage: 
                Digital Signature
    Signature Algorithm: sha1WithRSAEncryption
         36:f7:10:02:87:d5:62:2c:e5:76:1e:8a:31:13:2a:3e:3a:7e:
         7c:f9:f5:f2:a9:bc:37:4f:96:05:dc:b5:88:ea:03:18:87:7f:
         de:0c:e8:19:74:bf:eb:92:9d:e5:fc:bd:73:e3:19:d9:a0:29:
         13:5d:9e:f6:41:39:df:0b:bc:26:c9:52:1c:bf:76:1a:05:9f:
         f7:7a:7e:a7:5c:f0:30:1d:34:b1:87:b7:09:26:80:2b:51:c1:
         46:a3:62:e9:b8:41:72:69:9a:93:e2:46:2d:7f:d9:66:fc:8f:
         bf:12:b5:5d:2d:d8:44:d5:76:15:c6:da:7b:09:86:79:f5:22:
         48:1e:bd:9d:d9:a4:2e:32:48:26:c3:75:eb:2c:18:a2:8f:86:
         08:92:b9:bf:20:77:55:46:c2:07:f5:62:f0:e3:d5:38:8e:ad:
         1f:c1:1f:13:4f:23:af:bd:10:25:f6:2f:b0:5a:1d:2e:d1:dd:
         48:a3:a6:f8:b4:50:b8:80:d9:e4:4f:e5:9e:6f:ec:53:67:b2:
         67:e2:31:c5:26:37:9f:10:e3:eb:3e:ce:06:7f:6d:ab:e7:de:
         d3:2b:1e:1b:bc:80:16:dc:ee:44:c0:05:f0:8e:0d:0a:68:3c:
         05:e4:8c:0c:f2:79:f2:fc:18:aa:d0:1f:64:cf:93:0c:2d:9f:
         e5:f1:c1:0d:ac:ad:33:ee:78:da:8c:71:8a:30:24:3f:ba:d5:
         96:37:d8:d9:09:45:c1:fe:37:4b:5f:05:78:f4:45:53:e6:ee:
         7a:30:cd:94:4b:a4:4c:93:0d:d7:b8:94:15:94:0d:36:a0:22:
         50:d9:cc:2f:b9:45:79:90:ad:93:39:35:48:2c:9b:55:14:06:
         a2:cc:5a:9d:ed:1c:71:a7:0b:4d:21:4b:48:b3:0e:33:6b:66:
         e4:4a:54:65:01:0e:19:45:18:df:03:31:26:37:99:01:eb:f0:
         52:b4:42:62:8f:a8:cf:fd:c8:6e:53:c2:b3:75:3c:31:6d:71:
         ad:4c:62:0b:4d:8e:ac:87:8e:64:0b:82:81:1a:fc:7b:56:7a:
         e4:6d:b7:c1:9f:2d:8f:5d:f8:f4:13:fb:c3:01:ba:03:86:61:
         a7:a8:11:28:76:63:91:91:40:a0:8e:a5:7f:eb:b7:b3:e0:4b:
         d3:2c:ae:3b:16:36:ad:4e:cd:27:15:57:e0:0d:f1:ee:db:dd:
         67:19:ad:ba:b6:90:bc:f5:ec:c2:9b:87:2a:20:c6:2e:36:f1:
         6c:b6:e3:cc:7a:f9:a2:36:1b:04:af:80:9d:c5:86:ac:49:83:
         75:7f:ac:58:a8:85:b1:3a:6f:9b:52:ff:ae:4d:da:e9:f3:3f:
         29:a0:7a:c9:78:60:9d:bb
-----BEGIN CERTIFICATE-----
MIIHSDCCBTCgAwIBAgICAkIwDQYJKoZIhvcNAQEFBQAwgbQxCzAJBgNVBAYTAlVT
MQswCQYDVQQIEwJDQTEVMBMGA1UEBxMMU2FuRnJhbmNpc2NvMRUwEwYDVQQKEwxQ
aXhnbG8sIEluYy4xEDAOBgNVBAsTB1ZQTi1DSUUxGjAYBgNVBAMTEXR1bm5lbC5w
aXhnbG8uY29tMRwwGgYDVQQpExNCYWxhIENoYW5kcmFzZWthcmFuMR4wHAYJKoZI
hvcNAQkBFg9iYWxhQHBpeGdsby5jb20wHhcNMTgwMjE0MDYzNzMxWhcNMjgwMjEy
MDYzNzMxWjCBqTELMAkGA1UEBhMCVVMxCzAJBgNVBAgTAkNBMRUwEwYDVQQHEwxT
YW5GcmFuY2lzY28xFTATBgNVBAoTDFBpeGdsbywgSW5jLjEQMA4GA1UECxMHVlBO
LUNJRTEPMA0GA1UEAxMGY2llNTc3MRwwGgYDVQQpExNCYWxhIENoYW5kcmFzZWth
cmFuMR4wHAYJKoZIhvcNAQkBFg9iYWxhQHBpeGdsby5jb20wggIiMA0GCSqGSIb3
DQEBAQUAA4ICDwAwggIKAoICAQDKQl0kTgzWLCuFcdWGRot8PrhwUTE9ZeId6Vhf
bitSx88E+Twr/jEhzDO3YBhvIKnfVFMp30A6K1iBTNH615HyN5pew9mYyYfFeSei
DHbxoEdqkoqv4eLXVxB1bF2ao9RuDBya16ELZUgCg8d4GN5YT3EmCUPHCS6aXByY
PsxZawBk6w9RBQE8EW/qSNQgfCk8HK6o1dVT3zwkpb2KDYyzzDYYPJKlg0grejTr
Wn2ZGQnx+da/UogaXKFvli03cbmNFvmevQzQf98RN1R3/uALorL2mTT4qhzxNnOa
sDYzmAggy0gTQbKf5giwQ1x5jjjBRF1MbkaIa8dZVvQEpUGSwkYlbW9ESWjapYYF
8ttbmlKml9kJ9D0+qe70Ah46r6k/1jn4JEpP9EW4ab0QgNJCV+VtWhPWoEJbaYNm
cOBFsDkQi2xHaHwpJgnJ5W0nGfJG/NNV95ZuKPgNqILgdcqYMeBPIcJM4+GZNlcG
WPHI8wAG3ZMuKjBNMAhzNNhvk8UA/GNLntJwZS/1+HXjNUqmt5ZWSWT94I1pzCcG
ByXbUsabToMZ0jcOldx20iHV9d95uLvD69/NkGGNjyvcyPdfxF7p/GQ4ePNJfPVH
iexXy8SrsSyrh8h9xTAw241tzBv0x8G2CfV/mAH5HShFcFndHQB9ISaPvs+mDF6V
NNoQtQIDAQABo4IBazCCAWcwCQYDVR0TBAIwADAtBglghkgBhvhCAQ0EIBYeRWFz
eS1SU0EgR2VuZXJhdGVkIENlcnRpZmljYXRlMB0GA1UdDgQWBBTcsVhMPoMPzojN
/oMDbfwRAMXNujCB6QYDVR0jBIHhMIHegBTvOI0UUFinW02cF3L837msp1GwEKGB
uqSBtzCBtDELMAkGA1UEBhMCVVMxCzAJBgNVBAgTAkNBMRUwEwYDVQQHEwxTYW5G
cmFuY2lzY28xFTATBgNVBAoTDFBpeGdsbywgSW5jLjEQMA4GA1UECxMHVlBOLUNJ
RTEaMBgGA1UEAxMRdHVubmVsLnBpeGdsby5jb20xHDAaBgNVBCkTE0JhbGEgQ2hh
bmRyYXNla2FyYW4xHjAcBgkqhkiG9w0BCQEWD2JhbGFAcGl4Z2xvLmNvbYIJAKbb
xoOA5qB5MBMGA1UdJQQMMAoGCCsGAQUFBwMCMAsGA1UdDwQEAwIHgDANBgkqhkiG
9w0BAQUFAAOCAgEANvcQAofVYizldh6KMRMqPjp+fPn18qm8N0+WBdy1iOoDGId/
3gzoGXS/65Kd5fy9c+MZ2aApE12e9kE53wu8JslSHL92GgWf93p+p1zwMB00sYe3
CSaAK1HBRqNi6bhBcmmak+JGLX/ZZvyPvxK1XS3YRNV2FcbaewmGefUiSB69ndmk
LjJIJsN16ywYoo+GCJK5vyB3VUbCB/Vi8OPVOI6tH8EfE08jr70QJfYvsFodLtHd
SKOm+LRQuIDZ5E/lnm/sU2eyZ+IxxSY3nxDj6z7OBn9tq+fe0yseG7yAFtzuRMAF
8I4NCmg8BeSMDPJ58vwYqtAfZM+TDC2f5fHBDaytM+542oxxijAkP7rVljfY2QlF
wf43S18FePRFU+buejDNlEukTJMN17iUFZQNNqAiUNnML7lFeZCtkzk1SCybVRQG
osxane0ccacLTSFLSLMOM2tm5EpUZQEOGUUY3wMxJjeZAevwUrRCYo+oz/3IblPC
s3U8MW1xrUxiC02OrIeOZAuCgRr8e1Z65G23wZ8tj1349BP7wwG6A4Zhp6gRKHZj
kZFAoI6lf+u3s+BL0yyuOxY2rU7NJxVX4A3x7tvdZxmturaQvPXswpuHKiDGLjbx
bLbjzHr5ojYbBK+AncWGrEmDdX+sWKiFsTpvm1L/rk3a6fM/KaB6yXhgnbs=
-----END CERTIFICATE-----
