Certificate:
    Data:
        Version: 3 (0x2)
        Serial Number: 579 (0x243)
    Signature Algorithm: sha1WithRSAEncryption
        Issuer: C=US, ST=CA, L=SanFrancisco, O=Pixglo, Inc., OU=VPN-CIE, CN=tunnel.pixglo.com/name=Bala Chandrasekaran/emailAddress=bala@pixglo.com
        Validity
            Not Before: Feb 14 06:37:34 2018 GMT
            Not After : Feb 12 06:37:34 2028 GMT
        Subject: C=US, ST=CA, L=SanFrancisco, O=Pixglo, Inc., OU=VPN-CIE, CN=cie578/name=Bala Chandrasekaran/emailAddress=bala@pixglo.com
        Subject Public Key Info:
            Public Key Algorithm: rsaEncryption
                Public-Key: (4096 bit)
                Modulus:
                    00:a1:de:02:bc:0c:8b:a3:5a:af:0a:68:b7:20:b3:
                    27:c4:1e:4e:85:eb:20:60:85:53:97:d3:3b:45:1a:
                    7c:05:bd:6d:5f:31:80:20:c3:83:0a:20:b4:49:53:
                    b0:76:77:7d:e5:e1:d5:ea:7c:60:86:13:b4:9c:8c:
                    4f:2b:e0:fd:ea:e3:c5:66:db:22:12:3a:ac:84:00:
                    b4:18:55:b2:40:09:aa:ef:5e:15:5e:b5:9a:5e:fd:
                    50:2f:71:38:bd:6d:9c:c2:d9:57:2f:b1:c4:05:f2:
                    95:c9:9c:8f:be:cb:71:06:b4:e3:ff:7b:39:f9:60:
                    24:7b:6b:1a:05:ab:97:a1:a1:07:a1:e9:41:5c:82:
                    1f:7f:99:a6:0e:0f:87:9d:00:7a:35:17:b7:44:11:
                    e6:60:fe:ee:e2:ea:27:01:c7:dd:ec:e2:30:21:ce:
                    d1:8a:52:29:32:93:39:c0:54:26:63:66:88:bc:1d:
                    c9:06:bd:10:d0:07:a3:05:f9:6e:ea:0e:ef:d7:d8:
                    45:4a:51:dd:f5:be:28:e5:aa:02:c4:c1:f5:dd:68:
                    8e:92:50:99:3d:de:6c:2f:dd:28:c8:8c:7a:6c:99:
                    93:b3:0d:95:4a:24:57:fb:5d:84:74:81:91:88:44:
                    49:a2:e7:7b:2c:6a:9c:cc:ee:3f:5a:9b:a7:eb:7b:
                    ff:6a:c5:6b:64:98:60:9d:fc:b7:fa:ab:fd:87:9e:
                    26:df:ab:35:bb:87:e5:c7:04:0f:2d:25:0d:94:48:
                    cb:8a:68:18:5d:61:fe:0d:cc:0b:22:8d:4f:16:f4:
                    8f:25:23:bb:0c:2b:ae:54:06:9b:03:b8:2f:66:07:
                    ad:66:50:5a:82:c1:38:da:78:0b:e8:ca:b4:fc:25:
                    9b:69:b3:b1:6a:2d:c2:e5:10:b4:2c:5b:9d:76:34:
                    c5:7a:7f:39:27:f0:f1:17:46:7e:0e:15:93:fc:94:
                    34:5c:9a:41:f9:9c:72:f3:2b:b3:73:88:a2:21:ac:
                    89:98:ae:d3:81:e2:2c:1c:fe:d1:9d:e3:db:9c:f8:
                    b6:69:5f:a7:8a:56:6d:7e:ca:b5:fc:22:2a:8c:e3:
                    b1:7b:d6:26:ac:43:b6:63:88:c2:87:b1:1a:94:5f:
                    36:7b:49:96:92:90:d0:a7:bc:cf:43:02:f7:58:f4:
                    38:35:d7:be:ad:e4:aa:0f:7d:e6:15:ec:5c:55:bb:
                    f0:bc:b1:1c:c6:d0:3b:41:29:a9:70:08:39:9d:4d:
                    39:b8:18:fb:4a:af:3a:c3:64:f2:44:40:9b:7f:e5:
                    ba:48:98:04:98:0d:b9:ea:be:ca:59:33:f7:ae:1a:
                    46:f5:b3:e2:5b:a4:75:cc:9e:25:b8:0f:b7:ec:72:
                    df:cf:af
                Exponent: 65537 (0x10001)
        X509v3 extensions:
            X509v3 Basic Constraints: 
                CA:FALSE
            Netscape Comment: 
                Easy-RSA Generated Certificate
            X509v3 Subject Key Identifier: 
                B0:27:94:5F:C2:26:3C:8E:D2:A7:D0:C1:34:50:1C:D8:45:2E:26:0B
            X509v3 Authority Key Identifier: 
                keyid:EF:38:8D:14:50:58:A7:5B:4D:9C:17:72:FC:DF:B9:AC:A7:51:B0:10
                DirName:/C=US/ST=CA/L=SanFrancisco/O=Pixglo, Inc./OU=VPN-CIE/CN=tunnel.pixglo.com/name=Bala Chandrasekaran/emailAddress=bala@pixglo.com
                serial:A6:DB:C6:83:80:E6:A0:79

            X509v3 Extended Key Usage: 
                TLS Web Client Authentication
            X509v3 Key Usage: 
                Digital Signature
    Signature Algorithm: sha1WithRSAEncryption
         02:d8:6a:37:32:e7:c2:d0:26:da:69:a6:05:9c:77:68:ba:37:
         e4:28:1c:85:0b:7f:37:56:94:44:d8:d9:02:f3:fd:ae:0c:71:
         82:60:69:94:7f:e5:1c:e3:b8:27:eb:9a:c2:03:14:bf:96:c4:
         04:a4:03:c0:8f:fc:9f:61:7c:5c:94:64:7d:b2:be:7a:ab:91:
         7e:ad:56:48:7d:57:60:2b:f8:e1:4f:c7:a2:5c:c9:18:02:95:
         27:02:db:b3:19:de:9a:fb:1c:3a:fd:0f:a8:80:78:bb:d2:9d:
         55:f4:6c:3b:17:69:8b:cd:81:91:b8:5d:c0:9f:09:8c:39:8b:
         6d:27:12:a0:c4:bc:a8:c5:bd:86:36:a5:03:f5:11:ae:1f:de:
         ee:e7:38:ca:29:3e:fd:98:45:b5:03:71:64:f7:65:01:17:c6:
         22:67:36:bd:ed:d5:5e:31:ef:a1:f0:89:09:71:93:d6:c8:93:
         67:6c:15:e3:11:86:2e:10:3d:f9:68:96:81:9c:41:88:e1:47:
         2d:3a:6e:17:b8:15:45:f4:9c:8a:58:51:e5:26:ff:f2:5a:cf:
         0d:d2:6f:1c:b1:c5:2a:ca:f3:4b:ee:31:17:7d:8d:82:51:4f:
         bf:15:95:42:9d:a3:5a:b2:04:b1:5f:11:27:4a:69:4f:73:f8:
         42:8f:48:50:f2:a1:69:df:6a:c3:b5:af:40:95:cb:2b:76:7d:
         c3:10:dd:ad:9c:75:da:fe:fb:e1:95:65:22:96:39:e1:1e:94:
         35:c9:11:c6:d0:5e:0b:27:90:c6:f8:60:99:c7:f0:a7:e4:dc:
         2b:2c:0b:32:e1:99:e0:29:a1:30:ff:20:0b:ff:03:c5:52:7c:
         84:59:f7:d7:11:26:7f:b7:b7:5a:46:90:72:9e:b3:82:63:15:
         b2:89:46:b0:f0:da:d5:e0:d9:47:80:a5:f0:50:65:84:fc:8d:
         55:d1:a5:69:11:b5:d8:75:64:ce:c9:a7:c1:cf:08:5b:2e:2e:
         7a:b2:2c:7f:6e:78:f5:aa:41:44:fb:3d:2b:23:36:a9:22:01:
         9a:c5:6d:a8:fc:72:4c:de:37:87:2f:1a:8a:c9:77:d9:7f:57:
         13:fb:76:e5:4b:87:65:d9:4d:0a:6c:97:d3:07:f0:44:af:13:
         2f:0e:79:b1:a2:34:65:7b:51:db:2c:ca:dd:fa:ae:19:0d:6a:
         8e:16:5d:f9:0d:1e:6c:f7:a1:1f:03:98:ab:7b:13:fc:d0:52:
         41:6f:67:14:f0:a3:84:1c:d7:34:c8:5b:71:39:6f:cd:f0:fc:
         f3:0e:87:e3:f6:55:c9:88:4b:b4:04:de:a8:e3:29:d3:03:e8:
         6a:c9:4f:ea:85:a2:82:de
-----BEGIN CERTIFICATE-----
MIIHSDCCBTCgAwIBAgICAkMwDQYJKoZIhvcNAQEFBQAwgbQxCzAJBgNVBAYTAlVT
MQswCQYDVQQIEwJDQTEVMBMGA1UEBxMMU2FuRnJhbmNpc2NvMRUwEwYDVQQKEwxQ
aXhnbG8sIEluYy4xEDAOBgNVBAsTB1ZQTi1DSUUxGjAYBgNVBAMTEXR1bm5lbC5w
aXhnbG8uY29tMRwwGgYDVQQpExNCYWxhIENoYW5kcmFzZWthcmFuMR4wHAYJKoZI
hvcNAQkBFg9iYWxhQHBpeGdsby5jb20wHhcNMTgwMjE0MDYzNzM0WhcNMjgwMjEy
MDYzNzM0WjCBqTELMAkGA1UEBhMCVVMxCzAJBgNVBAgTAkNBMRUwEwYDVQQHEwxT
YW5GcmFuY2lzY28xFTATBgNVBAoTDFBpeGdsbywgSW5jLjEQMA4GA1UECxMHVlBO
LUNJRTEPMA0GA1UEAxMGY2llNTc4MRwwGgYDVQQpExNCYWxhIENoYW5kcmFzZWth
cmFuMR4wHAYJKoZIhvcNAQkBFg9iYWxhQHBpeGdsby5jb20wggIiMA0GCSqGSIb3
DQEBAQUAA4ICDwAwggIKAoICAQCh3gK8DIujWq8KaLcgsyfEHk6F6yBghVOX0ztF
GnwFvW1fMYAgw4MKILRJU7B2d33l4dXqfGCGE7ScjE8r4P3q48Vm2yISOqyEALQY
VbJACarvXhVetZpe/VAvcTi9bZzC2VcvscQF8pXJnI++y3EGtOP/ezn5YCR7axoF
q5ehoQeh6UFcgh9/maYOD4edAHo1F7dEEeZg/u7i6icBx93s4jAhztGKUikykznA
VCZjZoi8HckGvRDQB6MF+W7qDu/X2EVKUd31vijlqgLEwfXdaI6SUJk93mwv3SjI
jHpsmZOzDZVKJFf7XYR0gZGIREmi53ssapzM7j9am6fre/9qxWtkmGCd/Lf6q/2H
nibfqzW7h+XHBA8tJQ2USMuKaBhdYf4NzAsijU8W9I8lI7sMK65UBpsDuC9mB61m
UFqCwTjaeAvoyrT8JZtps7FqLcLlELQsW512NMV6fzkn8PEXRn4OFZP8lDRcmkH5
nHLzK7NziKIhrImYrtOB4iwc/tGd49uc+LZpX6eKVm1+yrX8IiqM47F71iasQ7Zj
iMKHsRqUXzZ7SZaSkNCnvM9DAvdY9Dg1176t5KoPfeYV7FxVu/C8sRzG0DtBKalw
CDmdTTm4GPtKrzrDZPJEQJt/5bpImASYDbnqvspZM/euGkb1s+JbpHXMniW4D7fs
ct/PrwIDAQABo4IBazCCAWcwCQYDVR0TBAIwADAtBglghkgBhvhCAQ0EIBYeRWFz
eS1SU0EgR2VuZXJhdGVkIENlcnRpZmljYXRlMB0GA1UdDgQWBBSwJ5RfwiY8jtKn
0ME0UBzYRS4mCzCB6QYDVR0jBIHhMIHegBTvOI0UUFinW02cF3L837msp1GwEKGB
uqSBtzCBtDELMAkGA1UEBhMCVVMxCzAJBgNVBAgTAkNBMRUwEwYDVQQHEwxTYW5G
cmFuY2lzY28xFTATBgNVBAoTDFBpeGdsbywgSW5jLjEQMA4GA1UECxMHVlBOLUNJ
RTEaMBgGA1UEAxMRdHVubmVsLnBpeGdsby5jb20xHDAaBgNVBCkTE0JhbGEgQ2hh
bmRyYXNla2FyYW4xHjAcBgkqhkiG9w0BCQEWD2JhbGFAcGl4Z2xvLmNvbYIJAKbb
xoOA5qB5MBMGA1UdJQQMMAoGCCsGAQUFBwMCMAsGA1UdDwQEAwIHgDANBgkqhkiG
9w0BAQUFAAOCAgEAAthqNzLnwtAm2mmmBZx3aLo35CgchQt/N1aURNjZAvP9rgxx
gmBplH/lHOO4J+uawgMUv5bEBKQDwI/8n2F8XJRkfbK+equRfq1WSH1XYCv44U/H
olzJGAKVJwLbsxnemvscOv0PqIB4u9KdVfRsOxdpi82BkbhdwJ8JjDmLbScSoMS8
qMW9hjalA/URrh/e7uc4yik+/ZhFtQNxZPdlARfGImc2ve3VXjHvofCJCXGT1siT
Z2wV4xGGLhA9+WiWgZxBiOFHLTpuF7gVRfScilhR5Sb/8lrPDdJvHLHFKsrzS+4x
F32NglFPvxWVQp2jWrIEsV8RJ0ppT3P4Qo9IUPKhad9qw7WvQJXLK3Z9wxDdrZx1
2v774ZVlIpY54R6UNckRxtBeCyeQxvhgmcfwp+TcKywLMuGZ4CmhMP8gC/8DxVJ8
hFn31xEmf7e3WkaQcp6zgmMVsolGsPDa1eDZR4Cl8FBlhPyNVdGlaRG12HVkzsmn
wc8IWy4uerIsf2549apBRPs9KyM2qSIBmsVtqPxyTN43hy8aisl32X9XE/t25UuH
ZdlNCmyX0wfwRK8TLw55saI0ZXtR2yzK3fquGQ1qjhZd+Q0ebPehHwOYq3sT/NBS
QW9nFPCjhBzXNMhbcTlvzfD88w6H4/ZVyYhLtATeqOMp0wPoaslP6oWigt4=
-----END CERTIFICATE-----
