Certificate:
    Data:
        Version: 3 (0x2)
        Serial Number: 580 (0x244)
    Signature Algorithm: sha1WithRSAEncryption
        Issuer: C=US, ST=CA, L=SanFrancisco, O=Pixglo, Inc., OU=VPN-CIE, CN=tunnel.pixglo.com/name=Bala Chandrasekaran/emailAddress=bala@pixglo.com
        Validity
            Not Before: Feb 14 06:37:35 2018 GMT
            Not After : Feb 12 06:37:35 2028 GMT
        Subject: C=US, ST=CA, L=SanFrancisco, O=Pixglo, Inc., OU=VPN-CIE, CN=cie579/name=Bala Chandrasekaran/emailAddress=bala@pixglo.com
        Subject Public Key Info:
            Public Key Algorithm: rsaEncryption
                Public-Key: (4096 bit)
                Modulus:
                    00:bb:ab:d8:3e:24:da:98:4e:61:0a:da:6d:9e:b4:
                    e7:71:87:f9:45:f0:42:37:7f:11:df:83:a2:db:c8:
                    b4:be:d0:cb:f6:01:d2:21:47:ce:95:18:1d:2f:34:
                    2d:f6:dd:f6:46:7f:62:11:78:f1:cd:85:f5:77:59:
                    6c:98:c0:2f:17:db:e0:66:45:66:5b:5b:d3:fe:77:
                    f3:90:18:88:4c:9a:62:3a:87:1d:a8:f3:cc:1b:dd:
                    3a:51:60:c1:54:93:7f:b4:6c:63:5f:d9:c7:8f:8c:
                    63:3c:8c:3d:05:66:e5:86:96:29:a3:df:81:2e:f8:
                    19:6e:e5:c7:48:82:3d:0d:d7:00:ca:4d:6a:35:2b:
                    29:61:09:12:1e:ec:f6:f5:57:ce:8c:7c:77:3e:b7:
                    66:6d:92:4c:1e:05:a9:35:e3:43:f5:7b:ca:73:1c:
                    51:c6:c5:b1:1b:cd:28:8b:c1:ea:16:94:b3:09:65:
                    62:35:2c:ba:4b:0c:06:a7:4d:57:ff:1b:c8:04:12:
                    4a:59:e6:1d:c6:e4:31:4e:0a:cc:0d:65:39:df:3a:
                    03:3b:2e:16:1b:1c:05:a8:9e:a7:cd:ea:73:96:57:
                    26:1c:06:b7:ba:52:88:35:1c:0e:82:8a:81:cc:fb:
                    02:02:1e:60:53:0f:11:c5:46:22:b1:82:af:37:d4:
                    a1:13:1f:d3:29:aa:68:06:85:b6:f8:63:e6:3f:12:
                    66:de:e7:d9:9d:e0:70:58:19:09:52:8c:8b:b5:a3:
                    3c:94:7f:d0:ae:32:f2:6e:0e:66:c4:9b:8d:9c:30:
                    a6:f3:00:df:0f:c7:af:29:fe:f4:7d:a1:65:5d:1b:
                    8d:5f:97:84:df:58:05:fe:c8:ef:19:27:df:47:0f:
                    e6:23:49:45:29:14:18:ec:0c:8b:cc:1f:48:eb:3b:
                    a8:6e:43:40:a3:9b:90:a0:68:9b:a1:0e:5e:2d:fb:
                    bf:13:53:55:e7:7f:7d:d7:43:eb:77:e3:02:da:62:
                    b3:88:8b:f7:0b:74:ad:46:4c:df:3d:1b:95:2f:b9:
                    c1:06:c9:ae:99:50:61:72:35:ca:35:a4:73:68:0a:
                    df:8d:d5:d7:4f:ae:1d:36:21:ec:a1:55:de:d1:4f:
                    7e:43:0b:c1:9c:3a:ea:55:63:94:e9:91:a9:1a:07:
                    ac:10:52:ea:a9:cc:06:eb:3b:19:d5:0e:c8:92:37:
                    39:e6:e4:b9:c4:aa:a5:5f:61:47:c9:c3:fa:19:6c:
                    05:aa:e5:bc:61:d6:68:1f:fd:85:cb:31:3f:72:34:
                    48:bd:e5:21:a5:8d:94:18:f1:23:c3:a6:a0:64:97:
                    8e:e3:b6:5c:96:37:b8:49:ad:f3:40:77:bf:4f:45:
                    1d:6f:27
                Exponent: 65537 (0x10001)
        X509v3 extensions:
            X509v3 Basic Constraints: 
                CA:FALSE
            Netscape Comment: 
                Easy-RSA Generated Certificate
            X509v3 Subject Key Identifier: 
                69:02:26:25:E1:8E:98:00:6B:45:4C:A8:8C:7A:50:E4:4B:FF:A7:33
            X509v3 Authority Key Identifier: 
                keyid:EF:38:8D:14:50:58:A7:5B:4D:9C:17:72:FC:DF:B9:AC:A7:51:B0:10
                DirName:/C=US/ST=CA/L=SanFrancisco/O=Pixglo, Inc./OU=VPN-CIE/CN=tunnel.pixglo.com/name=Bala Chandrasekaran/emailAddress=bala@pixglo.com
                serial:A6:DB:C6:83:80:E6:A0:79

            X509v3 Extended Key Usage: 
                TLS Web Client Authentication
            X509v3 Key Usage: 
                Digital Signature
    Signature Algorithm: sha1WithRSAEncryption
         d6:02:0d:8c:5c:59:86:70:29:bc:44:16:f8:cb:8f:e1:c7:40:
         ee:f9:9c:67:5b:2b:34:32:3d:1a:e2:8a:f0:a2:39:9c:81:72:
         4d:08:22:ea:ba:16:56:af:22:34:8e:c8:af:0b:45:30:a3:d3:
         eb:c9:bc:86:52:69:34:08:0b:8d:c5:ff:11:e1:30:64:c2:d7:
         a6:0b:1d:70:2e:c4:0c:cc:4e:1d:ed:be:a4:6b:30:c8:10:ae:
         f6:fc:b8:22:47:5c:ce:24:2e:fb:0a:da:e3:d2:86:34:38:5a:
         9a:af:87:12:12:75:aa:7a:f3:69:f4:9c:89:ae:31:7f:d5:00:
         71:f7:76:9e:90:7c:b5:71:f7:2c:66:1f:1e:19:51:bd:91:46:
         91:9a:c6:f3:e3:1d:df:0e:fa:a1:ba:aa:48:2d:12:e7:1b:eb:
         07:ce:58:95:4f:03:07:df:27:1b:f4:60:a2:e2:c6:f5:6f:1f:
         1c:46:d1:fb:71:1a:73:f1:85:4c:c7:34:83:a7:5c:35:c9:99:
         ad:07:35:65:1a:4a:8b:67:b4:0e:23:0e:a4:62:00:95:cf:43:
         9b:0b:79:25:d1:10:c5:6b:a6:4e:fc:b0:c0:56:36:f1:38:5a:
         ce:4e:d8:75:71:9b:66:78:63:a4:e3:18:9e:15:19:80:c2:a7:
         10:d4:9f:28:bd:b7:86:d9:93:08:2a:a6:35:85:26:e5:03:eb:
         a0:de:dd:e2:7f:48:6d:49:e9:55:51:a5:79:69:8c:dc:70:ea:
         d4:dc:74:a3:8c:30:be:97:ac:9f:eb:d5:54:9b:9c:bb:c2:96:
         46:a7:db:40:f3:b0:f9:1e:d6:13:77:09:29:11:07:b9:b2:a2:
         83:1c:2f:e1:ed:42:48:aa:20:76:82:ff:18:90:8e:43:1c:19:
         62:be:73:45:7a:ca:72:7b:53:fb:8b:73:d1:73:12:6b:af:f0:
         9c:d2:4e:87:06:aa:e6:3e:df:65:88:b2:31:24:1f:e6:6d:57:
         c9:b5:18:2e:d1:aa:2e:d8:74:d9:df:56:d4:5f:e2:4c:38:0b:
         69:cc:2f:ed:9d:ea:3c:93:5c:c9:1c:ba:86:3c:27:8d:a0:04:
         fe:f4:47:55:7a:3a:1c:f2:48:fd:4c:48:aa:3c:10:93:34:15:
         a9:e6:b5:12:1d:3d:73:b9:97:1a:54:2e:8a:65:e1:25:4f:87:
         4c:bf:52:81:8f:7f:30:07:5d:66:11:45:f5:68:e4:69:44:6e:
         4a:4e:dd:08:05:0d:11:3b:aa:2f:50:99:24:2c:df:07:97:6b:
         70:5e:75:20:a5:95:26:c0:94:ef:27:2e:a6:8c:b8:4e:f8:b0:
         53:c7:8e:6f:e7:33:0c:2c
-----BEGIN CERTIFICATE-----
MIIHSDCCBTCgAwIBAgICAkQwDQYJKoZIhvcNAQEFBQAwgbQxCzAJBgNVBAYTAlVT
MQswCQYDVQQIEwJDQTEVMBMGA1UEBxMMU2FuRnJhbmNpc2NvMRUwEwYDVQQKEwxQ
aXhnbG8sIEluYy4xEDAOBgNVBAsTB1ZQTi1DSUUxGjAYBgNVBAMTEXR1bm5lbC5w
aXhnbG8uY29tMRwwGgYDVQQpExNCYWxhIENoYW5kcmFzZWthcmFuMR4wHAYJKoZI
hvcNAQkBFg9iYWxhQHBpeGdsby5jb20wHhcNMTgwMjE0MDYzNzM1WhcNMjgwMjEy
MDYzNzM1WjCBqTELMAkGA1UEBhMCVVMxCzAJBgNVBAgTAkNBMRUwEwYDVQQHEwxT
YW5GcmFuY2lzY28xFTATBgNVBAoTDFBpeGdsbywgSW5jLjEQMA4GA1UECxMHVlBO
LUNJRTEPMA0GA1UEAxMGY2llNTc5MRwwGgYDVQQpExNCYWxhIENoYW5kcmFzZWth
cmFuMR4wHAYJKoZIhvcNAQkBFg9iYWxhQHBpeGdsby5jb20wggIiMA0GCSqGSIb3
DQEBAQUAA4ICDwAwggIKAoICAQC7q9g+JNqYTmEK2m2etOdxh/lF8EI3fxHfg6Lb
yLS+0Mv2AdIhR86VGB0vNC323fZGf2IRePHNhfV3WWyYwC8X2+BmRWZbW9P+d/OQ
GIhMmmI6hx2o88wb3TpRYMFUk3+0bGNf2cePjGM8jD0FZuWGlimj34Eu+Blu5cdI
gj0N1wDKTWo1KylhCRIe7Pb1V86MfHc+t2ZtkkweBak140P1e8pzHFHGxbEbzSiL
weoWlLMJZWI1LLpLDAanTVf/G8gEEkpZ5h3G5DFOCswNZTnfOgM7LhYbHAWonqfN
6nOWVyYcBre6Uog1HA6CioHM+wICHmBTDxHFRiKxgq831KETH9MpqmgGhbb4Y+Y/
Embe59md4HBYGQlSjIu1ozyUf9CuMvJuDmbEm42cMKbzAN8Px68p/vR9oWVdG41f
l4TfWAX+yO8ZJ99HD+YjSUUpFBjsDIvMH0jrO6huQ0Cjm5CgaJuhDl4t+78TU1Xn
f33XQ+t34wLaYrOIi/cLdK1GTN89G5UvucEGya6ZUGFyNco1pHNoCt+N1ddPrh02
IeyhVd7RT35DC8GcOupVY5TpkakaB6wQUuqpzAbrOxnVDsiSNznm5LnEqqVfYUfJ
w/oZbAWq5bxh1mgf/YXLMT9yNEi95SGljZQY8SPDpqBkl47jtlyWN7hJrfNAd79P
RR1vJwIDAQABo4IBazCCAWcwCQYDVR0TBAIwADAtBglghkgBhvhCAQ0EIBYeRWFz
eS1SU0EgR2VuZXJhdGVkIENlcnRpZmljYXRlMB0GA1UdDgQWBBRpAiYl4Y6YAGtF
TKiMelDkS/+nMzCB6QYDVR0jBIHhMIHegBTvOI0UUFinW02cF3L837msp1GwEKGB
uqSBtzCBtDELMAkGA1UEBhMCVVMxCzAJBgNVBAgTAkNBMRUwEwYDVQQHEwxTYW5G
cmFuY2lzY28xFTATBgNVBAoTDFBpeGdsbywgSW5jLjEQMA4GA1UECxMHVlBOLUNJ
RTEaMBgGA1UEAxMRdHVubmVsLnBpeGdsby5jb20xHDAaBgNVBCkTE0JhbGEgQ2hh
bmRyYXNla2FyYW4xHjAcBgkqhkiG9w0BCQEWD2JhbGFAcGl4Z2xvLmNvbYIJAKbb
xoOA5qB5MBMGA1UdJQQMMAoGCCsGAQUFBwMCMAsGA1UdDwQEAwIHgDANBgkqhkiG
9w0BAQUFAAOCAgEA1gINjFxZhnApvEQW+MuP4cdA7vmcZ1srNDI9GuKK8KI5nIFy
TQgi6roWVq8iNI7IrwtFMKPT68m8hlJpNAgLjcX/EeEwZMLXpgsdcC7EDMxOHe2+
pGswyBCu9vy4IkdcziQu+wra49KGNDhamq+HEhJ1qnrzafScia4xf9UAcfd2npB8
tXH3LGYfHhlRvZFGkZrG8+Md3w76obqqSC0S5xvrB85YlU8DB98nG/RgouLG9W8f
HEbR+3Eac/GFTMc0g6dcNcmZrQc1ZRpKi2e0DiMOpGIAlc9Dmwt5JdEQxWumTvyw
wFY28Thazk7YdXGbZnhjpOMYnhUZgMKnENSfKL23htmTCCqmNYUm5QProN7d4n9I
bUnpVVGleWmM3HDq1Nx0o4wwvpesn+vVVJucu8KWRqfbQPOw+R7WE3cJKREHubKi
gxwv4e1CSKogdoL/GJCOQxwZYr5zRXrKcntT+4tz0XMSa6/wnNJOhwaq5j7fZYiy
MSQf5m1XybUYLtGqLth02d9W1F/iTDgLacwv7Z3qPJNcyRy6hjwnjaAE/vRHVXo6
HPJI/UxIqjwQkzQVqea1Eh09c7mXGlQuimXhJU+HTL9SgY9/MAddZhFF9WjkaURu
Sk7dCAUNETuqL1CZJCzfB5drcF51IKWVJsCU7ycupoy4TviwU8eOb+czDCw=
-----END CERTIFICATE-----
