Certificate:
    Data:
        Version: 3 (0x2)
        Serial Number: 581 (0x245)
    Signature Algorithm: sha1WithRSAEncryption
        Issuer: C=US, ST=CA, L=SanFrancisco, O=Pixglo, Inc., OU=VPN-CIE, CN=tunnel.pixglo.com/name=Bala Chandrasekaran/emailAddress=bala@pixglo.com
        Validity
            Not Before: Feb 14 06:37:38 2018 GMT
            Not After : Feb 12 06:37:38 2028 GMT
        Subject: C=US, ST=CA, L=SanFrancisco, O=Pixglo, Inc., OU=VPN-CIE, CN=cie580/name=Bala Chandrasekaran/emailAddress=bala@pixglo.com
        Subject Public Key Info:
            Public Key Algorithm: rsaEncryption
                Public-Key: (4096 bit)
                Modulus:
                    00:ad:be:92:4f:16:bb:f9:ae:10:38:17:d4:ba:e5:
                    e7:92:3f:e6:1a:cf:f4:b5:03:f3:31:48:be:20:00:
                    cf:d1:d5:f9:d9:95:b1:52:42:bb:f9:6c:30:7e:ee:
                    86:f1:86:28:ad:0c:18:27:93:72:b8:70:be:bb:db:
                    24:3f:6e:99:aa:65:53:ed:1e:04:07:cc:2e:cc:fd:
                    97:5f:df:89:92:cb:40:78:5c:dc:6a:c7:cd:21:3a:
                    af:f1:43:0f:c3:1d:54:38:5a:ff:a0:3e:18:8b:3d:
                    d5:cc:ef:2c:bc:24:b5:1f:5c:60:52:8f:fc:ef:34:
                    1a:d5:7d:08:f0:57:ef:46:8e:57:d9:f9:87:7f:9d:
                    21:d7:3f:19:22:5b:b4:55:70:66:90:7b:2c:0e:ad:
                    8b:c6:76:91:79:f6:4b:dc:51:03:28:16:07:60:f5:
                    a8:eb:c5:0e:d2:6d:6f:92:cf:32:af:62:80:a2:9e:
                    4f:94:25:d0:5e:e0:58:55:c4:26:97:f3:02:f4:3d:
                    a0:80:3b:46:65:1b:24:5e:c4:aa:73:60:d1:ea:11:
                    b0:92:b3:1c:a9:ac:29:13:95:d4:44:c6:3a:39:e2:
                    1c:3d:fc:d3:d1:6e:74:d1:a0:d7:75:64:08:9c:74:
                    12:c2:42:dd:88:14:8d:a4:3e:b4:d1:2b:b2:fc:96:
                    e0:93:c6:54:bd:5b:0e:b7:b3:42:b9:08:55:86:fb:
                    31:dd:a2:cc:62:64:37:6c:b1:21:11:c2:82:00:c0:
                    e4:3b:9c:23:66:48:9b:1f:0a:95:b3:9e:04:b5:32:
                    0a:51:90:7b:18:37:54:27:e5:82:d5:09:ef:35:bc:
                    d9:4d:19:06:cf:27:a0:ca:de:06:ba:e5:67:f5:75:
                    1d:72:7a:8c:2d:53:4d:40:fc:ac:16:b2:7c:df:a3:
                    d2:34:ed:c6:e5:5f:18:bb:fe:e2:b7:b9:2b:55:90:
                    28:93:d7:7b:01:1a:e3:16:1f:93:e2:9c:a4:f3:b8:
                    17:b9:da:47:9b:65:cc:31:85:29:55:04:45:37:3f:
                    fe:e9:c1:f3:9a:2e:a5:d5:74:65:a7:ad:c2:00:13:
                    29:59:0d:11:42:c3:18:95:a1:29:0d:f0:e1:78:a9:
                    3f:cf:3d:48:f5:82:a3:ff:5b:6e:22:ec:ca:20:aa:
                    0c:6c:73:29:55:09:1c:2c:40:6d:c6:ff:a6:c9:ff:
                    86:54:10:a5:4b:a7:1b:45:2e:c8:a4:c4:b4:10:fa:
                    78:74:a3:6d:37:14:25:4e:ff:2a:cf:55:e6:29:4c:
                    7b:49:83:a7:8e:fc:0d:61:28:39:b7:2b:cf:fa:db:
                    ee:87:39:48:5c:02:24:29:55:b5:a2:3e:63:36:5e:
                    03:be:35
                Exponent: 65537 (0x10001)
        X509v3 extensions:
            X509v3 Basic Constraints: 
                CA:FALSE
            Netscape Comment: 
                Easy-RSA Generated Certificate
            X509v3 Subject Key Identifier: 
                79:1E:40:FA:ED:12:C2:F1:70:B5:D2:DD:44:19:30:E3:5C:19:61:F9
            X509v3 Authority Key Identifier: 
                keyid:EF:38:8D:14:50:58:A7:5B:4D:9C:17:72:FC:DF:B9:AC:A7:51:B0:10
                DirName:/C=US/ST=CA/L=SanFrancisco/O=Pixglo, Inc./OU=VPN-CIE/CN=tunnel.pixglo.com/name=Bala Chandrasekaran/emailAddress=bala@pixglo.com
                serial:A6:DB:C6:83:80:E6:A0:79

            X509v3 Extended Key Usage: 
                TLS Web Client Authentication
            X509v3 Key Usage: 
                Digital Signature
    Signature Algorithm: sha1WithRSAEncryption
         43:41:92:6b:ea:e7:8d:12:7b:d3:a4:6d:20:37:3a:19:8c:5d:
         90:bf:22:5a:0d:18:eb:8a:91:de:92:13:73:7c:df:d0:8f:95:
         14:82:98:e2:51:a6:72:3d:14:54:bb:78:e0:46:c8:2c:85:6f:
         89:89:01:ab:50:4b:c1:b5:1a:d9:37:15:af:81:1f:8d:92:3a:
         24:95:2a:8c:d3:8f:19:85:c9:24:3e:d8:e4:2e:e0:7c:36:e2:
         f1:28:13:6a:94:ab:a5:ad:de:b9:25:ea:84:ed:56:63:ca:6d:
         ae:68:ab:00:09:2f:91:d5:0d:84:8f:75:14:34:af:c9:0f:c6:
         62:2f:30:a7:6c:00:16:73:53:57:dc:5e:67:51:87:19:ae:62:
         41:05:8b:f4:04:33:3b:8b:ec:ff:de:70:db:f4:d0:d4:b2:f2:
         cd:ec:7f:ef:2c:af:89:9d:15:35:c7:73:48:ab:33:cf:20:0e:
         c6:8c:70:af:8c:e5:62:e8:c2:c8:2b:80:d5:e8:41:83:16:e9:
         99:62:64:40:1e:76:63:b1:b8:4d:a5:31:ed:b5:77:6f:05:49:
         b2:d0:62:48:d9:1a:2d:69:2e:a5:cc:ca:52:cc:00:29:68:81:
         36:ca:64:3f:f6:40:72:62:73:03:e4:03:db:98:46:fe:a0:f3:
         91:bb:f8:26:58:ef:fb:6d:2d:2a:81:06:f2:a0:ae:97:61:63:
         90:76:0b:5d:fe:cf:72:e5:28:40:61:1d:fe:4c:07:38:53:06:
         a7:88:8c:e0:ff:c5:9b:74:ba:f7:0d:4b:a1:f3:6d:06:82:f8:
         39:cf:84:d0:24:da:b7:74:65:3c:a4:97:8b:dd:96:ea:0b:49:
         0b:2d:14:2f:2e:42:32:98:5b:08:b7:17:0d:1b:1d:3c:1c:a4:
         e8:cb:90:7e:69:f1:a3:eb:80:80:7d:07:b8:e2:78:5f:42:c2:
         be:9b:df:36:59:d1:f7:be:cd:c0:24:6c:70:82:a6:89:28:76:
         e5:23:44:e2:bc:48:fa:cf:73:23:24:12:72:7a:6d:02:76:5e:
         a7:ed:5d:45:93:71:c9:a7:28:d9:9e:c9:d2:ab:e2:f7:c8:6c:
         41:3a:97:9e:66:6b:c1:c4:de:ac:9a:9f:3c:fc:81:de:e3:98:
         ba:2c:95:04:dd:71:13:fe:06:bd:29:9b:f9:64:83:3b:75:85:
         27:4e:52:7b:b4:75:e3:3d:23:4a:a6:fb:e8:7d:5d:f0:c3:3d:
         61:f2:07:39:72:59:1a:be:62:c7:1d:e4:3b:2c:51:e2:b1:2f:
         24:22:66:9f:08:e7:81:57:20:a7:bf:a3:7d:ef:36:63:75:9c:
         43:5d:d0:b5:74:e3:f5:ff
-----BEGIN CERTIFICATE-----
MIIHSDCCBTCgAwIBAgICAkUwDQYJKoZIhvcNAQEFBQAwgbQxCzAJBgNVBAYTAlVT
MQswCQYDVQQIEwJDQTEVMBMGA1UEBxMMU2FuRnJhbmNpc2NvMRUwEwYDVQQKEwxQ
aXhnbG8sIEluYy4xEDAOBgNVBAsTB1ZQTi1DSUUxGjAYBgNVBAMTEXR1bm5lbC5w
aXhnbG8uY29tMRwwGgYDVQQpExNCYWxhIENoYW5kcmFzZWthcmFuMR4wHAYJKoZI
hvcNAQkBFg9iYWxhQHBpeGdsby5jb20wHhcNMTgwMjE0MDYzNzM4WhcNMjgwMjEy
MDYzNzM4WjCBqTELMAkGA1UEBhMCVVMxCzAJBgNVBAgTAkNBMRUwEwYDVQQHEwxT
YW5GcmFuY2lzY28xFTATBgNVBAoTDFBpeGdsbywgSW5jLjEQMA4GA1UECxMHVlBO
LUNJRTEPMA0GA1UEAxMGY2llNTgwMRwwGgYDVQQpExNCYWxhIENoYW5kcmFzZWth
cmFuMR4wHAYJKoZIhvcNAQkBFg9iYWxhQHBpeGdsby5jb20wggIiMA0GCSqGSIb3
DQEBAQUAA4ICDwAwggIKAoICAQCtvpJPFrv5rhA4F9S65eeSP+Yaz/S1A/MxSL4g
AM/R1fnZlbFSQrv5bDB+7obxhiitDBgnk3K4cL672yQ/bpmqZVPtHgQHzC7M/Zdf
34mSy0B4XNxqx80hOq/xQw/DHVQ4Wv+gPhiLPdXM7yy8JLUfXGBSj/zvNBrVfQjw
V+9GjlfZ+Yd/nSHXPxkiW7RVcGaQeywOrYvGdpF59kvcUQMoFgdg9ajrxQ7SbW+S
zzKvYoCink+UJdBe4FhVxCaX8wL0PaCAO0ZlGyRexKpzYNHqEbCSsxyprCkTldRE
xjo54hw9/NPRbnTRoNd1ZAicdBLCQt2IFI2kPrTRK7L8luCTxlS9Ww63s0K5CFWG
+zHdosxiZDdssSERwoIAwOQ7nCNmSJsfCpWzngS1MgpRkHsYN1Qn5YLVCe81vNlN
GQbPJ6DK3ga65Wf1dR1yeowtU01A/KwWsnzfo9I07cblXxi7/uK3uStVkCiT13sB
GuMWH5PinKTzuBe52kebZcwxhSlVBEU3P/7pwfOaLqXVdGWnrcIAEylZDRFCwxiV
oSkN8OF4qT/PPUj1gqP/W24i7MogqgxscylVCRwsQG3G/6bJ/4ZUEKVLpxtFLsik
xLQQ+nh0o203FCVO/yrPVeYpTHtJg6eO/A1hKDm3K8/62+6HOUhcAiQpVbWiPmM2
XgO+NQIDAQABo4IBazCCAWcwCQYDVR0TBAIwADAtBglghkgBhvhCAQ0EIBYeRWFz
eS1SU0EgR2VuZXJhdGVkIENlcnRpZmljYXRlMB0GA1UdDgQWBBR5HkD67RLC8XC1
0t1EGTDjXBlh+TCB6QYDVR0jBIHhMIHegBTvOI0UUFinW02cF3L837msp1GwEKGB
uqSBtzCBtDELMAkGA1UEBhMCVVMxCzAJBgNVBAgTAkNBMRUwEwYDVQQHEwxTYW5G
cmFuY2lzY28xFTATBgNVBAoTDFBpeGdsbywgSW5jLjEQMA4GA1UECxMHVlBOLUNJ
RTEaMBgGA1UEAxMRdHVubmVsLnBpeGdsby5jb20xHDAaBgNVBCkTE0JhbGEgQ2hh
bmRyYXNla2FyYW4xHjAcBgkqhkiG9w0BCQEWD2JhbGFAcGl4Z2xvLmNvbYIJAKbb
xoOA5qB5MBMGA1UdJQQMMAoGCCsGAQUFBwMCMAsGA1UdDwQEAwIHgDANBgkqhkiG
9w0BAQUFAAOCAgEAQ0GSa+rnjRJ706RtIDc6GYxdkL8iWg0Y64qR3pITc3zf0I+V
FIKY4lGmcj0UVLt44EbILIVviYkBq1BLwbUa2TcVr4EfjZI6JJUqjNOPGYXJJD7Y
5C7gfDbi8SgTapSrpa3euSXqhO1WY8ptrmirAAkvkdUNhI91FDSvyQ/GYi8wp2wA
FnNTV9xeZ1GHGa5iQQWL9AQzO4vs/95w2/TQ1LLyzex/7yyviZ0VNcdzSKszzyAO
xoxwr4zlYujCyCuA1ehBgxbpmWJkQB52Y7G4TaUx7bV3bwVJstBiSNkaLWkupczK
UswAKWiBNspkP/ZAcmJzA+QD25hG/qDzkbv4Jljv+20tKoEG8qCul2FjkHYLXf7P
cuUoQGEd/kwHOFMGp4iM4P/Fm3S69w1LofNtBoL4Oc+E0CTat3RlPKSXi92W6gtJ
Cy0ULy5CMphbCLcXDRsdPByk6MuQfmnxo+uAgH0HuOJ4X0LCvpvfNlnR977NwCRs
cIKmiSh25SNE4rxI+s9zIyQScnptAnZep+1dRZNxyaco2Z7J0qvi98hsQTqXnmZr
wcTerJqfPPyB3uOYuiyVBN1xE/4GvSmb+WSDO3WFJ05Se7R14z0jSqb76H1d8MM9
YfIHOXJZGr5ixx3kOyxR4rEvJCJmnwjngVcgp7+jfe82Y3WcQ13QtXTj9f8=
-----END CERTIFICATE-----
