Certificate:
    Data:
        Version: 3 (0x2)
        Serial Number: 582 (0x246)
    Signature Algorithm: sha1WithRSAEncryption
        Issuer: C=US, ST=CA, L=SanFrancisco, O=Pixglo, Inc., OU=VPN-CIE, CN=tunnel.pixglo.com/name=Bala Chandrasekaran/emailAddress=bala@pixglo.com
        Validity
            Not Before: Feb 14 06:37:39 2018 GMT
            Not After : Feb 12 06:37:39 2028 GMT
        Subject: C=US, ST=CA, L=SanFrancisco, O=Pixglo, Inc., OU=VPN-CIE, CN=cie581/name=Bala Chandrasekaran/emailAddress=bala@pixglo.com
        Subject Public Key Info:
            Public Key Algorithm: rsaEncryption
                Public-Key: (4096 bit)
                Modulus:
                    00:de:09:36:f9:8e:f9:11:e2:5b:2e:e3:80:4c:a4:
                    4b:09:9a:f5:12:99:02:63:dc:71:da:fa:68:b5:12:
                    16:f6:dd:e3:4d:c9:97:58:36:1b:d6:5e:43:ee:a6:
                    a1:1c:5e:47:4e:b7:20:e4:cd:0a:b7:39:3f:a7:cc:
                    ca:41:9e:c5:9b:35:4d:cc:eb:45:69:86:f7:87:03:
                    d0:2a:f3:dd:7f:5b:a2:b3:96:de:64:05:02:b3:77:
                    7a:a4:fa:e5:9a:9b:26:d4:ba:32:ec:27:41:8a:ef:
                    0f:7a:59:87:b1:b2:18:41:c0:68:f5:27:13:27:11:
                    ba:50:73:ee:6b:97:06:06:b6:54:39:7f:7e:b4:da:
                    21:1d:c7:8a:03:fa:b4:28:8a:42:5a:87:a9:0f:b5:
                    50:67:63:53:92:d3:d3:ad:55:2b:35:26:13:3b:1c:
                    20:04:2e:19:b1:ba:c5:cb:97:84:6f:c2:6c:d5:4b:
                    e3:29:64:a0:3b:0e:0b:2c:95:ba:5c:ee:5f:df:72:
                    9b:c4:a1:d9:a2:07:9c:e0:7c:88:41:37:1e:54:9f:
                    ac:23:2d:19:03:b7:0d:b2:03:fe:33:f6:6b:05:74:
                    a1:99:ac:ae:03:63:13:ae:b9:88:6c:bd:38:ce:3e:
                    85:a8:ec:ae:3b:c6:c4:77:0e:63:33:a6:c0:a7:81:
                    26:44:b5:50:5e:71:e0:b2:2a:3d:23:4e:66:7d:c1:
                    79:6e:74:03:91:a6:11:ed:a5:64:4a:4b:cc:20:4d:
                    dd:96:a1:92:6d:8b:21:fb:39:b0:81:3a:cb:4a:df:
                    ea:fd:4a:35:50:18:de:5e:98:ed:8f:c5:24:2a:a6:
                    d2:92:8d:2e:96:8b:87:ff:9a:2b:5a:a4:1b:3e:31:
                    e2:69:36:a4:cb:55:d0:df:8a:c8:21:1e:20:32:cd:
                    78:41:e4:9b:66:ce:ac:fe:d4:f0:a6:f1:4e:69:9f:
                    e4:8d:ce:7a:90:d3:d2:5b:f9:06:47:9b:75:6e:3c:
                    88:a3:f4:9d:8a:93:b5:6f:c4:f1:e6:f1:a8:87:c5:
                    f9:c5:34:e9:8d:89:1c:75:25:b0:12:8d:3f:78:dd:
                    6b:c9:93:99:ab:0d:f5:4a:b9:a3:9f:9e:47:e3:ab:
                    8b:54:f7:3a:92:5b:7b:f2:2e:ed:26:ef:01:4a:56:
                    bc:58:1b:2e:f1:6d:3b:ed:28:53:92:33:3b:cb:da:
                    1c:cd:42:a7:68:c8:86:74:e6:81:d2:16:e8:cc:18:
                    06:78:03:c2:df:22:96:14:ca:0e:4f:10:9b:b8:8a:
                    48:d1:1a:cd:0d:54:96:1e:37:5a:12:ae:a3:f1:22:
                    1c:00:b0:62:7c:48:55:20:99:35:e1:e5:40:c2:d3:
                    90:ad:25
                Exponent: 65537 (0x10001)
        X509v3 extensions:
            X509v3 Basic Constraints: 
                CA:FALSE
            Netscape Comment: 
                Easy-RSA Generated Certificate
            X509v3 Subject Key Identifier: 
                E1:67:1F:E1:8F:BB:0C:D8:BE:12:48:EC:51:50:58:B9:B2:52:FB:10
            X509v3 Authority Key Identifier: 
                keyid:EF:38:8D:14:50:58:A7:5B:4D:9C:17:72:FC:DF:B9:AC:A7:51:B0:10
                DirName:/C=US/ST=CA/L=SanFrancisco/O=Pixglo, Inc./OU=VPN-CIE/CN=tunnel.pixglo.com/name=Bala Chandrasekaran/emailAddress=bala@pixglo.com
                serial:A6:DB:C6:83:80:E6:A0:79

            X509v3 Extended Key Usage: 
                TLS Web Client Authentication
            X509v3 Key Usage: 
                Digital Signature
    Signature Algorithm: sha1WithRSAEncryption
         d0:3a:4c:5e:16:9b:98:70:fe:69:a0:be:c9:ae:3e:bc:f0:f8:
         fb:33:2c:01:fe:d2:70:a5:d5:71:2b:2e:5f:6d:25:91:79:36:
         87:e3:be:1d:37:02:5e:2f:dd:28:f5:b0:86:49:44:ea:5d:b7:
         67:f2:59:82:34:64:75:fa:ab:06:ea:ac:b7:27:d2:33:ce:d4:
         5f:5a:bf:8a:37:0f:64:3d:57:7b:b5:d0:24:e7:16:1f:0f:47:
         99:17:2d:1a:7b:18:db:dc:cd:d0:45:1e:1e:bd:0b:c4:81:35:
         21:72:d5:6a:5b:ba:52:61:c7:cf:1a:fb:3e:a5:13:fe:e9:4f:
         da:08:36:da:94:9b:c4:44:6c:39:f9:e5:d8:aa:42:7a:42:1d:
         57:0d:9d:eb:f6:02:e6:e8:3b:ed:b5:e1:31:0e:cd:5f:31:e4:
         eb:34:15:75:1f:3e:c0:6b:63:84:77:2d:44:0d:2a:68:17:18:
         40:c9:fc:23:00:44:38:69:ed:26:e0:bd:60:02:9a:4c:ce:2d:
         86:17:19:e4:8d:c2:a9:e1:0b:c6:8e:57:7f:9a:69:5a:1c:02:
         8f:f4:d7:33:d3:2e:69:66:76:b7:e1:9d:2f:69:c1:07:2c:12:
         07:75:d7:de:ff:40:b8:77:89:3e:fa:7c:55:1a:54:69:2e:ad:
         cd:70:88:0d:1a:67:4a:14:02:b4:86:48:41:f0:b3:bd:53:c7:
         9d:c7:f4:a9:d4:8f:e0:a6:0e:55:3a:1f:4a:cf:ea:4d:51:73:
         61:59:b9:35:26:51:ae:4e:bb:42:b3:57:c3:36:aa:c6:af:30:
         c2:4c:16:7b:29:46:40:fe:1e:a2:4a:e0:e4:8f:89:4b:ce:1f:
         52:ae:46:64:d0:ae:72:b6:28:9f:c9:16:89:be:43:d4:87:33:
         3e:19:e8:4b:4c:ef:6d:91:24:64:84:09:3a:c1:34:cd:c7:33:
         68:8e:2a:fb:cb:a4:f3:5d:61:bc:b7:ba:a6:df:60:4d:b5:5e:
         ba:c4:27:8a:18:1a:02:86:a4:7f:26:e8:c4:ed:2e:39:87:1b:
         8e:46:4a:a6:57:79:09:57:6c:06:d9:35:c0:33:9b:ed:d7:bb:
         d1:25:2d:fb:c0:e4:25:fb:42:79:bb:f4:69:8c:03:3a:67:40:
         70:e6:da:56:58:e5:c8:dc:54:e7:37:13:d8:2b:f3:ba:f2:1b:
         2c:7d:46:02:7c:ff:b8:b6:c4:62:1e:13:8c:3a:7b:09:cd:80:
         ce:0e:86:d4:ac:94:7e:b7:d5:d3:e0:9d:6b:3d:96:7c:45:c1:
         7c:a5:93:ac:82:f9:8b:98:99:e3:35:ad:2d:a0:36:f0:a8:5c:
         59:8d:6f:88:7e:87:ea:10
-----BEGIN CERTIFICATE-----
MIIHSDCCBTCgAwIBAgICAkYwDQYJKoZIhvcNAQEFBQAwgbQxCzAJBgNVBAYTAlVT
MQswCQYDVQQIEwJDQTEVMBMGA1UEBxMMU2FuRnJhbmNpc2NvMRUwEwYDVQQKEwxQ
aXhnbG8sIEluYy4xEDAOBgNVBAsTB1ZQTi1DSUUxGjAYBgNVBAMTEXR1bm5lbC5w
aXhnbG8uY29tMRwwGgYDVQQpExNCYWxhIENoYW5kcmFzZWthcmFuMR4wHAYJKoZI
hvcNAQkBFg9iYWxhQHBpeGdsby5jb20wHhcNMTgwMjE0MDYzNzM5WhcNMjgwMjEy
MDYzNzM5WjCBqTELMAkGA1UEBhMCVVMxCzAJBgNVBAgTAkNBMRUwEwYDVQQHEwxT
YW5GcmFuY2lzY28xFTATBgNVBAoTDFBpeGdsbywgSW5jLjEQMA4GA1UECxMHVlBO
LUNJRTEPMA0GA1UEAxMGY2llNTgxMRwwGgYDVQQpExNCYWxhIENoYW5kcmFzZWth
cmFuMR4wHAYJKoZIhvcNAQkBFg9iYWxhQHBpeGdsby5jb20wggIiMA0GCSqGSIb3
DQEBAQUAA4ICDwAwggIKAoICAQDeCTb5jvkR4lsu44BMpEsJmvUSmQJj3HHa+mi1
Ehb23eNNyZdYNhvWXkPupqEcXkdOtyDkzQq3OT+nzMpBnsWbNU3M60VphveHA9Aq
891/W6Kzlt5kBQKzd3qk+uWamybUujLsJ0GK7w96WYexshhBwGj1JxMnEbpQc+5r
lwYGtlQ5f3602iEdx4oD+rQoikJah6kPtVBnY1OS09OtVSs1JhM7HCAELhmxusXL
l4RvwmzVS+MpZKA7Dgsslbpc7l/fcpvEodmiB5zgfIhBNx5Un6wjLRkDtw2yA/4z
9msFdKGZrK4DYxOuuYhsvTjOPoWo7K47xsR3DmMzpsCngSZEtVBeceCyKj0jTmZ9
wXludAORphHtpWRKS8wgTd2WoZJtiyH7ObCBOstK3+r9SjVQGN5emO2PxSQqptKS
jS6Wi4f/mitapBs+MeJpNqTLVdDfisghHiAyzXhB5Jtmzqz+1PCm8U5pn+SNznqQ
09Jb+QZHm3VuPIij9J2Kk7VvxPHm8aiHxfnFNOmNiRx1JbASjT943WvJk5mrDfVK
uaOfnkfjq4tU9zqSW3vyLu0m7wFKVrxYGy7xbTvtKFOSMzvL2hzNQqdoyIZ05oHS
FujMGAZ4A8LfIpYUyg5PEJu4ikjRGs0NVJYeN1oSrqPxIhwAsGJ8SFUgmTXh5UDC
05CtJQIDAQABo4IBazCCAWcwCQYDVR0TBAIwADAtBglghkgBhvhCAQ0EIBYeRWFz
eS1SU0EgR2VuZXJhdGVkIENlcnRpZmljYXRlMB0GA1UdDgQWBBThZx/hj7sM2L4S
SOxRUFi5slL7EDCB6QYDVR0jBIHhMIHegBTvOI0UUFinW02cF3L837msp1GwEKGB
uqSBtzCBtDELMAkGA1UEBhMCVVMxCzAJBgNVBAgTAkNBMRUwEwYDVQQHEwxTYW5G
cmFuY2lzY28xFTATBgNVBAoTDFBpeGdsbywgSW5jLjEQMA4GA1UECxMHVlBOLUNJ
RTEaMBgGA1UEAxMRdHVubmVsLnBpeGdsby5jb20xHDAaBgNVBCkTE0JhbGEgQ2hh
bmRyYXNla2FyYW4xHjAcBgkqhkiG9w0BCQEWD2JhbGFAcGl4Z2xvLmNvbYIJAKbb
xoOA5qB5MBMGA1UdJQQMMAoGCCsGAQUFBwMCMAsGA1UdDwQEAwIHgDANBgkqhkiG
9w0BAQUFAAOCAgEA0DpMXhabmHD+aaC+ya4+vPD4+zMsAf7ScKXVcSsuX20lkXk2
h+O+HTcCXi/dKPWwhklE6l23Z/JZgjRkdfqrBuqstyfSM87UX1q/ijcPZD1Xe7XQ
JOcWHw9HmRctGnsY29zN0EUeHr0LxIE1IXLValu6UmHHzxr7PqUT/ulP2gg22pSb
xERsOfnl2KpCekIdVw2d6/YC5ug77bXhMQ7NXzHk6zQVdR8+wGtjhHctRA0qaBcY
QMn8IwBEOGntJuC9YAKaTM4thhcZ5I3CqeELxo5Xf5ppWhwCj/TXM9MuaWZ2t+Gd
L2nBBywSB3XX3v9AuHeJPvp8VRpUaS6tzXCIDRpnShQCtIZIQfCzvVPHncf0qdSP
4KYOVTofSs/qTVFzYVm5NSZRrk67QrNXwzaqxq8wwkwWeylGQP4eokrg5I+JS84f
Uq5GZNCucrYon8kWib5D1IczPhnoS0zvbZEkZIQJOsE0zcczaI4q+8uk811hvLe6
pt9gTbVeusQnihgaAoakfyboxO0uOYcbjkZKpld5CVdsBtk1wDOb7de70SUt+8Dk
JftCebv0aYwDOmdAcObaVljlyNxU5zcT2CvzuvIbLH1GAnz/uLbEYh4TjDp7Cc2A
zg6G1KyUfrfV0+Cdaz2WfEXBfKWTrIL5i5iZ4zWtLaA28KhcWY1viH6H6hA=
-----END CERTIFICATE-----
