Certificate:
    Data:
        Version: 3 (0x2)
        Serial Number: 584 (0x248)
    Signature Algorithm: sha1WithRSAEncryption
        Issuer: C=US, ST=CA, L=SanFrancisco, O=Pixglo, Inc., OU=VPN-CIE, CN=tunnel.pixglo.com/name=Bala Chandrasekaran/emailAddress=bala@pixglo.com
        Validity
            Not Before: Feb 14 06:37:41 2018 GMT
            Not After : Feb 12 06:37:41 2028 GMT
        Subject: C=US, ST=CA, L=SanFrancisco, O=Pixglo, Inc., OU=VPN-CIE, CN=cie583/name=Bala Chandrasekaran/emailAddress=bala@pixglo.com
        Subject Public Key Info:
            Public Key Algorithm: rsaEncryption
                Public-Key: (4096 bit)
                Modulus:
                    00:db:cb:4d:de:6c:5c:59:6a:bc:e4:e8:7a:da:74:
                    84:5d:e2:a7:ab:22:65:92:ce:cf:73:53:c3:d5:14:
                    8e:13:12:d5:cb:d8:d7:f6:17:8d:5d:4c:69:de:62:
                    cc:d8:b6:0a:e3:ad:97:fe:b2:0c:df:72:01:ec:a0:
                    c0:e8:2d:ad:15:e2:d8:91:b4:11:26:1c:8e:5b:0a:
                    68:4d:1a:98:0a:2b:7f:97:2f:de:0d:fa:a7:ea:02:
                    2d:e8:68:ed:20:bb:b6:37:e3:e5:36:21:28:9f:7a:
                    9a:bb:25:c7:69:15:cd:2a:61:bb:c1:3a:6e:22:87:
                    7a:97:85:34:6d:16:72:7e:5e:4d:6f:dd:d5:ee:be:
                    76:70:ee:85:04:8c:31:93:51:3c:26:07:33:1a:4e:
                    16:fa:7b:69:7a:02:f1:26:e5:79:07:22:c2:f3:b6:
                    12:f5:2c:a4:d4:87:22:54:1b:b2:75:ac:27:d9:53:
                    25:c5:c0:57:7e:af:ee:47:98:d9:51:c9:b5:5f:a6:
                    73:5e:09:52:0f:33:8e:19:44:6b:d7:e1:ab:eb:a7:
                    9c:08:41:ce:cf:1d:20:3d:e0:22:0e:3e:bb:4b:74:
                    fd:d6:b5:dd:35:27:88:b2:1d:8c:43:a3:02:db:35:
                    87:33:54:61:52:d1:1a:1b:e4:f7:7a:54:b7:98:8c:
                    5c:be:fd:9a:53:ae:ee:42:9b:46:20:ca:7f:e7:cd:
                    67:1c:59:36:6d:f1:25:9a:ca:a7:20:1d:37:cc:dc:
                    f7:be:5f:74:9d:a5:bf:83:c2:db:78:46:f5:40:b7:
                    8f:c5:2c:7a:eb:cc:a5:c9:23:36:48:01:bc:89:27:
                    c2:bf:e8:90:51:7d:2d:8e:18:23:ed:ee:fa:07:6c:
                    f5:35:a7:e0:54:69:10:87:51:cb:be:ce:31:8f:72:
                    7f:bf:21:55:2f:a7:17:c2:6d:31:48:57:d6:42:fe:
                    db:62:f6:01:a6:69:ea:c3:f4:b2:05:44:2f:6c:97:
                    08:42:91:bb:db:46:51:45:e3:51:3d:eb:0d:c7:04:
                    bc:0b:d5:2b:a8:54:74:2f:0e:de:41:a1:8e:93:ae:
                    de:89:e3:de:0e:d2:87:d1:c0:55:cc:57:b3:c7:09:
                    32:1b:08:50:32:4d:6f:f8:9a:00:d9:31:2a:b4:5b:
                    e4:75:7e:0b:ea:14:a6:b7:fc:83:9f:2f:13:f9:ab:
                    a8:15:e0:3f:fc:cf:3e:b9:c8:05:ae:70:d5:c9:8f:
                    27:93:3c:51:ca:bd:fd:09:a1:51:99:d7:a2:e4:96:
                    2e:7a:c8:85:83:34:d2:14:6e:52:c1:84:ab:8b:88:
                    5f:c6:3b:ff:30:4d:03:b7:1a:ad:45:3b:f4:ee:e7:
                    9d:41:37
                Exponent: 65537 (0x10001)
        X509v3 extensions:
            X509v3 Basic Constraints: 
                CA:FALSE
            Netscape Comment: 
                Easy-RSA Generated Certificate
            X509v3 Subject Key Identifier: 
                4E:2B:73:BC:29:77:FB:E4:58:84:05:F7:6B:93:56:FE:DC:10:D8:37
            X509v3 Authority Key Identifier: 
                keyid:EF:38:8D:14:50:58:A7:5B:4D:9C:17:72:FC:DF:B9:AC:A7:51:B0:10
                DirName:/C=US/ST=CA/L=SanFrancisco/O=Pixglo, Inc./OU=VPN-CIE/CN=tunnel.pixglo.com/name=Bala Chandrasekaran/emailAddress=bala@pixglo.com
                serial:A6:DB:C6:83:80:E6:A0:79

            X509v3 Extended Key Usage: 
                TLS Web Client Authentication
            X509v3 Key Usage: 
                Digital Signature
    Signature Algorithm: sha1WithRSAEncryption
         5d:d9:45:af:62:d8:5a:5f:4b:d9:bb:5c:89:aa:1b:b9:5c:0e:
         07:7f:46:f6:8c:c6:5a:66:1f:43:34:ba:ae:06:25:b8:cc:f5:
         e7:76:ee:ba:e0:42:1c:78:43:4b:70:e0:e6:5c:ec:c5:82:24:
         1a:38:58:c3:91:6a:b0:21:81:b3:7c:93:51:8b:70:98:80:71:
         03:f8:a4:b7:4f:14:d2:45:b6:90:15:e4:95:80:80:ec:a1:88:
         cf:0a:b9:bf:a0:82:a7:f8:60:22:2a:6c:6d:ca:5e:91:58:e8:
         b5:c8:73:f8:6b:8c:6f:4b:a2:37:ab:9c:bd:c7:a8:a1:32:56:
         6e:7d:84:95:38:36:d9:ab:9b:02:63:2d:70:56:d0:a7:8b:8f:
         77:ba:ca:77:11:93:e8:db:d2:e0:8c:73:37:14:c2:55:45:e2:
         e8:7a:c3:18:65:2a:5b:d0:14:86:bd:cf:bc:fb:69:19:5f:2a:
         05:21:cc:33:59:b1:37:b6:98:ed:8e:ae:42:76:6c:1c:0a:43:
         4f:15:8e:96:25:9c:1a:5a:5f:bd:6a:8b:73:22:d5:9f:e4:25:
         88:b5:92:e5:bd:36:b2:a4:1c:97:de:06:6d:56:24:ac:8a:d8:
         d9:9d:a4:d5:2d:58:1e:c9:20:91:7f:27:5a:5d:3b:03:7a:f6:
         2b:8b:89:39:aa:07:3a:b3:75:ae:f4:84:7c:17:db:c7:9b:71:
         95:d2:57:5d:6a:c3:a1:38:c0:a4:f1:4c:21:12:9f:74:4e:b6:
         62:64:06:55:17:71:d1:9a:a5:f9:e4:43:ad:a7:d7:8b:94:f2:
         80:c3:00:e7:ab:ee:c1:85:29:90:b8:8f:1e:33:ed:b7:b4:d3:
         a9:55:5f:ae:a5:5c:41:cb:3e:55:c8:f1:14:27:f1:6e:69:9c:
         3d:44:4f:97:a2:64:f1:38:ee:c7:ef:9d:87:0b:5b:01:82:90:
         80:c5:fd:3e:b4:ad:62:15:51:a2:4b:15:b4:14:6b:21:dc:dc:
         a4:2c:d2:78:56:81:9d:2c:76:3b:43:2b:6e:5a:66:92:32:00:
         68:f1:6e:eb:a8:e3:f0:fb:6a:3e:53:a5:e8:49:ae:e7:94:51:
         5d:69:3d:9e:91:fd:da:45:aa:46:7e:a9:ce:28:8c:0f:d5:61:
         2e:42:a2:d0:d2:2a:b3:94:8a:50:4f:89:e3:b2:49:e9:96:af:
         7e:20:ee:49:f9:e3:e1:12:7f:64:81:f8:29:be:1e:c9:e2:1d:
         00:de:fe:e1:7d:ea:40:81:8f:fe:d7:ed:32:74:09:8e:6a:ee:
         b6:50:1f:db:e1:a1:3d:4d:6b:80:78:1e:50:2c:98:dc:40:87:
         1b:d1:ff:d4:d8:a8:c8:b1
-----BEGIN CERTIFICATE-----
MIIHSDCCBTCgAwIBAgICAkgwDQYJKoZIhvcNAQEFBQAwgbQxCzAJBgNVBAYTAlVT
MQswCQYDVQQIEwJDQTEVMBMGA1UEBxMMU2FuRnJhbmNpc2NvMRUwEwYDVQQKEwxQ
aXhnbG8sIEluYy4xEDAOBgNVBAsTB1ZQTi1DSUUxGjAYBgNVBAMTEXR1bm5lbC5w
aXhnbG8uY29tMRwwGgYDVQQpExNCYWxhIENoYW5kcmFzZWthcmFuMR4wHAYJKoZI
hvcNAQkBFg9iYWxhQHBpeGdsby5jb20wHhcNMTgwMjE0MDYzNzQxWhcNMjgwMjEy
MDYzNzQxWjCBqTELMAkGA1UEBhMCVVMxCzAJBgNVBAgTAkNBMRUwEwYDVQQHEwxT
YW5GcmFuY2lzY28xFTATBgNVBAoTDFBpeGdsbywgSW5jLjEQMA4GA1UECxMHVlBO
LUNJRTEPMA0GA1UEAxMGY2llNTgzMRwwGgYDVQQpExNCYWxhIENoYW5kcmFzZWth
cmFuMR4wHAYJKoZIhvcNAQkBFg9iYWxhQHBpeGdsby5jb20wggIiMA0GCSqGSIb3
DQEBAQUAA4ICDwAwggIKAoICAQDby03ebFxZarzk6HradIRd4qerImWSzs9zU8PV
FI4TEtXL2Nf2F41dTGneYszYtgrjrZf+sgzfcgHsoMDoLa0V4tiRtBEmHI5bCmhN
GpgKK3+XL94N+qfqAi3oaO0gu7Y34+U2ISifepq7JcdpFc0qYbvBOm4ih3qXhTRt
FnJ+Xk1v3dXuvnZw7oUEjDGTUTwmBzMaThb6e2l6AvEm5XkHIsLzthL1LKTUhyJU
G7J1rCfZUyXFwFd+r+5HmNlRybVfpnNeCVIPM44ZRGvX4avrp5wIQc7PHSA94CIO
PrtLdP3Wtd01J4iyHYxDowLbNYczVGFS0Rob5Pd6VLeYjFy+/ZpTru5Cm0Ygyn/n
zWccWTZt8SWayqcgHTfM3Pe+X3Sdpb+Dwtt4RvVAt4/FLHrrzKXJIzZIAbyJJ8K/
6JBRfS2OGCPt7voHbPU1p+BUaRCHUcu+zjGPcn+/IVUvpxfCbTFIV9ZC/tti9gGm
aerD9LIFRC9slwhCkbvbRlFF41E96w3HBLwL1SuoVHQvDt5BoY6Trt6J494O0ofR
wFXMV7PHCTIbCFAyTW/4mgDZMSq0W+R1fgvqFKa3/IOfLxP5q6gV4D/8zz65yAWu
cNXJjyeTPFHKvf0JoVGZ16Lkli56yIWDNNIUblLBhKuLiF/GO/8wTQO3Gq1FO/Tu
551BNwIDAQABo4IBazCCAWcwCQYDVR0TBAIwADAtBglghkgBhvhCAQ0EIBYeRWFz
eS1SU0EgR2VuZXJhdGVkIENlcnRpZmljYXRlMB0GA1UdDgQWBBROK3O8KXf75FiE
Bfdrk1b+3BDYNzCB6QYDVR0jBIHhMIHegBTvOI0UUFinW02cF3L837msp1GwEKGB
uqSBtzCBtDELMAkGA1UEBhMCVVMxCzAJBgNVBAgTAkNBMRUwEwYDVQQHEwxTYW5G
cmFuY2lzY28xFTATBgNVBAoTDFBpeGdsbywgSW5jLjEQMA4GA1UECxMHVlBOLUNJ
RTEaMBgGA1UEAxMRdHVubmVsLnBpeGdsby5jb20xHDAaBgNVBCkTE0JhbGEgQ2hh
bmRyYXNla2FyYW4xHjAcBgkqhkiG9w0BCQEWD2JhbGFAcGl4Z2xvLmNvbYIJAKbb
xoOA5qB5MBMGA1UdJQQMMAoGCCsGAQUFBwMCMAsGA1UdDwQEAwIHgDANBgkqhkiG
9w0BAQUFAAOCAgEAXdlFr2LYWl9L2btciaobuVwOB39G9ozGWmYfQzS6rgYluMz1
53buuuBCHHhDS3Dg5lzsxYIkGjhYw5FqsCGBs3yTUYtwmIBxA/ikt08U0kW2kBXk
lYCA7KGIzwq5v6CCp/hgIipsbcpekVjotchz+GuMb0uiN6ucvceooTJWbn2ElTg2
2aubAmMtcFbQp4uPd7rKdxGT6NvS4IxzNxTCVUXi6HrDGGUqW9AUhr3PvPtpGV8q
BSHMM1mxN7aY7Y6uQnZsHApDTxWOliWcGlpfvWqLcyLVn+QliLWS5b02sqQcl94G
bVYkrIrY2Z2k1S1YHskgkX8nWl07A3r2K4uJOaoHOrN1rvSEfBfbx5txldJXXWrD
oTjApPFMIRKfdE62YmQGVRdx0Zql+eRDrafXi5TygMMA56vuwYUpkLiPHjPtt7TT
qVVfrqVcQcs+VcjxFCfxbmmcPURPl6Jk8Tjux++dhwtbAYKQgMX9PrStYhVRoksV
tBRrIdzcpCzSeFaBnSx2O0MrblpmkjIAaPFu66jj8PtqPlOl6Emu55RRXWk9npH9
2kWqRn6pziiMD9VhLkKi0NIqs5SKUE+J47JJ6ZavfiDuSfnj4RJ/ZIH4Kb4eyeId
AN7+4X3qQIGP/tftMnQJjmrutlAf2+GhPU1rgHgeUCyY3ECHG9H/1NioyLE=
-----END CERTIFICATE-----
