Certificate:
    Data:
        Version: 3 (0x2)
        Serial Number: 585 (0x249)
    Signature Algorithm: sha1WithRSAEncryption
        Issuer: C=US, ST=CA, L=SanFrancisco, O=Pixglo, Inc., OU=VPN-CIE, CN=tunnel.pixglo.com/name=Bala Chandrasekaran/emailAddress=bala@pixglo.com
        Validity
            Not Before: Feb 14 06:37:43 2018 GMT
            Not After : Feb 12 06:37:43 2028 GMT
        Subject: C=US, ST=CA, L=SanFrancisco, O=Pixglo, Inc., OU=VPN-CIE, CN=cie584/name=Bala Chandrasekaran/emailAddress=bala@pixglo.com
        Subject Public Key Info:
            Public Key Algorithm: rsaEncryption
                Public-Key: (4096 bit)
                Modulus:
                    00:a8:6a:2a:8e:b4:08:f4:a3:8a:84:62:41:c0:38:
                    83:ce:e3:17:fa:f6:6d:84:35:92:64:5a:22:9e:54:
                    50:83:4e:d7:1a:76:62:e0:4b:f8:38:96:ee:d1:e1:
                    af:3e:9a:a4:7b:18:a0:e6:f8:3a:4a:47:40:f1:a3:
                    af:b9:a9:c7:79:2b:f9:81:40:cd:c2:f0:71:59:00:
                    dd:d8:1b:83:f8:99:e2:9b:ed:c2:86:76:2a:e3:06:
                    da:e4:a0:82:f9:66:5c:25:78:85:11:3b:21:dd:37:
                    92:30:5e:b8:ff:19:fd:a0:01:c8:bf:f1:8e:96:16:
                    65:b4:e2:1f:35:31:0f:87:b1:5b:45:df:be:aa:6a:
                    ac:71:b3:ec:2c:aa:a7:9a:a2:1b:4e:7c:a7:fc:59:
                    36:ca:a9:37:8c:de:31:9b:e6:24:5c:4f:c2:ee:e3:
                    3b:bb:a6:2b:ae:b2:51:16:ab:b3:a6:cf:e6:1c:8b:
                    b4:7b:04:7e:b3:69:16:98:68:bd:62:3a:6b:dd:49:
                    37:96:42:fa:20:e9:9b:8a:32:6c:24:64:03:2c:f4:
                    3a:db:17:6a:0c:d1:a5:4a:97:07:45:e9:18:e2:f2:
                    e1:25:53:20:5b:69:f4:f4:fc:e0:46:9b:3c:02:21:
                    ed:0a:50:2d:2d:47:b7:40:69:6a:78:a6:75:b9:f0:
                    bf:a2:87:3a:98:08:f1:d8:41:d0:8b:cb:0a:e7:91:
                    ff:d8:66:c4:a8:71:dc:c5:6f:10:f5:0a:9d:df:7e:
                    a0:8d:0a:0c:86:28:be:30:d0:b9:45:8c:80:a1:56:
                    fd:3c:76:d3:4c:78:d6:07:e7:2d:ab:6c:9c:4b:20:
                    b9:3d:a4:fd:c9:ab:02:0b:a6:18:3d:36:28:a1:0d:
                    c1:2b:35:d6:f0:fa:7a:14:03:e3:ed:49:c6:64:b6:
                    5c:c2:ef:b3:af:41:f8:4b:8a:04:74:0b:14:e3:2d:
                    4c:70:f2:39:75:23:22:3f:12:8f:2e:6a:c7:06:00:
                    44:ba:12:74:87:f3:0a:a5:c1:80:d7:a7:8b:06:b0:
                    7b:5e:28:0a:a8:6f:29:21:3d:45:4c:d6:2d:26:bd:
                    01:55:8a:d2:c9:95:92:d8:62:d5:83:3b:ca:b2:e8:
                    9a:9e:6e:50:ca:93:78:b8:97:6a:00:6d:a2:49:da:
                    34:d6:48:e0:01:d2:a8:45:92:88:8b:cc:49:53:22:
                    a3:31:4a:60:f0:81:1c:6d:66:be:ee:46:b1:0a:64:
                    35:d9:4e:b6:21:f7:f0:66:02:ad:5f:27:8b:fe:be:
                    75:f7:e1:84:5a:94:9b:17:1f:15:14:7a:b7:44:ab:
                    fb:26:97:ff:1c:85:2c:c7:fe:19:3a:c2:ea:5b:4f:
                    c6:14:81
                Exponent: 65537 (0x10001)
        X509v3 extensions:
            X509v3 Basic Constraints: 
                CA:FALSE
            Netscape Comment: 
                Easy-RSA Generated Certificate
            X509v3 Subject Key Identifier: 
                7A:14:B3:0C:5C:69:D2:23:56:DA:A9:DF:1D:3B:70:24:BB:71:4A:93
            X509v3 Authority Key Identifier: 
                keyid:EF:38:8D:14:50:58:A7:5B:4D:9C:17:72:FC:DF:B9:AC:A7:51:B0:10
                DirName:/C=US/ST=CA/L=SanFrancisco/O=Pixglo, Inc./OU=VPN-CIE/CN=tunnel.pixglo.com/name=Bala Chandrasekaran/emailAddress=bala@pixglo.com
                serial:A6:DB:C6:83:80:E6:A0:79

            X509v3 Extended Key Usage: 
                TLS Web Client Authentication
            X509v3 Key Usage: 
                Digital Signature
    Signature Algorithm: sha1WithRSAEncryption
         1e:f5:f0:6d:d3:77:61:69:2c:42:01:2a:c4:24:9a:d3:04:df:
         3c:48:5f:2e:23:2d:50:69:fd:ed:dd:a0:6a:b6:7e:54:ee:5c:
         25:df:73:2c:f3:b0:da:03:8f:8b:44:2c:c7:52:60:31:79:4f:
         cd:cd:08:0f:e1:ea:8c:53:d6:8b:09:4c:b7:9c:e8:07:82:bb:
         b1:3e:ac:b9:2a:31:24:84:4a:af:52:16:1a:64:e9:80:50:2e:
         a3:b4:7c:75:38:a8:89:d0:f8:2f:a0:18:d9:1c:72:ab:30:fd:
         fe:25:26:b0:a1:57:90:bc:e9:e3:21:5d:b7:c6:c1:32:44:1e:
         d4:5b:b0:ee:a6:21:31:da:e7:97:e8:6e:e2:2f:77:1d:b3:2d:
         fb:e5:d8:8a:72:64:50:1f:21:d6:bc:ba:40:41:d2:0b:0a:fe:
         5d:7b:ae:32:21:78:94:ef:f4:a3:b0:70:1b:31:2b:da:a0:35:
         97:7b:09:25:63:7a:a9:cf:ae:89:b4:e6:88:03:1e:9a:a6:94:
         b3:9e:6a:6a:6c:c4:50:9b:80:c3:b5:5a:fc:af:33:0c:66:dc:
         25:8c:52:29:56:3d:4a:35:fa:be:6d:ba:9e:21:57:53:a7:a5:
         50:d0:11:91:2b:13:a8:49:f5:90:31:2b:0a:30:a3:de:5f:8b:
         fa:c7:2a:39:4c:e8:89:36:6e:ab:34:99:c8:8b:4e:39:25:ff:
         42:12:3b:9a:31:44:9c:cc:75:c8:c5:e4:4c:6e:36:d7:61:d8:
         86:84:32:b5:d9:51:0a:93:23:16:36:6a:cb:81:88:c8:75:99:
         fc:bb:46:f4:2b:93:fc:0e:6c:44:93:da:c1:91:88:38:06:00:
         22:fe:67:21:22:d5:e2:16:6b:7f:f9:e8:cd:a0:86:f2:97:ad:
         c8:35:6b:40:0d:af:f6:9b:52:ef:49:71:2d:cd:fa:7e:f8:b9:
         60:fd:86:fa:b0:10:fa:59:73:aa:e3:a6:41:b1:3f:9b:8f:27:
         d0:ea:cb:ea:1a:2c:1a:ff:4d:9b:43:97:43:ac:d5:b0:fc:99:
         ea:ad:71:72:dc:0b:f8:f0:e5:e8:55:2b:be:10:92:37:95:24:
         5d:f8:38:84:9f:42:02:9c:0b:41:dd:fb:55:f9:ac:04:e7:a1:
         70:db:0c:c3:07:0a:f6:92:2c:c6:a9:76:35:c7:8a:e4:0c:b1:
         b1:fd:d7:b5:9c:5b:a7:6a:f5:cc:29:9a:4e:49:cc:61:0c:60:
         61:6f:29:46:d0:96:5b:77:e4:a3:36:88:cf:0d:34:70:2e:f8:
         1f:3c:89:1c:30:45:0a:b5:fd:51:4c:4a:47:45:48:b2:1c:02:
         a8:7d:00:33:62:e3:60:e1
-----BEGIN CERTIFICATE-----
MIIHSDCCBTCgAwIBAgICAkkwDQYJKoZIhvcNAQEFBQAwgbQxCzAJBgNVBAYTAlVT
MQswCQYDVQQIEwJDQTEVMBMGA1UEBxMMU2FuRnJhbmNpc2NvMRUwEwYDVQQKEwxQ
aXhnbG8sIEluYy4xEDAOBgNVBAsTB1ZQTi1DSUUxGjAYBgNVBAMTEXR1bm5lbC5w
aXhnbG8uY29tMRwwGgYDVQQpExNCYWxhIENoYW5kcmFzZWthcmFuMR4wHAYJKoZI
hvcNAQkBFg9iYWxhQHBpeGdsby5jb20wHhcNMTgwMjE0MDYzNzQzWhcNMjgwMjEy
MDYzNzQzWjCBqTELMAkGA1UEBhMCVVMxCzAJBgNVBAgTAkNBMRUwEwYDVQQHEwxT
YW5GcmFuY2lzY28xFTATBgNVBAoTDFBpeGdsbywgSW5jLjEQMA4GA1UECxMHVlBO
LUNJRTEPMA0GA1UEAxMGY2llNTg0MRwwGgYDVQQpExNCYWxhIENoYW5kcmFzZWth
cmFuMR4wHAYJKoZIhvcNAQkBFg9iYWxhQHBpeGdsby5jb20wggIiMA0GCSqGSIb3
DQEBAQUAA4ICDwAwggIKAoICAQCoaiqOtAj0o4qEYkHAOIPO4xf69m2ENZJkWiKe
VFCDTtcadmLgS/g4lu7R4a8+mqR7GKDm+DpKR0Dxo6+5qcd5K/mBQM3C8HFZAN3Y
G4P4meKb7cKGdirjBtrkoIL5ZlwleIUROyHdN5IwXrj/Gf2gAci/8Y6WFmW04h81
MQ+HsVtF376qaqxxs+wsqqeaohtOfKf8WTbKqTeM3jGb5iRcT8Lu4zu7piuuslEW
q7Omz+Yci7R7BH6zaRaYaL1iOmvdSTeWQvog6ZuKMmwkZAMs9DrbF2oM0aVKlwdF
6Rji8uElUyBbafT0/OBGmzwCIe0KUC0tR7dAaWp4pnW58L+ihzqYCPHYQdCLywrn
kf/YZsSocdzFbxD1Cp3ffqCNCgyGKL4w0LlFjIChVv08dtNMeNYH5y2rbJxLILk9
pP3JqwILphg9NiihDcErNdbw+noUA+PtScZktlzC77OvQfhLigR0CxTjLUxw8jl1
IyI/Eo8uascGAES6EnSH8wqlwYDXp4sGsHteKAqobykhPUVM1i0mvQFVitLJlZLY
YtWDO8qy6JqeblDKk3i4l2oAbaJJ2jTWSOAB0qhFkoiLzElTIqMxSmDwgRxtZr7u
RrEKZDXZTrYh9/BmAq1fJ4v+vnX34YRalJsXHxUUerdEq/sml/8chSzH/hk6wupb
T8YUgQIDAQABo4IBazCCAWcwCQYDVR0TBAIwADAtBglghkgBhvhCAQ0EIBYeRWFz
eS1SU0EgR2VuZXJhdGVkIENlcnRpZmljYXRlMB0GA1UdDgQWBBR6FLMMXGnSI1ba
qd8dO3Aku3FKkzCB6QYDVR0jBIHhMIHegBTvOI0UUFinW02cF3L837msp1GwEKGB
uqSBtzCBtDELMAkGA1UEBhMCVVMxCzAJBgNVBAgTAkNBMRUwEwYDVQQHEwxTYW5G
cmFuY2lzY28xFTATBgNVBAoTDFBpeGdsbywgSW5jLjEQMA4GA1UECxMHVlBOLUNJ
RTEaMBgGA1UEAxMRdHVubmVsLnBpeGdsby5jb20xHDAaBgNVBCkTE0JhbGEgQ2hh
bmRyYXNla2FyYW4xHjAcBgkqhkiG9w0BCQEWD2JhbGFAcGl4Z2xvLmNvbYIJAKbb
xoOA5qB5MBMGA1UdJQQMMAoGCCsGAQUFBwMCMAsGA1UdDwQEAwIHgDANBgkqhkiG
9w0BAQUFAAOCAgEAHvXwbdN3YWksQgEqxCSa0wTfPEhfLiMtUGn97d2garZ+VO5c
Jd9zLPOw2gOPi0Qsx1JgMXlPzc0ID+HqjFPWiwlMt5zoB4K7sT6suSoxJIRKr1IW
GmTpgFAuo7R8dTioidD4L6AY2RxyqzD9/iUmsKFXkLzp4yFdt8bBMkQe1Fuw7qYh
Mdrnl+hu4i93HbMt++XYinJkUB8h1ry6QEHSCwr+XXuuMiF4lO/0o7BwGzEr2qA1
l3sJJWN6qc+uibTmiAMemqaUs55qamzEUJuAw7Va/K8zDGbcJYxSKVY9SjX6vm26
niFXU6elUNARkSsTqEn1kDErCjCj3l+L+scqOUzoiTZuqzSZyItOOSX/QhI7mjFE
nMx1yMXkTG4212HYhoQytdlRCpMjFjZqy4GIyHWZ/LtG9CuT/A5sRJPawZGIOAYA
Iv5nISLV4hZrf/nozaCG8petyDVrQA2v9ptS70lxLc36fvi5YP2G+rAQ+llzquOm
QbE/m48n0OrL6hosGv9Nm0OXQ6zVsPyZ6q1xctwL+PDl6FUrvhCSN5UkXfg4hJ9C
ApwLQd37VfmsBOehcNsMwwcK9pIsxql2NceK5Ayxsf3XtZxbp2r1zCmaTknMYQxg
YW8pRtCWW3fkozaIzw00cC74HzyJHDBFCrX9UUxKR0VIshwCqH0AM2LjYOE=
-----END CERTIFICATE-----
