Certificate:
    Data:
        Version: 3 (0x2)
        Serial Number: 587 (0x24b)
    Signature Algorithm: sha1WithRSAEncryption
        Issuer: C=US, ST=CA, L=SanFrancisco, O=Pixglo, Inc., OU=VPN-CIE, CN=tunnel.pixglo.com/name=Bala Chandrasekaran/emailAddress=bala@pixglo.com
        Validity
            Not Before: Feb 14 06:37:45 2018 GMT
            Not After : Feb 12 06:37:45 2028 GMT
        Subject: C=US, ST=CA, L=SanFrancisco, O=Pixglo, Inc., OU=VPN-CIE, CN=cie586/name=Bala Chandrasekaran/emailAddress=bala@pixglo.com
        Subject Public Key Info:
            Public Key Algorithm: rsaEncryption
                Public-Key: (4096 bit)
                Modulus:
                    00:db:d1:00:97:87:74:dd:90:04:8b:5c:80:0e:3f:
                    91:81:1a:66:38:7c:9c:b8:96:94:14:70:5a:6e:e5:
                    ce:2d:ef:a7:3c:72:9c:84:f2:60:75:39:66:86:3c:
                    09:6d:71:66:c3:04:40:41:ff:af:b3:ec:44:06:e3:
                    b5:a5:88:c2:1b:7f:d8:cc:25:81:b7:cc:b3:ca:1d:
                    6c:98:cd:4a:bf:de:c0:20:8b:1e:a2:e7:14:41:be:
                    ff:a1:df:52:dc:19:30:0e:80:d8:56:49:44:6f:e6:
                    51:38:e7:f5:27:15:9e:40:75:45:63:2a:fd:ad:61:
                    2b:13:b5:aa:3f:71:dd:31:c2:ea:43:0a:cd:4e:27:
                    b4:a1:1a:fd:d6:c1:2e:d0:86:0a:59:96:3f:20:eb:
                    9a:62:e1:8e:4a:7e:8b:24:6d:90:e0:51:4f:a2:2b:
                    d9:c8:c4:06:0a:28:2c:ba:1a:ea:7f:63:27:39:70:
                    88:98:7d:11:04:0a:a7:e9:cb:c7:6c:d6:48:16:c8:
                    75:59:0f:1b:c2:1b:28:94:72:a8:62:17:14:d4:e3:
                    d9:37:2c:6f:ae:4a:b3:d4:19:fc:b7:f8:65:69:92:
                    0a:d8:7e:37:8f:1e:b0:b7:77:61:8d:45:c9:f2:4b:
                    56:8e:6b:4c:23:4a:f6:25:99:9b:f4:03:60:39:ef:
                    b9:fe:41:02:4a:b2:8a:35:75:a1:7c:f0:c0:1c:c1:
                    af:6f:34:1c:8f:01:3a:5a:39:ee:41:93:3f:5d:f7:
                    f5:62:9d:37:07:08:9c:e5:f8:21:43:42:a5:2a:bf:
                    1a:a1:8c:57:ec:25:7e:3c:66:c8:54:08:f6:63:0d:
                    ce:01:f2:a4:e2:f7:49:8f:a9:bd:61:d1:dc:34:37:
                    30:60:81:e7:d2:85:6b:25:f0:72:4d:31:5e:15:0e:
                    33:83:38:ab:4c:5f:d6:79:f7:c3:e6:30:59:a5:42:
                    79:58:20:8a:7c:6f:57:58:d6:34:f9:51:f3:68:cf:
                    ec:1b:b9:57:90:95:d8:70:71:1e:4f:63:99:ba:4c:
                    e1:26:0b:a9:4b:f1:8f:4d:30:98:b7:d0:0f:33:fc:
                    67:df:27:73:fd:19:aa:b3:33:3f:ff:46:f0:c0:0f:
                    3f:e8:e7:8a:ca:b5:0a:74:a1:ec:cc:3e:36:e2:73:
                    02:23:05:c9:98:16:1f:e2:f3:b6:87:3a:2b:d8:fb:
                    b8:3c:1b:cf:c2:24:68:9f:a0:a9:26:70:8b:00:c4:
                    02:c6:cc:0a:14:08:54:00:00:d8:e3:41:f7:28:34:
                    a1:16:1f:2f:3a:40:db:3e:49:3e:26:f8:03:d1:2d:
                    72:a4:1c:6d:19:43:4b:6a:d1:22:4f:f9:bd:df:ce:
                    da:13:91
                Exponent: 65537 (0x10001)
        X509v3 extensions:
            X509v3 Basic Constraints: 
                CA:FALSE
            Netscape Comment: 
                Easy-RSA Generated Certificate
            X509v3 Subject Key Identifier: 
                1F:6A:DB:28:07:FA:2C:F6:9B:64:DD:70:9F:74:06:29:D5:17:B6:A4
            X509v3 Authority Key Identifier: 
                keyid:EF:38:8D:14:50:58:A7:5B:4D:9C:17:72:FC:DF:B9:AC:A7:51:B0:10
                DirName:/C=US/ST=CA/L=SanFrancisco/O=Pixglo, Inc./OU=VPN-CIE/CN=tunnel.pixglo.com/name=Bala Chandrasekaran/emailAddress=bala@pixglo.com
                serial:A6:DB:C6:83:80:E6:A0:79

            X509v3 Extended Key Usage: 
                TLS Web Client Authentication
            X509v3 Key Usage: 
                Digital Signature
    Signature Algorithm: sha1WithRSAEncryption
         31:ea:6b:c9:8c:08:2d:bb:c4:c7:40:52:59:07:d6:a3:2c:b2:
         b5:ac:86:ea:4b:7b:4e:d9:62:85:7b:2d:fa:c0:be:09:ca:bf:
         77:a1:c1:2d:70:2d:e8:66:2b:b9:be:44:69:b2:ef:7d:85:a4:
         2b:d2:da:84:27:b6:a3:35:76:89:34:48:4d:31:6a:54:70:b2:
         9d:44:2a:e3:56:64:de:0a:db:b2:ff:ed:9f:ac:15:12:fc:88:
         39:b5:9e:15:2f:f6:33:fc:f0:35:6c:df:ce:3d:1c:20:be:f0:
         c5:12:15:7f:f7:d9:08:5f:77:cd:e0:99:d7:94:7a:d1:d0:02:
         ab:7a:5a:03:11:2b:f6:50:b3:e5:a2:72:cb:9f:b6:4c:e7:52:
         d5:51:c7:86:de:46:8a:e9:91:28:37:31:55:9f:f7:da:c1:2a:
         b1:9f:1f:c4:92:bd:1f:18:31:28:96:30:22:6d:5f:7e:30:b1:
         5c:31:20:fd:3e:82:d9:88:f7:f4:79:33:18:de:8e:6a:df:39:
         9a:6f:90:02:9c:c1:50:10:29:0b:47:3b:ff:c1:fd:83:1f:4c:
         4c:61:87:78:99:ff:55:13:0b:f0:5e:66:1c:76:b7:8b:62:41:
         c9:6c:51:e0:47:a8:91:fb:b9:b3:67:63:bd:81:64:42:4d:bf:
         b4:e4:09:d3:0f:24:28:2e:38:83:a1:b6:17:87:a3:fa:d8:1a:
         87:08:12:54:3f:62:83:74:5c:31:c0:46:6a:bd:36:77:4e:c8:
         0c:5a:0e:40:ef:d4:98:47:93:07:7d:29:78:09:fa:28:ee:b4:
         bf:e2:68:5a:d7:60:fc:a3:f9:5e:0e:40:ce:51:6a:a8:1c:c7:
         51:35:8f:ba:37:df:ac:35:66:d2:9e:47:e6:a0:5d:62:3b:1e:
         73:55:47:59:e0:b1:f1:a2:46:99:c1:f3:c7:68:4d:73:3d:20:
         3a:d5:08:31:f5:90:14:8f:f7:ea:5f:c2:00:bb:24:86:58:1e:
         3f:e2:58:4b:b3:bc:c1:a7:a5:59:46:ad:36:27:3c:61:52:74:
         0f:ac:c5:c9:61:5e:49:b5:8c:be:d9:50:26:0e:8c:e6:42:8b:
         80:29:5c:c2:cf:bc:95:cc:8e:0c:41:4b:37:fc:19:b7:5d:e9:
         c9:44:2e:bc:ef:7f:46:15:41:a9:71:9a:77:33:b3:6b:a4:b7:
         23:c5:bf:9b:87:57:0d:ba:18:ca:a7:1a:57:53:88:1a:c4:7d:
         06:b0:12:1d:5c:bc:c7:d1:86:95:31:71:2d:ad:7a:e1:a5:91:
         49:ef:e7:ee:d6:ac:1f:68:4c:d3:ee:31:33:c6:c2:da:48:e8:
         9a:41:c3:2a:84:55:ac:da
-----BEGIN CERTIFICATE-----
MIIHSDCCBTCgAwIBAgICAkswDQYJKoZIhvcNAQEFBQAwgbQxCzAJBgNVBAYTAlVT
MQswCQYDVQQIEwJDQTEVMBMGA1UEBxMMU2FuRnJhbmNpc2NvMRUwEwYDVQQKEwxQ
aXhnbG8sIEluYy4xEDAOBgNVBAsTB1ZQTi1DSUUxGjAYBgNVBAMTEXR1bm5lbC5w
aXhnbG8uY29tMRwwGgYDVQQpExNCYWxhIENoYW5kcmFzZWthcmFuMR4wHAYJKoZI
hvcNAQkBFg9iYWxhQHBpeGdsby5jb20wHhcNMTgwMjE0MDYzNzQ1WhcNMjgwMjEy
MDYzNzQ1WjCBqTELMAkGA1UEBhMCVVMxCzAJBgNVBAgTAkNBMRUwEwYDVQQHEwxT
YW5GcmFuY2lzY28xFTATBgNVBAoTDFBpeGdsbywgSW5jLjEQMA4GA1UECxMHVlBO
LUNJRTEPMA0GA1UEAxMGY2llNTg2MRwwGgYDVQQpExNCYWxhIENoYW5kcmFzZWth
cmFuMR4wHAYJKoZIhvcNAQkBFg9iYWxhQHBpeGdsby5jb20wggIiMA0GCSqGSIb3
DQEBAQUAA4ICDwAwggIKAoICAQDb0QCXh3TdkASLXIAOP5GBGmY4fJy4lpQUcFpu
5c4t76c8cpyE8mB1OWaGPAltcWbDBEBB/6+z7EQG47WliMIbf9jMJYG3zLPKHWyY
zUq/3sAgix6i5xRBvv+h31LcGTAOgNhWSURv5lE45/UnFZ5AdUVjKv2tYSsTtao/
cd0xwupDCs1OJ7ShGv3WwS7QhgpZlj8g65pi4Y5KfoskbZDgUU+iK9nIxAYKKCy6
Gup/Yyc5cIiYfREECqfpy8ds1kgWyHVZDxvCGyiUcqhiFxTU49k3LG+uSrPUGfy3
+GVpkgrYfjePHrC3d2GNRcnyS1aOa0wjSvYlmZv0A2A577n+QQJKsoo1daF88MAc
wa9vNByPATpaOe5Bkz9d9/VinTcHCJzl+CFDQqUqvxqhjFfsJX48ZshUCPZjDc4B
8qTi90mPqb1h0dw0NzBggefShWsl8HJNMV4VDjODOKtMX9Z598PmMFmlQnlYIIp8
b1dY1jT5UfNoz+wbuVeQldhwcR5PY5m6TOEmC6lL8Y9NMJi30A8z/GffJ3P9Gaqz
Mz//RvDADz/o54rKtQp0oezMPjbicwIjBcmYFh/i87aHOivY+7g8G8/CJGifoKkm
cIsAxALGzAoUCFQAANjjQfcoNKEWHy86QNs+ST4m+APRLXKkHG0ZQ0tq0SJP+b3f
ztoTkQIDAQABo4IBazCCAWcwCQYDVR0TBAIwADAtBglghkgBhvhCAQ0EIBYeRWFz
eS1SU0EgR2VuZXJhdGVkIENlcnRpZmljYXRlMB0GA1UdDgQWBBQfatsoB/os9ptk
3XCfdAYp1Re2pDCB6QYDVR0jBIHhMIHegBTvOI0UUFinW02cF3L837msp1GwEKGB
uqSBtzCBtDELMAkGA1UEBhMCVVMxCzAJBgNVBAgTAkNBMRUwEwYDVQQHEwxTYW5G
cmFuY2lzY28xFTATBgNVBAoTDFBpeGdsbywgSW5jLjEQMA4GA1UECxMHVlBOLUNJ
RTEaMBgGA1UEAxMRdHVubmVsLnBpeGdsby5jb20xHDAaBgNVBCkTE0JhbGEgQ2hh
bmRyYXNla2FyYW4xHjAcBgkqhkiG9w0BCQEWD2JhbGFAcGl4Z2xvLmNvbYIJAKbb
xoOA5qB5MBMGA1UdJQQMMAoGCCsGAQUFBwMCMAsGA1UdDwQEAwIHgDANBgkqhkiG
9w0BAQUFAAOCAgEAMepryYwILbvEx0BSWQfWoyyytayG6kt7TtlihXst+sC+Ccq/
d6HBLXAt6GYrub5EabLvfYWkK9LahCe2ozV2iTRITTFqVHCynUQq41Zk3grbsv/t
n6wVEvyIObWeFS/2M/zwNWzfzj0cIL7wxRIVf/fZCF93zeCZ15R60dACq3paAxEr
9lCz5aJyy5+2TOdS1VHHht5GiumRKDcxVZ/32sEqsZ8fxJK9HxgxKJYwIm1ffjCx
XDEg/T6C2Yj39HkzGN6Oat85mm+QApzBUBApC0c7/8H9gx9MTGGHeJn/VRML8F5m
HHa3i2JByWxR4Eeokfu5s2djvYFkQk2/tOQJ0w8kKC44g6G2F4ej+tgahwgSVD9i
g3RcMcBGar02d07IDFoOQO/UmEeTB30peAn6KO60v+JoWtdg/KP5Xg5AzlFqqBzH
UTWPujffrDVm0p5H5qBdYjsec1VHWeCx8aJGmcHzx2hNcz0gOtUIMfWQFI/36l/C
ALskhlgeP+JYS7O8waelWUatNic8YVJ0D6zFyWFeSbWMvtlQJg6M5kKLgClcws+8
lcyODEFLN/wZt13pyUQuvO9/RhVBqXGadzOza6S3I8W/m4dXDboYyqcaV1OIGsR9
BrASHVy8x9GGlTFxLa164aWRSe/n7tasH2hM0+4xM8bC2kjomkHDKoRVrNo=
-----END CERTIFICATE-----
