Certificate:
    Data:
        Version: 3 (0x2)
        Serial Number: 588 (0x24c)
    Signature Algorithm: sha1WithRSAEncryption
        Issuer: C=US, ST=CA, L=SanFrancisco, O=Pixglo, Inc., OU=VPN-CIE, CN=tunnel.pixglo.com/name=Bala Chandrasekaran/emailAddress=bala@pixglo.com
        Validity
            Not Before: Feb 14 06:37:46 2018 GMT
            Not After : Feb 12 06:37:46 2028 GMT
        Subject: C=US, ST=CA, L=SanFrancisco, O=Pixglo, Inc., OU=VPN-CIE, CN=cie587/name=Bala Chandrasekaran/emailAddress=bala@pixglo.com
        Subject Public Key Info:
            Public Key Algorithm: rsaEncryption
                Public-Key: (4096 bit)
                Modulus:
                    00:d6:6d:b0:3b:89:eb:eb:86:e1:b7:e4:1c:ff:4d:
                    1b:75:f3:b2:37:5a:0e:e6:92:51:c6:81:d5:1e:8e:
                    71:68:62:eb:7a:ea:81:b9:d7:ed:6b:91:0e:06:87:
                    bf:6a:0c:91:74:28:49:30:af:6f:38:77:1e:fc:51:
                    41:ce:d4:e0:d7:0d:73:dd:b3:f0:9f:10:db:a1:85:
                    b7:3e:45:86:9d:34:bc:2d:3b:7b:53:48:3a:33:16:
                    7d:54:c2:02:24:e1:0d:d8:ad:3f:36:8f:37:fe:2a:
                    9a:28:21:3c:cb:5e:2f:14:25:ab:fa:d6:ab:94:5d:
                    38:71:7f:8a:71:64:e5:1f:16:b9:ea:a2:a3:75:d3:
                    e5:e4:5d:2f:33:4b:ef:25:ed:55:60:2e:5d:56:06:
                    0b:40:dd:c5:72:b8:af:41:41:b0:25:21:95:62:31:
                    88:a2:9f:3e:f9:12:36:b9:7b:b6:a4:98:72:82:ea:
                    6a:db:e4:98:52:f9:25:d9:c0:9e:21:a1:6d:44:cb:
                    e8:95:51:47:c3:1e:a9:59:35:80:0b:7a:84:f4:6b:
                    0d:14:85:31:0b:6f:43:9f:d8:68:0e:11:82:d9:d7:
                    3b:38:51:7f:4d:78:5f:10:0f:4e:ac:da:9b:e4:d8:
                    d4:7c:21:4c:09:47:b5:f9:0b:b6:37:71:76:be:0a:
                    8c:d7:db:03:b1:03:35:47:4b:47:50:bf:f1:2f:e1:
                    ab:5c:5f:b5:a6:e1:8a:09:5e:7a:17:93:3d:3d:7f:
                    84:d6:1f:42:41:74:40:e3:2c:97:4a:c3:c1:31:23:
                    41:22:14:c9:25:18:98:55:7b:09:11:57:55:71:61:
                    a2:00:2d:e7:08:b9:54:73:2b:bb:82:0e:69:3a:f7:
                    57:15:46:fc:d1:19:ac:3a:06:a4:c1:bc:c2:ea:f2:
                    62:82:be:98:7e:14:02:11:45:88:c7:6c:61:dd:e4:
                    f7:20:f3:27:93:37:7e:96:af:ee:eb:50:ba:f4:f7:
                    1e:00:07:a5:f1:19:6f:a5:c2:ce:ef:6c:31:2d:dc:
                    3e:64:c7:22:8b:5f:6e:f7:cd:db:f7:f8:6d:7c:31:
                    a5:8c:23:6e:af:91:e4:c1:30:6a:5e:24:4b:36:91:
                    84:05:34:31:3c:e9:3a:cc:78:a6:f2:57:91:09:d7:
                    26:fd:07:2d:54:63:46:6f:1d:86:78:f3:b0:b6:b3:
                    3c:a0:12:a8:77:72:1c:a5:2c:50:69:e5:03:1a:3c:
                    b8:93:0a:98:76:09:6a:a9:f3:5e:b8:bf:6b:00:13:
                    3f:d7:b2:8a:35:e7:cb:8a:fc:38:77:5d:27:f1:57:
                    8b:db:ce:26:7d:6b:7d:fd:52:c4:06:26:e1:b0:a5:
                    e6:16:97
                Exponent: 65537 (0x10001)
        X509v3 extensions:
            X509v3 Basic Constraints: 
                CA:FALSE
            Netscape Comment: 
                Easy-RSA Generated Certificate
            X509v3 Subject Key Identifier: 
                F3:70:69:DC:4B:DD:40:19:C3:DC:F7:D1:98:6B:95:C4:04:ED:16:7B
            X509v3 Authority Key Identifier: 
                keyid:EF:38:8D:14:50:58:A7:5B:4D:9C:17:72:FC:DF:B9:AC:A7:51:B0:10
                DirName:/C=US/ST=CA/L=SanFrancisco/O=Pixglo, Inc./OU=VPN-CIE/CN=tunnel.pixglo.com/name=Bala Chandrasekaran/emailAddress=bala@pixglo.com
                serial:A6:DB:C6:83:80:E6:A0:79

            X509v3 Extended Key Usage: 
                TLS Web Client Authentication
            X509v3 Key Usage: 
                Digital Signature
    Signature Algorithm: sha1WithRSAEncryption
         0a:7e:c7:02:48:0d:7b:c5:64:0f:4d:a8:3b:38:3b:fd:5c:58:
         cb:07:fa:c7:85:15:40:7c:ed:b4:79:20:70:27:f4:82:0c:19:
         28:27:59:34:1f:c1:a3:f0:57:0f:10:7b:e3:74:a1:72:e0:ca:
         3e:2a:04:1e:3c:59:17:c8:26:02:5f:8a:30:84:f5:73:43:4d:
         6e:4e:94:06:1e:3d:d2:14:0d:7d:f3:ff:0b:20:9d:15:70:af:
         96:49:79:20:72:f7:ce:9f:de:34:93:f7:26:0e:a3:96:5f:fe:
         a9:99:d0:46:8f:fe:2c:63:81:77:6c:b9:8b:e2:21:8f:eb:ba:
         f9:fb:ef:a6:61:c1:a6:60:1a:bc:c1:03:79:c2:e7:94:5c:70:
         76:12:8c:a1:e9:4a:68:9d:ac:6f:38:ec:72:64:76:d7:ab:db:
         6b:c6:f0:9c:27:e1:70:0c:0b:a6:af:7f:8f:e6:d6:c9:fc:9f:
         e6:53:ea:2d:9e:b6:b4:1b:34:55:65:e1:83:00:7c:f8:e6:4b:
         7b:16:c2:24:3f:d2:c6:9e:82:37:97:bc:85:2e:2c:1a:59:18:
         a0:07:af:33:67:05:ae:ff:ff:ee:c6:f8:c1:e2:c1:19:c1:75:
         1e:e3:21:fb:65:9f:72:95:5f:88:ab:25:69:47:f2:0a:3a:88:
         03:76:ac:b1:70:87:63:f4:ee:8b:57:0c:f8:64:aa:51:b0:c9:
         b7:38:eb:79:7f:3d:e4:24:41:5f:87:28:87:fd:5a:31:d4:9d:
         78:c9:21:df:78:c4:42:87:aa:f6:97:1d:ec:38:43:d5:2b:77:
         50:b5:a1:60:cd:bd:da:07:40:b2:8c:4b:ce:6e:b4:da:2f:6b:
         92:f5:d7:1b:af:a8:a8:30:99:2e:2d:17:3d:8a:54:2f:be:cd:
         4b:79:0a:b6:77:6c:1d:35:d9:07:2a:d6:a5:e8:81:00:4d:a3:
         e9:9e:1b:14:9a:c2:10:2c:2c:74:7f:71:13:42:93:d1:04:73:
         24:f9:7f:96:b2:c9:11:86:ee:5c:1f:91:3f:5f:bd:95:89:e2:
         3d:11:51:ac:33:c5:b0:93:86:bc:ea:08:d4:93:45:7e:34:bf:
         bc:8a:3e:78:a2:3a:e6:6d:43:50:92:3b:aa:f2:17:8a:c0:eb:
         a6:b4:55:42:b7:6a:d6:15:21:09:49:4a:34:54:8b:8c:a3:76:
         4d:b9:41:9b:88:db:7f:8f:85:5a:0f:4c:a4:3b:28:5c:7c:3a:
         ef:f4:9e:2a:c0:a4:0a:c2:e2:52:94:94:dc:0d:5c:f4:c1:b3:
         d0:d0:ab:37:e8:8d:84:a6:57:3e:e9:f1:e5:b3:5b:b8:8e:62:
         e4:9c:10:be:6c:b4:21:93
-----BEGIN CERTIFICATE-----
MIIHSDCCBTCgAwIBAgICAkwwDQYJKoZIhvcNAQEFBQAwgbQxCzAJBgNVBAYTAlVT
MQswCQYDVQQIEwJDQTEVMBMGA1UEBxMMU2FuRnJhbmNpc2NvMRUwEwYDVQQKEwxQ
aXhnbG8sIEluYy4xEDAOBgNVBAsTB1ZQTi1DSUUxGjAYBgNVBAMTEXR1bm5lbC5w
aXhnbG8uY29tMRwwGgYDVQQpExNCYWxhIENoYW5kcmFzZWthcmFuMR4wHAYJKoZI
hvcNAQkBFg9iYWxhQHBpeGdsby5jb20wHhcNMTgwMjE0MDYzNzQ2WhcNMjgwMjEy
MDYzNzQ2WjCBqTELMAkGA1UEBhMCVVMxCzAJBgNVBAgTAkNBMRUwEwYDVQQHEwxT
YW5GcmFuY2lzY28xFTATBgNVBAoTDFBpeGdsbywgSW5jLjEQMA4GA1UECxMHVlBO
LUNJRTEPMA0GA1UEAxMGY2llNTg3MRwwGgYDVQQpExNCYWxhIENoYW5kcmFzZWth
cmFuMR4wHAYJKoZIhvcNAQkBFg9iYWxhQHBpeGdsby5jb20wggIiMA0GCSqGSIb3
DQEBAQUAA4ICDwAwggIKAoICAQDWbbA7ievrhuG35Bz/TRt187I3Wg7mklHGgdUe
jnFoYut66oG51+1rkQ4Gh79qDJF0KEkwr284dx78UUHO1ODXDXPds/CfENuhhbc+
RYadNLwtO3tTSDozFn1UwgIk4Q3YrT82jzf+KpooITzLXi8UJav61quUXThxf4px
ZOUfFrnqoqN10+XkXS8zS+8l7VVgLl1WBgtA3cVyuK9BQbAlIZViMYiinz75Eja5
e7akmHKC6mrb5JhS+SXZwJ4hoW1Ey+iVUUfDHqlZNYALeoT0aw0UhTELb0Of2GgO
EYLZ1zs4UX9NeF8QD06s2pvk2NR8IUwJR7X5C7Y3cXa+CozX2wOxAzVHS0dQv/Ev
4atcX7Wm4YoJXnoXkz09f4TWH0JBdEDjLJdKw8ExI0EiFMklGJhVewkRV1VxYaIA
LecIuVRzK7uCDmk691cVRvzRGaw6BqTBvMLq8mKCvph+FAIRRYjHbGHd5Pcg8yeT
N36Wr+7rULr09x4AB6XxGW+lws7vbDEt3D5kxyKLX273zdv3+G18MaWMI26vkeTB
MGpeJEs2kYQFNDE86TrMeKbyV5EJ1yb9By1UY0ZvHYZ487C2szygEqh3chylLFBp
5QMaPLiTCph2CWqp8164v2sAEz/Xsoo158uK/Dh3XSfxV4vbziZ9a339UsQGJuGw
peYWlwIDAQABo4IBazCCAWcwCQYDVR0TBAIwADAtBglghkgBhvhCAQ0EIBYeRWFz
eS1SU0EgR2VuZXJhdGVkIENlcnRpZmljYXRlMB0GA1UdDgQWBBTzcGncS91AGcPc
99GYa5XEBO0WezCB6QYDVR0jBIHhMIHegBTvOI0UUFinW02cF3L837msp1GwEKGB
uqSBtzCBtDELMAkGA1UEBhMCVVMxCzAJBgNVBAgTAkNBMRUwEwYDVQQHEwxTYW5G
cmFuY2lzY28xFTATBgNVBAoTDFBpeGdsbywgSW5jLjEQMA4GA1UECxMHVlBOLUNJ
RTEaMBgGA1UEAxMRdHVubmVsLnBpeGdsby5jb20xHDAaBgNVBCkTE0JhbGEgQ2hh
bmRyYXNla2FyYW4xHjAcBgkqhkiG9w0BCQEWD2JhbGFAcGl4Z2xvLmNvbYIJAKbb
xoOA5qB5MBMGA1UdJQQMMAoGCCsGAQUFBwMCMAsGA1UdDwQEAwIHgDANBgkqhkiG
9w0BAQUFAAOCAgEACn7HAkgNe8VkD02oOzg7/VxYywf6x4UVQHzttHkgcCf0ggwZ
KCdZNB/Bo/BXDxB743ShcuDKPioEHjxZF8gmAl+KMIT1c0NNbk6UBh490hQNffP/
CyCdFXCvlkl5IHL3zp/eNJP3Jg6jll/+qZnQRo/+LGOBd2y5i+Ihj+u6+fvvpmHB
pmAavMEDecLnlFxwdhKMoelKaJ2sbzjscmR216vba8bwnCfhcAwLpq9/j+bWyfyf
5lPqLZ62tBs0VWXhgwB8+OZLexbCJD/Sxp6CN5e8hS4sGlkYoAevM2cFrv//7sb4
weLBGcF1HuMh+2WfcpVfiKslaUfyCjqIA3assXCHY/Tui1cM+GSqUbDJtzjreX89
5CRBX4coh/1aMdSdeMkh33jEQoeq9pcd7DhD1St3ULWhYM292gdAsoxLzm602i9r
kvXXG6+oqDCZLi0XPYpUL77NS3kKtndsHTXZByrWpeiBAE2j6Z4bFJrCECwsdH9x
E0KT0QRzJPl/lrLJEYbuXB+RP1+9lYniPRFRrDPFsJOGvOoI1JNFfjS/vIo+eKI6
5m1DUJI7qvIXisDrprRVQrdq1hUhCUlKNFSLjKN2TblBm4jbf4+FWg9MpDsoXHw6
7/SeKsCkCsLiUpSU3A1c9MGz0NCrN+iNhKZXPunx5bNbuI5i5JwQvmy0IZM=
-----END CERTIFICATE-----
