Certificate:
    Data:
        Version: 3 (0x2)
        Serial Number: 589 (0x24d)
    Signature Algorithm: sha1WithRSAEncryption
        Issuer: C=US, ST=CA, L=SanFrancisco, O=Pixglo, Inc., OU=VPN-CIE, CN=tunnel.pixglo.com/name=Bala Chandrasekaran/emailAddress=bala@pixglo.com
        Validity
            Not Before: Feb 14 06:37:48 2018 GMT
            Not After : Feb 12 06:37:48 2028 GMT
        Subject: C=US, ST=CA, L=SanFrancisco, O=Pixglo, Inc., OU=VPN-CIE, CN=cie588/name=Bala Chandrasekaran/emailAddress=bala@pixglo.com
        Subject Public Key Info:
            Public Key Algorithm: rsaEncryption
                Public-Key: (4096 bit)
                Modulus:
                    00:cd:18:5e:fd:01:8b:60:68:95:91:a7:56:8c:29:
                    fd:ce:6a:ed:b0:36:90:09:76:15:7b:d9:fc:f3:c2:
                    1a:2c:71:0e:4e:7b:de:c4:ee:6b:1c:16:b7:68:0c:
                    09:48:2c:8e:65:b9:3d:9b:aa:6b:9c:c6:35:3c:ee:
                    c0:a7:9f:0f:e5:31:3e:cf:65:52:51:ca:f0:c4:e8:
                    55:da:b5:84:54:46:e5:3c:0b:01:09:3b:2b:88:ae:
                    21:b9:82:00:0b:18:97:4c:09:c5:b5:57:00:dd:44:
                    e2:3c:96:70:bd:ad:a3:f2:dc:de:ec:2f:11:65:4e:
                    46:a8:cc:60:6c:c5:3d:2c:e3:0a:da:a6:05:ea:65:
                    82:95:e3:ae:fb:f0:ba:8b:f1:e0:e1:b3:ab:20:69:
                    02:04:7e:a2:63:86:ca:36:01:e8:32:79:61:ae:68:
                    dc:6b:76:18:fa:9a:ac:5a:c2:ec:ad:16:5d:84:18:
                    8d:02:bc:30:5a:1d:8e:06:20:75:41:5d:ff:cc:4c:
                    a5:f4:ca:5b:8a:f6:b3:c2:c9:79:fd:fb:53:91:43:
                    b1:f6:6c:03:e6:bd:99:cf:28:91:37:97:ec:ca:4f:
                    73:03:9a:cd:cb:1d:f8:fe:ce:8a:6b:e1:63:3e:4b:
                    83:18:23:e9:e6:fe:d7:2a:34:a3:6e:ff:d3:6d:9f:
                    9e:0d:33:b9:5e:6f:42:ef:e2:01:3d:ca:28:57:d6:
                    a2:e0:a4:fc:31:47:3d:fa:11:87:86:70:fa:2a:2f:
                    8a:8c:b5:4c:52:30:bb:d1:2b:88:bf:ff:e8:4f:00:
                    29:b9:5f:25:21:f8:1e:cc:b6:c7:18:7d:3a:18:6f:
                    2b:6e:ea:e0:3e:10:20:89:91:9f:5c:35:8d:91:28:
                    32:01:cc:62:c4:13:c6:80:ad:b9:b2:23:89:78:98:
                    97:99:91:07:c8:39:27:c3:b9:c7:d9:f5:62:0f:49:
                    8d:65:5f:e5:43:4a:73:08:b2:9b:e3:5f:e0:f3:b7:
                    7b:28:72:20:31:ad:7f:a4:00:61:fd:77:d2:d1:e7:
                    b3:3c:2b:18:3b:c3:bc:4a:39:06:c3:1e:85:73:0e:
                    27:c8:0a:72:46:d3:3f:d1:74:6b:ac:16:9a:ce:f4:
                    45:c5:d0:03:66:ee:ad:0d:d3:43:a4:56:96:78:1e:
                    61:a3:3a:7d:f2:cd:d2:d9:34:6a:5d:87:85:05:a6:
                    35:38:3f:ae:81:7e:6b:88:26:e1:e8:16:57:2a:b3:
                    33:b6:d9:63:bb:c1:88:28:b4:08:18:22:c7:30:6e:
                    b0:44:b7:04:1d:e9:ad:41:2a:bf:92:d9:7b:e1:4c:
                    3d:6c:33:a8:bd:55:4e:4f:8b:57:7e:90:13:4f:89:
                    9d:86:dd
                Exponent: 65537 (0x10001)
        X509v3 extensions:
            X509v3 Basic Constraints: 
                CA:FALSE
            Netscape Comment: 
                Easy-RSA Generated Certificate
            X509v3 Subject Key Identifier: 
                0A:B5:5B:56:2D:B1:73:50:5F:28:F6:B4:6D:60:DF:7F:85:7A:0A:79
            X509v3 Authority Key Identifier: 
                keyid:EF:38:8D:14:50:58:A7:5B:4D:9C:17:72:FC:DF:B9:AC:A7:51:B0:10
                DirName:/C=US/ST=CA/L=SanFrancisco/O=Pixglo, Inc./OU=VPN-CIE/CN=tunnel.pixglo.com/name=Bala Chandrasekaran/emailAddress=bala@pixglo.com
                serial:A6:DB:C6:83:80:E6:A0:79

            X509v3 Extended Key Usage: 
                TLS Web Client Authentication
            X509v3 Key Usage: 
                Digital Signature
    Signature Algorithm: sha1WithRSAEncryption
         62:3a:c2:41:5a:12:56:66:72:f8:58:85:ff:c7:9c:72:22:08:
         7b:cd:a7:ba:b7:8d:86:f4:e5:ff:23:39:cc:32:54:4e:dd:30:
         84:bd:63:a2:26:ba:7a:8e:0d:91:77:4b:6d:c6:04:81:a9:48:
         34:1b:aa:13:ed:e6:92:40:53:b2:ae:16:96:0c:0e:57:c9:d2:
         cc:90:58:40:b0:b9:c5:fd:8b:b2:52:c2:51:d9:35:ff:86:ad:
         62:b2:f0:7f:69:13:6b:1b:da:f2:c3:1c:d4:c8:b1:0c:24:18:
         73:ce:a2:77:c2:22:45:27:be:f1:ff:0e:90:95:6d:74:86:5a:
         72:f9:77:f0:8e:37:8b:57:01:3f:57:d3:7d:ff:22:a7:5f:d5:
         33:2f:b8:f5:98:f6:84:b3:f4:5d:c3:82:df:f2:a9:2e:35:83:
         75:b3:ea:17:d3:c0:30:17:8b:61:c2:60:2a:e2:0f:53:5a:3d:
         94:d9:ea:dd:9a:7c:89:b2:cf:e7:fd:81:30:f0:a3:e1:15:cf:
         5d:de:83:d9:4e:9d:12:0d:1e:9f:88:b3:54:d6:7f:29:db:2a:
         be:e2:fd:b2:0f:a9:41:7d:69:f5:a0:e6:a5:15:3e:f2:a6:27:
         86:08:81:4e:95:3b:b6:61:94:e4:c2:29:75:52:3b:f2:57:f2:
         ff:59:cd:76:88:c0:f6:9d:8a:10:a0:c8:43:a3:66:13:4e:47:
         bf:bf:1b:45:e7:9a:50:2c:47:33:a0:11:05:c3:23:d0:4c:cb:
         61:6d:44:9a:15:67:e6:5e:3d:9a:b8:ad:12:27:5d:65:61:49:
         0d:89:cd:43:af:45:23:cb:d6:d7:e9:da:63:bd:00:3c:d5:cb:
         42:fb:ec:17:71:02:35:7c:a1:9c:17:8a:80:a2:3f:d5:28:14:
         1d:f2:c5:af:7a:79:54:ed:b6:a3:26:3b:81:d5:1a:59:a4:bf:
         df:ac:ab:89:67:d3:80:c2:c7:dd:3b:0e:4f:56:dd:75:56:d1:
         c9:21:c2:92:b3:30:94:10:49:76:f2:fb:c7:e1:76:a4:1f:a6:
         8e:a6:13:00:d4:ed:d6:a7:1e:ab:d4:a3:d8:17:f6:43:48:c2:
         58:63:4c:f6:bf:f9:78:cc:f1:12:a8:83:d8:bb:ca:79:ff:32:
         08:5b:2c:c2:a2:c6:df:9b:1f:1a:f9:b9:98:57:fc:fa:54:c0:
         f5:0b:bd:cf:ff:ff:ad:12:56:99:8a:4f:4d:44:40:8a:4d:74:
         9d:00:69:17:41:ee:b3:76:fa:d5:28:da:12:54:6c:d6:73:37:
         5a:98:9f:8a:92:87:b6:7b:8a:ec:ee:a7:51:3e:4c:85:31:fc:
         9f:9a:9a:a1:d5:d8:56:96
-----BEGIN CERTIFICATE-----
MIIHSDCCBTCgAwIBAgICAk0wDQYJKoZIhvcNAQEFBQAwgbQxCzAJBgNVBAYTAlVT
MQswCQYDVQQIEwJDQTEVMBMGA1UEBxMMU2FuRnJhbmNpc2NvMRUwEwYDVQQKEwxQ
aXhnbG8sIEluYy4xEDAOBgNVBAsTB1ZQTi1DSUUxGjAYBgNVBAMTEXR1bm5lbC5w
aXhnbG8uY29tMRwwGgYDVQQpExNCYWxhIENoYW5kcmFzZWthcmFuMR4wHAYJKoZI
hvcNAQkBFg9iYWxhQHBpeGdsby5jb20wHhcNMTgwMjE0MDYzNzQ4WhcNMjgwMjEy
MDYzNzQ4WjCBqTELMAkGA1UEBhMCVVMxCzAJBgNVBAgTAkNBMRUwEwYDVQQHEwxT
YW5GcmFuY2lzY28xFTATBgNVBAoTDFBpeGdsbywgSW5jLjEQMA4GA1UECxMHVlBO
LUNJRTEPMA0GA1UEAxMGY2llNTg4MRwwGgYDVQQpExNCYWxhIENoYW5kcmFzZWth
cmFuMR4wHAYJKoZIhvcNAQkBFg9iYWxhQHBpeGdsby5jb20wggIiMA0GCSqGSIb3
DQEBAQUAA4ICDwAwggIKAoICAQDNGF79AYtgaJWRp1aMKf3Oau2wNpAJdhV72fzz
whoscQ5Oe97E7mscFrdoDAlILI5luT2bqmucxjU87sCnnw/lMT7PZVJRyvDE6FXa
tYRURuU8CwEJOyuIriG5ggALGJdMCcW1VwDdROI8lnC9raPy3N7sLxFlTkaozGBs
xT0s4wrapgXqZYKV46778LqL8eDhs6sgaQIEfqJjhso2AegyeWGuaNxrdhj6mqxa
wuytFl2EGI0CvDBaHY4GIHVBXf/MTKX0yluK9rPCyXn9+1ORQ7H2bAPmvZnPKJE3
l+zKT3MDms3LHfj+zopr4WM+S4MYI+nm/tcqNKNu/9Ntn54NM7leb0Lv4gE9yihX
1qLgpPwxRz36EYeGcPoqL4qMtUxSMLvRK4i//+hPACm5XyUh+B7MtscYfToYbytu
6uA+ECCJkZ9cNY2RKDIBzGLEE8aArbmyI4l4mJeZkQfIOSfDucfZ9WIPSY1lX+VD
SnMIspvjX+Dzt3sociAxrX+kAGH9d9LR57M8Kxg7w7xKOQbDHoVzDifICnJG0z/R
dGusFprO9EXF0ANm7q0N00OkVpZ4HmGjOn3yzdLZNGpdh4UFpjU4P66BfmuIJuHo
FlcqszO22WO7wYgotAgYIscwbrBEtwQd6a1BKr+S2XvhTD1sM6i9VU5Pi1d+kBNP
iZ2G3QIDAQABo4IBazCCAWcwCQYDVR0TBAIwADAtBglghkgBhvhCAQ0EIBYeRWFz
eS1SU0EgR2VuZXJhdGVkIENlcnRpZmljYXRlMB0GA1UdDgQWBBQKtVtWLbFzUF8o
9rRtYN9/hXoKeTCB6QYDVR0jBIHhMIHegBTvOI0UUFinW02cF3L837msp1GwEKGB
uqSBtzCBtDELMAkGA1UEBhMCVVMxCzAJBgNVBAgTAkNBMRUwEwYDVQQHEwxTYW5G
cmFuY2lzY28xFTATBgNVBAoTDFBpeGdsbywgSW5jLjEQMA4GA1UECxMHVlBOLUNJ
RTEaMBgGA1UEAxMRdHVubmVsLnBpeGdsby5jb20xHDAaBgNVBCkTE0JhbGEgQ2hh
bmRyYXNla2FyYW4xHjAcBgkqhkiG9w0BCQEWD2JhbGFAcGl4Z2xvLmNvbYIJAKbb
xoOA5qB5MBMGA1UdJQQMMAoGCCsGAQUFBwMCMAsGA1UdDwQEAwIHgDANBgkqhkiG
9w0BAQUFAAOCAgEAYjrCQVoSVmZy+FiF/8ecciIIe82nureNhvTl/yM5zDJUTt0w
hL1joia6eo4NkXdLbcYEgalINBuqE+3mkkBTsq4WlgwOV8nSzJBYQLC5xf2LslLC
Udk1/4atYrLwf2kTaxva8sMc1MixDCQYc86id8IiRSe+8f8OkJVtdIZacvl38I43
i1cBP1fTff8ip1/VMy+49Zj2hLP0XcOC3/KpLjWDdbPqF9PAMBeLYcJgKuIPU1o9
lNnq3Zp8ibLP5/2BMPCj4RXPXd6D2U6dEg0en4izVNZ/KdsqvuL9sg+pQX1p9aDm
pRU+8qYnhgiBTpU7tmGU5MIpdVI78lfy/1nNdojA9p2KEKDIQ6NmE05Hv78bReea
UCxHM6ARBcMj0EzLYW1EmhVn5l49mritEiddZWFJDYnNQ69FI8vW1+naY70APNXL
QvvsF3ECNXyhnBeKgKI/1SgUHfLFr3p5VO22oyY7gdUaWaS/36yriWfTgMLH3TsO
T1bddVbRySHCkrMwlBBJdvL7x+F2pB+mjqYTANTt1qceq9Sj2Bf2Q0jCWGNM9r/5
eMzxEqiD2LvKef8yCFsswqLG35sfGvm5mFf8+lTA9Qu9z///rRJWmYpPTURAik10
nQBpF0Hus3b61SjaElRs1nM3WpifipKHtnuK7O6nUT5MhTH8n5qaodXYVpY=
-----END CERTIFICATE-----
