Certificate:
    Data:
        Version: 3 (0x2)
        Serial Number: 590 (0x24e)
    Signature Algorithm: sha1WithRSAEncryption
        Issuer: C=US, ST=CA, L=SanFrancisco, O=Pixglo, Inc., OU=VPN-CIE, CN=tunnel.pixglo.com/name=Bala Chandrasekaran/emailAddress=bala@pixglo.com
        Validity
            Not Before: Feb 14 06:37:48 2018 GMT
            Not After : Feb 12 06:37:48 2028 GMT
        Subject: C=US, ST=CA, L=SanFrancisco, O=Pixglo, Inc., OU=VPN-CIE, CN=cie589/name=Bala Chandrasekaran/emailAddress=bala@pixglo.com
        Subject Public Key Info:
            Public Key Algorithm: rsaEncryption
                Public-Key: (4096 bit)
                Modulus:
                    00:d8:1a:42:9c:86:97:51:ae:76:52:1b:23:85:cf:
                    d6:17:ff:4c:9d:37:2f:69:e1:58:05:a7:8d:03:53:
                    9d:05:a5:a4:d3:54:3f:d3:1b:d8:4b:46:07:72:ec:
                    3a:20:55:06:8a:81:3c:3b:28:72:44:6e:88:85:70:
                    33:34:80:be:3b:cf:50:35:82:50:92:d2:39:c6:7c:
                    5a:5c:e6:86:f4:61:f0:35:bf:58:ac:54:e6:0d:fd:
                    50:81:13:4e:01:43:56:2f:42:0b:49:66:1b:3a:39:
                    cb:af:bf:40:a6:86:47:26:9a:d8:b9:69:4b:e8:c6:
                    1f:e3:90:49:40:f5:eb:bd:b0:7b:07:5a:8d:02:04:
                    69:f9:66:04:7f:c2:70:aa:db:41:32:d4:b5:24:3a:
                    b8:3d:a1:47:79:f8:c2:7b:5d:e6:ef:9d:23:69:84:
                    ad:85:95:72:d3:3f:40:36:e3:b6:d8:28:95:06:fb:
                    9e:8a:fa:fd:2e:7f:8e:fe:79:5d:3c:23:10:4b:c5:
                    87:34:90:b7:3f:fb:21:bf:5b:83:73:de:49:5b:8f:
                    10:ce:e1:60:8b:81:5e:92:11:7c:bd:d9:a6:19:ed:
                    ad:f7:43:ab:21:62:ce:80:54:58:a2:5e:97:06:84:
                    2c:20:5b:dc:53:6f:25:65:ac:69:97:37:47:46:58:
                    c3:39:e2:92:71:67:a5:42:2b:1d:29:fd:d7:05:ee:
                    ec:ed:05:a1:6f:a9:82:cf:ab:c6:40:e0:35:f5:d6:
                    8a:16:7c:80:ea:bf:d7:aa:fe:ac:dc:a5:b8:9b:4f:
                    a0:a5:79:12:42:e7:90:17:4b:e7:ac:4f:e5:51:a1:
                    86:97:7c:34:4b:13:9d:b9:36:17:2d:a3:fb:3b:73:
                    f1:7e:5a:f8:ab:db:17:e0:a1:4c:0c:dc:0e:a6:8e:
                    4a:8a:1d:a9:e2:bb:71:be:ee:af:1f:a1:dd:e7:c6:
                    03:96:93:98:67:1f:0c:a3:49:d9:f5:8c:62:45:bf:
                    c5:e9:69:c0:f0:a0:8e:35:6a:26:a3:70:90:fc:f9:
                    6b:4b:0e:39:cb:4d:fc:c2:88:ff:3e:df:f0:b1:ce:
                    ea:cb:28:cb:43:f8:31:7c:d6:ee:7f:70:9f:3d:ee:
                    78:87:78:c8:b6:05:ff:32:53:67:fc:c1:f8:af:65:
                    9e:e5:46:95:e8:97:07:ef:81:7b:49:de:e6:c8:94:
                    3d:25:86:4e:8a:57:fb:14:a7:fd:89:a7:b9:66:ca:
                    0f:0e:7d:e2:ea:69:8c:e8:11:ee:f3:91:0f:b8:5e:
                    94:57:fb:7d:e8:4c:38:0c:bd:b0:8d:c7:8c:0b:d7:
                    93:d3:67:a0:cc:ba:40:70:d2:d2:61:33:d5:24:4d:
                    8c:78:95
                Exponent: 65537 (0x10001)
        X509v3 extensions:
            X509v3 Basic Constraints: 
                CA:FALSE
            Netscape Comment: 
                Easy-RSA Generated Certificate
            X509v3 Subject Key Identifier: 
                B6:30:79:69:D0:EA:B5:A8:19:4F:4C:2E:D4:C8:6F:1A:0E:EB:50:76
            X509v3 Authority Key Identifier: 
                keyid:EF:38:8D:14:50:58:A7:5B:4D:9C:17:72:FC:DF:B9:AC:A7:51:B0:10
                DirName:/C=US/ST=CA/L=SanFrancisco/O=Pixglo, Inc./OU=VPN-CIE/CN=tunnel.pixglo.com/name=Bala Chandrasekaran/emailAddress=bala@pixglo.com
                serial:A6:DB:C6:83:80:E6:A0:79

            X509v3 Extended Key Usage: 
                TLS Web Client Authentication
            X509v3 Key Usage: 
                Digital Signature
    Signature Algorithm: sha1WithRSAEncryption
         82:e6:63:89:1a:03:1e:47:0f:e8:67:9e:56:20:9e:7e:ee:3f:
         9d:a8:0a:4d:f5:ea:02:e4:06:26:4b:58:91:d6:f7:85:25:03:
         0b:28:ff:10:9b:fb:1d:32:b4:28:1e:9c:85:fc:36:21:07:10:
         8f:98:6a:dd:0b:87:a0:24:16:b5:39:9d:2e:23:ef:0a:1a:8e:
         80:e1:f6:e0:98:d6:18:12:3b:38:a6:58:3d:2c:41:6c:87:34:
         6a:e6:83:00:c7:ab:44:37:9d:ec:4c:2b:88:e1:f9:17:a6:45:
         3a:82:90:7d:66:11:f5:bf:0a:f7:20:e9:6f:b6:45:12:fb:39:
         b6:28:d6:17:4b:bf:e9:22:b1:cd:46:10:01:d2:6c:a0:d4:2c:
         ad:a1:2d:d2:33:a9:90:38:bf:3f:11:fd:8d:fa:02:b7:b3:03:
         6e:68:f0:57:44:da:82:13:5b:98:94:d4:9f:c3:14:04:4e:98:
         95:b5:5a:bc:17:04:7c:4a:9d:5b:a1:3c:e2:56:3e:f6:38:d8:
         f5:b1:9d:d3:54:5b:e0:ae:9d:7f:b1:4e:32:b6:4b:ca:f0:83:
         71:8d:66:b6:f8:1b:56:18:8d:d2:29:89:af:56:19:6a:df:82:
         80:8f:dc:d2:6a:0e:c2:a2:78:7a:f1:64:1e:c8:6d:4f:a3:3b:
         60:d0:47:95:3a:5a:ac:27:5b:a5:66:3f:c2:a1:6a:0a:4e:29:
         8d:d9:77:fa:72:cb:78:9c:ae:ef:97:8d:2f:83:00:0c:db:16:
         25:10:8a:dd:9c:f9:1d:d5:d8:3b:25:32:c8:dc:24:d7:b3:65:
         2f:e3:b6:f8:d5:2b:87:ce:7f:86:75:1f:65:36:10:67:a5:41:
         c2:3c:14:d9:87:fc:88:25:eb:0e:84:0b:63:e6:68:21:fc:67:
         29:80:1c:8f:14:c4:f4:36:82:c9:22:0e:f5:99:0b:fb:5f:c9:
         07:d1:71:45:1e:49:d3:ca:84:25:49:15:12:3b:e0:83:bd:16:
         17:e9:3f:a8:14:44:04:b8:98:cb:7b:65:1b:09:d6:2a:b8:57:
         5f:54:88:97:a1:84:ae:a9:86:6b:09:5e:1e:1e:7c:cd:84:20:
         62:23:ce:1f:d8:45:a4:d5:4c:48:37:79:da:4a:73:87:6b:9d:
         83:3c:80:0a:bd:ec:7a:e2:58:8a:6a:67:e7:bf:25:59:68:b3:
         60:c4:c0:b7:b2:22:53:0b:12:64:9b:22:f8:3f:8b:c7:4f:b4:
         e3:7d:a4:d8:56:e2:15:ef:ef:22:c1:49:34:db:df:de:bc:be:
         ee:0e:34:ba:b8:9c:c0:b6:29:7d:b8:fd:81:54:10:66:e0:37:
         2c:5c:98:21:30:79:33:b3
-----BEGIN CERTIFICATE-----
MIIHSDCCBTCgAwIBAgICAk4wDQYJKoZIhvcNAQEFBQAwgbQxCzAJBgNVBAYTAlVT
MQswCQYDVQQIEwJDQTEVMBMGA1UEBxMMU2FuRnJhbmNpc2NvMRUwEwYDVQQKEwxQ
aXhnbG8sIEluYy4xEDAOBgNVBAsTB1ZQTi1DSUUxGjAYBgNVBAMTEXR1bm5lbC5w
aXhnbG8uY29tMRwwGgYDVQQpExNCYWxhIENoYW5kcmFzZWthcmFuMR4wHAYJKoZI
hvcNAQkBFg9iYWxhQHBpeGdsby5jb20wHhcNMTgwMjE0MDYzNzQ4WhcNMjgwMjEy
MDYzNzQ4WjCBqTELMAkGA1UEBhMCVVMxCzAJBgNVBAgTAkNBMRUwEwYDVQQHEwxT
YW5GcmFuY2lzY28xFTATBgNVBAoTDFBpeGdsbywgSW5jLjEQMA4GA1UECxMHVlBO
LUNJRTEPMA0GA1UEAxMGY2llNTg5MRwwGgYDVQQpExNCYWxhIENoYW5kcmFzZWth
cmFuMR4wHAYJKoZIhvcNAQkBFg9iYWxhQHBpeGdsby5jb20wggIiMA0GCSqGSIb3
DQEBAQUAA4ICDwAwggIKAoICAQDYGkKchpdRrnZSGyOFz9YX/0ydNy9p4VgFp40D
U50FpaTTVD/TG9hLRgdy7DogVQaKgTw7KHJEboiFcDM0gL47z1A1glCS0jnGfFpc
5ob0YfA1v1isVOYN/VCBE04BQ1YvQgtJZhs6Ocuvv0Cmhkcmmti5aUvoxh/jkElA
9eu9sHsHWo0CBGn5ZgR/wnCq20Ey1LUkOrg9oUd5+MJ7XebvnSNphK2FlXLTP0A2
47bYKJUG+56K+v0uf47+eV08IxBLxYc0kLc/+yG/W4Nz3klbjxDO4WCLgV6SEXy9
2aYZ7a33Q6shYs6AVFiiXpcGhCwgW9xTbyVlrGmXN0dGWMM54pJxZ6VCKx0p/dcF
7uztBaFvqYLPq8ZA4DX11ooWfIDqv9eq/qzcpbibT6CleRJC55AXS+esT+VRoYaX
fDRLE525Nhcto/s7c/F+Wvir2xfgoUwM3A6mjkqKHaniu3G+7q8fod3nxgOWk5hn
HwyjSdn1jGJFv8XpacDwoI41aiajcJD8+WtLDjnLTfzCiP8+3/CxzurLKMtD+DF8
1u5/cJ897niHeMi2Bf8yU2f8wfivZZ7lRpXolwfvgXtJ3ubIlD0lhk6KV/sUp/2J
p7lmyg8OfeLqaYzoEe7zkQ+4XpRX+33oTDgMvbCNx4wL15PTZ6DMukBw0tJhM9Uk
TYx4lQIDAQABo4IBazCCAWcwCQYDVR0TBAIwADAtBglghkgBhvhCAQ0EIBYeRWFz
eS1SU0EgR2VuZXJhdGVkIENlcnRpZmljYXRlMB0GA1UdDgQWBBS2MHlp0Oq1qBlP
TC7UyG8aDutQdjCB6QYDVR0jBIHhMIHegBTvOI0UUFinW02cF3L837msp1GwEKGB
uqSBtzCBtDELMAkGA1UEBhMCVVMxCzAJBgNVBAgTAkNBMRUwEwYDVQQHEwxTYW5G
cmFuY2lzY28xFTATBgNVBAoTDFBpeGdsbywgSW5jLjEQMA4GA1UECxMHVlBOLUNJ
RTEaMBgGA1UEAxMRdHVubmVsLnBpeGdsby5jb20xHDAaBgNVBCkTE0JhbGEgQ2hh
bmRyYXNla2FyYW4xHjAcBgkqhkiG9w0BCQEWD2JhbGFAcGl4Z2xvLmNvbYIJAKbb
xoOA5qB5MBMGA1UdJQQMMAoGCCsGAQUFBwMCMAsGA1UdDwQEAwIHgDANBgkqhkiG
9w0BAQUFAAOCAgEAguZjiRoDHkcP6GeeViCefu4/nagKTfXqAuQGJktYkdb3hSUD
Cyj/EJv7HTK0KB6chfw2IQcQj5hq3QuHoCQWtTmdLiPvChqOgOH24JjWGBI7OKZY
PSxBbIc0auaDAMerRDed7EwriOH5F6ZFOoKQfWYR9b8K9yDpb7ZFEvs5tijWF0u/
6SKxzUYQAdJsoNQsraEt0jOpkDi/PxH9jfoCt7MDbmjwV0TaghNbmJTUn8MUBE6Y
lbVavBcEfEqdW6E84lY+9jjY9bGd01Rb4K6df7FOMrZLyvCDcY1mtvgbVhiN0imJ
r1YZat+CgI/c0moOwqJ4evFkHshtT6M7YNBHlTparCdbpWY/wqFqCk4pjdl3+nLL
eJyu75eNL4MADNsWJRCK3Zz5HdXYOyUyyNwk17NlL+O2+NUrh85/hnUfZTYQZ6VB
wjwU2Yf8iCXrDoQLY+ZoIfxnKYAcjxTE9DaCySIO9ZkL+1/JB9FxRR5J08qEJUkV
Ejvgg70WF+k/qBREBLiYy3tlGwnWKrhXX1SIl6GErqmGawleHh58zYQgYiPOH9hF
pNVMSDd52kpzh2udgzyACr3seuJYimpn578lWWizYMTAt7IiUwsSZJsi+D+Lx0+0
432k2FbiFe/vIsFJNNvf3ry+7g40uricwLYpfbj9gVQQZuA3LFyYITB5M7M=
-----END CERTIFICATE-----
