Certificate:
    Data:
        Version: 3 (0x2)
        Serial Number: 591 (0x24f)
    Signature Algorithm: sha1WithRSAEncryption
        Issuer: C=US, ST=CA, L=SanFrancisco, O=Pixglo, Inc., OU=VPN-CIE, CN=tunnel.pixglo.com/name=Bala Chandrasekaran/emailAddress=bala@pixglo.com
        Validity
            Not Before: Feb 14 06:37:50 2018 GMT
            Not After : Feb 12 06:37:50 2028 GMT
        Subject: C=US, ST=CA, L=SanFrancisco, O=Pixglo, Inc., OU=VPN-CIE, CN=cie590/name=Bala Chandrasekaran/emailAddress=bala@pixglo.com
        Subject Public Key Info:
            Public Key Algorithm: rsaEncryption
                Public-Key: (4096 bit)
                Modulus:
                    00:d2:88:b6:ca:03:2b:69:58:dd:57:42:55:bc:1e:
                    b6:2a:7b:55:25:c8:e4:f6:c1:8b:9e:2f:85:58:06:
                    1d:1f:96:48:8d:43:4e:40:14:fb:f4:d1:1f:79:e3:
                    71:34:d4:29:40:64:b9:ca:34:dd:20:cd:ca:4d:f3:
                    3c:c2:1a:db:02:dc:5d:7b:b0:17:ba:91:31:b2:c2:
                    b0:25:28:4a:5c:c4:11:7d:42:e3:5e:fb:c9:15:e2:
                    34:bc:08:11:19:97:ff:ad:6f:ef:f5:8b:16:59:27:
                    47:b8:84:e9:58:8c:ac:a3:0a:10:94:f9:1e:f8:62:
                    fe:fb:5b:1b:6c:3d:f7:68:c8:d3:48:52:8e:b8:d2:
                    a3:7d:3d:0b:61:be:02:24:d4:ac:5f:27:b1:81:0a:
                    ed:9f:f3:37:65:ee:59:11:78:d6:5c:38:9c:f1:7a:
                    27:d3:d1:1f:f1:7b:76:84:44:3a:14:f5:c1:8d:af:
                    89:6f:b6:b6:d8:b8:6f:9d:5d:12:77:3d:94:64:da:
                    46:60:45:22:8f:49:c5:13:c2:f4:f9:8c:de:c7:ec:
                    51:1a:f8:95:b4:65:14:57:58:1a:11:2a:1e:7c:8e:
                    03:1c:ae:d4:a6:52:35:1b:17:13:3e:ec:83:f8:12:
                    93:53:58:00:91:82:56:22:88:33:61:20:84:69:15:
                    f4:e1:69:d0:f0:a6:37:6e:35:58:52:ef:a8:d7:f1:
                    97:44:da:d2:d4:bc:e1:e4:45:54:54:9e:2f:d1:e0:
                    5f:cd:a0:d5:4c:dc:e9:b1:8b:72:a1:6e:38:59:91:
                    c3:91:93:e2:99:96:07:ea:8e:81:52:c8:13:3c:aa:
                    20:d2:2d:54:fe:d7:93:7a:9f:ae:f5:83:3f:3a:f3:
                    f0:0e:65:d4:4d:69:a5:74:4a:40:9f:55:de:2c:f7:
                    f6:9c:64:64:7d:25:5b:77:e2:1d:2b:b6:85:bb:99:
                    81:2e:f0:38:fe:cf:7c:bf:56:39:c7:20:9f:38:9e:
                    86:e6:51:f7:85:5f:bf:64:c2:07:4c:f5:0b:96:4f:
                    99:de:b6:6e:27:0f:d6:3f:e9:01:dd:1a:5c:d8:e9:
                    31:23:9e:ee:02:45:16:1b:0e:ee:74:e9:48:bc:f4:
                    c4:b0:ea:90:de:f5:9e:70:6d:bb:a2:8c:98:85:22:
                    7c:3f:61:f2:39:cf:a9:6d:b5:0e:e2:66:14:43:1d:
                    91:40:49:c6:fc:d5:75:98:e7:64:7a:2e:76:fd:35:
                    5c:4f:1c:72:d8:7a:fc:f8:4e:26:23:98:4b:68:ec:
                    da:9c:12:22:17:d4:2e:24:48:52:6c:f2:a4:df:e4:
                    b9:a7:8b:92:f4:5c:61:f6:fc:a8:3e:62:5b:ed:80:
                    54:4a:63
                Exponent: 65537 (0x10001)
        X509v3 extensions:
            X509v3 Basic Constraints: 
                CA:FALSE
            Netscape Comment: 
                Easy-RSA Generated Certificate
            X509v3 Subject Key Identifier: 
                C5:73:6D:32:52:E5:56:EB:54:FD:1B:46:31:94:FE:A6:48:BF:38:E7
            X509v3 Authority Key Identifier: 
                keyid:EF:38:8D:14:50:58:A7:5B:4D:9C:17:72:FC:DF:B9:AC:A7:51:B0:10
                DirName:/C=US/ST=CA/L=SanFrancisco/O=Pixglo, Inc./OU=VPN-CIE/CN=tunnel.pixglo.com/name=Bala Chandrasekaran/emailAddress=bala@pixglo.com
                serial:A6:DB:C6:83:80:E6:A0:79

            X509v3 Extended Key Usage: 
                TLS Web Client Authentication
            X509v3 Key Usage: 
                Digital Signature
    Signature Algorithm: sha1WithRSAEncryption
         14:80:d0:e2:22:12:30:53:95:a5:78:f7:bb:f5:93:b0:d5:d0:
         5c:cb:aa:7b:60:d5:ea:42:5e:32:6a:45:01:94:bb:c4:8d:10:
         dd:8d:61:7e:06:cb:0c:a7:b7:cd:92:35:01:7d:6b:ac:ec:50:
         f3:18:e6:f3:3e:96:0b:7f:c8:de:60:97:0d:1d:4c:7f:0a:64:
         63:9c:13:c7:34:ab:4c:4f:db:83:bf:99:22:5e:15:b1:5a:40:
         a2:ff:ed:e8:47:ea:86:22:b8:c5:36:46:01:80:73:7a:2f:ae:
         ac:56:fa:69:b3:3a:c0:82:5e:60:13:e8:9c:a8:ed:0a:f6:50:
         6e:35:d6:ad:6a:1c:4e:2a:f9:50:d7:52:fc:78:7e:65:34:2b:
         97:09:89:43:06:3e:b1:9b:14:c6:a4:e4:fc:2d:da:2a:66:f9:
         7d:d4:9b:34:23:75:b5:d4:09:80:e2:67:b3:5d:cf:70:cc:2f:
         b0:86:39:4e:e1:aa:56:43:cb:b7:80:7c:57:76:7e:36:74:29:
         df:86:1a:63:a3:26:c8:f9:17:c1:f5:e2:fa:db:0b:b9:55:af:
         8b:75:55:2d:72:a1:b8:bd:05:34:e6:13:dd:c3:41:f1:2e:3b:
         7e:e5:d7:e8:86:94:00:6f:bb:14:10:70:9b:79:43:0d:65:c9:
         78:a4:80:5d:ad:a3:a5:8e:8c:3e:60:63:11:b6:e6:e8:75:5f:
         6c:b4:d4:a1:50:fb:a9:f6:01:76:3d:ec:a3:10:ca:42:2e:44:
         4d:69:a3:0b:a1:37:28:3e:f1:dc:03:e8:30:5f:0e:54:9a:ff:
         8c:24:7c:35:2f:d3:c2:ca:1e:37:c9:3b:c6:78:1a:b1:12:ff:
         f8:53:a4:d2:ff:ef:f1:95:71:4c:75:66:2b:e5:2c:0a:f1:85:
         ee:29:2f:fb:51:af:c1:c0:eb:1f:d9:92:19:44:51:89:98:39:
         aa:7c:2e:07:61:02:29:17:57:c6:0b:fd:af:c7:1e:b1:9e:04:
         7f:06:35:71:58:cc:35:77:64:15:dc:85:60:80:a6:96:dc:f9:
         fe:20:1a:c3:ab:13:c9:55:29:13:d0:78:ef:7c:dd:6c:2c:73:
         f1:01:46:d1:4e:03:6d:84:ee:1a:95:52:27:bd:ea:c4:25:2c:
         9b:7f:c3:a1:ae:2f:3d:91:32:ea:5f:b2:8e:9d:8a:b9:44:ad:
         a1:f7:8d:cf:d3:d1:35:75:50:3e:56:a3:aa:86:19:9b:ae:9a:
         5e:61:b3:e7:cf:01:d3:ec:e8:9e:6b:b8:8b:e3:f7:9a:44:95:
         f2:46:f9:08:83:55:e5:41:65:cc:10:3d:3d:b1:15:87:a8:3a:
         82:a4:d2:6e:6e:16:81:16
-----BEGIN CERTIFICATE-----
MIIHSDCCBTCgAwIBAgICAk8wDQYJKoZIhvcNAQEFBQAwgbQxCzAJBgNVBAYTAlVT
MQswCQYDVQQIEwJDQTEVMBMGA1UEBxMMU2FuRnJhbmNpc2NvMRUwEwYDVQQKEwxQ
aXhnbG8sIEluYy4xEDAOBgNVBAsTB1ZQTi1DSUUxGjAYBgNVBAMTEXR1bm5lbC5w
aXhnbG8uY29tMRwwGgYDVQQpExNCYWxhIENoYW5kcmFzZWthcmFuMR4wHAYJKoZI
hvcNAQkBFg9iYWxhQHBpeGdsby5jb20wHhcNMTgwMjE0MDYzNzUwWhcNMjgwMjEy
MDYzNzUwWjCBqTELMAkGA1UEBhMCVVMxCzAJBgNVBAgTAkNBMRUwEwYDVQQHEwxT
YW5GcmFuY2lzY28xFTATBgNVBAoTDFBpeGdsbywgSW5jLjEQMA4GA1UECxMHVlBO
LUNJRTEPMA0GA1UEAxMGY2llNTkwMRwwGgYDVQQpExNCYWxhIENoYW5kcmFzZWth
cmFuMR4wHAYJKoZIhvcNAQkBFg9iYWxhQHBpeGdsby5jb20wggIiMA0GCSqGSIb3
DQEBAQUAA4ICDwAwggIKAoICAQDSiLbKAytpWN1XQlW8HrYqe1UlyOT2wYueL4VY
Bh0flkiNQ05AFPv00R9543E01ClAZLnKNN0gzcpN8zzCGtsC3F17sBe6kTGywrAl
KEpcxBF9QuNe+8kV4jS8CBEZl/+tb+/1ixZZJ0e4hOlYjKyjChCU+R74Yv77Wxts
PfdoyNNIUo640qN9PQthvgIk1KxfJ7GBCu2f8zdl7lkReNZcOJzxeifT0R/xe3aE
RDoU9cGNr4lvtrbYuG+dXRJ3PZRk2kZgRSKPScUTwvT5jN7H7FEa+JW0ZRRXWBoR
Kh58jgMcrtSmUjUbFxM+7IP4EpNTWACRglYiiDNhIIRpFfThadDwpjduNVhS76jX
8ZdE2tLUvOHkRVRUni/R4F/NoNVM3Omxi3KhbjhZkcORk+KZlgfqjoFSyBM8qiDS
LVT+15N6n671gz868/AOZdRNaaV0SkCfVd4s9/acZGR9JVt34h0rtoW7mYEu8Dj+
z3y/VjnHIJ84nobmUfeFX79kwgdM9QuWT5netm4nD9Y/6QHdGlzY6TEjnu4CRRYb
Du506Ui89MSw6pDe9Z5wbbuijJiFInw/YfI5z6lttQ7iZhRDHZFAScb81XWY52R6
Lnb9NVxPHHLYevz4TiYjmEto7NqcEiIX1C4kSFJs8qTf5Lmni5L0XGH2/Kg+Ylvt
gFRKYwIDAQABo4IBazCCAWcwCQYDVR0TBAIwADAtBglghkgBhvhCAQ0EIBYeRWFz
eS1SU0EgR2VuZXJhdGVkIENlcnRpZmljYXRlMB0GA1UdDgQWBBTFc20yUuVW61T9
G0YxlP6mSL845zCB6QYDVR0jBIHhMIHegBTvOI0UUFinW02cF3L837msp1GwEKGB
uqSBtzCBtDELMAkGA1UEBhMCVVMxCzAJBgNVBAgTAkNBMRUwEwYDVQQHEwxTYW5G
cmFuY2lzY28xFTATBgNVBAoTDFBpeGdsbywgSW5jLjEQMA4GA1UECxMHVlBOLUNJ
RTEaMBgGA1UEAxMRdHVubmVsLnBpeGdsby5jb20xHDAaBgNVBCkTE0JhbGEgQ2hh
bmRyYXNla2FyYW4xHjAcBgkqhkiG9w0BCQEWD2JhbGFAcGl4Z2xvLmNvbYIJAKbb
xoOA5qB5MBMGA1UdJQQMMAoGCCsGAQUFBwMCMAsGA1UdDwQEAwIHgDANBgkqhkiG
9w0BAQUFAAOCAgEAFIDQ4iISMFOVpXj3u/WTsNXQXMuqe2DV6kJeMmpFAZS7xI0Q
3Y1hfgbLDKe3zZI1AX1rrOxQ8xjm8z6WC3/I3mCXDR1MfwpkY5wTxzSrTE/bg7+Z
Il4VsVpAov/t6EfqhiK4xTZGAYBzei+urFb6abM6wIJeYBPonKjtCvZQbjXWrWoc
Tir5UNdS/Hh+ZTQrlwmJQwY+sZsUxqTk/C3aKmb5fdSbNCN1tdQJgOJns13PcMwv
sIY5TuGqVkPLt4B8V3Z+NnQp34YaY6MmyPkXwfXi+tsLuVWvi3VVLXKhuL0FNOYT
3cNB8S47fuXX6IaUAG+7FBBwm3lDDWXJeKSAXa2jpY6MPmBjEbbm6HVfbLTUoVD7
qfYBdj3soxDKQi5ETWmjC6E3KD7x3APoMF8OVJr/jCR8NS/TwsoeN8k7xngasRL/
+FOk0v/v8ZVxTHVmK+UsCvGF7ikv+1GvwcDrH9mSGURRiZg5qnwuB2ECKRdXxgv9
r8cesZ4EfwY1cVjMNXdkFdyFYICmltz5/iAaw6sTyVUpE9B473zdbCxz8QFG0U4D
bYTuGpVSJ73qxCUsm3/Doa4vPZEy6l+yjp2KuUStofeNz9PRNXVQPlajqoYZm66a
XmGz588B0+zonmu4i+P3mkSV8kb5CINV5UFlzBA9PbEVh6g6gqTSbm4WgRY=
-----END CERTIFICATE-----
