Certificate:
    Data:
        Version: 3 (0x2)
        Serial Number: 593 (0x251)
    Signature Algorithm: sha1WithRSAEncryption
        Issuer: C=US, ST=CA, L=SanFrancisco, O=Pixglo, Inc., OU=VPN-CIE, CN=tunnel.pixglo.com/name=Bala Chandrasekaran/emailAddress=bala@pixglo.com
        Validity
            Not Before: Feb 14 06:37:52 2018 GMT
            Not After : Feb 12 06:37:52 2028 GMT
        Subject: C=US, ST=CA, L=SanFrancisco, O=Pixglo, Inc., OU=VPN-CIE, CN=cie592/name=Bala Chandrasekaran/emailAddress=bala@pixglo.com
        Subject Public Key Info:
            Public Key Algorithm: rsaEncryption
                Public-Key: (4096 bit)
                Modulus:
                    00:be:b7:85:ce:19:bd:96:52:7a:67:78:3f:41:fc:
                    20:4a:4b:88:da:4e:f7:7e:9e:fb:01:b6:c3:e5:19:
                    e4:79:68:7c:15:62:33:94:fe:78:7b:01:16:f8:be:
                    53:b7:7b:9c:74:e5:51:cf:25:1b:e5:0c:17:9d:24:
                    23:88:2b:3b:8e:19:67:8a:e5:56:1d:6a:08:bd:7b:
                    97:f3:28:4c:cb:3e:60:3d:9f:58:47:d3:57:56:d4:
                    27:33:81:6e:3f:b1:94:11:99:09:e4:6d:da:7b:d0:
                    0b:27:9c:fe:83:fa:91:ee:0e:35:0f:bb:02:2b:a3:
                    cb:d6:d7:28:d0:b2:a6:f7:e2:5a:c5:54:44:24:d1:
                    72:fa:e4:46:b0:39:a7:33:2f:3c:fb:66:1e:59:3e:
                    63:f7:11:4b:38:58:b0:48:6f:49:f5:b9:5e:7a:0e:
                    66:27:01:9e:e3:0c:a3:1d:52:d1:7b:67:6d:53:27:
                    53:fd:a5:b1:fb:8e:2e:c9:9c:9a:66:b6:53:c7:aa:
                    40:99:68:85:73:22:41:d1:e2:a0:a9:99:e4:86:46:
                    f3:79:1e:03:c1:c8:1e:22:4f:97:1f:56:02:c2:e5:
                    c6:52:db:46:4c:a5:78:9f:70:22:3b:85:00:6a:7b:
                    9e:4f:e0:59:ff:74:c8:43:68:9d:e0:f1:f0:f0:ec:
                    02:7e:b0:74:dc:f9:9c:99:49:1e:83:18:56:1a:5e:
                    73:be:ca:e7:67:a2:30:35:80:ca:17:3b:1c:3f:f0:
                    5a:5d:89:09:a2:d1:8d:0b:62:8a:cb:1e:e5:bb:f2:
                    9c:7b:de:59:7b:27:5b:5e:45:9f:3a:1e:03:0f:c7:
                    d5:a6:f1:db:14:1e:d4:1f:d7:7d:a9:b0:19:07:b5:
                    8d:4d:6e:1b:61:3a:24:1e:87:40:a9:a7:19:c3:b7:
                    06:1f:e5:93:3b:15:27:8e:7e:d7:29:3e:cb:12:cc:
                    cf:dd:23:b6:7c:9b:2e:58:66:32:91:35:8e:0b:5b:
                    94:9d:a7:b3:ac:f0:35:2d:4e:0f:09:2b:ac:6d:23:
                    c9:eb:20:18:37:f4:37:cb:f1:a9:67:08:88:bc:c9:
                    f7:0a:d9:0a:4f:04:8b:9b:4e:fa:c5:38:f5:ce:f5:
                    4b:ff:55:d7:92:41:5d:d2:5e:71:c2:40:51:61:fc:
                    f4:96:55:aa:2e:cc:32:6b:a2:87:0b:a9:42:50:a4:
                    02:91:8d:6e:5c:fc:af:ec:d2:e2:0d:b4:85:61:b2:
                    2c:7f:c0:49:1d:62:14:6c:c9:76:90:08:01:6c:9a:
                    5c:0f:c8:d9:67:e1:9f:5d:07:c4:cf:27:3d:c9:5c:
                    ed:01:7b:f5:e1:18:31:58:58:7f:e2:78:76:79:42:
                    96:f3:1f
                Exponent: 65537 (0x10001)
        X509v3 extensions:
            X509v3 Basic Constraints: 
                CA:FALSE
            Netscape Comment: 
                Easy-RSA Generated Certificate
            X509v3 Subject Key Identifier: 
                52:4C:9B:D9:CF:4E:E4:4C:D1:E2:B7:FD:0D:AA:D1:B2:B5:9C:B4:11
            X509v3 Authority Key Identifier: 
                keyid:EF:38:8D:14:50:58:A7:5B:4D:9C:17:72:FC:DF:B9:AC:A7:51:B0:10
                DirName:/C=US/ST=CA/L=SanFrancisco/O=Pixglo, Inc./OU=VPN-CIE/CN=tunnel.pixglo.com/name=Bala Chandrasekaran/emailAddress=bala@pixglo.com
                serial:A6:DB:C6:83:80:E6:A0:79

            X509v3 Extended Key Usage: 
                TLS Web Client Authentication
            X509v3 Key Usage: 
                Digital Signature
    Signature Algorithm: sha1WithRSAEncryption
         55:c4:51:67:b9:e3:59:bb:31:8c:23:14:51:f3:8a:b6:41:f3:
         92:c1:34:63:30:fb:70:f4:43:4f:b8:e3:d5:e1:9b:4e:28:2f:
         2a:a8:dd:bd:75:69:59:ca:e5:64:de:6e:a6:2d:54:a0:3f:c9:
         49:d3:50:89:81:cc:b7:2c:33:c1:4f:bf:1f:32:91:8d:ae:86:
         bc:92:88:d2:9a:23:2d:15:e0:53:03:98:ba:ae:79:53:9f:dc:
         49:0f:eb:d5:33:b4:a2:34:1e:f5:26:ae:9c:c6:f6:4b:13:6c:
         68:fc:7e:b6:bc:fb:a3:37:34:c0:4d:52:de:6c:92:72:8f:80:
         b3:53:a5:3f:7f:26:bd:3f:57:51:7e:72:b7:3e:29:e3:7b:d6:
         20:44:03:b1:47:5e:60:38:a6:cd:52:63:cd:09:20:9e:a8:ad:
         e6:90:d7:ef:62:eb:a3:08:59:81:ba:0e:09:c3:c1:e5:83:be:
         ad:5d:12:9b:e3:6c:c3:bd:f7:f8:c4:65:a3:01:7d:be:fe:de:
         2f:9f:52:0e:a6:af:d8:ff:69:58:ac:91:30:8a:ba:fd:0b:a4:
         be:63:7f:1a:a3:ff:50:c9:77:4d:93:5b:d5:22:d5:e0:b6:b4:
         b3:d3:39:64:cc:ff:c4:8e:05:5d:3e:a0:e3:e5:ec:42:0b:12:
         b1:61:db:34:f9:21:7a:a2:c9:39:f6:16:2b:d4:bd:34:22:5e:
         5d:6a:e0:c8:2f:55:69:ba:4d:73:4f:f4:8b:5f:32:0f:8b:0c:
         12:97:cf:ae:56:b9:f6:16:1b:be:f2:25:7b:29:8e:2f:ba:d4:
         9a:c3:31:42:b4:7c:17:1c:0a:b8:b0:f2:db:e8:5a:17:89:d8:
         80:8d:fc:26:47:5b:1c:3b:28:c2:90:8a:b8:f4:0b:e5:a2:81:
         d8:86:f4:67:3f:2a:e7:c6:7b:d1:76:9c:81:26:56:25:ac:e1:
         dc:47:7f:ac:72:a7:6e:2e:88:c6:56:fe:3e:7f:6d:02:24:ed:
         f8:c6:fd:55:8f:2d:80:d7:59:e9:34:d5:d7:78:83:73:55:10:
         3e:06:89:c4:68:67:ec:b3:fb:2b:f7:3d:ff:17:f8:ac:d9:c9:
         e1:d4:b3:de:3d:bb:d2:f1:81:5f:8e:d1:4d:02:f5:7e:8a:9f:
         83:93:de:ba:68:6c:57:e6:1b:04:be:9f:c7:c7:45:bc:17:5f:
         88:60:42:42:f5:ff:90:cf:e1:08:be:60:34:94:55:de:6f:50:
         15:6a:c3:86:73:2d:6c:1a:94:74:be:98:6d:be:b7:bf:e3:a1:
         89:eb:66:49:51:41:b1:84:0d:10:68:28:95:a0:4f:1c:7d:d3:
         65:12:ba:a6:fb:93:c4:0a
-----BEGIN CERTIFICATE-----
MIIHSDCCBTCgAwIBAgICAlEwDQYJKoZIhvcNAQEFBQAwgbQxCzAJBgNVBAYTAlVT
MQswCQYDVQQIEwJDQTEVMBMGA1UEBxMMU2FuRnJhbmNpc2NvMRUwEwYDVQQKEwxQ
aXhnbG8sIEluYy4xEDAOBgNVBAsTB1ZQTi1DSUUxGjAYBgNVBAMTEXR1bm5lbC5w
aXhnbG8uY29tMRwwGgYDVQQpExNCYWxhIENoYW5kcmFzZWthcmFuMR4wHAYJKoZI
hvcNAQkBFg9iYWxhQHBpeGdsby5jb20wHhcNMTgwMjE0MDYzNzUyWhcNMjgwMjEy
MDYzNzUyWjCBqTELMAkGA1UEBhMCVVMxCzAJBgNVBAgTAkNBMRUwEwYDVQQHEwxT
YW5GcmFuY2lzY28xFTATBgNVBAoTDFBpeGdsbywgSW5jLjEQMA4GA1UECxMHVlBO
LUNJRTEPMA0GA1UEAxMGY2llNTkyMRwwGgYDVQQpExNCYWxhIENoYW5kcmFzZWth
cmFuMR4wHAYJKoZIhvcNAQkBFg9iYWxhQHBpeGdsby5jb20wggIiMA0GCSqGSIb3
DQEBAQUAA4ICDwAwggIKAoICAQC+t4XOGb2WUnpneD9B/CBKS4jaTvd+nvsBtsPl
GeR5aHwVYjOU/nh7ARb4vlO3e5x05VHPJRvlDBedJCOIKzuOGWeK5VYdagi9e5fz
KEzLPmA9n1hH01dW1CczgW4/sZQRmQnkbdp70AsnnP6D+pHuDjUPuwIro8vW1yjQ
sqb34lrFVEQk0XL65EawOaczLzz7Zh5ZPmP3EUs4WLBIb0n1uV56DmYnAZ7jDKMd
UtF7Z21TJ1P9pbH7ji7JnJpmtlPHqkCZaIVzIkHR4qCpmeSGRvN5HgPByB4iT5cf
VgLC5cZS20ZMpXifcCI7hQBqe55P4Fn/dMhDaJ3g8fDw7AJ+sHTc+ZyZSR6DGFYa
XnO+yudnojA1gMoXOxw/8FpdiQmi0Y0LYorLHuW78px73ll7J1teRZ86HgMPx9Wm
8dsUHtQf132psBkHtY1NbhthOiQeh0CppxnDtwYf5ZM7FSeOftcpPssSzM/dI7Z8
my5YZjKRNY4LW5Sdp7Os8DUtTg8JK6xtI8nrIBg39DfL8alnCIi8yfcK2QpPBIub
TvrFOPXO9Uv/VdeSQV3SXnHCQFFh/PSWVaouzDJroocLqUJQpAKRjW5c/K/s0uIN
tIVhsix/wEkdYhRsyXaQCAFsmlwPyNln4Z9dB8TPJz3JXO0Be/XhGDFYWH/ieHZ5
QpbzHwIDAQABo4IBazCCAWcwCQYDVR0TBAIwADAtBglghkgBhvhCAQ0EIBYeRWFz
eS1SU0EgR2VuZXJhdGVkIENlcnRpZmljYXRlMB0GA1UdDgQWBBRSTJvZz07kTNHi
t/0NqtGytZy0ETCB6QYDVR0jBIHhMIHegBTvOI0UUFinW02cF3L837msp1GwEKGB
uqSBtzCBtDELMAkGA1UEBhMCVVMxCzAJBgNVBAgTAkNBMRUwEwYDVQQHEwxTYW5G
cmFuY2lzY28xFTATBgNVBAoTDFBpeGdsbywgSW5jLjEQMA4GA1UECxMHVlBOLUNJ
RTEaMBgGA1UEAxMRdHVubmVsLnBpeGdsby5jb20xHDAaBgNVBCkTE0JhbGEgQ2hh
bmRyYXNla2FyYW4xHjAcBgkqhkiG9w0BCQEWD2JhbGFAcGl4Z2xvLmNvbYIJAKbb
xoOA5qB5MBMGA1UdJQQMMAoGCCsGAQUFBwMCMAsGA1UdDwQEAwIHgDANBgkqhkiG
9w0BAQUFAAOCAgEAVcRRZ7njWbsxjCMUUfOKtkHzksE0YzD7cPRDT7jj1eGbTigv
KqjdvXVpWcrlZN5upi1UoD/JSdNQiYHMtywzwU+/HzKRja6GvJKI0pojLRXgUwOY
uq55U5/cSQ/r1TO0ojQe9SaunMb2SxNsaPx+trz7ozc0wE1S3mySco+As1OlP38m
vT9XUX5ytz4p43vWIEQDsUdeYDimzVJjzQkgnqit5pDX72LrowhZgboOCcPB5YO+
rV0Sm+Nsw733+MRlowF9vv7eL59SDqav2P9pWKyRMIq6/QukvmN/GqP/UMl3TZNb
1SLV4La0s9M5ZMz/xI4FXT6g4+XsQgsSsWHbNPkheqLJOfYWK9S9NCJeXWrgyC9V
abpNc0/0i18yD4sMEpfPrla59hYbvvIleymOL7rUmsMxQrR8FxwKuLDy2+haF4nY
gI38JkdbHDsowpCKuPQL5aKB2Ib0Zz8q58Z70XacgSZWJazh3Ed/rHKnbi6Ixlb+
Pn9tAiTt+Mb9VY8tgNdZ6TTV13iDc1UQPgaJxGhn7LP7K/c9/xf4rNnJ4dSz3j27
0vGBX47RTQL1foqfg5PeumhsV+YbBL6fx8dFvBdfiGBCQvX/kM/hCL5gNJRV3m9Q
FWrDhnMtbBqUdL6Ybb63v+OhietmSVFBsYQNEGgolaBPHH3TZRK6pvuTxAo=
-----END CERTIFICATE-----
