Certificate:
    Data:
        Version: 3 (0x2)
        Serial Number: 594 (0x252)
    Signature Algorithm: sha1WithRSAEncryption
        Issuer: C=US, ST=CA, L=SanFrancisco, O=Pixglo, Inc., OU=VPN-CIE, CN=tunnel.pixglo.com/name=Bala Chandrasekaran/emailAddress=bala@pixglo.com
        Validity
            Not Before: Feb 14 06:37:55 2018 GMT
            Not After : Feb 12 06:37:55 2028 GMT
        Subject: C=US, ST=CA, L=SanFrancisco, O=Pixglo, Inc., OU=VPN-CIE, CN=cie593/name=Bala Chandrasekaran/emailAddress=bala@pixglo.com
        Subject Public Key Info:
            Public Key Algorithm: rsaEncryption
                Public-Key: (4096 bit)
                Modulus:
                    00:ae:d8:b8:39:fd:94:e5:2a:b4:0c:9f:b3:86:b8:
                    b5:59:24:ea:9e:1c:3a:65:2b:38:66:db:d4:03:d2:
                    59:51:ab:04:2e:a3:bd:c9:e4:e4:a5:32:29:58:cd:
                    25:30:a2:c5:62:0e:1d:6e:79:37:c5:f5:93:96:e3:
                    db:4e:a7:6d:d1:8a:25:8c:b3:1e:01:ef:82:19:5c:
                    ca:91:aa:94:b4:bf:2f:6a:3a:ef:52:e7:4a:fe:73:
                    c0:f4:96:f1:9d:29:aa:71:5d:1a:dc:33:66:78:1c:
                    a9:6a:e8:65:cc:98:09:7b:ab:fb:04:b4:25:be:a8:
                    40:90:d1:1e:1a:53:58:42:d5:51:ec:6d:7d:bb:0c:
                    5e:65:27:e7:0c:1a:13:66:bc:39:d8:04:bc:13:0e:
                    d3:71:86:b0:a9:30:85:7e:7f:9a:20:17:a8:fc:54:
                    64:3b:3a:2a:5d:c0:35:01:fa:b6:8f:66:c1:5a:e2:
                    ca:85:f3:be:7a:72:d0:61:d7:1f:a5:c0:79:d1:6f:
                    c3:e7:5a:34:91:ea:23:fa:2c:b3:5b:54:2b:3d:ec:
                    94:86:09:31:8e:41:5c:7e:25:7c:73:ca:26:7f:48:
                    73:fd:d8:3d:bb:88:9c:09:6e:55:87:36:c2:fc:97:
                    03:80:72:16:86:6b:4a:9a:55:48:7d:81:5f:14:07:
                    a1:0a:00:8f:ed:51:2a:4e:42:cf:fb:1c:a7:82:ef:
                    75:98:02:a4:22:59:31:e8:97:f3:4c:cd:e4:6d:fa:
                    e7:0a:9d:07:a8:31:3b:53:9d:40:cf:d6:93:29:47:
                    09:6c:27:9b:a0:b4:21:0c:24:71:e1:82:10:5e:ad:
                    fc:d6:2e:04:1d:0d:6c:58:21:a7:06:31:c9:6e:fc:
                    28:9b:16:26:ac:64:98:74:e6:87:c0:a1:de:70:f5:
                    7e:4c:d2:d8:32:37:e0:d2:e6:82:71:c0:94:7b:25:
                    8c:2c:13:f9:83:c3:9b:7f:1c:91:06:68:fb:c1:73:
                    4d:52:e8:a5:0c:3f:42:0b:1a:d3:ba:70:33:86:70:
                    e6:d2:2a:c0:c3:88:29:e4:ea:5f:23:d4:20:3a:7f:
                    35:4f:67:6c:03:55:f5:d5:c2:ae:6d:1f:45:f7:95:
                    5f:71:20:d5:82:7c:8f:30:55:0d:e9:33:c6:ab:38:
                    c8:7b:1a:0c:db:9d:d6:d3:6b:fb:ec:22:c5:0d:8a:
                    4c:e7:a6:8c:5d:78:2d:4e:d5:cb:33:f7:3d:cf:5d:
                    62:17:4d:1e:05:a4:3a:c7:ad:6f:99:2d:67:45:1f:
                    4d:e1:cd:b0:6b:98:a8:6d:37:b9:d3:a8:e4:44:b0:
                    84:22:6a:1f:46:b9:0b:e6:49:1e:36:63:9e:53:6c:
                    a6:93:5b
                Exponent: 65537 (0x10001)
        X509v3 extensions:
            X509v3 Basic Constraints: 
                CA:FALSE
            Netscape Comment: 
                Easy-RSA Generated Certificate
            X509v3 Subject Key Identifier: 
                D7:83:8C:7E:5E:47:21:0C:26:82:67:A0:BD:CC:8A:41:08:9B:3C:C8
            X509v3 Authority Key Identifier: 
                keyid:EF:38:8D:14:50:58:A7:5B:4D:9C:17:72:FC:DF:B9:AC:A7:51:B0:10
                DirName:/C=US/ST=CA/L=SanFrancisco/O=Pixglo, Inc./OU=VPN-CIE/CN=tunnel.pixglo.com/name=Bala Chandrasekaran/emailAddress=bala@pixglo.com
                serial:A6:DB:C6:83:80:E6:A0:79

            X509v3 Extended Key Usage: 
                TLS Web Client Authentication
            X509v3 Key Usage: 
                Digital Signature
    Signature Algorithm: sha1WithRSAEncryption
         17:b0:0b:9f:96:01:e5:8a:f5:ed:15:17:92:5f:2e:4c:f6:a3:
         28:f5:ac:b1:56:6d:8f:2a:5f:70:78:ad:b9:47:65:03:22:29:
         0f:21:92:54:f5:28:ab:7b:c6:80:b2:16:e2:d3:8d:6e:3e:f9:
         3f:b3:4d:7b:ed:fe:26:c7:24:01:24:a5:5b:84:f9:43:dc:d7:
         8f:bb:26:ec:6b:6d:02:f0:57:fa:dd:ca:a5:8b:a4:e2:a5:31:
         e2:aa:07:09:f2:4a:b3:0e:85:7c:f8:2f:50:03:75:3a:b2:07:
         fe:0a:99:2c:8a:92:90:40:9d:2e:82:26:f7:65:3b:be:14:b8:
         82:49:88:6d:55:98:04:a0:5c:63:1c:af:f8:05:9d:5c:ea:2f:
         5b:15:64:b6:ab:34:b2:cf:04:2d:c7:b3:97:93:0c:d3:ca:96:
         81:72:f6:45:33:c7:fa:ae:83:0a:ed:73:37:a1:0a:07:59:9e:
         08:9a:b8:c6:4e:c7:ae:8b:de:70:58:d7:d0:91:1e:8e:3a:9b:
         7e:9d:32:dd:70:57:4e:50:e7:cf:7f:1e:c4:42:1f:8e:5f:35:
         b3:ae:14:c5:f8:0b:92:74:01:04:a6:19:64:8c:9a:0c:d9:e1:
         99:66:10:e6:88:88:58:a3:93:62:92:40:ee:7f:dd:aa:26:a7:
         da:8d:c0:d0:3a:9b:58:f7:b2:18:a6:d7:81:4e:66:3c:b2:53:
         13:5d:ed:b9:c3:1e:52:c4:3e:98:f9:44:71:a5:f5:73:da:69:
         ef:bf:9f:23:65:da:dd:6d:1b:26:69:14:96:a3:ef:23:e9:62:
         47:16:4b:c3:05:2a:e6:b8:e6:36:25:e1:d8:86:48:c6:aa:7a:
         01:5d:a2:a1:41:ce:16:b0:8c:9a:3d:95:2d:84:71:b5:58:cd:
         28:cc:ce:6c:fa:b5:78:26:f4:8d:a5:37:00:4b:24:23:2c:13:
         84:26:ef:3e:8b:4f:e3:2f:43:af:e1:4c:07:67:ac:90:24:67:
         46:f4:c6:62:e5:a2:52:a1:0b:6f:1a:4f:f7:ae:bd:f5:1f:5c:
         22:9b:ad:ce:44:e6:ad:f4:2a:8d:7c:41:ab:46:fc:4f:79:bd:
         0c:d3:2e:62:d7:1b:50:13:f6:eb:13:bb:8e:91:d8:8f:a1:75:
         9c:cd:14:b0:b1:eb:7a:95:2f:e1:ef:99:3a:48:bd:3c:aa:f1:
         1c:05:c2:2c:f0:b1:37:75:f1:e7:f8:da:ab:09:af:e5:7d:39:
         ec:c9:9d:3f:99:64:3d:71:4e:40:68:59:31:9d:f1:4b:4b:99:
         d5:7f:20:0f:1b:d5:bc:12:2b:ff:28:05:fc:86:16:69:b7:d5:
         a9:8c:d1:eb:2f:7a:c7:85
-----BEGIN CERTIFICATE-----
MIIHSDCCBTCgAwIBAgICAlIwDQYJKoZIhvcNAQEFBQAwgbQxCzAJBgNVBAYTAlVT
MQswCQYDVQQIEwJDQTEVMBMGA1UEBxMMU2FuRnJhbmNpc2NvMRUwEwYDVQQKEwxQ
aXhnbG8sIEluYy4xEDAOBgNVBAsTB1ZQTi1DSUUxGjAYBgNVBAMTEXR1bm5lbC5w
aXhnbG8uY29tMRwwGgYDVQQpExNCYWxhIENoYW5kcmFzZWthcmFuMR4wHAYJKoZI
hvcNAQkBFg9iYWxhQHBpeGdsby5jb20wHhcNMTgwMjE0MDYzNzU1WhcNMjgwMjEy
MDYzNzU1WjCBqTELMAkGA1UEBhMCVVMxCzAJBgNVBAgTAkNBMRUwEwYDVQQHEwxT
YW5GcmFuY2lzY28xFTATBgNVBAoTDFBpeGdsbywgSW5jLjEQMA4GA1UECxMHVlBO
LUNJRTEPMA0GA1UEAxMGY2llNTkzMRwwGgYDVQQpExNCYWxhIENoYW5kcmFzZWth
cmFuMR4wHAYJKoZIhvcNAQkBFg9iYWxhQHBpeGdsby5jb20wggIiMA0GCSqGSIb3
DQEBAQUAA4ICDwAwggIKAoICAQCu2Lg5/ZTlKrQMn7OGuLVZJOqeHDplKzhm29QD
0llRqwQuo73J5OSlMilYzSUwosViDh1ueTfF9ZOW49tOp23RiiWMsx4B74IZXMqR
qpS0vy9qOu9S50r+c8D0lvGdKapxXRrcM2Z4HKlq6GXMmAl7q/sEtCW+qECQ0R4a
U1hC1VHsbX27DF5lJ+cMGhNmvDnYBLwTDtNxhrCpMIV+f5ogF6j8VGQ7OipdwDUB
+raPZsFa4sqF8756ctBh1x+lwHnRb8PnWjSR6iP6LLNbVCs97JSGCTGOQVx+JXxz
yiZ/SHP92D27iJwJblWHNsL8lwOAchaGa0qaVUh9gV8UB6EKAI/tUSpOQs/7HKeC
73WYAqQiWTHol/NMzeRt+ucKnQeoMTtTnUDP1pMpRwlsJ5ugtCEMJHHhghBerfzW
LgQdDWxYIacGMclu/CibFiasZJh05ofAod5w9X5M0tgyN+DS5oJxwJR7JYwsE/mD
w5t/HJEGaPvBc01S6KUMP0ILGtO6cDOGcObSKsDDiCnk6l8j1CA6fzVPZ2wDVfXV
wq5tH0X3lV9xINWCfI8wVQ3pM8arOMh7GgzbndbTa/vsIsUNikznpoxdeC1O1csz
9z3PXWIXTR4FpDrHrW+ZLWdFH03hzbBrmKhtN7nTqOREsIQiah9GuQvmSR42Y55T
bKaTWwIDAQABo4IBazCCAWcwCQYDVR0TBAIwADAtBglghkgBhvhCAQ0EIBYeRWFz
eS1SU0EgR2VuZXJhdGVkIENlcnRpZmljYXRlMB0GA1UdDgQWBBTXg4x+XkchDCaC
Z6C9zIpBCJs8yDCB6QYDVR0jBIHhMIHegBTvOI0UUFinW02cF3L837msp1GwEKGB
uqSBtzCBtDELMAkGA1UEBhMCVVMxCzAJBgNVBAgTAkNBMRUwEwYDVQQHEwxTYW5G
cmFuY2lzY28xFTATBgNVBAoTDFBpeGdsbywgSW5jLjEQMA4GA1UECxMHVlBOLUNJ
RTEaMBgGA1UEAxMRdHVubmVsLnBpeGdsby5jb20xHDAaBgNVBCkTE0JhbGEgQ2hh
bmRyYXNla2FyYW4xHjAcBgkqhkiG9w0BCQEWD2JhbGFAcGl4Z2xvLmNvbYIJAKbb
xoOA5qB5MBMGA1UdJQQMMAoGCCsGAQUFBwMCMAsGA1UdDwQEAwIHgDANBgkqhkiG
9w0BAQUFAAOCAgEAF7ALn5YB5Yr17RUXkl8uTPajKPWssVZtjypfcHituUdlAyIp
DyGSVPUoq3vGgLIW4tONbj75P7NNe+3+JsckASSlW4T5Q9zXj7sm7GttAvBX+t3K
pYuk4qUx4qoHCfJKsw6FfPgvUAN1OrIH/gqZLIqSkECdLoIm92U7vhS4gkmIbVWY
BKBcYxyv+AWdXOovWxVktqs0ss8ELcezl5MM08qWgXL2RTPH+q6DCu1zN6EKB1me
CJq4xk7HrovecFjX0JEejjqbfp0y3XBXTlDnz38exEIfjl81s64UxfgLknQBBKYZ
ZIyaDNnhmWYQ5oiIWKOTYpJA7n/dqian2o3A0DqbWPeyGKbXgU5mPLJTE13tucMe
UsQ+mPlEcaX1c9pp77+fI2Xa3W0bJmkUlqPvI+liRxZLwwUq5rjmNiXh2IZIxqp6
AV2ioUHOFrCMmj2VLYRxtVjNKMzObPq1eCb0jaU3AEskIywThCbvPotP4y9Dr+FM
B2eskCRnRvTGYuWiUqELbxpP96699R9cIputzkTmrfQqjXxBq0b8T3m9DNMuYtcb
UBP26xO7jpHYj6F1nM0UsLHrepUv4e+ZOki9PKrxHAXCLPCxN3Xx5/jaqwmv5X05
7MmdP5lkPXFOQGhZMZ3xS0uZ1X8gDxvVvBIr/ygF/IYWabfVqYzR6y96x4U=
-----END CERTIFICATE-----
