Certificate:
    Data:
        Version: 3 (0x2)
        Serial Number: 595 (0x253)
    Signature Algorithm: sha1WithRSAEncryption
        Issuer: C=US, ST=CA, L=SanFrancisco, O=Pixglo, Inc., OU=VPN-CIE, CN=tunnel.pixglo.com/name=Bala Chandrasekaran/emailAddress=bala@pixglo.com
        Validity
            Not Before: Feb 14 06:37:58 2018 GMT
            Not After : Feb 12 06:37:58 2028 GMT
        Subject: C=US, ST=CA, L=SanFrancisco, O=Pixglo, Inc., OU=VPN-CIE, CN=cie594/name=Bala Chandrasekaran/emailAddress=bala@pixglo.com
        Subject Public Key Info:
            Public Key Algorithm: rsaEncryption
                Public-Key: (4096 bit)
                Modulus:
                    00:a9:21:0a:5a:55:46:1b:1a:62:ae:15:c6:fb:15:
                    5a:af:e7:85:d3:b7:98:65:f0:d8:94:3a:c2:2a:a7:
                    61:99:5a:02:3f:22:88:b3:6c:d0:f4:2a:59:59:d2:
                    3c:27:8d:bc:7c:a4:6d:dc:89:1e:69:7b:73:48:73:
                    ab:0a:cd:53:dd:55:4a:a1:7d:4b:d3:e7:e6:61:2c:
                    58:e3:67:5f:e0:08:00:82:c8:f5:03:6e:c3:8d:f5:
                    cb:eb:d4:b1:57:18:a3:36:03:a5:b6:aa:8c:5c:1b:
                    23:1d:c3:eb:4f:b7:1b:d8:2b:b2:ec:61:fd:09:34:
                    47:c8:03:e8:72:92:b3:0b:f8:45:a5:eb:bc:e5:72:
                    00:33:dd:da:ea:1e:32:53:98:6b:0a:4b:47:51:bc:
                    cc:03:63:cf:f3:ac:41:61:3f:85:a2:38:27:33:fd:
                    d6:74:7e:5d:07:f5:c1:42:74:05:ee:40:77:1e:46:
                    95:e6:3d:cf:b1:d5:a4:40:4f:0e:8c:7e:b3:b6:b0:
                    fe:28:92:f6:e8:96:b6:ca:95:58:66:2d:be:02:36:
                    8f:8d:08:01:5a:f1:2a:77:0c:4d:4c:ff:3f:14:30:
                    87:3f:1e:8b:24:7e:a6:f5:c7:fd:f4:58:dd:62:9a:
                    32:81:ec:8e:4e:0d:b6:d4:3a:95:84:84:20:9b:b0:
                    6b:b2:af:c2:47:9b:16:6f:f4:00:5c:29:23:61:53:
                    11:0c:e0:e1:d0:01:a7:cf:a0:53:ef:fc:d7:ac:cf:
                    4f:ac:a8:a3:56:d6:89:3b:87:e6:1c:41:9f:21:89:
                    b5:51:ee:1f:57:b5:74:58:82:37:76:47:cf:45:ae:
                    3b:66:88:82:3e:4e:22:5f:e2:25:eb:db:fe:74:96:
                    76:48:87:9c:cb:ed:4d:85:a6:e6:8c:9f:9c:17:19:
                    fa:fe:fd:0b:1d:0d:06:9b:f2:09:dc:fb:dc:10:25:
                    4c:8b:75:89:8b:b7:0c:3f:25:3a:19:85:5f:89:d2:
                    a2:38:73:68:74:7e:8d:00:e4:d9:00:8e:f8:c6:8e:
                    04:81:52:85:cc:8b:25:1b:46:30:fb:67:a5:46:f9:
                    aa:6d:9a:16:58:24:a8:37:e2:fe:44:1d:36:c1:d3:
                    ef:08:93:c2:ff:1e:11:22:7e:cf:d0:ff:c9:03:7f:
                    d5:ed:59:98:c3:26:fc:60:8e:f5:94:aa:dd:4a:7a:
                    e9:9c:7c:b6:e5:ca:47:59:47:c3:3b:18:13:53:65:
                    1f:59:00:42:fa:95:4d:20:67:ff:af:de:23:6f:31:
                    05:cd:df:b2:b8:d1:25:4a:d7:43:86:2f:bf:7c:93:
                    41:19:a5:3a:1c:96:13:d5:6a:48:e1:32:73:ef:be:
                    ed:67:15
                Exponent: 65537 (0x10001)
        X509v3 extensions:
            X509v3 Basic Constraints: 
                CA:FALSE
            Netscape Comment: 
                Easy-RSA Generated Certificate
            X509v3 Subject Key Identifier: 
                57:DE:92:17:36:BD:15:D7:5A:6E:8E:1A:A6:36:F9:1C:6C:47:79:DD
            X509v3 Authority Key Identifier: 
                keyid:EF:38:8D:14:50:58:A7:5B:4D:9C:17:72:FC:DF:B9:AC:A7:51:B0:10
                DirName:/C=US/ST=CA/L=SanFrancisco/O=Pixglo, Inc./OU=VPN-CIE/CN=tunnel.pixglo.com/name=Bala Chandrasekaran/emailAddress=bala@pixglo.com
                serial:A6:DB:C6:83:80:E6:A0:79

            X509v3 Extended Key Usage: 
                TLS Web Client Authentication
            X509v3 Key Usage: 
                Digital Signature
    Signature Algorithm: sha1WithRSAEncryption
         c7:bb:30:f1:d4:45:47:84:be:22:36:df:ef:13:34:0b:7c:43:
         be:0a:68:52:99:f2:30:10:e9:5d:17:b2:9d:00:d6:3c:c5:e2:
         53:53:12:6f:2d:91:6e:c3:e4:88:dd:bf:4e:6c:9f:0f:76:f4:
         68:01:7d:23:e7:b1:0f:94:8c:c9:55:3e:bb:8f:af:9d:db:fc:
         d6:57:24:34:66:0e:5a:f7:77:fd:6f:6e:3b:52:df:24:d7:63:
         db:66:a8:0d:74:07:71:8b:06:29:48:5f:5a:59:da:41:66:cb:
         ed:0d:67:d9:96:f4:29:72:c7:6f:a4:86:67:85:65:7f:77:b0:
         5a:7e:bf:95:6f:a2:e6:9a:6d:1c:0c:ba:e3:93:c1:cc:1e:8c:
         3c:35:01:8a:5d:01:82:ae:57:b9:e1:f3:a3:27:79:20:51:0f:
         f8:e9:06:67:de:7b:7e:a4:41:96:91:85:49:9a:16:8b:15:5c:
         7a:f1:c7:3c:b5:ec:74:3c:22:24:96:8b:b9:82:89:69:d4:c5:
         e0:eb:97:a9:cc:d6:fe:85:e0:bf:20:42:33:99:98:8a:05:4f:
         d8:87:98:10:e8:6f:d9:15:05:46:4e:98:5b:c8:d5:14:4d:43:
         f1:84:78:c1:79:a1:df:5d:26:d6:6e:c0:d7:e2:62:bc:9c:58:
         c6:84:42:d1:be:a9:2e:03:01:ce:4e:1c:61:d5:4d:09:02:1a:
         13:70:67:63:16:3a:6d:47:4a:f4:3c:e2:5d:8f:59:73:04:53:
         c4:50:98:0b:fa:cf:99:75:12:ff:7a:57:a8:29:60:95:78:74:
         85:93:1e:d8:c7:fd:e6:a6:40:de:2a:92:ae:21:d3:b8:2b:0f:
         ce:5c:e7:e2:00:f4:f1:58:9f:f3:bc:d8:d3:56:cf:2f:ca:34:
         c5:e9:4d:24:f7:a3:3e:b7:69:cb:2d:89:30:e5:51:91:e5:ad:
         bd:05:6b:10:c6:c7:ef:8a:f6:ed:08:8c:07:db:5c:dd:b3:27:
         af:0f:1e:0b:84:99:fc:47:e2:6b:c4:c0:ed:ae:22:19:46:85:
         6a:8f:5f:06:f9:5a:7e:82:5d:b2:6c:5c:28:ec:e3:02:c9:f5:
         68:60:60:ef:0c:8c:90:60:8d:ff:36:04:e8:c2:6c:7a:4b:de:
         29:0a:f3:94:2c:20:f3:e5:51:62:83:fd:a1:a7:a1:d8:74:e4:
         92:1d:8d:7c:41:69:05:1d:61:de:e4:d1:1c:55:e7:ec:b8:59:
         eb:ff:42:ee:d7:2d:c6:bc:c8:2f:97:5f:b8:6c:61:a9:55:4c:
         df:f2:b3:69:b7:7c:75:35:db:ab:6d:e4:71:95:c2:f5:ab:b8:
         b3:27:2b:62:64:10:23:2e
-----BEGIN CERTIFICATE-----
MIIHSDCCBTCgAwIBAgICAlMwDQYJKoZIhvcNAQEFBQAwgbQxCzAJBgNVBAYTAlVT
MQswCQYDVQQIEwJDQTEVMBMGA1UEBxMMU2FuRnJhbmNpc2NvMRUwEwYDVQQKEwxQ
aXhnbG8sIEluYy4xEDAOBgNVBAsTB1ZQTi1DSUUxGjAYBgNVBAMTEXR1bm5lbC5w
aXhnbG8uY29tMRwwGgYDVQQpExNCYWxhIENoYW5kcmFzZWthcmFuMR4wHAYJKoZI
hvcNAQkBFg9iYWxhQHBpeGdsby5jb20wHhcNMTgwMjE0MDYzNzU4WhcNMjgwMjEy
MDYzNzU4WjCBqTELMAkGA1UEBhMCVVMxCzAJBgNVBAgTAkNBMRUwEwYDVQQHEwxT
YW5GcmFuY2lzY28xFTATBgNVBAoTDFBpeGdsbywgSW5jLjEQMA4GA1UECxMHVlBO
LUNJRTEPMA0GA1UEAxMGY2llNTk0MRwwGgYDVQQpExNCYWxhIENoYW5kcmFzZWth
cmFuMR4wHAYJKoZIhvcNAQkBFg9iYWxhQHBpeGdsby5jb20wggIiMA0GCSqGSIb3
DQEBAQUAA4ICDwAwggIKAoICAQCpIQpaVUYbGmKuFcb7FVqv54XTt5hl8NiUOsIq
p2GZWgI/IoizbND0KllZ0jwnjbx8pG3ciR5pe3NIc6sKzVPdVUqhfUvT5+ZhLFjj
Z1/gCACCyPUDbsON9cvr1LFXGKM2A6W2qoxcGyMdw+tPtxvYK7LsYf0JNEfIA+hy
krML+EWl67zlcgAz3drqHjJTmGsKS0dRvMwDY8/zrEFhP4WiOCcz/dZ0fl0H9cFC
dAXuQHceRpXmPc+x1aRATw6MfrO2sP4okvbolrbKlVhmLb4CNo+NCAFa8Sp3DE1M
/z8UMIc/Hoskfqb1x/30WN1imjKB7I5ODbbUOpWEhCCbsGuyr8JHmxZv9ABcKSNh
UxEM4OHQAafPoFPv/Nesz0+sqKNW1ok7h+YcQZ8hibVR7h9XtXRYgjd2R89Frjtm
iII+TiJf4iXr2/50lnZIh5zL7U2FpuaMn5wXGfr+/QsdDQab8gnc+9wQJUyLdYmL
tww/JToZhV+J0qI4c2h0fo0A5NkAjvjGjgSBUoXMiyUbRjD7Z6VG+aptmhZYJKg3
4v5EHTbB0+8Ik8L/HhEifs/Q/8kDf9XtWZjDJvxgjvWUqt1KeumcfLblykdZR8M7
GBNTZR9ZAEL6lU0gZ/+v3iNvMQXN37K40SVK10OGL798k0EZpToclhPVakjhMnPv
vu1nFQIDAQABo4IBazCCAWcwCQYDVR0TBAIwADAtBglghkgBhvhCAQ0EIBYeRWFz
eS1SU0EgR2VuZXJhdGVkIENlcnRpZmljYXRlMB0GA1UdDgQWBBRX3pIXNr0V11pu
jhqmNvkcbEd53TCB6QYDVR0jBIHhMIHegBTvOI0UUFinW02cF3L837msp1GwEKGB
uqSBtzCBtDELMAkGA1UEBhMCVVMxCzAJBgNVBAgTAkNBMRUwEwYDVQQHEwxTYW5G
cmFuY2lzY28xFTATBgNVBAoTDFBpeGdsbywgSW5jLjEQMA4GA1UECxMHVlBOLUNJ
RTEaMBgGA1UEAxMRdHVubmVsLnBpeGdsby5jb20xHDAaBgNVBCkTE0JhbGEgQ2hh
bmRyYXNla2FyYW4xHjAcBgkqhkiG9w0BCQEWD2JhbGFAcGl4Z2xvLmNvbYIJAKbb
xoOA5qB5MBMGA1UdJQQMMAoGCCsGAQUFBwMCMAsGA1UdDwQEAwIHgDANBgkqhkiG
9w0BAQUFAAOCAgEAx7sw8dRFR4S+Ijbf7xM0C3xDvgpoUpnyMBDpXReynQDWPMXi
U1MSby2RbsPkiN2/TmyfD3b0aAF9I+exD5SMyVU+u4+vndv81lckNGYOWvd3/W9u
O1LfJNdj22aoDXQHcYsGKUhfWlnaQWbL7Q1n2Zb0KXLHb6SGZ4Vlf3ewWn6/lW+i
5pptHAy645PBzB6MPDUBil0Bgq5XueHzoyd5IFEP+OkGZ957fqRBlpGFSZoWixVc
evHHPLXsdDwiJJaLuYKJadTF4OuXqczW/oXgvyBCM5mYigVP2IeYEOhv2RUFRk6Y
W8jVFE1D8YR4wXmh310m1m7A1+JivJxYxoRC0b6pLgMBzk4cYdVNCQIaE3BnYxY6
bUdK9DziXY9ZcwRTxFCYC/rPmXUS/3pXqClglXh0hZMe2Mf95qZA3iqSriHTuCsP
zlzn4gD08Vif87zY01bPL8o0xelNJPejPrdpyy2JMOVRkeWtvQVrEMbH74r27QiM
B9tc3bMnrw8eC4SZ/Efia8TA7a4iGUaFao9fBvlafoJdsmxcKOzjAsn1aGBg7wyM
kGCN/zYE6MJsekveKQrzlCwg8+VRYoP9oaeh2HTkkh2NfEFpBR1h3uTRHFXn7LhZ
6/9C7tctxrzIL5dfuGxhqVVM3/Kzabd8dTXbq23kcZXC9au4sycrYmQQIy4=
-----END CERTIFICATE-----
