Certificate:
    Data:
        Version: 3 (0x2)
        Serial Number: 597 (0x255)
    Signature Algorithm: sha1WithRSAEncryption
        Issuer: C=US, ST=CA, L=SanFrancisco, O=Pixglo, Inc., OU=VPN-CIE, CN=tunnel.pixglo.com/name=Bala Chandrasekaran/emailAddress=bala@pixglo.com
        Validity
            Not Before: Feb 14 06:38:00 2018 GMT
            Not After : Feb 12 06:38:00 2028 GMT
        Subject: C=US, ST=CA, L=SanFrancisco, O=Pixglo, Inc., OU=VPN-CIE, CN=cie596/name=Bala Chandrasekaran/emailAddress=bala@pixglo.com
        Subject Public Key Info:
            Public Key Algorithm: rsaEncryption
                Public-Key: (4096 bit)
                Modulus:
                    00:c1:82:2e:b7:91:3d:14:5c:ef:66:97:3a:0d:0b:
                    db:d2:bb:d7:4c:e5:48:40:99:54:a7:40:72:53:f0:
                    d5:8e:17:98:c0:82:7e:89:32:26:87:9d:71:ef:0b:
                    6b:82:3f:49:f6:c3:18:40:c8:8e:cd:7d:a9:42:22:
                    46:ac:f7:92:9b:96:9e:b4:28:2c:8b:82:80:9d:d8:
                    cd:83:6d:2d:bd:19:7f:1a:da:b3:38:3f:62:30:f4:
                    b6:0c:98:5e:5e:f5:b0:d1:67:02:3c:a0:1c:8e:09:
                    eb:f0:3d:c4:ac:fc:bc:18:05:25:f6:9e:8e:fc:e6:
                    0d:4e:a2:01:25:c1:27:82:bf:a5:5f:25:c3:8b:e1:
                    88:01:c0:40:c5:c0:22:50:68:b3:b2:88:95:fb:76:
                    2b:6a:88:69:bd:c5:1b:6b:e0:15:a7:8a:99:3f:b1:
                    db:ee:b1:94:78:f9:ec:b5:5a:49:ab:ae:cd:0c:78:
                    9f:09:6f:f6:ff:96:89:49:a3:f2:07:33:99:66:c3:
                    3e:6b:5e:f3:55:99:31:2d:7e:5a:97:9d:f9:e1:dc:
                    d7:b5:1a:fe:eb:95:56:b5:8f:25:41:34:ed:71:85:
                    6a:f5:e6:33:97:06:9e:b9:7c:38:cf:40:0d:05:d3:
                    18:25:01:01:ad:3e:79:96:f3:fc:c1:14:b9:e2:1b:
                    01:30:6f:ac:73:88:96:63:a7:6f:a1:fe:3d:de:9f:
                    e4:b1:f9:e3:99:ce:28:a3:cc:9d:84:ed:dd:98:d1:
                    05:e4:a8:9d:2d:8a:92:b1:0d:7a:25:13:7d:7f:cd:
                    21:32:d4:27:0f:02:00:e0:e5:aa:92:c3:12:9c:f3:
                    dd:1f:1e:91:da:15:1c:99:a7:df:10:9c:fb:4b:c6:
                    95:c8:b8:08:5a:2a:7b:ed:9d:be:7a:ae:27:7c:64:
                    66:f7:51:44:68:a8:12:49:5c:58:ee:9d:23:93:f5:
                    c9:d6:4d:ff:40:d1:29:0f:ca:15:4f:ef:76:17:c2:
                    55:c9:01:d1:b8:5c:c8:29:aa:51:80:ae:ef:01:81:
                    1e:b1:f2:9f:a3:3b:7b:46:0e:23:46:d8:c7:f8:0e:
                    d2:99:d4:87:3e:2f:4a:d9:11:ee:ee:99:7f:44:40:
                    b5:23:a2:8b:b3:e8:65:31:b2:1a:25:69:16:35:4b:
                    19:b0:38:88:cb:94:18:50:4c:39:10:9e:d1:54:8f:
                    78:06:55:bd:39:65:bd:c9:b9:d9:88:fd:5b:8b:73:
                    f1:b6:a9:3c:44:79:b1:63:20:4e:c0:1f:e0:21:6c:
                    5a:d7:2d:21:18:4a:52:60:b1:ce:52:17:38:42:7a:
                    97:77:c6:c0:76:fe:07:7b:5d:72:22:46:d2:cb:dc:
                    cc:71:7d
                Exponent: 65537 (0x10001)
        X509v3 extensions:
            X509v3 Basic Constraints: 
                CA:FALSE
            Netscape Comment: 
                Easy-RSA Generated Certificate
            X509v3 Subject Key Identifier: 
                F5:1F:63:6E:82:FE:7E:08:4F:DA:CA:A1:45:47:A7:06:00:98:1A:65
            X509v3 Authority Key Identifier: 
                keyid:EF:38:8D:14:50:58:A7:5B:4D:9C:17:72:FC:DF:B9:AC:A7:51:B0:10
                DirName:/C=US/ST=CA/L=SanFrancisco/O=Pixglo, Inc./OU=VPN-CIE/CN=tunnel.pixglo.com/name=Bala Chandrasekaran/emailAddress=bala@pixglo.com
                serial:A6:DB:C6:83:80:E6:A0:79

            X509v3 Extended Key Usage: 
                TLS Web Client Authentication
            X509v3 Key Usage: 
                Digital Signature
    Signature Algorithm: sha1WithRSAEncryption
         51:44:a6:29:59:d4:30:b6:1a:7c:7a:db:0c:d0:85:e8:99:54:
         17:c2:d6:6d:05:2b:d7:74:72:b6:4a:b6:21:e6:1c:76:26:e1:
         8a:32:57:72:b6:d8:8e:2a:e5:71:fd:88:85:b3:2a:77:67:71:
         8d:e7:d8:a2:f2:90:aa:1e:f4:88:a0:db:29:4f:54:d1:26:c9:
         99:5e:9e:c7:f3:1a:9c:e8:c5:37:62:22:3c:e1:0c:f1:c5:29:
         e2:66:c7:0c:5a:45:a5:80:9b:4c:bd:79:d2:65:84:a0:94:75:
         85:7b:fe:61:4b:d9:7e:91:83:d4:e0:c8:4c:34:37:9f:70:10:
         dc:6e:f0:89:18:8e:72:f3:66:e3:b7:61:85:f8:fc:cb:d3:59:
         e0:68:7b:1b:e5:50:e7:45:eb:2d:18:90:e1:a2:a7:22:f2:dc:
         7f:88:5f:b7:23:15:ce:82:cd:ba:61:f5:83:e9:d6:bb:7a:c4:
         0d:0b:f2:06:f1:3c:f3:7c:f7:c6:a0:36:e1:c6:7e:75:90:cd:
         7a:ea:bd:f9:18:00:d9:66:55:f5:cd:04:9b:3b:61:05:26:a8:
         67:8f:cd:3e:44:94:75:02:99:b8:19:e4:a5:db:a4:88:88:3d:
         02:4a:94:a7:ca:59:50:ae:ce:fe:af:fc:42:ad:e5:26:67:27:
         54:f4:2a:7d:00:ce:08:1a:32:92:70:6b:b8:e1:54:5b:26:e0:
         26:60:cc:0f:6d:6b:77:44:aa:e3:f9:75:7d:2d:40:51:cc:c0:
         83:83:52:ad:60:41:25:35:2c:83:8f:cd:86:54:1f:6d:77:6f:
         ca:8d:37:0d:b6:fd:cd:75:2b:14:30:e8:fe:c6:9f:ca:96:85:
         5a:9f:75:48:c9:0c:fb:2a:f4:ce:7b:4b:19:e5:99:6b:0b:1a:
         4d:12:be:65:d4:a7:4e:4d:14:6b:37:d5:18:15:0a:92:43:21:
         8e:56:b6:d8:d1:47:66:ec:56:49:71:61:d7:11:1d:ca:61:65:
         74:0d:42:27:a3:c3:f8:53:0e:a9:e5:44:bf:cc:db:95:01:c4:
         cf:ba:a8:c1:15:fc:79:a6:6d:cb:19:1a:a2:b9:19:cc:7c:c1:
         ac:5b:79:ef:34:1d:d0:c9:93:78:b8:cb:32:0d:a5:b2:b1:a3:
         57:61:b8:5a:ae:fb:16:29:4c:f7:06:da:fc:6a:f5:c5:c7:80:
         36:1d:46:80:aa:3e:1b:7e:25:fd:a2:0c:53:b1:a8:5b:b2:e5:
         e9:a8:9f:8f:e3:17:5f:ba:69:77:98:50:d3:b1:37:ee:0e:ed:
         38:11:db:6b:cb:b7:06:a4:59:f1:d5:bb:bd:d6:18:d1:83:34:
         c9:a5:84:4d:30:e4:88:06
-----BEGIN CERTIFICATE-----
MIIHSDCCBTCgAwIBAgICAlUwDQYJKoZIhvcNAQEFBQAwgbQxCzAJBgNVBAYTAlVT
MQswCQYDVQQIEwJDQTEVMBMGA1UEBxMMU2FuRnJhbmNpc2NvMRUwEwYDVQQKEwxQ
aXhnbG8sIEluYy4xEDAOBgNVBAsTB1ZQTi1DSUUxGjAYBgNVBAMTEXR1bm5lbC5w
aXhnbG8uY29tMRwwGgYDVQQpExNCYWxhIENoYW5kcmFzZWthcmFuMR4wHAYJKoZI
hvcNAQkBFg9iYWxhQHBpeGdsby5jb20wHhcNMTgwMjE0MDYzODAwWhcNMjgwMjEy
MDYzODAwWjCBqTELMAkGA1UEBhMCVVMxCzAJBgNVBAgTAkNBMRUwEwYDVQQHEwxT
YW5GcmFuY2lzY28xFTATBgNVBAoTDFBpeGdsbywgSW5jLjEQMA4GA1UECxMHVlBO
LUNJRTEPMA0GA1UEAxMGY2llNTk2MRwwGgYDVQQpExNCYWxhIENoYW5kcmFzZWth
cmFuMR4wHAYJKoZIhvcNAQkBFg9iYWxhQHBpeGdsby5jb20wggIiMA0GCSqGSIb3
DQEBAQUAA4ICDwAwggIKAoICAQDBgi63kT0UXO9mlzoNC9vSu9dM5UhAmVSnQHJT
8NWOF5jAgn6JMiaHnXHvC2uCP0n2wxhAyI7NfalCIkas95Kblp60KCyLgoCd2M2D
bS29GX8a2rM4P2Iw9LYMmF5e9bDRZwI8oByOCevwPcSs/LwYBSX2no785g1OogEl
wSeCv6VfJcOL4YgBwEDFwCJQaLOyiJX7ditqiGm9xRtr4BWnipk/sdvusZR4+ey1
Wkmrrs0MeJ8Jb/b/lolJo/IHM5lmwz5rXvNVmTEtflqXnfnh3Ne1Gv7rlVa1jyVB
NO1xhWr15jOXBp65fDjPQA0F0xglAQGtPnmW8/zBFLniGwEwb6xziJZjp2+h/j3e
n+Sx+eOZziijzJ2E7d2Y0QXkqJ0tipKxDXolE31/zSEy1CcPAgDg5aqSwxKc890f
HpHaFRyZp98QnPtLxpXIuAhaKnvtnb56rid8ZGb3UURoqBJJXFjunSOT9cnWTf9A
0SkPyhVP73YXwlXJAdG4XMgpqlGAru8BgR6x8p+jO3tGDiNG2Mf4DtKZ1Ic+L0rZ
Ee7umX9EQLUjoouz6GUxsholaRY1SxmwOIjLlBhQTDkQntFUj3gGVb05Zb3JudmI
/VuLc/G2qTxEebFjIE7AH+AhbFrXLSEYSlJgsc5SFzhCepd3xsB2/gd7XXIiRtLL
3MxxfQIDAQABo4IBazCCAWcwCQYDVR0TBAIwADAtBglghkgBhvhCAQ0EIBYeRWFz
eS1SU0EgR2VuZXJhdGVkIENlcnRpZmljYXRlMB0GA1UdDgQWBBT1H2Nugv5+CE/a
yqFFR6cGAJgaZTCB6QYDVR0jBIHhMIHegBTvOI0UUFinW02cF3L837msp1GwEKGB
uqSBtzCBtDELMAkGA1UEBhMCVVMxCzAJBgNVBAgTAkNBMRUwEwYDVQQHEwxTYW5G
cmFuY2lzY28xFTATBgNVBAoTDFBpeGdsbywgSW5jLjEQMA4GA1UECxMHVlBOLUNJ
RTEaMBgGA1UEAxMRdHVubmVsLnBpeGdsby5jb20xHDAaBgNVBCkTE0JhbGEgQ2hh
bmRyYXNla2FyYW4xHjAcBgkqhkiG9w0BCQEWD2JhbGFAcGl4Z2xvLmNvbYIJAKbb
xoOA5qB5MBMGA1UdJQQMMAoGCCsGAQUFBwMCMAsGA1UdDwQEAwIHgDANBgkqhkiG
9w0BAQUFAAOCAgEAUUSmKVnUMLYafHrbDNCF6JlUF8LWbQUr13Rytkq2IeYcdibh
ijJXcrbYjirlcf2IhbMqd2dxjefYovKQqh70iKDbKU9U0SbJmV6ex/ManOjFN2Ii
POEM8cUp4mbHDFpFpYCbTL150mWEoJR1hXv+YUvZfpGD1ODITDQ3n3AQ3G7wiRiO
cvNm47dhhfj8y9NZ4Gh7G+VQ50XrLRiQ4aKnIvLcf4hftyMVzoLNumH1g+nWu3rE
DQvyBvE883z3xqA24cZ+dZDNeuq9+RgA2WZV9c0EmzthBSaoZ4/NPkSUdQKZuBnk
pdukiIg9AkqUp8pZUK7O/q/8Qq3lJmcnVPQqfQDOCBoyknBruOFUWybgJmDMD21r
d0Sq4/l1fS1AUczAg4NSrWBBJTUsg4/NhlQfbXdvyo03Dbb9zXUrFDDo/safypaF
Wp91SMkM+yr0zntLGeWZawsaTRK+ZdSnTk0UazfVGBUKkkMhjla22NFHZuxWSXFh
1xEdymFldA1CJ6PD+FMOqeVEv8zblQHEz7qowRX8eaZtyxkaorkZzHzBrFt57zQd
0MmTeLjLMg2lsrGjV2G4Wq77FilM9wba/Gr1xceANh1GgKo+G34l/aIMU7GoW7Ll
6aifj+MXX7ppd5hQ07E37g7tOBHba8u3BqRZ8dW7vdYY0YM0yaWETTDkiAY=
-----END CERTIFICATE-----
