Certificate:
    Data:
        Version: 3 (0x2)
        Serial Number: 598 (0x256)
    Signature Algorithm: sha1WithRSAEncryption
        Issuer: C=US, ST=CA, L=SanFrancisco, O=Pixglo, Inc., OU=VPN-CIE, CN=tunnel.pixglo.com/name=Bala Chandrasekaran/emailAddress=bala@pixglo.com
        Validity
            Not Before: Feb 14 06:38:03 2018 GMT
            Not After : Feb 12 06:38:03 2028 GMT
        Subject: C=US, ST=CA, L=SanFrancisco, O=Pixglo, Inc., OU=VPN-CIE, CN=cie597/name=Bala Chandrasekaran/emailAddress=bala@pixglo.com
        Subject Public Key Info:
            Public Key Algorithm: rsaEncryption
                Public-Key: (4096 bit)
                Modulus:
                    00:af:5e:84:74:e4:9e:3a:ef:e0:d5:28:03:b9:70:
                    56:8e:45:ea:68:56:da:32:ea:71:1c:ca:9d:7c:0c:
                    36:1a:8c:5c:d8:df:1d:40:54:6f:c5:05:64:92:27:
                    20:9d:a5:29:c5:ba:8e:5a:89:e7:1d:a4:66:54:69:
                    4c:37:65:a7:7b:f3:30:33:4c:63:6a:e0:fa:00:7d:
                    2c:22:cd:4b:55:9d:cd:c1:08:ed:8e:0d:96:28:05:
                    92:f8:55:a2:0c:e7:f8:da:79:34:98:83:4e:28:73:
                    24:6e:75:ec:95:65:b9:7f:b5:ea:b9:69:c8:65:75:
                    fa:b7:6f:db:61:a1:28:eb:4d:86:03:5f:6c:e5:64:
                    0e:b1:29:7c:01:cf:b4:dc:6a:8b:67:3a:22:a2:16:
                    a2:f2:10:a1:6d:ad:fd:93:09:f0:af:82:82:ee:0d:
                    2c:cb:05:50:1b:bd:48:c4:9b:68:bb:09:33:67:61:
                    4f:48:f3:da:9c:3e:d3:b6:b8:6f:36:9d:06:68:00:
                    0a:2a:57:3f:61:aa:c0:79:d8:43:a0:c4:11:41:74:
                    5e:a0:dc:c8:b2:02:e7:f4:32:7c:94:29:d6:b2:d4:
                    e6:00:24:63:1e:85:bc:82:ae:8e:c4:7e:5d:de:d0:
                    67:75:07:09:23:cb:93:8d:81:57:c7:00:80:48:fc:
                    72:7e:c7:3d:ec:9f:4b:fa:a6:f3:d8:42:32:a2:7a:
                    c1:a5:d6:92:c1:6d:ef:e0:de:d4:1d:0b:0a:e5:13:
                    db:ca:e4:08:dc:6e:92:61:f9:d6:b5:d9:b5:08:c8:
                    7a:27:31:c8:b1:ca:bc:19:a2:93:9c:e4:9a:ae:24:
                    a8:2c:da:f6:ef:90:5e:63:12:9d:df:48:a1:2e:ba:
                    19:fd:06:30:e3:da:68:2b:c8:85:73:7a:b4:a7:53:
                    1f:d2:df:d1:dc:d2:e5:4c:c4:8a:0f:83:37:f5:03:
                    02:ab:99:69:30:2a:0c:19:7d:c9:c6:11:66:f6:ef:
                    e3:0a:5e:f7:aa:b2:8c:0d:aa:31:55:27:93:95:6b:
                    b1:b4:20:a5:55:e1:d4:30:81:c0:d9:fe:86:a3:69:
                    ea:35:b5:62:d4:a6:df:17:a7:18:c5:bd:6b:83:17:
                    f4:e8:6c:3d:21:6b:90:6e:01:6c:95:f0:dd:3d:af:
                    2f:42:a6:ff:79:e8:27:29:b5:d1:60:03:63:7f:f3:
                    cb:19:5f:4c:4d:5b:6a:c8:63:94:57:26:f9:36:e7:
                    19:a3:09:cf:af:46:05:c0:ae:60:96:44:ee:a9:64:
                    da:75:a1:3e:db:de:76:83:8f:07:9a:03:c3:2f:65:
                    d0:0e:f1:0c:27:fe:1f:e1:e2:96:50:44:0b:11:e4:
                    3f:3e:f7
                Exponent: 65537 (0x10001)
        X509v3 extensions:
            X509v3 Basic Constraints: 
                CA:FALSE
            Netscape Comment: 
                Easy-RSA Generated Certificate
            X509v3 Subject Key Identifier: 
                94:F6:F0:69:7D:A1:FA:5C:FE:43:16:23:67:8E:73:D1:B0:D1:D7:A8
            X509v3 Authority Key Identifier: 
                keyid:EF:38:8D:14:50:58:A7:5B:4D:9C:17:72:FC:DF:B9:AC:A7:51:B0:10
                DirName:/C=US/ST=CA/L=SanFrancisco/O=Pixglo, Inc./OU=VPN-CIE/CN=tunnel.pixglo.com/name=Bala Chandrasekaran/emailAddress=bala@pixglo.com
                serial:A6:DB:C6:83:80:E6:A0:79

            X509v3 Extended Key Usage: 
                TLS Web Client Authentication
            X509v3 Key Usage: 
                Digital Signature
    Signature Algorithm: sha1WithRSAEncryption
         94:b3:07:d2:46:9c:d2:e5:2c:b1:e0:de:14:ae:0d:49:3e:b4:
         48:7f:a6:ea:98:97:e2:ce:83:23:4e:4e:aa:36:c6:70:9d:40:
         0f:50:00:37:0b:b4:63:4c:fc:1f:98:14:85:50:97:31:d0:e0:
         59:51:98:04:5b:33:8e:cd:fa:1e:26:b2:77:4d:63:d3:0f:06:
         99:93:c4:87:d9:70:f5:b8:9a:e1:ab:44:57:fa:64:ba:4d:01:
         32:93:34:46:d0:15:cd:c3:7c:37:9d:b7:9b:55:4b:17:cc:c1:
         79:e0:69:bf:32:a3:f7:d7:69:78:65:a7:80:66:f6:f6:7b:9a:
         96:d1:4a:a6:60:00:3e:f1:cd:0b:ec:d2:ad:5c:f3:c3:3f:45:
         69:5a:8a:a5:36:f9:6e:30:4a:4f:65:e9:a2:82:67:1e:f1:cd:
         20:8b:9b:2a:cd:47:3d:c1:da:b5:de:51:e7:e2:0b:13:d2:1b:
         55:6a:af:ab:6e:8b:0e:5d:12:b4:e4:04:38:cc:53:95:93:fe:
         0f:7a:5d:46:b5:dc:9a:ce:dc:2a:10:b8:18:14:42:6d:4b:c0:
         b3:75:b2:e5:a8:a2:9a:0b:c6:04:9e:d8:7c:af:28:ba:9a:c9:
         56:6a:36:56:8b:9b:3f:83:fb:88:6b:54:31:c6:05:b1:82:fe:
         e8:e5:b3:5a:1b:5c:f9:17:fd:51:4b:c5:72:c6:4b:81:8a:5e:
         f8:6f:3e:16:da:87:f6:3c:4b:b8:79:68:3e:a0:93:63:c3:8e:
         f6:91:51:18:5f:9a:f9:f4:c9:9d:a7:78:6d:6d:38:6a:ff:50:
         6c:6d:d1:fa:6c:f3:43:9e:af:2c:f0:c6:78:60:d9:bb:d7:ec:
         f4:ae:a7:df:2e:40:da:c1:0b:19:16:7f:83:ea:e6:06:06:fc:
         4f:bd:c7:f0:76:ac:54:ee:37:a2:2f:58:3e:09:08:23:08:28:
         c5:76:a9:fe:c7:5b:06:7e:e5:86:7d:a6:2c:ba:c3:1f:d4:a5:
         2b:34:65:86:7d:1d:4e:7a:da:1b:e5:d9:cb:d1:4b:bf:f2:44:
         ac:22:73:dc:f7:9a:42:ac:6b:dc:7f:6b:f7:1c:f7:35:0e:8e:
         ff:df:7e:c0:24:74:b8:2b:9a:7b:50:68:a3:1b:12:40:b9:e2:
         77:42:03:74:cc:b4:de:90:30:f4:37:84:81:51:0e:f2:0d:ee:
         d2:04:69:31:8c:12:30:14:29:4f:db:45:1b:16:54:33:94:12:
         7a:b0:ec:1a:90:fa:52:d5:34:65:9a:42:17:17:dc:15:b3:5d:
         d5:75:07:8e:9b:3a:33:4a:52:00:53:ed:5d:ac:29:ab:54:8f:
         36:db:bf:34:1d:3b:dc:cf
-----BEGIN CERTIFICATE-----
MIIHSDCCBTCgAwIBAgICAlYwDQYJKoZIhvcNAQEFBQAwgbQxCzAJBgNVBAYTAlVT
MQswCQYDVQQIEwJDQTEVMBMGA1UEBxMMU2FuRnJhbmNpc2NvMRUwEwYDVQQKEwxQ
aXhnbG8sIEluYy4xEDAOBgNVBAsTB1ZQTi1DSUUxGjAYBgNVBAMTEXR1bm5lbC5w
aXhnbG8uY29tMRwwGgYDVQQpExNCYWxhIENoYW5kcmFzZWthcmFuMR4wHAYJKoZI
hvcNAQkBFg9iYWxhQHBpeGdsby5jb20wHhcNMTgwMjE0MDYzODAzWhcNMjgwMjEy
MDYzODAzWjCBqTELMAkGA1UEBhMCVVMxCzAJBgNVBAgTAkNBMRUwEwYDVQQHEwxT
YW5GcmFuY2lzY28xFTATBgNVBAoTDFBpeGdsbywgSW5jLjEQMA4GA1UECxMHVlBO
LUNJRTEPMA0GA1UEAxMGY2llNTk3MRwwGgYDVQQpExNCYWxhIENoYW5kcmFzZWth
cmFuMR4wHAYJKoZIhvcNAQkBFg9iYWxhQHBpeGdsby5jb20wggIiMA0GCSqGSIb3
DQEBAQUAA4ICDwAwggIKAoICAQCvXoR05J467+DVKAO5cFaORepoVtoy6nEcyp18
DDYajFzY3x1AVG/FBWSSJyCdpSnFuo5aiecdpGZUaUw3Zad78zAzTGNq4PoAfSwi
zUtVnc3BCO2ODZYoBZL4VaIM5/jaeTSYg04ocyRudeyVZbl/teq5achldfq3b9th
oSjrTYYDX2zlZA6xKXwBz7TcaotnOiKiFqLyEKFtrf2TCfCvgoLuDSzLBVAbvUjE
m2i7CTNnYU9I89qcPtO2uG82nQZoAAoqVz9hqsB52EOgxBFBdF6g3MiyAuf0MnyU
Kday1OYAJGMehbyCro7Efl3e0Gd1Bwkjy5ONgVfHAIBI/HJ+xz3sn0v6pvPYQjKi
esGl1pLBbe/g3tQdCwrlE9vK5AjcbpJh+da12bUIyHonMcixyrwZopOc5JquJKgs
2vbvkF5jEp3fSKEuuhn9BjDj2mgryIVzerSnUx/S39Hc0uVMxIoPgzf1AwKrmWkw
KgwZfcnGEWb27+MKXveqsowNqjFVJ5OVa7G0IKVV4dQwgcDZ/oajaeo1tWLUpt8X
pxjFvWuDF/TobD0ha5BuAWyV8N09ry9Cpv956CcptdFgA2N/88sZX0xNW2rIY5RX
Jvk25xmjCc+vRgXArmCWRO6pZNp1oT7b3naDjweaA8MvZdAO8Qwn/h/h4pZQRAsR
5D8+9wIDAQABo4IBazCCAWcwCQYDVR0TBAIwADAtBglghkgBhvhCAQ0EIBYeRWFz
eS1SU0EgR2VuZXJhdGVkIENlcnRpZmljYXRlMB0GA1UdDgQWBBSU9vBpfaH6XP5D
FiNnjnPRsNHXqDCB6QYDVR0jBIHhMIHegBTvOI0UUFinW02cF3L837msp1GwEKGB
uqSBtzCBtDELMAkGA1UEBhMCVVMxCzAJBgNVBAgTAkNBMRUwEwYDVQQHEwxTYW5G
cmFuY2lzY28xFTATBgNVBAoTDFBpeGdsbywgSW5jLjEQMA4GA1UECxMHVlBOLUNJ
RTEaMBgGA1UEAxMRdHVubmVsLnBpeGdsby5jb20xHDAaBgNVBCkTE0JhbGEgQ2hh
bmRyYXNla2FyYW4xHjAcBgkqhkiG9w0BCQEWD2JhbGFAcGl4Z2xvLmNvbYIJAKbb
xoOA5qB5MBMGA1UdJQQMMAoGCCsGAQUFBwMCMAsGA1UdDwQEAwIHgDANBgkqhkiG
9w0BAQUFAAOCAgEAlLMH0kac0uUsseDeFK4NST60SH+m6piX4s6DI05OqjbGcJ1A
D1AANwu0Y0z8H5gUhVCXMdDgWVGYBFszjs36Hiayd01j0w8GmZPEh9lw9bia4atE
V/pkuk0BMpM0RtAVzcN8N523m1VLF8zBeeBpvzKj99dpeGWngGb29nualtFKpmAA
PvHNC+zSrVzzwz9FaVqKpTb5bjBKT2XpooJnHvHNIIubKs1HPcHatd5R5+ILE9Ib
VWqvq26LDl0StOQEOMxTlZP+D3pdRrXcms7cKhC4GBRCbUvAs3Wy5aiimgvGBJ7Y
fK8ouprJVmo2VoubP4P7iGtUMcYFsYL+6OWzWhtc+Rf9UUvFcsZLgYpe+G8+FtqH
9jxLuHloPqCTY8OO9pFRGF+a+fTJnad4bW04av9QbG3R+mzzQ56vLPDGeGDZu9fs
9K6n3y5A2sELGRZ/g+rmBgb8T73H8HasVO43oi9YPgkIIwgoxXap/sdbBn7lhn2m
LLrDH9SlKzRlhn0dTnraG+XZy9FLv/JErCJz3PeaQqxr3H9r9xz3NQ6O/99+wCR0
uCuae1BooxsSQLnid0IDdMy03pAw9DeEgVEO8g3u0gRpMYwSMBQpT9tFGxZUM5QS
erDsGpD6UtU0ZZpCFxfcFbNd1XUHjps6M0pSAFPtXawpq1SPNtu/NB073M8=
-----END CERTIFICATE-----
