Certificate:
    Data:
        Version: 3 (0x2)
        Serial Number: 600 (0x258)
    Signature Algorithm: sha1WithRSAEncryption
        Issuer: C=US, ST=CA, L=SanFrancisco, O=Pixglo, Inc., OU=VPN-CIE, CN=tunnel.pixglo.com/name=Bala Chandrasekaran/emailAddress=bala@pixglo.com
        Validity
            Not Before: Feb 14 06:38:05 2018 GMT
            Not After : Feb 12 06:38:05 2028 GMT
        Subject: C=US, ST=CA, L=SanFrancisco, O=Pixglo, Inc., OU=VPN-CIE, CN=cie599/name=Bala Chandrasekaran/emailAddress=bala@pixglo.com
        Subject Public Key Info:
            Public Key Algorithm: rsaEncryption
                Public-Key: (4096 bit)
                Modulus:
                    00:e6:1a:21:ad:9c:86:5a:cf:2c:9a:65:7d:3a:02:
                    3c:93:ad:f1:52:5d:00:23:83:ce:4d:f2:4a:16:64:
                    5d:e5:2e:e2:9f:f0:17:c9:c8:e5:47:56:60:70:95:
                    ff:83:e4:4c:a3:f4:9f:4f:b0:91:33:6e:47:78:f5:
                    04:6f:73:ea:77:c8:21:e2:83:41:2b:26:79:09:75:
                    c1:01:81:a4:fc:6a:8e:a9:b8:d3:fc:0a:b5:ac:49:
                    40:b0:3a:2b:8d:37:cc:8c:7e:b0:98:31:d7:c7:c6:
                    3d:b5:ba:b8:de:f0:e6:f7:85:b3:ac:06:e0:30:83:
                    f9:6a:9b:eb:f4:ac:97:be:d9:c9:e1:c3:eb:5a:8c:
                    f0:a3:98:5a:71:a7:f9:19:e4:61:09:49:6f:7a:ad:
                    60:2f:21:e2:60:c4:e7:d8:85:32:7f:cd:e4:55:07:
                    af:50:f0:7a:8d:d5:53:10:0a:87:9e:e0:e8:71:df:
                    91:62:8f:b2:dc:08:23:20:67:4a:1b:94:d8:13:b2:
                    98:08:c4:ee:e3:a5:e3:78:96:e9:b3:54:67:fd:ea:
                    04:1b:6b:81:73:51:23:3f:13:8c:82:9f:ad:32:97:
                    6b:c8:ab:59:9a:2e:3d:aa:cb:6c:cb:e3:85:94:d7:
                    7b:fb:b2:c1:4a:a6:aa:17:4a:0f:00:54:61:db:ec:
                    30:7d:00:ce:03:05:24:53:2c:fb:ee:93:9e:7d:cd:
                    62:21:4b:6c:96:58:4a:c1:ba:13:e4:bd:27:66:e8:
                    e4:58:7d:fb:9e:5f:ea:2e:7e:17:c8:42:14:52:15:
                    75:c5:f8:fe:bb:29:c9:c3:64:a8:3f:a5:46:52:f1:
                    ca:07:3f:99:0c:6b:34:ba:b8:0d:90:98:73:8f:be:
                    63:3c:b3:91:fd:eb:6e:e0:3a:5a:4a:65:50:71:a0:
                    3a:4e:63:0c:18:d1:4f:48:59:98:4d:7f:b4:19:75:
                    20:ff:c1:27:af:e6:67:22:7b:a5:09:e9:32:a9:cc:
                    ab:da:fa:71:69:59:3e:4c:ae:26:38:71:c5:30:d4:
                    b1:e7:cf:9d:57:10:a5:2e:1d:21:64:65:47:5b:b7:
                    5e:03:93:4f:87:d2:91:e9:9c:e9:05:6a:aa:e7:7b:
                    dc:cc:c5:49:2c:90:3e:5e:7e:e0:77:38:dc:c9:1f:
                    38:de:f6:ff:85:84:eb:e0:55:66:9d:1d:2f:5c:61:
                    90:f0:a2:23:8a:a6:cd:72:71:f8:c9:6b:43:09:d9:
                    64:e6:fd:e1:84:d3:7e:67:03:d1:d5:b8:d1:3d:90:
                    73:74:bb:f3:c4:21:24:0e:cf:47:8e:10:fc:9c:35:
                    f1:d6:a2:38:25:ae:74:45:9f:49:c6:4b:2f:54:f5:
                    96:01:c5
                Exponent: 65537 (0x10001)
        X509v3 extensions:
            X509v3 Basic Constraints: 
                CA:FALSE
            Netscape Comment: 
                Easy-RSA Generated Certificate
            X509v3 Subject Key Identifier: 
                84:FE:77:BF:E6:72:2F:ED:EB:6E:0C:66:04:12:3F:C6:DF:A1:60:09
            X509v3 Authority Key Identifier: 
                keyid:EF:38:8D:14:50:58:A7:5B:4D:9C:17:72:FC:DF:B9:AC:A7:51:B0:10
                DirName:/C=US/ST=CA/L=SanFrancisco/O=Pixglo, Inc./OU=VPN-CIE/CN=tunnel.pixglo.com/name=Bala Chandrasekaran/emailAddress=bala@pixglo.com
                serial:A6:DB:C6:83:80:E6:A0:79

            X509v3 Extended Key Usage: 
                TLS Web Client Authentication
            X509v3 Key Usage: 
                Digital Signature
    Signature Algorithm: sha1WithRSAEncryption
         06:ff:9c:00:25:05:da:2a:e9:fd:75:15:2d:ca:ed:01:c0:c1:
         7f:64:2e:07:82:a0:8e:20:6b:70:b9:f8:ce:c2:38:31:1f:e0:
         4b:30:a5:42:9f:3f:6e:a1:a0:3d:17:b5:75:ce:c7:d8:46:02:
         ce:01:91:17:00:7b:66:90:d1:61:e5:f4:5d:97:89:94:cb:eb:
         06:2b:55:76:3c:3f:49:6a:8a:96:01:0f:f7:e9:33:01:92:8d:
         1f:51:aa:44:d7:25:ca:94:34:fa:af:25:3c:d7:b1:ba:68:5b:
         42:6a:d1:54:4b:70:a1:4b:1e:64:8d:ba:80:5c:b4:1a:9a:42:
         25:ce:03:2f:55:aa:bd:1f:35:c4:4b:1c:38:14:30:03:e4:2f:
         cc:ee:42:fc:d8:26:c0:99:4a:ad:cf:e7:0c:99:b3:fe:a1:a9:
         7d:2f:51:46:c4:d2:5c:75:9d:33:a3:83:51:14:6e:4a:7b:76:
         83:4b:e5:2e:f7:b6:88:20:5c:1c:90:7a:86:5d:c6:62:07:8c:
         09:b0:53:3e:d0:d8:b3:70:b5:11:12:4f:a1:53:f5:30:88:74:
         48:7e:a4:11:ea:10:45:f5:5f:db:5c:71:b7:a0:d2:53:3d:c0:
         6d:42:66:0e:73:ba:7c:2e:d0:ec:33:b0:6f:df:c5:ea:4c:33:
         84:56:00:33:96:3d:9c:7d:aa:1a:a9:9c:c1:f6:fd:e7:45:72:
         30:17:0d:87:f3:7d:aa:51:62:42:5c:d6:dd:44:ac:b5:a6:71:
         15:e6:58:05:33:f6:cd:cb:3b:df:21:0b:be:9e:c9:51:20:57:
         f8:6b:c8:42:ab:4f:9b:16:b5:25:6b:fe:78:3f:59:e0:8c:c0:
         36:fe:94:a6:47:e2:3d:23:2f:ac:19:ce:20:ac:5e:09:59:4e:
         89:95:2f:da:f3:41:2d:2e:85:38:88:e6:36:85:9c:49:fd:16:
         54:87:0d:21:d2:57:4f:27:9b:6d:50:3f:93:9c:a1:53:6c:00:
         d1:eb:9e:07:f8:14:c6:14:4b:0a:94:55:2c:b2:18:e5:35:74:
         6c:90:f3:27:ad:36:f7:41:96:38:c9:ba:62:d2:f2:8a:a9:85:
         dc:56:37:f5:8f:2b:10:6e:7b:d6:85:52:67:a5:7a:d9:4a:65:
         f7:c1:a4:9c:af:14:dc:fe:77:37:82:da:47:a4:79:92:9d:96:
         47:0b:05:e2:15:fc:ee:68:98:a4:af:47:a4:1b:e1:44:29:f1:
         63:62:1f:1d:98:12:d3:71:cf:fe:11:f6:eb:8c:3b:b7:93:06:
         17:d1:9e:8d:64:46:b0:6d:ee:b9:12:25:9d:e2:c8:05:a7:03:
         62:30:f3:e6:5a:3d:56:60
-----BEGIN CERTIFICATE-----
MIIHSDCCBTCgAwIBAgICAlgwDQYJKoZIhvcNAQEFBQAwgbQxCzAJBgNVBAYTAlVT
MQswCQYDVQQIEwJDQTEVMBMGA1UEBxMMU2FuRnJhbmNpc2NvMRUwEwYDVQQKEwxQ
aXhnbG8sIEluYy4xEDAOBgNVBAsTB1ZQTi1DSUUxGjAYBgNVBAMTEXR1bm5lbC5w
aXhnbG8uY29tMRwwGgYDVQQpExNCYWxhIENoYW5kcmFzZWthcmFuMR4wHAYJKoZI
hvcNAQkBFg9iYWxhQHBpeGdsby5jb20wHhcNMTgwMjE0MDYzODA1WhcNMjgwMjEy
MDYzODA1WjCBqTELMAkGA1UEBhMCVVMxCzAJBgNVBAgTAkNBMRUwEwYDVQQHEwxT
YW5GcmFuY2lzY28xFTATBgNVBAoTDFBpeGdsbywgSW5jLjEQMA4GA1UECxMHVlBO
LUNJRTEPMA0GA1UEAxMGY2llNTk5MRwwGgYDVQQpExNCYWxhIENoYW5kcmFzZWth
cmFuMR4wHAYJKoZIhvcNAQkBFg9iYWxhQHBpeGdsby5jb20wggIiMA0GCSqGSIb3
DQEBAQUAA4ICDwAwggIKAoICAQDmGiGtnIZazyyaZX06AjyTrfFSXQAjg85N8koW
ZF3lLuKf8BfJyOVHVmBwlf+D5Eyj9J9PsJEzbkd49QRvc+p3yCHig0ErJnkJdcEB
gaT8ao6puNP8CrWsSUCwOiuNN8yMfrCYMdfHxj21urje8Ob3hbOsBuAwg/lqm+v0
rJe+2cnhw+tajPCjmFpxp/kZ5GEJSW96rWAvIeJgxOfYhTJ/zeRVB69Q8HqN1VMQ
Coee4Ohx35Fij7LcCCMgZ0oblNgTspgIxO7jpeN4lumzVGf96gQba4FzUSM/E4yC
n60yl2vIq1maLj2qy2zL44WU13v7ssFKpqoXSg8AVGHb7DB9AM4DBSRTLPvuk559
zWIhS2yWWErBuhPkvSdm6ORYffueX+oufhfIQhRSFXXF+P67KcnDZKg/pUZS8coH
P5kMazS6uA2QmHOPvmM8s5H9627gOlpKZVBxoDpOYwwY0U9IWZhNf7QZdSD/wSev
5mcie6UJ6TKpzKva+nFpWT5MriY4ccUw1LHnz51XEKUuHSFkZUdbt14Dk0+H0pHp
nOkFaqrne9zMxUkskD5efuB3ONzJHzje9v+FhOvgVWadHS9cYZDwoiOKps1ycfjJ
a0MJ2WTm/eGE035nA9HVuNE9kHN0u/PEISQOz0eOEPycNfHWojglrnRFn0nGSy9U
9ZYBxQIDAQABo4IBazCCAWcwCQYDVR0TBAIwADAtBglghkgBhvhCAQ0EIBYeRWFz
eS1SU0EgR2VuZXJhdGVkIENlcnRpZmljYXRlMB0GA1UdDgQWBBSE/ne/5nIv7etu
DGYEEj/G36FgCTCB6QYDVR0jBIHhMIHegBTvOI0UUFinW02cF3L837msp1GwEKGB
uqSBtzCBtDELMAkGA1UEBhMCVVMxCzAJBgNVBAgTAkNBMRUwEwYDVQQHEwxTYW5G
cmFuY2lzY28xFTATBgNVBAoTDFBpeGdsbywgSW5jLjEQMA4GA1UECxMHVlBOLUNJ
RTEaMBgGA1UEAxMRdHVubmVsLnBpeGdsby5jb20xHDAaBgNVBCkTE0JhbGEgQ2hh
bmRyYXNla2FyYW4xHjAcBgkqhkiG9w0BCQEWD2JhbGFAcGl4Z2xvLmNvbYIJAKbb
xoOA5qB5MBMGA1UdJQQMMAoGCCsGAQUFBwMCMAsGA1UdDwQEAwIHgDANBgkqhkiG
9w0BAQUFAAOCAgEABv+cACUF2irp/XUVLcrtAcDBf2QuB4KgjiBrcLn4zsI4MR/g
SzClQp8/bqGgPRe1dc7H2EYCzgGRFwB7ZpDRYeX0XZeJlMvrBitVdjw/SWqKlgEP
9+kzAZKNH1GqRNclypQ0+q8lPNexumhbQmrRVEtwoUseZI26gFy0GppCJc4DL1Wq
vR81xEscOBQwA+QvzO5C/NgmwJlKrc/nDJmz/qGpfS9RRsTSXHWdM6ODURRuSnt2
g0vlLve2iCBcHJB6hl3GYgeMCbBTPtDYs3C1ERJPoVP1MIh0SH6kEeoQRfVf21xx
t6DSUz3AbUJmDnO6fC7Q7DOwb9/F6kwzhFYAM5Y9nH2qGqmcwfb950VyMBcNh/N9
qlFiQlzW3USstaZxFeZYBTP2zcs73yELvp7JUSBX+GvIQqtPmxa1JWv+eD9Z4IzA
Nv6UpkfiPSMvrBnOIKxeCVlOiZUv2vNBLS6FOIjmNoWcSf0WVIcNIdJXTyebbVA/
k5yhU2wA0eueB/gUxhRLCpRVLLIY5TV0bJDzJ60290GWOMm6YtLyiqmF3FY39Y8r
EG571oVSZ6V62Upl98GknK8U3P53N4LaR6R5kp2WRwsF4hX87miYpK9HpBvhRCnx
Y2IfHZgS03HP/hH264w7t5MGF9GejWRGsG3uuRIlneLIBacDYjDz5lo9VmA=
-----END CERTIFICATE-----
