Certificate:
    Data:
        Version: 3 (0x2)
        Serial Number: 602 (0x25a)
    Signature Algorithm: sha1WithRSAEncryption
        Issuer: C=US, ST=CA, L=SanFrancisco, O=Pixglo, Inc., OU=VPN-CIE, CN=tunnel.pixglo.com/name=Bala Chandrasekaran/emailAddress=bala@pixglo.com
        Validity
            Not Before: Feb 14 06:38:07 2018 GMT
            Not After : Feb 12 06:38:07 2028 GMT
        Subject: C=US, ST=CA, L=SanFrancisco, O=Pixglo, Inc., OU=VPN-CIE, CN=cie601/name=Bala Chandrasekaran/emailAddress=bala@pixglo.com
        Subject Public Key Info:
            Public Key Algorithm: rsaEncryption
                Public-Key: (4096 bit)
                Modulus:
                    00:d2:a1:2a:bd:b3:f1:a5:bc:d3:77:5a:79:c5:b0:
                    c3:f1:40:8b:59:2d:50:b4:9c:40:bf:f0:ed:f6:e8:
                    7c:77:04:5e:b4:ad:52:b7:05:79:69:44:6b:78:6c:
                    de:e4:40:60:78:1b:3c:39:e6:f5:a5:e1:93:d3:c6:
                    9b:bf:df:82:dc:71:19:00:38:59:e9:93:36:f1:df:
                    99:ff:06:ff:8d:de:50:5f:c0:f8:bd:d9:a9:ef:87:
                    13:73:32:8c:95:8c:65:7e:cb:ae:02:98:cd:de:d4:
                    6d:f0:83:74:60:5d:b6:b5:0c:fb:9d:13:f2:a2:bb:
                    3e:e8:5c:d6:78:6b:29:b1:f3:63:45:8e:ce:8b:02:
                    70:5f:e9:a0:90:fe:d9:1a:73:05:90:e1:d8:85:2c:
                    0a:08:a8:3a:07:92:b2:81:0e:f8:39:5b:a4:0c:9e:
                    f2:63:2e:2a:49:bf:5b:83:df:aa:4a:85:a1:01:29:
                    d6:60:d4:f5:0e:8b:e8:23:f9:93:fc:80:97:7e:26:
                    83:c4:f2:60:96:b3:ff:6a:68:b5:86:ba:0e:10:01:
                    03:48:93:4f:b3:2c:05:2c:6c:84:72:09:df:2a:c5:
                    75:21:1f:86:dc:ff:e7:22:fd:c6:2f:64:05:bc:c6:
                    34:e7:38:ce:42:65:1f:28:ff:df:f1:67:db:f0:05:
                    ba:31:98:e6:fe:97:d8:47:b5:15:82:da:6c:3d:3d:
                    15:4d:65:94:d3:83:c3:78:b7:0c:c5:ae:ca:e7:2e:
                    1d:05:d3:a8:cf:bd:0e:cf:64:fb:e8:61:30:3e:ad:
                    e6:db:7c:12:11:e4:04:e1:08:dd:01:cf:12:50:6d:
                    ff:d6:4f:b0:4b:61:40:7f:fa:85:0d:d2:26:6a:55:
                    59:3b:a1:1a:4b:ba:72:f3:74:74:d1:20:54:bb:5a:
                    b4:94:d8:97:03:42:c1:4a:3f:92:e1:c4:fb:6a:bb:
                    8b:c7:df:3b:6c:3b:33:a3:d0:f2:a7:ba:40:ca:d9:
                    96:7b:00:6f:8e:4d:c5:80:71:d1:0e:f0:4c:e6:4c:
                    cc:bf:c7:21:71:78:67:2f:b5:9b:e6:dc:59:4f:fe:
                    4d:f2:30:1a:4c:3b:2a:42:bc:e1:ed:c8:fc:5e:63:
                    7b:5a:a2:1d:f9:bf:c0:ee:11:2f:a1:c9:37:c9:ab:
                    b3:68:7e:3b:f9:4d:05:67:ed:86:44:45:2e:f6:79:
                    79:21:13:f0:2b:e2:f2:ae:0d:c9:bc:96:1a:64:98:
                    9a:1e:d9:13:cb:40:54:cc:08:df:fb:8c:6e:31:3e:
                    48:e9:1c:d0:e2:f7:3a:96:aa:3d:78:0a:40:92:97:
                    53:1c:ad:58:dd:25:69:cb:6d:5f:02:11:c3:a9:41:
                    d7:42:cd
                Exponent: 65537 (0x10001)
        X509v3 extensions:
            X509v3 Basic Constraints: 
                CA:FALSE
            Netscape Comment: 
                Easy-RSA Generated Certificate
            X509v3 Subject Key Identifier: 
                2B:66:69:65:03:A7:E8:85:D7:3D:AF:18:4A:8A:84:81:52:1A:91:A8
            X509v3 Authority Key Identifier: 
                keyid:EF:38:8D:14:50:58:A7:5B:4D:9C:17:72:FC:DF:B9:AC:A7:51:B0:10
                DirName:/C=US/ST=CA/L=SanFrancisco/O=Pixglo, Inc./OU=VPN-CIE/CN=tunnel.pixglo.com/name=Bala Chandrasekaran/emailAddress=bala@pixglo.com
                serial:A6:DB:C6:83:80:E6:A0:79

            X509v3 Extended Key Usage: 
                TLS Web Client Authentication
            X509v3 Key Usage: 
                Digital Signature
    Signature Algorithm: sha1WithRSAEncryption
         dd:92:6d:de:84:43:68:24:9e:96:5e:7a:6e:e4:0b:ff:82:bd:
         4e:be:8c:bc:16:1f:92:bd:f0:5e:70:d5:74:e8:e5:1c:ca:78:
         98:80:d0:73:7a:2b:bf:27:0c:24:4e:49:5f:fd:0e:33:3a:c6:
         24:6a:50:ea:29:8c:5e:84:42:54:b9:83:03:a2:a2:f5:d8:3a:
         19:a7:62:d8:f6:b3:ac:3b:14:49:5f:c2:ab:5d:63:03:51:a1:
         6a:57:ec:56:d3:85:1e:bf:2b:75:ba:7c:fc:48:48:aa:0d:40:
         d0:6c:68:2a:64:86:50:08:03:6c:80:e2:d0:98:f0:4e:1c:98:
         94:b9:da:1a:38:d6:52:ad:44:52:0a:1b:cd:15:76:12:64:e5:
         dc:be:b4:d3:a8:3e:e0:69:cc:2b:a9:9a:81:b7:74:45:0b:af:
         98:ea:73:82:b6:8b:e9:fb:61:33:37:c0:8d:a4:4a:6e:38:10:
         63:5b:c4:81:49:81:cc:74:97:55:12:65:64:67:7c:6e:2c:42:
         8d:d6:9e:1c:63:37:be:97:43:15:e8:37:63:9f:fa:f4:76:0b:
         b1:f3:80:46:14:4f:f8:cb:17:fa:a5:24:2a:72:97:0d:50:9c:
         4b:af:79:3d:e8:d2:39:62:60:97:d6:e5:26:08:d6:8a:94:4f:
         a4:67:5f:5e:48:06:43:c8:72:d2:7f:7c:e2:6d:e4:f2:af:ae:
         6c:96:dd:95:33:cc:ff:72:a6:08:25:5e:14:e3:05:0f:1a:8d:
         cd:90:79:8a:eb:c9:27:cf:23:6f:65:79:73:42:18:a8:91:3e:
         97:ee:45:9e:a0:52:89:a3:18:6e:d2:5d:eb:9e:06:08:6f:b6:
         10:4e:80:d4:c0:11:df:ee:42:87:74:49:b0:e1:e1:c8:fe:69:
         b9:67:4f:8a:94:57:05:63:09:43:10:4b:33:97:e1:a3:1d:fb:
         a1:12:12:f7:c6:1c:90:4f:66:90:98:be:58:cc:d1:28:eb:13:
         84:a8:2b:87:59:1c:b2:66:df:90:9b:da:32:0a:f8:8b:9f:81:
         33:59:d9:f2:68:23:c6:a7:06:a7:46:10:e5:23:ae:46:5c:f3:
         2e:83:25:a6:78:89:82:7b:f9:23:3c:d2:f4:96:e9:85:43:84:
         df:4a:09:1c:b8:63:75:91:5d:0c:c2:9a:1c:7f:c4:68:cb:c9:
         1d:d3:87:c6:a4:e0:43:28:f4:25:bd:89:c3:f2:da:1f:ca:59:
         7f:e4:96:16:55:29:7d:a0:4d:71:42:4d:50:f4:dd:5b:0c:99:
         62:ed:60:96:22:d9:41:f5:01:6c:3a:2d:0a:e8:37:d4:06:4d:
         b6:14:9a:15:de:2d:d6:3f
-----BEGIN CERTIFICATE-----
MIIHSDCCBTCgAwIBAgICAlowDQYJKoZIhvcNAQEFBQAwgbQxCzAJBgNVBAYTAlVT
MQswCQYDVQQIEwJDQTEVMBMGA1UEBxMMU2FuRnJhbmNpc2NvMRUwEwYDVQQKEwxQ
aXhnbG8sIEluYy4xEDAOBgNVBAsTB1ZQTi1DSUUxGjAYBgNVBAMTEXR1bm5lbC5w
aXhnbG8uY29tMRwwGgYDVQQpExNCYWxhIENoYW5kcmFzZWthcmFuMR4wHAYJKoZI
hvcNAQkBFg9iYWxhQHBpeGdsby5jb20wHhcNMTgwMjE0MDYzODA3WhcNMjgwMjEy
MDYzODA3WjCBqTELMAkGA1UEBhMCVVMxCzAJBgNVBAgTAkNBMRUwEwYDVQQHEwxT
YW5GcmFuY2lzY28xFTATBgNVBAoTDFBpeGdsbywgSW5jLjEQMA4GA1UECxMHVlBO
LUNJRTEPMA0GA1UEAxMGY2llNjAxMRwwGgYDVQQpExNCYWxhIENoYW5kcmFzZWth
cmFuMR4wHAYJKoZIhvcNAQkBFg9iYWxhQHBpeGdsby5jb20wggIiMA0GCSqGSIb3
DQEBAQUAA4ICDwAwggIKAoICAQDSoSq9s/GlvNN3WnnFsMPxQItZLVC0nEC/8O32
6Hx3BF60rVK3BXlpRGt4bN7kQGB4Gzw55vWl4ZPTxpu/34LccRkAOFnpkzbx35n/
Bv+N3lBfwPi92anvhxNzMoyVjGV+y64CmM3e1G3wg3RgXba1DPudE/Kiuz7oXNZ4
aymx82NFjs6LAnBf6aCQ/tkacwWQ4diFLAoIqDoHkrKBDvg5W6QMnvJjLipJv1uD
36pKhaEBKdZg1PUOi+gj+ZP8gJd+JoPE8mCWs/9qaLWGug4QAQNIk0+zLAUsbIRy
Cd8qxXUhH4bc/+ci/cYvZAW8xjTnOM5CZR8o/9/xZ9vwBboxmOb+l9hHtRWC2mw9
PRVNZZTTg8N4twzFrsrnLh0F06jPvQ7PZPvoYTA+rebbfBIR5AThCN0BzxJQbf/W
T7BLYUB/+oUN0iZqVVk7oRpLunLzdHTRIFS7WrSU2JcDQsFKP5LhxPtqu4vH3zts
OzOj0PKnukDK2ZZ7AG+OTcWAcdEO8EzmTMy/xyFxeGcvtZvm3FlP/k3yMBpMOypC
vOHtyPxeY3taoh35v8DuES+hyTfJq7Nofjv5TQVn7YZERS72eXkhE/Ar4vKuDcm8
lhpkmJoe2RPLQFTMCN/7jG4xPkjpHNDi9zqWqj14CkCSl1McrVjdJWnLbV8CEcOp
QddCzQIDAQABo4IBazCCAWcwCQYDVR0TBAIwADAtBglghkgBhvhCAQ0EIBYeRWFz
eS1SU0EgR2VuZXJhdGVkIENlcnRpZmljYXRlMB0GA1UdDgQWBBQrZmllA6fohdc9
rxhKioSBUhqRqDCB6QYDVR0jBIHhMIHegBTvOI0UUFinW02cF3L837msp1GwEKGB
uqSBtzCBtDELMAkGA1UEBhMCVVMxCzAJBgNVBAgTAkNBMRUwEwYDVQQHEwxTYW5G
cmFuY2lzY28xFTATBgNVBAoTDFBpeGdsbywgSW5jLjEQMA4GA1UECxMHVlBOLUNJ
RTEaMBgGA1UEAxMRdHVubmVsLnBpeGdsby5jb20xHDAaBgNVBCkTE0JhbGEgQ2hh
bmRyYXNla2FyYW4xHjAcBgkqhkiG9w0BCQEWD2JhbGFAcGl4Z2xvLmNvbYIJAKbb
xoOA5qB5MBMGA1UdJQQMMAoGCCsGAQUFBwMCMAsGA1UdDwQEAwIHgDANBgkqhkiG
9w0BAQUFAAOCAgEA3ZJt3oRDaCSell56buQL/4K9Tr6MvBYfkr3wXnDVdOjlHMp4
mIDQc3orvycMJE5JX/0OMzrGJGpQ6imMXoRCVLmDA6Ki9dg6Gadi2PazrDsUSV/C
q11jA1GhalfsVtOFHr8rdbp8/EhIqg1A0GxoKmSGUAgDbIDi0JjwThyYlLnaGjjW
Uq1EUgobzRV2EmTl3L6006g+4GnMK6magbd0RQuvmOpzgraL6fthMzfAjaRKbjgQ
Y1vEgUmBzHSXVRJlZGd8bixCjdaeHGM3vpdDFeg3Y5/69HYLsfOARhRP+MsX+qUk
KnKXDVCcS695PejSOWJgl9blJgjWipRPpGdfXkgGQ8hy0n984m3k8q+ubJbdlTPM
/3KmCCVeFOMFDxqNzZB5iuvJJ88jb2V5c0IYqJE+l+5FnqBSiaMYbtJd654GCG+2
EE6A1MAR3+5Ch3RJsOHhyP5puWdPipRXBWMJQxBLM5fhox37oRIS98YckE9mkJi+
WMzRKOsThKgrh1kcsmbfkJvaMgr4i5+BM1nZ8mgjxqcGp0YQ5SOuRlzzLoMlpniJ
gnv5IzzS9JbphUOE30oJHLhjdZFdDMKaHH/EaMvJHdOHxqTgQyj0Jb2Jw/LaH8pZ
f+SWFlUpfaBNcUJNUPTdWwyZYu1gliLZQfUBbDotCug31AZNthSaFd4t1j8=
-----END CERTIFICATE-----
