Certificate:
    Data:
        Version: 3 (0x2)
        Serial Number: 604 (0x25c)
    Signature Algorithm: sha1WithRSAEncryption
        Issuer: C=US, ST=CA, L=SanFrancisco, O=Pixglo, Inc., OU=VPN-CIE, CN=tunnel.pixglo.com/name=Bala Chandrasekaran/emailAddress=bala@pixglo.com
        Validity
            Not Before: Feb 14 06:38:10 2018 GMT
            Not After : Feb 12 06:38:10 2028 GMT
        Subject: C=US, ST=CA, L=SanFrancisco, O=Pixglo, Inc., OU=VPN-CIE, CN=cie603/name=Bala Chandrasekaran/emailAddress=bala@pixglo.com
        Subject Public Key Info:
            Public Key Algorithm: rsaEncryption
                Public-Key: (4096 bit)
                Modulus:
                    00:d0:7f:18:b1:84:c8:a2:fc:6d:e5:69:54:a9:0d:
                    28:67:0a:5d:31:dc:a8:20:53:1b:9a:b9:ab:49:27:
                    c7:e9:f1:b8:2a:a1:4e:a2:c6:4e:21:e4:33:34:cf:
                    c3:7c:98:83:de:2b:c2:8e:f7:92:22:52:a3:7e:dc:
                    8c:86:c0:bd:f9:a9:80:75:63:0b:a7:9a:66:24:47:
                    a3:87:5f:21:3e:7f:b9:72:57:41:0f:ca:d1:a4:e0:
                    9d:ef:6c:7f:d4:35:c7:71:a0:b3:4f:5a:08:a0:1f:
                    65:dc:fe:ae:2f:24:fb:f8:43:2c:5e:99:ea:3d:93:
                    ff:26:f5:51:10:c3:09:ba:75:35:ea:f8:50:0e:cf:
                    d2:50:df:ff:10:c9:2d:d3:9a:a6:84:52:58:6a:d9:
                    d6:64:66:40:ea:6a:0d:fb:9b:71:e0:9b:34:2d:ca:
                    d8:a6:92:9a:6c:74:c5:b4:12:ca:b9:11:cf:66:0b:
                    20:83:9c:b6:3a:12:3d:64:7b:fd:b2:5b:da:7c:66:
                    25:07:3a:9b:c4:98:e2:49:4f:fd:85:46:86:66:f9:
                    96:4f:70:ba:4e:ad:0e:9c:3d:86:04:db:8e:70:a2:
                    45:27:f1:64:c6:73:59:30:29:2d:cc:36:bf:24:90:
                    84:f7:6d:d7:5c:ca:1e:8b:68:42:39:56:90:45:e0:
                    e1:c5:cd:f3:14:4d:8a:57:1a:a4:61:3f:ad:82:b4:
                    28:50:e1:31:8c:2c:2e:d8:63:c6:b5:10:89:2f:1b:
                    77:c4:52:77:3b:98:e4:cb:16:9b:28:a9:80:d2:b5:
                    6d:be:d8:ae:cb:b1:fa:6a:91:22:88:3d:b7:cd:44:
                    d8:e6:b2:a7:e7:09:c3:34:8a:44:21:0e:87:88:bd:
                    ca:9e:ad:59:83:a6:b3:50:a2:6f:c1:2c:30:49:da:
                    a0:50:20:68:12:c9:28:f1:d9:f2:a3:30:04:e0:d7:
                    f5:6e:25:36:e5:41:5e:e6:32:be:d3:ad:ef:a1:4f:
                    a1:ea:d7:d8:f4:d6:94:39:83:76:d5:4c:10:b3:a9:
                    8f:ee:9d:d0:a8:cd:a2:03:b5:39:e8:c0:cd:27:d9:
                    83:94:f1:d1:f5:1a:e1:39:09:d6:d4:01:67:da:15:
                    5e:87:d3:24:11:79:87:a5:cc:70:cd:b8:e3:11:26:
                    b4:cb:1b:f6:85:d7:03:91:06:17:ef:4a:15:b5:91:
                    9d:93:30:9c:5e:bb:6d:9c:2d:21:3a:8a:0c:3c:ff:
                    42:1a:1f:00:03:23:5f:4c:a7:dc:b8:57:77:8f:48:
                    5d:f1:d7:b2:49:5e:c0:a9:54:6b:69:88:6d:e0:00:
                    3d:81:b8:05:2c:7e:35:2a:78:3d:fa:4b:23:c2:41:
                    37:70:1f
                Exponent: 65537 (0x10001)
        X509v3 extensions:
            X509v3 Basic Constraints: 
                CA:FALSE
            Netscape Comment: 
                Easy-RSA Generated Certificate
            X509v3 Subject Key Identifier: 
                F7:AB:53:51:EC:58:79:10:60:D6:C4:E7:8C:05:87:F7:50:72:67:64
            X509v3 Authority Key Identifier: 
                keyid:EF:38:8D:14:50:58:A7:5B:4D:9C:17:72:FC:DF:B9:AC:A7:51:B0:10
                DirName:/C=US/ST=CA/L=SanFrancisco/O=Pixglo, Inc./OU=VPN-CIE/CN=tunnel.pixglo.com/name=Bala Chandrasekaran/emailAddress=bala@pixglo.com
                serial:A6:DB:C6:83:80:E6:A0:79

            X509v3 Extended Key Usage: 
                TLS Web Client Authentication
            X509v3 Key Usage: 
                Digital Signature
    Signature Algorithm: sha1WithRSAEncryption
         ce:fd:9c:59:75:91:de:93:d6:ed:36:cd:c6:13:f2:90:9e:bd:
         86:a8:94:3f:cb:50:af:46:93:e0:13:73:47:19:37:48:06:4a:
         89:e2:3f:91:fc:3a:40:3f:16:76:36:95:1f:21:39:a5:48:39:
         55:bd:12:28:90:79:c7:2d:a7:38:32:3f:fb:cf:12:66:02:09:
         c3:da:35:7b:17:60:44:2d:ea:ca:26:9f:c6:9e:73:e7:98:f3:
         42:ba:11:c5:47:d1:17:23:d7:d8:f4:24:0d:0e:a7:98:1d:24:
         cd:45:e2:fe:7d:6f:94:39:c0:ed:53:fb:aa:dd:25:d5:60:24:
         5d:e3:b7:1d:1a:8f:ff:2b:ba:90:3b:13:47:fc:26:6d:99:f4:
         e5:29:0a:c6:d6:12:b8:02:d8:90:6c:a0:26:3f:ca:15:86:5c:
         f8:94:44:f3:1b:ff:0a:d9:b8:5a:04:a6:07:1d:a6:fe:bf:8c:
         c7:df:3a:5a:b2:d4:53:d7:67:57:ff:81:f6:0e:ce:b6:06:46:
         0c:d8:e9:11:b4:79:0e:d8:5e:33:43:ed:dd:76:9b:a0:b4:1b:
         1f:1d:13:30:70:7d:3a:80:b5:4c:e8:91:54:94:24:d5:fc:94:
         54:5e:f8:2a:ff:28:be:33:39:12:b4:05:00:cc:f3:35:69:52:
         1c:7c:24:45:1d:84:ba:76:a4:f5:1e:e0:ac:90:9e:13:30:86:
         1d:9b:ff:c5:d2:95:98:5c:4f:bb:62:c4:94:7b:5b:58:e8:e8:
         e1:7f:7f:fb:32:71:11:5d:2b:fa:9d:33:e8:ff:0f:dc:d6:25:
         6b:53:29:6f:75:c1:9c:69:65:7f:a6:86:f2:2b:8f:a3:0c:82:
         60:99:e0:5f:09:b2:1e:e8:cf:31:c0:93:84:c3:a7:18:c0:06:
         fc:8e:f0:07:91:86:09:a6:d8:4b:c5:23:1a:5a:b5:d1:42:08:
         00:69:95:38:c9:8f:be:df:79:47:29:05:7b:26:b8:29:89:79:
         83:15:60:9b:63:6f:97:db:7d:9f:1d:c5:fa:43:d4:ab:04:94:
         09:70:55:14:40:1d:d5:82:ab:db:a5:1a:f9:3a:f7:b0:01:49:
         50:b6:ba:4b:a2:0b:92:02:c4:d6:8d:ab:89:67:17:a5:29:a2:
         23:6c:d2:e9:ab:c0:91:e6:70:c6:fa:64:41:dd:a4:5d:c4:fd:
         4c:38:4c:3b:f3:b5:87:43:1c:a5:21:1c:87:58:81:01:d3:c2:
         f9:d1:95:c1:a6:99:dd:4c:1a:84:ab:a0:1b:21:f5:88:61:7f:
         a6:53:ab:a1:64:6a:31:27:f9:4d:9e:e3:8d:69:9d:bf:e1:98:
         d2:dc:56:c3:ab:27:da:c8
-----BEGIN CERTIFICATE-----
MIIHSDCCBTCgAwIBAgICAlwwDQYJKoZIhvcNAQEFBQAwgbQxCzAJBgNVBAYTAlVT
MQswCQYDVQQIEwJDQTEVMBMGA1UEBxMMU2FuRnJhbmNpc2NvMRUwEwYDVQQKEwxQ
aXhnbG8sIEluYy4xEDAOBgNVBAsTB1ZQTi1DSUUxGjAYBgNVBAMTEXR1bm5lbC5w
aXhnbG8uY29tMRwwGgYDVQQpExNCYWxhIENoYW5kcmFzZWthcmFuMR4wHAYJKoZI
hvcNAQkBFg9iYWxhQHBpeGdsby5jb20wHhcNMTgwMjE0MDYzODEwWhcNMjgwMjEy
MDYzODEwWjCBqTELMAkGA1UEBhMCVVMxCzAJBgNVBAgTAkNBMRUwEwYDVQQHEwxT
YW5GcmFuY2lzY28xFTATBgNVBAoTDFBpeGdsbywgSW5jLjEQMA4GA1UECxMHVlBO
LUNJRTEPMA0GA1UEAxMGY2llNjAzMRwwGgYDVQQpExNCYWxhIENoYW5kcmFzZWth
cmFuMR4wHAYJKoZIhvcNAQkBFg9iYWxhQHBpeGdsby5jb20wggIiMA0GCSqGSIb3
DQEBAQUAA4ICDwAwggIKAoICAQDQfxixhMii/G3laVSpDShnCl0x3KggUxuauatJ
J8fp8bgqoU6ixk4h5DM0z8N8mIPeK8KO95IiUqN+3IyGwL35qYB1YwunmmYkR6OH
XyE+f7lyV0EPytGk4J3vbH/UNcdxoLNPWgigH2Xc/q4vJPv4Qyxemeo9k/8m9VEQ
wwm6dTXq+FAOz9JQ3/8QyS3TmqaEUlhq2dZkZkDqag37m3HgmzQtytimkppsdMW0
Esq5Ec9mCyCDnLY6Ej1ke/2yW9p8ZiUHOpvEmOJJT/2FRoZm+ZZPcLpOrQ6cPYYE
245wokUn8WTGc1kwKS3MNr8kkIT3bddcyh6LaEI5VpBF4OHFzfMUTYpXGqRhP62C
tChQ4TGMLC7YY8a1EIkvG3fEUnc7mOTLFpsoqYDStW2+2K7LsfpqkSKIPbfNRNjm
sqfnCcM0ikQhDoeIvcqerVmDprNQom/BLDBJ2qBQIGgSySjx2fKjMATg1/VuJTbl
QV7mMr7Tre+hT6Hq19j01pQ5g3bVTBCzqY/undCozaIDtTnowM0n2YOU8dH1GuE5
CdbUAWfaFV6H0yQReYelzHDNuOMRJrTLG/aF1wORBhfvShW1kZ2TMJxeu22cLSE6
igw8/0IaHwADI19Mp9y4V3ePSF3x17JJXsCpVGtpiG3gAD2BuAUsfjUqeD36SyPC
QTdwHwIDAQABo4IBazCCAWcwCQYDVR0TBAIwADAtBglghkgBhvhCAQ0EIBYeRWFz
eS1SU0EgR2VuZXJhdGVkIENlcnRpZmljYXRlMB0GA1UdDgQWBBT3q1NR7Fh5EGDW
xOeMBYf3UHJnZDCB6QYDVR0jBIHhMIHegBTvOI0UUFinW02cF3L837msp1GwEKGB
uqSBtzCBtDELMAkGA1UEBhMCVVMxCzAJBgNVBAgTAkNBMRUwEwYDVQQHEwxTYW5G
cmFuY2lzY28xFTATBgNVBAoTDFBpeGdsbywgSW5jLjEQMA4GA1UECxMHVlBOLUNJ
RTEaMBgGA1UEAxMRdHVubmVsLnBpeGdsby5jb20xHDAaBgNVBCkTE0JhbGEgQ2hh
bmRyYXNla2FyYW4xHjAcBgkqhkiG9w0BCQEWD2JhbGFAcGl4Z2xvLmNvbYIJAKbb
xoOA5qB5MBMGA1UdJQQMMAoGCCsGAQUFBwMCMAsGA1UdDwQEAwIHgDANBgkqhkiG
9w0BAQUFAAOCAgEAzv2cWXWR3pPW7TbNxhPykJ69hqiUP8tQr0aT4BNzRxk3SAZK
ieI/kfw6QD8WdjaVHyE5pUg5Vb0SKJB5xy2nODI/+88SZgIJw9o1exdgRC3qyiaf
xp5z55jzQroRxUfRFyPX2PQkDQ6nmB0kzUXi/n1vlDnA7VP7qt0l1WAkXeO3HRqP
/yu6kDsTR/wmbZn05SkKxtYSuALYkGygJj/KFYZc+JRE8xv/Ctm4WgSmBx2m/r+M
x986WrLUU9dnV/+B9g7OtgZGDNjpEbR5DtheM0Pt3XaboLQbHx0TMHB9OoC1TOiR
VJQk1fyUVF74Kv8ovjM5ErQFAMzzNWlSHHwkRR2Eunak9R7grJCeEzCGHZv/xdKV
mFxPu2LElHtbWOjo4X9/+zJxEV0r+p0z6P8P3NYla1Mpb3XBnGllf6aG8iuPowyC
YJngXwmyHujPMcCThMOnGMAG/I7wB5GGCabYS8UjGlq10UIIAGmVOMmPvt95RykF
eya4KYl5gxVgm2Nvl9t9nx3F+kPUqwSUCXBVFEAd1YKr26Ua+Tr3sAFJULa6S6IL
kgLE1o2riWcXpSmiI2zS6avAkeZwxvpkQd2kXcT9TDhMO/O1h0McpSEch1iBAdPC
+dGVwaaZ3UwahKugGyH1iGF/plOroWRqMSf5TZ7jjWmdv+GY0txWw6sn2sg=
-----END CERTIFICATE-----
