Certificate:
    Data:
        Version: 3 (0x2)
        Serial Number: 606 (0x25e)
    Signature Algorithm: sha1WithRSAEncryption
        Issuer: C=US, ST=CA, L=SanFrancisco, O=Pixglo, Inc., OU=VPN-CIE, CN=tunnel.pixglo.com/name=Bala Chandrasekaran/emailAddress=bala@pixglo.com
        Validity
            Not Before: Feb 14 06:38:12 2018 GMT
            Not After : Feb 12 06:38:12 2028 GMT
        Subject: C=US, ST=CA, L=SanFrancisco, O=Pixglo, Inc., OU=VPN-CIE, CN=cie605/name=Bala Chandrasekaran/emailAddress=bala@pixglo.com
        Subject Public Key Info:
            Public Key Algorithm: rsaEncryption
                Public-Key: (4096 bit)
                Modulus:
                    00:eb:6b:a2:6c:b4:48:bf:48:26:5a:a1:82:b8:63:
                    74:97:51:47:3c:b1:01:e0:34:70:46:4a:5f:88:fb:
                    77:f6:74:1a:c8:fa:a6:94:8d:ad:4b:ab:37:75:e2:
                    f6:0c:b0:ab:a7:06:b3:5f:c0:8e:90:cc:28:f6:63:
                    2e:29:45:be:19:b4:10:63:63:d4:1f:e2:a9:8a:83:
                    de:99:1d:5e:79:7c:35:e0:fe:7a:f9:c8:73:2c:c6:
                    90:8c:c3:8c:cf:3a:b1:eb:22:9f:90:de:cf:6c:df:
                    e9:d3:e9:30:41:df:77:85:dc:0b:cd:ff:c1:93:db:
                    6e:6c:41:f1:9c:f4:1f:4f:90:47:eb:bc:4a:5c:68:
                    c7:75:ae:c3:6e:95:25:d5:b7:d5:f4:49:31:c0:16:
                    b8:e4:93:b5:0c:d2:30:2e:03:09:a4:23:52:6b:54:
                    36:22:15:3c:b6:43:d2:dc:56:22:4c:3b:93:90:bf:
                    f1:91:d4:12:a0:65:f6:2c:e9:41:c2:20:b7:45:9b:
                    e8:93:0e:13:9d:b9:61:ad:ad:b0:9f:23:d9:9d:c3:
                    7f:0c:d8:81:f9:d3:95:10:ba:d3:3c:67:8d:35:f4:
                    04:bd:17:99:a8:dd:1b:32:e4:f9:d8:d1:28:ba:fa:
                    4c:63:ad:96:a4:70:26:dc:03:ee:bc:88:01:ab:69:
                    5a:66:f4:0c:7b:8e:ab:61:e2:26:80:95:c8:ef:05:
                    c1:63:a9:68:5e:c8:f2:e0:9f:8c:55:6e:50:7a:53:
                    0b:5d:a8:95:10:67:53:00:d6:f2:d0:a4:65:dd:d1:
                    70:de:36:e9:81:2b:6b:58:20:56:3f:d7:e9:a1:f5:
                    d8:61:ba:95:c4:80:5c:c7:13:11:7f:af:8d:11:9d:
                    f3:3b:c1:b1:ec:af:ec:6e:03:59:14:3e:6a:94:7f:
                    65:38:b3:4d:b0:47:88:d7:35:24:d4:8d:55:4e:9e:
                    0b:cd:41:6a:96:5e:52:f4:de:f3:32:2b:88:5d:c9:
                    e7:e1:16:93:76:6c:87:ef:2e:c9:7e:af:da:bb:25:
                    a3:8c:4e:8e:2a:54:41:d3:87:40:f6:7f:0d:2c:95:
                    c4:41:34:79:47:5e:d4:47:20:02:6c:04:e7:79:68:
                    eb:b3:b3:0c:9b:88:62:88:d1:60:54:76:dd:65:8b:
                    ee:f4:37:53:b5:e0:b9:30:75:fa:35:77:51:f6:4d:
                    c2:5b:fa:73:64:9e:f1:76:a8:d5:55:74:b8:34:71:
                    bb:d4:a6:e8:93:8d:c7:78:77:b0:6a:9a:b1:ff:5b:
                    42:b2:f9:ae:ee:67:23:ef:6a:37:32:f1:c6:4e:27:
                    95:12:7d:fb:cc:94:9f:3f:2a:59:6c:e8:8e:da:28:
                    93:25:89
                Exponent: 65537 (0x10001)
        X509v3 extensions:
            X509v3 Basic Constraints: 
                CA:FALSE
            Netscape Comment: 
                Easy-RSA Generated Certificate
            X509v3 Subject Key Identifier: 
                C6:C8:33:80:78:17:9B:CF:93:5C:23:5A:58:50:C9:BF:51:39:71:3F
            X509v3 Authority Key Identifier: 
                keyid:EF:38:8D:14:50:58:A7:5B:4D:9C:17:72:FC:DF:B9:AC:A7:51:B0:10
                DirName:/C=US/ST=CA/L=SanFrancisco/O=Pixglo, Inc./OU=VPN-CIE/CN=tunnel.pixglo.com/name=Bala Chandrasekaran/emailAddress=bala@pixglo.com
                serial:A6:DB:C6:83:80:E6:A0:79

            X509v3 Extended Key Usage: 
                TLS Web Client Authentication
            X509v3 Key Usage: 
                Digital Signature
    Signature Algorithm: sha1WithRSAEncryption
         b3:43:5c:4c:8f:42:4b:52:a0:c1:01:ea:01:b7:1c:78:f2:78:
         7c:05:d1:0f:5a:75:96:5c:a8:50:93:86:be:af:55:91:9c:0e:
         1c:33:b8:d8:13:2e:ae:bc:17:0e:af:c8:c5:55:d8:96:ac:34:
         d5:a2:42:ad:5e:14:36:e0:08:ec:57:f9:b7:b6:89:f2:69:3c:
         04:fe:bc:aa:c6:9f:db:67:80:6b:87:9c:22:bd:b6:21:d5:be:
         f3:6a:4b:6f:6b:ba:6c:bd:40:57:e1:3d:d4:8e:fa:e7:69:61:
         3e:a0:95:13:0c:05:f1:8b:e2:f4:7c:14:32:45:b9:61:4a:50:
         5c:a1:f2:fd:62:9f:b6:83:20:e3:a5:5a:f9:24:fe:e4:92:e2:
         c1:a7:3d:ae:9f:ae:a6:63:f7:94:e5:e7:06:af:7e:b9:b2:59:
         b5:a3:e7:68:da:84:8f:7e:f2:5e:75:37:18:44:30:e7:81:aa:
         d6:46:ea:00:29:89:9d:8c:c6:c9:f0:51:39:30:d8:84:8b:a5:
         a5:42:75:a0:36:41:ff:60:9f:d4:0b:d1:f2:5f:b6:16:6d:06:
         45:a3:44:1e:c3:ba:85:f9:5b:c3:18:e2:fb:1d:bf:55:cf:c8:
         9e:0a:9d:ab:94:b5:89:2f:29:c2:a8:63:1f:73:94:3a:93:f1:
         1d:de:87:d8:c8:49:96:cc:9c:8b:fb:6f:5a:0e:89:30:d2:f7:
         9e:88:f3:5d:18:a5:09:68:aa:b3:b7:7d:73:23:5d:e5:c3:8c:
         ec:74:01:61:c6:47:c6:36:87:3a:bc:88:90:6e:0e:e0:6d:dc:
         32:bf:0a:c0:cd:f9:17:8a:2e:77:63:69:15:e2:4f:2e:27:20:
         b0:ba:d9:cd:a5:f5:61:e6:49:94:bf:9d:85:10:d1:8f:09:dc:
         b4:58:a9:c1:54:8a:01:81:0c:91:3f:16:cf:0b:21:22:f8:5d:
         c0:23:60:fd:10:81:58:47:bc:ee:3d:96:86:dc:d7:02:d2:16:
         9b:ae:55:53:50:46:bf:c3:7e:57:1d:54:58:e5:c7:81:67:bf:
         65:d3:cd:91:18:cf:f9:fd:3e:af:0f:dd:b6:c8:d6:64:22:aa:
         7d:a1:31:8f:4c:61:02:0b:43:b7:c9:0a:9e:d1:cd:99:13:1d:
         40:28:a1:db:5a:84:1e:e7:12:b6:62:0c:32:30:f7:6e:a3:2a:
         be:e6:24:6d:fb:9f:86:e3:d7:84:76:63:3f:67:9d:d7:a7:48:
         f3:36:90:ad:d5:67:0f:ab:89:7d:03:ba:56:1c:77:0d:72:58:
         4d:fa:83:6d:19:d7:30:e1:8c:5f:cb:17:e5:21:5b:e4:e0:25:
         f3:60:35:17:d8:24:b4:4c
-----BEGIN CERTIFICATE-----
MIIHSDCCBTCgAwIBAgICAl4wDQYJKoZIhvcNAQEFBQAwgbQxCzAJBgNVBAYTAlVT
MQswCQYDVQQIEwJDQTEVMBMGA1UEBxMMU2FuRnJhbmNpc2NvMRUwEwYDVQQKEwxQ
aXhnbG8sIEluYy4xEDAOBgNVBAsTB1ZQTi1DSUUxGjAYBgNVBAMTEXR1bm5lbC5w
aXhnbG8uY29tMRwwGgYDVQQpExNCYWxhIENoYW5kcmFzZWthcmFuMR4wHAYJKoZI
hvcNAQkBFg9iYWxhQHBpeGdsby5jb20wHhcNMTgwMjE0MDYzODEyWhcNMjgwMjEy
MDYzODEyWjCBqTELMAkGA1UEBhMCVVMxCzAJBgNVBAgTAkNBMRUwEwYDVQQHEwxT
YW5GcmFuY2lzY28xFTATBgNVBAoTDFBpeGdsbywgSW5jLjEQMA4GA1UECxMHVlBO
LUNJRTEPMA0GA1UEAxMGY2llNjA1MRwwGgYDVQQpExNCYWxhIENoYW5kcmFzZWth
cmFuMR4wHAYJKoZIhvcNAQkBFg9iYWxhQHBpeGdsby5jb20wggIiMA0GCSqGSIb3
DQEBAQUAA4ICDwAwggIKAoICAQDra6JstEi/SCZaoYK4Y3SXUUc8sQHgNHBGSl+I
+3f2dBrI+qaUja1Lqzd14vYMsKunBrNfwI6QzCj2Yy4pRb4ZtBBjY9Qf4qmKg96Z
HV55fDXg/nr5yHMsxpCMw4zPOrHrIp+Q3s9s3+nT6TBB33eF3AvN/8GT225sQfGc
9B9PkEfrvEpcaMd1rsNulSXVt9X0STHAFrjkk7UM0jAuAwmkI1JrVDYiFTy2Q9Lc
ViJMO5OQv/GR1BKgZfYs6UHCILdFm+iTDhOduWGtrbCfI9mdw38M2IH505UQutM8
Z4019AS9F5mo3Rsy5PnY0Si6+kxjrZakcCbcA+68iAGraVpm9Ax7jqth4iaAlcjv
BcFjqWheyPLgn4xVblB6UwtdqJUQZ1MA1vLQpGXd0XDeNumBK2tYIFY/1+mh9dhh
upXEgFzHExF/r40RnfM7wbHsr+xuA1kUPmqUf2U4s02wR4jXNSTUjVVOngvNQWqW
XlL03vMyK4hdyefhFpN2bIfvLsl+r9q7JaOMTo4qVEHTh0D2fw0slcRBNHlHXtRH
IAJsBOd5aOuzswybiGKI0WBUdt1li+70N1O14Lkwdfo1d1H2TcJb+nNknvF2qNVV
dLg0cbvUpuiTjcd4d7BqmrH/W0Ky+a7uZyPvajcy8cZOJ5USffvMlJ8/Klls6I7a
KJMliQIDAQABo4IBazCCAWcwCQYDVR0TBAIwADAtBglghkgBhvhCAQ0EIBYeRWFz
eS1SU0EgR2VuZXJhdGVkIENlcnRpZmljYXRlMB0GA1UdDgQWBBTGyDOAeBebz5Nc
I1pYUMm/UTlxPzCB6QYDVR0jBIHhMIHegBTvOI0UUFinW02cF3L837msp1GwEKGB
uqSBtzCBtDELMAkGA1UEBhMCVVMxCzAJBgNVBAgTAkNBMRUwEwYDVQQHEwxTYW5G
cmFuY2lzY28xFTATBgNVBAoTDFBpeGdsbywgSW5jLjEQMA4GA1UECxMHVlBOLUNJ
RTEaMBgGA1UEAxMRdHVubmVsLnBpeGdsby5jb20xHDAaBgNVBCkTE0JhbGEgQ2hh
bmRyYXNla2FyYW4xHjAcBgkqhkiG9w0BCQEWD2JhbGFAcGl4Z2xvLmNvbYIJAKbb
xoOA5qB5MBMGA1UdJQQMMAoGCCsGAQUFBwMCMAsGA1UdDwQEAwIHgDANBgkqhkiG
9w0BAQUFAAOCAgEAs0NcTI9CS1KgwQHqAbccePJ4fAXRD1p1llyoUJOGvq9VkZwO
HDO42BMurrwXDq/IxVXYlqw01aJCrV4UNuAI7Ff5t7aJ8mk8BP68qsaf22eAa4ec
Ir22IdW+82pLb2u6bL1AV+E91I7652lhPqCVEwwF8Yvi9HwUMkW5YUpQXKHy/WKf
toMg46Va+ST+5JLiwac9rp+upmP3lOXnBq9+ubJZtaPnaNqEj37yXnU3GEQw54Gq
1kbqACmJnYzGyfBROTDYhIulpUJ1oDZB/2Cf1AvR8l+2Fm0GRaNEHsO6hflbwxji
+x2/Vc/Ingqdq5S1iS8pwqhjH3OUOpPxHd6H2MhJlsyci/tvWg6JMNL3nojzXRil
CWiqs7d9cyNd5cOM7HQBYcZHxjaHOryIkG4O4G3cMr8KwM35F4oud2NpFeJPLicg
sLrZzaX1YeZJlL+dhRDRjwnctFipwVSKAYEMkT8WzwshIvhdwCNg/RCBWEe87j2W
htzXAtIWm65VU1BGv8N+Vx1UWOXHgWe/ZdPNkRjP+f0+rw/dtsjWZCKqfaExj0xh
AgtDt8kKntHNmRMdQCih21qEHucStmIMMjD3bqMqvuYkbfufhuPXhHZjP2ed16dI
8zaQrdVnD6uJfQO6Vhx3DXJYTfqDbRnXMOGMX8sX5SFb5OAl82A1F9gktEw=
-----END CERTIFICATE-----
