Certificate:
    Data:
        Version: 3 (0x2)
        Serial Number: 609 (0x261)
    Signature Algorithm: sha1WithRSAEncryption
        Issuer: C=US, ST=CA, L=SanFrancisco, O=Pixglo, Inc., OU=VPN-CIE, CN=tunnel.pixglo.com/name=Bala Chandrasekaran/emailAddress=bala@pixglo.com
        Validity
            Not Before: Feb 14 06:38:19 2018 GMT
            Not After : Feb 12 06:38:19 2028 GMT
        Subject: C=US, ST=CA, L=SanFrancisco, O=Pixglo, Inc., OU=VPN-CIE, CN=cie608/name=Bala Chandrasekaran/emailAddress=bala@pixglo.com
        Subject Public Key Info:
            Public Key Algorithm: rsaEncryption
                Public-Key: (4096 bit)
                Modulus:
                    00:c5:80:20:dc:56:61:a6:f5:ff:82:e3:0f:4b:15:
                    2c:81:70:75:d0:6e:21:8e:0d:ee:2b:88:dd:31:e9:
                    d8:a9:79:b3:d9:52:92:2f:5d:7e:aa:a1:10:4c:33:
                    9e:92:b8:ac:5e:60:18:b0:cf:40:4f:21:62:74:ec:
                    8b:b3:5f:85:23:20:f5:19:a4:02:13:48:c2:3b:21:
                    2f:b4:2a:b8:35:51:c0:6a:42:f8:25:a1:32:69:97:
                    40:e8:03:ab:0f:99:d8:6e:02:68:79:14:c3:44:f3:
                    d4:af:de:e8:c5:91:5a:f4:eb:d4:b8:39:30:27:56:
                    9b:85:54:be:4d:15:21:f2:64:6a:e1:0a:4f:67:55:
                    0d:35:61:e6:08:fb:2d:54:e1:fd:43:e1:fd:31:7b:
                    17:01:d0:4b:df:b3:ef:fb:ce:4e:fb:aa:38:2f:43:
                    7a:f1:c1:0b:13:4e:c1:bc:d1:51:0c:9c:72:f7:81:
                    1f:8d:eb:96:0c:34:e9:ca:73:fe:a4:b0:3e:78:94:
                    0e:8b:d9:4e:c4:54:00:b9:a8:e2:57:21:60:53:e0:
                    b3:19:a1:e0:2d:21:92:2e:83:af:c6:b5:4d:02:a3:
                    30:1b:ca:9f:24:94:9b:9f:be:da:1b:d0:3d:9a:f8:
                    d9:74:f2:3f:f6:b7:cf:ac:2f:da:94:48:a4:2c:1f:
                    86:b3:c4:f8:5d:93:78:64:26:ae:2c:47:02:96:c4:
                    49:02:ff:22:84:ba:9b:88:ac:47:00:de:54:c8:a8:
                    33:6d:59:aa:ea:ce:56:ea:69:95:90:ab:cc:53:d6:
                    45:5a:d8:5d:cc:0d:fe:58:64:56:33:1b:ba:b8:11:
                    da:56:5d:12:31:67:61:f2:9e:62:37:5a:1d:36:c0:
                    58:4a:d2:51:67:f7:6f:35:20:37:6a:64:57:5b:3c:
                    dd:61:67:3a:c1:3b:b9:a2:e7:d6:56:de:18:87:b4:
                    cb:71:38:d4:ce:01:9c:01:c1:28:23:e8:6b:f7:2f:
                    a8:19:78:4b:ca:2f:a0:a3:b3:1f:07:20:88:73:b6:
                    4b:24:a7:ea:40:e0:da:74:d4:51:be:95:64:ad:7e:
                    59:f9:cf:01:a2:a8:85:00:aa:cd:92:5c:80:d8:d4:
                    81:06:af:4f:8f:50:09:a6:e5:26:92:01:33:ae:42:
                    6f:80:cd:73:d1:c0:5e:3e:e6:a7:f3:13:aa:ef:c2:
                    1b:b0:c6:31:a2:9c:d9:54:46:9b:d0:6e:fd:d1:25:
                    b2:3d:ad:8f:0e:2e:8e:27:48:e2:11:f8:ae:a2:7d:
                    4f:ab:6e:d8:02:64:c3:c1:3b:6f:a8:0e:f2:80:8b:
                    cd:14:37:f5:77:31:08:4e:2a:ad:58:2c:5e:ba:9b:
                    a0:fe:0b
                Exponent: 65537 (0x10001)
        X509v3 extensions:
            X509v3 Basic Constraints: 
                CA:FALSE
            Netscape Comment: 
                Easy-RSA Generated Certificate
            X509v3 Subject Key Identifier: 
                A6:19:4A:48:71:9F:86:8F:FE:DB:3C:B4:15:75:43:7B:EC:04:4F:59
            X509v3 Authority Key Identifier: 
                keyid:EF:38:8D:14:50:58:A7:5B:4D:9C:17:72:FC:DF:B9:AC:A7:51:B0:10
                DirName:/C=US/ST=CA/L=SanFrancisco/O=Pixglo, Inc./OU=VPN-CIE/CN=tunnel.pixglo.com/name=Bala Chandrasekaran/emailAddress=bala@pixglo.com
                serial:A6:DB:C6:83:80:E6:A0:79

            X509v3 Extended Key Usage: 
                TLS Web Client Authentication
            X509v3 Key Usage: 
                Digital Signature
    Signature Algorithm: sha1WithRSAEncryption
         9b:a2:ab:27:b3:95:ff:0a:81:10:c1:01:88:03:b9:30:17:33:
         b0:73:7c:36:0a:bc:d2:02:07:53:7e:f7:ac:1b:73:e8:e2:f4:
         c8:bd:ab:44:8c:f0:e5:09:8f:2a:43:bd:be:d6:9c:85:cf:23:
         36:90:9b:f3:21:b3:c3:ae:90:ac:db:72:e0:fa:8c:2d:9c:24:
         0d:e6:33:c4:cf:d2:9d:96:72:e3:07:31:cd:9e:e8:a0:83:07:
         30:e3:c2:8c:d0:34:ba:e8:cc:c3:1d:a8:7c:f0:6a:fa:ed:89:
         ef:58:d8:e4:d6:d0:9d:0a:37:56:f6:a0:dd:b8:42:8e:d7:6f:
         1a:bb:19:7b:cf:60:f3:7d:94:87:3b:30:7b:76:9f:ba:28:7d:
         7a:83:8f:1a:a4:c0:43:94:08:d2:d3:e4:7b:0b:b5:9f:21:1a:
         ff:9a:a1:f7:80:ae:b7:71:59:23:43:cf:25:f0:b7:e3:82:69:
         43:51:c4:79:12:fb:d9:77:52:dc:39:4c:26:94:de:03:94:74:
         3c:74:b5:01:d1:5a:c9:a4:06:18:f6:b8:61:17:b7:b5:da:b6:
         17:1a:7c:19:92:ed:99:f5:c4:e3:7e:b1:a2:56:a1:6a:13:6b:
         a6:5d:76:79:64:c5:b6:35:c7:20:04:5e:ad:ca:91:42:81:45:
         56:81:ab:cb:9f:d9:b2:33:7c:23:10:01:84:43:bd:f3:74:38:
         85:9c:8b:ca:9e:0d:38:ef:11:71:11:3e:ff:6b:fb:d1:0f:d9:
         15:c6:29:ce:3f:6a:4d:9f:6b:dc:46:2d:48:c0:fc:27:56:49:
         0f:c8:a1:aa:3a:57:36:ce:e9:bb:71:62:c2:95:21:b3:73:f5:
         62:3f:06:01:c5:d6:dc:a2:9e:f4:66:0b:d1:76:30:73:69:60:
         85:31:99:f8:b8:84:e5:a9:b1:5d:7d:62:ad:c8:e2:b1:be:90:
         86:e2:10:71:91:60:65:7f:bb:50:d5:48:01:ab:f5:7d:6c:d4:
         a3:4a:a7:97:5d:dd:7a:1a:cc:3f:dd:d4:e8:9b:80:9a:4e:71:
         32:95:a3:60:98:c7:b3:53:6c:95:d1:c8:5d:20:aa:8c:ce:32:
         ae:d6:cf:8b:69:3e:1e:33:6c:76:b1:23:8f:47:ec:ef:cd:e0:
         da:75:c7:a4:44:78:a0:c3:33:24:b1:70:2d:9a:99:b7:ab:53:
         01:ce:41:a9:1e:2a:34:38:07:80:13:f6:b3:c3:2b:27:4a:ce:
         30:0e:84:8e:2d:67:de:74:34:74:c9:83:e5:85:ff:e5:77:16:
         b4:be:9d:36:5b:84:af:1e:3f:42:4f:6b:2a:29:ac:03:21:72:
         26:de:d4:ae:5f:80:b5:a8
-----BEGIN CERTIFICATE-----
MIIHSDCCBTCgAwIBAgICAmEwDQYJKoZIhvcNAQEFBQAwgbQxCzAJBgNVBAYTAlVT
MQswCQYDVQQIEwJDQTEVMBMGA1UEBxMMU2FuRnJhbmNpc2NvMRUwEwYDVQQKEwxQ
aXhnbG8sIEluYy4xEDAOBgNVBAsTB1ZQTi1DSUUxGjAYBgNVBAMTEXR1bm5lbC5w
aXhnbG8uY29tMRwwGgYDVQQpExNCYWxhIENoYW5kcmFzZWthcmFuMR4wHAYJKoZI
hvcNAQkBFg9iYWxhQHBpeGdsby5jb20wHhcNMTgwMjE0MDYzODE5WhcNMjgwMjEy
MDYzODE5WjCBqTELMAkGA1UEBhMCVVMxCzAJBgNVBAgTAkNBMRUwEwYDVQQHEwxT
YW5GcmFuY2lzY28xFTATBgNVBAoTDFBpeGdsbywgSW5jLjEQMA4GA1UECxMHVlBO
LUNJRTEPMA0GA1UEAxMGY2llNjA4MRwwGgYDVQQpExNCYWxhIENoYW5kcmFzZWth
cmFuMR4wHAYJKoZIhvcNAQkBFg9iYWxhQHBpeGdsby5jb20wggIiMA0GCSqGSIb3
DQEBAQUAA4ICDwAwggIKAoICAQDFgCDcVmGm9f+C4w9LFSyBcHXQbiGODe4riN0x
6dipebPZUpIvXX6qoRBMM56SuKxeYBiwz0BPIWJ07IuzX4UjIPUZpAITSMI7IS+0
Krg1UcBqQvgloTJpl0DoA6sPmdhuAmh5FMNE89Sv3ujFkVr069S4OTAnVpuFVL5N
FSHyZGrhCk9nVQ01YeYI+y1U4f1D4f0xexcB0Evfs+/7zk77qjgvQ3rxwQsTTsG8
0VEMnHL3gR+N65YMNOnKc/6ksD54lA6L2U7EVAC5qOJXIWBT4LMZoeAtIZIug6/G
tU0CozAbyp8klJufvtob0D2a+Nl08j/2t8+sL9qUSKQsH4azxPhdk3hkJq4sRwKW
xEkC/yKEupuIrEcA3lTIqDNtWarqzlbqaZWQq8xT1kVa2F3MDf5YZFYzG7q4EdpW
XRIxZ2HynmI3Wh02wFhK0lFn9281IDdqZFdbPN1hZzrBO7mi59ZW3hiHtMtxONTO
AZwBwSgj6Gv3L6gZeEvKL6Cjsx8HIIhztkskp+pA4Np01FG+lWStfln5zwGiqIUA
qs2SXIDY1IEGr0+PUAmm5SaSATOuQm+AzXPRwF4+5qfzE6rvwhuwxjGinNlURpvQ
bv3RJbI9rY8OLo4nSOIR+K6ifU+rbtgCZMPBO2+oDvKAi80UN/V3MQhOKq1YLF66
m6D+CwIDAQABo4IBazCCAWcwCQYDVR0TBAIwADAtBglghkgBhvhCAQ0EIBYeRWFz
eS1SU0EgR2VuZXJhdGVkIENlcnRpZmljYXRlMB0GA1UdDgQWBBSmGUpIcZ+Gj/7b
PLQVdUN77ARPWTCB6QYDVR0jBIHhMIHegBTvOI0UUFinW02cF3L837msp1GwEKGB
uqSBtzCBtDELMAkGA1UEBhMCVVMxCzAJBgNVBAgTAkNBMRUwEwYDVQQHEwxTYW5G
cmFuY2lzY28xFTATBgNVBAoTDFBpeGdsbywgSW5jLjEQMA4GA1UECxMHVlBOLUNJ
RTEaMBgGA1UEAxMRdHVubmVsLnBpeGdsby5jb20xHDAaBgNVBCkTE0JhbGEgQ2hh
bmRyYXNla2FyYW4xHjAcBgkqhkiG9w0BCQEWD2JhbGFAcGl4Z2xvLmNvbYIJAKbb
xoOA5qB5MBMGA1UdJQQMMAoGCCsGAQUFBwMCMAsGA1UdDwQEAwIHgDANBgkqhkiG
9w0BAQUFAAOCAgEAm6KrJ7OV/wqBEMEBiAO5MBczsHN8Ngq80gIHU373rBtz6OL0
yL2rRIzw5QmPKkO9vtachc8jNpCb8yGzw66QrNty4PqMLZwkDeYzxM/SnZZy4wcx
zZ7ooIMHMOPCjNA0uujMwx2ofPBq+u2J71jY5NbQnQo3Vvag3bhCjtdvGrsZe89g
832Uhzswe3afuih9eoOPGqTAQ5QI0tPkewu1nyEa/5qh94Cut3FZI0PPJfC344Jp
Q1HEeRL72XdS3DlMJpTeA5R0PHS1AdFayaQGGPa4YRe3tdq2Fxp8GZLtmfXE436x
olahahNrpl12eWTFtjXHIARercqRQoFFVoGry5/ZsjN8IxABhEO983Q4hZyLyp4N
OO8RcRE+/2v70Q/ZFcYpzj9qTZ9r3EYtSMD8J1ZJD8ihqjpXNs7pu3FiwpUhs3P1
Yj8GAcXW3KKe9GYL0XYwc2lghTGZ+LiE5amxXX1ircjisb6QhuIQcZFgZX+7UNVI
Aav1fWzUo0qnl13dehrMP93U6JuAmk5xMpWjYJjHs1NsldHIXSCqjM4yrtbPi2k+
HjNsdrEjj0fs783g2nXHpER4oMMzJLFwLZqZt6tTAc5BqR4qNDgHgBP2s8MrJ0rO
MA6Eji1n3nQ0dMmD5YX/5XcWtL6dNluErx4/Qk9rKimsAyFyJt7Url+Atag=
-----END CERTIFICATE-----
