Certificate:
    Data:
        Version: 3 (0x2)
        Serial Number: 612 (0x264)
    Signature Algorithm: sha1WithRSAEncryption
        Issuer: C=US, ST=CA, L=SanFrancisco, O=Pixglo, Inc., OU=VPN-CIE, CN=tunnel.pixglo.com/name=Bala Chandrasekaran/emailAddress=bala@pixglo.com
        Validity
            Not Before: Feb 14 06:38:26 2018 GMT
            Not After : Feb 12 06:38:26 2028 GMT
        Subject: C=US, ST=CA, L=SanFrancisco, O=Pixglo, Inc., OU=VPN-CIE, CN=cie611/name=Bala Chandrasekaran/emailAddress=bala@pixglo.com
        Subject Public Key Info:
            Public Key Algorithm: rsaEncryption
                Public-Key: (4096 bit)
                Modulus:
                    00:ce:b8:84:e2:a7:69:cf:83:2f:ae:dd:ad:f2:9f:
                    b9:6a:81:ab:ad:f5:9e:0b:c4:69:0d:5e:88:4a:1b:
                    61:6a:02:d8:f2:1f:02:b4:24:44:25:2d:ae:f3:d4:
                    45:05:8b:ac:cb:7e:73:85:f1:02:7e:00:ad:db:92:
                    44:cc:58:78:ae:69:77:83:bf:23:57:1d:98:8f:d7:
                    7e:3e:13:b1:6f:22:5a:40:ee:28:d9:0d:a1:f7:f1:
                    8a:b2:e1:a4:c4:8d:0a:49:75:62:c5:eb:18:a0:f4:
                    da:38:2b:b3:c7:6b:e7:1d:94:da:f2:4a:30:a9:ae:
                    79:1d:f7:05:92:e0:c6:52:1c:bb:6e:13:6b:36:7b:
                    05:52:0c:04:60:b7:a5:a3:ee:73:0d:55:e5:88:c1:
                    53:5b:72:e0:e0:1d:ce:bc:1d:30:c4:e8:20:c1:53:
                    8a:6a:93:b7:d5:31:5b:0b:3f:38:af:d6:51:fd:58:
                    f4:30:18:37:80:de:8a:0f:cf:d7:d6:6d:64:aa:d9:
                    bd:be:b3:4e:70:f2:09:f7:67:56:89:96:3a:af:9a:
                    76:eb:5c:1e:3c:b4:82:ff:61:bf:34:2e:e2:dc:d2:
                    c8:5e:48:14:6e:3c:89:86:b0:8c:ef:d3:f9:f7:46:
                    1a:d8:99:f5:65:bc:1b:a6:78:34:39:48:1c:45:41:
                    2f:46:b0:0a:51:90:dd:ba:ba:17:eb:b1:8f:ae:0c:
                    01:c6:ea:48:01:75:90:10:7b:d9:1a:5a:b6:ba:dc:
                    74:d8:7d:b5:01:d9:ba:5a:00:d9:9e:2f:ad:fc:33:
                    9a:69:a6:56:29:db:d4:6e:bc:65:a2:cd:32:85:3f:
                    5a:fe:2c:1b:e0:8c:e7:66:0c:fb:a5:be:ca:b6:3f:
                    11:2a:d1:f5:67:27:02:a0:a6:b9:9b:ff:40:6f:fe:
                    d7:e4:67:ab:f2:4b:33:16:33:a4:07:e3:3f:0c:f6:
                    5a:62:22:33:34:be:fe:88:36:4b:d5:fd:0d:3b:50:
                    cf:a7:1e:c5:ef:19:c2:7a:00:ec:cb:5e:14:8a:07:
                    3b:79:37:fa:cb:d2:fe:dc:c1:95:f1:48:b1:5e:b4:
                    06:53:6f:4a:f5:f0:22:3b:d5:92:12:c4:95:0b:56:
                    78:74:30:cd:cb:ed:c6:6c:86:30:cb:21:f7:e7:c9:
                    0a:71:13:f9:d9:77:73:5d:53:e5:e7:b4:a9:77:8d:
                    b3:07:02:8b:15:72:80:99:f5:81:bf:5f:26:3e:1c:
                    bc:02:71:46:23:a0:e0:56:9c:f8:98:a7:c9:46:d4:
                    27:11:d7:5c:24:ed:4a:84:3e:dc:63:15:c0:51:93:
                    9e:05:57:03:52:d0:d6:c8:55:f6:2d:d0:a7:81:17:
                    30:e4:cf
                Exponent: 65537 (0x10001)
        X509v3 extensions:
            X509v3 Basic Constraints: 
                CA:FALSE
            Netscape Comment: 
                Easy-RSA Generated Certificate
            X509v3 Subject Key Identifier: 
                89:18:2E:F5:38:44:30:B2:3A:F0:D9:7A:AA:FF:9C:E5:68:A9:85:A0
            X509v3 Authority Key Identifier: 
                keyid:EF:38:8D:14:50:58:A7:5B:4D:9C:17:72:FC:DF:B9:AC:A7:51:B0:10
                DirName:/C=US/ST=CA/L=SanFrancisco/O=Pixglo, Inc./OU=VPN-CIE/CN=tunnel.pixglo.com/name=Bala Chandrasekaran/emailAddress=bala@pixglo.com
                serial:A6:DB:C6:83:80:E6:A0:79

            X509v3 Extended Key Usage: 
                TLS Web Client Authentication
            X509v3 Key Usage: 
                Digital Signature
    Signature Algorithm: sha1WithRSAEncryption
         0a:f6:9d:b7:a7:70:02:27:be:87:23:5c:65:1c:3b:03:1d:d6:
         8e:29:b2:7b:b0:73:1f:ee:d6:6b:f0:4f:66:ef:4a:cd:b0:2a:
         cf:9e:e3:79:73:e8:aa:7e:16:79:a0:3a:ad:c6:14:4d:62:84:
         27:27:08:de:4e:13:02:52:73:69:f2:87:2e:2c:57:37:ff:89:
         91:e3:d3:30:cf:d6:cd:72:bf:2b:f4:aa:dc:26:6d:8c:a7:ef:
         21:6c:c8:36:10:df:70:a4:a8:6b:3a:cf:fa:c4:d7:b9:2f:dc:
         2a:d9:a6:ae:1a:66:d9:a6:9d:2e:1f:80:d5:ec:d4:f5:f0:fe:
         32:0e:17:43:94:88:65:1e:96:98:e7:01:df:34:52:83:93:be:
         7c:06:10:16:ed:02:ba:88:62:8f:a5:5b:98:33:4f:a6:1e:0f:
         7c:c1:84:b0:86:9b:39:f1:c7:a6:aa:48:e4:41:f6:45:81:5c:
         41:31:18:16:d3:69:f9:84:93:19:e9:58:60:87:2d:46:14:b1:
         84:eb:d6:57:5c:a2:b4:8a:19:36:09:8a:98:5c:62:bf:78:54:
         c9:0b:27:b5:ca:5c:3f:9b:e0:50:5a:ac:2a:d5:f5:44:53:cb:
         a4:2c:c4:1a:59:41:80:73:f6:56:f8:50:22:d8:42:e4:45:0a:
         11:4f:ae:c8:d6:ca:e3:54:67:43:d9:f2:82:d0:c3:d2:f4:c2:
         ff:bd:9f:c1:d5:84:e3:35:b7:2a:09:15:e3:2a:ab:2f:98:7e:
         d5:5a:a7:81:9c:bd:6b:bb:bd:77:57:2e:58:72:dd:35:4d:d9:
         3b:3e:71:c9:82:cc:a9:1b:52:a1:a3:6f:95:4b:b2:16:cc:2d:
         44:df:73:e0:b7:bc:7b:f5:c8:4d:ef:aa:f9:1e:eb:3a:8c:a0:
         dc:83:a6:34:99:42:08:83:d1:d3:8f:67:5e:98:3c:cf:47:6a:
         6a:2a:a7:5f:ee:1a:94:f1:72:04:f8:38:c6:4c:13:41:42:ca:
         27:91:aa:af:46:50:71:ef:83:22:1e:8a:0c:e0:51:c9:46:09:
         84:f6:83:bc:ef:43:f9:8f:3f:7d:a7:05:f7:3b:e0:96:82:f8:
         27:0c:fd:33:ca:26:4a:51:b4:96:69:cb:95:c9:2b:77:57:ab:
         08:37:e1:92:53:f1:44:b1:75:3e:07:38:dd:41:82:26:a4:29:
         ea:ae:88:ca:ef:15:f9:46:b0:05:bb:f3:7b:a2:40:3c:89:90:
         8c:d9:98:e4:aa:cd:c2:79:a2:f2:11:a0:73:59:1e:00:f6:19:
         a1:41:0f:55:54:aa:b8:f3:2f:2d:5c:8f:2c:a1:f5:d0:96:ae:
         76:b4:f7:11:4f:4b:88:47
-----BEGIN CERTIFICATE-----
MIIHSDCCBTCgAwIBAgICAmQwDQYJKoZIhvcNAQEFBQAwgbQxCzAJBgNVBAYTAlVT
MQswCQYDVQQIEwJDQTEVMBMGA1UEBxMMU2FuRnJhbmNpc2NvMRUwEwYDVQQKEwxQ
aXhnbG8sIEluYy4xEDAOBgNVBAsTB1ZQTi1DSUUxGjAYBgNVBAMTEXR1bm5lbC5w
aXhnbG8uY29tMRwwGgYDVQQpExNCYWxhIENoYW5kcmFzZWthcmFuMR4wHAYJKoZI
hvcNAQkBFg9iYWxhQHBpeGdsby5jb20wHhcNMTgwMjE0MDYzODI2WhcNMjgwMjEy
MDYzODI2WjCBqTELMAkGA1UEBhMCVVMxCzAJBgNVBAgTAkNBMRUwEwYDVQQHEwxT
YW5GcmFuY2lzY28xFTATBgNVBAoTDFBpeGdsbywgSW5jLjEQMA4GA1UECxMHVlBO
LUNJRTEPMA0GA1UEAxMGY2llNjExMRwwGgYDVQQpExNCYWxhIENoYW5kcmFzZWth
cmFuMR4wHAYJKoZIhvcNAQkBFg9iYWxhQHBpeGdsby5jb20wggIiMA0GCSqGSIb3
DQEBAQUAA4ICDwAwggIKAoICAQDOuITip2nPgy+u3a3yn7lqgaut9Z4LxGkNXohK
G2FqAtjyHwK0JEQlLa7z1EUFi6zLfnOF8QJ+AK3bkkTMWHiuaXeDvyNXHZiP134+
E7FvIlpA7ijZDaH38Yqy4aTEjQpJdWLF6xig9No4K7PHa+cdlNrySjCprnkd9wWS
4MZSHLtuE2s2ewVSDARgt6Wj7nMNVeWIwVNbcuDgHc68HTDE6CDBU4pqk7fVMVsL
Pziv1lH9WPQwGDeA3ooPz9fWbWSq2b2+s05w8gn3Z1aJljqvmnbrXB48tIL/Yb80
LuLc0sheSBRuPImGsIzv0/n3RhrYmfVlvBumeDQ5SBxFQS9GsApRkN26uhfrsY+u
DAHG6kgBdZAQe9kaWra63HTYfbUB2bpaANmeL638M5ppplYp29RuvGWizTKFP1r+
LBvgjOdmDPulvsq2PxEq0fVnJwKgprmb/0Bv/tfkZ6vySzMWM6QH4z8M9lpiIjM0
vv6INkvV/Q07UM+nHsXvGcJ6AOzLXhSKBzt5N/rL0v7cwZXxSLFetAZTb0r18CI7
1ZISxJULVnh0MM3L7cZshjDLIffnyQpxE/nZd3NdU+XntKl3jbMHAosVcoCZ9YG/
XyY+HLwCcUYjoOBWnPiYp8lG1CcR11wk7UqEPtxjFcBRk54FVwNS0NbIVfYt0KeB
FzDkzwIDAQABo4IBazCCAWcwCQYDVR0TBAIwADAtBglghkgBhvhCAQ0EIBYeRWFz
eS1SU0EgR2VuZXJhdGVkIENlcnRpZmljYXRlMB0GA1UdDgQWBBSJGC71OEQwsjrw
2Xqq/5zlaKmFoDCB6QYDVR0jBIHhMIHegBTvOI0UUFinW02cF3L837msp1GwEKGB
uqSBtzCBtDELMAkGA1UEBhMCVVMxCzAJBgNVBAgTAkNBMRUwEwYDVQQHEwxTYW5G
cmFuY2lzY28xFTATBgNVBAoTDFBpeGdsbywgSW5jLjEQMA4GA1UECxMHVlBOLUNJ
RTEaMBgGA1UEAxMRdHVubmVsLnBpeGdsby5jb20xHDAaBgNVBCkTE0JhbGEgQ2hh
bmRyYXNla2FyYW4xHjAcBgkqhkiG9w0BCQEWD2JhbGFAcGl4Z2xvLmNvbYIJAKbb
xoOA5qB5MBMGA1UdJQQMMAoGCCsGAQUFBwMCMAsGA1UdDwQEAwIHgDANBgkqhkiG
9w0BAQUFAAOCAgEACvadt6dwAie+hyNcZRw7Ax3Wjimye7BzH+7Wa/BPZu9KzbAq
z57jeXPoqn4WeaA6rcYUTWKEJycI3k4TAlJzafKHLixXN/+JkePTMM/WzXK/K/Sq
3CZtjKfvIWzINhDfcKSoazrP+sTXuS/cKtmmrhpm2aadLh+A1ezU9fD+Mg4XQ5SI
ZR6WmOcB3zRSg5O+fAYQFu0Cuohij6VbmDNPph4PfMGEsIabOfHHpqpI5EH2RYFc
QTEYFtNp+YSTGelYYIctRhSxhOvWV1yitIoZNgmKmFxiv3hUyQsntcpcP5vgUFqs
KtX1RFPLpCzEGllBgHP2VvhQIthC5EUKEU+uyNbK41RnQ9nygtDD0vTC/72fwdWE
4zW3KgkV4yqrL5h+1VqngZy9a7u9d1cuWHLdNU3ZOz5xyYLMqRtSoaNvlUuyFswt
RN9z4Le8e/XITe+q+R7rOoyg3IOmNJlCCIPR049nXpg8z0dqaiqnX+4alPFyBPg4
xkwTQULKJ5Gqr0ZQce+DIh6KDOBRyUYJhPaDvO9D+Y8/facF9zvgloL4Jwz9M8om
SlG0lmnLlckrd1erCDfhklPxRLF1Pgc43UGCJqQp6q6Iyu8V+UawBbvze6JAPImQ
jNmY5KrNwnmi8hGgc1keAPYZoUEPVVSquPMvLVyPLKH10JaudrT3EU9LiEc=
-----END CERTIFICATE-----
