Certificate:
    Data:
        Version: 3 (0x2)
        Serial Number: 614 (0x266)
    Signature Algorithm: sha1WithRSAEncryption
        Issuer: C=US, ST=CA, L=SanFrancisco, O=Pixglo, Inc., OU=VPN-CIE, CN=tunnel.pixglo.com/name=Bala Chandrasekaran/emailAddress=bala@pixglo.com
        Validity
            Not Before: Feb 14 06:38:28 2018 GMT
            Not After : Feb 12 06:38:28 2028 GMT
        Subject: C=US, ST=CA, L=SanFrancisco, O=Pixglo, Inc., OU=VPN-CIE, CN=cie613/name=Bala Chandrasekaran/emailAddress=bala@pixglo.com
        Subject Public Key Info:
            Public Key Algorithm: rsaEncryption
                Public-Key: (4096 bit)
                Modulus:
                    00:e3:bc:8c:06:51:0a:20:89:51:c7:04:56:b7:da:
                    6c:ee:89:dc:b3:28:47:0f:ba:6d:3c:d8:6a:25:54:
                    19:5f:9f:78:90:c3:72:9c:8b:90:7b:f1:a0:11:be:
                    6d:4f:17:b5:01:0b:57:71:3d:dc:1c:72:d8:65:95:
                    59:52:b2:8b:2b:68:07:f2:6d:d0:00:3d:09:e5:72:
                    88:ce:48:17:66:00:11:9b:95:f4:9c:a1:04:62:68:
                    80:d0:de:8c:bf:c5:f2:2a:9b:90:9e:1f:3c:91:7d:
                    79:cc:86:db:9e:3e:4e:51:1b:18:57:a6:f3:53:22:
                    6e:a3:b5:0d:bc:c1:56:f7:bb:ca:77:ad:ad:36:cf:
                    f0:39:c8:22:57:a2:87:0c:8e:f0:33:66:0b:22:07:
                    24:26:b0:77:d2:3f:71:eb:f6:74:33:e2:95:bc:9b:
                    4e:2c:01:a8:3e:3c:bf:de:6a:11:4b:05:79:d9:ab:
                    ea:11:12:62:ea:cc:1f:e0:c1:69:1e:4f:39:e3:70:
                    8f:d9:f4:30:75:16:b2:6d:b8:55:53:04:43:3d:29:
                    d3:b5:aa:ed:ef:84:99:b2:3b:76:9e:ce:7e:9a:e0:
                    a6:e2:55:55:8b:8a:10:10:86:b8:6e:3e:bb:c4:33:
                    ea:51:46:b4:a6:49:bf:01:03:4f:87:4a:d0:ce:b9:
                    94:4e:ee:97:cd:de:87:ee:25:37:72:5b:10:38:aa:
                    ee:66:ce:81:d9:c4:18:62:9c:26:38:5b:fe:aa:85:
                    fa:d6:a0:06:12:18:cd:41:4f:8d:42:7b:b7:e0:f5:
                    a9:57:7d:f8:78:d8:d2:61:51:3b:60:f7:a6:47:75:
                    17:8d:1c:ff:e5:fd:61:3b:cb:dd:0b:bb:e7:cf:77:
                    4a:5f:54:9d:db:16:18:c8:62:bb:39:59:48:74:ce:
                    cf:84:1e:5a:93:12:f2:91:7e:3b:7f:a6:6f:8e:a1:
                    81:bd:5f:92:fc:ce:94:b0:5b:ba:6a:e9:34:04:aa:
                    d5:19:bf:da:3f:d4:8e:c3:26:95:67:b0:8c:77:cc:
                    34:69:7a:9d:9a:17:0c:16:ff:60:d1:86:4d:a7:9a:
                    4e:ce:02:52:f9:20:7e:c3:dd:3a:c3:fd:35:a2:15:
                    4f:50:49:0b:a7:8a:99:cd:3e:1c:37:3a:4f:dd:08:
                    c4:74:af:a1:46:99:77:a0:89:ad:a2:e8:fa:43:90:
                    ba:cb:59:79:10:95:43:b0:86:40:08:ea:79:e7:7f:
                    8c:17:01:44:4c:ba:93:84:ef:50:fe:9f:93:10:83:
                    a1:7b:f2:d8:56:3d:89:5c:83:7a:61:f2:b9:62:b4:
                    2d:cb:64:ce:ff:49:ae:3f:dc:ca:b8:2c:be:8a:0d:
                    44:f2:63
                Exponent: 65537 (0x10001)
        X509v3 extensions:
            X509v3 Basic Constraints: 
                CA:FALSE
            Netscape Comment: 
                Easy-RSA Generated Certificate
            X509v3 Subject Key Identifier: 
                85:B2:36:B9:07:D4:46:45:08:CB:E9:CA:4D:61:E3:FC:AC:2E:B5:42
            X509v3 Authority Key Identifier: 
                keyid:EF:38:8D:14:50:58:A7:5B:4D:9C:17:72:FC:DF:B9:AC:A7:51:B0:10
                DirName:/C=US/ST=CA/L=SanFrancisco/O=Pixglo, Inc./OU=VPN-CIE/CN=tunnel.pixglo.com/name=Bala Chandrasekaran/emailAddress=bala@pixglo.com
                serial:A6:DB:C6:83:80:E6:A0:79

            X509v3 Extended Key Usage: 
                TLS Web Client Authentication
            X509v3 Key Usage: 
                Digital Signature
    Signature Algorithm: sha1WithRSAEncryption
         1f:0d:cc:a5:fa:0d:4c:db:51:e6:5a:2f:56:63:8f:e2:33:af:
         c0:ed:d0:02:e5:98:78:4b:29:f4:21:de:24:6f:d0:51:60:a6:
         ae:f4:65:04:2a:94:86:20:52:08:02:46:bc:15:5d:07:35:35:
         93:f8:47:7a:69:ff:4a:4e:61:ab:bf:8d:98:b5:02:78:43:79:
         d8:2e:42:15:16:79:5b:a5:c7:7f:b6:25:64:80:8d:f0:e5:30:
         0c:a0:24:cc:21:56:04:42:af:54:94:51:69:45:76:23:14:df:
         1a:bc:2b:1c:a8:7e:1d:17:b2:cf:f1:f1:5f:4e:c6:d5:00:f9:
         38:4f:92:c5:cc:65:ef:e8:0d:58:07:0f:9e:1a:f9:d6:a2:b2:
         ef:4e:1c:9b:4e:5b:1c:54:e5:8e:87:a7:50:3d:eb:46:40:fb:
         db:15:2f:86:dc:74:4d:62:96:87:bc:cf:46:23:e2:1c:06:f0:
         5f:63:f8:81:92:ad:c2:e2:72:df:84:a2:1a:d6:f2:68:d2:37:
         03:4d:df:86:a0:f0:11:6d:21:c2:ef:67:2e:40:c2:d6:fd:45:
         1b:ab:d2:26:d0:0c:64:cb:d9:5f:84:c5:f3:f4:49:31:9d:18:
         be:84:a9:f3:62:1c:dd:b4:97:9c:42:54:0d:02:07:f3:17:0e:
         e3:47:d2:ed:c1:bc:b1:61:db:03:18:e9:c4:51:6d:86:23:01:
         09:60:3b:11:c6:b2:2f:3d:2a:cb:ca:93:a9:b0:0d:ae:5b:4d:
         a4:a6:c2:65:f1:10:36:b2:98:99:23:22:89:8d:18:0f:b5:c1:
         11:27:9d:11:d1:5f:d2:0d:6c:cc:01:d0:6f:e5:32:05:c4:06:
         bd:49:79:81:50:43:8f:57:7d:2f:77:c3:ea:f6:8d:18:71:f8:
         b5:bf:87:5c:ac:aa:3d:bf:c9:ec:03:83:78:4d:aa:f2:32:09:
         2d:67:dd:8c:27:b7:23:9f:25:6f:97:b4:0c:a6:5c:80:aa:d2:
         50:48:7d:9a:8e:38:0b:23:9c:f6:26:5d:d2:cb:35:3a:99:46:
         4f:43:62:02:a7:d6:18:f1:2e:58:b6:9c:aa:70:fd:84:6b:dc:
         7a:cd:9a:be:06:b1:cf:a0:c4:8d:9a:9b:45:70:d9:9e:f5:03:
         82:97:22:5a:8b:27:d1:0c:b7:87:01:e1:26:5d:d7:f4:f2:38:
         65:da:0f:63:c6:4f:49:f0:34:e4:6b:4c:53:ac:29:19:a9:68:
         0a:90:df:20:72:59:20:75:64:2a:d7:35:e2:c0:f2:9e:d0:28:
         18:62:52:c5:17:24:60:96:29:ff:23:a0:98:56:cb:11:f2:07:
         4f:52:de:1f:1c:19:77:c8
-----BEGIN CERTIFICATE-----
MIIHSDCCBTCgAwIBAgICAmYwDQYJKoZIhvcNAQEFBQAwgbQxCzAJBgNVBAYTAlVT
MQswCQYDVQQIEwJDQTEVMBMGA1UEBxMMU2FuRnJhbmNpc2NvMRUwEwYDVQQKEwxQ
aXhnbG8sIEluYy4xEDAOBgNVBAsTB1ZQTi1DSUUxGjAYBgNVBAMTEXR1bm5lbC5w
aXhnbG8uY29tMRwwGgYDVQQpExNCYWxhIENoYW5kcmFzZWthcmFuMR4wHAYJKoZI
hvcNAQkBFg9iYWxhQHBpeGdsby5jb20wHhcNMTgwMjE0MDYzODI4WhcNMjgwMjEy
MDYzODI4WjCBqTELMAkGA1UEBhMCVVMxCzAJBgNVBAgTAkNBMRUwEwYDVQQHEwxT
YW5GcmFuY2lzY28xFTATBgNVBAoTDFBpeGdsbywgSW5jLjEQMA4GA1UECxMHVlBO
LUNJRTEPMA0GA1UEAxMGY2llNjEzMRwwGgYDVQQpExNCYWxhIENoYW5kcmFzZWth
cmFuMR4wHAYJKoZIhvcNAQkBFg9iYWxhQHBpeGdsby5jb20wggIiMA0GCSqGSIb3
DQEBAQUAA4ICDwAwggIKAoICAQDjvIwGUQogiVHHBFa32mzuidyzKEcPum082Gol
VBlfn3iQw3Kci5B78aARvm1PF7UBC1dxPdwccthllVlSsosraAfybdAAPQnlcojO
SBdmABGblfScoQRiaIDQ3oy/xfIqm5CeHzyRfXnMhtuePk5RGxhXpvNTIm6jtQ28
wVb3u8p3ra02z/A5yCJXoocMjvAzZgsiByQmsHfSP3Hr9nQz4pW8m04sAag+PL/e
ahFLBXnZq+oREmLqzB/gwWkeTznjcI/Z9DB1FrJtuFVTBEM9KdO1qu3vhJmyO3ae
zn6a4KbiVVWLihAQhrhuPrvEM+pRRrSmSb8BA0+HStDOuZRO7pfN3ofuJTdyWxA4
qu5mzoHZxBhinCY4W/6qhfrWoAYSGM1BT41Ce7fg9alXffh42NJhUTtg96ZHdReN
HP/l/WE7y90Lu+fPd0pfVJ3bFhjIYrs5WUh0zs+EHlqTEvKRfjt/pm+OoYG9X5L8
zpSwW7pq6TQEqtUZv9o/1I7DJpVnsIx3zDRpep2aFwwW/2DRhk2nmk7OAlL5IH7D
3TrD/TWiFU9QSQunipnNPhw3Ok/dCMR0r6FGmXegia2i6PpDkLrLWXkQlUOwhkAI
6nnnf4wXAURMupOE71D+n5MQg6F78thWPYlcg3ph8rlitC3LZM7/Sa4/3Mq4LL6K
DUTyYwIDAQABo4IBazCCAWcwCQYDVR0TBAIwADAtBglghkgBhvhCAQ0EIBYeRWFz
eS1SU0EgR2VuZXJhdGVkIENlcnRpZmljYXRlMB0GA1UdDgQWBBSFsja5B9RGRQjL
6cpNYeP8rC61QjCB6QYDVR0jBIHhMIHegBTvOI0UUFinW02cF3L837msp1GwEKGB
uqSBtzCBtDELMAkGA1UEBhMCVVMxCzAJBgNVBAgTAkNBMRUwEwYDVQQHEwxTYW5G
cmFuY2lzY28xFTATBgNVBAoTDFBpeGdsbywgSW5jLjEQMA4GA1UECxMHVlBOLUNJ
RTEaMBgGA1UEAxMRdHVubmVsLnBpeGdsby5jb20xHDAaBgNVBCkTE0JhbGEgQ2hh
bmRyYXNla2FyYW4xHjAcBgkqhkiG9w0BCQEWD2JhbGFAcGl4Z2xvLmNvbYIJAKbb
xoOA5qB5MBMGA1UdJQQMMAoGCCsGAQUFBwMCMAsGA1UdDwQEAwIHgDANBgkqhkiG
9w0BAQUFAAOCAgEAHw3MpfoNTNtR5lovVmOP4jOvwO3QAuWYeEsp9CHeJG/QUWCm
rvRlBCqUhiBSCAJGvBVdBzU1k/hHemn/Sk5hq7+NmLUCeEN52C5CFRZ5W6XHf7Yl
ZICN8OUwDKAkzCFWBEKvVJRRaUV2IxTfGrwrHKh+HReyz/HxX07G1QD5OE+Sxcxl
7+gNWAcPnhr51qKy704cm05bHFTljoenUD3rRkD72xUvhtx0TWKWh7zPRiPiHAbw
X2P4gZKtwuJy34SiGtbyaNI3A03fhqDwEW0hwu9nLkDC1v1FG6vSJtAMZMvZX4TF
8/RJMZ0YvoSp82Ic3bSXnEJUDQIH8xcO40fS7cG8sWHbAxjpxFFthiMBCWA7Ecay
Lz0qy8qTqbANrltNpKbCZfEQNrKYmSMiiY0YD7XBESedEdFf0g1szAHQb+UyBcQG
vUl5gVBDj1d9L3fD6vaNGHH4tb+HXKyqPb/J7AODeE2q8jIJLWfdjCe3I58lb5e0
DKZcgKrSUEh9mo44CyOc9iZd0ss1OplGT0NiAqfWGPEuWLacqnD9hGvces2avgax
z6DEjZqbRXDZnvUDgpciWosn0Qy3hwHhJl3X9PI4ZdoPY8ZPSfA05GtMU6wpGalo
CpDfIHJZIHVkKtc14sDyntAoGGJSxRckYJYp/yOgmFbLEfIHT1LeHxwZd8g=
-----END CERTIFICATE-----
