Certificate:
    Data:
        Version: 3 (0x2)
        Serial Number: 616 (0x268)
    Signature Algorithm: sha1WithRSAEncryption
        Issuer: C=US, ST=CA, L=SanFrancisco, O=Pixglo, Inc., OU=VPN-CIE, CN=tunnel.pixglo.com/name=Bala Chandrasekaran/emailAddress=bala@pixglo.com
        Validity
            Not Before: Feb 14 06:38:29 2018 GMT
            Not After : Feb 12 06:38:29 2028 GMT
        Subject: C=US, ST=CA, L=SanFrancisco, O=Pixglo, Inc., OU=VPN-CIE, CN=cie615/name=Bala Chandrasekaran/emailAddress=bala@pixglo.com
        Subject Public Key Info:
            Public Key Algorithm: rsaEncryption
                Public-Key: (4096 bit)
                Modulus:
                    00:ae:9b:db:e7:e4:a1:64:53:b8:1b:57:ac:00:62:
                    cd:90:62:5b:98:0a:9c:97:33:f9:8e:c8:fb:0f:56:
                    3d:b4:88:b6:e9:d0:68:27:e8:55:0d:be:34:d8:d2:
                    e0:41:1e:c1:87:2c:ef:e2:e9:cb:61:fa:47:8d:d1:
                    e8:4c:45:64:3a:b7:8c:1a:d5:cb:f6:88:64:13:ae:
                    5b:e8:ad:ee:06:29:11:cf:ed:bd:99:70:32:d8:fd:
                    69:ee:b7:2d:24:d0:e6:2f:b6:79:e1:1a:41:b1:ea:
                    67:fe:c5:5c:3f:2f:45:cc:b7:3f:cf:e7:ca:fa:65:
                    9a:70:59:1c:b0:98:e5:0d:94:7e:80:e6:cf:a0:54:
                    be:e2:d0:0f:33:b5:08:23:e5:32:f3:45:63:ba:06:
                    c0:28:35:f6:f9:47:83:bc:89:88:6d:b9:25:ff:36:
                    64:67:2f:57:e0:fc:92:5d:fe:3f:28:ac:4a:e6:21:
                    14:ee:0a:64:f5:5c:ec:af:be:e1:22:e2:bb:16:e6:
                    c4:1c:4d:cd:6b:02:39:d6:d2:63:99:6c:c8:47:8e:
                    95:f5:f7:a3:45:fe:30:80:22:27:3c:d3:90:d7:b2:
                    cc:06:1d:e1:ca:82:46:67:db:24:8a:4c:a2:09:51:
                    c4:27:57:40:46:f2:3b:19:30:68:60:2e:93:bf:d3:
                    28:03:6b:c0:8f:71:6c:45:5b:f8:d9:e7:ec:26:32:
                    62:48:69:99:1d:b1:78:6e:81:a2:5e:b9:e9:8b:56:
                    8c:0b:9d:0a:5b:44:37:96:38:96:22:fd:d9:5a:9c:
                    d1:14:6a:65:e4:ac:6b:89:0a:3b:a3:45:12:49:52:
                    3d:e9:57:09:bb:a1:a4:af:9e:92:60:90:aa:b5:c6:
                    ad:75:fe:e5:d0:c9:13:29:4e:c8:db:d9:2b:1a:dd:
                    be:8c:42:b8:de:af:45:3c:df:0a:be:bd:16:3f:d8:
                    86:28:1c:0a:57:27:7c:c7:a7:b4:1a:77:b9:d0:bd:
                    da:19:47:b7:af:69:de:56:83:c8:1f:f1:7a:0a:60:
                    2c:38:03:e0:a4:0f:d8:d6:26:b4:a4:3d:60:f9:61:
                    d7:bc:0f:e3:ea:f7:12:f3:05:7f:1b:cb:df:96:f0:
                    82:f7:e9:cd:e6:08:68:f8:3b:aa:7f:2f:ef:49:71:
                    88:51:2f:70:3b:b2:5b:7b:b0:f2:2a:31:0b:77:47:
                    4b:fa:db:bc:f3:af:4c:66:60:0b:eb:cd:1d:4c:1e:
                    9c:b8:7d:fc:f9:15:48:89:8c:50:7f:1d:8d:a5:9e:
                    7f:3a:39:8b:03:92:cf:53:fa:5e:eb:76:5f:e8:44:
                    3a:23:ee:27:f7:96:2d:7a:05:97:7d:92:8a:49:69:
                    b1:1e:9d
                Exponent: 65537 (0x10001)
        X509v3 extensions:
            X509v3 Basic Constraints: 
                CA:FALSE
            Netscape Comment: 
                Easy-RSA Generated Certificate
            X509v3 Subject Key Identifier: 
                10:CB:2D:6E:35:11:80:85:41:10:EF:4B:1F:57:98:FA:C9:07:21:94
            X509v3 Authority Key Identifier: 
                keyid:EF:38:8D:14:50:58:A7:5B:4D:9C:17:72:FC:DF:B9:AC:A7:51:B0:10
                DirName:/C=US/ST=CA/L=SanFrancisco/O=Pixglo, Inc./OU=VPN-CIE/CN=tunnel.pixglo.com/name=Bala Chandrasekaran/emailAddress=bala@pixglo.com
                serial:A6:DB:C6:83:80:E6:A0:79

            X509v3 Extended Key Usage: 
                TLS Web Client Authentication
            X509v3 Key Usage: 
                Digital Signature
    Signature Algorithm: sha1WithRSAEncryption
         e2:1b:93:ed:1e:a8:f1:63:f9:c0:62:bc:a8:4c:f5:78:b1:98:
         b4:63:3b:1c:45:bc:87:ac:9b:6b:ca:28:2f:62:c2:85:20:96:
         18:ea:52:ab:43:37:c1:76:fe:11:08:58:49:9c:85:8a:5b:69:
         25:57:23:7a:52:53:bf:8f:42:62:4f:91:75:1e:cb:e1:96:5f:
         e5:90:4f:46:a6:71:4e:35:56:9f:35:13:ce:79:80:47:08:6e:
         36:b7:7a:25:14:d2:46:e4:6e:90:8a:e1:95:ee:4d:18:0b:e0:
         fa:c1:2e:c3:56:df:27:fa:82:05:16:47:cb:2d:5e:4c:6f:c1:
         f2:27:06:f6:de:aa:89:cd:92:56:61:07:46:c6:28:c4:55:14:
         fb:86:11:98:ec:da:2d:ba:b2:19:c3:57:72:33:e2:87:1e:fb:
         fa:76:36:8e:e9:15:53:79:c3:b3:e9:c5:4c:c6:f9:ad:b4:2e:
         f5:07:0b:bc:72:8a:24:61:5c:ff:66:ed:3a:5e:0d:0f:7f:53:
         9d:89:3b:04:d6:89:7c:7e:73:a1:e1:1f:4e:2e:69:8f:8e:72:
         ad:ab:6a:17:a5:ca:79:85:6c:ee:bb:23:8b:0d:e6:ee:66:e3:
         13:52:0c:97:53:41:3c:b8:79:10:53:3d:c0:43:99:e9:2b:40:
         72:df:cc:42:d5:54:2e:e7:3f:ab:02:8d:c1:84:66:8b:d9:22:
         d2:89:a0:7a:13:e6:9d:ed:46:d0:c3:d8:a8:c7:34:28:a5:88:
         7e:23:cb:14:15:9c:70:dd:1c:a6:b8:80:5b:c0:82:01:67:1b:
         1b:6a:b4:7c:82:e1:b6:8c:38:a8:c0:99:d8:b9:66:6c:3a:f4:
         1a:81:21:bd:e1:d7:ad:04:ef:40:a0:bc:2b:a1:53:3c:f2:d1:
         24:fb:57:87:00:f7:f6:63:cb:57:58:b5:ab:d4:4d:33:aa:7c:
         94:ab:05:95:eb:d0:f7:60:ca:cb:c8:50:8a:4f:1c:40:4c:69:
         6f:97:d3:c5:87:e1:6e:7e:15:a7:eb:c8:ee:0d:25:d8:a9:4e:
         6f:d4:d7:2a:f9:e9:21:a8:90:53:9f:a3:be:ac:ae:de:19:9f:
         2f:a3:e1:c8:6e:07:38:ce:78:69:02:36:f0:8a:90:16:1c:df:
         35:00:a0:ff:f8:b3:10:35:f2:81:e5:a7:78:e5:04:1c:53:76:
         15:33:e4:3c:1d:7a:89:bf:24:67:e8:77:65:ab:43:99:53:c5:
         66:65:d4:eb:6c:42:9d:ca:79:c9:9b:23:93:31:25:97:9f:be:
         d1:16:c4:b2:2c:4b:eb:23:82:4b:93:c1:ea:2f:36:2a:01:b5:
         07:6a:9e:55:60:e8:03:f0
-----BEGIN CERTIFICATE-----
MIIHSDCCBTCgAwIBAgICAmgwDQYJKoZIhvcNAQEFBQAwgbQxCzAJBgNVBAYTAlVT
MQswCQYDVQQIEwJDQTEVMBMGA1UEBxMMU2FuRnJhbmNpc2NvMRUwEwYDVQQKEwxQ
aXhnbG8sIEluYy4xEDAOBgNVBAsTB1ZQTi1DSUUxGjAYBgNVBAMTEXR1bm5lbC5w
aXhnbG8uY29tMRwwGgYDVQQpExNCYWxhIENoYW5kcmFzZWthcmFuMR4wHAYJKoZI
hvcNAQkBFg9iYWxhQHBpeGdsby5jb20wHhcNMTgwMjE0MDYzODI5WhcNMjgwMjEy
MDYzODI5WjCBqTELMAkGA1UEBhMCVVMxCzAJBgNVBAgTAkNBMRUwEwYDVQQHEwxT
YW5GcmFuY2lzY28xFTATBgNVBAoTDFBpeGdsbywgSW5jLjEQMA4GA1UECxMHVlBO
LUNJRTEPMA0GA1UEAxMGY2llNjE1MRwwGgYDVQQpExNCYWxhIENoYW5kcmFzZWth
cmFuMR4wHAYJKoZIhvcNAQkBFg9iYWxhQHBpeGdsby5jb20wggIiMA0GCSqGSIb3
DQEBAQUAA4ICDwAwggIKAoICAQCum9vn5KFkU7gbV6wAYs2QYluYCpyXM/mOyPsP
Vj20iLbp0Ggn6FUNvjTY0uBBHsGHLO/i6cth+keN0ehMRWQ6t4wa1cv2iGQTrlvo
re4GKRHP7b2ZcDLY/Wnuty0k0OYvtnnhGkGx6mf+xVw/L0XMtz/P58r6ZZpwWRyw
mOUNlH6A5s+gVL7i0A8ztQgj5TLzRWO6BsAoNfb5R4O8iYhtuSX/NmRnL1fg/JJd
/j8orErmIRTuCmT1XOyvvuEi4rsW5sQcTc1rAjnW0mOZbMhHjpX196NF/jCAIic8
05DXsswGHeHKgkZn2ySKTKIJUcQnV0BG8jsZMGhgLpO/0ygDa8CPcWxFW/jZ5+wm
MmJIaZkdsXhugaJeuemLVowLnQpbRDeWOJYi/dlanNEUamXkrGuJCjujRRJJUj3p
Vwm7oaSvnpJgkKq1xq11/uXQyRMpTsjb2Ssa3b6MQrjer0U83wq+vRY/2IYoHApX
J3zHp7Qad7nQvdoZR7evad5Wg8gf8XoKYCw4A+CkD9jWJrSkPWD5Yde8D+Pq9xLz
BX8by9+W8IL36c3mCGj4O6p/L+9JcYhRL3A7slt7sPIqMQt3R0v627zzr0xmYAvr
zR1MHpy4ffz5FUiJjFB/HY2lnn86OYsDks9T+l7rdl/oRDoj7if3li16BZd9kopJ
abEenQIDAQABo4IBazCCAWcwCQYDVR0TBAIwADAtBglghkgBhvhCAQ0EIBYeRWFz
eS1SU0EgR2VuZXJhdGVkIENlcnRpZmljYXRlMB0GA1UdDgQWBBQQyy1uNRGAhUEQ
70sfV5j6yQchlDCB6QYDVR0jBIHhMIHegBTvOI0UUFinW02cF3L837msp1GwEKGB
uqSBtzCBtDELMAkGA1UEBhMCVVMxCzAJBgNVBAgTAkNBMRUwEwYDVQQHEwxTYW5G
cmFuY2lzY28xFTATBgNVBAoTDFBpeGdsbywgSW5jLjEQMA4GA1UECxMHVlBOLUNJ
RTEaMBgGA1UEAxMRdHVubmVsLnBpeGdsby5jb20xHDAaBgNVBCkTE0JhbGEgQ2hh
bmRyYXNla2FyYW4xHjAcBgkqhkiG9w0BCQEWD2JhbGFAcGl4Z2xvLmNvbYIJAKbb
xoOA5qB5MBMGA1UdJQQMMAoGCCsGAQUFBwMCMAsGA1UdDwQEAwIHgDANBgkqhkiG
9w0BAQUFAAOCAgEA4huT7R6o8WP5wGK8qEz1eLGYtGM7HEW8h6yba8ooL2LChSCW
GOpSq0M3wXb+EQhYSZyFiltpJVcjelJTv49CYk+RdR7L4ZZf5ZBPRqZxTjVWnzUT
znmARwhuNrd6JRTSRuRukIrhle5NGAvg+sEuw1bfJ/qCBRZHyy1eTG/B8icG9t6q
ic2SVmEHRsYoxFUU+4YRmOzaLbqyGcNXcjPihx77+nY2jukVU3nDs+nFTMb5rbQu
9QcLvHKKJGFc/2btOl4ND39TnYk7BNaJfH5zoeEfTi5pj45yratqF6XKeYVs7rsj
iw3m7mbjE1IMl1NBPLh5EFM9wEOZ6StAct/MQtVULuc/qwKNwYRmi9ki0omgehPm
ne1G0MPYqMc0KKWIfiPLFBWccN0cpriAW8CCAWcbG2q0fILhtow4qMCZ2LlmbDr0
GoEhveHXrQTvQKC8K6FTPPLRJPtXhwD39mPLV1i1q9RNM6p8lKsFlevQ92DKy8hQ
ik8cQExpb5fTxYfhbn4Vp+vI7g0l2KlOb9TXKvnpIaiQU5+jvqyu3hmfL6PhyG4H
OM54aQI28IqQFhzfNQCg//izEDXygeWneOUEHFN2FTPkPB16ib8kZ+h3ZatDmVPF
ZmXU62xCncp5yZsjkzEll5++0RbEsixL6yOCS5PB6i82KgG1B2qeVWDoA/A=
-----END CERTIFICATE-----
