Certificate:
    Data:
        Version: 3 (0x2)
        Serial Number: 618 (0x26a)
    Signature Algorithm: sha1WithRSAEncryption
        Issuer: C=US, ST=CA, L=SanFrancisco, O=Pixglo, Inc., OU=VPN-CIE, CN=tunnel.pixglo.com/name=Bala Chandrasekaran/emailAddress=bala@pixglo.com
        Validity
            Not Before: Feb 14 06:38:32 2018 GMT
            Not After : Feb 12 06:38:32 2028 GMT
        Subject: C=US, ST=CA, L=SanFrancisco, O=Pixglo, Inc., OU=VPN-CIE, CN=cie617/name=Bala Chandrasekaran/emailAddress=bala@pixglo.com
        Subject Public Key Info:
            Public Key Algorithm: rsaEncryption
                Public-Key: (4096 bit)
                Modulus:
                    00:df:85:88:34:0a:b6:2b:0e:5a:13:f2:57:59:6b:
                    b4:f5:2b:66:56:16:02:83:d8:00:81:6b:2e:1e:09:
                    5b:3c:cb:9a:6e:86:86:b0:d8:59:56:71:0a:4b:55:
                    d9:93:24:5e:c9:64:ab:8e:de:ee:49:59:e3:cc:bd:
                    ae:2b:77:68:db:39:34:52:ee:c5:0a:6e:e9:eb:15:
                    ef:e3:c0:db:32:bd:ae:70:f4:05:c7:0f:38:7c:21:
                    c3:d4:dd:9a:25:98:bc:7f:0b:a9:5b:da:d8:d9:8f:
                    56:b2:91:b7:ac:7c:f8:75:27:fe:d8:d0:01:ac:ed:
                    2e:ef:95:44:46:85:34:7f:54:c3:25:60:eb:a3:df:
                    e1:3e:69:93:5e:08:67:d3:db:10:98:ed:c4:9c:78:
                    86:d0:f8:6d:06:30:ae:7b:2b:21:0e:1f:ff:f1:b9:
                    a4:31:98:85:31:e1:18:a5:e0:47:7b:e9:8c:6f:f1:
                    e0:4c:3d:95:1e:2d:58:30:1f:87:97:e9:4a:c5:79:
                    5f:c4:69:bf:48:d4:83:43:70:5d:ed:d3:39:0d:6c:
                    c0:ba:e3:4e:00:4e:25:b0:e6:e7:68:57:d9:8f:7a:
                    6d:68:1f:08:e8:64:c0:7b:f2:a7:e7:77:4e:41:9e:
                    a1:d2:6f:80:45:07:7e:55:a4:1e:82:74:ea:6f:60:
                    2b:3c:fb:40:c9:73:de:95:7d:ad:27:70:3b:59:db:
                    8f:99:1f:d7:1f:ff:4e:11:90:1b:92:4a:88:0b:bb:
                    be:7b:77:58:64:25:83:f2:d5:02:59:81:48:9d:f1:
                    17:e6:14:a2:f5:6f:bf:34:06:be:21:35:0d:f0:34:
                    e9:97:27:78:0e:1b:6a:0a:9b:87:8a:ed:26:07:e3:
                    94:e7:10:dd:af:c2:b7:35:fa:8f:fc:1e:91:af:e8:
                    1d:f4:9b:6e:e4:5a:37:f0:61:21:2b:e8:8e:9b:c4:
                    dc:a9:d9:20:a3:41:e3:43:d0:8d:ed:51:94:41:2f:
                    90:76:20:0a:87:4f:0e:21:5f:98:c5:af:14:0d:c9:
                    7b:a1:03:b8:fd:d7:da:a2:67:bb:37:e6:88:27:10:
                    b5:fc:ae:14:4e:cf:8b:61:2e:ee:ef:fd:6a:48:5c:
                    3e:4e:b9:46:51:99:8e:71:e0:d2:4e:1a:cd:e2:36:
                    59:9b:21:b7:2e:04:39:47:b9:63:cb:a3:79:e1:0b:
                    7a:89:9e:42:7f:dd:46:16:3b:a4:d1:69:9d:7f:b6:
                    59:a4:f2:ae:db:e8:d5:d6:3f:82:88:39:d3:69:72:
                    62:4d:d3:c2:a0:96:87:14:7b:be:a0:07:0e:41:10:
                    9c:47:25:f7:fc:a2:da:fd:ca:11:25:21:a9:d7:2b:
                    f6:15:a7
                Exponent: 65537 (0x10001)
        X509v3 extensions:
            X509v3 Basic Constraints: 
                CA:FALSE
            Netscape Comment: 
                Easy-RSA Generated Certificate
            X509v3 Subject Key Identifier: 
                32:D6:0D:34:AD:00:6A:AA:8A:2A:B8:3D:87:53:45:21:BD:05:D8:B1
            X509v3 Authority Key Identifier: 
                keyid:EF:38:8D:14:50:58:A7:5B:4D:9C:17:72:FC:DF:B9:AC:A7:51:B0:10
                DirName:/C=US/ST=CA/L=SanFrancisco/O=Pixglo, Inc./OU=VPN-CIE/CN=tunnel.pixglo.com/name=Bala Chandrasekaran/emailAddress=bala@pixglo.com
                serial:A6:DB:C6:83:80:E6:A0:79

            X509v3 Extended Key Usage: 
                TLS Web Client Authentication
            X509v3 Key Usage: 
                Digital Signature
    Signature Algorithm: sha1WithRSAEncryption
         37:50:c8:c7:35:83:c8:cd:2d:32:c7:10:d7:c1:44:d4:aa:c3:
         33:6b:49:a7:fd:80:b4:31:89:54:31:d3:24:c0:02:94:43:d7:
         a2:05:4b:1c:a5:aa:a1:4c:58:0a:1d:9a:66:f2:bc:9e:3e:d4:
         a1:39:dc:ee:40:1b:99:61:26:08:67:68:20:38:4a:75:07:5d:
         e1:06:94:29:a3:ef:8f:52:ef:4d:75:80:93:a5:1e:6c:e6:4d:
         77:86:63:49:f5:ce:b3:56:45:e5:48:97:d1:bd:e4:40:ad:83:
         2c:52:af:82:eb:ec:f6:28:d2:2f:44:18:76:9b:66:34:d0:a3:
         ea:ed:81:69:11:3f:d1:f8:22:61:d7:9f:c0:9b:6b:0e:ed:de:
         e4:7d:74:df:a9:68:7b:d6:1e:45:dd:7c:50:fa:8f:5d:1e:f2:
         7f:f9:64:41:25:12:29:8f:92:6e:38:89:22:ce:2d:7e:b4:06:
         fe:16:76:d5:54:4b:d2:09:23:37:24:68:8e:18:77:a1:a9:a4:
         31:2a:42:44:c4:0c:8e:35:92:4b:33:f9:ae:82:f8:4c:0d:eb:
         3c:c9:f3:d8:1b:6c:ef:b1:fb:fd:35:36:46:cb:1e:ff:ac:7e:
         f5:a8:4d:12:f1:a2:fd:96:16:1c:e7:ed:54:2e:55:60:7a:1a:
         b9:6c:aa:9f:f5:d9:ba:be:ee:f0:c0:89:0d:96:18:a0:26:b5:
         69:20:88:69:cc:69:3a:a0:16:e9:6f:b3:38:92:f3:a4:30:6e:
         f1:8c:f9:fa:7f:31:91:ef:b8:77:17:14:32:1e:b2:b6:dc:c9:
         59:1d:95:7d:e8:a0:ca:25:82:f1:8b:c9:39:56:16:5f:66:e6:
         57:1f:ff:e5:7b:22:86:fd:6e:60:e3:18:cb:2a:34:d6:ab:30:
         14:9c:f0:91:5d:e7:b8:9a:fc:b9:88:36:cf:cd:51:ee:2d:a4:
         97:da:83:24:9e:62:b2:d0:78:d0:a4:47:f3:f1:c8:d4:e6:21:
         32:04:f9:d9:fa:f0:ab:af:27:84:e4:22:15:86:b6:43:90:df:
         82:96:17:02:41:5e:86:fd:34:28:94:70:79:71:1f:5d:b5:5f:
         e7:0f:b2:9a:1f:ea:e8:f8:3e:79:24:09:4d:fa:99:c0:10:46:
         83:12:1c:be:cb:7c:35:e7:21:a0:f1:07:26:1b:e1:a3:9e:72:
         28:c9:2c:97:c9:48:6f:88:e1:4b:d8:ad:a0:3b:79:b2:5a:36:
         65:73:cd:4d:cb:ed:d7:4c:1c:1d:e4:2c:4e:9b:1b:63:04:ad:
         d5:cf:e8:26:0a:e3:4d:4d:02:4c:de:5c:d5:25:c7:66:42:87:
         27:fb:c7:a9:30:c5:cd:a6
-----BEGIN CERTIFICATE-----
MIIHSDCCBTCgAwIBAgICAmowDQYJKoZIhvcNAQEFBQAwgbQxCzAJBgNVBAYTAlVT
MQswCQYDVQQIEwJDQTEVMBMGA1UEBxMMU2FuRnJhbmNpc2NvMRUwEwYDVQQKEwxQ
aXhnbG8sIEluYy4xEDAOBgNVBAsTB1ZQTi1DSUUxGjAYBgNVBAMTEXR1bm5lbC5w
aXhnbG8uY29tMRwwGgYDVQQpExNCYWxhIENoYW5kcmFzZWthcmFuMR4wHAYJKoZI
hvcNAQkBFg9iYWxhQHBpeGdsby5jb20wHhcNMTgwMjE0MDYzODMyWhcNMjgwMjEy
MDYzODMyWjCBqTELMAkGA1UEBhMCVVMxCzAJBgNVBAgTAkNBMRUwEwYDVQQHEwxT
YW5GcmFuY2lzY28xFTATBgNVBAoTDFBpeGdsbywgSW5jLjEQMA4GA1UECxMHVlBO
LUNJRTEPMA0GA1UEAxMGY2llNjE3MRwwGgYDVQQpExNCYWxhIENoYW5kcmFzZWth
cmFuMR4wHAYJKoZIhvcNAQkBFg9iYWxhQHBpeGdsby5jb20wggIiMA0GCSqGSIb3
DQEBAQUAA4ICDwAwggIKAoICAQDfhYg0CrYrDloT8ldZa7T1K2ZWFgKD2ACBay4e
CVs8y5puhoaw2FlWcQpLVdmTJF7JZKuO3u5JWePMva4rd2jbOTRS7sUKbunrFe/j
wNsyva5w9AXHDzh8IcPU3ZolmLx/C6lb2tjZj1aykbesfPh1J/7Y0AGs7S7vlURG
hTR/VMMlYOuj3+E+aZNeCGfT2xCY7cSceIbQ+G0GMK57KyEOH//xuaQxmIUx4Ril
4Ed76Yxv8eBMPZUeLVgwH4eX6UrFeV/Eab9I1INDcF3t0zkNbMC6404ATiWw5udo
V9mPem1oHwjoZMB78qfnd05BnqHSb4BFB35VpB6CdOpvYCs8+0DJc96Vfa0ncDtZ
24+ZH9cf/04RkBuSSogLu757d1hkJYPy1QJZgUid8RfmFKL1b780Br4hNQ3wNOmX
J3gOG2oKm4eK7SYH45TnEN2vwrc1+o/8HpGv6B30m27kWjfwYSEr6I6bxNyp2SCj
QeND0I3tUZRBL5B2IAqHTw4hX5jFrxQNyXuhA7j919qiZ7s35ognELX8rhROz4th
Lu7v/WpIXD5OuUZRmY5x4NJOGs3iNlmbIbcuBDlHuWPLo3nhC3qJnkJ/3UYWO6TR
aZ1/tlmk8q7b6NXWP4KIOdNpcmJN08KglocUe76gBw5BEJxHJff8otr9yhElIanX
K/YVpwIDAQABo4IBazCCAWcwCQYDVR0TBAIwADAtBglghkgBhvhCAQ0EIBYeRWFz
eS1SU0EgR2VuZXJhdGVkIENlcnRpZmljYXRlMB0GA1UdDgQWBBQy1g00rQBqqooq
uD2HU0UhvQXYsTCB6QYDVR0jBIHhMIHegBTvOI0UUFinW02cF3L837msp1GwEKGB
uqSBtzCBtDELMAkGA1UEBhMCVVMxCzAJBgNVBAgTAkNBMRUwEwYDVQQHEwxTYW5G
cmFuY2lzY28xFTATBgNVBAoTDFBpeGdsbywgSW5jLjEQMA4GA1UECxMHVlBOLUNJ
RTEaMBgGA1UEAxMRdHVubmVsLnBpeGdsby5jb20xHDAaBgNVBCkTE0JhbGEgQ2hh
bmRyYXNla2FyYW4xHjAcBgkqhkiG9w0BCQEWD2JhbGFAcGl4Z2xvLmNvbYIJAKbb
xoOA5qB5MBMGA1UdJQQMMAoGCCsGAQUFBwMCMAsGA1UdDwQEAwIHgDANBgkqhkiG
9w0BAQUFAAOCAgEAN1DIxzWDyM0tMscQ18FE1KrDM2tJp/2AtDGJVDHTJMAClEPX
ogVLHKWqoUxYCh2aZvK8nj7UoTnc7kAbmWEmCGdoIDhKdQdd4QaUKaPvj1LvTXWA
k6UebOZNd4ZjSfXOs1ZF5UiX0b3kQK2DLFKvguvs9ijSL0QYdptmNNCj6u2BaRE/
0fgiYdefwJtrDu3e5H1036loe9YeRd18UPqPXR7yf/lkQSUSKY+SbjiJIs4tfrQG
/hZ21VRL0gkjNyRojhh3oamkMSpCRMQMjjWSSzP5roL4TA3rPMnz2Bts77H7/TU2
Rsse/6x+9ahNEvGi/ZYWHOftVC5VYHoauWyqn/XZur7u8MCJDZYYoCa1aSCIacxp
OqAW6W+zOJLzpDBu8Yz5+n8xke+4dxcUMh6yttzJWR2VfeigyiWC8YvJOVYWX2bm
Vx//5Xsihv1uYOMYyyo01qswFJzwkV3nuJr8uYg2z81R7i2kl9qDJJ5istB40KRH
8/HI1OYhMgT52frwq68nhOQiFYa2Q5DfgpYXAkFehv00KJRweXEfXbVf5w+ymh/q
6Pg+eSQJTfqZwBBGgxIcvst8NechoPEHJhvho55yKMksl8lIb4jhS9itoDt5slo2
ZXPNTcvt10wcHeQsTpsbYwSt1c/oJgrjTU0CTN5c1SXHZkKHJ/vHqTDFzaY=
-----END CERTIFICATE-----
