Certificate:
    Data:
        Version: 3 (0x2)
        Serial Number: 619 (0x26b)
    Signature Algorithm: sha1WithRSAEncryption
        Issuer: C=US, ST=CA, L=SanFrancisco, O=Pixglo, Inc., OU=VPN-CIE, CN=tunnel.pixglo.com/name=Bala Chandrasekaran/emailAddress=bala@pixglo.com
        Validity
            Not Before: Feb 14 06:38:34 2018 GMT
            Not After : Feb 12 06:38:34 2028 GMT
        Subject: C=US, ST=CA, L=SanFrancisco, O=Pixglo, Inc., OU=VPN-CIE, CN=cie618/name=Bala Chandrasekaran/emailAddress=bala@pixglo.com
        Subject Public Key Info:
            Public Key Algorithm: rsaEncryption
                Public-Key: (4096 bit)
                Modulus:
                    00:ad:f2:02:18:96:da:95:d8:ee:4d:a1:bb:6c:4c:
                    05:59:92:53:15:72:45:32:10:ca:ef:6f:e5:b1:e0:
                    07:10:50:78:29:67:2d:f2:a7:72:50:10:a3:5e:4a:
                    e8:18:23:53:2b:f9:5d:10:8a:7b:d6:54:f5:ad:f0:
                    ed:08:ac:63:b2:e1:f7:15:f7:a9:87:40:46:ce:a7:
                    33:0c:b6:4a:a5:3a:c6:6d:58:21:1c:b8:5a:91:2c:
                    d0:1a:c7:05:88:ce:1d:c2:40:80:34:63:fb:35:15:
                    c3:d0:5c:ea:4f:a0:65:c4:c8:2b:21:51:c5:1b:06:
                    30:0b:73:91:27:36:34:85:4b:67:3b:0a:a2:b3:7c:
                    48:47:97:18:86:50:62:28:6b:8e:f3:40:25:d5:b3:
                    8b:f3:ea:1f:c3:c7:a4:1e:66:21:2e:84:1f:ce:7a:
                    f6:e1:09:8c:0d:2e:12:75:85:42:18:3d:e1:7f:d5:
                    14:ea:16:5e:a1:c2:84:4f:32:ba:62:ec:d1:f5:89:
                    d0:46:31:08:16:16:6a:7a:8a:d4:b1:f1:10:53:19:
                    e1:6c:b3:08:8e:97:a9:7f:e1:a4:2f:7e:b0:b5:30:
                    d2:f2:3a:9e:f3:38:1d:7d:18:53:6b:e8:9d:e4:d5:
                    bc:ab:0a:1e:af:87:b7:3f:00:37:5a:14:4e:aa:b8:
                    ba:c3:af:48:90:03:01:03:cb:6f:71:54:91:89:6c:
                    63:dc:ad:43:af:2c:bb:94:c3:fd:15:a4:f9:69:60:
                    78:6c:62:89:b9:29:4b:ec:0d:63:52:98:dd:73:14:
                    99:b1:f9:fb:63:0c:e4:9d:a9:ec:20:b7:2f:6a:84:
                    90:15:76:1f:aa:ca:b9:7e:e8:d7:74:97:10:81:c3:
                    84:17:cf:f3:5b:b5:d9:a9:7b:9c:4e:43:87:52:5e:
                    f7:89:b0:76:03:e9:f4:7a:a2:cf:ab:e5:fa:9c:e9:
                    b4:04:08:22:45:38:6f:8c:f3:67:97:10:a0:bb:9f:
                    18:0c:18:1e:7d:9b:0d:fb:ec:70:7a:a2:42:76:be:
                    7b:00:6c:6e:85:a2:5b:22:b9:1e:cf:61:72:b3:30:
                    29:ec:ad:c9:3d:2c:95:95:a0:97:7a:ea:1f:c9:0f:
                    49:fc:31:6a:30:00:51:af:3a:50:bd:df:f4:fc:e0:
                    48:2f:5c:f9:0c:19:23:b9:f0:67:26:a1:14:11:1d:
                    76:67:d5:2a:7b:66:c6:0f:4c:ae:d8:d7:c1:ee:a3:
                    9c:4c:72:8f:05:c9:a4:23:d3:11:c1:8e:79:2e:39:
                    b6:0d:94:59:0d:0d:37:32:ee:82:05:a0:11:40:8a:
                    50:46:2e:aa:0c:3e:4a:be:05:9f:17:70:4d:87:86:
                    cd:b3:97
                Exponent: 65537 (0x10001)
        X509v3 extensions:
            X509v3 Basic Constraints: 
                CA:FALSE
            Netscape Comment: 
                Easy-RSA Generated Certificate
            X509v3 Subject Key Identifier: 
                1F:18:4F:3F:7A:DE:C1:92:D4:E7:DE:01:9D:06:A2:27:DD:0B:07:AF
            X509v3 Authority Key Identifier: 
                keyid:EF:38:8D:14:50:58:A7:5B:4D:9C:17:72:FC:DF:B9:AC:A7:51:B0:10
                DirName:/C=US/ST=CA/L=SanFrancisco/O=Pixglo, Inc./OU=VPN-CIE/CN=tunnel.pixglo.com/name=Bala Chandrasekaran/emailAddress=bala@pixglo.com
                serial:A6:DB:C6:83:80:E6:A0:79

            X509v3 Extended Key Usage: 
                TLS Web Client Authentication
            X509v3 Key Usage: 
                Digital Signature
    Signature Algorithm: sha1WithRSAEncryption
         52:ce:35:ae:f5:5c:74:ad:3d:ac:18:10:a9:09:c4:b6:8b:72:
         8a:a7:cd:41:fd:c2:23:8d:cd:ec:ef:25:ce:e2:cb:0a:1e:10:
         31:17:00:93:0b:3a:48:cb:81:d4:1c:d6:39:d2:09:10:a0:6d:
         06:e8:6b:1a:a4:7e:d4:4b:80:47:d3:33:9d:9f:31:ad:88:91:
         7a:4b:c4:c8:6b:38:bb:c0:e0:93:cc:15:2f:b7:ff:8c:d1:19:
         83:93:63:d7:9d:be:d0:0e:1a:55:50:b4:4b:60:89:ed:fa:e3:
         ff:0c:63:73:da:90:65:86:ee:e9:28:ba:08:77:c6:64:33:75:
         b5:97:25:54:5e:8a:03:c4:49:1b:0d:e4:e0:d5:ca:93:0e:79:
         0e:cf:6f:34:f4:a0:ad:0d:18:22:da:3f:7c:ae:3d:a4:4f:7a:
         d8:2e:09:97:6c:b8:c9:cf:9e:af:a4:4d:1b:4c:5b:b3:30:17:
         7e:b9:de:b7:cd:e9:53:ed:ac:de:c7:53:eb:ac:c7:4e:7b:a7:
         3c:85:42:95:3b:e9:13:de:f8:c1:44:da:ac:27:f2:25:21:06:
         2c:b5:02:12:13:a8:10:d8:4d:df:45:62:c0:5e:ff:e7:bc:68:
         96:a0:3f:52:60:23:b6:10:08:03:56:99:fd:d4:d5:77:96:01:
         2b:eb:47:22:95:f2:bc:c4:3a:98:78:93:33:e6:7c:33:0a:10:
         25:4e:d7:e6:f8:60:d7:93:e1:6a:f6:5f:29:13:a7:2c:a5:8c:
         f8:19:e1:fb:79:d6:73:d0:c6:63:67:c9:f4:4d:db:c8:a6:14:
         61:4c:88:16:37:c0:31:08:ac:0f:47:a8:4f:ba:a6:d5:b8:af:
         3d:25:26:ab:58:f9:71:0a:d7:f7:21:14:43:e8:c5:5f:c3:c8:
         29:d0:7c:81:71:c4:f5:7e:57:6a:d0:85:df:8d:05:21:ec:88:
         3c:6d:7f:56:ae:2b:6c:87:f0:c8:f0:54:3e:04:b4:db:da:1a:
         85:fb:68:05:95:1f:0f:12:87:b0:96:a4:72:63:6a:6f:bc:a8:
         3b:fd:b1:d1:fe:a2:a9:49:28:dc:72:3e:0d:94:8d:09:31:8a:
         e8:f9:cc:b3:c5:f2:31:9e:77:9d:72:8d:b8:b2:b2:39:8e:61:
         ef:5a:15:26:23:85:35:61:fb:b7:63:ef:3b:43:28:68:3b:04:
         79:56:2d:a9:dc:e6:94:02:0b:18:55:55:49:21:4d:13:4a:b6:
         92:0f:1b:be:c3:f5:33:5e:20:67:1e:e2:77:7c:57:43:31:ca:
         60:e9:84:da:27:83:48:cc:14:74:a9:92:c2:d2:c4:59:86:a0:
         37:80:d5:56:29:bc:a5:aa
-----BEGIN CERTIFICATE-----
MIIHSDCCBTCgAwIBAgICAmswDQYJKoZIhvcNAQEFBQAwgbQxCzAJBgNVBAYTAlVT
MQswCQYDVQQIEwJDQTEVMBMGA1UEBxMMU2FuRnJhbmNpc2NvMRUwEwYDVQQKEwxQ
aXhnbG8sIEluYy4xEDAOBgNVBAsTB1ZQTi1DSUUxGjAYBgNVBAMTEXR1bm5lbC5w
aXhnbG8uY29tMRwwGgYDVQQpExNCYWxhIENoYW5kcmFzZWthcmFuMR4wHAYJKoZI
hvcNAQkBFg9iYWxhQHBpeGdsby5jb20wHhcNMTgwMjE0MDYzODM0WhcNMjgwMjEy
MDYzODM0WjCBqTELMAkGA1UEBhMCVVMxCzAJBgNVBAgTAkNBMRUwEwYDVQQHEwxT
YW5GcmFuY2lzY28xFTATBgNVBAoTDFBpeGdsbywgSW5jLjEQMA4GA1UECxMHVlBO
LUNJRTEPMA0GA1UEAxMGY2llNjE4MRwwGgYDVQQpExNCYWxhIENoYW5kcmFzZWth
cmFuMR4wHAYJKoZIhvcNAQkBFg9iYWxhQHBpeGdsby5jb20wggIiMA0GCSqGSIb3
DQEBAQUAA4ICDwAwggIKAoICAQCt8gIYltqV2O5NobtsTAVZklMVckUyEMrvb+Wx
4AcQUHgpZy3yp3JQEKNeSugYI1Mr+V0QinvWVPWt8O0IrGOy4fcV96mHQEbOpzMM
tkqlOsZtWCEcuFqRLNAaxwWIzh3CQIA0Y/s1FcPQXOpPoGXEyCshUcUbBjALc5En
NjSFS2c7CqKzfEhHlxiGUGIoa47zQCXVs4vz6h/Dx6QeZiEuhB/OevbhCYwNLhJ1
hUIYPeF/1RTqFl6hwoRPMrpi7NH1idBGMQgWFmp6itSx8RBTGeFsswiOl6l/4aQv
frC1MNLyOp7zOB19GFNr6J3k1byrCh6vh7c/ADdaFE6quLrDr0iQAwEDy29xVJGJ
bGPcrUOvLLuUw/0VpPlpYHhsYom5KUvsDWNSmN1zFJmx+ftjDOSdqewgty9qhJAV
dh+qyrl+6Nd0lxCBw4QXz/Nbtdmpe5xOQ4dSXveJsHYD6fR6os+r5fqc6bQECCJF
OG+M82eXEKC7nxgMGB59mw377HB6okJ2vnsAbG6FolsiuR7PYXKzMCnsrck9LJWV
oJd66h/JD0n8MWowAFGvOlC93/T84EgvXPkMGSO58GcmoRQRHXZn1Sp7ZsYPTK7Y
18Huo5xMco8FyaQj0xHBjnkuObYNlFkNDTcy7oIFoBFAilBGLqoMPkq+BZ8XcE2H
hs2zlwIDAQABo4IBazCCAWcwCQYDVR0TBAIwADAtBglghkgBhvhCAQ0EIBYeRWFz
eS1SU0EgR2VuZXJhdGVkIENlcnRpZmljYXRlMB0GA1UdDgQWBBQfGE8/et7BktTn
3gGdBqIn3QsHrzCB6QYDVR0jBIHhMIHegBTvOI0UUFinW02cF3L837msp1GwEKGB
uqSBtzCBtDELMAkGA1UEBhMCVVMxCzAJBgNVBAgTAkNBMRUwEwYDVQQHEwxTYW5G
cmFuY2lzY28xFTATBgNVBAoTDFBpeGdsbywgSW5jLjEQMA4GA1UECxMHVlBOLUNJ
RTEaMBgGA1UEAxMRdHVubmVsLnBpeGdsby5jb20xHDAaBgNVBCkTE0JhbGEgQ2hh
bmRyYXNla2FyYW4xHjAcBgkqhkiG9w0BCQEWD2JhbGFAcGl4Z2xvLmNvbYIJAKbb
xoOA5qB5MBMGA1UdJQQMMAoGCCsGAQUFBwMCMAsGA1UdDwQEAwIHgDANBgkqhkiG
9w0BAQUFAAOCAgEAUs41rvVcdK09rBgQqQnEtotyiqfNQf3CI43N7O8lzuLLCh4Q
MRcAkws6SMuB1BzWOdIJEKBtBuhrGqR+1EuAR9MznZ8xrYiRekvEyGs4u8Dgk8wV
L7f/jNEZg5Nj152+0A4aVVC0S2CJ7frj/wxjc9qQZYbu6Si6CHfGZDN1tZclVF6K
A8RJGw3k4NXKkw55Ds9vNPSgrQ0YIto/fK49pE962C4Jl2y4yc+er6RNG0xbszAX
frnet83pU+2s3sdT66zHTnunPIVClTvpE974wUTarCfyJSEGLLUCEhOoENhN30Vi
wF7/57xolqA/UmAjthAIA1aZ/dTVd5YBK+tHIpXyvMQ6mHiTM+Z8MwoQJU7X5vhg
15PhavZfKROnLKWM+Bnh+3nWc9DGY2fJ9E3byKYUYUyIFjfAMQisD0eoT7qm1biv
PSUmq1j5cQrX9yEUQ+jFX8PIKdB8gXHE9X5XatCF340FIeyIPG1/Vq4rbIfwyPBU
PgS029oahftoBZUfDxKHsJakcmNqb7yoO/2x0f6iqUko3HI+DZSNCTGK6PnMs8Xy
MZ53nXKNuLKyOY5h71oVJiOFNWH7t2PvO0MoaDsEeVYtqdzmlAILGFVVSSFNE0q2
kg8bvsP1M14gZx7id3xXQzHKYOmE2ieDSMwUdKmSwtLEWYagN4DVVim8pao=
-----END CERTIFICATE-----
