Certificate:
    Data:
        Version: 3 (0x2)
        Serial Number: 620 (0x26c)
    Signature Algorithm: sha1WithRSAEncryption
        Issuer: C=US, ST=CA, L=SanFrancisco, O=Pixglo, Inc., OU=VPN-CIE, CN=tunnel.pixglo.com/name=Bala Chandrasekaran/emailAddress=bala@pixglo.com
        Validity
            Not Before: Feb 14 06:38:36 2018 GMT
            Not After : Feb 12 06:38:36 2028 GMT
        Subject: C=US, ST=CA, L=SanFrancisco, O=Pixglo, Inc., OU=VPN-CIE, CN=cie619/name=Bala Chandrasekaran/emailAddress=bala@pixglo.com
        Subject Public Key Info:
            Public Key Algorithm: rsaEncryption
                Public-Key: (4096 bit)
                Modulus:
                    00:ad:57:a7:73:7c:6f:55:6c:37:61:7d:9c:f0:15:
                    5c:90:ef:22:90:34:d8:06:76:a4:be:fa:08:19:8d:
                    e7:73:dc:b0:af:9a:5a:0f:d1:3b:24:69:80:f9:6e:
                    6a:a8:37:55:7f:ac:92:3f:d0:ed:71:c1:21:f7:33:
                    aa:05:45:b3:13:48:14:ba:9f:ba:6a:33:e2:21:5d:
                    bb:e0:6e:e1:6f:21:7e:1c:81:ed:80:dd:68:de:cc:
                    93:0c:a7:2d:31:fd:f6:80:4a:16:8f:8d:b7:b5:71:
                    40:ce:29:53:14:9c:82:60:58:74:60:e1:25:5e:f2:
                    fa:cd:8e:4c:fa:ce:92:32:ee:96:da:f6:13:0b:93:
                    6f:7c:b9:27:61:6a:6f:8a:8e:cb:7d:61:75:87:54:
                    72:d7:a6:e0:e8:61:b1:08:e4:5f:c7:83:59:88:38:
                    9d:e6:d1:aa:37:aa:32:71:26:14:0f:9a:5d:2b:24:
                    05:d7:e9:1d:fc:2e:c0:08:55:b8:77:5c:71:39:59:
                    c9:ba:df:a4:60:8a:26:2a:f3:7d:de:d0:59:60:b0:
                    b4:3e:4e:a9:39:5b:e1:3e:7d:a3:fd:34:74:d5:86:
                    0e:4d:01:73:76:5c:f0:01:db:a4:25:b7:e2:62:90:
                    52:1d:69:34:95:12:1a:0d:86:77:3a:94:86:0f:b9:
                    a9:6e:ac:63:2e:34:50:11:db:13:f4:81:04:ba:eb:
                    55:19:15:df:29:8a:e5:ab:c8:02:89:5b:8e:01:82:
                    21:be:98:8b:df:73:d3:1a:e9:9a:e7:8c:2e:49:44:
                    65:57:6f:19:c9:b4:8c:db:ec:20:3e:98:83:52:2a:
                    2b:6e:9b:b8:0b:e3:a0:5e:9d:88:42:0e:8c:11:58:
                    4e:7a:cc:a5:2c:db:bf:2f:be:75:1e:46:a2:8f:42:
                    62:c5:39:9e:ab:5b:a5:23:30:97:a8:7e:d9:41:b7:
                    0e:70:8e:37:b3:20:30:31:46:60:ec:b8:72:cd:82:
                    eb:e6:ba:a5:34:8c:a4:36:f1:10:49:45:c2:f0:17:
                    af:72:7b:9b:cf:1f:cd:ec:65:78:59:bf:da:e1:84:
                    95:7b:ea:32:4f:f8:6b:73:a9:26:75:e6:80:dd:fa:
                    cf:e0:fa:7d:fe:d8:5a:d5:cd:7a:fe:f8:62:18:a1:
                    5e:7c:c5:6f:0a:fe:26:7a:c4:3c:84:4f:04:c0:92:
                    06:f3:95:a1:d4:e6:c6:32:73:d0:fb:81:a7:4d:a7:
                    da:50:e8:9b:9d:4a:92:53:06:25:7d:df:0d:82:da:
                    5d:d3:6d:ee:51:fd:cb:85:30:b5:5c:c7:c4:12:82:
                    b7:51:86:a0:95:7c:82:77:f1:a3:ad:2a:d3:26:53:
                    a0:70:f7
                Exponent: 65537 (0x10001)
        X509v3 extensions:
            X509v3 Basic Constraints: 
                CA:FALSE
            Netscape Comment: 
                Easy-RSA Generated Certificate
            X509v3 Subject Key Identifier: 
                89:1E:2B:C6:EA:CF:CB:97:A7:04:F4:0F:16:E3:0D:1B:30:92:B9:13
            X509v3 Authority Key Identifier: 
                keyid:EF:38:8D:14:50:58:A7:5B:4D:9C:17:72:FC:DF:B9:AC:A7:51:B0:10
                DirName:/C=US/ST=CA/L=SanFrancisco/O=Pixglo, Inc./OU=VPN-CIE/CN=tunnel.pixglo.com/name=Bala Chandrasekaran/emailAddress=bala@pixglo.com
                serial:A6:DB:C6:83:80:E6:A0:79

            X509v3 Extended Key Usage: 
                TLS Web Client Authentication
            X509v3 Key Usage: 
                Digital Signature
    Signature Algorithm: sha1WithRSAEncryption
         47:f7:44:a8:ff:12:38:f5:52:58:32:c7:fa:03:26:90:6e:38:
         ac:10:34:ad:3a:27:5b:38:b8:c4:f7:e1:e3:d4:2d:ba:ff:d5:
         21:54:a6:96:12:fb:e0:15:2c:13:79:c5:3f:02:cc:cf:74:7d:
         f5:40:bb:42:26:bd:bb:e4:99:72:18:2a:12:d1:62:f7:7b:52:
         da:35:87:75:e4:0b:7f:ab:ee:0b:fb:eb:f1:95:8c:00:96:7a:
         ab:6f:8d:c2:64:e3:10:cf:d5:0e:36:c1:85:3c:de:7b:30:55:
         45:a8:97:62:98:7d:1e:ab:25:8b:af:1c:ac:ed:fb:22:37:c2:
         96:99:26:f6:b8:4d:91:b4:a3:cf:e6:d0:ae:93:7d:11:39:0d:
         71:53:b8:4d:d3:1e:7e:4c:c5:a5:fa:84:61:9d:6d:63:67:21:
         31:5b:c8:c0:0f:67:42:18:aa:82:2a:9e:7f:bb:fc:bd:a8:d3:
         9f:cb:12:22:69:97:8e:f7:f2:bc:cf:d5:8f:7e:e4:10:4f:c9:
         dd:d1:2a:81:0e:30:51:23:de:dd:96:3b:69:88:e6:cf:57:76:
         36:1c:18:bb:b8:59:71:e0:9f:23:8a:89:97:a5:ab:9b:d0:bb:
         c7:f7:6f:b5:d1:85:6d:4a:39:58:42:4b:78:32:cb:a0:23:65:
         d6:f0:ec:81:8f:d7:88:bf:7b:31:ee:5c:ed:38:92:84:24:f7:
         f9:c2:ed:be:a5:4c:0a:88:1d:7a:f2:7b:65:51:21:f0:fc:1c:
         82:77:11:e0:30:ae:a5:14:f9:54:d4:d7:97:b6:79:48:85:68:
         16:f1:78:e3:81:13:96:ba:26:62:fe:81:4f:56:10:8d:b9:5d:
         f3:eb:8f:ba:d6:07:30:77:f9:5e:fb:e9:b5:65:76:2c:e5:39:
         69:72:18:15:9c:18:53:37:f1:44:42:26:12:f1:7a:4e:15:e0:
         a1:53:bc:80:c1:cc:9f:54:76:58:22:95:1c:fe:1c:25:7c:83:
         97:82:92:c4:d7:46:22:ac:4e:11:ca:02:6a:14:9d:ec:01:2a:
         55:66:74:21:9a:57:8f:d2:46:70:ac:81:00:29:cd:61:c9:cb:
         2a:5b:b5:7d:e3:cb:83:b3:53:fc:36:39:ea:f2:07:74:68:81:
         be:03:73:b6:ec:72:54:2d:9c:39:0a:12:19:03:04:9c:ab:5e:
         2e:e9:4b:60:84:2d:7d:a0:86:e8:2d:3a:51:ba:75:f5:3a:58:
         9e:af:f8:71:c6:a3:5a:03:9b:c9:07:75:0c:0f:9e:e6:25:a6:
         0a:4c:69:89:43:c7:33:22:46:97:a7:59:5e:be:fc:d6:fd:c5:
         01:d1:52:b5:a7:a5:0d:f3
-----BEGIN CERTIFICATE-----
MIIHSDCCBTCgAwIBAgICAmwwDQYJKoZIhvcNAQEFBQAwgbQxCzAJBgNVBAYTAlVT
MQswCQYDVQQIEwJDQTEVMBMGA1UEBxMMU2FuRnJhbmNpc2NvMRUwEwYDVQQKEwxQ
aXhnbG8sIEluYy4xEDAOBgNVBAsTB1ZQTi1DSUUxGjAYBgNVBAMTEXR1bm5lbC5w
aXhnbG8uY29tMRwwGgYDVQQpExNCYWxhIENoYW5kcmFzZWthcmFuMR4wHAYJKoZI
hvcNAQkBFg9iYWxhQHBpeGdsby5jb20wHhcNMTgwMjE0MDYzODM2WhcNMjgwMjEy
MDYzODM2WjCBqTELMAkGA1UEBhMCVVMxCzAJBgNVBAgTAkNBMRUwEwYDVQQHEwxT
YW5GcmFuY2lzY28xFTATBgNVBAoTDFBpeGdsbywgSW5jLjEQMA4GA1UECxMHVlBO
LUNJRTEPMA0GA1UEAxMGY2llNjE5MRwwGgYDVQQpExNCYWxhIENoYW5kcmFzZWth
cmFuMR4wHAYJKoZIhvcNAQkBFg9iYWxhQHBpeGdsby5jb20wggIiMA0GCSqGSIb3
DQEBAQUAA4ICDwAwggIKAoICAQCtV6dzfG9VbDdhfZzwFVyQ7yKQNNgGdqS++ggZ
jedz3LCvmloP0TskaYD5bmqoN1V/rJI/0O1xwSH3M6oFRbMTSBS6n7pqM+IhXbvg
buFvIX4cge2A3WjezJMMpy0x/faAShaPjbe1cUDOKVMUnIJgWHRg4SVe8vrNjkz6
zpIy7pba9hMLk298uSdham+Kjst9YXWHVHLXpuDoYbEI5F/Hg1mIOJ3m0ao3qjJx
JhQPml0rJAXX6R38LsAIVbh3XHE5Wcm636RgiiYq833e0FlgsLQ+Tqk5W+E+faP9
NHTVhg5NAXN2XPAB26Qlt+JikFIdaTSVEhoNhnc6lIYPualurGMuNFAR2xP0gQS6
61UZFd8piuWryAKJW44BgiG+mIvfc9Ma6ZrnjC5JRGVXbxnJtIzb7CA+mINSKitu
m7gL46BenYhCDowRWE56zKUs278vvnUeRqKPQmLFOZ6rW6UjMJeoftlBtw5wjjez
IDAxRmDsuHLNguvmuqU0jKQ28RBJRcLwF69ye5vPH83sZXhZv9rhhJV76jJP+Gtz
qSZ15oDd+s/g+n3+2FrVzXr++GIYoV58xW8K/iZ6xDyETwTAkgbzlaHU5sYyc9D7
gadNp9pQ6JudSpJTBiV93w2C2l3Tbe5R/cuFMLVcx8QSgrdRhqCVfIJ38aOtKtMm
U6Bw9wIDAQABo4IBazCCAWcwCQYDVR0TBAIwADAtBglghkgBhvhCAQ0EIBYeRWFz
eS1SU0EgR2VuZXJhdGVkIENlcnRpZmljYXRlMB0GA1UdDgQWBBSJHivG6s/Ll6cE
9A8W4w0bMJK5EzCB6QYDVR0jBIHhMIHegBTvOI0UUFinW02cF3L837msp1GwEKGB
uqSBtzCBtDELMAkGA1UEBhMCVVMxCzAJBgNVBAgTAkNBMRUwEwYDVQQHEwxTYW5G
cmFuY2lzY28xFTATBgNVBAoTDFBpeGdsbywgSW5jLjEQMA4GA1UECxMHVlBOLUNJ
RTEaMBgGA1UEAxMRdHVubmVsLnBpeGdsby5jb20xHDAaBgNVBCkTE0JhbGEgQ2hh
bmRyYXNla2FyYW4xHjAcBgkqhkiG9w0BCQEWD2JhbGFAcGl4Z2xvLmNvbYIJAKbb
xoOA5qB5MBMGA1UdJQQMMAoGCCsGAQUFBwMCMAsGA1UdDwQEAwIHgDANBgkqhkiG
9w0BAQUFAAOCAgEAR/dEqP8SOPVSWDLH+gMmkG44rBA0rTonWzi4xPfh49Qtuv/V
IVSmlhL74BUsE3nFPwLMz3R99UC7Qia9u+SZchgqEtFi93tS2jWHdeQLf6vuC/vr
8ZWMAJZ6q2+NwmTjEM/VDjbBhTzeezBVRaiXYph9Hqsli68crO37IjfClpkm9rhN
kbSjz+bQrpN9ETkNcVO4TdMefkzFpfqEYZ1tY2chMVvIwA9nQhiqgiqef7v8vajT
n8sSImmXjvfyvM/Vj37kEE/J3dEqgQ4wUSPe3ZY7aYjmz1d2NhwYu7hZceCfI4qJ
l6Wrm9C7x/dvtdGFbUo5WEJLeDLLoCNl1vDsgY/XiL97Me5c7TiShCT3+cLtvqVM
CogdevJ7ZVEh8PwcgncR4DCupRT5VNTXl7Z5SIVoFvF444ETlromYv6BT1YQjbld
8+uPutYHMHf5XvvptWV2LOU5aXIYFZwYUzfxREImEvF6ThXgoVO8gMHMn1R2WCKV
HP4cJXyDl4KSxNdGIqxOEcoCahSd7AEqVWZ0IZpXj9JGcKyBACnNYcnLKlu1fePL
g7NT/DY56vIHdGiBvgNztuxyVC2cOQoSGQMEnKteLulLYIQtfaCG6C06Ubp19TpY
nq/4ccajWgObyQd1DA+e5iWmCkxpiUPHMyJGl6dZXr781v3FAdFStaelDfM=
-----END CERTIFICATE-----
