Certificate:
    Data:
        Version: 3 (0x2)
        Serial Number: 622 (0x26e)
    Signature Algorithm: sha1WithRSAEncryption
        Issuer: C=US, ST=CA, L=SanFrancisco, O=Pixglo, Inc., OU=VPN-CIE, CN=tunnel.pixglo.com/name=Bala Chandrasekaran/emailAddress=bala@pixglo.com
        Validity
            Not Before: Feb 14 06:38:40 2018 GMT
            Not After : Feb 12 06:38:40 2028 GMT
        Subject: C=US, ST=CA, L=SanFrancisco, O=Pixglo, Inc., OU=VPN-CIE, CN=cie621/name=Bala Chandrasekaran/emailAddress=bala@pixglo.com
        Subject Public Key Info:
            Public Key Algorithm: rsaEncryption
                Public-Key: (4096 bit)
                Modulus:
                    00:f4:f8:45:cd:50:ba:9d:bd:0a:c7:22:fc:79:bf:
                    34:c4:c7:58:87:95:fc:0e:35:7b:b8:35:1b:8e:50:
                    70:9c:b4:86:52:3f:0b:40:39:4c:5f:49:6c:61:b7:
                    aa:7f:bb:8c:23:5d:69:ef:14:16:05:ba:c2:83:9c:
                    4d:03:68:13:ec:4e:29:a9:16:ae:fb:76:81:3b:07:
                    4a:36:40:6f:f9:93:97:93:04:70:97:13:14:4f:d2:
                    f4:b0:fb:35:bd:dd:d0:ad:be:b2:a5:5c:a3:60:1e:
                    8b:71:bd:5d:42:77:38:6c:5f:52:f5:5b:73:0e:cc:
                    25:72:d5:1f:4b:a9:80:69:d6:23:6c:a8:44:5d:60:
                    de:33:ab:63:67:8d:68:ee:40:ba:91:e7:4a:85:65:
                    b4:a3:71:cd:28:4c:97:2f:32:47:cc:c2:84:de:2a:
                    34:59:ef:5c:ae:78:60:fc:a7:bd:09:95:53:81:dc:
                    29:25:dc:e8:3b:10:25:7a:8b:84:c5:a3:dd:20:0e:
                    15:69:89:ca:b7:de:c1:b1:73:d1:0c:c0:fe:0c:61:
                    63:2d:03:bc:13:7b:77:fa:ee:c6:6e:30:98:86:aa:
                    11:73:59:34:50:8d:87:7d:a4:ab:10:46:56:51:e4:
                    8f:f6:02:bb:ce:06:e1:f7:49:6d:20:69:a6:ae:ee:
                    da:e3:43:c6:5e:42:41:f4:aa:56:ed:01:29:72:58:
                    1d:3c:cb:15:f1:67:cb:23:e1:c3:d8:8e:1b:96:d9:
                    03:ea:37:5a:d9:7c:cc:ac:08:91:12:bc:07:00:ab:
                    4e:9f:7f:fd:51:5e:96:ce:8c:08:92:2c:70:85:5b:
                    cb:5e:cb:bc:96:b3:b9:09:6b:4a:a0:1f:d6:9a:13:
                    a1:a3:49:57:0d:49:0c:98:49:36:00:43:4e:38:50:
                    b5:0b:3e:c6:17:f4:9d:22:65:aa:d1:5d:e1:f6:c9:
                    f3:7c:dc:1c:db:59:4c:7a:2b:da:66:e5:dc:c5:dd:
                    e9:18:fb:a3:f3:ec:27:c4:11:f7:42:8c:03:30:7e:
                    7f:18:1b:ef:f5:81:a1:8e:24:06:0a:d7:9a:37:93:
                    d6:d4:93:6e:e8:36:3d:5a:6a:63:74:73:61:62:b5:
                    37:65:60:85:05:a8:a3:cd:58:0e:5d:f9:45:db:5e:
                    d3:6a:b8:65:dd:aa:79:d4:cb:98:a1:69:ff:65:f5:
                    7d:d6:74:49:31:1d:b8:0e:37:03:b4:90:c9:85:34:
                    a8:86:ed:f5:be:95:2b:e1:2c:1e:00:d4:df:ab:f8:
                    f1:bf:62:14:c9:0e:75:54:c6:72:df:c2:74:39:9f:
                    ad:84:1c:f7:af:cc:56:00:4b:48:65:ce:3c:fe:b7:
                    6f:30:85
                Exponent: 65537 (0x10001)
        X509v3 extensions:
            X509v3 Basic Constraints: 
                CA:FALSE
            Netscape Comment: 
                Easy-RSA Generated Certificate
            X509v3 Subject Key Identifier: 
                44:14:45:D7:02:D9:D6:85:E7:59:48:1D:EB:95:7B:F2:50:0D:48:40
            X509v3 Authority Key Identifier: 
                keyid:EF:38:8D:14:50:58:A7:5B:4D:9C:17:72:FC:DF:B9:AC:A7:51:B0:10
                DirName:/C=US/ST=CA/L=SanFrancisco/O=Pixglo, Inc./OU=VPN-CIE/CN=tunnel.pixglo.com/name=Bala Chandrasekaran/emailAddress=bala@pixglo.com
                serial:A6:DB:C6:83:80:E6:A0:79

            X509v3 Extended Key Usage: 
                TLS Web Client Authentication
            X509v3 Key Usage: 
                Digital Signature
    Signature Algorithm: sha1WithRSAEncryption
         a6:3d:c1:a0:1c:d8:89:8b:3c:7b:44:99:ae:9a:3a:ac:73:b2:
         d1:ef:4e:c3:92:45:1d:db:d6:53:68:cc:33:25:57:fe:d3:12:
         cd:8b:8f:9e:15:b9:5d:f7:e6:2b:15:3d:ac:78:9e:2f:67:a1:
         77:ab:dc:97:f6:48:32:c0:37:6a:b8:d9:e9:c3:41:cf:6b:2e:
         0c:ba:6f:db:4e:33:db:fc:cf:ac:27:74:1f:b0:8c:8a:00:47:
         49:b4:fe:a0:10:e4:f7:b4:8a:fc:40:7b:c6:b4:d2:8c:3d:2d:
         72:db:78:75:00:d0:a6:f1:96:fe:d7:8b:66:56:d9:f0:28:47:
         af:63:87:76:ff:99:51:11:9d:18:39:f4:62:0a:fc:4c:f2:08:
         c9:58:2c:98:92:bb:0f:bb:b9:81:ae:f6:b2:83:04:f2:8b:e0:
         bb:93:f4:8a:12:11:62:20:c7:c4:70:5e:87:2d:a6:e3:6a:25:
         95:44:28:71:c5:88:51:a0:11:1f:6c:46:3e:0c:3d:59:67:89:
         ea:ed:6d:74:0b:1c:9e:e2:90:7e:36:e2:aa:d1:03:e7:1f:d8:
         8f:1d:16:f5:6e:de:43:97:17:2f:04:9a:58:a8:7b:fb:75:65:
         51:da:3d:ad:17:12:a5:e2:0b:d8:e7:bb:ba:e5:97:19:1b:7a:
         e6:a7:c6:f0:38:9a:21:61:17:8f:b3:34:54:fe:39:f2:7a:e6:
         86:5d:2b:38:0f:84:08:82:31:11:a5:39:ac:4c:c2:d8:a1:d9:
         72:37:1c:ee:46:2b:10:2d:6f:41:6f:db:7a:e0:52:38:95:f7:
         9a:e7:d4:ad:5f:cc:40:7b:23:93:03:93:9d:f1:b6:62:82:fb:
         c0:75:88:60:b7:d5:f0:eb:13:6b:ed:12:95:9c:35:82:68:96:
         57:9d:3f:92:87:d3:a5:a7:49:de:53:e7:43:ff:db:3f:c9:fa:
         58:20:0a:3a:91:aa:da:be:67:20:f1:23:f8:10:53:80:c4:ec:
         3b:18:01:d8:7f:aa:24:0a:54:5d:93:6e:64:e1:cc:64:71:77:
         e7:6f:44:4d:3f:94:b5:9a:1b:43:38:58:7e:c1:68:8c:73:16:
         4c:de:c5:fc:be:d7:b5:6d:a8:11:08:51:fa:fd:3b:b7:62:8e:
         93:d6:4b:78:d3:da:c2:e2:b3:d6:f6:f9:49:37:79:29:50:e5:
         73:97:bd:17:1d:8d:af:47:c8:a2:d9:84:40:b4:be:84:cf:24:
         20:ee:00:40:f0:46:17:b9:42:f7:e7:70:b9:52:7e:95:fd:9d:
         a3:d3:52:c4:44:9f:8b:fd:35:95:0e:fe:8a:4f:31:a1:94:87:
         74:14:9e:8a:12:19:9e:a5
-----BEGIN CERTIFICATE-----
MIIHSDCCBTCgAwIBAgICAm4wDQYJKoZIhvcNAQEFBQAwgbQxCzAJBgNVBAYTAlVT
MQswCQYDVQQIEwJDQTEVMBMGA1UEBxMMU2FuRnJhbmNpc2NvMRUwEwYDVQQKEwxQ
aXhnbG8sIEluYy4xEDAOBgNVBAsTB1ZQTi1DSUUxGjAYBgNVBAMTEXR1bm5lbC5w
aXhnbG8uY29tMRwwGgYDVQQpExNCYWxhIENoYW5kcmFzZWthcmFuMR4wHAYJKoZI
hvcNAQkBFg9iYWxhQHBpeGdsby5jb20wHhcNMTgwMjE0MDYzODQwWhcNMjgwMjEy
MDYzODQwWjCBqTELMAkGA1UEBhMCVVMxCzAJBgNVBAgTAkNBMRUwEwYDVQQHEwxT
YW5GcmFuY2lzY28xFTATBgNVBAoTDFBpeGdsbywgSW5jLjEQMA4GA1UECxMHVlBO
LUNJRTEPMA0GA1UEAxMGY2llNjIxMRwwGgYDVQQpExNCYWxhIENoYW5kcmFzZWth
cmFuMR4wHAYJKoZIhvcNAQkBFg9iYWxhQHBpeGdsby5jb20wggIiMA0GCSqGSIb3
DQEBAQUAA4ICDwAwggIKAoICAQD0+EXNULqdvQrHIvx5vzTEx1iHlfwONXu4NRuO
UHCctIZSPwtAOUxfSWxht6p/u4wjXWnvFBYFusKDnE0DaBPsTimpFq77doE7B0o2
QG/5k5eTBHCXExRP0vSw+zW93dCtvrKlXKNgHotxvV1CdzhsX1L1W3MOzCVy1R9L
qYBp1iNsqERdYN4zq2NnjWjuQLqR50qFZbSjcc0oTJcvMkfMwoTeKjRZ71yueGD8
p70JlVOB3Ckl3Og7ECV6i4TFo90gDhVpicq33sGxc9EMwP4MYWMtA7wTe3f67sZu
MJiGqhFzWTRQjYd9pKsQRlZR5I/2ArvOBuH3SW0gaaau7trjQ8ZeQkH0qlbtASly
WB08yxXxZ8sj4cPYjhuW2QPqN1rZfMysCJESvAcAq06ff/1RXpbOjAiSLHCFW8te
y7yWs7kJa0qgH9aaE6GjSVcNSQyYSTYAQ044ULULPsYX9J0iZarRXeH2yfN83Bzb
WUx6K9pm5dzF3ekY+6Pz7CfEEfdCjAMwfn8YG+/1gaGOJAYK15o3k9bUk27oNj1a
amN0c2FitTdlYIUFqKPNWA5d+UXbXtNquGXdqnnUy5ihaf9l9X3WdEkxHbgONwO0
kMmFNKiG7fW+lSvhLB4A1N+r+PG/YhTJDnVUxnLfwnQ5n62EHPevzFYAS0hlzjz+
t28whQIDAQABo4IBazCCAWcwCQYDVR0TBAIwADAtBglghkgBhvhCAQ0EIBYeRWFz
eS1SU0EgR2VuZXJhdGVkIENlcnRpZmljYXRlMB0GA1UdDgQWBBREFEXXAtnWhedZ
SB3rlXvyUA1IQDCB6QYDVR0jBIHhMIHegBTvOI0UUFinW02cF3L837msp1GwEKGB
uqSBtzCBtDELMAkGA1UEBhMCVVMxCzAJBgNVBAgTAkNBMRUwEwYDVQQHEwxTYW5G
cmFuY2lzY28xFTATBgNVBAoTDFBpeGdsbywgSW5jLjEQMA4GA1UECxMHVlBOLUNJ
RTEaMBgGA1UEAxMRdHVubmVsLnBpeGdsby5jb20xHDAaBgNVBCkTE0JhbGEgQ2hh
bmRyYXNla2FyYW4xHjAcBgkqhkiG9w0BCQEWD2JhbGFAcGl4Z2xvLmNvbYIJAKbb
xoOA5qB5MBMGA1UdJQQMMAoGCCsGAQUFBwMCMAsGA1UdDwQEAwIHgDANBgkqhkiG
9w0BAQUFAAOCAgEApj3BoBzYiYs8e0SZrpo6rHOy0e9Ow5JFHdvWU2jMMyVX/tMS
zYuPnhW5XffmKxU9rHieL2ehd6vcl/ZIMsA3arjZ6cNBz2suDLpv204z2/zPrCd0
H7CMigBHSbT+oBDk97SK/EB7xrTSjD0tctt4dQDQpvGW/teLZlbZ8ChHr2OHdv+Z
URGdGDn0Ygr8TPIIyVgsmJK7D7u5ga72soME8ovgu5P0ihIRYiDHxHBehy2m42ol
lUQoccWIUaARH2xGPgw9WWeJ6u1tdAscnuKQfjbiqtED5x/Yjx0W9W7eQ5cXLwSa
WKh7+3VlUdo9rRcSpeIL2Oe7uuWXGRt65qfG8DiaIWEXj7M0VP458nrmhl0rOA+E
CIIxEaU5rEzC2KHZcjcc7kYrEC1vQW/beuBSOJX3mufUrV/MQHsjkwOTnfG2YoL7
wHWIYLfV8OsTa+0SlZw1gmiWV50/kofTpadJ3lPnQ//bP8n6WCAKOpGq2r5nIPEj
+BBTgMTsOxgB2H+qJApUXZNuZOHMZHF3529ETT+UtZobQzhYfsFojHMWTN7F/L7X
tW2oEQhR+v07t2KOk9ZLeNPawuKz1vb5STd5KVDlc5e9Fx2Nr0fIotmEQLS+hM8k
IO4AQPBGF7lC9+dwuVJ+lf2do9NSxESfi/01lQ7+ik8xoZSHdBSeihIZnqU=
-----END CERTIFICATE-----
