Certificate:
    Data:
        Version: 3 (0x2)
        Serial Number: 625 (0x271)
    Signature Algorithm: sha1WithRSAEncryption
        Issuer: C=US, ST=CA, L=SanFrancisco, O=Pixglo, Inc., OU=VPN-CIE, CN=tunnel.pixglo.com/name=Bala Chandrasekaran/emailAddress=bala@pixglo.com
        Validity
            Not Before: Feb 14 06:38:44 2018 GMT
            Not After : Feb 12 06:38:44 2028 GMT
        Subject: C=US, ST=CA, L=SanFrancisco, O=Pixglo, Inc., OU=VPN-CIE, CN=cie624/name=Bala Chandrasekaran/emailAddress=bala@pixglo.com
        Subject Public Key Info:
            Public Key Algorithm: rsaEncryption
                Public-Key: (4096 bit)
                Modulus:
                    00:cc:4b:f5:3b:d0:f7:78:4e:1a:4d:c8:a4:06:c7:
                    4e:55:81:c9:91:2c:7b:7a:61:1b:85:48:5a:4c:02:
                    88:27:81:1e:2c:7e:90:b1:86:9b:3c:9a:d3:7d:95:
                    6f:ec:21:36:87:92:96:8a:70:25:89:df:62:fd:f2:
                    90:49:ba:ba:d2:1e:00:bd:1d:d8:b5:7f:7d:30:4c:
                    fd:38:ef:93:7c:34:29:ab:10:d7:13:f4:40:e6:c9:
                    4d:0b:f3:2a:c3:aa:a6:40:02:e3:9b:7f:99:98:48:
                    4a:60:85:4e:38:f3:fd:ce:f2:c9:78:0f:f2:74:c1:
                    d4:ac:23:82:2d:49:39:a4:37:ec:92:53:38:7e:77:
                    93:dc:7b:d5:5e:4d:38:a5:a3:88:06:c8:12:5b:74:
                    e7:5c:68:0b:45:de:15:54:b7:19:52:25:08:0d:b8:
                    1b:ba:79:77:a1:f4:87:33:11:2f:02:51:98:03:b9:
                    33:ff:c5:b5:fd:7e:1b:f0:aa:f7:b4:81:ac:0a:3e:
                    53:f8:56:1a:b8:b2:66:a1:42:c5:0e:e8:9e:d7:c7:
                    47:93:33:8c:98:40:6d:02:5e:de:17:42:51:28:19:
                    cd:36:c9:0d:92:00:a8:f1:87:4e:6f:1f:c9:ba:67:
                    e4:6d:b0:42:f8:ab:3d:41:ff:5f:f5:3c:f0:4d:2d:
                    90:81:da:e3:c9:17:db:ef:75:44:80:0c:89:99:8e:
                    be:51:4d:cb:34:b8:54:e1:96:21:1b:b3:8c:57:1a:
                    93:9b:ae:53:c3:8d:ba:cf:b0:b7:a0:97:6b:89:cc:
                    b5:77:e4:b2:cf:23:86:1b:ca:33:57:4e:c2:c4:e2:
                    09:28:e8:ef:80:fb:d3:03:95:18:30:fb:46:c1:36:
                    47:ef:0c:92:77:30:a9:86:31:d7:a8:77:c3:e8:98:
                    ed:c5:42:e8:07:42:ab:6e:da:8d:a8:44:6f:c8:d1:
                    12:6e:ad:69:96:ab:34:3f:7b:39:68:e3:80:c2:c4:
                    5a:84:2b:61:fd:25:e8:51:60:11:95:37:fb:53:e0:
                    e4:03:59:3c:3a:e0:d1:28:28:77:a5:22:71:54:13:
                    fd:94:ad:de:82:83:c3:2a:85:d5:9c:8b:14:db:e0:
                    8f:fa:fc:cf:8f:09:3d:b4:06:a9:2f:9a:6c:2d:e9:
                    15:97:84:2b:d5:6c:b2:6b:96:c1:29:6e:0d:30:dc:
                    35:88:2c:53:b7:ef:9e:39:be:be:75:74:10:38:d2:
                    68:ea:ea:3b:c7:0e:17:eb:53:23:40:c2:a0:a0:a3:
                    cd:10:e8:c6:6c:b5:58:91:b6:31:34:3b:27:7a:11:
                    6f:32:40:b5:4a:81:34:6a:f2:3c:7e:a5:31:12:3d:
                    6a:2c:99
                Exponent: 65537 (0x10001)
        X509v3 extensions:
            X509v3 Basic Constraints: 
                CA:FALSE
            Netscape Comment: 
                Easy-RSA Generated Certificate
            X509v3 Subject Key Identifier: 
                A3:43:EF:9F:ED:24:64:85:6A:69:55:11:7F:80:69:D6:6C:5E:BD:7B
            X509v3 Authority Key Identifier: 
                keyid:EF:38:8D:14:50:58:A7:5B:4D:9C:17:72:FC:DF:B9:AC:A7:51:B0:10
                DirName:/C=US/ST=CA/L=SanFrancisco/O=Pixglo, Inc./OU=VPN-CIE/CN=tunnel.pixglo.com/name=Bala Chandrasekaran/emailAddress=bala@pixglo.com
                serial:A6:DB:C6:83:80:E6:A0:79

            X509v3 Extended Key Usage: 
                TLS Web Client Authentication
            X509v3 Key Usage: 
                Digital Signature
    Signature Algorithm: sha1WithRSAEncryption
         0c:a9:d5:fe:e3:9c:81:fc:52:b9:4e:29:0a:ec:56:3b:1d:f5:
         9b:21:50:5d:05:20:77:db:e4:7e:b8:b6:61:21:f1:f1:42:fb:
         f2:71:45:4c:e8:46:c6:09:5f:2a:57:0a:50:5b:8d:93:88:ec:
         57:39:c1:1c:82:4c:c3:e2:be:12:94:69:62:03:96:5a:9c:49:
         ec:01:53:22:76:b7:03:3a:a3:35:c2:41:ea:a8:89:af:b0:9f:
         04:c3:8d:1d:6d:ba:b3:59:b2:16:82:61:9e:7e:7d:09:5b:ec:
         44:66:ce:30:44:d2:42:7d:04:ae:2f:63:a0:b8:02:1a:6e:97:
         fd:0c:66:73:49:52:4f:70:4e:e7:97:ee:c6:eb:aa:be:db:0a:
         6b:a8:a9:d8:3f:a9:fb:f9:b2:68:f0:86:8e:00:88:7a:a8:b7:
         50:1f:44:34:59:06:21:52:8d:d1:68:a1:ee:a6:03:ae:46:fd:
         54:6c:53:54:cb:8b:e8:0e:85:d9:45:f5:32:40:ca:8f:ac:c5:
         c2:8b:e8:f2:9c:58:fc:b0:11:b2:a2:2e:50:07:76:83:2a:85:
         03:02:e6:d1:14:10:55:43:12:5f:e0:c1:cf:42:b0:44:6c:bb:
         dd:46:24:17:9a:b3:f4:e9:79:d1:d5:53:e0:6e:59:00:f7:55:
         0e:6e:0c:be:4f:07:46:07:fd:6f:20:f9:6b:7f:9b:fc:67:58:
         4b:e1:80:ca:12:e2:63:4e:be:d5:b3:35:4f:c8:2b:8d:fa:74:
         2f:09:20:66:69:55:0e:a2:d1:48:8b:68:56:a9:a8:41:01:57:
         aa:7b:72:9c:5a:00:56:53:1e:39:33:6d:14:4d:56:30:3a:9d:
         42:65:ad:49:f4:b0:c9:98:2a:69:d5:93:5e:fb:b5:3f:6a:6f:
         00:ca:4c:c2:5f:e9:43:e6:8b:ed:90:9a:e6:38:87:d8:9c:05:
         f6:89:90:c0:0b:0e:c8:52:0b:f9:0b:89:78:a3:be:eb:03:2b:
         c1:ab:80:74:4c:a6:01:61:49:a0:3d:55:4d:d8:90:bd:b2:76:
         76:16:3e:da:2a:49:8e:f6:83:27:98:ee:8f:61:55:dd:f3:bb:
         48:fb:4f:99:cb:8c:05:31:de:6d:16:3f:af:0b:f8:5f:5d:6a:
         f6:d2:2b:fb:2a:6e:f1:57:32:e2:98:4d:c2:2b:01:c1:cf:5b:
         35:ff:a5:62:d9:27:6a:df:8a:fe:b5:78:ae:31:9d:bd:0a:5e:
         f6:0c:98:9a:30:73:36:38:b3:6c:62:2a:51:f1:f0:46:0e:9f:
         ba:4b:90:4d:ae:59:73:4a:1f:ef:f8:2a:b8:cb:85:7d:87:59:
         36:57:e9:d9:13:63:49:d5
-----BEGIN CERTIFICATE-----
MIIHSDCCBTCgAwIBAgICAnEwDQYJKoZIhvcNAQEFBQAwgbQxCzAJBgNVBAYTAlVT
MQswCQYDVQQIEwJDQTEVMBMGA1UEBxMMU2FuRnJhbmNpc2NvMRUwEwYDVQQKEwxQ
aXhnbG8sIEluYy4xEDAOBgNVBAsTB1ZQTi1DSUUxGjAYBgNVBAMTEXR1bm5lbC5w
aXhnbG8uY29tMRwwGgYDVQQpExNCYWxhIENoYW5kcmFzZWthcmFuMR4wHAYJKoZI
hvcNAQkBFg9iYWxhQHBpeGdsby5jb20wHhcNMTgwMjE0MDYzODQ0WhcNMjgwMjEy
MDYzODQ0WjCBqTELMAkGA1UEBhMCVVMxCzAJBgNVBAgTAkNBMRUwEwYDVQQHEwxT
YW5GcmFuY2lzY28xFTATBgNVBAoTDFBpeGdsbywgSW5jLjEQMA4GA1UECxMHVlBO
LUNJRTEPMA0GA1UEAxMGY2llNjI0MRwwGgYDVQQpExNCYWxhIENoYW5kcmFzZWth
cmFuMR4wHAYJKoZIhvcNAQkBFg9iYWxhQHBpeGdsby5jb20wggIiMA0GCSqGSIb3
DQEBAQUAA4ICDwAwggIKAoICAQDMS/U70Pd4ThpNyKQGx05VgcmRLHt6YRuFSFpM
AogngR4sfpCxhps8mtN9lW/sITaHkpaKcCWJ32L98pBJurrSHgC9Hdi1f30wTP04
75N8NCmrENcT9EDmyU0L8yrDqqZAAuObf5mYSEpghU448/3O8sl4D/J0wdSsI4It
STmkN+ySUzh+d5Pce9VeTTilo4gGyBJbdOdcaAtF3hVUtxlSJQgNuBu6eXeh9Icz
ES8CUZgDuTP/xbX9fhvwqve0gawKPlP4Vhq4smahQsUO6J7Xx0eTM4yYQG0CXt4X
QlEoGc02yQ2SAKjxh05vH8m6Z+RtsEL4qz1B/1/1PPBNLZCB2uPJF9vvdUSADImZ
jr5RTcs0uFThliEbs4xXGpObrlPDjbrPsLegl2uJzLV35LLPI4YbyjNXTsLE4gko
6O+A+9MDlRgw+0bBNkfvDJJ3MKmGMdeod8PomO3FQugHQqtu2o2oRG/I0RJurWmW
qzQ/ezlo44DCxFqEK2H9JehRYBGVN/tT4OQDWTw64NEoKHelInFUE/2Urd6Cg8Mq
hdWcixTb4I/6/M+PCT20Bqkvmmwt6RWXhCvVbLJrlsEpbg0w3DWILFO37545vr51
dBA40mjq6jvHDhfrUyNAwqCgo80Q6MZstViRtjE0Oyd6EW8yQLVKgTRq8jx+pTES
PWosmQIDAQABo4IBazCCAWcwCQYDVR0TBAIwADAtBglghkgBhvhCAQ0EIBYeRWFz
eS1SU0EgR2VuZXJhdGVkIENlcnRpZmljYXRlMB0GA1UdDgQWBBSjQ++f7SRkhWpp
VRF/gGnWbF69ezCB6QYDVR0jBIHhMIHegBTvOI0UUFinW02cF3L837msp1GwEKGB
uqSBtzCBtDELMAkGA1UEBhMCVVMxCzAJBgNVBAgTAkNBMRUwEwYDVQQHEwxTYW5G
cmFuY2lzY28xFTATBgNVBAoTDFBpeGdsbywgSW5jLjEQMA4GA1UECxMHVlBOLUNJ
RTEaMBgGA1UEAxMRdHVubmVsLnBpeGdsby5jb20xHDAaBgNVBCkTE0JhbGEgQ2hh
bmRyYXNla2FyYW4xHjAcBgkqhkiG9w0BCQEWD2JhbGFAcGl4Z2xvLmNvbYIJAKbb
xoOA5qB5MBMGA1UdJQQMMAoGCCsGAQUFBwMCMAsGA1UdDwQEAwIHgDANBgkqhkiG
9w0BAQUFAAOCAgEADKnV/uOcgfxSuU4pCuxWOx31myFQXQUgd9vkfri2YSHx8UL7
8nFFTOhGxglfKlcKUFuNk4jsVznBHIJMw+K+EpRpYgOWWpxJ7AFTIna3AzqjNcJB
6qiJr7CfBMONHW26s1myFoJhnn59CVvsRGbOMETSQn0Eri9joLgCGm6X/Qxmc0lS
T3BO55fuxuuqvtsKa6ip2D+p+/myaPCGjgCIeqi3UB9ENFkGIVKN0Wih7qYDrkb9
VGxTVMuL6A6F2UX1MkDKj6zFwovo8pxY/LARsqIuUAd2gyqFAwLm0RQQVUMSX+DB
z0KwRGy73UYkF5qz9Ol50dVT4G5ZAPdVDm4Mvk8HRgf9byD5a3+b/GdYS+GAyhLi
Y06+1bM1T8grjfp0LwkgZmlVDqLRSItoVqmoQQFXqntynFoAVlMeOTNtFE1WMDqd
QmWtSfSwyZgqadWTXvu1P2pvAMpMwl/pQ+aL7ZCa5jiH2JwF9omQwAsOyFIL+QuJ
eKO+6wMrwauAdEymAWFJoD1VTdiQvbJ2dhY+2ipJjvaDJ5juj2FV3fO7SPtPmcuM
BTHebRY/rwv4X11q9tIr+ypu8Vcy4phNwisBwc9bNf+lYtknat+K/rV4rjGdvQpe
9gyYmjBzNjizbGIqUfHwRg6fukuQTa5Zc0of7/gquMuFfYdZNlfp2RNjSdU=
-----END CERTIFICATE-----
