Certificate:
    Data:
        Version: 3 (0x2)
        Serial Number: 626 (0x272)
    Signature Algorithm: sha1WithRSAEncryption
        Issuer: C=US, ST=CA, L=SanFrancisco, O=Pixglo, Inc., OU=VPN-CIE, CN=tunnel.pixglo.com/name=Bala Chandrasekaran/emailAddress=bala@pixglo.com
        Validity
            Not Before: Feb 14 06:38:45 2018 GMT
            Not After : Feb 12 06:38:45 2028 GMT
        Subject: C=US, ST=CA, L=SanFrancisco, O=Pixglo, Inc., OU=VPN-CIE, CN=cie625/name=Bala Chandrasekaran/emailAddress=bala@pixglo.com
        Subject Public Key Info:
            Public Key Algorithm: rsaEncryption
                Public-Key: (4096 bit)
                Modulus:
                    00:91:16:42:e2:d2:fe:f7:bf:09:32:54:7f:7c:84:
                    d4:20:d8:15:fc:61:30:b3:27:b8:60:69:ad:e5:8e:
                    ad:1c:dd:d2:57:d6:9e:88:7a:5a:ba:88:7a:aa:0b:
                    39:50:67:cf:c1:b4:2f:1c:09:dc:ab:de:ce:0a:64:
                    5d:42:35:ae:71:b1:06:2b:3e:7f:86:06:51:c6:bf:
                    95:24:bc:c9:26:d5:36:5b:2b:b6:7c:60:4e:18:62:
                    bb:bc:36:11:f9:c0:bf:16:ec:13:c8:14:10:7d:51:
                    ec:94:6d:19:40:e5:2b:4f:3c:d3:b2:ab:33:77:70:
                    89:0f:ba:2b:94:6b:67:86:28:83:4a:ad:f6:f5:e9:
                    f1:bb:f8:4f:41:e4:a0:3e:a7:aa:11:66:15:90:a6:
                    13:6f:53:76:99:07:f6:3a:35:3d:58:9d:37:d6:cb:
                    36:8b:48:f6:1c:eb:11:5f:d5:2c:10:e2:0b:02:af:
                    bf:cd:df:82:37:a3:d0:d1:81:06:79:f6:03:f1:b2:
                    8b:d0:05:5b:1b:3a:57:71:f4:9e:90:01:94:69:11:
                    e5:a2:f7:ac:98:c9:f1:a6:84:54:c5:ca:84:b3:be:
                    9a:86:99:90:1d:bf:ca:10:19:bd:9a:b8:ec:4e:b7:
                    e4:05:3f:6c:55:3f:23:38:f0:cc:a0:81:a7:46:46:
                    94:35:e8:db:d9:83:75:90:4e:03:63:2b:bd:a0:af:
                    03:37:5d:df:d4:dd:a5:95:37:f1:c1:c8:d3:5e:70:
                    bc:cc:d6:85:2a:b9:86:8b:43:1e:c7:dc:cd:ac:ca:
                    00:60:a2:8b:00:a3:71:d2:14:a1:19:e2:5c:ad:76:
                    65:cb:69:bd:5d:30:22:b4:d7:d9:d0:c3:0e:b1:04:
                    2a:19:49:a7:07:40:f3:8a:d6:4a:bd:17:12:d7:48:
                    29:f0:f7:81:d5:52:39:c6:f0:18:6f:e1:fb:75:be:
                    80:fb:af:24:75:50:5f:86:4b:29:e3:9d:9a:70:b1:
                    b2:97:16:6e:1d:0a:18:bc:87:f6:1a:b9:79:6b:6b:
                    6c:7d:bc:6d:49:99:5f:33:f4:44:58:7a:77:0b:b1:
                    d6:c9:7a:06:c9:36:dd:76:fe:be:42:2f:07:0a:da:
                    d4:e0:b6:fd:ad:fd:8c:32:9d:28:6c:ba:b9:6f:f9:
                    a4:76:40:eb:ef:ce:5d:bb:d2:bd:cb:6f:2d:06:2a:
                    5d:fe:1d:f3:7c:60:07:47:0b:c1:53:af:b3:ba:1f:
                    43:41:55:00:3b:37:bc:0d:26:ef:03:15:32:a7:30:
                    aa:42:5f:79:9e:16:9f:20:32:15:70:46:54:a8:7b:
                    2f:8e:a1:32:ea:7a:be:f2:b3:40:ce:04:04:3c:f9:
                    dd:ed:a3
                Exponent: 65537 (0x10001)
        X509v3 extensions:
            X509v3 Basic Constraints: 
                CA:FALSE
            Netscape Comment: 
                Easy-RSA Generated Certificate
            X509v3 Subject Key Identifier: 
                E5:9B:BE:93:7A:4A:8D:02:35:50:D0:1A:90:2C:38:B6:20:FA:95:D9
            X509v3 Authority Key Identifier: 
                keyid:EF:38:8D:14:50:58:A7:5B:4D:9C:17:72:FC:DF:B9:AC:A7:51:B0:10
                DirName:/C=US/ST=CA/L=SanFrancisco/O=Pixglo, Inc./OU=VPN-CIE/CN=tunnel.pixglo.com/name=Bala Chandrasekaran/emailAddress=bala@pixglo.com
                serial:A6:DB:C6:83:80:E6:A0:79

            X509v3 Extended Key Usage: 
                TLS Web Client Authentication
            X509v3 Key Usage: 
                Digital Signature
    Signature Algorithm: sha1WithRSAEncryption
         c5:44:d4:b7:9e:09:d5:09:10:5e:99:ef:f7:a4:1b:94:d4:51:
         71:8c:fd:45:47:ce:1f:e5:76:d9:f0:d4:76:c3:c6:40:65:11:
         37:a8:ee:60:da:15:90:90:9f:fe:d2:90:d7:28:42:3b:3a:2e:
         37:b6:a8:89:2e:9f:27:e0:15:c4:20:ad:fb:92:f3:94:a4:01:
         20:4f:a0:74:b0:66:e5:2f:d8:6d:ea:38:b2:5b:42:5b:c7:b1:
         c9:41:1e:0b:e2:66:5a:49:1a:c5:b4:7a:44:9f:a5:fa:c0:82:
         d3:c1:b4:d0:27:25:d7:36:f9:5f:8d:85:99:6d:9f:db:aa:e3:
         c9:cb:82:81:55:ff:7d:56:1e:9e:5a:32:3d:21:43:06:37:0f:
         95:24:b3:67:99:d7:41:c5:22:41:19:7b:03:61:40:da:db:22:
         c8:84:a0:81:8a:c9:57:a8:24:cb:13:a4:20:15:fd:6c:2c:a8:
         c2:f4:18:87:e6:f9:04:04:04:b3:82:16:ae:c0:0f:3e:0d:ec:
         9c:1a:c8:7c:46:b5:27:19:7b:12:d8:d8:dc:4d:88:0d:0c:b2:
         5a:a1:80:ec:d9:37:cc:02:1c:ec:9f:0c:ad:c2:a6:1e:ff:81:
         b5:2a:1d:3e:eb:c2:82:55:9d:7d:bf:b5:38:8d:1c:c3:d1:ac:
         f2:cb:75:52:72:99:9e:36:22:61:b9:ac:bd:e9:5f:20:fc:24:
         3d:17:3e:22:de:09:44:9e:48:cf:32:e3:f2:f4:7d:fe:73:14:
         d1:1c:86:70:95:fb:e8:de:3b:bb:0f:31:b9:ec:8d:9b:21:43:
         68:89:f1:61:ac:cd:3d:b4:9a:ce:41:ae:ca:76:da:ec:ae:07:
         a1:4c:21:54:a0:50:9f:b9:b8:ba:1b:05:b7:a2:e0:16:62:05:
         b4:db:63:7b:c7:47:60:70:f7:2b:49:68:4a:d5:02:76:6a:86:
         96:31:1b:b3:d2:1e:19:fc:90:09:3f:64:8d:dc:be:54:fd:d8:
         83:f2:56:8a:07:5c:3d:9d:8c:de:09:83:15:55:2f:1d:77:25:
         b4:6c:33:85:ba:a1:f2:c3:cb:fb:23:e0:ab:50:a5:16:0d:9a:
         95:f0:40:b2:3e:a6:0f:4d:cc:de:4f:77:8d:fd:94:d9:a4:bd:
         50:6d:fe:bc:a9:86:db:7f:1e:c4:40:19:b5:4d:38:45:a9:ae:
         40:c4:75:42:69:d4:01:fe:1f:5d:8b:90:d7:12:a8:ff:fd:2e:
         5a:a6:4b:f2:61:c8:3c:10:dd:b4:9d:e2:f7:1b:39:57:40:cf:
         ce:77:e2:14:b8:31:b8:fd:9b:bc:b5:80:4a:a4:5a:4d:09:3d:
         56:67:e3:43:b5:ab:2b:27
-----BEGIN CERTIFICATE-----
MIIHSDCCBTCgAwIBAgICAnIwDQYJKoZIhvcNAQEFBQAwgbQxCzAJBgNVBAYTAlVT
MQswCQYDVQQIEwJDQTEVMBMGA1UEBxMMU2FuRnJhbmNpc2NvMRUwEwYDVQQKEwxQ
aXhnbG8sIEluYy4xEDAOBgNVBAsTB1ZQTi1DSUUxGjAYBgNVBAMTEXR1bm5lbC5w
aXhnbG8uY29tMRwwGgYDVQQpExNCYWxhIENoYW5kcmFzZWthcmFuMR4wHAYJKoZI
hvcNAQkBFg9iYWxhQHBpeGdsby5jb20wHhcNMTgwMjE0MDYzODQ1WhcNMjgwMjEy
MDYzODQ1WjCBqTELMAkGA1UEBhMCVVMxCzAJBgNVBAgTAkNBMRUwEwYDVQQHEwxT
YW5GcmFuY2lzY28xFTATBgNVBAoTDFBpeGdsbywgSW5jLjEQMA4GA1UECxMHVlBO
LUNJRTEPMA0GA1UEAxMGY2llNjI1MRwwGgYDVQQpExNCYWxhIENoYW5kcmFzZWth
cmFuMR4wHAYJKoZIhvcNAQkBFg9iYWxhQHBpeGdsby5jb20wggIiMA0GCSqGSIb3
DQEBAQUAA4ICDwAwggIKAoICAQCRFkLi0v73vwkyVH98hNQg2BX8YTCzJ7hgaa3l
jq0c3dJX1p6Ielq6iHqqCzlQZ8/BtC8cCdyr3s4KZF1CNa5xsQYrPn+GBlHGv5Uk
vMkm1TZbK7Z8YE4YYru8NhH5wL8W7BPIFBB9UeyUbRlA5StPPNOyqzN3cIkPuiuU
a2eGKINKrfb16fG7+E9B5KA+p6oRZhWQphNvU3aZB/Y6NT1YnTfWyzaLSPYc6xFf
1SwQ4gsCr7/N34I3o9DRgQZ59gPxsovQBVsbOldx9J6QAZRpEeWi96yYyfGmhFTF
yoSzvpqGmZAdv8oQGb2auOxOt+QFP2xVPyM48MyggadGRpQ16NvZg3WQTgNjK72g
rwM3Xd/U3aWVN/HByNNecLzM1oUquYaLQx7H3M2sygBgoosAo3HSFKEZ4lytdmXL
ab1dMCK019nQww6xBCoZSacHQPOK1kq9FxLXSCnw94HVUjnG8Bhv4ft1voD7ryR1
UF+GSynjnZpwsbKXFm4dChi8h/YauXlra2x9vG1JmV8z9ERYencLsdbJegbJNt12
/r5CLwcK2tTgtv2t/YwynShsurlv+aR2QOvvzl270r3Lby0GKl3+HfN8YAdHC8FT
r7O6H0NBVQA7N7wNJu8DFTKnMKpCX3meFp8gMhVwRlSoey+OoTLqer7ys0DOBAQ8
+d3towIDAQABo4IBazCCAWcwCQYDVR0TBAIwADAtBglghkgBhvhCAQ0EIBYeRWFz
eS1SU0EgR2VuZXJhdGVkIENlcnRpZmljYXRlMB0GA1UdDgQWBBTlm76TekqNAjVQ
0BqQLDi2IPqV2TCB6QYDVR0jBIHhMIHegBTvOI0UUFinW02cF3L837msp1GwEKGB
uqSBtzCBtDELMAkGA1UEBhMCVVMxCzAJBgNVBAgTAkNBMRUwEwYDVQQHEwxTYW5G
cmFuY2lzY28xFTATBgNVBAoTDFBpeGdsbywgSW5jLjEQMA4GA1UECxMHVlBOLUNJ
RTEaMBgGA1UEAxMRdHVubmVsLnBpeGdsby5jb20xHDAaBgNVBCkTE0JhbGEgQ2hh
bmRyYXNla2FyYW4xHjAcBgkqhkiG9w0BCQEWD2JhbGFAcGl4Z2xvLmNvbYIJAKbb
xoOA5qB5MBMGA1UdJQQMMAoGCCsGAQUFBwMCMAsGA1UdDwQEAwIHgDANBgkqhkiG
9w0BAQUFAAOCAgEAxUTUt54J1QkQXpnv96QblNRRcYz9RUfOH+V22fDUdsPGQGUR
N6juYNoVkJCf/tKQ1yhCOzouN7aoiS6fJ+AVxCCt+5LzlKQBIE+gdLBm5S/Ybeo4
sltCW8exyUEeC+JmWkkaxbR6RJ+l+sCC08G00Ccl1zb5X42FmW2f26rjycuCgVX/
fVYenloyPSFDBjcPlSSzZ5nXQcUiQRl7A2FA2tsiyISggYrJV6gkyxOkIBX9bCyo
wvQYh+b5BAQEs4IWrsAPPg3snBrIfEa1Jxl7EtjY3E2IDQyyWqGA7Nk3zAIc7J8M
rcKmHv+BtSodPuvCglWdfb+1OI0cw9Gs8st1UnKZnjYiYbmsvelfIPwkPRc+It4J
RJ5IzzLj8vR9/nMU0RyGcJX76N47uw8xueyNmyFDaInxYazNPbSazkGuynba7K4H
oUwhVKBQn7m4uhsFt6LgFmIFtNtje8dHYHD3K0loStUCdmqGljEbs9IeGfyQCT9k
jdy+VP3Yg/JWigdcPZ2M3gmDFVUvHXcltGwzhbqh8sPL+yPgq1ClFg2alfBAsj6m
D03M3k93jf2U2aS9UG3+vKmG238exEAZtU04RamuQMR1QmnUAf4fXYuQ1xKo//0u
WqZL8mHIPBDdtJ3i9xs5V0DPznfiFLgxuP2bvLWASqRaTQk9VmfjQ7WrKyc=
-----END CERTIFICATE-----
