Certificate:
    Data:
        Version: 3 (0x2)
        Serial Number: 628 (0x274)
    Signature Algorithm: sha1WithRSAEncryption
        Issuer: C=US, ST=CA, L=SanFrancisco, O=Pixglo, Inc., OU=VPN-CIE, CN=tunnel.pixglo.com/name=Bala Chandrasekaran/emailAddress=bala@pixglo.com
        Validity
            Not Before: Feb 14 06:38:48 2018 GMT
            Not After : Feb 12 06:38:48 2028 GMT
        Subject: C=US, ST=CA, L=SanFrancisco, O=Pixglo, Inc., OU=VPN-CIE, CN=cie627/name=Bala Chandrasekaran/emailAddress=bala@pixglo.com
        Subject Public Key Info:
            Public Key Algorithm: rsaEncryption
                Public-Key: (4096 bit)
                Modulus:
                    00:a8:db:26:b8:b0:18:55:e0:f9:e1:d0:a1:59:a2:
                    f5:40:f3:41:e6:db:14:de:1c:33:38:4c:02:aa:14:
                    6d:34:56:0c:0e:ff:2c:29:f6:81:e6:be:12:3a:c8:
                    4f:b7:3a:80:b9:d2:16:21:4d:e4:60:9c:f8:4e:e7:
                    6d:46:08:af:f4:d3:04:f4:b8:67:41:bd:71:51:fc:
                    de:98:63:c4:48:91:88:26:9a:3f:ed:cb:a5:45:6c:
                    fe:c8:51:93:49:2e:b5:12:5e:2d:30:f9:b3:8f:14:
                    2d:7d:9f:db:58:a8:90:f0:19:9a:07:6d:96:f5:9f:
                    ff:f3:99:34:a6:17:37:44:28:96:6f:2a:06:ed:9e:
                    f8:22:9b:c4:81:10:8a:a2:31:62:3d:bf:30:2f:c8:
                    6f:07:db:3b:cb:07:13:2d:90:6f:3a:54:78:20:14:
                    14:d3:95:db:ca:df:ad:6e:b1:ac:7a:66:51:0c:4d:
                    46:88:b4:75:5c:58:5f:4d:c2:c8:ae:da:5f:6b:19:
                    49:c4:74:45:07:60:f8:26:bd:03:db:dc:25:7d:07:
                    d5:e1:70:e7:24:df:ed:58:26:c7:cb:59:5c:65:6c:
                    84:ea:a3:70:44:60:91:b4:80:ea:7f:e9:84:5c:66:
                    b0:4d:ee:f8:55:d7:f8:f6:a4:b0:2f:d2:51:6f:fa:
                    07:6c:e4:40:60:4a:74:d3:b2:90:d2:06:9a:df:c6:
                    1a:8c:76:97:df:c6:d9:4a:79:84:37:a4:f1:2d:64:
                    b1:e0:b7:f9:a1:83:3b:e7:7a:9a:99:12:1a:ef:0b:
                    20:11:35:71:58:79:1e:a8:47:9a:7f:2d:1b:2e:c7:
                    ec:c1:14:63:5e:d8:f4:8b:df:81:85:b4:f3:32:70:
                    1d:7b:f1:d8:99:77:3a:5a:27:5b:34:7a:b8:4f:04:
                    58:6d:65:c6:91:3b:8d:20:f2:7d:44:2d:3b:19:5e:
                    d2:25:7f:f6:a1:fa:86:ed:1c:4e:19:02:17:31:45:
                    1f:1a:14:a5:9e:fe:94:08:87:49:f9:85:92:99:c9:
                    2d:01:1f:75:83:2c:d3:53:db:b9:39:29:c1:d3:63:
                    bf:5f:1a:82:9d:d5:82:67:9a:63:40:8d:64:0b:17:
                    1f:8e:25:24:59:00:1f:06:b8:ff:be:57:62:aa:7c:
                    09:25:4a:bc:8e:eb:54:79:41:40:00:38:5c:a4:71:
                    17:84:11:21:37:77:24:6b:b8:38:31:46:42:63:b7:
                    30:01:f2:f9:5e:7f:c8:ed:21:cc:60:18:1d:e9:8b:
                    a1:ec:a9:f7:0a:34:c1:43:13:83:c8:31:50:91:2a:
                    37:0f:88:6f:bd:aa:f3:88:1c:ed:ee:24:6d:9a:48:
                    d7:18:a3
                Exponent: 65537 (0x10001)
        X509v3 extensions:
            X509v3 Basic Constraints: 
                CA:FALSE
            Netscape Comment: 
                Easy-RSA Generated Certificate
            X509v3 Subject Key Identifier: 
                0C:E0:30:87:FB:31:25:01:43:C7:33:AA:F5:D1:48:F9:54:D4:95:A0
            X509v3 Authority Key Identifier: 
                keyid:EF:38:8D:14:50:58:A7:5B:4D:9C:17:72:FC:DF:B9:AC:A7:51:B0:10
                DirName:/C=US/ST=CA/L=SanFrancisco/O=Pixglo, Inc./OU=VPN-CIE/CN=tunnel.pixglo.com/name=Bala Chandrasekaran/emailAddress=bala@pixglo.com
                serial:A6:DB:C6:83:80:E6:A0:79

            X509v3 Extended Key Usage: 
                TLS Web Client Authentication
            X509v3 Key Usage: 
                Digital Signature
    Signature Algorithm: sha1WithRSAEncryption
         b6:8b:b3:a6:8d:4d:7d:fa:14:90:1f:85:08:ea:0f:ce:79:c1:
         02:87:85:74:46:87:1f:21:a4:27:71:59:39:55:ac:af:9b:88:
         b2:2b:e2:cf:fa:f1:37:e0:86:3b:6c:ef:bb:e8:fd:d1:73:35:
         21:84:e4:39:af:e6:26:08:46:e2:cb:4e:59:1e:03:29:70:41:
         2d:4c:ec:18:c3:d3:c9:b4:b8:cd:98:18:1d:42:af:a8:17:0d:
         7b:5b:1f:88:ac:6c:82:bd:12:99:9e:b0:06:52:52:65:cb:7e:
         c2:9a:51:c2:3c:1e:6d:9e:8a:47:ff:b0:87:69:bc:4a:4b:ef:
         27:aa:2a:35:1b:8e:86:7b:83:4a:1b:4c:68:66:aa:2d:bc:26:
         69:60:cf:6a:c4:42:76:ac:16:a1:94:68:86:b7:a5:e8:e0:cd:
         46:ec:84:c1:02:a8:57:50:8e:66:c9:e5:31:4b:60:78:39:1c:
         32:62:10:70:ff:09:f3:8f:0e:11:ce:5a:5c:84:11:ac:4b:29:
         b7:bc:60:03:8f:2b:8c:6e:c9:34:c9:39:0a:55:ea:f8:de:87:
         d6:42:19:d9:82:d9:bd:98:de:2b:03:c4:58:72:4e:9d:e8:ff:
         c8:89:ac:57:a5:d4:6d:a1:58:20:f4:85:36:39:23:aa:b2:5e:
         f2:8e:51:dd:60:4f:8e:49:56:78:24:dd:a4:b7:a3:98:03:55:
         09:ff:b0:f9:b9:8d:27:33:b0:f7:ae:3f:58:91:ea:aa:73:2d:
         ac:d0:7f:e2:21:6d:92:b3:7f:5c:88:f4:a2:03:32:b7:16:87:
         b4:57:2a:57:96:82:11:e1:a3:eb:77:cb:db:c5:62:fc:fd:da:
         97:42:21:f7:50:83:6a:1b:0a:ba:ed:ee:c3:ac:14:ca:c6:1b:
         5c:36:a5:62:01:44:bb:59:e5:ef:e5:b6:65:e2:6e:b6:e0:2a:
         69:16:6d:a9:58:8e:eb:5c:ca:0f:dd:9d:e2:49:eb:1a:b1:86:
         6b:4c:ee:ce:51:8c:cc:4a:34:17:38:cb:a5:d0:80:2a:aa:6b:
         27:a9:83:86:66:5e:06:37:73:b9:df:a6:be:ad:8a:3c:7f:ea:
         37:09:d5:c7:cb:7f:ac:b7:2d:a9:be:76:ad:a2:de:fd:25:64:
         86:7d:4d:7f:48:e9:6b:f4:2f:32:1c:57:0d:05:b6:cc:3f:bd:
         9e:8b:fe:ec:a4:82:b1:b9:49:1e:36:59:f6:20:8a:a0:5f:6f:
         fb:76:f4:11:7b:8c:35:d0:27:e7:15:44:74:b0:c0:4c:f2:d4:
         b3:9e:cb:8e:15:f5:a6:71:44:4e:62:85:88:f3:3e:3e:e5:6d:
         23:68:70:66:02:83:16:14
-----BEGIN CERTIFICATE-----
MIIHSDCCBTCgAwIBAgICAnQwDQYJKoZIhvcNAQEFBQAwgbQxCzAJBgNVBAYTAlVT
MQswCQYDVQQIEwJDQTEVMBMGA1UEBxMMU2FuRnJhbmNpc2NvMRUwEwYDVQQKEwxQ
aXhnbG8sIEluYy4xEDAOBgNVBAsTB1ZQTi1DSUUxGjAYBgNVBAMTEXR1bm5lbC5w
aXhnbG8uY29tMRwwGgYDVQQpExNCYWxhIENoYW5kcmFzZWthcmFuMR4wHAYJKoZI
hvcNAQkBFg9iYWxhQHBpeGdsby5jb20wHhcNMTgwMjE0MDYzODQ4WhcNMjgwMjEy
MDYzODQ4WjCBqTELMAkGA1UEBhMCVVMxCzAJBgNVBAgTAkNBMRUwEwYDVQQHEwxT
YW5GcmFuY2lzY28xFTATBgNVBAoTDFBpeGdsbywgSW5jLjEQMA4GA1UECxMHVlBO
LUNJRTEPMA0GA1UEAxMGY2llNjI3MRwwGgYDVQQpExNCYWxhIENoYW5kcmFzZWth
cmFuMR4wHAYJKoZIhvcNAQkBFg9iYWxhQHBpeGdsby5jb20wggIiMA0GCSqGSIb3
DQEBAQUAA4ICDwAwggIKAoICAQCo2ya4sBhV4Pnh0KFZovVA80Hm2xTeHDM4TAKq
FG00VgwO/ywp9oHmvhI6yE+3OoC50hYhTeRgnPhO521GCK/00wT0uGdBvXFR/N6Y
Y8RIkYgmmj/ty6VFbP7IUZNJLrUSXi0w+bOPFC19n9tYqJDwGZoHbZb1n//zmTSm
FzdEKJZvKgbtnvgim8SBEIqiMWI9vzAvyG8H2zvLBxMtkG86VHggFBTTldvK361u
sax6ZlEMTUaItHVcWF9Nwsiu2l9rGUnEdEUHYPgmvQPb3CV9B9XhcOck3+1YJsfL
WVxlbITqo3BEYJG0gOp/6YRcZrBN7vhV1/j2pLAv0lFv+gds5EBgSnTTspDSBprf
xhqMdpffxtlKeYQ3pPEtZLHgt/mhgzvnepqZEhrvCyARNXFYeR6oR5p/LRsux+zB
FGNe2PSL34GFtPMycB178diZdzpaJ1s0erhPBFhtZcaRO40g8n1ELTsZXtIlf/ah
+obtHE4ZAhcxRR8aFKWe/pQIh0n5hZKZyS0BH3WDLNNT27k5KcHTY79fGoKd1YJn
mmNAjWQLFx+OJSRZAB8GuP++V2KqfAklSryO61R5QUAAOFykcReEESE3dyRruDgx
RkJjtzAB8vlef8jtIcxgGB3pi6HsqfcKNMFDE4PIMVCRKjcPiG+9qvOIHO3uJG2a
SNcYowIDAQABo4IBazCCAWcwCQYDVR0TBAIwADAtBglghkgBhvhCAQ0EIBYeRWFz
eS1SU0EgR2VuZXJhdGVkIENlcnRpZmljYXRlMB0GA1UdDgQWBBQM4DCH+zElAUPH
M6r10Uj5VNSVoDCB6QYDVR0jBIHhMIHegBTvOI0UUFinW02cF3L837msp1GwEKGB
uqSBtzCBtDELMAkGA1UEBhMCVVMxCzAJBgNVBAgTAkNBMRUwEwYDVQQHEwxTYW5G
cmFuY2lzY28xFTATBgNVBAoTDFBpeGdsbywgSW5jLjEQMA4GA1UECxMHVlBOLUNJ
RTEaMBgGA1UEAxMRdHVubmVsLnBpeGdsby5jb20xHDAaBgNVBCkTE0JhbGEgQ2hh
bmRyYXNla2FyYW4xHjAcBgkqhkiG9w0BCQEWD2JhbGFAcGl4Z2xvLmNvbYIJAKbb
xoOA5qB5MBMGA1UdJQQMMAoGCCsGAQUFBwMCMAsGA1UdDwQEAwIHgDANBgkqhkiG
9w0BAQUFAAOCAgEAtouzpo1NffoUkB+FCOoPznnBAoeFdEaHHyGkJ3FZOVWsr5uI
siviz/rxN+CGO2zvu+j90XM1IYTkOa/mJghG4stOWR4DKXBBLUzsGMPTybS4zZgY
HUKvqBcNe1sfiKxsgr0SmZ6wBlJSZct+wppRwjwebZ6KR/+wh2m8SkvvJ6oqNRuO
hnuDShtMaGaqLbwmaWDPasRCdqwWoZRohrel6ODNRuyEwQKoV1COZsnlMUtgeDkc
MmIQcP8J848OEc5aXIQRrEspt7xgA48rjG7JNMk5ClXq+N6H1kIZ2YLZvZjeKwPE
WHJOnej/yImsV6XUbaFYIPSFNjkjqrJe8o5R3WBPjklWeCTdpLejmANVCf+w+bmN
JzOw964/WJHqqnMtrNB/4iFtkrN/XIj0ogMytxaHtFcqV5aCEeGj63fL28Vi/P3a
l0Ih91CDahsKuu3uw6wUysYbXDalYgFEu1nl7+W2ZeJutuAqaRZtqViO61zKD92d
4knrGrGGa0zuzlGMzEo0FzjLpdCAKqprJ6mDhmZeBjdzud+mvq2KPH/qNwnVx8t/
rLctqb52raLe/SVkhn1Nf0jpa/QvMhxXDQW2zD+9nov+7KSCsblJHjZZ9iCKoF9v
+3b0EXuMNdAn5xVEdLDATPLUs57LjhX1pnFETmKFiPM+PuVtI2hwZgKDFhQ=
-----END CERTIFICATE-----
