Certificate:
    Data:
        Version: 3 (0x2)
        Serial Number: 630 (0x276)
    Signature Algorithm: sha1WithRSAEncryption
        Issuer: C=US, ST=CA, L=SanFrancisco, O=Pixglo, Inc., OU=VPN-CIE, CN=tunnel.pixglo.com/name=Bala Chandrasekaran/emailAddress=bala@pixglo.com
        Validity
            Not Before: Feb 14 06:38:51 2018 GMT
            Not After : Feb 12 06:38:51 2028 GMT
        Subject: C=US, ST=CA, L=SanFrancisco, O=Pixglo, Inc., OU=VPN-CIE, CN=cie629/name=Bala Chandrasekaran/emailAddress=bala@pixglo.com
        Subject Public Key Info:
            Public Key Algorithm: rsaEncryption
                Public-Key: (4096 bit)
                Modulus:
                    00:c6:79:6f:40:e2:c0:b1:7a:4d:f1:bd:2c:90:93:
                    23:c7:5d:31:df:49:19:73:ee:59:ef:9e:68:17:f5:
                    dc:2e:ca:7b:1f:33:5f:38:4f:5d:d4:0a:b9:b7:60:
                    fb:6d:c7:83:dc:86:f9:c4:e0:46:f4:f2:e3:0e:2f:
                    d6:b8:dc:e2:7f:98:0e:1b:57:81:70:68:59:e2:12:
                    20:48:eb:5e:34:66:2b:ba:5e:31:3d:f3:09:80:5c:
                    2c:59:fd:95:2c:a4:1e:e2:a5:47:62:67:19:9d:4b:
                    7a:4f:d0:8c:8b:61:09:91:07:b2:ce:a3:34:b3:74:
                    21:89:4e:d3:bc:96:c4:ab:44:3b:c7:79:62:79:54:
                    31:c6:5a:43:0b:c5:35:fc:54:8b:29:88:fd:a1:90:
                    35:cc:06:23:7b:11:d3:65:03:41:41:32:81:2b:1b:
                    d3:29:c3:46:4b:a3:f8:f5:de:9f:b9:23:97:f6:87:
                    2d:61:ce:cd:0d:a8:b2:0a:53:67:d6:8e:5d:8e:b0:
                    c2:4a:68:97:ab:d4:4f:95:41:14:f6:3f:cb:74:f2:
                    a3:05:86:c7:f6:a9:30:d7:a9:20:f1:17:5c:a6:45:
                    6c:2a:ff:57:f1:c9:7b:fa:7a:a9:b2:d8:38:77:6d:
                    bd:9c:6a:92:eb:42:75:7a:93:7c:50:b4:d2:c8:26:
                    e4:67:0d:e4:a4:ee:a1:cc:bd:e8:a6:de:49:78:59:
                    cb:71:4a:f0:82:e7:42:f1:3c:de:e8:db:be:19:d3:
                    b0:db:b3:5c:10:b7:94:15:5d:92:2a:89:e9:99:31:
                    3c:89:2a:bd:c2:a0:44:6a:9d:92:26:1a:18:db:49:
                    ed:cb:5b:48:77:98:11:5e:9f:f1:b4:dc:f6:a6:e8:
                    0f:cd:95:6f:6e:39:c7:3c:c1:e2:14:b4:1d:07:4d:
                    49:b7:0c:5d:7d:6e:23:85:23:86:e9:32:a2:e0:2b:
                    3d:13:6c:0d:cd:03:d5:39:6a:24:e9:5d:62:a3:ce:
                    3a:de:6d:a3:b0:bd:b8:bc:de:f7:2b:45:e0:05:ae:
                    2d:c0:94:aa:70:e3:f4:5b:9b:5b:3a:1f:8e:67:05:
                    45:b8:f8:be:4d:fb:c9:a3:a4:83:b3:a2:be:ca:9e:
                    14:96:fc:c8:8e:7d:9d:23:30:99:7c:fa:7d:1c:08:
                    f4:6c:f6:1c:34:3f:4e:4e:a2:59:73:c4:77:aa:5d:
                    c1:81:68:79:7e:19:17:24:87:85:1f:f2:80:d3:e8:
                    84:7b:e8:39:46:ed:15:8a:46:88:7e:f0:1e:57:47:
                    00:49:81:f3:70:60:e6:4f:db:48:ca:c5:e9:e5:43:
                    ae:ff:6f:74:ef:c0:8a:81:ad:d0:1b:39:e4:21:be:
                    b6:2b:11
                Exponent: 65537 (0x10001)
        X509v3 extensions:
            X509v3 Basic Constraints: 
                CA:FALSE
            Netscape Comment: 
                Easy-RSA Generated Certificate
            X509v3 Subject Key Identifier: 
                55:E0:7D:FC:88:B5:94:49:37:0B:9C:D2:D2:7C:57:E8:0B:7F:90:43
            X509v3 Authority Key Identifier: 
                keyid:EF:38:8D:14:50:58:A7:5B:4D:9C:17:72:FC:DF:B9:AC:A7:51:B0:10
                DirName:/C=US/ST=CA/L=SanFrancisco/O=Pixglo, Inc./OU=VPN-CIE/CN=tunnel.pixglo.com/name=Bala Chandrasekaran/emailAddress=bala@pixglo.com
                serial:A6:DB:C6:83:80:E6:A0:79

            X509v3 Extended Key Usage: 
                TLS Web Client Authentication
            X509v3 Key Usage: 
                Digital Signature
    Signature Algorithm: sha1WithRSAEncryption
         02:93:8f:69:f6:e5:e0:69:f9:96:db:54:d9:02:3b:a2:e7:06:
         52:0c:80:6b:52:a6:ca:f6:48:f5:cd:70:f2:58:e9:34:5a:20:
         ed:03:04:f9:12:67:a0:4f:27:9d:92:ac:45:67:e7:d6:03:71:
         14:9d:2a:10:3c:f3:a5:2a:76:a4:69:5e:71:62:64:a3:cb:18:
         76:4f:94:b3:a0:74:fc:fa:62:66:54:93:65:9d:a0:ac:65:43:
         a2:af:f4:bb:2c:28:fd:f7:65:a1:9f:ec:55:5d:33:cb:7d:ee:
         f5:3c:eb:f3:61:43:02:a2:b2:05:93:46:a0:67:33:4e:12:07:
         fc:36:39:aa:ae:33:99:8d:24:9a:85:5f:2b:00:4f:5f:2a:b4:
         d0:48:5d:24:0c:6c:98:23:5d:f4:d9:03:ae:bf:3c:ea:ac:30:
         0d:52:63:67:10:09:c7:df:ee:ae:23:8d:61:c6:1b:99:d2:c7:
         9f:25:fa:04:00:0d:11:60:95:f6:15:10:68:c9:6f:a2:b4:f3:
         cc:3e:45:fb:81:44:ab:00:54:b9:15:01:73:6e:33:73:66:79:
         eb:3e:0a:29:0a:f0:23:ef:c0:96:84:3b:54:d1:2c:67:9d:80:
         a3:62:42:5a:79:2a:d3:48:61:35:15:50:8d:a8:dc:4f:70:c5:
         73:bd:30:04:15:5c:3a:aa:17:18:eb:69:15:cc:5c:b7:19:ab:
         bb:47:e0:f7:b8:c0:13:34:c5:24:d6:6b:13:88:60:48:29:9a:
         25:ce:6b:39:92:f9:4b:18:00:53:72:35:29:9f:76:ec:d9:76:
         da:8f:12:b0:72:48:15:87:1f:3a:cb:66:fb:46:9b:b2:d9:1a:
         68:26:36:8e:c2:fa:2e:23:ed:3b:55:72:a3:25:51:a7:5d:99:
         8e:08:25:ea:98:a0:24:fd:98:2f:3c:52:74:59:c3:40:57:fd:
         3b:3f:e0:f7:41:01:02:6a:eb:df:0b:c8:ac:09:6d:69:4c:87:
         b7:52:4c:2a:23:93:54:1f:f5:8a:34:bc:c8:89:98:1e:6d:fd:
         49:de:ef:cd:20:20:e7:65:14:01:47:b6:f6:af:15:e5:80:fc:
         61:03:de:eb:1d:c8:6f:99:22:b0:8d:bc:d9:ee:53:20:b2:fd:
         20:82:d7:d4:0c:31:55:47:ae:66:30:d1:44:c9:63:8d:29:6a:
         16:68:b3:e6:f8:4b:33:c7:89:d3:74:b4:10:48:65:d1:20:1c:
         27:c3:f5:c0:12:59:d0:57:db:94:e1:78:21:56:36:a6:11:61:
         17:7d:dd:21:82:eb:19:ed:07:3b:f3:64:c7:ba:ec:e0:35:d7:
         f7:79:e8:8c:29:ab:18:5b
-----BEGIN CERTIFICATE-----
MIIHSDCCBTCgAwIBAgICAnYwDQYJKoZIhvcNAQEFBQAwgbQxCzAJBgNVBAYTAlVT
MQswCQYDVQQIEwJDQTEVMBMGA1UEBxMMU2FuRnJhbmNpc2NvMRUwEwYDVQQKEwxQ
aXhnbG8sIEluYy4xEDAOBgNVBAsTB1ZQTi1DSUUxGjAYBgNVBAMTEXR1bm5lbC5w
aXhnbG8uY29tMRwwGgYDVQQpExNCYWxhIENoYW5kcmFzZWthcmFuMR4wHAYJKoZI
hvcNAQkBFg9iYWxhQHBpeGdsby5jb20wHhcNMTgwMjE0MDYzODUxWhcNMjgwMjEy
MDYzODUxWjCBqTELMAkGA1UEBhMCVVMxCzAJBgNVBAgTAkNBMRUwEwYDVQQHEwxT
YW5GcmFuY2lzY28xFTATBgNVBAoTDFBpeGdsbywgSW5jLjEQMA4GA1UECxMHVlBO
LUNJRTEPMA0GA1UEAxMGY2llNjI5MRwwGgYDVQQpExNCYWxhIENoYW5kcmFzZWth
cmFuMR4wHAYJKoZIhvcNAQkBFg9iYWxhQHBpeGdsby5jb20wggIiMA0GCSqGSIb3
DQEBAQUAA4ICDwAwggIKAoICAQDGeW9A4sCxek3xvSyQkyPHXTHfSRlz7lnvnmgX
9dwuynsfM184T13UCrm3YPttx4PchvnE4Eb08uMOL9a43OJ/mA4bV4FwaFniEiBI
6140Ziu6XjE98wmAXCxZ/ZUspB7ipUdiZxmdS3pP0IyLYQmRB7LOozSzdCGJTtO8
lsSrRDvHeWJ5VDHGWkMLxTX8VIspiP2hkDXMBiN7EdNlA0FBMoErG9Mpw0ZLo/j1
3p+5I5f2hy1hzs0NqLIKU2fWjl2OsMJKaJer1E+VQRT2P8t08qMFhsf2qTDXqSDx
F1ymRWwq/1fxyXv6eqmy2Dh3bb2capLrQnV6k3xQtNLIJuRnDeSk7qHMveim3kl4
WctxSvCC50LxPN7o274Z07Dbs1wQt5QVXZIqiemZMTyJKr3CoERqnZImGhjbSe3L
W0h3mBFen/G03Pam6A/NlW9uOcc8weIUtB0HTUm3DF19biOFI4bpMqLgKz0TbA3N
A9U5aiTpXWKjzjrebaOwvbi83vcrReAFri3AlKpw4/Rbm1s6H45nBUW4+L5N+8mj
pIOzor7KnhSW/MiOfZ0jMJl8+n0cCPRs9hw0P05OollzxHeqXcGBaHl+GRckh4Uf
8oDT6IR76DlG7RWKRoh+8B5XRwBJgfNwYOZP20jKxenlQ67/b3TvwIqBrdAbOeQh
vrYrEQIDAQABo4IBazCCAWcwCQYDVR0TBAIwADAtBglghkgBhvhCAQ0EIBYeRWFz
eS1SU0EgR2VuZXJhdGVkIENlcnRpZmljYXRlMB0GA1UdDgQWBBRV4H38iLWUSTcL
nNLSfFfoC3+QQzCB6QYDVR0jBIHhMIHegBTvOI0UUFinW02cF3L837msp1GwEKGB
uqSBtzCBtDELMAkGA1UEBhMCVVMxCzAJBgNVBAgTAkNBMRUwEwYDVQQHEwxTYW5G
cmFuY2lzY28xFTATBgNVBAoTDFBpeGdsbywgSW5jLjEQMA4GA1UECxMHVlBOLUNJ
RTEaMBgGA1UEAxMRdHVubmVsLnBpeGdsby5jb20xHDAaBgNVBCkTE0JhbGEgQ2hh
bmRyYXNla2FyYW4xHjAcBgkqhkiG9w0BCQEWD2JhbGFAcGl4Z2xvLmNvbYIJAKbb
xoOA5qB5MBMGA1UdJQQMMAoGCCsGAQUFBwMCMAsGA1UdDwQEAwIHgDANBgkqhkiG
9w0BAQUFAAOCAgEAApOPafbl4Gn5lttU2QI7oucGUgyAa1KmyvZI9c1w8ljpNFog
7QME+RJnoE8nnZKsRWfn1gNxFJ0qEDzzpSp2pGlecWJko8sYdk+Us6B0/PpiZlST
ZZ2grGVDoq/0uywo/fdloZ/sVV0zy33u9Tzr82FDAqKyBZNGoGczThIH/DY5qq4z
mY0kmoVfKwBPXyq00EhdJAxsmCNd9NkDrr886qwwDVJjZxAJx9/uriONYcYbmdLH
nyX6BAANEWCV9hUQaMlvorTzzD5F+4FEqwBUuRUBc24zc2Z56z4KKQrwI+/AloQ7
VNEsZ52Ao2JCWnkq00hhNRVQjajcT3DFc70wBBVcOqoXGOtpFcxctxmru0fg97jA
EzTFJNZrE4hgSCmaJc5rOZL5SxgAU3I1KZ927Nl22o8SsHJIFYcfOstm+0abstka
aCY2jsL6LiPtO1VyoyVRp12Zjggl6pigJP2YLzxSdFnDQFf9Oz/g90EBAmrr3wvI
rAltaUyHt1JMKiOTVB/1ijS8yImYHm39Sd7vzSAg52UUAUe29q8V5YD8YQPe6x3I
b5kisI282e5TILL9IILX1AwxVUeuZjDRRMljjSlqFmiz5vhLM8eJ03S0EEhl0SAc
J8P1wBJZ0FfblOF4IVY2phFhF33dIYLrGe0HO/Nkx7rs4DXX93nojCmrGFs=
-----END CERTIFICATE-----
