Certificate:
    Data:
        Version: 3 (0x2)
        Serial Number: 631 (0x277)
    Signature Algorithm: sha1WithRSAEncryption
        Issuer: C=US, ST=CA, L=SanFrancisco, O=Pixglo, Inc., OU=VPN-CIE, CN=tunnel.pixglo.com/name=Bala Chandrasekaran/emailAddress=bala@pixglo.com
        Validity
            Not Before: Feb 14 06:38:52 2018 GMT
            Not After : Feb 12 06:38:52 2028 GMT
        Subject: C=US, ST=CA, L=SanFrancisco, O=Pixglo, Inc., OU=VPN-CIE, CN=cie630/name=Bala Chandrasekaran/emailAddress=bala@pixglo.com
        Subject Public Key Info:
            Public Key Algorithm: rsaEncryption
                Public-Key: (4096 bit)
                Modulus:
                    00:c3:59:d9:58:98:13:62:c7:e0:14:ec:5c:c3:05:
                    17:c7:a3:9d:05:c3:0b:04:f8:6f:87:6a:85:11:66:
                    30:de:39:87:68:0c:c8:d0:98:0a:99:dd:f6:53:90:
                    21:64:9a:4b:0c:4a:dc:35:4f:12:92:2d:02:7b:1c:
                    d8:a4:0a:54:95:42:1f:c6:2b:39:62:6c:58:be:cf:
                    1e:95:b5:61:b3:da:a0:4a:e7:e5:50:8e:5b:40:0d:
                    c4:fa:1c:75:8f:3f:27:3c:30:31:2b:ff:8f:88:a2:
                    6f:16:d9:ef:3b:2d:ff:d1:d2:e1:f4:2b:75:cf:db:
                    05:13:52:4e:c3:af:22:e7:10:5d:76:b6:6e:3b:88:
                    fd:8f:94:12:52:af:76:cb:f4:b5:8a:89:a6:95:29:
                    c8:d3:00:90:76:7a:95:b0:1e:a9:b1:cd:9d:17:41:
                    73:28:69:6e:fd:a3:79:98:1f:db:91:c8:54:c5:2a:
                    9c:4b:0b:3c:3e:bd:2c:25:db:01:c3:16:23:c4:13:
                    33:a7:49:79:ed:b6:98:d6:a3:cf:bd:bd:e5:c3:44:
                    5f:44:5a:d2:a6:c8:88:a3:0c:69:d7:ad:b3:64:5a:
                    23:44:8d:f6:30:e9:df:28:97:c1:f0:f3:c2:1a:ce:
                    79:41:16:8d:84:d0:0e:aa:d4:28:3f:76:58:94:ca:
                    9c:ce:6b:f4:99:ae:81:3e:14:68:f8:78:c9:63:b2:
                    fd:19:b6:dc:07:cb:ba:33:25:6d:71:99:8b:5e:63:
                    8b:ab:74:26:48:b3:f5:c4:83:a5:ab:cf:88:29:60:
                    8d:82:14:a2:48:2f:91:bf:2f:52:c0:a1:67:2d:ba:
                    dc:0a:43:93:9a:c2:8e:2c:e6:a3:20:89:88:a5:87:
                    38:70:e1:75:be:e2:3a:f3:3c:e1:01:b5:8e:3e:c1:
                    51:40:97:1a:d6:d2:5c:3a:64:d4:e2:e9:44:80:42:
                    78:b9:e4:f7:5f:f6:ae:79:db:3e:80:a0:af:a2:d2:
                    01:00:8a:e8:9b:59:95:44:a9:da:df:71:af:3c:be:
                    8b:2a:03:18:dd:1a:e3:a7:e3:f4:57:10:c4:d5:30:
                    f4:60:67:1e:4b:97:50:93:8e:3c:d0:c7:32:64:74:
                    c1:06:a9:4f:25:77:42:a3:42:c9:eb:9c:db:82:58:
                    b0:19:d0:a5:11:05:93:a8:1e:d9:dd:38:d3:d5:f2:
                    51:a6:e9:aa:c5:c1:65:ab:e0:1c:e4:ba:f9:6d:1a:
                    28:94:2a:11:5f:4f:bf:ee:db:a7:67:be:32:17:d3:
                    9a:bb:8a:72:6d:d9:ab:bb:41:1c:74:85:a5:89:92:
                    84:73:53:ce:1c:29:d3:3b:37:0c:e2:19:f8:f4:72:
                    d2:ac:eb
                Exponent: 65537 (0x10001)
        X509v3 extensions:
            X509v3 Basic Constraints: 
                CA:FALSE
            Netscape Comment: 
                Easy-RSA Generated Certificate
            X509v3 Subject Key Identifier: 
                D8:08:A3:F4:8E:FB:4A:C8:C0:99:D3:EC:A9:50:53:08:6A:56:D6:D8
            X509v3 Authority Key Identifier: 
                keyid:EF:38:8D:14:50:58:A7:5B:4D:9C:17:72:FC:DF:B9:AC:A7:51:B0:10
                DirName:/C=US/ST=CA/L=SanFrancisco/O=Pixglo, Inc./OU=VPN-CIE/CN=tunnel.pixglo.com/name=Bala Chandrasekaran/emailAddress=bala@pixglo.com
                serial:A6:DB:C6:83:80:E6:A0:79

            X509v3 Extended Key Usage: 
                TLS Web Client Authentication
            X509v3 Key Usage: 
                Digital Signature
    Signature Algorithm: sha1WithRSAEncryption
         2a:6a:9a:03:67:b9:82:50:cd:de:a7:d9:1a:d2:05:ff:ce:b5:
         58:75:99:e6:a4:5f:81:24:8c:bb:9e:c3:ec:81:4f:4a:05:b2:
         87:10:64:e5:6f:13:de:29:a4:a5:db:75:0b:a4:28:7d:18:a0:
         38:37:b7:b2:3b:04:ed:ad:cf:56:39:6b:db:8c:99:a1:09:48:
         0a:14:f1:42:2c:6b:1b:06:ae:ca:90:fe:5c:b0:b8:5d:64:c1:
         29:b5:a7:58:02:fd:68:f4:a2:9e:f0:90:99:ee:3b:91:96:c8:
         f3:21:c1:ff:2d:35:ef:5d:2b:94:0a:54:c2:4a:0c:24:50:ee:
         12:96:bc:46:a5:ba:ce:34:35:13:bf:71:e2:de:dd:e0:bb:c5:
         d0:02:7d:40:62:9a:c0:f4:f0:29:54:f9:b8:3b:8d:88:0a:c2:
         34:77:6a:77:6f:d5:5f:8c:96:d9:81:bc:04:05:f6:94:6d:ea:
         c9:1e:55:fa:50:6b:25:20:28:96:60:e5:3c:6f:64:16:ae:70:
         60:73:b6:fb:d2:36:13:19:1a:22:ef:58:bc:b4:33:4c:4b:31:
         9a:b0:75:b3:f9:c4:9e:b0:d9:5b:df:08:ea:fa:53:c1:28:7e:
         fb:73:46:10:99:ca:38:73:2b:0b:1e:36:7a:2b:98:c9:f2:ea:
         df:b5:1d:52:07:ef:cf:f6:9e:8a:41:c7:86:69:98:3d:51:a4:
         96:95:f4:90:4f:c6:77:b2:88:be:bc:24:47:bf:84:1a:3e:76:
         cd:47:bd:c1:5d:58:96:cf:de:66:2f:87:f3:6f:4f:73:b6:52:
         19:b0:55:a0:05:23:52:1a:5c:51:dd:0f:f8:0e:d2:1d:34:1d:
         ee:f5:15:82:bf:a4:78:34:1e:04:96:43:0c:fa:27:b4:7c:a3:
         ef:09:52:6a:bf:0c:b5:dd:c6:db:c1:4c:e9:8d:10:4c:76:d8:
         99:24:a4:e1:bd:53:b9:77:b9:d5:86:02:3d:89:fe:6d:60:91:
         05:95:59:8a:6a:4e:70:0d:a5:9d:ef:01:81:95:db:b1:f9:e7:
         65:c6:2c:70:44:fe:cd:1c:ea:3b:95:ad:20:74:8f:5a:49:f6:
         5f:b7:5c:1c:05:83:47:82:05:d2:f3:bc:ea:0e:a6:fb:b4:08:
         d8:4d:fc:ed:70:e4:29:e9:94:20:22:0a:76:30:75:a4:17:a5:
         5d:94:82:f9:72:ed:8c:d2:1f:89:9e:7e:69:bc:21:51:a4:fc:
         0e:31:e4:b6:84:d8:4f:d4:58:ad:92:83:71:6a:80:ee:cc:e1:
         23:71:bb:a3:1b:78:18:44:5e:9c:e4:a4:9d:6c:1d:5f:80:a2:
         a9:3f:62:b7:fb:b7:0e:b1
-----BEGIN CERTIFICATE-----
MIIHSDCCBTCgAwIBAgICAncwDQYJKoZIhvcNAQEFBQAwgbQxCzAJBgNVBAYTAlVT
MQswCQYDVQQIEwJDQTEVMBMGA1UEBxMMU2FuRnJhbmNpc2NvMRUwEwYDVQQKEwxQ
aXhnbG8sIEluYy4xEDAOBgNVBAsTB1ZQTi1DSUUxGjAYBgNVBAMTEXR1bm5lbC5w
aXhnbG8uY29tMRwwGgYDVQQpExNCYWxhIENoYW5kcmFzZWthcmFuMR4wHAYJKoZI
hvcNAQkBFg9iYWxhQHBpeGdsby5jb20wHhcNMTgwMjE0MDYzODUyWhcNMjgwMjEy
MDYzODUyWjCBqTELMAkGA1UEBhMCVVMxCzAJBgNVBAgTAkNBMRUwEwYDVQQHEwxT
YW5GcmFuY2lzY28xFTATBgNVBAoTDFBpeGdsbywgSW5jLjEQMA4GA1UECxMHVlBO
LUNJRTEPMA0GA1UEAxMGY2llNjMwMRwwGgYDVQQpExNCYWxhIENoYW5kcmFzZWth
cmFuMR4wHAYJKoZIhvcNAQkBFg9iYWxhQHBpeGdsby5jb20wggIiMA0GCSqGSIb3
DQEBAQUAA4ICDwAwggIKAoICAQDDWdlYmBNix+AU7FzDBRfHo50FwwsE+G+HaoUR
ZjDeOYdoDMjQmAqZ3fZTkCFkmksMStw1TxKSLQJ7HNikClSVQh/GKzlibFi+zx6V
tWGz2qBK5+VQjltADcT6HHWPPyc8MDEr/4+Iom8W2e87Lf/R0uH0K3XP2wUTUk7D
ryLnEF12tm47iP2PlBJSr3bL9LWKiaaVKcjTAJB2epWwHqmxzZ0XQXMoaW79o3mY
H9uRyFTFKpxLCzw+vSwl2wHDFiPEEzOnSXnttpjWo8+9veXDRF9EWtKmyIijDGnX
rbNkWiNEjfYw6d8ol8Hw88IaznlBFo2E0A6q1Cg/dliUypzOa/SZroE+FGj4eMlj
sv0ZttwHy7ozJW1xmYteY4urdCZIs/XEg6Wrz4gpYI2CFKJIL5G/L1LAoWctutwK
Q5Oawo4s5qMgiYilhzhw4XW+4jrzPOEBtY4+wVFAlxrW0lw6ZNTi6USAQni55Pdf
9q552z6AoK+i0gEAiuibWZVEqdrfca88vosqAxjdGuOn4/RXEMTVMPRgZx5Ll1CT
jjzQxzJkdMEGqU8ld0KjQsnrnNuCWLAZ0KURBZOoHtndONPV8lGm6arFwWWr4Bzk
uvltGiiUKhFfT7/u26dnvjIX05q7inJt2au7QRx0haWJkoRzU84cKdM7NwziGfj0
ctKs6wIDAQABo4IBazCCAWcwCQYDVR0TBAIwADAtBglghkgBhvhCAQ0EIBYeRWFz
eS1SU0EgR2VuZXJhdGVkIENlcnRpZmljYXRlMB0GA1UdDgQWBBTYCKP0jvtKyMCZ
0+ypUFMIalbW2DCB6QYDVR0jBIHhMIHegBTvOI0UUFinW02cF3L837msp1GwEKGB
uqSBtzCBtDELMAkGA1UEBhMCVVMxCzAJBgNVBAgTAkNBMRUwEwYDVQQHEwxTYW5G
cmFuY2lzY28xFTATBgNVBAoTDFBpeGdsbywgSW5jLjEQMA4GA1UECxMHVlBOLUNJ
RTEaMBgGA1UEAxMRdHVubmVsLnBpeGdsby5jb20xHDAaBgNVBCkTE0JhbGEgQ2hh
bmRyYXNla2FyYW4xHjAcBgkqhkiG9w0BCQEWD2JhbGFAcGl4Z2xvLmNvbYIJAKbb
xoOA5qB5MBMGA1UdJQQMMAoGCCsGAQUFBwMCMAsGA1UdDwQEAwIHgDANBgkqhkiG
9w0BAQUFAAOCAgEAKmqaA2e5glDN3qfZGtIF/861WHWZ5qRfgSSMu57D7IFPSgWy
hxBk5W8T3imkpdt1C6QofRigODe3sjsE7a3PVjlr24yZoQlIChTxQixrGwauypD+
XLC4XWTBKbWnWAL9aPSinvCQme47kZbI8yHB/y01710rlApUwkoMJFDuEpa8RqW6
zjQ1E79x4t7d4LvF0AJ9QGKawPTwKVT5uDuNiArCNHdqd2/VX4yW2YG8BAX2lG3q
yR5V+lBrJSAolmDlPG9kFq5wYHO2+9I2ExkaIu9YvLQzTEsxmrB1s/nEnrDZW98I
6vpTwSh++3NGEJnKOHMrCx42eiuYyfLq37UdUgfvz/aeikHHhmmYPVGklpX0kE/G
d7KIvrwkR7+EGj52zUe9wV1Yls/eZi+H829Pc7ZSGbBVoAUjUhpcUd0P+A7SHTQd
7vUVgr+keDQeBJZDDPontHyj7wlSar8Mtd3G28FM6Y0QTHbYmSSk4b1TuXe51YYC
PYn+bWCRBZVZimpOcA2lne8BgZXbsfnnZcYscET+zRzqO5WtIHSPWkn2X7dcHAWD
R4IF0vO86g6m+7QI2E387XDkKemUICIKdjB1pBelXZSC+XLtjNIfiZ5+abwhUaT8
DjHktoTYT9RYrZKDcWqA7szhI3G7oxt4GERenOSknWwdX4CiqT9it/u3DrE=
-----END CERTIFICATE-----
