Certificate:
    Data:
        Version: 3 (0x2)
        Serial Number: 632 (0x278)
    Signature Algorithm: sha1WithRSAEncryption
        Issuer: C=US, ST=CA, L=SanFrancisco, O=Pixglo, Inc., OU=VPN-CIE, CN=tunnel.pixglo.com/name=Bala Chandrasekaran/emailAddress=bala@pixglo.com
        Validity
            Not Before: Feb 14 06:38:53 2018 GMT
            Not After : Feb 12 06:38:53 2028 GMT
        Subject: C=US, ST=CA, L=SanFrancisco, O=Pixglo, Inc., OU=VPN-CIE, CN=cie631/name=Bala Chandrasekaran/emailAddress=bala@pixglo.com
        Subject Public Key Info:
            Public Key Algorithm: rsaEncryption
                Public-Key: (4096 bit)
                Modulus:
                    00:ce:ca:c9:88:84:84:99:83:f3:0f:fb:16:2b:5d:
                    04:70:4a:b2:32:ac:34:87:c7:28:97:7e:92:b3:10:
                    91:bc:71:15:11:d5:25:fc:cb:10:68:bd:08:74:71:
                    8b:4d:8f:48:b5:1f:f5:1e:65:1b:6c:c8:cc:4b:59:
                    45:fb:d4:a1:bb:f2:c7:bf:6f:c1:48:d7:f9:07:87:
                    22:f9:43:36:9e:aa:48:a8:ba:ab:9b:7a:fd:65:73:
                    16:a9:d3:31:43:94:46:bb:74:3b:df:ea:1b:9a:a2:
                    66:47:42:cc:22:33:39:09:83:dc:ff:b8:e0:9e:e6:
                    65:e3:fc:79:11:94:58:ce:35:ca:a9:3f:98:b8:69:
                    57:97:b0:61:bd:7b:34:f9:a4:61:16:8e:47:93:cc:
                    02:17:7e:62:0a:4f:84:6f:5c:33:ca:b0:b4:68:55:
                    96:8d:22:52:51:59:ea:98:8a:66:b7:03:51:49:23:
                    1f:da:2b:b6:01:37:eb:9c:00:aa:53:4b:2f:35:ca:
                    7d:9b:29:0d:4a:7d:c3:3e:29:03:7b:80:00:60:f1:
                    a8:07:92:92:84:02:2b:39:de:07:6b:0c:fe:45:ec:
                    28:d6:a5:1b:ed:38:6c:2b:ec:13:d7:79:eb:28:01:
                    25:e1:f8:2c:e0:ac:b7:d5:cf:eb:17:24:45:9a:f3:
                    79:e5:41:d5:f8:3d:2d:78:6b:21:ea:8d:5f:3d:35:
                    c1:c7:53:fe:10:f6:dc:8c:a9:01:ed:b2:e0:39:90:
                    a0:16:86:c5:a6:1b:c5:6b:f3:fc:21:ed:b1:59:ea:
                    cb:30:9b:26:34:5c:af:c3:e3:e4:bf:e1:ad:99:80:
                    88:95:d1:3f:d2:52:5f:30:5f:da:15:9a:b3:51:ae:
                    1a:34:3b:b9:ce:18:2d:ad:33:ee:67:31:16:f9:79:
                    c6:f4:a8:13:fa:f4:75:4d:4c:56:fa:28:15:31:0d:
                    fe:ca:7f:91:6a:35:fd:79:10:a0:a0:22:46:20:90:
                    2f:05:3c:dd:fd:18:69:30:64:9e:d9:96:8e:0b:68:
                    fb:2c:25:73:0b:39:0e:4b:2e:ee:2e:46:f8:a9:ac:
                    cc:d8:1b:4e:cd:e6:1a:2a:6b:b9:34:d5:22:fa:7a:
                    0f:84:ea:34:0d:29:48:00:64:9e:df:70:8b:db:0a:
                    75:49:02:6d:43:01:3c:a6:de:29:3a:e6:41:0d:ed:
                    3c:04:94:ad:44:a8:11:ff:03:20:3e:46:e0:d2:15:
                    b1:e8:dd:8a:f1:9d:cf:7f:f8:b1:34:39:7a:7f:32:
                    96:33:c8:ef:28:ca:c4:9c:a5:ec:28:c4:55:20:eb:
                    28:fd:e2:98:51:f1:40:58:91:df:d5:9e:e8:dd:cf:
                    69:d0:69
                Exponent: 65537 (0x10001)
        X509v3 extensions:
            X509v3 Basic Constraints: 
                CA:FALSE
            Netscape Comment: 
                Easy-RSA Generated Certificate
            X509v3 Subject Key Identifier: 
                98:B7:8E:EC:31:AA:39:72:D5:A8:28:41:45:9E:53:02:61:AB:5E:62
            X509v3 Authority Key Identifier: 
                keyid:EF:38:8D:14:50:58:A7:5B:4D:9C:17:72:FC:DF:B9:AC:A7:51:B0:10
                DirName:/C=US/ST=CA/L=SanFrancisco/O=Pixglo, Inc./OU=VPN-CIE/CN=tunnel.pixglo.com/name=Bala Chandrasekaran/emailAddress=bala@pixglo.com
                serial:A6:DB:C6:83:80:E6:A0:79

            X509v3 Extended Key Usage: 
                TLS Web Client Authentication
            X509v3 Key Usage: 
                Digital Signature
    Signature Algorithm: sha1WithRSAEncryption
         c7:73:cc:04:3b:87:9d:c9:41:4d:cb:8a:04:10:50:66:65:47:
         a2:81:cf:bf:dd:05:42:4e:52:62:38:bc:cb:53:a5:80:bc:db:
         3a:e9:c4:ca:6a:e1:43:11:85:51:29:8e:41:dd:e5:48:8d:f3:
         f4:89:68:4a:bc:e8:24:6e:f9:03:c5:13:e6:86:ef:43:ff:a6:
         85:78:38:f9:c7:51:24:0a:c8:55:6c:d1:ba:b7:cc:98:93:23:
         af:79:25:3f:b8:1d:a9:73:ce:26:78:55:e8:01:f1:1b:5f:2b:
         95:57:03:f9:a8:99:b2:7f:9c:a1:d1:18:aa:da:cd:2a:01:f3:
         6a:4a:f8:19:28:6f:d5:c7:b6:b6:d8:3a:de:7e:1e:0f:1c:8a:
         c8:06:fb:01:b0:eb:d6:31:9a:a4:41:ca:23:d1:11:a6:83:bf:
         89:3b:a9:0b:80:b9:e2:4d:6c:d7:74:5d:02:18:a1:d3:b2:d0:
         57:c3:c9:62:bc:0d:4a:52:78:d7:66:c8:b1:9a:24:c0:9d:8f:
         25:d0:6c:25:bd:58:63:f1:29:5c:2b:74:0e:d2:33:b7:b1:a4:
         44:eb:15:2b:43:db:d2:9a:26:f0:59:1b:66:15:f1:16:09:ee:
         df:52:68:3c:55:e5:89:06:cd:6e:a1:fb:c5:c5:82:37:da:10:
         0c:04:bb:a1:40:65:ca:57:bf:53:8f:37:b5:d2:09:fd:fd:8c:
         d9:3a:91:15:79:70:50:fd:ab:cd:a1:43:3b:15:5f:25:eb:59:
         f0:2f:d1:9a:a8:62:f2:27:ae:ad:46:cc:94:2b:b1:17:02:f1:
         4c:73:5d:41:f3:86:89:66:b0:14:4c:99:74:93:71:8b:41:88:
         91:9f:78:fd:7b:01:fa:19:09:04:19:fe:16:84:c7:da:0b:98:
         7e:1e:b1:bb:03:2f:5e:36:36:21:1a:6c:71:25:42:e2:4c:76:
         8b:ef:d7:e6:72:a3:aa:53:78:de:ac:ab:69:e4:b2:71:14:72:
         e8:b1:52:ea:65:1a:bb:b9:68:74:66:3c:d2:46:05:8b:70:d8:
         44:84:2c:b5:d6:f6:9e:d6:9d:9e:da:03:69:68:22:e6:80:3f:
         1f:75:29:07:07:9d:08:60:24:df:54:f6:fc:21:47:54:f6:85:
         c4:d6:cf:13:08:8b:85:68:a9:7a:74:33:e5:19:ae:41:42:c5:
         32:65:80:30:f8:39:6a:18:b6:d9:6e:cc:23:00:fd:3c:4c:1c:
         42:10:76:d8:00:f8:a4:bd:2d:c7:e1:d9:84:db:8e:50:3f:a8:
         a2:45:66:a1:25:85:a2:bf:b0:9c:96:91:36:17:29:45:99:6f:
         66:26:c4:63:06:e2:e8:0b
-----BEGIN CERTIFICATE-----
MIIHSDCCBTCgAwIBAgICAngwDQYJKoZIhvcNAQEFBQAwgbQxCzAJBgNVBAYTAlVT
MQswCQYDVQQIEwJDQTEVMBMGA1UEBxMMU2FuRnJhbmNpc2NvMRUwEwYDVQQKEwxQ
aXhnbG8sIEluYy4xEDAOBgNVBAsTB1ZQTi1DSUUxGjAYBgNVBAMTEXR1bm5lbC5w
aXhnbG8uY29tMRwwGgYDVQQpExNCYWxhIENoYW5kcmFzZWthcmFuMR4wHAYJKoZI
hvcNAQkBFg9iYWxhQHBpeGdsby5jb20wHhcNMTgwMjE0MDYzODUzWhcNMjgwMjEy
MDYzODUzWjCBqTELMAkGA1UEBhMCVVMxCzAJBgNVBAgTAkNBMRUwEwYDVQQHEwxT
YW5GcmFuY2lzY28xFTATBgNVBAoTDFBpeGdsbywgSW5jLjEQMA4GA1UECxMHVlBO
LUNJRTEPMA0GA1UEAxMGY2llNjMxMRwwGgYDVQQpExNCYWxhIENoYW5kcmFzZWth
cmFuMR4wHAYJKoZIhvcNAQkBFg9iYWxhQHBpeGdsby5jb20wggIiMA0GCSqGSIb3
DQEBAQUAA4ICDwAwggIKAoICAQDOysmIhISZg/MP+xYrXQRwSrIyrDSHxyiXfpKz
EJG8cRUR1SX8yxBovQh0cYtNj0i1H/UeZRtsyMxLWUX71KG78se/b8FI1/kHhyL5
Qzaeqkiouqubev1lcxap0zFDlEa7dDvf6huaomZHQswiMzkJg9z/uOCe5mXj/HkR
lFjONcqpP5i4aVeXsGG9ezT5pGEWjkeTzAIXfmIKT4RvXDPKsLRoVZaNIlJRWeqY
ima3A1FJIx/aK7YBN+ucAKpTSy81yn2bKQ1KfcM+KQN7gABg8agHkpKEAis53gdr
DP5F7CjWpRvtOGwr7BPXeesoASXh+CzgrLfVz+sXJEWa83nlQdX4PS14ayHqjV89
NcHHU/4Q9tyMqQHtsuA5kKAWhsWmG8Vr8/wh7bFZ6sswmyY0XK/D4+S/4a2ZgIiV
0T/SUl8wX9oVmrNRrho0O7nOGC2tM+5nMRb5ecb0qBP69HVNTFb6KBUxDf7Kf5Fq
Nf15EKCgIkYgkC8FPN39GGkwZJ7Zlo4LaPssJXMLOQ5LLu4uRviprMzYG07N5hoq
a7k01SL6eg+E6jQNKUgAZJ7fcIvbCnVJAm1DATym3ik65kEN7TwElK1EqBH/AyA+
RuDSFbHo3Yrxnc9/+LE0OXp/MpYzyO8oysScpewoxFUg6yj94phR8UBYkd/Vnujd
z2nQaQIDAQABo4IBazCCAWcwCQYDVR0TBAIwADAtBglghkgBhvhCAQ0EIBYeRWFz
eS1SU0EgR2VuZXJhdGVkIENlcnRpZmljYXRlMB0GA1UdDgQWBBSYt47sMao5ctWo
KEFFnlMCYateYjCB6QYDVR0jBIHhMIHegBTvOI0UUFinW02cF3L837msp1GwEKGB
uqSBtzCBtDELMAkGA1UEBhMCVVMxCzAJBgNVBAgTAkNBMRUwEwYDVQQHEwxTYW5G
cmFuY2lzY28xFTATBgNVBAoTDFBpeGdsbywgSW5jLjEQMA4GA1UECxMHVlBOLUNJ
RTEaMBgGA1UEAxMRdHVubmVsLnBpeGdsby5jb20xHDAaBgNVBCkTE0JhbGEgQ2hh
bmRyYXNla2FyYW4xHjAcBgkqhkiG9w0BCQEWD2JhbGFAcGl4Z2xvLmNvbYIJAKbb
xoOA5qB5MBMGA1UdJQQMMAoGCCsGAQUFBwMCMAsGA1UdDwQEAwIHgDANBgkqhkiG
9w0BAQUFAAOCAgEAx3PMBDuHnclBTcuKBBBQZmVHooHPv90FQk5SYji8y1OlgLzb
OunEymrhQxGFUSmOQd3lSI3z9IloSrzoJG75A8UT5obvQ/+mhXg4+cdRJArIVWzR
urfMmJMjr3klP7gdqXPOJnhV6AHxG18rlVcD+aiZsn+codEYqtrNKgHzakr4GShv
1ce2ttg63n4eDxyKyAb7AbDr1jGapEHKI9ERpoO/iTupC4C54k1s13RdAhih07LQ
V8PJYrwNSlJ412bIsZokwJ2PJdBsJb1YY/EpXCt0DtIzt7GkROsVK0Pb0pom8Fkb
ZhXxFgnu31JoPFXliQbNbqH7xcWCN9oQDAS7oUBlyle/U483tdIJ/f2M2TqRFXlw
UP2rzaFDOxVfJetZ8C/Rmqhi8ieurUbMlCuxFwLxTHNdQfOGiWawFEyZdJNxi0GI
kZ94/XsB+hkJBBn+FoTH2guYfh6xuwMvXjY2IRpscSVC4kx2i+/X5nKjqlN43qyr
aeSycRRy6LFS6mUau7lodGY80kYFi3DYRIQstdb2ntadntoDaWgi5oA/H3UpBwed
CGAk31T2/CFHVPaFxNbPEwiLhWipenQz5RmuQULFMmWAMPg5ahi22W7MIwD9PEwc
QhB22AD4pL0tx+HZhNuOUD+ookVmoSWFor+wnJaRNhcpRZlvZibEYwbi6As=
-----END CERTIFICATE-----
