Certificate:
    Data:
        Version: 3 (0x2)
        Serial Number: 633 (0x279)
    Signature Algorithm: sha1WithRSAEncryption
        Issuer: C=US, ST=CA, L=SanFrancisco, O=Pixglo, Inc., OU=VPN-CIE, CN=tunnel.pixglo.com/name=Bala Chandrasekaran/emailAddress=bala@pixglo.com
        Validity
            Not Before: Feb 14 06:38:53 2018 GMT
            Not After : Feb 12 06:38:53 2028 GMT
        Subject: C=US, ST=CA, L=SanFrancisco, O=Pixglo, Inc., OU=VPN-CIE, CN=cie632/name=Bala Chandrasekaran/emailAddress=bala@pixglo.com
        Subject Public Key Info:
            Public Key Algorithm: rsaEncryption
                Public-Key: (4096 bit)
                Modulus:
                    00:ec:50:09:d8:a0:31:08:92:d2:a1:a7:d0:f3:f0:
                    78:e5:3d:84:16:51:03:f5:a7:ec:a2:7a:ca:9c:62:
                    e7:31:e7:ef:47:cf:8b:1a:a7:65:b7:3f:c4:05:48:
                    1b:3f:94:20:1a:1c:54:8f:03:2d:85:d8:bb:22:6d:
                    81:7c:01:b2:c9:54:93:5e:b8:15:5b:e1:be:e0:a9:
                    47:8f:d5:20:08:0d:7c:57:c2:8d:66:01:34:ad:a2:
                    97:c8:be:5a:a5:51:76:e9:46:44:08:70:66:68:e2:
                    a7:6e:48:d0:c4:e3:06:43:28:06:94:67:f4:b8:f8:
                    2b:64:33:47:3d:8e:5d:4d:40:62:d1:30:29:fe:1a:
                    70:bd:25:be:cd:49:27:1f:2e:b3:0a:e5:87:d0:01:
                    9a:1a:ff:dc:0a:27:fa:f7:38:eb:d4:08:f8:0c:bd:
                    24:24:e5:ae:91:f8:f0:e7:25:c6:4d:b1:02:e2:18:
                    28:74:64:74:1f:e7:67:ca:e2:d8:90:bf:b2:0b:fd:
                    59:91:f2:b2:38:e8:48:b9:a2:9c:09:3b:4c:f9:ff:
                    7a:37:85:29:2b:32:94:5f:a3:95:e2:37:61:b5:ce:
                    ac:a8:93:65:48:71:06:95:97:e0:5c:89:14:e2:51:
                    11:65:f9:87:80:7e:df:1a:6a:de:70:ec:a4:f4:cf:
                    41:73:80:77:dd:04:42:5e:d0:30:b4:66:10:ae:2f:
                    25:ae:f0:d0:70:1f:34:10:ff:42:44:81:e8:29:67:
                    ed:a8:bc:4f:9e:b8:2d:29:a0:73:07:5f:44:b4:ba:
                    ef:e0:55:22:79:96:79:9c:c8:d3:b6:5b:98:86:54:
                    5e:c3:47:08:eb:56:26:84:fb:3b:92:a1:c7:bb:38:
                    84:10:ea:2b:fe:1c:77:34:73:65:2b:c7:5a:85:20:
                    9d:c5:fe:e8:38:ab:67:f1:01:3f:09:49:0d:59:ee:
                    6d:d1:0b:a4:b8:d1:0d:29:29:ff:ab:3f:3b:da:18:
                    58:62:1a:81:3d:8d:c1:c7:21:e8:03:df:c5:5f:a7:
                    e1:d5:d4:f4:04:e7:99:bd:7d:5f:4e:81:d5:77:b7:
                    74:58:12:5a:c7:56:d3:97:12:42:33:af:e3:ac:a7:
                    9e:4e:28:9f:00:bd:98:be:2c:b3:57:09:7b:7e:77:
                    e3:1c:4e:47:61:0c:b8:49:bf:4e:03:7e:7a:9b:11:
                    d6:97:78:85:44:a4:13:ce:05:97:3a:29:ff:57:bb:
                    69:ae:eb:70:db:57:83:0a:08:e5:d4:79:52:27:58:
                    f0:3d:c6:09:ed:98:55:30:37:1e:64:cb:1c:22:94:
                    68:19:e9:24:2f:4c:0b:f9:67:94:2e:50:84:5f:22:
                    76:84:09
                Exponent: 65537 (0x10001)
        X509v3 extensions:
            X509v3 Basic Constraints: 
                CA:FALSE
            Netscape Comment: 
                Easy-RSA Generated Certificate
            X509v3 Subject Key Identifier: 
                FD:D0:A4:96:BA:AB:DF:B5:9E:86:30:73:2D:FE:72:4D:41:5F:40:86
            X509v3 Authority Key Identifier: 
                keyid:EF:38:8D:14:50:58:A7:5B:4D:9C:17:72:FC:DF:B9:AC:A7:51:B0:10
                DirName:/C=US/ST=CA/L=SanFrancisco/O=Pixglo, Inc./OU=VPN-CIE/CN=tunnel.pixglo.com/name=Bala Chandrasekaran/emailAddress=bala@pixglo.com
                serial:A6:DB:C6:83:80:E6:A0:79

            X509v3 Extended Key Usage: 
                TLS Web Client Authentication
            X509v3 Key Usage: 
                Digital Signature
    Signature Algorithm: sha1WithRSAEncryption
         e1:00:1b:c3:88:cd:48:24:51:5e:13:d6:79:19:b6:b8:2b:2a:
         f8:6c:27:29:4c:de:34:dd:ae:d5:6c:eb:6e:80:7b:2a:88:e9:
         6f:43:47:1a:71:c4:df:60:ee:8f:f8:47:53:f5:26:d4:41:78:
         20:aa:f1:34:d1:30:d6:a6:09:f0:f8:36:47:20:a2:26:af:6e:
         e5:4e:e9:d2:58:00:68:e6:5c:c1:59:00:5a:53:2d:5a:72:74:
         61:ad:fc:3e:7f:6f:7d:7b:78:5f:a3:46:ca:04:14:a3:1e:3b:
         d4:af:b8:5d:f9:c9:5f:d3:ca:be:08:d4:b4:39:65:4b:e1:43:
         67:81:62:d6:4a:5d:91:5d:42:68:00:e1:5e:c5:78:c1:c7:96:
         1f:d4:94:5d:d2:16:11:a7:ec:20:46:2c:8c:82:41:16:77:83:
         1e:df:88:e9:41:99:30:d8:59:1a:e6:d8:c2:a9:d0:d5:2b:6c:
         ad:f0:fc:52:ca:e7:94:54:51:e8:97:95:11:bd:5f:da:85:5a:
         82:f7:92:d3:7a:e7:e8:a6:86:44:d8:d2:29:c7:c9:dd:dd:cf:
         40:fb:1c:a0:2e:2e:89:4f:c2:b0:71:b4:bb:b1:3f:fe:b2:44:
         21:f4:9b:b1:2e:a0:26:c3:b2:c5:d1:d4:99:d7:4b:33:f6:37:
         dc:4a:9c:cd:49:6f:c1:ff:7b:18:55:c2:f1:9d:2e:aa:21:95:
         4a:92:41:96:d4:6d:80:87:8f:b2:a9:70:3d:1f:f9:1f:3d:9e:
         34:38:5f:6c:5b:c5:02:7d:c6:76:60:c0:5e:ce:05:82:5f:75:
         44:2f:e1:f6:c6:45:96:1a:4b:5b:82:20:0d:2d:40:ad:3c:7c:
         91:65:07:67:9b:4d:58:34:07:7a:e4:9b:a3:31:0d:de:14:8f:
         ae:ee:18:e9:a8:d5:be:15:5a:60:7c:de:b8:b1:13:a8:82:f9:
         a1:d1:62:04:24:44:bd:05:06:55:8e:1d:01:63:e7:4b:4a:b7:
         f9:30:3e:97:b3:50:b0:66:2f:aa:88:32:49:34:45:84:18:b9:
         1e:f5:a2:8a:d0:98:d9:49:6f:dd:d7:bc:4a:d4:90:6a:63:f7:
         cf:c3:fd:0b:f3:a7:0c:e1:13:01:38:59:66:89:45:55:3b:b2:
         7a:59:75:ef:d8:15:40:1c:8f:d7:63:43:e6:a5:f8:b8:2c:1c:
         bb:92:27:c0:b9:fa:d7:1a:f0:66:92:3e:8e:f9:34:f8:54:56:
         71:06:c0:6f:ee:32:bf:4f:4e:34:9d:e4:fc:52:fb:95:11:ef:
         4f:e7:a6:d0:24:80:42:27:78:c9:35:8b:d0:40:81:76:53:c6:
         8d:02:ef:01:25:f3:fc:64
-----BEGIN CERTIFICATE-----
MIIHSDCCBTCgAwIBAgICAnkwDQYJKoZIhvcNAQEFBQAwgbQxCzAJBgNVBAYTAlVT
MQswCQYDVQQIEwJDQTEVMBMGA1UEBxMMU2FuRnJhbmNpc2NvMRUwEwYDVQQKEwxQ
aXhnbG8sIEluYy4xEDAOBgNVBAsTB1ZQTi1DSUUxGjAYBgNVBAMTEXR1bm5lbC5w
aXhnbG8uY29tMRwwGgYDVQQpExNCYWxhIENoYW5kcmFzZWthcmFuMR4wHAYJKoZI
hvcNAQkBFg9iYWxhQHBpeGdsby5jb20wHhcNMTgwMjE0MDYzODUzWhcNMjgwMjEy
MDYzODUzWjCBqTELMAkGA1UEBhMCVVMxCzAJBgNVBAgTAkNBMRUwEwYDVQQHEwxT
YW5GcmFuY2lzY28xFTATBgNVBAoTDFBpeGdsbywgSW5jLjEQMA4GA1UECxMHVlBO
LUNJRTEPMA0GA1UEAxMGY2llNjMyMRwwGgYDVQQpExNCYWxhIENoYW5kcmFzZWth
cmFuMR4wHAYJKoZIhvcNAQkBFg9iYWxhQHBpeGdsby5jb20wggIiMA0GCSqGSIb3
DQEBAQUAA4ICDwAwggIKAoICAQDsUAnYoDEIktKhp9Dz8HjlPYQWUQP1p+yiesqc
Yucx5+9Hz4sap2W3P8QFSBs/lCAaHFSPAy2F2LsibYF8AbLJVJNeuBVb4b7gqUeP
1SAIDXxXwo1mATStopfIvlqlUXbpRkQIcGZo4qduSNDE4wZDKAaUZ/S4+CtkM0c9
jl1NQGLRMCn+GnC9Jb7NSScfLrMK5YfQAZoa/9wKJ/r3OOvUCPgMvSQk5a6R+PDn
JcZNsQLiGCh0ZHQf52fK4tiQv7IL/VmR8rI46Ei5opwJO0z5/3o3hSkrMpRfo5Xi
N2G1zqyok2VIcQaVl+BciRTiURFl+YeAft8aat5w7KT0z0FzgHfdBEJe0DC0ZhCu
LyWu8NBwHzQQ/0JEgegpZ+2ovE+euC0poHMHX0S0uu/gVSJ5lnmcyNO2W5iGVF7D
RwjrViaE+zuSoce7OIQQ6iv+HHc0c2Urx1qFIJ3F/ug4q2fxAT8JSQ1Z7m3RC6S4
0Q0pKf+rPzvaGFhiGoE9jcHHIegD38Vfp+HV1PQE55m9fV9OgdV3t3RYElrHVtOX
EkIzr+Osp55OKJ8AvZi+LLNXCXt+d+McTkdhDLhJv04DfnqbEdaXeIVEpBPOBZc6
Kf9Xu2mu63DbV4MKCOXUeVInWPA9xgntmFUwNx5kyxwilGgZ6SQvTAv5Z5QuUIRf
InaECQIDAQABo4IBazCCAWcwCQYDVR0TBAIwADAtBglghkgBhvhCAQ0EIBYeRWFz
eS1SU0EgR2VuZXJhdGVkIENlcnRpZmljYXRlMB0GA1UdDgQWBBT90KSWuqvftZ6G
MHMt/nJNQV9AhjCB6QYDVR0jBIHhMIHegBTvOI0UUFinW02cF3L837msp1GwEKGB
uqSBtzCBtDELMAkGA1UEBhMCVVMxCzAJBgNVBAgTAkNBMRUwEwYDVQQHEwxTYW5G
cmFuY2lzY28xFTATBgNVBAoTDFBpeGdsbywgSW5jLjEQMA4GA1UECxMHVlBOLUNJ
RTEaMBgGA1UEAxMRdHVubmVsLnBpeGdsby5jb20xHDAaBgNVBCkTE0JhbGEgQ2hh
bmRyYXNla2FyYW4xHjAcBgkqhkiG9w0BCQEWD2JhbGFAcGl4Z2xvLmNvbYIJAKbb
xoOA5qB5MBMGA1UdJQQMMAoGCCsGAQUFBwMCMAsGA1UdDwQEAwIHgDANBgkqhkiG
9w0BAQUFAAOCAgEA4QAbw4jNSCRRXhPWeRm2uCsq+GwnKUzeNN2u1WzrboB7Kojp
b0NHGnHE32Duj/hHU/Um1EF4IKrxNNEw1qYJ8Pg2RyCiJq9u5U7p0lgAaOZcwVkA
WlMtWnJ0Ya38Pn9vfXt4X6NGygQUox471K+4XfnJX9PKvgjUtDllS+FDZ4Fi1kpd
kV1CaADhXsV4wceWH9SUXdIWEafsIEYsjIJBFneDHt+I6UGZMNhZGubYwqnQ1Sts
rfD8UsrnlFRR6JeVEb1f2oVagveS03rn6KaGRNjSKcfJ3d3PQPscoC4uiU/CsHG0
u7E//rJEIfSbsS6gJsOyxdHUmddLM/Y33EqczUlvwf97GFXC8Z0uqiGVSpJBltRt
gIePsqlwPR/5Hz2eNDhfbFvFAn3GdmDAXs4Fgl91RC/h9sZFlhpLW4IgDS1ArTx8
kWUHZ5tNWDQHeuSbozEN3hSPru4Y6ajVvhVaYHzeuLETqIL5odFiBCREvQUGVY4d
AWPnS0q3+TA+l7NQsGYvqogySTRFhBi5HvWiitCY2Ulv3de8StSQamP3z8P9C/On
DOETAThZZolFVTuyell179gVQByP12ND5qX4uCwcu5InwLn61xrwZpI+jvk0+FRW
cQbAb+4yv09ONJ3k/FL7lRHvT+em0CSAQid4yTWL0ECBdlPGjQLvASXz/GQ=
-----END CERTIFICATE-----
