Certificate:
    Data:
        Version: 3 (0x2)
        Serial Number: 636 (0x27c)
    Signature Algorithm: sha1WithRSAEncryption
        Issuer: C=US, ST=CA, L=SanFrancisco, O=Pixglo, Inc., OU=VPN-CIE, CN=tunnel.pixglo.com/name=Bala Chandrasekaran/emailAddress=bala@pixglo.com
        Validity
            Not Before: Feb 14 06:38:58 2018 GMT
            Not After : Feb 12 06:38:58 2028 GMT
        Subject: C=US, ST=CA, L=SanFrancisco, O=Pixglo, Inc., OU=VPN-CIE, CN=cie635/name=Bala Chandrasekaran/emailAddress=bala@pixglo.com
        Subject Public Key Info:
            Public Key Algorithm: rsaEncryption
                Public-Key: (4096 bit)
                Modulus:
                    00:ba:93:39:59:21:83:06:fa:16:8e:f1:62:53:e0:
                    37:05:67:9c:e6:83:1f:64:37:68:3d:bd:18:e1:21:
                    58:84:f4:43:14:f0:09:7a:92:b0:1c:01:2f:47:fa:
                    f4:56:78:6d:a9:a5:b0:aa:46:42:67:6f:ef:e0:8f:
                    56:7e:a8:62:59:8a:07:d3:24:d3:2c:1c:7c:37:28:
                    af:b0:b2:40:c4:2f:8d:4f:63:cf:d0:14:42:bf:44:
                    c1:04:97:74:ef:11:5d:dd:13:96:d5:4c:80:a6:b3:
                    bc:14:c2:18:d1:2e:0f:ec:9b:4e:5e:62:c2:f1:6a:
                    8e:27:ec:28:bc:1a:cf:27:86:83:bc:d5:a8:72:28:
                    6d:79:e7:c5:42:a5:bd:77:15:3c:f3:5d:0d:59:3d:
                    be:af:c9:f4:35:f0:2b:00:a8:1b:f3:cb:f1:b1:97:
                    da:3e:97:e2:ee:e6:35:07:c1:e8:6b:29:ee:9b:3d:
                    5c:d1:34:c3:5e:11:90:2c:b5:01:22:36:b6:5d:65:
                    8f:b9:3d:07:95:c2:34:71:7a:3d:42:a7:9d:73:d9:
                    cf:7f:0a:64:7b:63:72:14:da:aa:07:18:c4:d2:4c:
                    ea:c4:21:2a:95:2e:70:5d:81:43:8e:e6:fc:e2:69:
                    07:fe:ac:52:a6:64:ec:0d:12:15:1b:d1:0d:e3:3c:
                    39:20:55:a7:cb:55:82:f9:9e:50:e6:0e:d1:1a:c2:
                    b2:f3:33:fc:87:a6:3a:7b:49:e2:8d:54:8e:71:41:
                    35:6b:6a:93:bd:e9:e7:f5:03:d2:d5:60:ce:74:b9:
                    94:f4:02:58:4d:2b:39:fa:a7:19:41:73:70:ef:d5:
                    0a:ec:dd:00:df:03:a1:ea:cd:8d:a1:0b:0c:37:10:
                    56:56:5e:da:03:c4:d0:8c:0d:8d:b4:6c:b3:cf:15:
                    dc:0b:6e:5b:90:7c:b9:70:51:97:dd:41:07:97:3e:
                    4c:8b:71:a9:6d:c7:7a:db:e4:98:2f:39:ae:6d:6d:
                    81:17:89:87:a6:5c:76:e8:b4:35:e1:c8:c7:b6:99:
                    47:3e:88:9c:c2:e5:43:db:4f:70:12:8a:68:2a:81:
                    14:dc:09:32:a5:eb:11:32:aa:56:19:8f:77:8e:b7:
                    19:f7:28:66:6e:64:9a:a0:9f:97:2e:9e:72:50:5c:
                    2b:e7:f4:ab:68:8c:d1:a2:8e:aa:df:54:ad:37:16:
                    0f:2c:f0:34:6b:9a:e6:50:ad:5a:bc:ed:c3:b7:7d:
                    ec:d7:b5:71:ec:e0:db:20:b1:d5:1a:cb:38:c2:e0:
                    dd:c7:1a:05:93:1c:47:79:22:66:03:8c:b9:d8:8b:
                    93:ff:60:52:c9:9a:f0:eb:fd:8a:9a:1b:81:00:de:
                    75:6a:6b
                Exponent: 65537 (0x10001)
        X509v3 extensions:
            X509v3 Basic Constraints: 
                CA:FALSE
            Netscape Comment: 
                Easy-RSA Generated Certificate
            X509v3 Subject Key Identifier: 
                7D:F8:E4:1C:6B:6D:9B:6C:7C:B0:59:70:19:A9:98:0E:CD:82:DA:53
            X509v3 Authority Key Identifier: 
                keyid:EF:38:8D:14:50:58:A7:5B:4D:9C:17:72:FC:DF:B9:AC:A7:51:B0:10
                DirName:/C=US/ST=CA/L=SanFrancisco/O=Pixglo, Inc./OU=VPN-CIE/CN=tunnel.pixglo.com/name=Bala Chandrasekaran/emailAddress=bala@pixglo.com
                serial:A6:DB:C6:83:80:E6:A0:79

            X509v3 Extended Key Usage: 
                TLS Web Client Authentication
            X509v3 Key Usage: 
                Digital Signature
    Signature Algorithm: sha1WithRSAEncryption
         d2:ee:41:ef:50:f7:9f:86:13:fc:bb:9d:d5:7e:6d:be:14:db:
         56:36:1c:71:99:75:be:8f:eb:40:4e:ef:d3:7b:7a:97:b0:ed:
         1a:c5:fe:93:9d:2f:cf:a6:c3:18:8a:28:91:db:2e:78:0b:b9:
         33:22:6e:1a:e5:71:07:51:5a:19:8e:6d:29:26:a4:67:47:a7:
         2d:4e:e2:6d:66:3a:dd:ad:e9:34:0f:88:83:61:14:76:18:22:
         f9:47:0b:e5:c4:b4:53:d6:39:c6:ea:9b:fa:c4:b0:8e:72:36:
         09:de:93:7f:d2:0e:e8:ef:a0:98:53:20:49:bf:58:16:07:6e:
         c1:05:d6:71:ba:45:9d:e6:c1:6d:e6:df:2b:57:52:49:c5:48:
         63:21:0a:d2:2a:68:7b:60:c5:de:54:15:f0:d7:ae:d5:d3:7d:
         0b:6f:40:6a:a0:d4:26:1d:33:eb:a6:6e:9f:8f:24:01:0b:4b:
         a8:3b:a0:6f:ac:96:5b:4f:8c:bd:41:51:48:bf:91:c3:d2:61:
         7b:97:94:47:9c:0c:a2:fe:03:62:52:0c:08:f9:38:5b:62:a3:
         c3:ef:3a:3d:f8:f5:c5:52:ba:e7:13:dd:a7:b4:35:61:f0:1f:
         b0:ba:57:02:84:0b:46:15:fb:43:39:e5:d4:14:71:46:23:50:
         49:c3:65:2d:7d:10:95:55:4c:7c:3e:bf:9d:fe:de:67:79:b5:
         56:a7:cc:6d:48:6e:92:b1:c1:ae:76:07:61:2a:1e:c4:5a:fc:
         3d:24:0c:bb:b1:c2:95:92:1e:7f:83:dd:1d:21:02:42:64:cd:
         0d:47:a3:05:de:a5:f7:73:6d:ea:56:e3:c0:a0:b8:83:9a:7b:
         f1:bd:d6:27:58:e4:42:65:94:97:66:ee:26:13:fc:ae:45:de:
         3d:d7:7f:53:e5:f2:47:ba:f1:4d:99:04:5c:73:e1:8e:91:d3:
         65:81:e3:a9:51:24:df:21:96:00:52:9e:0e:5a:d2:8d:34:4a:
         e5:55:82:c8:6f:9b:17:5a:44:8c:80:45:c6:50:c2:74:18:4f:
         d1:33:0c:af:1b:49:fb:e9:9d:b7:7f:10:18:a9:ee:1f:c0:06:
         e2:93:cd:48:97:1f:9b:1f:7d:b2:6a:16:75:ef:e9:ed:28:ce:
         45:a5:5a:44:8b:58:5f:44:12:a3:80:85:d8:ad:b8:2a:ca:66:
         41:8e:4f:67:ae:a8:d6:6e:64:dc:b5:ed:28:2e:09:62:58:58:
         f6:8b:c2:ec:1b:e1:52:0a:07:02:8f:9b:e6:6b:56:8b:36:ac:
         cb:08:1a:95:e0:0c:e0:a7:80:90:61:81:06:ad:c7:09:31:d9:
         28:af:2f:73:16:f9:16:7f
-----BEGIN CERTIFICATE-----
MIIHSDCCBTCgAwIBAgICAnwwDQYJKoZIhvcNAQEFBQAwgbQxCzAJBgNVBAYTAlVT
MQswCQYDVQQIEwJDQTEVMBMGA1UEBxMMU2FuRnJhbmNpc2NvMRUwEwYDVQQKEwxQ
aXhnbG8sIEluYy4xEDAOBgNVBAsTB1ZQTi1DSUUxGjAYBgNVBAMTEXR1bm5lbC5w
aXhnbG8uY29tMRwwGgYDVQQpExNCYWxhIENoYW5kcmFzZWthcmFuMR4wHAYJKoZI
hvcNAQkBFg9iYWxhQHBpeGdsby5jb20wHhcNMTgwMjE0MDYzODU4WhcNMjgwMjEy
MDYzODU4WjCBqTELMAkGA1UEBhMCVVMxCzAJBgNVBAgTAkNBMRUwEwYDVQQHEwxT
YW5GcmFuY2lzY28xFTATBgNVBAoTDFBpeGdsbywgSW5jLjEQMA4GA1UECxMHVlBO
LUNJRTEPMA0GA1UEAxMGY2llNjM1MRwwGgYDVQQpExNCYWxhIENoYW5kcmFzZWth
cmFuMR4wHAYJKoZIhvcNAQkBFg9iYWxhQHBpeGdsby5jb20wggIiMA0GCSqGSIb3
DQEBAQUAA4ICDwAwggIKAoICAQC6kzlZIYMG+haO8WJT4DcFZ5zmgx9kN2g9vRjh
IViE9EMU8Al6krAcAS9H+vRWeG2ppbCqRkJnb+/gj1Z+qGJZigfTJNMsHHw3KK+w
skDEL41PY8/QFEK/RMEEl3TvEV3dE5bVTICms7wUwhjRLg/sm05eYsLxao4n7Ci8
Gs8nhoO81ahyKG1558VCpb13FTzzXQ1ZPb6vyfQ18CsAqBvzy/Gxl9o+l+Lu5jUH
wehrKe6bPVzRNMNeEZAstQEiNrZdZY+5PQeVwjRxej1Cp51z2c9/CmR7Y3IU2qoH
GMTSTOrEISqVLnBdgUOO5vziaQf+rFKmZOwNEhUb0Q3jPDkgVafLVYL5nlDmDtEa
wrLzM/yHpjp7SeKNVI5xQTVrapO96ef1A9LVYM50uZT0AlhNKzn6pxlBc3Dv1Qrs
3QDfA6HqzY2hCww3EFZWXtoDxNCMDY20bLPPFdwLbluQfLlwUZfdQQeXPkyLcalt
x3rb5JgvOa5tbYEXiYemXHbotDXhyMe2mUc+iJzC5UPbT3ASimgqgRTcCTKl6xEy
qlYZj3eOtxn3KGZuZJqgn5cunnJQXCvn9KtojNGijqrfVK03Fg8s8DRrmuZQrVq8
7cO3fezXtXHs4NsgsdUayzjC4N3HGgWTHEd5ImYDjLnYi5P/YFLJmvDr/YqaG4EA
3nVqawIDAQABo4IBazCCAWcwCQYDVR0TBAIwADAtBglghkgBhvhCAQ0EIBYeRWFz
eS1SU0EgR2VuZXJhdGVkIENlcnRpZmljYXRlMB0GA1UdDgQWBBR9+OQca22bbHyw
WXAZqZgOzYLaUzCB6QYDVR0jBIHhMIHegBTvOI0UUFinW02cF3L837msp1GwEKGB
uqSBtzCBtDELMAkGA1UEBhMCVVMxCzAJBgNVBAgTAkNBMRUwEwYDVQQHEwxTYW5G
cmFuY2lzY28xFTATBgNVBAoTDFBpeGdsbywgSW5jLjEQMA4GA1UECxMHVlBOLUNJ
RTEaMBgGA1UEAxMRdHVubmVsLnBpeGdsby5jb20xHDAaBgNVBCkTE0JhbGEgQ2hh
bmRyYXNla2FyYW4xHjAcBgkqhkiG9w0BCQEWD2JhbGFAcGl4Z2xvLmNvbYIJAKbb
xoOA5qB5MBMGA1UdJQQMMAoGCCsGAQUFBwMCMAsGA1UdDwQEAwIHgDANBgkqhkiG
9w0BAQUFAAOCAgEA0u5B71D3n4YT/Lud1X5tvhTbVjYccZl1vo/rQE7v03t6l7Dt
GsX+k50vz6bDGIookdsueAu5MyJuGuVxB1FaGY5tKSakZ0enLU7ibWY63a3pNA+I
g2EUdhgi+UcL5cS0U9Y5xuqb+sSwjnI2Cd6Tf9IO6O+gmFMgSb9YFgduwQXWcbpF
nebBbebfK1dSScVIYyEK0ipoe2DF3lQV8Neu1dN9C29AaqDUJh0z66Zun48kAQtL
qDugb6yWW0+MvUFRSL+Rw9Jhe5eUR5wMov4DYlIMCPk4W2Kjw+86Pfj1xVK65xPd
p7Q1YfAfsLpXAoQLRhX7Qznl1BRxRiNQScNlLX0QlVVMfD6/nf7eZ3m1VqfMbUhu
krHBrnYHYSoexFr8PSQMu7HClZIef4PdHSECQmTNDUejBd6l93Nt6lbjwKC4g5p7
8b3WJ1jkQmWUl2buJhP8rkXePdd/U+XyR7rxTZkEXHPhjpHTZYHjqVEk3yGWAFKe
DlrSjTRK5VWCyG+bF1pEjIBFxlDCdBhP0TMMrxtJ++mdt38QGKnuH8AG4pPNSJcf
mx99smoWde/p7SjORaVaRItYX0QSo4CF2K24KspmQY5PZ66o1m5k3LXtKC4JYlhY
9ovC7BvhUgoHAo+b5mtWizasywgaleAM4KeAkGGBBq3HCTHZKK8vcxb5Fn8=
-----END CERTIFICATE-----
