Certificate:
    Data:
        Version: 3 (0x2)
        Serial Number: 639 (0x27f)
    Signature Algorithm: sha1WithRSAEncryption
        Issuer: C=US, ST=CA, L=SanFrancisco, O=Pixglo, Inc., OU=VPN-CIE, CN=tunnel.pixglo.com/name=Bala Chandrasekaran/emailAddress=bala@pixglo.com
        Validity
            Not Before: Feb 14 06:39:06 2018 GMT
            Not After : Feb 12 06:39:06 2028 GMT
        Subject: C=US, ST=CA, L=SanFrancisco, O=Pixglo, Inc., OU=VPN-CIE, CN=cie638/name=Bala Chandrasekaran/emailAddress=bala@pixglo.com
        Subject Public Key Info:
            Public Key Algorithm: rsaEncryption
                Public-Key: (4096 bit)
                Modulus:
                    00:a8:10:9b:f7:47:38:f2:f4:60:ae:c2:9d:0c:2c:
                    1e:0a:2e:77:f5:c5:99:32:d2:cf:0e:55:a0:24:4a:
                    d1:1e:a1:5c:eb:5f:6e:e7:4d:e2:af:7d:41:37:4c:
                    e7:4e:7d:26:d5:ed:00:45:49:36:53:de:0c:d2:f0:
                    f7:1c:a9:48:83:b9:29:71:24:09:27:40:88:81:25:
                    bf:33:24:f3:db:dd:91:f9:b7:4f:b2:0b:6c:28:e6:
                    3b:2a:04:a4:ab:a8:32:c1:77:de:07:38:06:35:95:
                    fb:69:fb:4c:2e:5f:fb:21:51:37:e6:23:1e:5b:f4:
                    61:9c:6a:09:42:c8:72:83:e1:d4:38:41:a3:da:4b:
                    9d:96:53:d6:61:53:e5:72:d9:65:b1:7a:ff:a4:0b:
                    82:f2:92:fe:c0:1c:08:35:e1:61:a0:29:14:0a:21:
                    dc:0c:49:63:26:77:59:ce:df:a5:b4:39:a8:62:3f:
                    8e:62:8b:d2:5b:c9:93:0a:21:46:21:72:c6:d2:3a:
                    17:8b:44:72:91:7c:17:40:ec:3e:86:bf:42:ea:68:
                    c1:e5:62:79:d9:5e:67:f2:4e:97:33:ea:52:02:92:
                    89:f2:cc:2f:c3:da:04:76:c0:35:79:34:46:a9:1a:
                    f0:f2:cf:aa:d8:cd:20:1a:c4:1a:32:5e:3c:a6:db:
                    dc:84:6a:6d:89:44:6d:10:14:8c:ab:81:d5:90:66:
                    18:e0:c3:c6:66:94:dc:74:99:f0:94:ff:73:ea:9e:
                    3f:5d:2a:95:37:87:a1:c2:63:23:b6:47:b6:9a:87:
                    a3:4a:7d:65:57:a5:44:0e:fe:52:4a:f7:ec:96:f6:
                    39:f5:e9:30:ed:77:77:bd:5b:c8:fa:30:dd:ec:69:
                    78:74:09:0a:f4:29:07:4f:e7:bf:81:e3:00:56:d9:
                    55:8e:2b:1f:b4:ad:e2:01:00:5e:64:4d:35:16:6b:
                    d4:1c:f6:95:70:d7:30:c9:64:3e:2d:fb:9e:16:62:
                    99:8f:c8:d6:d2:fb:ec:a1:14:b1:00:0f:e1:9c:58:
                    e8:74:dd:71:f0:85:95:0f:0e:11:d2:d8:95:76:82:
                    1e:c3:9d:a8:1d:8b:5b:43:4a:64:89:9a:8c:a2:8d:
                    84:8a:b7:6e:80:d6:44:02:f6:89:7b:73:8f:bc:1e:
                    a6:5d:e1:a0:e1:48:cd:46:55:25:fd:ea:78:05:9d:
                    c0:3f:8f:7d:d6:d0:88:f4:b5:7a:84:be:7b:b0:ad:
                    f7:eb:d3:a1:c7:2c:d7:94:b3:07:f1:8e:9a:0e:08:
                    ab:f2:0c:63:c7:2c:80:ae:e0:e8:9d:d4:70:eb:27:
                    0e:d1:e7:0f:26:31:1e:6e:95:a6:90:78:1b:a3:65:
                    c7:aa:eb
                Exponent: 65537 (0x10001)
        X509v3 extensions:
            X509v3 Basic Constraints: 
                CA:FALSE
            Netscape Comment: 
                Easy-RSA Generated Certificate
            X509v3 Subject Key Identifier: 
                99:30:1C:66:CA:A5:B6:30:B7:89:9C:78:7C:04:6C:7A:26:D3:23:DF
            X509v3 Authority Key Identifier: 
                keyid:EF:38:8D:14:50:58:A7:5B:4D:9C:17:72:FC:DF:B9:AC:A7:51:B0:10
                DirName:/C=US/ST=CA/L=SanFrancisco/O=Pixglo, Inc./OU=VPN-CIE/CN=tunnel.pixglo.com/name=Bala Chandrasekaran/emailAddress=bala@pixglo.com
                serial:A6:DB:C6:83:80:E6:A0:79

            X509v3 Extended Key Usage: 
                TLS Web Client Authentication
            X509v3 Key Usage: 
                Digital Signature
    Signature Algorithm: sha1WithRSAEncryption
         6a:50:86:f8:e6:bf:00:4e:02:46:b1:c8:1b:14:d6:81:46:97:
         98:51:67:96:f0:a7:c5:b5:34:48:3d:b3:49:0d:33:4c:d8:ce:
         c3:96:21:95:42:e6:2a:88:39:af:4f:9a:45:5b:ba:7d:c3:9c:
         c0:6b:6d:57:e0:32:a1:e5:40:a6:4e:09:2a:7e:2a:68:40:66:
         6b:82:6d:51:9f:ef:80:d2:28:78:f7:ac:2a:5d:cc:b5:55:8d:
         8a:c5:cf:7d:e0:54:82:a2:9e:5f:81:e0:b8:3c:79:06:c0:f4:
         9b:41:f7:f2:27:c1:45:40:a1:48:77:4f:1a:fe:c6:4a:f2:83:
         e1:0e:5b:4d:f1:d4:52:3c:0b:13:b9:7e:dd:c0:99:ba:8b:6d:
         cf:ee:83:95:f6:97:ea:89:c5:a2:26:4d:59:cf:cf:7e:c0:98:
         31:bb:2e:76:b8:dc:fe:c1:58:7b:b3:27:c3:e2:67:ec:73:e6:
         fe:9e:a4:ea:7b:92:29:4e:b7:69:6d:ac:71:50:af:08:27:32:
         63:2b:4d:31:fa:eb:78:f4:92:de:cd:b7:ab:a7:b8:07:d1:59:
         29:38:4f:09:a5:01:93:3e:fb:41:e1:c5:ce:ba:f0:34:bd:62:
         cd:74:9c:07:b9:00:1a:6e:46:d0:06:95:cf:72:75:73:52:d3:
         fe:29:51:18:e8:21:e6:56:1a:df:9f:5b:af:df:34:27:12:cd:
         a1:34:8d:4d:26:63:f0:a0:35:64:c4:ea:12:19:43:ce:f4:da:
         57:fb:33:3c:0f:fe:59:25:4f:6c:bc:82:e0:34:5a:84:da:52:
         46:fd:d8:c3:0a:25:a8:a4:06:e3:76:bb:b7:cc:c5:34:45:1e:
         0a:1b:8d:ab:d9:11:cc:1a:30:20:7b:3d:36:25:b3:3e:35:bb:
         ab:9f:0e:d0:99:6e:b6:c4:5f:db:9c:94:a8:79:92:6c:ad:e9:
         b2:81:31:47:66:12:42:96:2a:b4:6d:1d:df:5e:92:b3:7f:31:
         43:59:dd:56:ab:f7:86:c0:11:71:76:2c:83:00:6d:ee:67:29:
         0d:bd:0a:33:6f:a9:ca:ba:b6:b7:85:b9:a6:87:9e:22:22:85:
         92:8d:ee:ae:75:35:f1:65:50:88:e9:ab:bb:8e:d4:78:12:37:
         d4:2b:6a:62:40:20:a9:3b:79:e1:4b:d2:47:d5:6c:00:91:01:
         36:0e:01:2c:e0:10:74:e6:f7:8b:4d:b4:3d:06:40:d4:c4:aa:
         63:d0:d9:1b:2e:02:f7:6b:a2:fb:41:ee:24:b2:43:da:61:4d:
         41:14:87:82:dc:ee:87:f0:b2:7e:6e:90:14:1a:3b:d9:03:02:
         22:01:c2:78:c7:83:7e:3a
-----BEGIN CERTIFICATE-----
MIIHSDCCBTCgAwIBAgICAn8wDQYJKoZIhvcNAQEFBQAwgbQxCzAJBgNVBAYTAlVT
MQswCQYDVQQIEwJDQTEVMBMGA1UEBxMMU2FuRnJhbmNpc2NvMRUwEwYDVQQKEwxQ
aXhnbG8sIEluYy4xEDAOBgNVBAsTB1ZQTi1DSUUxGjAYBgNVBAMTEXR1bm5lbC5w
aXhnbG8uY29tMRwwGgYDVQQpExNCYWxhIENoYW5kcmFzZWthcmFuMR4wHAYJKoZI
hvcNAQkBFg9iYWxhQHBpeGdsby5jb20wHhcNMTgwMjE0MDYzOTA2WhcNMjgwMjEy
MDYzOTA2WjCBqTELMAkGA1UEBhMCVVMxCzAJBgNVBAgTAkNBMRUwEwYDVQQHEwxT
YW5GcmFuY2lzY28xFTATBgNVBAoTDFBpeGdsbywgSW5jLjEQMA4GA1UECxMHVlBO
LUNJRTEPMA0GA1UEAxMGY2llNjM4MRwwGgYDVQQpExNCYWxhIENoYW5kcmFzZWth
cmFuMR4wHAYJKoZIhvcNAQkBFg9iYWxhQHBpeGdsby5jb20wggIiMA0GCSqGSIb3
DQEBAQUAA4ICDwAwggIKAoICAQCoEJv3Rzjy9GCuwp0MLB4KLnf1xZky0s8OVaAk
StEeoVzrX27nTeKvfUE3TOdOfSbV7QBFSTZT3gzS8PccqUiDuSlxJAknQIiBJb8z
JPPb3ZH5t0+yC2wo5jsqBKSrqDLBd94HOAY1lftp+0wuX/shUTfmIx5b9GGcaglC
yHKD4dQ4QaPaS52WU9ZhU+Vy2WWxev+kC4Lykv7AHAg14WGgKRQKIdwMSWMmd1nO
36W0OahiP45ii9JbyZMKIUYhcsbSOheLRHKRfBdA7D6Gv0LqaMHlYnnZXmfyTpcz
6lICkonyzC/D2gR2wDV5NEapGvDyz6rYzSAaxBoyXjym29yEam2JRG0QFIyrgdWQ
Zhjgw8ZmlNx0mfCU/3Pqnj9dKpU3h6HCYyO2R7aah6NKfWVXpUQO/lJK9+yW9jn1
6TDtd3e9W8j6MN3saXh0CQr0KQdP57+B4wBW2VWOKx+0reIBAF5kTTUWa9Qc9pVw
1zDJZD4t+54WYpmPyNbS++yhFLEAD+GcWOh03XHwhZUPDhHS2JV2gh7Dnagdi1tD
SmSJmoyijYSKt26A1kQC9ol7c4+8HqZd4aDhSM1GVSX96ngFncA/j33W0Ij0tXqE
vnuwrffr06HHLNeUswfxjpoOCKvyDGPHLICu4Oid1HDrJw7R5w8mMR5ulaaQeBuj
Zceq6wIDAQABo4IBazCCAWcwCQYDVR0TBAIwADAtBglghkgBhvhCAQ0EIBYeRWFz
eS1SU0EgR2VuZXJhdGVkIENlcnRpZmljYXRlMB0GA1UdDgQWBBSZMBxmyqW2MLeJ
nHh8BGx6JtMj3zCB6QYDVR0jBIHhMIHegBTvOI0UUFinW02cF3L837msp1GwEKGB
uqSBtzCBtDELMAkGA1UEBhMCVVMxCzAJBgNVBAgTAkNBMRUwEwYDVQQHEwxTYW5G
cmFuY2lzY28xFTATBgNVBAoTDFBpeGdsbywgSW5jLjEQMA4GA1UECxMHVlBOLUNJ
RTEaMBgGA1UEAxMRdHVubmVsLnBpeGdsby5jb20xHDAaBgNVBCkTE0JhbGEgQ2hh
bmRyYXNla2FyYW4xHjAcBgkqhkiG9w0BCQEWD2JhbGFAcGl4Z2xvLmNvbYIJAKbb
xoOA5qB5MBMGA1UdJQQMMAoGCCsGAQUFBwMCMAsGA1UdDwQEAwIHgDANBgkqhkiG
9w0BAQUFAAOCAgEAalCG+Oa/AE4CRrHIGxTWgUaXmFFnlvCnxbU0SD2zSQ0zTNjO
w5YhlULmKog5r0+aRVu6fcOcwGttV+AyoeVApk4JKn4qaEBma4JtUZ/vgNIoePes
Kl3MtVWNisXPfeBUgqKeX4HguDx5BsD0m0H38ifBRUChSHdPGv7GSvKD4Q5bTfHU
UjwLE7l+3cCZuottz+6DlfaX6onFoiZNWc/PfsCYMbsudrjc/sFYe7Mnw+Jn7HPm
/p6k6nuSKU63aW2scVCvCCcyYytNMfrrePSS3s23q6e4B9FZKThPCaUBkz77QeHF
zrrwNL1izXScB7kAGm5G0AaVz3J1c1LT/ilRGOgh5lYa359br980JxLNoTSNTSZj
8KA1ZMTqEhlDzvTaV/szPA/+WSVPbLyC4DRahNpSRv3YwwolqKQG43a7t8zFNEUe
ChuNq9kRzBowIHs9NiWzPjW7q58O0JlutsRf25yUqHmSbK3psoExR2YSQpYqtG0d
316Ss38xQ1ndVqv3hsARcXYsgwBt7mcpDb0KM2+pyrq2t4W5poeeIiKFko3urnU1
8WVQiOmru47UeBI31CtqYkAgqTt54UvSR9VsAJEBNg4BLOAQdOb3i020PQZA1MSq
Y9DZGy4C92ui+0HuJLJD2mFNQRSHgtzuh/Cyfm6QFBo72QMCIgHCeMeDfjo=
-----END CERTIFICATE-----
