Certificate:
    Data:
        Version: 3 (0x2)
        Serial Number: 642 (0x282)
    Signature Algorithm: sha1WithRSAEncryption
        Issuer: C=US, ST=CA, L=SanFrancisco, O=Pixglo, Inc., OU=VPN-CIE, CN=tunnel.pixglo.com/name=Bala Chandrasekaran/emailAddress=bala@pixglo.com
        Validity
            Not Before: Feb 14 06:39:10 2018 GMT
            Not After : Feb 12 06:39:10 2028 GMT
        Subject: C=US, ST=CA, L=SanFrancisco, O=Pixglo, Inc., OU=VPN-CIE, CN=cie641/name=Bala Chandrasekaran/emailAddress=bala@pixglo.com
        Subject Public Key Info:
            Public Key Algorithm: rsaEncryption
                Public-Key: (4096 bit)
                Modulus:
                    00:cb:a8:41:31:d0:ea:90:ce:63:80:8d:03:e1:b6:
                    7f:46:f4:ed:1d:50:67:a9:9a:ec:94:fb:58:ff:c1:
                    64:96:fa:d2:0b:04:24:89:bc:e5:22:ce:51:36:b3:
                    f0:e4:34:f6:6b:8e:5c:8a:5b:1e:b5:a9:2b:c5:f9:
                    d9:f5:38:78:9e:0d:5e:d9:b6:41:36:e9:1f:29:09:
                    f0:9e:43:2b:fb:85:3a:f3:b6:d4:35:93:e5:25:29:
                    35:74:a8:ce:17:01:ff:97:76:7c:1b:c9:b1:09:2c:
                    a7:79:63:a6:ed:36:9b:8c:7b:ef:53:c6:bf:92:f4:
                    c0:3b:38:d8:66:a9:23:32:1f:2b:2b:4e:c5:28:f8:
                    1f:1b:e2:1d:b7:54:d3:5d:46:05:b8:b7:90:ee:f9:
                    18:6f:d3:d2:9a:b5:37:68:f7:34:b3:43:35:97:49:
                    09:ed:75:42:d7:de:8f:45:52:36:8f:06:57:90:cc:
                    03:3d:c2:82:61:39:62:1e:13:6f:71:5d:18:3d:dd:
                    09:a1:e2:08:8c:31:6e:c6:e2:2e:3f:7a:8f:46:e3:
                    68:7b:19:b1:ec:24:e3:72:e2:d0:2e:ca:db:10:ff:
                    5d:37:5a:93:29:7e:02:9d:7f:8b:22:ff:9c:6e:45:
                    66:e4:16:2d:d2:35:f3:e7:be:b3:0e:82:5b:bf:6d:
                    40:3d:c4:28:6f:e1:a8:4b:7c:e3:40:19:ca:70:e5:
                    13:a7:8a:2d:39:b0:94:e4:af:03:33:02:c0:01:8b:
                    b8:71:46:33:81:ce:4f:b2:c8:ab:ea:51:68:0a:09:
                    1f:82:31:d8:17:b3:16:3e:72:45:97:41:f9:1b:ef:
                    bc:c7:0b:43:da:b8:68:5b:4a:1a:37:10:17:ba:c2:
                    25:c5:1f:79:6f:1b:b6:91:68:6d:fe:50:f1:c2:8a:
                    ff:9f:78:3e:08:25:cc:71:de:99:b5:24:42:2a:0d:
                    6d:17:38:aa:1c:58:35:bf:b9:3d:33:3f:7e:6e:ce:
                    57:78:7d:8a:04:69:3c:99:96:c4:1f:b7:21:1e:70:
                    eb:1d:d3:78:cb:b1:e2:4d:32:40:88:41:c4:4f:31:
                    4c:de:fd:94:e2:be:42:5b:0d:fd:c3:b2:70:c8:fb:
                    6d:58:63:99:3c:d2:3b:06:01:6f:b9:79:22:82:9e:
                    35:e3:a1:e7:e5:22:e6:b5:e3:af:e2:88:f0:cd:ac:
                    a4:03:d9:91:71:04:a4:56:f8:84:82:d3:76:2c:3f:
                    9e:78:8b:8e:63:95:2e:13:e5:b5:11:4d:82:a5:33:
                    ba:09:c6:c8:70:74:92:b7:6c:74:8f:48:ba:a8:13:
                    b1:59:85:c9:47:bf:af:24:f6:a4:c0:a1:c1:5d:be:
                    ae:c8:99
                Exponent: 65537 (0x10001)
        X509v3 extensions:
            X509v3 Basic Constraints: 
                CA:FALSE
            Netscape Comment: 
                Easy-RSA Generated Certificate
            X509v3 Subject Key Identifier: 
                A1:63:EA:90:24:7C:71:97:3F:A0:81:8D:8E:00:04:23:60:67:AC:2C
            X509v3 Authority Key Identifier: 
                keyid:EF:38:8D:14:50:58:A7:5B:4D:9C:17:72:FC:DF:B9:AC:A7:51:B0:10
                DirName:/C=US/ST=CA/L=SanFrancisco/O=Pixglo, Inc./OU=VPN-CIE/CN=tunnel.pixglo.com/name=Bala Chandrasekaran/emailAddress=bala@pixglo.com
                serial:A6:DB:C6:83:80:E6:A0:79

            X509v3 Extended Key Usage: 
                TLS Web Client Authentication
            X509v3 Key Usage: 
                Digital Signature
    Signature Algorithm: sha1WithRSAEncryption
         b8:ce:9d:68:fd:33:3f:bd:14:07:cb:bc:d6:fc:4e:dc:65:33:
         a9:3a:04:59:a6:a3:62:c8:06:d3:e3:ad:21:d0:c3:b0:6e:44:
         ab:28:ec:bf:70:d3:e6:cd:df:ee:2e:ef:63:7b:90:f0:2b:6a:
         98:e6:cf:cc:0c:28:7b:40:b6:ac:b4:f1:9f:d0:af:b2:92:e3:
         2a:95:87:ad:49:72:7c:df:d0:45:b2:ad:e3:88:c3:d6:09:ee:
         96:92:b5:1c:a3:4b:ee:95:bd:23:51:47:35:37:85:1f:71:db:
         7d:2b:45:71:18:11:2b:8b:ac:c8:1c:0b:64:d0:74:b7:6f:29:
         a1:2c:1d:4d:37:2d:5d:60:ea:45:9b:c3:1c:a6:ca:87:5f:9e:
         a6:d1:f3:1a:54:54:7a:f8:b9:fd:33:9a:25:e4:5d:9c:1b:93:
         0e:d2:13:7a:45:ef:42:bf:cd:dd:95:c9:ff:fe:58:0c:fa:26:
         e7:d3:7b:6c:60:9a:e3:a1:68:77:33:4b:ce:46:53:4d:fd:58:
         ab:02:65:b9:12:29:54:5e:91:3a:60:40:68:04:c9:5e:eb:1b:
         0f:6e:22:8c:43:5c:b9:76:5e:43:53:40:18:a5:fb:65:bf:a4:
         fb:18:51:fd:f2:39:3d:b4:ef:ec:af:a2:d1:3e:66:b5:2b:19:
         74:3d:1e:49:3b:35:0c:c0:ea:8e:e2:88:a7:df:ef:85:a5:88:
         4f:7d:88:72:a4:39:c4:4e:4c:f7:e5:43:70:85:4d:91:43:40:
         a2:02:31:50:93:95:31:a3:bc:1b:07:0b:67:01:b8:5b:b9:1e:
         27:10:07:37:7c:4b:13:0f:bc:69:a9:5c:67:d7:4b:1f:38:92:
         fe:bb:9f:86:49:ba:26:7a:c9:e1:ca:c8:ef:54:1e:8f:57:c9:
         5e:6b:48:12:d3:65:a4:70:37:55:7e:be:de:ad:68:e7:34:ca:
         66:1e:b1:9d:40:86:78:10:20:63:40:2a:82:32:67:c7:b5:85:
         ef:2e:e5:b9:39:05:3f:9c:4c:b8:c1:d4:b3:5d:2e:3d:52:ee:
         48:37:0d:f2:69:32:2d:87:4e:77:c5:1e:53:56:35:17:40:94:
         f1:03:37:00:27:ce:7c:6d:34:ec:8f:8d:35:97:be:46:ed:cf:
         f6:c8:cd:44:58:1c:ed:e6:4f:80:fb:69:3b:b1:59:ee:9e:f0:
         59:37:e2:e6:f7:f0:e7:b3:57:e7:46:0b:fb:38:06:29:a2:7b:
         c1:e9:d8:2f:ba:c1:77:8f:b2:0c:51:f5:f0:17:b3:0b:a4:3a:
         58:54:74:40:4d:3e:25:43:38:71:a4:1a:44:12:44:48:76:88:
         9d:de:25:ab:ed:97:d3:73
-----BEGIN CERTIFICATE-----
MIIHSDCCBTCgAwIBAgICAoIwDQYJKoZIhvcNAQEFBQAwgbQxCzAJBgNVBAYTAlVT
MQswCQYDVQQIEwJDQTEVMBMGA1UEBxMMU2FuRnJhbmNpc2NvMRUwEwYDVQQKEwxQ
aXhnbG8sIEluYy4xEDAOBgNVBAsTB1ZQTi1DSUUxGjAYBgNVBAMTEXR1bm5lbC5w
aXhnbG8uY29tMRwwGgYDVQQpExNCYWxhIENoYW5kcmFzZWthcmFuMR4wHAYJKoZI
hvcNAQkBFg9iYWxhQHBpeGdsby5jb20wHhcNMTgwMjE0MDYzOTEwWhcNMjgwMjEy
MDYzOTEwWjCBqTELMAkGA1UEBhMCVVMxCzAJBgNVBAgTAkNBMRUwEwYDVQQHEwxT
YW5GcmFuY2lzY28xFTATBgNVBAoTDFBpeGdsbywgSW5jLjEQMA4GA1UECxMHVlBO
LUNJRTEPMA0GA1UEAxMGY2llNjQxMRwwGgYDVQQpExNCYWxhIENoYW5kcmFzZWth
cmFuMR4wHAYJKoZIhvcNAQkBFg9iYWxhQHBpeGdsby5jb20wggIiMA0GCSqGSIb3
DQEBAQUAA4ICDwAwggIKAoICAQDLqEEx0OqQzmOAjQPhtn9G9O0dUGepmuyU+1j/
wWSW+tILBCSJvOUizlE2s/DkNPZrjlyKWx61qSvF+dn1OHieDV7ZtkE26R8pCfCe
Qyv7hTrzttQ1k+UlKTV0qM4XAf+XdnwbybEJLKd5Y6btNpuMe+9Txr+S9MA7ONhm
qSMyHysrTsUo+B8b4h23VNNdRgW4t5Du+Rhv09KatTdo9zSzQzWXSQntdULX3o9F
UjaPBleQzAM9woJhOWIeE29xXRg93Qmh4giMMW7G4i4/eo9G42h7GbHsJONy4tAu
ytsQ/103WpMpfgKdf4si/5xuRWbkFi3SNfPnvrMOglu/bUA9xChv4ahLfONAGcpw
5ROnii05sJTkrwMzAsABi7hxRjOBzk+yyKvqUWgKCR+CMdgXsxY+ckWXQfkb77zH
C0PauGhbSho3EBe6wiXFH3lvG7aRaG3+UPHCiv+feD4IJcxx3pm1JEIqDW0XOKoc
WDW/uT0zP35uzld4fYoEaTyZlsQftyEecOsd03jLseJNMkCIQcRPMUze/ZTivkJb
Df3DsnDI+21YY5k80jsGAW+5eSKCnjXjoeflIua146/iiPDNrKQD2ZFxBKRW+ISC
03YsP554i45jlS4T5bURTYKlM7oJxshwdJK3bHSPSLqoE7FZhclHv68k9qTAocFd
vq7ImQIDAQABo4IBazCCAWcwCQYDVR0TBAIwADAtBglghkgBhvhCAQ0EIBYeRWFz
eS1SU0EgR2VuZXJhdGVkIENlcnRpZmljYXRlMB0GA1UdDgQWBBShY+qQJHxxlz+g
gY2OAAQjYGesLDCB6QYDVR0jBIHhMIHegBTvOI0UUFinW02cF3L837msp1GwEKGB
uqSBtzCBtDELMAkGA1UEBhMCVVMxCzAJBgNVBAgTAkNBMRUwEwYDVQQHEwxTYW5G
cmFuY2lzY28xFTATBgNVBAoTDFBpeGdsbywgSW5jLjEQMA4GA1UECxMHVlBOLUNJ
RTEaMBgGA1UEAxMRdHVubmVsLnBpeGdsby5jb20xHDAaBgNVBCkTE0JhbGEgQ2hh
bmRyYXNla2FyYW4xHjAcBgkqhkiG9w0BCQEWD2JhbGFAcGl4Z2xvLmNvbYIJAKbb
xoOA5qB5MBMGA1UdJQQMMAoGCCsGAQUFBwMCMAsGA1UdDwQEAwIHgDANBgkqhkiG
9w0BAQUFAAOCAgEAuM6daP0zP70UB8u81vxO3GUzqToEWaajYsgG0+OtIdDDsG5E
qyjsv3DT5s3f7i7vY3uQ8CtqmObPzAwoe0C2rLTxn9CvspLjKpWHrUlyfN/QRbKt
44jD1gnulpK1HKNL7pW9I1FHNTeFH3HbfStFcRgRK4usyBwLZNB0t28poSwdTTct
XWDqRZvDHKbKh1+eptHzGlRUevi5/TOaJeRdnBuTDtITekXvQr/N3ZXJ//5YDPom
59N7bGCa46FodzNLzkZTTf1YqwJluRIpVF6ROmBAaATJXusbD24ijENcuXZeQ1NA
GKX7Zb+k+xhR/fI5PbTv7K+i0T5mtSsZdD0eSTs1DMDqjuKIp9/vhaWIT32IcqQ5
xE5M9+VDcIVNkUNAogIxUJOVMaO8GwcLZwG4W7keJxAHN3xLEw+8aalcZ9dLHziS
/rufhkm6JnrJ4crI71Qej1fJXmtIEtNlpHA3VX6+3q1o5zTKZh6xnUCGeBAgY0Aq
gjJnx7WF7y7luTkFP5xMuMHUs10uPVLuSDcN8mkyLYdOd8UeU1Y1F0CU8QM3ACfO
fG007I+NNZe+Ru3P9sjNRFgc7eZPgPtpO7FZ7p7wWTfi5vfw57NX50YL+zgGKaJ7
wenYL7rBd4+yDFH18BezC6Q6WFR0QE0+JUM4caQaRBJESHaInd4lq+2X03M=
-----END CERTIFICATE-----
