Certificate:
    Data:
        Version: 3 (0x2)
        Serial Number: 644 (0x284)
    Signature Algorithm: sha1WithRSAEncryption
        Issuer: C=US, ST=CA, L=SanFrancisco, O=Pixglo, Inc., OU=VPN-CIE, CN=tunnel.pixglo.com/name=Bala Chandrasekaran/emailAddress=bala@pixglo.com
        Validity
            Not Before: Feb 14 06:39:14 2018 GMT
            Not After : Feb 12 06:39:14 2028 GMT
        Subject: C=US, ST=CA, L=SanFrancisco, O=Pixglo, Inc., OU=VPN-CIE, CN=cie643/name=Bala Chandrasekaran/emailAddress=bala@pixglo.com
        Subject Public Key Info:
            Public Key Algorithm: rsaEncryption
                Public-Key: (4096 bit)
                Modulus:
                    00:ce:b1:08:90:da:5f:3e:3e:cc:6f:73:2c:c6:9f:
                    1d:c9:94:4d:b6:b4:40:57:e1:4f:95:cd:b5:dd:69:
                    e9:6b:79:3f:50:74:c0:25:e7:5a:39:59:b6:35:a2:
                    7b:41:11:d7:bf:38:f6:3e:e7:9d:f8:cf:2d:bd:cc:
                    92:b1:41:6e:47:9c:79:15:f7:6a:67:16:95:bb:a6:
                    37:27:8f:be:db:33:fa:e4:f2:09:a8:0c:d4:72:78:
                    59:7a:2c:fe:cd:93:94:ea:64:55:0a:82:77:33:a0:
                    4d:a7:80:e0:9d:b5:ba:67:c3:ee:4b:6b:40:f9:1f:
                    00:11:70:09:83:45:66:7c:70:7e:1f:68:15:48:49:
                    80:fc:61:e5:f6:06:ef:df:9a:df:4e:4e:d2:02:3b:
                    ab:ed:0e:4c:00:2f:04:e3:26:c4:b2:30:c0:47:d2:
                    da:db:63:62:42:f8:ea:0a:8f:74:f4:7e:9e:26:e0:
                    88:5c:e3:c7:5a:29:50:cb:58:8c:6a:2f:0b:37:4b:
                    d5:71:5f:f4:ec:f4:7c:d9:a7:2a:92:af:a4:e3:02:
                    93:d5:ca:68:af:38:f4:b5:35:0d:0f:d1:5c:08:fb:
                    73:9d:33:12:be:96:26:90:76:61:b6:5d:81:51:14:
                    57:0a:3f:3b:6c:ce:48:bb:ea:ea:fa:21:11:0b:38:
                    ca:89:99:9b:fd:ed:2b:84:ec:ac:9e:5e:85:94:1f:
                    b3:7d:7c:7d:61:e5:ea:8b:6b:01:c2:b3:a3:8f:98:
                    e8:72:9f:16:ee:58:b8:b5:27:86:29:8e:44:f4:90:
                    7c:24:b5:e2:3b:fe:28:73:a9:be:b3:a0:fc:0e:e3:
                    0b:19:ae:8c:b5:66:51:f1:f5:f4:06:f8:86:ac:86:
                    bd:18:26:fa:4d:99:85:00:80:cb:d2:27:c0:ff:02:
                    aa:3b:aa:41:d5:49:b2:69:3d:aa:f0:60:0f:c0:fb:
                    55:ae:3b:76:b9:7c:9c:e6:96:ad:fb:ef:1b:10:a5:
                    19:1a:2b:3e:bf:c0:74:7d:b2:a1:74:fb:c9:04:da:
                    87:51:ed:32:42:a3:1e:37:9d:02:03:40:ab:79:8b:
                    dd:45:91:68:c1:f2:7d:3b:61:3d:32:88:ab:39:59:
                    33:ac:72:df:f0:a5:f6:33:21:46:35:0d:07:84:90:
                    1f:57:7e:78:07:98:47:0f:d6:96:c1:b2:43:ca:bb:
                    ee:20:cf:60:27:f7:9d:6f:e2:c8:ba:0e:7b:79:4a:
                    05:2f:ca:ed:68:a1:7a:a6:a9:8c:71:87:04:1a:f6:
                    14:68:d3:39:a1:3a:a4:b5:4c:dd:61:c7:f1:fb:3b:
                    4e:a1:ea:5d:39:43:6d:55:1a:2f:ed:b9:88:c5:69:
                    41:6e:17
                Exponent: 65537 (0x10001)
        X509v3 extensions:
            X509v3 Basic Constraints: 
                CA:FALSE
            Netscape Comment: 
                Easy-RSA Generated Certificate
            X509v3 Subject Key Identifier: 
                B7:7E:78:E2:0D:93:9E:A8:98:5A:1A:C0:B9:C1:C0:48:95:DF:09:35
            X509v3 Authority Key Identifier: 
                keyid:EF:38:8D:14:50:58:A7:5B:4D:9C:17:72:FC:DF:B9:AC:A7:51:B0:10
                DirName:/C=US/ST=CA/L=SanFrancisco/O=Pixglo, Inc./OU=VPN-CIE/CN=tunnel.pixglo.com/name=Bala Chandrasekaran/emailAddress=bala@pixglo.com
                serial:A6:DB:C6:83:80:E6:A0:79

            X509v3 Extended Key Usage: 
                TLS Web Client Authentication
            X509v3 Key Usage: 
                Digital Signature
    Signature Algorithm: sha1WithRSAEncryption
         6d:b9:df:8d:3f:eb:70:0c:2b:5d:30:a7:ff:3c:68:f3:a1:57:
         16:8a:d1:4c:00:db:97:b5:28:c6:e3:a0:ea:d0:74:e9:d8:8b:
         2e:d6:b0:7a:d3:0e:f9:c9:46:37:8a:68:97:fb:1f:85:05:ed:
         06:61:0f:11:e2:45:ab:29:6a:0a:24:74:3e:36:63:78:5c:8a:
         06:97:cc:25:87:67:17:23:41:8e:67:41:6c:1a:db:c0:3a:61:
         28:f0:f6:2d:40:d8:1d:d2:e2:ab:6e:20:e4:ac:22:0a:dc:f5:
         a3:be:01:ff:cb:0e:5e:96:9d:07:e0:1b:14:a6:81:03:37:3b:
         b8:f3:75:bc:61:c5:38:1a:fc:37:9e:39:75:fa:4a:ae:5c:25:
         96:5e:eb:eb:e9:98:b8:94:0a:d9:a5:30:76:96:10:1d:b3:53:
         85:8f:0f:a0:ca:1f:68:3b:ce:8d:d4:ea:21:32:cb:77:28:4e:
         52:fe:6b:cc:2b:b1:26:c1:7e:26:dd:23:a0:e8:c5:12:bd:d1:
         8b:ff:b6:8f:50:89:c9:62:68:55:95:08:4e:5c:bc:a7:d0:1e:
         15:62:df:46:00:30:5c:ba:36:94:63:92:22:75:ae:2a:2f:9e:
         e1:3e:d7:0b:ef:cd:7f:21:75:a9:3f:fe:de:27:4a:0e:d9:8d:
         3f:df:f9:2b:c3:82:85:06:7d:4f:7d:ea:4e:b8:aa:c5:03:7e:
         34:48:a8:99:d1:5c:9d:d7:e5:27:bd:37:7c:a4:01:9e:cd:fb:
         59:10:34:cd:0f:e9:68:7e:a5:dd:38:f3:0a:01:13:39:ed:ab:
         60:31:37:c5:cd:d1:7e:6e:41:fe:26:f4:8d:c7:b9:9c:ef:fa:
         af:b4:f7:b3:ee:58:1f:16:2a:34:a5:b6:2f:1c:c9:82:f7:4a:
         1d:03:09:81:f5:a6:2f:5f:57:f9:9f:b3:38:ff:2a:35:99:6e:
         bd:0f:1c:e7:41:93:16:ea:8f:ab:2c:6b:93:c4:08:cd:d3:00:
         16:a2:38:65:8c:a1:31:33:33:94:a3:dc:4a:21:f5:68:97:77:
         83:d4:c8:b6:c7:4e:ce:73:4a:5f:b3:45:af:f2:9f:f5:9b:ec:
         67:46:ab:61:2d:66:c4:88:a4:9b:04:bf:18:c1:9a:1e:c2:68:
         14:fb:f5:81:7e:df:23:70:96:d1:5d:e6:bd:b0:14:62:6d:15:
         53:bd:6f:13:14:e5:54:8f:5f:a5:c7:59:15:f4:2b:d7:42:12:
         d4:36:10:24:95:37:a5:b0:58:d1:e1:4a:d5:31:fa:a8:24:5f:
         a2:a1:20:f3:aa:e5:67:94:ab:65:52:da:6a:93:73:49:69:d5:
         f4:7c:6a:34:55:df:ab:95
-----BEGIN CERTIFICATE-----
MIIHSDCCBTCgAwIBAgICAoQwDQYJKoZIhvcNAQEFBQAwgbQxCzAJBgNVBAYTAlVT
MQswCQYDVQQIEwJDQTEVMBMGA1UEBxMMU2FuRnJhbmNpc2NvMRUwEwYDVQQKEwxQ
aXhnbG8sIEluYy4xEDAOBgNVBAsTB1ZQTi1DSUUxGjAYBgNVBAMTEXR1bm5lbC5w
aXhnbG8uY29tMRwwGgYDVQQpExNCYWxhIENoYW5kcmFzZWthcmFuMR4wHAYJKoZI
hvcNAQkBFg9iYWxhQHBpeGdsby5jb20wHhcNMTgwMjE0MDYzOTE0WhcNMjgwMjEy
MDYzOTE0WjCBqTELMAkGA1UEBhMCVVMxCzAJBgNVBAgTAkNBMRUwEwYDVQQHEwxT
YW5GcmFuY2lzY28xFTATBgNVBAoTDFBpeGdsbywgSW5jLjEQMA4GA1UECxMHVlBO
LUNJRTEPMA0GA1UEAxMGY2llNjQzMRwwGgYDVQQpExNCYWxhIENoYW5kcmFzZWth
cmFuMR4wHAYJKoZIhvcNAQkBFg9iYWxhQHBpeGdsby5jb20wggIiMA0GCSqGSIb3
DQEBAQUAA4ICDwAwggIKAoICAQDOsQiQ2l8+PsxvcyzGnx3JlE22tEBX4U+VzbXd
aelreT9QdMAl51o5WbY1ontBEde/OPY+5534zy29zJKxQW5HnHkV92pnFpW7pjcn
j77bM/rk8gmoDNRyeFl6LP7Nk5TqZFUKgnczoE2ngOCdtbpnw+5La0D5HwARcAmD
RWZ8cH4faBVISYD8YeX2Bu/fmt9OTtICO6vtDkwALwTjJsSyMMBH0trbY2JC+OoK
j3T0fp4m4Ihc48daKVDLWIxqLws3S9VxX/Ts9HzZpyqSr6TjApPVymivOPS1NQ0P
0VwI+3OdMxK+liaQdmG2XYFRFFcKPztszki76ur6IRELOMqJmZv97SuE7KyeXoWU
H7N9fH1h5eqLawHCs6OPmOhynxbuWLi1J4YpjkT0kHwkteI7/ihzqb6zoPwO4wsZ
roy1ZlHx9fQG+Iashr0YJvpNmYUAgMvSJ8D/Aqo7qkHVSbJpParwYA/A+1WuO3a5
fJzmlq377xsQpRkaKz6/wHR9sqF0+8kE2odR7TJCox43nQIDQKt5i91FkWjB8n07
YT0yiKs5WTOsct/wpfYzIUY1DQeEkB9XfngHmEcP1pbBskPKu+4gz2An951v4si6
Dnt5SgUvyu1ooXqmqYxxhwQa9hRo0zmhOqS1TN1hx/H7O06h6l05Q21VGi/tuYjF
aUFuFwIDAQABo4IBazCCAWcwCQYDVR0TBAIwADAtBglghkgBhvhCAQ0EIBYeRWFz
eS1SU0EgR2VuZXJhdGVkIENlcnRpZmljYXRlMB0GA1UdDgQWBBS3fnjiDZOeqJha
GsC5wcBIld8JNTCB6QYDVR0jBIHhMIHegBTvOI0UUFinW02cF3L837msp1GwEKGB
uqSBtzCBtDELMAkGA1UEBhMCVVMxCzAJBgNVBAgTAkNBMRUwEwYDVQQHEwxTYW5G
cmFuY2lzY28xFTATBgNVBAoTDFBpeGdsbywgSW5jLjEQMA4GA1UECxMHVlBOLUNJ
RTEaMBgGA1UEAxMRdHVubmVsLnBpeGdsby5jb20xHDAaBgNVBCkTE0JhbGEgQ2hh
bmRyYXNla2FyYW4xHjAcBgkqhkiG9w0BCQEWD2JhbGFAcGl4Z2xvLmNvbYIJAKbb
xoOA5qB5MBMGA1UdJQQMMAoGCCsGAQUFBwMCMAsGA1UdDwQEAwIHgDANBgkqhkiG
9w0BAQUFAAOCAgEAbbnfjT/rcAwrXTCn/zxo86FXForRTADbl7UoxuOg6tB06diL
LtawetMO+clGN4pol/sfhQXtBmEPEeJFqylqCiR0PjZjeFyKBpfMJYdnFyNBjmdB
bBrbwDphKPD2LUDYHdLiq24g5KwiCtz1o74B/8sOXpadB+AbFKaBAzc7uPN1vGHF
OBr8N545dfpKrlwlll7r6+mYuJQK2aUwdpYQHbNThY8PoMofaDvOjdTqITLLdyhO
Uv5rzCuxJsF+Jt0joOjFEr3Ri/+2j1CJyWJoVZUITly8p9AeFWLfRgAwXLo2lGOS
InWuKi+e4T7XC+/NfyF1qT/+3idKDtmNP9/5K8OChQZ9T33qTriqxQN+NEiomdFc
ndflJ703fKQBns37WRA0zQ/paH6l3TjzCgETOe2rYDE3xc3Rfm5B/ib0jce5nO/6
r7T3s+5YHxYqNKW2LxzJgvdKHQMJgfWmL19X+Z+zOP8qNZluvQ8c50GTFuqPqyxr
k8QIzdMAFqI4ZYyhMTMzlKPcSiH1aJd3g9TItsdOznNKX7NFr/Kf9ZvsZ0arYS1m
xIikmwS/GMGaHsJoFPv1gX7fI3CW0V3mvbAUYm0VU71vExTlVI9fpcdZFfQr10IS
1DYQJJU3pbBY0eFK1TH6qCRfoqEg86rlZ5SrZVLaapNzSWnV9HxqNFXfq5U=
-----END CERTIFICATE-----
