Certificate:
    Data:
        Version: 3 (0x2)
        Serial Number: 646 (0x286)
    Signature Algorithm: sha1WithRSAEncryption
        Issuer: C=US, ST=CA, L=SanFrancisco, O=Pixglo, Inc., OU=VPN-CIE, CN=tunnel.pixglo.com/name=Bala Chandrasekaran/emailAddress=bala@pixglo.com
        Validity
            Not Before: Feb 14 06:39:16 2018 GMT
            Not After : Feb 12 06:39:16 2028 GMT
        Subject: C=US, ST=CA, L=SanFrancisco, O=Pixglo, Inc., OU=VPN-CIE, CN=cie645/name=Bala Chandrasekaran/emailAddress=bala@pixglo.com
        Subject Public Key Info:
            Public Key Algorithm: rsaEncryption
                Public-Key: (4096 bit)
                Modulus:
                    00:af:51:02:a4:8d:9c:06:51:5e:82:fd:e7:e6:38:
                    49:3e:c7:14:c9:0d:47:84:cf:10:f4:54:f6:37:03:
                    74:10:b4:af:27:69:fa:70:88:30:8a:82:d5:c3:0d:
                    c3:83:79:96:74:3c:f7:07:f6:2a:a8:3d:9d:7d:ae:
                    cf:b3:19:26:b8:d2:e3:fb:91:cc:85:ec:f3:ce:60:
                    2d:45:43:c9:c2:8b:65:28:f1:7d:1c:59:a8:ab:40:
                    d9:22:ef:d3:40:a1:b4:ed:10:3d:af:19:14:db:21:
                    ad:f6:dd:45:29:d6:e6:5e:e2:50:3b:d7:d1:1e:69:
                    be:1d:1e:ff:7e:d6:a7:cb:5e:e5:24:6d:ca:c8:cb:
                    68:92:d1:4a:96:2f:d1:5b:30:fb:43:f3:ad:c2:f5:
                    9a:d5:4f:44:8e:26:13:08:97:11:62:1b:05:8c:9d:
                    6f:de:ba:2c:b3:46:26:8a:e2:87:03:70:c7:45:0c:
                    63:8b:d2:3d:f0:67:e0:42:5e:2b:b0:d6:89:27:50:
                    37:dd:ce:f4:ea:fd:d3:67:20:74:aa:21:0b:94:f1:
                    ef:32:0d:e2:48:43:e7:92:34:97:f0:16:76:69:fc:
                    75:b8:20:c5:6e:76:af:ed:61:28:47:12:85:d5:4b:
                    6d:9d:fe:9d:d4:db:79:a5:65:07:96:27:4c:ec:93:
                    51:d4:5b:dd:b4:c0:21:12:36:7a:71:b8:5c:d8:4c:
                    c8:96:c9:1b:0c:bf:4b:d5:af:81:88:54:8b:db:cd:
                    48:d4:11:d9:64:a7:49:d3:3c:ca:09:d0:6b:58:54:
                    91:e2:89:bb:af:78:a6:52:c6:ca:35:0a:c5:31:eb:
                    5a:20:12:40:81:b7:bf:dd:fe:2a:b8:a8:06:c8:49:
                    87:a6:ac:7c:10:3e:7f:86:af:3e:2f:5d:3e:db:9c:
                    d3:2c:0e:6b:82:7f:d0:82:4d:78:a9:f6:ca:9a:e6:
                    b5:2b:33:a8:80:aa:80:88:05:03:4a:99:98:70:9a:
                    dd:f5:d4:86:51:d6:c1:31:00:5d:b4:5d:45:c4:2f:
                    08:9e:fb:25:50:da:13:38:6a:87:fe:8e:9c:f8:15:
                    04:55:44:f3:ff:0a:6b:2d:c8:3d:6b:56:5f:43:17:
                    c5:89:62:d4:30:fc:3c:6b:86:ea:bc:64:63:ef:e6:
                    71:e6:cf:0c:7d:ae:91:63:89:87:18:b1:1f:f1:0c:
                    13:4c:89:61:e3:e2:73:9d:21:15:d7:90:9f:e8:9c:
                    8d:86:15:42:d6:1e:11:59:63:c4:1a:39:37:e0:37:
                    1b:52:a1:a2:2d:42:c2:b7:e2:ee:ec:f3:9d:7b:67:
                    f3:4a:0b:9f:00:0b:83:e6:60:2e:e5:60:f9:2f:39:
                    4b:0e:81
                Exponent: 65537 (0x10001)
        X509v3 extensions:
            X509v3 Basic Constraints: 
                CA:FALSE
            Netscape Comment: 
                Easy-RSA Generated Certificate
            X509v3 Subject Key Identifier: 
                96:13:C4:96:1F:A1:76:E2:95:5D:42:C6:BD:AD:03:33:27:6B:EC:8C
            X509v3 Authority Key Identifier: 
                keyid:EF:38:8D:14:50:58:A7:5B:4D:9C:17:72:FC:DF:B9:AC:A7:51:B0:10
                DirName:/C=US/ST=CA/L=SanFrancisco/O=Pixglo, Inc./OU=VPN-CIE/CN=tunnel.pixglo.com/name=Bala Chandrasekaran/emailAddress=bala@pixglo.com
                serial:A6:DB:C6:83:80:E6:A0:79

            X509v3 Extended Key Usage: 
                TLS Web Client Authentication
            X509v3 Key Usage: 
                Digital Signature
    Signature Algorithm: sha1WithRSAEncryption
         9e:08:23:b8:c9:8e:7e:0b:02:6a:cf:9e:33:fe:31:83:6b:98:
         57:2d:fe:96:cf:86:43:26:05:0e:9a:eb:20:14:5e:2d:1d:06:
         29:58:b7:36:6e:7a:7b:cd:1b:2e:88:55:ce:5b:27:34:c1:45:
         ce:3f:23:92:47:d1:a9:01:3d:dd:2e:5e:b7:1c:c1:24:8a:6b:
         07:97:9d:b4:60:88:bf:c2:41:8e:10:3c:96:e5:58:fc:66:fc:
         db:f7:fb:80:47:ee:f6:2e:e1:44:99:3d:a4:02:0a:e5:bc:2f:
         3a:d4:64:2e:4b:d0:ac:0c:09:1e:4d:41:73:e1:b9:0a:b3:d6:
         83:32:ef:11:44:70:73:18:06:fe:27:d4:43:58:4f:4f:93:44:
         3a:30:f6:84:ec:6f:98:17:b2:33:ef:7c:f9:ef:e0:98:b9:69:
         ab:06:2d:0b:db:d2:3e:43:72:cb:32:1f:e9:be:53:ee:92:d2:
         ac:9e:a1:23:4e:11:65:07:7e:3f:7c:98:90:49:5f:bc:ab:47:
         81:64:21:2a:25:19:2e:80:76:6e:09:9c:85:95:ae:05:a2:43:
         66:26:8a:08:c1:55:05:ea:bc:1e:4c:32:1a:03:14:80:52:c7:
         4e:20:2c:2b:58:a5:1a:6d:8f:37:97:24:ca:2d:7a:3e:55:6c:
         1f:fa:20:f8:51:bc:6b:26:d9:e2:bd:92:dc:89:72:bd:47:48:
         22:33:28:82:f9:76:c2:66:b5:f2:ba:98:23:fe:7f:a7:85:eb:
         af:fe:d2:19:3f:ad:ac:75:75:6f:4e:b0:1c:f4:6d:29:9b:e2:
         5d:39:d7:4b:5d:01:13:a0:97:26:b7:cf:4f:e7:95:fe:a3:32:
         fb:73:05:5a:1b:08:74:a0:4d:2c:ed:8f:b7:ed:13:78:e2:3a:
         bd:3e:da:d8:55:23:65:f8:12:81:b5:82:25:2b:ae:5e:6b:c8:
         c6:80:c4:04:fd:a2:2d:a6:04:85:aa:3e:c2:65:a1:40:9a:e8:
         eb:dc:f8:3f:2c:90:9c:09:3e:a5:a8:aa:03:d0:f2:ab:05:26:
         7b:6d:f6:05:c5:97:80:5a:b9:e4:30:9f:50:78:40:13:35:b8:
         6e:be:72:9b:c5:b7:1e:93:3e:01:ae:8c:96:7c:49:60:5f:bd:
         a3:73:1c:c9:47:6a:49:bc:65:77:8e:2d:f6:90:84:e5:18:55:
         20:80:e0:88:50:67:0c:32:0e:1e:95:59:f8:62:6b:f6:9a:ed:
         03:72:cd:5d:56:09:e1:31:ab:c0:a9:9a:c4:e3:f2:23:22:07:
         fb:3e:48:02:09:07:ba:c0:b6:8c:88:c8:c1:3f:fc:ea:4b:89:
         74:3f:d9:5f:7a:d5:f2:a9
-----BEGIN CERTIFICATE-----
MIIHSDCCBTCgAwIBAgICAoYwDQYJKoZIhvcNAQEFBQAwgbQxCzAJBgNVBAYTAlVT
MQswCQYDVQQIEwJDQTEVMBMGA1UEBxMMU2FuRnJhbmNpc2NvMRUwEwYDVQQKEwxQ
aXhnbG8sIEluYy4xEDAOBgNVBAsTB1ZQTi1DSUUxGjAYBgNVBAMTEXR1bm5lbC5w
aXhnbG8uY29tMRwwGgYDVQQpExNCYWxhIENoYW5kcmFzZWthcmFuMR4wHAYJKoZI
hvcNAQkBFg9iYWxhQHBpeGdsby5jb20wHhcNMTgwMjE0MDYzOTE2WhcNMjgwMjEy
MDYzOTE2WjCBqTELMAkGA1UEBhMCVVMxCzAJBgNVBAgTAkNBMRUwEwYDVQQHEwxT
YW5GcmFuY2lzY28xFTATBgNVBAoTDFBpeGdsbywgSW5jLjEQMA4GA1UECxMHVlBO
LUNJRTEPMA0GA1UEAxMGY2llNjQ1MRwwGgYDVQQpExNCYWxhIENoYW5kcmFzZWth
cmFuMR4wHAYJKoZIhvcNAQkBFg9iYWxhQHBpeGdsby5jb20wggIiMA0GCSqGSIb3
DQEBAQUAA4ICDwAwggIKAoICAQCvUQKkjZwGUV6C/efmOEk+xxTJDUeEzxD0VPY3
A3QQtK8nafpwiDCKgtXDDcODeZZ0PPcH9iqoPZ19rs+zGSa40uP7kcyF7PPOYC1F
Q8nCi2Uo8X0cWairQNki79NAobTtED2vGRTbIa323UUp1uZe4lA719Eeab4dHv9+
1qfLXuUkbcrIy2iS0UqWL9FbMPtD863C9ZrVT0SOJhMIlxFiGwWMnW/euiyzRiaK
4ocDcMdFDGOL0j3wZ+BCXiuw1oknUDfdzvTq/dNnIHSqIQuU8e8yDeJIQ+eSNJfw
FnZp/HW4IMVudq/tYShHEoXVS22d/p3U23mlZQeWJ0zsk1HUW920wCESNnpxuFzY
TMiWyRsMv0vVr4GIVIvbzUjUEdlkp0nTPMoJ0GtYVJHiibuveKZSxso1CsUx61og
EkCBt7/d/iq4qAbISYemrHwQPn+Grz4vXT7bnNMsDmuCf9CCTXip9sqa5rUrM6iA
qoCIBQNKmZhwmt311IZR1sExAF20XUXELwie+yVQ2hM4aof+jpz4FQRVRPP/Cmst
yD1rVl9DF8WJYtQw/Dxrhuq8ZGPv5nHmzwx9rpFjiYcYsR/xDBNMiWHj4nOdIRXX
kJ/onI2GFULWHhFZY8QaOTfgNxtSoaItQsK34u7s8517Z/NKC58AC4PmYC7lYPkv
OUsOgQIDAQABo4IBazCCAWcwCQYDVR0TBAIwADAtBglghkgBhvhCAQ0EIBYeRWFz
eS1SU0EgR2VuZXJhdGVkIENlcnRpZmljYXRlMB0GA1UdDgQWBBSWE8SWH6F24pVd
Qsa9rQMzJ2vsjDCB6QYDVR0jBIHhMIHegBTvOI0UUFinW02cF3L837msp1GwEKGB
uqSBtzCBtDELMAkGA1UEBhMCVVMxCzAJBgNVBAgTAkNBMRUwEwYDVQQHEwxTYW5G
cmFuY2lzY28xFTATBgNVBAoTDFBpeGdsbywgSW5jLjEQMA4GA1UECxMHVlBOLUNJ
RTEaMBgGA1UEAxMRdHVubmVsLnBpeGdsby5jb20xHDAaBgNVBCkTE0JhbGEgQ2hh
bmRyYXNla2FyYW4xHjAcBgkqhkiG9w0BCQEWD2JhbGFAcGl4Z2xvLmNvbYIJAKbb
xoOA5qB5MBMGA1UdJQQMMAoGCCsGAQUFBwMCMAsGA1UdDwQEAwIHgDANBgkqhkiG
9w0BAQUFAAOCAgEAnggjuMmOfgsCas+eM/4xg2uYVy3+ls+GQyYFDprrIBReLR0G
KVi3Nm56e80bLohVzlsnNMFFzj8jkkfRqQE93S5etxzBJIprB5edtGCIv8JBjhA8
luVY/Gb82/f7gEfu9i7hRJk9pAIK5bwvOtRkLkvQrAwJHk1Bc+G5CrPWgzLvEURw
cxgG/ifUQ1hPT5NEOjD2hOxvmBeyM+98+e/gmLlpqwYtC9vSPkNyyzIf6b5T7pLS
rJ6hI04RZQd+P3yYkElfvKtHgWQhKiUZLoB2bgmchZWuBaJDZiaKCMFVBeq8Hkwy
GgMUgFLHTiAsK1ilGm2PN5ckyi16PlVsH/og+FG8aybZ4r2S3IlyvUdIIjMogvl2
wma18rqYI/5/p4Xrr/7SGT+trHV1b06wHPRtKZviXTnXS10BE6CXJrfPT+eV/qMy
+3MFWhsIdKBNLO2Pt+0TeOI6vT7a2FUjZfgSgbWCJSuuXmvIxoDEBP2iLaYEhao+
wmWhQJro69z4PyyQnAk+paiqA9DyqwUme232BcWXgFq55DCfUHhAEzW4br5ym8W3
HpM+Aa6MlnxJYF+9o3McyUdqSbxld44t9pCE5RhVIIDgiFBnDDIOHpVZ+GJr9prt
A3LNXVYJ4TGrwKmaxOPyIyIH+z5IAgkHusC2jIjIwT/86kuJdD/ZX3rV8qk=
-----END CERTIFICATE-----
