Certificate:
    Data:
        Version: 3 (0x2)
        Serial Number: 647 (0x287)
    Signature Algorithm: sha1WithRSAEncryption
        Issuer: C=US, ST=CA, L=SanFrancisco, O=Pixglo, Inc., OU=VPN-CIE, CN=tunnel.pixglo.com/name=Bala Chandrasekaran/emailAddress=bala@pixglo.com
        Validity
            Not Before: Feb 14 06:39:16 2018 GMT
            Not After : Feb 12 06:39:16 2028 GMT
        Subject: C=US, ST=CA, L=SanFrancisco, O=Pixglo, Inc., OU=VPN-CIE, CN=cie646/name=Bala Chandrasekaran/emailAddress=bala@pixglo.com
        Subject Public Key Info:
            Public Key Algorithm: rsaEncryption
                Public-Key: (4096 bit)
                Modulus:
                    00:bf:36:bb:0c:8c:9a:a4:04:e2:45:43:29:c5:ca:
                    89:8a:52:69:fb:af:a6:7f:4c:59:6d:f1:13:1a:2d:
                    93:be:85:77:47:b3:65:4e:de:d9:b0:e4:26:d9:7c:
                    a4:d3:aa:d6:b7:f2:1c:af:ca:da:64:39:85:55:96:
                    45:00:2a:15:d8:17:f9:de:0a:98:dc:39:a2:1e:33:
                    08:e0:0a:d0:9c:cb:fd:d1:a7:07:22:14:81:72:f1:
                    ff:3d:3e:c5:29:37:f2:14:89:20:26:34:5b:45:ba:
                    04:ba:23:90:f1:5e:9a:c6:91:3c:a4:d7:e6:3e:1a:
                    95:c7:ce:07:f0:cb:70:30:48:ee:77:8c:eb:6b:2b:
                    63:0d:86:59:3b:d7:50:08:5a:af:04:77:1c:ca:c2:
                    4a:1a:05:21:d4:d4:6b:54:46:54:3e:50:46:c8:cf:
                    fb:ad:a9:02:a9:2f:2b:24:4f:7d:78:ea:4e:d6:df:
                    fd:54:42:69:86:93:be:4d:00:2d:c3:8a:b9:ea:18:
                    df:45:b5:1e:61:7b:0b:df:f5:db:68:b6:c1:4d:d4:
                    3a:15:a0:e3:61:90:05:d9:0e:f2:1b:94:11:2d:dd:
                    64:12:b1:82:b5:1c:e8:74:fd:4e:ec:32:b0:e8:9b:
                    d4:31:7d:65:7b:e5:dd:0a:55:59:35:c3:da:9d:3f:
                    fb:b4:74:04:be:26:14:e5:44:c3:a0:4a:22:b4:00:
                    bc:98:7d:25:20:1e:53:7f:72:79:5a:06:73:3c:7a:
                    5d:0d:e2:25:2c:6e:06:39:c4:11:c1:26:f7:1c:d2:
                    66:ed:4b:14:cd:4f:f2:bd:29:ec:3f:6d:ab:d7:f4:
                    a4:0c:29:25:c3:42:a0:f0:46:2a:66:3b:ca:87:da:
                    da:fb:39:a4:a0:b0:ee:93:01:54:67:a4:d9:f8:f2:
                    7b:ae:e9:1c:76:7e:4f:02:1f:16:d0:ef:c2:ec:55:
                    8f:73:7d:c0:c0:15:3c:58:a6:86:f9:4e:ac:16:6f:
                    ed:80:8f:93:10:e2:99:f5:9e:e2:0b:87:49:b0:27:
                    59:9d:10:43:ef:26:b1:43:58:be:67:cb:e5:a7:89:
                    59:9a:32:f2:b6:38:e2:b7:ed:3c:d3:e0:6b:0e:d1:
                    a6:33:3f:80:e3:74:24:fc:b5:de:17:a2:3f:36:c7:
                    bf:6e:c9:29:aa:9f:11:54:a4:53:9c:69:dd:40:f9:
                    9a:bc:fe:f6:b7:d0:d0:1e:a5:6b:74:ac:38:6e:2b:
                    93:1c:93:6a:aa:58:7b:3e:be:61:84:0f:0b:7b:fd:
                    3a:ae:48:d6:5a:55:92:4c:b8:f1:cd:07:54:53:1a:
                    b4:21:c1:43:43:2d:98:71:4f:f2:77:d9:1b:61:90:
                    a1:52:8f
                Exponent: 65537 (0x10001)
        X509v3 extensions:
            X509v3 Basic Constraints: 
                CA:FALSE
            Netscape Comment: 
                Easy-RSA Generated Certificate
            X509v3 Subject Key Identifier: 
                6A:81:EF:37:06:5A:E5:0A:41:FC:A6:67:57:51:DA:E4:2B:DD:93:EE
            X509v3 Authority Key Identifier: 
                keyid:EF:38:8D:14:50:58:A7:5B:4D:9C:17:72:FC:DF:B9:AC:A7:51:B0:10
                DirName:/C=US/ST=CA/L=SanFrancisco/O=Pixglo, Inc./OU=VPN-CIE/CN=tunnel.pixglo.com/name=Bala Chandrasekaran/emailAddress=bala@pixglo.com
                serial:A6:DB:C6:83:80:E6:A0:79

            X509v3 Extended Key Usage: 
                TLS Web Client Authentication
            X509v3 Key Usage: 
                Digital Signature
    Signature Algorithm: sha1WithRSAEncryption
         40:8c:3c:9e:af:65:90:77:e7:87:07:f9:75:08:8c:43:4d:94:
         e2:8c:a9:72:6c:af:06:6e:af:e3:5a:21:08:d0:bc:7f:a2:c7:
         95:91:d1:49:79:50:43:95:1d:55:1a:d8:4f:39:c7:a8:b1:b6:
         20:9d:7a:d7:0d:93:f5:8c:53:23:08:58:a8:e9:62:8c:d9:bb:
         05:cf:84:9d:fa:a8:30:41:ea:e2:81:38:ba:ba:a2:c0:ea:ab:
         e5:6f:1e:9b:ae:bf:2a:79:96:58:c0:6e:95:dd:ee:6f:68:d5:
         43:30:7d:5f:29:6d:69:65:0f:f2:61:73:74:3d:4f:07:9b:62:
         9f:73:98:65:50:af:65:eb:00:be:f4:9d:ba:18:e3:0a:73:ea:
         1b:5e:68:3d:c3:c6:80:46:11:67:8f:aa:04:39:41:17:08:b5:
         b8:20:97:8e:94:b6:65:8e:92:96:76:5a:57:d7:e2:54:de:c9:
         ff:b0:fe:af:1a:62:1a:3c:7d:13:2d:30:8d:d8:8b:f6:11:1c:
         8e:dd:38:4c:48:87:63:0c:90:20:01:d1:83:21:cb:10:fc:ba:
         2b:d1:95:60:1b:74:a3:96:50:b3:9d:8e:23:93:45:fc:92:c9:
         3c:b5:6c:a1:d8:25:37:97:9e:1a:3c:dc:93:cc:6d:a3:b3:f8:
         cf:3e:44:10:eb:9f:1b:49:c9:50:c9:09:94:b6:df:3e:10:31:
         52:35:41:68:10:b3:a6:15:f9:5f:ce:64:f1:7d:a4:19:ff:80:
         cf:2f:41:15:0c:62:95:b3:44:af:75:85:db:f7:63:9d:11:bb:
         42:95:fe:2d:65:37:bb:91:b2:73:e9:11:0c:19:fc:f0:bb:65:
         11:70:a1:2d:9b:96:0a:cd:80:4e:cd:1f:69:bb:ae:05:99:22:
         41:7f:30:6c:2f:bb:a8:32:24:9e:0f:cb:52:c1:5a:e8:b5:58:
         92:21:d7:b9:75:f3:2d:67:b3:9c:78:93:61:02:11:50:76:ac:
         65:01:9a:7e:68:a8:26:59:2d:c3:1a:37:1f:74:b5:b7:ef:36:
         d4:d9:7f:ae:46:1b:5e:5f:b7:6a:f4:32:63:9c:ae:97:44:49:
         3c:e4:14:f4:3a:bf:fd:0b:e8:c3:0d:c8:97:c2:6a:04:80:c8:
         21:91:43:0d:0e:4b:35:3b:22:f7:d2:62:76:02:74:f9:2e:26:
         4b:63:b0:88:8b:e9:1f:63:7b:61:9c:3a:dd:65:64:6c:76:0d:
         f1:d4:d1:8a:a8:78:0b:5f:03:26:2f:34:cb:df:c2:c2:3d:5a:
         7e:56:83:6e:63:a1:da:fe:d0:58:ba:5c:ed:62:7f:d9:18:06:
         52:be:b7:75:4d:3f:e3:06
-----BEGIN CERTIFICATE-----
MIIHSDCCBTCgAwIBAgICAocwDQYJKoZIhvcNAQEFBQAwgbQxCzAJBgNVBAYTAlVT
MQswCQYDVQQIEwJDQTEVMBMGA1UEBxMMU2FuRnJhbmNpc2NvMRUwEwYDVQQKEwxQ
aXhnbG8sIEluYy4xEDAOBgNVBAsTB1ZQTi1DSUUxGjAYBgNVBAMTEXR1bm5lbC5w
aXhnbG8uY29tMRwwGgYDVQQpExNCYWxhIENoYW5kcmFzZWthcmFuMR4wHAYJKoZI
hvcNAQkBFg9iYWxhQHBpeGdsby5jb20wHhcNMTgwMjE0MDYzOTE2WhcNMjgwMjEy
MDYzOTE2WjCBqTELMAkGA1UEBhMCVVMxCzAJBgNVBAgTAkNBMRUwEwYDVQQHEwxT
YW5GcmFuY2lzY28xFTATBgNVBAoTDFBpeGdsbywgSW5jLjEQMA4GA1UECxMHVlBO
LUNJRTEPMA0GA1UEAxMGY2llNjQ2MRwwGgYDVQQpExNCYWxhIENoYW5kcmFzZWth
cmFuMR4wHAYJKoZIhvcNAQkBFg9iYWxhQHBpeGdsby5jb20wggIiMA0GCSqGSIb3
DQEBAQUAA4ICDwAwggIKAoICAQC/NrsMjJqkBOJFQynFyomKUmn7r6Z/TFlt8RMa
LZO+hXdHs2VO3tmw5CbZfKTTqta38hyvytpkOYVVlkUAKhXYF/neCpjcOaIeMwjg
CtCcy/3RpwciFIFy8f89PsUpN/IUiSAmNFtFugS6I5DxXprGkTyk1+Y+GpXHzgfw
y3AwSO53jOtrK2MNhlk711AIWq8EdxzKwkoaBSHU1GtURlQ+UEbIz/utqQKpLysk
T3146k7W3/1UQmmGk75NAC3DirnqGN9FtR5hewvf9dtotsFN1DoVoONhkAXZDvIb
lBEt3WQSsYK1HOh0/U7sMrDom9QxfWV75d0KVVk1w9qdP/u0dAS+JhTlRMOgSiK0
ALyYfSUgHlN/cnlaBnM8el0N4iUsbgY5xBHBJvcc0mbtSxTNT/K9Kew/bavX9KQM
KSXDQqDwRipmO8qH2tr7OaSgsO6TAVRnpNn48nuu6Rx2fk8CHxbQ78LsVY9zfcDA
FTxYpob5TqwWb+2Aj5MQ4pn1nuILh0mwJ1mdEEPvJrFDWL5ny+WniVmaMvK2OOK3
7TzT4GsO0aYzP4DjdCT8td4Xoj82x79uySmqnxFUpFOcad1A+Zq8/va30NAepWt0
rDhuK5Mck2qqWHs+vmGEDwt7/TquSNZaVZJMuPHNB1RTGrQhwUNDLZhxT/J32Rth
kKFSjwIDAQABo4IBazCCAWcwCQYDVR0TBAIwADAtBglghkgBhvhCAQ0EIBYeRWFz
eS1SU0EgR2VuZXJhdGVkIENlcnRpZmljYXRlMB0GA1UdDgQWBBRqge83BlrlCkH8
pmdXUdrkK92T7jCB6QYDVR0jBIHhMIHegBTvOI0UUFinW02cF3L837msp1GwEKGB
uqSBtzCBtDELMAkGA1UEBhMCVVMxCzAJBgNVBAgTAkNBMRUwEwYDVQQHEwxTYW5G
cmFuY2lzY28xFTATBgNVBAoTDFBpeGdsbywgSW5jLjEQMA4GA1UECxMHVlBOLUNJ
RTEaMBgGA1UEAxMRdHVubmVsLnBpeGdsby5jb20xHDAaBgNVBCkTE0JhbGEgQ2hh
bmRyYXNla2FyYW4xHjAcBgkqhkiG9w0BCQEWD2JhbGFAcGl4Z2xvLmNvbYIJAKbb
xoOA5qB5MBMGA1UdJQQMMAoGCCsGAQUFBwMCMAsGA1UdDwQEAwIHgDANBgkqhkiG
9w0BAQUFAAOCAgEAQIw8nq9lkHfnhwf5dQiMQ02U4oypcmyvBm6v41ohCNC8f6LH
lZHRSXlQQ5UdVRrYTznHqLG2IJ161w2T9YxTIwhYqOlijNm7Bc+EnfqoMEHq4oE4
urqiwOqr5W8em66/KnmWWMBuld3ub2jVQzB9XyltaWUP8mFzdD1PB5tin3OYZVCv
ZesAvvSduhjjCnPqG15oPcPGgEYRZ4+qBDlBFwi1uCCXjpS2ZY6SlnZaV9fiVN7J
/7D+rxpiGjx9Ey0wjdiL9hEcjt04TEiHYwyQIAHRgyHLEPy6K9GVYBt0o5ZQs52O
I5NF/JLJPLVsodglN5eeGjzck8xto7P4zz5EEOufG0nJUMkJlLbfPhAxUjVBaBCz
phX5X85k8X2kGf+Azy9BFQxilbNEr3WF2/djnRG7QpX+LWU3u5Gyc+kRDBn88Ltl
EXChLZuWCs2ATs0fabuuBZkiQX8wbC+7qDIkng/LUsFa6LVYkiHXuXXzLWeznHiT
YQIRUHasZQGafmioJlktwxo3H3S1t+821Nl/rkYbXl+3avQyY5yul0RJPOQU9Dq/
/Qvoww3Il8JqBIDIIZFDDQ5LNTsi99JidgJ0+S4mS2OwiIvpH2N7YZw63WVkbHYN
8dTRiqh4C18DJi80y9/Cwj1aflaDbmOh2v7QWLpc7WJ/2RgGUr63dU0/4wY=
-----END CERTIFICATE-----
