Certificate:
    Data:
        Version: 3 (0x2)
        Serial Number: 648 (0x288)
    Signature Algorithm: sha1WithRSAEncryption
        Issuer: C=US, ST=CA, L=SanFrancisco, O=Pixglo, Inc., OU=VPN-CIE, CN=tunnel.pixglo.com/name=Bala Chandrasekaran/emailAddress=bala@pixglo.com
        Validity
            Not Before: Feb 14 06:39:22 2018 GMT
            Not After : Feb 12 06:39:22 2028 GMT
        Subject: C=US, ST=CA, L=SanFrancisco, O=Pixglo, Inc., OU=VPN-CIE, CN=cie647/name=Bala Chandrasekaran/emailAddress=bala@pixglo.com
        Subject Public Key Info:
            Public Key Algorithm: rsaEncryption
                Public-Key: (4096 bit)
                Modulus:
                    00:d7:25:a4:40:d6:fc:fd:2a:41:68:d5:cb:bd:52:
                    10:11:f2:35:ca:48:af:3a:6a:f7:f7:ad:03:a4:37:
                    e8:d2:46:c9:be:ef:8d:9d:90:56:3f:f3:18:6e:63:
                    62:02:a4:23:80:44:14:e9:09:f6:88:ba:b8:95:4a:
                    6e:df:52:e2:94:06:70:5f:27:9f:e9:f4:2e:fd:eb:
                    b0:40:ed:f7:db:e4:dd:66:21:c4:f9:fd:97:b7:82:
                    75:9d:f4:55:e9:04:ad:11:bd:c8:a9:2c:74:e3:f4:
                    1a:15:4e:e6:61:f7:41:c3:44:ef:d5:0d:67:2f:3e:
                    66:cc:be:73:4a:30:2b:7f:ee:70:42:86:32:2c:f2:
                    02:30:97:64:dc:e4:76:8a:68:a8:f9:4c:18:9e:61:
                    87:e0:6c:52:9c:88:22:f4:82:53:f0:d1:65:8f:67:
                    67:b9:ff:8e:70:9d:7c:f2:01:83:ef:a2:4a:ce:90:
                    c7:a3:86:ad:2c:4c:9d:d7:1b:29:3a:6e:9f:1f:d7:
                    f1:fa:fe:6f:f5:55:91:b0:b7:a6:90:9b:08:1f:60:
                    ed:24:d0:92:ed:c1:0e:af:6b:b5:f6:21:7d:69:a0:
                    a7:b1:e0:49:25:a5:bc:8b:39:41:d5:9a:ea:e0:3d:
                    e0:bf:cf:d9:0c:11:84:5b:92:a8:56:8c:ce:de:34:
                    99:1e:44:26:95:2a:f0:ab:0f:b0:d4:22:d7:9c:bf:
                    f9:d1:2d:77:86:06:1c:71:1e:a4:05:f7:b0:ff:b9:
                    2c:d8:a4:6b:d6:82:09:a6:39:af:8f:c8:00:97:f7:
                    8e:f1:18:4f:ad:3b:a6:aa:b9:1c:4a:2a:90:7c:ff:
                    91:8e:bd:69:48:06:8e:d5:1a:03:2c:68:2b:ab:6a:
                    46:a1:c2:e5:08:94:8b:95:03:54:37:d0:73:06:29:
                    31:26:4b:51:83:c8:5d:6b:b0:29:06:d0:f5:7c:f1:
                    94:3e:77:c2:89:be:94:b8:f5:8f:18:2e:41:30:f7:
                    5a:d6:e1:b5:38:3d:72:af:a0:81:2f:3c:77:88:91:
                    9e:1d:ae:4c:53:ed:05:93:d7:44:e0:77:d6:aa:a6:
                    38:0c:ea:6b:10:f8:93:1a:d9:51:91:ef:f7:d0:13:
                    6d:59:2d:de:2b:56:44:0b:c2:29:7a:d2:99:37:2d:
                    71:d8:b5:45:c2:05:2f:d5:63:c2:49:98:48:37:a2:
                    dd:b3:ec:b8:d7:2f:2f:ce:71:86:70:e7:45:5d:51:
                    b0:4f:dc:32:8b:ea:f7:d6:79:bc:1d:9a:51:a2:d4:
                    03:3c:a5:f0:6e:45:49:fe:a4:20:6b:25:9b:5e:d9:
                    a4:d0:8f:86:1c:a6:85:33:10:4c:52:60:bf:61:85:
                    c7:27:31
                Exponent: 65537 (0x10001)
        X509v3 extensions:
            X509v3 Basic Constraints: 
                CA:FALSE
            Netscape Comment: 
                Easy-RSA Generated Certificate
            X509v3 Subject Key Identifier: 
                8C:67:22:4E:E5:56:DB:1F:BA:BB:B0:DD:4A:19:02:34:A3:1F:8C:BD
            X509v3 Authority Key Identifier: 
                keyid:EF:38:8D:14:50:58:A7:5B:4D:9C:17:72:FC:DF:B9:AC:A7:51:B0:10
                DirName:/C=US/ST=CA/L=SanFrancisco/O=Pixglo, Inc./OU=VPN-CIE/CN=tunnel.pixglo.com/name=Bala Chandrasekaran/emailAddress=bala@pixglo.com
                serial:A6:DB:C6:83:80:E6:A0:79

            X509v3 Extended Key Usage: 
                TLS Web Client Authentication
            X509v3 Key Usage: 
                Digital Signature
    Signature Algorithm: sha1WithRSAEncryption
         38:f4:8b:b2:6f:1a:c4:31:b6:d6:82:33:99:83:6c:f4:fd:5d:
         79:35:c9:a9:cd:88:3f:19:8a:80:de:bd:9f:60:16:fc:bf:65:
         6a:b9:42:4d:2c:07:41:38:31:fe:7b:3c:a6:31:ce:29:e4:59:
         eb:37:d6:93:ac:08:c2:fa:1b:48:64:24:a4:84:e6:c5:b4:8a:
         27:0f:fd:04:05:d9:3d:e6:12:76:b7:ae:7c:cc:e6:48:7f:fd:
         2f:3a:e9:42:8c:3d:9b:8e:86:40:10:37:a8:53:af:ef:5f:e8:
         71:7a:38:ee:f6:33:d1:66:e2:ab:28:20:eb:be:59:35:56:8f:
         7e:aa:f3:aa:9f:c8:1f:80:04:fc:23:0d:45:5d:61:4b:d3:30:
         6c:6c:25:55:1e:6a:5e:00:90:2a:b2:08:b2:d7:6a:dd:39:cb:
         ff:a5:62:90:d1:1d:7a:7f:76:1f:5d:74:32:80:d3:f7:db:c3:
         19:92:ac:9f:0f:05:3b:c7:b4:ab:42:4b:f5:13:d9:e3:33:87:
         71:8f:70:b2:06:a6:da:0a:cc:65:d6:51:1d:64:f5:66:2c:60:
         00:4d:05:9e:6a:a8:bd:cd:a1:7c:96:c4:61:c2:8b:69:d1:3e:
         f2:fd:42:49:45:5f:f4:3c:e2:b8:89:df:19:cc:d9:bb:00:30:
         b3:d5:f6:69:e1:b4:59:6b:db:65:c0:19:fd:7d:f8:c1:43:21:
         d1:59:02:f4:2d:e2:61:2d:95:36:95:b2:55:e7:82:2a:00:25:
         61:4b:ee:9d:29:1f:7f:59:ad:1e:49:d8:a8:7e:d2:ae:a0:99:
         b9:f2:ed:50:f6:78:dd:c7:c3:b8:64:d3:f2:23:63:d4:1c:45:
         b3:7a:9c:57:e1:2b:f5:be:f5:8a:65:94:8b:59:10:23:8f:75:
         dd:09:90:91:c3:86:4d:bf:4e:e0:71:df:ef:ba:2c:84:42:e6:
         3e:5a:9c:3e:c6:61:db:5b:17:45:0e:e5:1d:56:da:fc:10:f4:
         b3:88:03:9d:19:cb:e5:eb:9b:4b:41:96:49:cd:5f:0b:4d:98:
         15:46:e6:42:15:1c:39:51:50:0e:c7:c8:05:1b:af:07:93:14:
         ff:86:83:97:69:5a:d7:35:49:18:2a:b4:a9:55:f5:79:cf:30:
         e2:4b:f7:89:31:60:06:a5:60:eb:2f:bd:e8:6d:e2:dc:3e:c8:
         f3:dc:4c:dc:5d:f0:5f:e9:b6:21:5d:e4:a2:aa:0d:65:ff:3a:
         8c:9b:55:d4:fa:c7:23:4b:02:37:a8:15:94:01:87:38:78:ae:
         40:3c:db:5a:5a:b2:34:ac:e4:b3:b9:ee:dd:42:ce:1d:e0:45:
         2d:53:59:8a:f9:11:18:39
-----BEGIN CERTIFICATE-----
MIIHSDCCBTCgAwIBAgICAogwDQYJKoZIhvcNAQEFBQAwgbQxCzAJBgNVBAYTAlVT
MQswCQYDVQQIEwJDQTEVMBMGA1UEBxMMU2FuRnJhbmNpc2NvMRUwEwYDVQQKEwxQ
aXhnbG8sIEluYy4xEDAOBgNVBAsTB1ZQTi1DSUUxGjAYBgNVBAMTEXR1bm5lbC5w
aXhnbG8uY29tMRwwGgYDVQQpExNCYWxhIENoYW5kcmFzZWthcmFuMR4wHAYJKoZI
hvcNAQkBFg9iYWxhQHBpeGdsby5jb20wHhcNMTgwMjE0MDYzOTIyWhcNMjgwMjEy
MDYzOTIyWjCBqTELMAkGA1UEBhMCVVMxCzAJBgNVBAgTAkNBMRUwEwYDVQQHEwxT
YW5GcmFuY2lzY28xFTATBgNVBAoTDFBpeGdsbywgSW5jLjEQMA4GA1UECxMHVlBO
LUNJRTEPMA0GA1UEAxMGY2llNjQ3MRwwGgYDVQQpExNCYWxhIENoYW5kcmFzZWth
cmFuMR4wHAYJKoZIhvcNAQkBFg9iYWxhQHBpeGdsby5jb20wggIiMA0GCSqGSIb3
DQEBAQUAA4ICDwAwggIKAoICAQDXJaRA1vz9KkFo1cu9UhAR8jXKSK86avf3rQOk
N+jSRsm+742dkFY/8xhuY2ICpCOARBTpCfaIuriVSm7fUuKUBnBfJ5/p9C7967BA
7ffb5N1mIcT5/Ze3gnWd9FXpBK0RvcipLHTj9BoVTuZh90HDRO/VDWcvPmbMvnNK
MCt/7nBChjIs8gIwl2Tc5HaKaKj5TBieYYfgbFKciCL0glPw0WWPZ2e5/45wnXzy
AYPvokrOkMejhq0sTJ3XGyk6bp8f1/H6/m/1VZGwt6aQmwgfYO0k0JLtwQ6va7X2
IX1poKex4EklpbyLOUHVmurgPeC/z9kMEYRbkqhWjM7eNJkeRCaVKvCrD7DUItec
v/nRLXeGBhxxHqQF97D/uSzYpGvWggmmOa+PyACX947xGE+tO6aquRxKKpB8/5GO
vWlIBo7VGgMsaCurakahwuUIlIuVA1Q30HMGKTEmS1GDyF1rsCkG0PV88ZQ+d8KJ
vpS49Y8YLkEw91rW4bU4PXKvoIEvPHeIkZ4drkxT7QWT10Tgd9aqpjgM6msQ+JMa
2VGR7/fQE21ZLd4rVkQLwil60pk3LXHYtUXCBS/VY8JJmEg3ot2z7LjXLy/OcYZw
50VdUbBP3DKL6vfWebwdmlGi1AM8pfBuRUn+pCBrJZte2aTQj4YcpoUzEExSYL9h
hccnMQIDAQABo4IBazCCAWcwCQYDVR0TBAIwADAtBglghkgBhvhCAQ0EIBYeRWFz
eS1SU0EgR2VuZXJhdGVkIENlcnRpZmljYXRlMB0GA1UdDgQWBBSMZyJO5VbbH7q7
sN1KGQI0ox+MvTCB6QYDVR0jBIHhMIHegBTvOI0UUFinW02cF3L837msp1GwEKGB
uqSBtzCBtDELMAkGA1UEBhMCVVMxCzAJBgNVBAgTAkNBMRUwEwYDVQQHEwxTYW5G
cmFuY2lzY28xFTATBgNVBAoTDFBpeGdsbywgSW5jLjEQMA4GA1UECxMHVlBOLUNJ
RTEaMBgGA1UEAxMRdHVubmVsLnBpeGdsby5jb20xHDAaBgNVBCkTE0JhbGEgQ2hh
bmRyYXNla2FyYW4xHjAcBgkqhkiG9w0BCQEWD2JhbGFAcGl4Z2xvLmNvbYIJAKbb
xoOA5qB5MBMGA1UdJQQMMAoGCCsGAQUFBwMCMAsGA1UdDwQEAwIHgDANBgkqhkiG
9w0BAQUFAAOCAgEAOPSLsm8axDG21oIzmYNs9P1deTXJqc2IPxmKgN69n2AW/L9l
arlCTSwHQTgx/ns8pjHOKeRZ6zfWk6wIwvobSGQkpITmxbSKJw/9BAXZPeYSdreu
fMzmSH/9LzrpQow9m46GQBA3qFOv71/ocXo47vYz0Wbiqygg675ZNVaPfqrzqp/I
H4AE/CMNRV1hS9MwbGwlVR5qXgCQKrIIstdq3TnL/6VikNEden92H110MoDT99vD
GZKsnw8FO8e0q0JL9RPZ4zOHcY9wsgam2grMZdZRHWT1ZixgAE0Fnmqovc2hfJbE
YcKLadE+8v1CSUVf9DziuInfGczZuwAws9X2aeG0WWvbZcAZ/X34wUMh0VkC9C3i
YS2VNpWyVeeCKgAlYUvunSkff1mtHknYqH7SrqCZufLtUPZ43cfDuGTT8iNj1BxF
s3qcV+Er9b71imWUi1kQI4913QmQkcOGTb9O4HHf77oshELmPlqcPsZh21sXRQ7l
HVba/BD0s4gDnRnL5eubS0GWSc1fC02YFUbmQhUcOVFQDsfIBRuvB5MU/4aDl2la
1zVJGCq0qVX1ec8w4kv3iTFgBqVg6y+96G3i3D7I89xM3F3wX+m2IV3koqoNZf86
jJtV1PrHI0sCN6gVlAGHOHiuQDzbWlqyNKzks7nu3ULOHeBFLVNZivkRGDk=
-----END CERTIFICATE-----
