Certificate:
    Data:
        Version: 3 (0x2)
        Serial Number: 650 (0x28a)
    Signature Algorithm: sha1WithRSAEncryption
        Issuer: C=US, ST=CA, L=SanFrancisco, O=Pixglo, Inc., OU=VPN-CIE, CN=tunnel.pixglo.com/name=Bala Chandrasekaran/emailAddress=bala@pixglo.com
        Validity
            Not Before: Feb 14 06:39:28 2018 GMT
            Not After : Feb 12 06:39:28 2028 GMT
        Subject: C=US, ST=CA, L=SanFrancisco, O=Pixglo, Inc., OU=VPN-CIE, CN=cie649/name=Bala Chandrasekaran/emailAddress=bala@pixglo.com
        Subject Public Key Info:
            Public Key Algorithm: rsaEncryption
                Public-Key: (4096 bit)
                Modulus:
                    00:da:2b:65:7d:2d:b4:a7:a5:69:3f:0b:d0:0a:c4:
                    55:66:81:a1:14:5f:7c:42:a9:fe:0f:14:71:0e:f8:
                    e5:50:a5:ab:2d:73:5c:4b:26:6e:69:95:3b:8e:f0:
                    f8:92:43:6e:6b:31:88:03:85:36:f0:bb:0e:a2:ed:
                    3b:66:4d:7e:53:ec:b7:5a:5d:54:58:93:28:9e:bb:
                    6d:80:35:a6:93:f4:3e:2e:cb:dd:19:6c:69:7c:cf:
                    96:58:24:22:be:49:fc:d9:7c:9a:0f:e0:8f:7e:31:
                    d6:2d:b7:2e:36:f6:fe:bb:a6:1b:b3:c6:26:3a:73:
                    a2:2e:cf:a1:ef:36:8d:cf:96:be:29:29:a2:c4:3f:
                    4f:e3:06:c3:74:7e:2c:1e:c4:60:be:24:59:84:df:
                    75:4b:34:67:5f:9d:31:42:b2:74:7b:80:32:5d:0f:
                    1a:c4:61:ad:86:e5:46:2b:ee:fb:68:b9:32:cd:9b:
                    69:47:83:82:a8:3b:0c:c6:39:67:d2:85:42:84:63:
                    07:c2:bc:60:5c:69:94:30:22:e3:ef:1f:2f:0a:ab:
                    91:11:eb:e7:dc:14:dd:81:b2:56:6b:42:f5:73:08:
                    84:a8:6c:11:87:3e:72:67:51:1d:72:63:60:a8:90:
                    88:12:64:c4:09:f8:7a:a8:b9:e5:5c:ef:8d:16:72:
                    58:48:a7:77:1a:55:8a:0d:7b:d7:27:0f:96:1b:9d:
                    44:fe:e2:77:12:6c:fd:89:d9:52:20:39:f1:fa:95:
                    93:fa:53:36:e9:e8:02:50:96:b3:2c:e5:8c:41:80:
                    0a:49:f4:64:81:b3:1c:1c:b9:e2:df:e1:fd:ac:14:
                    da:3e:f6:ce:1f:9f:f4:28:4a:a1:5e:71:6e:7a:b4:
                    86:af:81:4d:18:f6:c1:06:91:44:60:1f:34:37:5e:
                    17:49:98:3f:d0:9e:ed:71:bd:18:53:43:4f:02:29:
                    12:77:b6:9d:a3:6e:34:9c:5c:2a:5c:f3:f5:50:0c:
                    17:70:a4:24:c9:6c:2a:19:88:c0:f0:03:4a:44:79:
                    66:83:af:13:02:ca:84:d2:cb:e6:19:50:96:6d:6f:
                    a9:62:67:de:af:99:31:f7:71:5c:9b:c7:73:5e:83:
                    29:c9:13:84:c5:a7:ad:ca:9d:11:0d:c2:6b:3e:7d:
                    6f:e9:a2:eb:bd:9a:ca:f0:1c:2b:71:7b:8d:b6:fd:
                    6d:5d:82:79:a1:43:02:16:6b:88:71:9f:e4:07:1b:
                    a8:d2:bc:fe:87:cc:09:34:13:1f:f0:cc:96:96:62:
                    fb:82:47:81:2b:df:41:5e:57:b4:9e:2e:1a:1a:e3:
                    0c:e0:81:2e:a7:35:9b:58:73:8d:df:bf:15:4c:31:
                    03:d5:11
                Exponent: 65537 (0x10001)
        X509v3 extensions:
            X509v3 Basic Constraints: 
                CA:FALSE
            Netscape Comment: 
                Easy-RSA Generated Certificate
            X509v3 Subject Key Identifier: 
                40:46:5A:0F:1D:B5:6E:83:C9:8A:B9:EB:FD:E3:03:4A:7D:C8:D7:E3
            X509v3 Authority Key Identifier: 
                keyid:EF:38:8D:14:50:58:A7:5B:4D:9C:17:72:FC:DF:B9:AC:A7:51:B0:10
                DirName:/C=US/ST=CA/L=SanFrancisco/O=Pixglo, Inc./OU=VPN-CIE/CN=tunnel.pixglo.com/name=Bala Chandrasekaran/emailAddress=bala@pixglo.com
                serial:A6:DB:C6:83:80:E6:A0:79

            X509v3 Extended Key Usage: 
                TLS Web Client Authentication
            X509v3 Key Usage: 
                Digital Signature
    Signature Algorithm: sha1WithRSAEncryption
         bb:62:fd:70:4c:09:26:5a:02:40:e8:ad:8a:70:64:77:94:66:
         16:11:85:d2:28:08:18:ad:4f:4f:6e:8d:9e:e7:38:e9:d8:a5:
         e6:bb:c8:57:78:08:94:a6:16:ce:87:cc:a8:33:c4:9d:c5:4d:
         16:d4:e3:b5:ce:f2:63:89:a1:10:dc:71:ce:0e:f2:8b:4a:a9:
         c9:0b:1e:58:16:81:e1:0a:68:20:c4:c9:3e:92:a4:e1:ea:35:
         bd:04:07:bb:51:61:60:4b:79:35:56:1a:50:50:43:4f:ae:ca:
         20:36:85:ff:38:47:db:88:05:f6:f2:1c:c8:0b:97:cd:15:ac:
         19:e3:86:85:4a:ba:10:d1:b2:00:c3:7a:fb:81:c6:c0:4c:0a:
         a7:07:2c:1c:de:56:a9:f5:60:30:c7:72:70:63:09:72:d9:8b:
         f0:76:5a:6c:a5:ef:fb:89:c4:b5:21:15:cb:4c:44:37:62:51:
         ae:6a:53:1c:23:45:19:d8:f3:71:98:40:ae:48:89:fe:5a:55:
         f8:60:70:58:85:ef:38:4e:88:5d:cc:24:6e:23:3c:b1:e3:f8:
         7d:3b:ff:74:e9:ee:a7:d5:25:03:0b:30:f9:be:65:31:98:23:
         f2:ea:02:99:dc:d9:b8:56:01:b4:a8:57:38:e0:27:6d:08:9e:
         c8:37:5c:e8:df:9c:4c:62:a1:22:c3:e8:0d:37:a8:aa:3a:b1:
         ea:88:af:cc:0a:99:86:49:2f:c2:45:ec:f9:6d:e6:75:af:96:
         66:54:f3:fa:2a:69:a9:83:ed:3a:59:51:6c:c4:13:a3:47:c5:
         17:69:29:71:4a:03:ef:7c:40:ed:a3:52:f2:a5:69:0b:e2:7e:
         db:1b:77:4d:cd:97:da:7f:de:19:57:39:b4:d2:43:e0:39:d5:
         08:3a:81:61:97:8c:75:f4:57:96:ef:19:c1:46:0d:61:e7:e7:
         5d:a4:17:34:87:c6:f8:8e:8f:ce:c0:85:f9:88:ff:13:c4:59:
         96:80:05:11:ad:26:39:0a:04:29:19:06:89:1d:76:93:a2:7c:
         48:d0:94:e4:65:79:67:0c:7b:ca:64:bd:07:87:38:68:45:2f:
         96:8e:8d:67:f8:59:e2:b2:e2:91:ca:48:55:e4:b9:46:67:c9:
         b5:79:0e:30:f8:36:87:aa:02:2e:48:84:c8:dc:84:ef:5d:08:
         e8:9d:74:eb:55:be:70:79:02:0a:07:d7:00:ae:f2:4e:e6:ab:
         2f:c2:2d:43:2e:52:a0:47:67:1e:22:ba:25:d6:fc:9a:2b:c6:
         d5:44:8c:b1:30:ad:6d:79:21:7b:fa:0a:c5:ad:cc:64:39:59:
         8e:26:7a:9e:32:35:7c:67
-----BEGIN CERTIFICATE-----
MIIHSDCCBTCgAwIBAgICAoowDQYJKoZIhvcNAQEFBQAwgbQxCzAJBgNVBAYTAlVT
MQswCQYDVQQIEwJDQTEVMBMGA1UEBxMMU2FuRnJhbmNpc2NvMRUwEwYDVQQKEwxQ
aXhnbG8sIEluYy4xEDAOBgNVBAsTB1ZQTi1DSUUxGjAYBgNVBAMTEXR1bm5lbC5w
aXhnbG8uY29tMRwwGgYDVQQpExNCYWxhIENoYW5kcmFzZWthcmFuMR4wHAYJKoZI
hvcNAQkBFg9iYWxhQHBpeGdsby5jb20wHhcNMTgwMjE0MDYzOTI4WhcNMjgwMjEy
MDYzOTI4WjCBqTELMAkGA1UEBhMCVVMxCzAJBgNVBAgTAkNBMRUwEwYDVQQHEwxT
YW5GcmFuY2lzY28xFTATBgNVBAoTDFBpeGdsbywgSW5jLjEQMA4GA1UECxMHVlBO
LUNJRTEPMA0GA1UEAxMGY2llNjQ5MRwwGgYDVQQpExNCYWxhIENoYW5kcmFzZWth
cmFuMR4wHAYJKoZIhvcNAQkBFg9iYWxhQHBpeGdsby5jb20wggIiMA0GCSqGSIb3
DQEBAQUAA4ICDwAwggIKAoICAQDaK2V9LbSnpWk/C9AKxFVmgaEUX3xCqf4PFHEO
+OVQpastc1xLJm5plTuO8PiSQ25rMYgDhTbwuw6i7TtmTX5T7LdaXVRYkyieu22A
NaaT9D4uy90ZbGl8z5ZYJCK+SfzZfJoP4I9+MdYtty429v67phuzxiY6c6Iuz6Hv
No3Plr4pKaLEP0/jBsN0fiwexGC+JFmE33VLNGdfnTFCsnR7gDJdDxrEYa2G5UYr
7vtouTLNm2lHg4KoOwzGOWfShUKEYwfCvGBcaZQwIuPvHy8Kq5ER6+fcFN2BslZr
QvVzCISobBGHPnJnUR1yY2CokIgSZMQJ+HqoueVc740WclhIp3caVYoNe9cnD5Yb
nUT+4ncSbP2J2VIgOfH6lZP6Uzbp6AJQlrMs5YxBgApJ9GSBsxwcueLf4f2sFNo+
9s4fn/QoSqFecW56tIavgU0Y9sEGkURgHzQ3XhdJmD/Qnu1xvRhTQ08CKRJ3tp2j
bjScXCpc8/VQDBdwpCTJbCoZiMDwA0pEeWaDrxMCyoTSy+YZUJZtb6liZ96vmTH3
cVybx3NegynJE4TFp63KnRENwms+fW/pouu9msrwHCtxe422/W1dgnmhQwIWa4hx
n+QHG6jSvP6HzAk0Ex/wzJaWYvuCR4Er30FeV7SeLhoa4wzggS6nNZtYc43fvxVM
MQPVEQIDAQABo4IBazCCAWcwCQYDVR0TBAIwADAtBglghkgBhvhCAQ0EIBYeRWFz
eS1SU0EgR2VuZXJhdGVkIENlcnRpZmljYXRlMB0GA1UdDgQWBBRARloPHbVug8mK
uev94wNKfcjX4zCB6QYDVR0jBIHhMIHegBTvOI0UUFinW02cF3L837msp1GwEKGB
uqSBtzCBtDELMAkGA1UEBhMCVVMxCzAJBgNVBAgTAkNBMRUwEwYDVQQHEwxTYW5G
cmFuY2lzY28xFTATBgNVBAoTDFBpeGdsbywgSW5jLjEQMA4GA1UECxMHVlBOLUNJ
RTEaMBgGA1UEAxMRdHVubmVsLnBpeGdsby5jb20xHDAaBgNVBCkTE0JhbGEgQ2hh
bmRyYXNla2FyYW4xHjAcBgkqhkiG9w0BCQEWD2JhbGFAcGl4Z2xvLmNvbYIJAKbb
xoOA5qB5MBMGA1UdJQQMMAoGCCsGAQUFBwMCMAsGA1UdDwQEAwIHgDANBgkqhkiG
9w0BAQUFAAOCAgEAu2L9cEwJJloCQOitinBkd5RmFhGF0igIGK1PT26Nnuc46dil
5rvIV3gIlKYWzofMqDPEncVNFtTjtc7yY4mhENxxzg7yi0qpyQseWBaB4QpoIMTJ
PpKk4eo1vQQHu1FhYEt5NVYaUFBDT67KIDaF/zhH24gF9vIcyAuXzRWsGeOGhUq6
ENGyAMN6+4HGwEwKpwcsHN5WqfVgMMdycGMJctmL8HZabKXv+4nEtSEVy0xEN2JR
rmpTHCNFGdjzcZhArkiJ/lpV+GBwWIXvOE6IXcwkbiM8seP4fTv/dOnup9UlAwsw
+b5lMZgj8uoCmdzZuFYBtKhXOOAnbQieyDdc6N+cTGKhIsPoDTeoqjqx6oivzAqZ
hkkvwkXs+W3mda+WZlTz+ippqYPtOllRbMQTo0fFF2kpcUoD73xA7aNS8qVpC+J+
2xt3Tc2X2n/eGVc5tNJD4DnVCDqBYZeMdfRXlu8ZwUYNYefnXaQXNIfG+I6PzsCF
+Yj/E8RZloAFEa0mOQoEKRkGiR12k6J8SNCU5GV5Zwx7ymS9B4c4aEUvlo6NZ/hZ
4rLikcpIVeS5RmfJtXkOMPg2h6oCLkiEyNyE710I6J1061W+cHkCCgfXAK7yTuar
L8ItQy5SoEdnHiK6Jdb8mivG1USMsTCtbXkhe/oKxa3MZDlZjiZ6njI1fGc=
-----END CERTIFICATE-----
