Certificate:
    Data:
        Version: 3 (0x2)
        Serial Number: 653 (0x28d)
    Signature Algorithm: sha1WithRSAEncryption
        Issuer: C=US, ST=CA, L=SanFrancisco, O=Pixglo, Inc., OU=VPN-CIE, CN=tunnel.pixglo.com/name=Bala Chandrasekaran/emailAddress=bala@pixglo.com
        Validity
            Not Before: Feb 14 06:39:30 2018 GMT
            Not After : Feb 12 06:39:30 2028 GMT
        Subject: C=US, ST=CA, L=SanFrancisco, O=Pixglo, Inc., OU=VPN-CIE, CN=cie652/name=Bala Chandrasekaran/emailAddress=bala@pixglo.com
        Subject Public Key Info:
            Public Key Algorithm: rsaEncryption
                Public-Key: (4096 bit)
                Modulus:
                    00:bb:ae:6f:1a:ff:43:39:c1:50:40:e7:05:b0:42:
                    46:21:c9:fa:3e:16:08:fa:9d:64:f0:dd:0b:37:84:
                    98:15:ef:bf:83:b7:89:98:9b:34:4f:3e:27:66:c0:
                    fb:61:c2:78:16:77:c6:e2:ed:30:1c:f1:fd:a0:a7:
                    60:a4:bf:ea:b0:b1:41:64:19:80:7e:6f:88:ac:99:
                    26:a8:dd:ce:4a:48:df:2b:ae:bf:60:62:32:f1:fc:
                    09:ac:d1:65:58:5e:65:81:9e:1e:a9:36:71:af:96:
                    6b:03:01:96:03:60:37:f7:1c:e2:bd:c4:4b:f1:f8:
                    df:4f:a2:cd:09:63:56:47:e0:4f:ea:d2:0a:03:9d:
                    d4:c1:a2:46:bd:40:3f:b7:00:72:c2:a9:fe:15:b6:
                    1e:5c:ad:26:44:94:c3:76:9f:c8:45:ec:f6:18:ce:
                    28:fc:56:ea:72:bb:c2:12:9f:90:70:36:08:de:68:
                    82:33:9a:ed:46:18:8a:5e:25:2f:66:b9:bc:99:b0:
                    66:a0:bc:0f:a8:89:06:66:74:8c:29:bc:8a:8d:75:
                    18:aa:ae:68:ea:f7:a9:a0:b9:51:d0:33:9f:f9:7e:
                    58:25:5a:0d:a2:0a:e7:64:21:24:66:6b:8b:a8:99:
                    62:14:91:b0:9b:fc:c3:15:d5:2d:3e:21:13:f7:04:
                    e5:69:c7:12:31:39:64:3b:67:ab:00:07:3b:a9:ab:
                    65:9d:50:6e:1f:06:de:bc:01:1d:a7:75:41:fe:77:
                    be:df:55:9d:85:6d:01:a6:6a:3b:72:cb:a1:b9:11:
                    d2:ad:dc:75:0c:37:ee:e9:74:25:46:54:00:8c:e4:
                    59:de:80:cf:99:f7:ba:e8:88:b1:b1:eb:78:e0:a9:
                    21:c4:4b:ac:41:52:85:1b:59:98:5c:02:5e:4d:a1:
                    8b:b2:bd:c9:d3:ab:e7:47:b7:49:0e:aa:bf:01:a9:
                    86:42:ab:c5:a2:1c:0e:38:85:8f:66:64:c8:f5:41:
                    25:37:b5:4f:2c:dc:85:4e:bd:11:2a:ee:ec:d1:d5:
                    eb:01:2a:12:d7:f6:a8:89:29:25:5e:8b:96:b9:f8:
                    c2:9a:47:f4:83:ac:3c:cc:f4:b5:65:27:b9:03:86:
                    a4:31:c7:f5:7c:f3:14:88:6b:11:2a:4f:96:cc:14:
                    e2:35:40:e5:8d:7a:5d:cc:4d:61:3d:56:f9:fb:a0:
                    c7:50:88:52:9a:14:30:58:b5:75:a7:f3:63:2d:e3:
                    7b:f3:c2:31:1d:da:99:53:b1:18:00:b9:d4:3a:7b:
                    7c:ed:7b:2b:73:a5:1a:5a:f5:e5:14:0e:b1:e6:e3:
                    4f:4b:35:ec:02:38:70:ae:19:3e:b0:d3:cb:4e:d8:
                    49:88:8f
                Exponent: 65537 (0x10001)
        X509v3 extensions:
            X509v3 Basic Constraints: 
                CA:FALSE
            Netscape Comment: 
                Easy-RSA Generated Certificate
            X509v3 Subject Key Identifier: 
                31:7E:7D:6E:39:8F:48:14:A2:A3:3A:9D:C6:6F:94:09:DC:EE:59:2E
            X509v3 Authority Key Identifier: 
                keyid:EF:38:8D:14:50:58:A7:5B:4D:9C:17:72:FC:DF:B9:AC:A7:51:B0:10
                DirName:/C=US/ST=CA/L=SanFrancisco/O=Pixglo, Inc./OU=VPN-CIE/CN=tunnel.pixglo.com/name=Bala Chandrasekaran/emailAddress=bala@pixglo.com
                serial:A6:DB:C6:83:80:E6:A0:79

            X509v3 Extended Key Usage: 
                TLS Web Client Authentication
            X509v3 Key Usage: 
                Digital Signature
    Signature Algorithm: sha1WithRSAEncryption
         dc:5e:28:d0:a4:da:01:a9:95:a4:7a:fb:19:ee:a1:ef:13:5f:
         28:74:03:28:a7:1a:1c:a2:14:91:ee:40:39:c1:47:5a:0b:d9:
         17:6f:88:9c:86:f1:24:31:e0:da:7d:23:46:d7:ae:ea:34:a5:
         46:43:2d:2e:b2:c3:4c:04:b8:3a:22:25:98:f1:7d:67:60:9b:
         24:00:53:6f:4d:19:4f:06:fc:e3:37:fe:47:fa:3b:9a:e5:6c:
         52:08:97:65:63:42:74:99:99:6c:83:f3:21:de:5d:47:f9:9e:
         2c:6a:98:c8:ef:63:41:ee:53:75:bd:62:bb:d6:d4:cc:f7:ab:
         95:28:e6:8f:61:09:cf:51:37:21:bb:50:1e:03:94:c2:30:e2:
         de:1e:94:7c:db:0a:3c:48:0c:99:e6:3b:8b:56:9d:f1:74:e5:
         de:be:40:cc:5e:cb:69:c4:48:0d:a4:1e:b9:9d:5e:22:7d:5e:
         f3:99:3d:18:5d:41:dd:c6:c1:9d:9a:6f:94:19:9f:d7:94:90:
         ee:63:02:eb:9b:fe:1e:1a:05:c2:b7:3a:06:cd:fa:e0:f3:15:
         64:77:66:a4:75:a8:dc:93:d9:7f:55:15:09:d7:6e:f1:5e:04:
         c3:78:f9:70:88:47:6f:06:64:3a:72:55:f8:0a:cc:76:ba:08:
         9d:9e:86:5f:3f:d2:6a:87:15:21:9d:20:4b:18:40:6c:f4:e4:
         43:5a:80:f9:78:d7:a4:24:ba:02:93:5a:5d:f6:6f:6b:28:89:
         73:b5:c8:2d:e3:13:61:9d:73:21:eb:c3:9f:2b:4a:0e:9b:48:
         85:d1:47:48:00:b3:10:7d:5d:f8:88:e8:48:cb:ce:55:ba:f1:
         3f:47:84:2a:5b:41:7f:85:a7:28:df:73:d2:7a:5c:32:ca:f6:
         b3:ba:44:fc:57:1e:4d:5c:e5:9b:60:d1:12:3a:00:7c:29:a3:
         7a:31:19:61:65:68:c2:1b:4a:de:ee:fa:39:9b:df:c3:09:fe:
         92:85:fc:33:91:cd:0c:98:2a:9f:f2:9e:40:b3:83:ba:d5:46:
         eb:7a:4a:99:b4:42:a7:d8:76:28:da:82:c0:be:4e:b0:05:6e:
         b5:a4:cd:1d:54:b3:a4:81:17:9a:7e:cf:8a:db:ce:68:07:f4:
         ac:02:2b:e0:f9:d9:27:9d:4f:b4:e8:1d:b5:22:0d:28:6e:bd:
         37:02:d6:d0:94:aa:48:ab:c1:ee:86:d2:4f:0f:42:c3:62:9d:
         52:fb:cd:7e:d5:e1:71:ac:b1:cc:a2:74:5a:de:e3:97:c2:e0:
         3f:8c:ec:ef:4c:ff:97:46:b9:26:6d:3d:68:86:f5:cc:b1:32:
         39:bd:76:15:cf:f4:a5:20
-----BEGIN CERTIFICATE-----
MIIHSDCCBTCgAwIBAgICAo0wDQYJKoZIhvcNAQEFBQAwgbQxCzAJBgNVBAYTAlVT
MQswCQYDVQQIEwJDQTEVMBMGA1UEBxMMU2FuRnJhbmNpc2NvMRUwEwYDVQQKEwxQ
aXhnbG8sIEluYy4xEDAOBgNVBAsTB1ZQTi1DSUUxGjAYBgNVBAMTEXR1bm5lbC5w
aXhnbG8uY29tMRwwGgYDVQQpExNCYWxhIENoYW5kcmFzZWthcmFuMR4wHAYJKoZI
hvcNAQkBFg9iYWxhQHBpeGdsby5jb20wHhcNMTgwMjE0MDYzOTMwWhcNMjgwMjEy
MDYzOTMwWjCBqTELMAkGA1UEBhMCVVMxCzAJBgNVBAgTAkNBMRUwEwYDVQQHEwxT
YW5GcmFuY2lzY28xFTATBgNVBAoTDFBpeGdsbywgSW5jLjEQMA4GA1UECxMHVlBO
LUNJRTEPMA0GA1UEAxMGY2llNjUyMRwwGgYDVQQpExNCYWxhIENoYW5kcmFzZWth
cmFuMR4wHAYJKoZIhvcNAQkBFg9iYWxhQHBpeGdsby5jb20wggIiMA0GCSqGSIb3
DQEBAQUAA4ICDwAwggIKAoICAQC7rm8a/0M5wVBA5wWwQkYhyfo+Fgj6nWTw3Qs3
hJgV77+Dt4mYmzRPPidmwPthwngWd8bi7TAc8f2gp2Ckv+qwsUFkGYB+b4ismSao
3c5KSN8rrr9gYjLx/Ams0WVYXmWBnh6pNnGvlmsDAZYDYDf3HOK9xEvx+N9Pos0J
Y1ZH4E/q0goDndTBoka9QD+3AHLCqf4Vth5crSZElMN2n8hF7PYYzij8Vupyu8IS
n5BwNgjeaIIzmu1GGIpeJS9mubyZsGagvA+oiQZmdIwpvIqNdRiqrmjq96mguVHQ
M5/5flglWg2iCudkISRma4uomWIUkbCb/MMV1S0+IRP3BOVpxxIxOWQ7Z6sABzup
q2WdUG4fBt68AR2ndUH+d77fVZ2FbQGmajtyy6G5EdKt3HUMN+7pdCVGVACM5Fne
gM+Z97roiLGx63jgqSHES6xBUoUbWZhcAl5NoYuyvcnTq+dHt0kOqr8BqYZCq8Wi
HA44hY9mZMj1QSU3tU8s3IVOvREq7uzR1esBKhLX9qiJKSVei5a5+MKaR/SDrDzM
9LVlJ7kDhqQxx/V88xSIaxEqT5bMFOI1QOWNel3MTWE9Vvn7oMdQiFKaFDBYtXWn
82Mt43vzwjEd2plTsRgAudQ6e3zteytzpRpa9eUUDrHm409LNewCOHCuGT6w08tO
2EmIjwIDAQABo4IBazCCAWcwCQYDVR0TBAIwADAtBglghkgBhvhCAQ0EIBYeRWFz
eS1SU0EgR2VuZXJhdGVkIENlcnRpZmljYXRlMB0GA1UdDgQWBBQxfn1uOY9IFKKj
Op3Gb5QJ3O5ZLjCB6QYDVR0jBIHhMIHegBTvOI0UUFinW02cF3L837msp1GwEKGB
uqSBtzCBtDELMAkGA1UEBhMCVVMxCzAJBgNVBAgTAkNBMRUwEwYDVQQHEwxTYW5G
cmFuY2lzY28xFTATBgNVBAoTDFBpeGdsbywgSW5jLjEQMA4GA1UECxMHVlBOLUNJ
RTEaMBgGA1UEAxMRdHVubmVsLnBpeGdsby5jb20xHDAaBgNVBCkTE0JhbGEgQ2hh
bmRyYXNla2FyYW4xHjAcBgkqhkiG9w0BCQEWD2JhbGFAcGl4Z2xvLmNvbYIJAKbb
xoOA5qB5MBMGA1UdJQQMMAoGCCsGAQUFBwMCMAsGA1UdDwQEAwIHgDANBgkqhkiG
9w0BAQUFAAOCAgEA3F4o0KTaAamVpHr7Ge6h7xNfKHQDKKcaHKIUke5AOcFHWgvZ
F2+InIbxJDHg2n0jRteu6jSlRkMtLrLDTAS4OiIlmPF9Z2CbJABTb00ZTwb84zf+
R/o7muVsUgiXZWNCdJmZbIPzId5dR/meLGqYyO9jQe5Tdb1iu9bUzPerlSjmj2EJ
z1E3IbtQHgOUwjDi3h6UfNsKPEgMmeY7i1ad8XTl3r5AzF7LacRIDaQeuZ1eIn1e
85k9GF1B3cbBnZpvlBmf15SQ7mMC65v+HhoFwrc6Bs364PMVZHdmpHWo3JPZf1UV
Cddu8V4Ew3j5cIhHbwZkOnJV+ArMdroInZ6GXz/SaocVIZ0gSxhAbPTkQ1qA+XjX
pCS6ApNaXfZvayiJc7XILeMTYZ1zIevDnytKDptIhdFHSACzEH1d+IjoSMvOVbrx
P0eEKltBf4WnKN9z0npcMsr2s7pE/FceTVzlm2DREjoAfCmjejEZYWVowhtK3u76
OZvfwwn+koX8M5HNDJgqn/KeQLODutVG63pKmbRCp9h2KNqCwL5OsAVutaTNHVSz
pIEXmn7PitvOaAf0rAIr4PnZJ51PtOgdtSINKG69NwLW0JSqSKvB7obSTw9Cw2Kd
UvvNftXhcayxzKJ0Wt7jl8LgP4zs70z/l0a5Jm09aIb1zLEyOb12Fc/0pSA=
-----END CERTIFICATE-----
