Certificate:
    Data:
        Version: 3 (0x2)
        Serial Number: 654 (0x28e)
    Signature Algorithm: sha1WithRSAEncryption
        Issuer: C=US, ST=CA, L=SanFrancisco, O=Pixglo, Inc., OU=VPN-CIE, CN=tunnel.pixglo.com/name=Bala Chandrasekaran/emailAddress=bala@pixglo.com
        Validity
            Not Before: Feb 14 06:39:32 2018 GMT
            Not After : Feb 12 06:39:32 2028 GMT
        Subject: C=US, ST=CA, L=SanFrancisco, O=Pixglo, Inc., OU=VPN-CIE, CN=cie653/name=Bala Chandrasekaran/emailAddress=bala@pixglo.com
        Subject Public Key Info:
            Public Key Algorithm: rsaEncryption
                Public-Key: (4096 bit)
                Modulus:
                    00:a6:08:26:da:fb:d0:a7:50:c0:ea:4d:9d:fa:92:
                    ed:bb:a8:f7:e3:38:53:74:2f:5f:56:47:00:c8:7f:
                    4c:34:de:c7:61:6f:3b:bf:6f:0a:d7:8d:32:ed:f2:
                    7c:83:fe:cb:f0:82:41:3b:dc:99:0c:a1:d4:f3:57:
                    2b:23:6b:1b:76:3a:f7:f7:2c:a7:43:ea:e5:6b:ab:
                    f0:4f:f7:cf:b9:66:cf:65:a1:e6:6b:3d:85:3e:b5:
                    f4:fa:d3:fa:40:b1:cc:42:ef:55:68:b3:52:82:2b:
                    48:ac:2a:88:7c:23:14:dd:8d:35:08:76:3b:ff:95:
                    6a:29:a4:f0:ed:45:ef:d1:1f:13:2c:e0:61:b2:9b:
                    1d:43:de:e3:da:bd:e2:bc:d6:43:d8:f9:03:8a:ae:
                    e9:7b:ef:e9:46:d3:14:b0:bc:d8:28:fa:2b:6e:f8:
                    5a:3c:c1:d9:22:a0:5d:16:c9:10:2d:a0:7d:70:63:
                    ec:8e:29:a0:b5:ed:3a:e1:ea:6d:94:69:05:b5:6a:
                    e2:9e:bb:29:f0:d4:ab:f9:79:a3:c9:d7:a3:f1:d7:
                    a2:42:19:61:17:a3:09:c7:61:fa:ea:91:b0:f3:63:
                    9e:03:fa:4b:7f:01:01:69:6a:8f:1c:0b:55:bf:53:
                    f4:b3:d1:a0:c9:20:28:c2:1b:0b:4e:bb:3e:de:55:
                    68:44:52:da:f1:0c:ec:30:ab:1c:31:2d:98:83:d8:
                    e0:da:ff:3d:c8:47:83:5a:e8:6a:ff:d1:9d:a2:02:
                    f0:1a:e5:f6:96:16:01:e5:49:98:5d:21:77:9a:c2:
                    4e:23:ab:2a:8a:3e:8b:a3:c7:f6:51:fc:97:ad:db:
                    de:dc:ca:5b:fb:3b:e0:dd:30:b4:cd:73:14:ae:d9:
                    44:69:ff:bf:ca:ce:43:38:f0:c5:5f:ba:60:44:ac:
                    84:dd:9a:61:81:04:b0:96:e3:69:f2:08:48:50:13:
                    96:94:55:bd:af:fc:1d:15:be:2d:4b:47:e6:8b:13:
                    f6:fa:17:7e:01:2f:e4:70:5b:f8:34:47:87:32:de:
                    aa:1b:b6:91:cf:49:5e:51:ea:7c:14:a3:9b:f7:1e:
                    0d:58:27:36:60:4f:ac:ed:d4:2e:bb:5c:c4:30:45:
                    f1:bc:06:a9:55:9b:91:6e:5d:94:6b:89:d5:ba:2a:
                    30:61:ad:17:da:29:9f:9a:fc:bc:23:01:7a:c2:e7:
                    1a:50:67:ec:04:c6:28:b9:b6:63:e6:cc:85:0c:16:
                    4d:02:24:eb:05:c5:70:17:31:cf:6e:ad:d0:5a:ab:
                    c9:76:b9:ce:64:ee:87:31:fc:53:fc:12:c5:27:8a:
                    f4:50:12:bd:af:12:91:2c:55:8e:5a:71:5b:64:a0:
                    40:54:21
                Exponent: 65537 (0x10001)
        X509v3 extensions:
            X509v3 Basic Constraints: 
                CA:FALSE
            Netscape Comment: 
                Easy-RSA Generated Certificate
            X509v3 Subject Key Identifier: 
                A9:93:A9:68:11:C2:21:24:DB:67:D8:14:7F:2E:63:91:B2:17:D3:49
            X509v3 Authority Key Identifier: 
                keyid:EF:38:8D:14:50:58:A7:5B:4D:9C:17:72:FC:DF:B9:AC:A7:51:B0:10
                DirName:/C=US/ST=CA/L=SanFrancisco/O=Pixglo, Inc./OU=VPN-CIE/CN=tunnel.pixglo.com/name=Bala Chandrasekaran/emailAddress=bala@pixglo.com
                serial:A6:DB:C6:83:80:E6:A0:79

            X509v3 Extended Key Usage: 
                TLS Web Client Authentication
            X509v3 Key Usage: 
                Digital Signature
    Signature Algorithm: sha1WithRSAEncryption
         23:6a:b3:e6:2a:f5:55:bb:20:d5:72:1e:b2:bc:82:ff:7d:8b:
         5b:83:0b:5c:14:52:ee:0c:12:5a:6c:58:08:be:a6:c1:c8:a2:
         15:d1:b5:ad:1b:47:fe:fe:01:8d:ef:ab:b6:8e:e5:19:57:6a:
         ff:ee:91:7d:0d:5d:37:b6:8f:47:f7:16:9e:de:51:7d:17:dd:
         78:b8:5d:aa:d6:23:86:9e:58:44:f5:39:99:e2:a3:b0:92:aa:
         1d:40:fe:66:98:ee:58:b9:c7:d9:e9:9e:99:df:8a:25:a5:2e:
         1f:7b:de:7d:a3:43:a2:16:35:c5:0d:6c:b0:f7:7b:ee:92:e4:
         79:5d:9e:e8:a5:35:b9:63:50:9d:3f:c2:fd:f2:fa:58:38:8a:
         6e:fc:e1:66:c2:34:71:01:90:05:18:00:0d:ce:36:a7:83:5b:
         31:60:5a:ef:be:85:69:48:35:13:ae:b1:18:34:99:c0:e9:29:
         ed:2b:a6:38:e8:2c:10:dc:e3:d0:0d:11:41:08:a3:52:67:90:
         4f:09:de:7b:28:58:f0:00:aa:e3:4e:92:cf:3b:8a:67:79:59:
         c3:d7:39:74:81:47:9a:cd:a5:91:36:8c:4b:93:d1:c4:76:f4:
         6f:45:a8:f8:21:c6:6d:ee:da:35:fa:61:0c:ba:2c:c4:5c:b5:
         ab:f3:fd:cd:b3:50:51:9f:54:d7:40:2d:6e:b8:8e:91:0d:35:
         a4:fe:c5:92:85:5c:58:1c:62:e1:ed:55:ef:0b:96:52:08:94:
         8d:59:d9:f5:53:16:e2:ff:24:83:db:28:64:57:20:2a:01:b0:
         c2:a5:ce:49:87:fc:de:8e:c6:8a:71:e9:44:c3:56:d0:f8:a6:
         f1:d0:a3:0a:b9:5f:e3:89:37:1b:fe:4b:5a:5e:ee:66:d6:fd:
         26:a6:bc:c5:18:b6:e7:e8:ff:84:a1:85:aa:37:6a:5f:4f:26:
         96:3f:98:06:e4:7e:c1:ca:97:2d:34:36:23:96:6e:5b:01:ba:
         c2:50:5a:6e:1e:1e:22:0b:da:ee:fc:53:c8:a1:2b:7d:1c:3e:
         f5:d4:15:2b:38:c8:96:2b:41:d0:90:a6:68:e0:32:d3:50:3d:
         1a:94:6c:26:c9:62:68:3b:e0:1e:79:86:5b:d9:04:0f:c3:12:
         a7:c6:b0:7d:ab:46:39:84:a8:45:1d:2a:59:f2:8e:ef:3b:5a:
         d6:58:41:11:ab:78:04:c8:88:0e:53:ab:d5:dc:2f:0c:a9:80:
         25:55:fc:f9:f6:85:82:b8:ae:d8:46:79:02:2f:8c:23:c8:f0:
         75:f9:07:de:c3:10:c6:8c:50:a1:8b:31:b9:de:4d:ee:1c:84:
         3a:ec:18:e1:ab:81:06:5c
-----BEGIN CERTIFICATE-----
MIIHSDCCBTCgAwIBAgICAo4wDQYJKoZIhvcNAQEFBQAwgbQxCzAJBgNVBAYTAlVT
MQswCQYDVQQIEwJDQTEVMBMGA1UEBxMMU2FuRnJhbmNpc2NvMRUwEwYDVQQKEwxQ
aXhnbG8sIEluYy4xEDAOBgNVBAsTB1ZQTi1DSUUxGjAYBgNVBAMTEXR1bm5lbC5w
aXhnbG8uY29tMRwwGgYDVQQpExNCYWxhIENoYW5kcmFzZWthcmFuMR4wHAYJKoZI
hvcNAQkBFg9iYWxhQHBpeGdsby5jb20wHhcNMTgwMjE0MDYzOTMyWhcNMjgwMjEy
MDYzOTMyWjCBqTELMAkGA1UEBhMCVVMxCzAJBgNVBAgTAkNBMRUwEwYDVQQHEwxT
YW5GcmFuY2lzY28xFTATBgNVBAoTDFBpeGdsbywgSW5jLjEQMA4GA1UECxMHVlBO
LUNJRTEPMA0GA1UEAxMGY2llNjUzMRwwGgYDVQQpExNCYWxhIENoYW5kcmFzZWth
cmFuMR4wHAYJKoZIhvcNAQkBFg9iYWxhQHBpeGdsby5jb20wggIiMA0GCSqGSIb3
DQEBAQUAA4ICDwAwggIKAoICAQCmCCba+9CnUMDqTZ36ku27qPfjOFN0L19WRwDI
f0w03sdhbzu/bwrXjTLt8nyD/svwgkE73JkModTzVysjaxt2Ovf3LKdD6uVrq/BP
98+5Zs9loeZrPYU+tfT60/pAscxC71Vos1KCK0isKoh8IxTdjTUIdjv/lWoppPDt
Re/RHxMs4GGymx1D3uPaveK81kPY+QOKrul77+lG0xSwvNgo+itu+Fo8wdkioF0W
yRAtoH1wY+yOKaC17Trh6m2UaQW1auKeuynw1Kv5eaPJ16Px16JCGWEXownHYfrq
kbDzY54D+kt/AQFpao8cC1W/U/Sz0aDJICjCGwtOuz7eVWhEUtrxDOwwqxwxLZiD
2ODa/z3IR4Na6Gr/0Z2iAvAa5faWFgHlSZhdIXeawk4jqyqKPoujx/ZR/Jet297c
ylv7O+DdMLTNcxSu2URp/7/KzkM48MVfumBErITdmmGBBLCW42nyCEhQE5aUVb2v
/B0Vvi1LR+aLE/b6F34BL+RwW/g0R4cy3qobtpHPSV5R6nwUo5v3Hg1YJzZgT6zt
1C67XMQwRfG8BqlVm5FuXZRridW6KjBhrRfaKZ+a/LwjAXrC5xpQZ+wExii5tmPm
zIUMFk0CJOsFxXAXMc9urdBaq8l2uc5k7ocx/FP8EsUnivRQEr2vEpEsVY5acVtk
oEBUIQIDAQABo4IBazCCAWcwCQYDVR0TBAIwADAtBglghkgBhvhCAQ0EIBYeRWFz
eS1SU0EgR2VuZXJhdGVkIENlcnRpZmljYXRlMB0GA1UdDgQWBBSpk6loEcIhJNtn
2BR/LmORshfTSTCB6QYDVR0jBIHhMIHegBTvOI0UUFinW02cF3L837msp1GwEKGB
uqSBtzCBtDELMAkGA1UEBhMCVVMxCzAJBgNVBAgTAkNBMRUwEwYDVQQHEwxTYW5G
cmFuY2lzY28xFTATBgNVBAoTDFBpeGdsbywgSW5jLjEQMA4GA1UECxMHVlBOLUNJ
RTEaMBgGA1UEAxMRdHVubmVsLnBpeGdsby5jb20xHDAaBgNVBCkTE0JhbGEgQ2hh
bmRyYXNla2FyYW4xHjAcBgkqhkiG9w0BCQEWD2JhbGFAcGl4Z2xvLmNvbYIJAKbb
xoOA5qB5MBMGA1UdJQQMMAoGCCsGAQUFBwMCMAsGA1UdDwQEAwIHgDANBgkqhkiG
9w0BAQUFAAOCAgEAI2qz5ir1Vbsg1XIesryC/32LW4MLXBRS7gwSWmxYCL6mwcii
FdG1rRtH/v4Bje+rto7lGVdq/+6RfQ1dN7aPR/cWnt5RfRfdeLhdqtYjhp5YRPU5
meKjsJKqHUD+ZpjuWLnH2ememd+KJaUuH3vefaNDohY1xQ1ssPd77pLkeV2e6KU1
uWNQnT/C/fL6WDiKbvzhZsI0cQGQBRgADc42p4NbMWBa776FaUg1E66xGDSZwOkp
7SumOOgsENzj0A0RQQijUmeQTwneeyhY8ACq406SzzuKZ3lZw9c5dIFHms2lkTaM
S5PRxHb0b0Wo+CHGbe7aNfphDLosxFy1q/P9zbNQUZ9U10AtbriOkQ01pP7FkoVc
WBxi4e1V7wuWUgiUjVnZ9VMW4v8kg9soZFcgKgGwwqXOSYf83o7GinHpRMNW0Pim
8dCjCrlf44k3G/5LWl7uZtb9Jqa8xRi25+j/hKGFqjdqX08mlj+YBuR+wcqXLTQ2
I5ZuWwG6wlBabh4eIgva7vxTyKErfRw+9dQVKzjIlitB0JCmaOAy01A9GpRsJsli
aDvgHnmGW9kED8MSp8awfatGOYSoRR0qWfKO7zta1lhBEat4BMiIDlOr1dwvDKmA
JVX8+faFgriu2EZ5Ai+MI8jwdfkH3sMQxoxQoYsxud5N7hyEOuwY4auBBlw=
-----END CERTIFICATE-----
