Certificate:
    Data:
        Version: 3 (0x2)
        Serial Number: 656 (0x290)
    Signature Algorithm: sha1WithRSAEncryption
        Issuer: C=US, ST=CA, L=SanFrancisco, O=Pixglo, Inc., OU=VPN-CIE, CN=tunnel.pixglo.com/name=Bala Chandrasekaran/emailAddress=bala@pixglo.com
        Validity
            Not Before: Feb 14 06:39:35 2018 GMT
            Not After : Feb 12 06:39:35 2028 GMT
        Subject: C=US, ST=CA, L=SanFrancisco, O=Pixglo, Inc., OU=VPN-CIE, CN=cie655/name=Bala Chandrasekaran/emailAddress=bala@pixglo.com
        Subject Public Key Info:
            Public Key Algorithm: rsaEncryption
                Public-Key: (4096 bit)
                Modulus:
                    00:cc:33:c5:3a:f0:48:59:c0:76:b4:08:49:9e:d4:
                    1e:aa:3c:75:b4:09:61:5d:5b:37:be:9f:75:04:3d:
                    93:51:72:43:50:6d:15:7c:4d:ca:b6:30:7e:cc:4c:
                    34:89:37:75:fa:93:96:ea:6c:1d:94:b4:42:30:f7:
                    1d:a8:bc:5b:bc:5f:2a:94:93:6b:ca:ab:d0:48:d7:
                    68:46:55:ba:e3:d5:e3:de:48:30:75:f7:15:ae:bd:
                    81:94:ca:dd:84:22:50:ea:45:91:21:c6:7b:18:a6:
                    84:9f:bc:37:da:84:47:ed:59:ba:9c:ed:9f:89:26:
                    e2:a7:b0:95:d1:75:3c:57:79:30:d8:7d:43:92:75:
                    01:10:8c:b7:db:9b:3b:8a:f8:37:8d:fa:83:0d:73:
                    b8:c1:87:92:69:e2:cc:80:a1:04:16:b2:29:40:2e:
                    12:43:39:6a:a0:fc:3a:3d:24:5a:dd:57:bf:67:18:
                    b7:80:e8:48:5d:c9:b7:d7:53:04:3a:3f:2e:8d:59:
                    70:da:df:40:6c:ad:a5:e5:ce:59:15:2f:95:e8:cc:
                    ae:5e:a7:a7:49:c0:94:15:0e:77:72:d7:dd:3a:0b:
                    58:98:f7:e0:a1:97:3b:4f:52:65:20:3e:13:67:81:
                    ce:57:e3:12:a4:a1:39:e4:66:81:c7:23:99:71:79:
                    cb:f9:f9:56:76:7c:f7:c7:28:dc:f7:58:b1:9e:60:
                    e1:0e:95:6c:23:3e:42:ee:73:9d:f6:27:15:30:c9:
                    d9:d0:ec:86:af:89:b8:c9:44:8a:fc:90:42:2e:d1:
                    b4:ce:2c:5c:e8:2c:50:c6:bb:2b:fe:c1:63:41:c2:
                    15:95:37:59:e5:39:0f:59:cd:f2:b1:44:df:9d:18:
                    06:f1:1d:ce:7a:fd:01:39:bf:e3:26:9b:1e:1f:78:
                    36:e4:cb:ed:3b:82:d2:02:2b:9f:39:f2:2a:33:61:
                    8f:ea:6c:88:0a:a9:dc:b3:21:3d:1d:f8:05:ea:b3:
                    09:5d:16:ee:dc:74:c7:b3:b4:a8:8c:bb:8c:c8:9c:
                    d7:a5:a4:45:21:b8:3b:38:46:e6:7a:56:41:11:9c:
                    72:1c:98:96:4f:72:e5:58:ca:fb:9d:2d:00:78:dc:
                    df:b2:1f:03:76:7f:07:28:fa:8c:30:8c:d2:80:58:
                    01:5d:44:89:66:f7:f1:c1:5f:03:12:8d:68:eb:45:
                    4a:eb:66:13:76:e4:98:67:49:4c:aa:d1:a1:ce:f8:
                    69:4a:76:45:fb:0e:30:5f:10:81:e9:45:e0:c2:92:
                    cc:d4:af:33:fc:77:d2:b8:c7:e2:bf:db:29:63:90:
                    48:97:78:42:81:f5:d6:10:03:06:09:ba:18:a6:15:
                    f9:e0:01
                Exponent: 65537 (0x10001)
        X509v3 extensions:
            X509v3 Basic Constraints: 
                CA:FALSE
            Netscape Comment: 
                Easy-RSA Generated Certificate
            X509v3 Subject Key Identifier: 
                69:E8:31:B8:C5:4B:4F:2B:69:9D:90:6D:9A:4F:11:C7:DF:82:C2:38
            X509v3 Authority Key Identifier: 
                keyid:EF:38:8D:14:50:58:A7:5B:4D:9C:17:72:FC:DF:B9:AC:A7:51:B0:10
                DirName:/C=US/ST=CA/L=SanFrancisco/O=Pixglo, Inc./OU=VPN-CIE/CN=tunnel.pixglo.com/name=Bala Chandrasekaran/emailAddress=bala@pixglo.com
                serial:A6:DB:C6:83:80:E6:A0:79

            X509v3 Extended Key Usage: 
                TLS Web Client Authentication
            X509v3 Key Usage: 
                Digital Signature
    Signature Algorithm: sha1WithRSAEncryption
         c7:b8:36:3e:28:42:e2:89:74:e2:18:e8:79:e1:79:69:f7:57:
         f3:a8:52:51:d5:0e:70:1d:a0:ad:32:bf:c8:64:64:24:2d:ce:
         44:71:fc:84:18:84:77:ec:54:27:eb:c7:1f:56:f5:31:43:dd:
         79:d1:ac:22:4e:11:58:7a:84:fa:73:3f:ce:47:88:44:8c:43:
         23:d3:e1:6f:42:c6:03:a6:06:0a:7e:09:3c:ec:f6:b8:9e:40:
         f0:35:65:b5:66:0e:ee:80:8f:08:9b:62:c3:1b:81:18:fa:62:
         97:f0:6d:50:b9:14:85:f4:d3:9f:f7:73:38:90:4a:42:97:dd:
         31:e7:23:49:c8:8a:ff:dd:61:9d:ec:12:8d:69:c8:4c:13:1f:
         73:b2:ac:1e:aa:80:76:79:be:7d:05:0f:c4:fa:98:44:4a:d9:
         76:1b:49:3a:f9:0d:2f:02:e1:a7:49:bd:d3:5c:7c:d2:cd:78:
         ba:31:42:75:7f:85:15:b1:3e:52:b2:9e:6a:a1:45:fc:97:b1:
         fc:99:be:ff:2c:cf:9a:b5:75:c6:82:ed:80:10:8f:cf:39:3b:
         a1:59:13:60:cd:37:7c:d9:2b:c0:ed:c6:04:f0:1b:01:29:37:
         d4:03:31:41:86:08:d0:95:40:35:67:99:75:6d:c7:ba:bf:f1:
         07:44:a0:f6:cd:6e:c4:96:8d:ab:f6:91:e8:53:4f:f7:e4:a6:
         77:24:20:e0:4b:60:54:e1:bd:57:69:04:27:39:75:2a:b5:6d:
         a8:bd:1a:f8:20:d6:2f:2c:7f:6c:3a:34:ee:3a:be:6f:12:51:
         4e:75:2a:a2:13:57:1f:04:29:3d:99:d8:53:9e:6d:31:72:e2:
         80:db:d8:5a:e1:9e:04:94:4c:14:27:fe:56:93:12:b9:8e:55:
         f6:7a:12:cc:95:b1:47:1b:c2:2e:02:7e:9d:29:f5:75:10:db:
         92:6d:c0:3d:d2:40:15:b7:0e:4a:09:b5:37:fd:4b:11:b0:dc:
         34:8a:89:aa:6b:22:54:e8:72:b0:ca:9f:88:ce:2a:18:68:bf:
         fd:9c:36:f2:3f:3c:6e:60:1b:b6:35:a7:56:ac:1c:67:0b:1a:
         5b:08:b3:98:c8:0e:e3:40:a7:93:d6:66:81:23:84:84:5f:21:
         00:7c:78:b2:2c:f5:c5:8c:27:1b:02:08:16:ff:7e:81:47:bd:
         54:a4:30:a0:72:30:e8:9c:8d:b2:c2:78:c5:7e:57:47:6a:0c:
         f0:42:0a:9d:15:13:70:94:f8:30:aa:68:74:a7:05:ef:62:08:
         72:50:71:b1:04:fa:2b:d4:f5:0f:73:df:b8:ff:7d:a1:f0:92:
         70:86:f7:42:1b:f0:21:9d
-----BEGIN CERTIFICATE-----
MIIHSDCCBTCgAwIBAgICApAwDQYJKoZIhvcNAQEFBQAwgbQxCzAJBgNVBAYTAlVT
MQswCQYDVQQIEwJDQTEVMBMGA1UEBxMMU2FuRnJhbmNpc2NvMRUwEwYDVQQKEwxQ
aXhnbG8sIEluYy4xEDAOBgNVBAsTB1ZQTi1DSUUxGjAYBgNVBAMTEXR1bm5lbC5w
aXhnbG8uY29tMRwwGgYDVQQpExNCYWxhIENoYW5kcmFzZWthcmFuMR4wHAYJKoZI
hvcNAQkBFg9iYWxhQHBpeGdsby5jb20wHhcNMTgwMjE0MDYzOTM1WhcNMjgwMjEy
MDYzOTM1WjCBqTELMAkGA1UEBhMCVVMxCzAJBgNVBAgTAkNBMRUwEwYDVQQHEwxT
YW5GcmFuY2lzY28xFTATBgNVBAoTDFBpeGdsbywgSW5jLjEQMA4GA1UECxMHVlBO
LUNJRTEPMA0GA1UEAxMGY2llNjU1MRwwGgYDVQQpExNCYWxhIENoYW5kcmFzZWth
cmFuMR4wHAYJKoZIhvcNAQkBFg9iYWxhQHBpeGdsby5jb20wggIiMA0GCSqGSIb3
DQEBAQUAA4ICDwAwggIKAoICAQDMM8U68EhZwHa0CEme1B6qPHW0CWFdWze+n3UE
PZNRckNQbRV8Tcq2MH7MTDSJN3X6k5bqbB2UtEIw9x2ovFu8XyqUk2vKq9BI12hG
Vbrj1ePeSDB19xWuvYGUyt2EIlDqRZEhxnsYpoSfvDfahEftWbqc7Z+JJuKnsJXR
dTxXeTDYfUOSdQEQjLfbmzuK+DeN+oMNc7jBh5Jp4syAoQQWsilALhJDOWqg/Do9
JFrdV79nGLeA6EhdybfXUwQ6Py6NWXDa30BsraXlzlkVL5XozK5ep6dJwJQVDndy
1906C1iY9+ChlztPUmUgPhNngc5X4xKkoTnkZoHHI5lxecv5+VZ2fPfHKNz3WLGe
YOEOlWwjPkLuc532JxUwydnQ7IavibjJRIr8kEIu0bTOLFzoLFDGuyv+wWNBwhWV
N1nlOQ9ZzfKxRN+dGAbxHc56/QE5v+Mmmx4feDbky+07gtICK5858iozYY/qbIgK
qdyzIT0d+AXqswldFu7cdMeztKiMu4zInNelpEUhuDs4RuZ6VkERnHIcmJZPcuVY
yvudLQB43N+yHwN2fwco+owwjNKAWAFdRIlm9/HBXwMSjWjrRUrrZhN25JhnSUyq
0aHO+GlKdkX7DjBfEIHpReDCkszUrzP8d9K4x+K/2yljkEiXeEKB9dYQAwYJuhim
FfngAQIDAQABo4IBazCCAWcwCQYDVR0TBAIwADAtBglghkgBhvhCAQ0EIBYeRWFz
eS1SU0EgR2VuZXJhdGVkIENlcnRpZmljYXRlMB0GA1UdDgQWBBRp6DG4xUtPK2md
kG2aTxHH34LCODCB6QYDVR0jBIHhMIHegBTvOI0UUFinW02cF3L837msp1GwEKGB
uqSBtzCBtDELMAkGA1UEBhMCVVMxCzAJBgNVBAgTAkNBMRUwEwYDVQQHEwxTYW5G
cmFuY2lzY28xFTATBgNVBAoTDFBpeGdsbywgSW5jLjEQMA4GA1UECxMHVlBOLUNJ
RTEaMBgGA1UEAxMRdHVubmVsLnBpeGdsby5jb20xHDAaBgNVBCkTE0JhbGEgQ2hh
bmRyYXNla2FyYW4xHjAcBgkqhkiG9w0BCQEWD2JhbGFAcGl4Z2xvLmNvbYIJAKbb
xoOA5qB5MBMGA1UdJQQMMAoGCCsGAQUFBwMCMAsGA1UdDwQEAwIHgDANBgkqhkiG
9w0BAQUFAAOCAgEAx7g2PihC4ol04hjoeeF5afdX86hSUdUOcB2grTK/yGRkJC3O
RHH8hBiEd+xUJ+vHH1b1MUPdedGsIk4RWHqE+nM/zkeIRIxDI9Phb0LGA6YGCn4J
POz2uJ5A8DVltWYO7oCPCJtiwxuBGPpil/BtULkUhfTTn/dzOJBKQpfdMecjSciK
/91hnewSjWnITBMfc7KsHqqAdnm+fQUPxPqYRErZdhtJOvkNLwLhp0m901x80s14
ujFCdX+FFbE+UrKeaqFF/Jex/Jm+/yzPmrV1xoLtgBCPzzk7oVkTYM03fNkrwO3G
BPAbASk31AMxQYYI0JVANWeZdW3Hur/xB0Sg9s1uxJaNq/aR6FNP9+SmdyQg4Etg
VOG9V2kEJzl1KrVtqL0a+CDWLyx/bDo07jq+bxJRTnUqohNXHwQpPZnYU55tMXLi
gNvYWuGeBJRMFCf+VpMSuY5V9noSzJWxRxvCLgJ+nSn1dRDbkm3APdJAFbcOSgm1
N/1LEbDcNIqJqmsiVOhysMqfiM4qGGi//Zw28j88bmAbtjWnVqwcZwsaWwizmMgO
40Cnk9ZmgSOEhF8hAHx4siz1xYwnGwIIFv9+gUe9VKQwoHIw6JyNssJ4xX5XR2oM
8EIKnRUTcJT4MKpodKcF72IIclBxsQT6K9T1D3PfuP99ofCScIb3QhvwIZ0=
-----END CERTIFICATE-----
