Certificate:
    Data:
        Version: 3 (0x2)
        Serial Number: 659 (0x293)
    Signature Algorithm: sha1WithRSAEncryption
        Issuer: C=US, ST=CA, L=SanFrancisco, O=Pixglo, Inc., OU=VPN-CIE, CN=tunnel.pixglo.com/name=Bala Chandrasekaran/emailAddress=bala@pixglo.com
        Validity
            Not Before: Feb 14 06:39:40 2018 GMT
            Not After : Feb 12 06:39:40 2028 GMT
        Subject: C=US, ST=CA, L=SanFrancisco, O=Pixglo, Inc., OU=VPN-CIE, CN=cie658/name=Bala Chandrasekaran/emailAddress=bala@pixglo.com
        Subject Public Key Info:
            Public Key Algorithm: rsaEncryption
                Public-Key: (4096 bit)
                Modulus:
                    00:bd:f7:0a:7a:83:28:aa:66:7e:80:eb:6d:6b:79:
                    2d:2f:a9:f2:8a:f0:ef:56:96:9e:78:a9:39:84:93:
                    5b:86:00:bc:0b:ed:69:15:dc:b5:34:c6:a8:6b:3e:
                    10:13:33:07:3e:0a:11:dc:27:a8:40:00:04:1f:f1:
                    cb:d8:b2:f5:2f:1f:49:bf:c7:62:9f:65:38:62:ca:
                    23:d9:a6:8a:53:e2:50:43:8d:4d:78:2e:c9:cd:65:
                    3a:1e:55:8e:09:62:45:7d:48:31:2d:b7:e1:f6:ca:
                    dc:30:f7:f9:ce:81:85:2d:38:14:7f:e1:36:08:7d:
                    b2:74:8c:bc:06:e8:61:ad:68:88:ac:6e:d1:59:db:
                    71:8e:26:61:19:34:9b:b5:30:97:77:79:c5:cf:79:
                    77:18:df:8e:1e:d6:bd:8d:b7:f8:1c:3a:b6:77:2e:
                    50:fb:a6:45:b2:a9:e3:48:bf:fd:16:9b:48:89:4c:
                    f5:0c:bc:64:be:50:e5:0a:91:89:97:2f:1a:31:b2:
                    9f:5b:48:64:9b:98:03:7f:be:6d:6c:c6:c7:63:38:
                    3b:e8:6b:00:d9:5b:38:2d:02:2d:fc:b3:c5:a9:91:
                    b3:18:24:04:f5:ba:24:64:d3:62:b8:92:18:62:19:
                    a3:78:16:53:2c:28:42:42:0f:a6:99:4c:24:fd:42:
                    34:cf:45:84:3b:01:c5:f9:ad:8a:9a:97:c8:d1:b3:
                    1f:c7:31:39:91:7f:09:e5:5c:29:11:5f:ef:5a:24:
                    d7:ff:64:b2:40:ea:76:86:bb:56:de:41:05:a6:10:
                    33:5f:56:f0:1a:f5:c2:52:c3:54:01:aa:45:55:32:
                    80:19:2b:c1:7b:cc:2b:53:0a:05:4c:a9:b6:65:a9:
                    cd:9a:d4:38:3d:3a:69:64:d0:95:bd:7f:b6:bb:f6:
                    18:71:17:f1:1e:49:cb:33:0f:0a:ca:3b:38:5a:8d:
                    f9:56:9f:8e:bf:79:25:39:2b:23:bb:97:14:ca:e9:
                    10:a5:46:53:90:3f:ec:bc:d7:50:42:c2:e1:b3:37:
                    79:b4:56:55:53:50:89:91:36:c4:4b:7f:49:09:41:
                    6d:5e:66:14:6f:bf:9b:43:87:2a:a5:32:57:fb:be:
                    5a:82:de:6a:53:c5:5a:80:63:54:b9:c0:bb:d8:d8:
                    16:37:8b:5e:e7:b0:7c:9b:02:16:b8:4e:d2:66:ea:
                    58:97:4f:aa:10:a6:7e:7e:f9:29:47:4d:c4:48:11:
                    a9:3b:3d:9e:3c:e8:98:39:de:d0:64:a2:9f:cd:5a:
                    27:cd:60:d2:3e:59:bc:b9:16:35:52:45:63:61:b7:
                    6d:51:5f:60:f3:07:55:44:da:8f:c6:52:80:33:c0:
                    4c:24:0d
                Exponent: 65537 (0x10001)
        X509v3 extensions:
            X509v3 Basic Constraints: 
                CA:FALSE
            Netscape Comment: 
                Easy-RSA Generated Certificate
            X509v3 Subject Key Identifier: 
                E8:9A:CC:80:90:A0:53:C1:F9:E5:E7:DD:6D:DD:32:74:01:4B:76:75
            X509v3 Authority Key Identifier: 
                keyid:EF:38:8D:14:50:58:A7:5B:4D:9C:17:72:FC:DF:B9:AC:A7:51:B0:10
                DirName:/C=US/ST=CA/L=SanFrancisco/O=Pixglo, Inc./OU=VPN-CIE/CN=tunnel.pixglo.com/name=Bala Chandrasekaran/emailAddress=bala@pixglo.com
                serial:A6:DB:C6:83:80:E6:A0:79

            X509v3 Extended Key Usage: 
                TLS Web Client Authentication
            X509v3 Key Usage: 
                Digital Signature
    Signature Algorithm: sha1WithRSAEncryption
         1c:b1:c7:06:58:9a:13:42:9b:a1:47:0e:0f:06:e2:e1:2c:99:
         60:05:b2:d2:7c:db:de:d3:25:61:20:a4:8e:b0:5d:39:96:c5:
         9f:21:bc:2b:bc:5e:ec:8b:05:4c:8e:ee:ff:82:59:aa:42:4c:
         40:c7:47:b0:2c:71:9e:43:94:9f:54:ea:e0:9c:54:e0:2f:29:
         93:f8:95:8c:0e:a2:1a:44:41:ed:5a:d4:7f:0b:ba:de:38:a7:
         30:25:22:46:f1:d3:36:84:b0:1f:7c:15:42:36:2e:4f:9d:cb:
         7d:cf:86:cc:65:91:28:24:8d:c5:06:89:fa:e9:19:64:1e:4c:
         da:1e:42:b0:36:e9:e3:2c:68:e4:a5:aa:16:0c:39:10:81:cc:
         71:72:44:de:bb:45:63:4e:d5:96:9f:63:4c:04:43:af:67:0f:
         f4:b3:85:bc:1d:1a:a1:94:57:52:a1:ab:86:64:7a:78:2c:88:
         6a:c4:63:ab:04:10:0f:91:6d:01:05:57:3e:b0:43:4b:42:14:
         82:47:b7:de:23:80:1f:37:c1:6f:2a:28:f0:cc:bd:a6:5c:a5:
         8b:91:8d:1c:ee:4a:f0:b3:3b:55:2a:68:8e:8a:3f:5e:4f:57:
         4a:29:f7:f6:36:2d:83:99:46:c4:9d:ab:66:7a:17:5e:af:5a:
         bf:24:48:7e:aa:ee:88:06:dd:0c:47:84:d8:4e:b5:05:fe:34:
         bb:81:1e:38:14:28:81:a3:be:52:a7:3a:5b:ac:41:39:3a:37:
         14:70:96:e2:1b:1d:2d:80:bb:ae:1c:bb:de:1e:57:30:32:f2:
         34:82:b1:82:34:cf:d0:1f:ff:1b:7c:2e:c5:e2:7e:8f:e0:36:
         22:ee:8e:82:1e:b5:79:21:85:98:61:aa:b9:fc:a3:7f:ae:a3:
         00:9d:44:5a:09:e3:c3:a0:b7:23:fc:e5:d7:33:09:a6:60:37:
         45:88:de:14:e2:d8:d9:5a:6b:54:2a:74:96:b4:3e:ff:1c:d5:
         1f:cd:7c:df:16:e7:ad:a5:9e:bb:56:0d:bf:8b:31:59:14:11:
         e6:c9:53:35:d4:23:1d:22:a7:0f:f5:50:a7:01:a9:c5:f3:c6:
         a1:5f:7d:92:6c:04:01:c9:da:87:54:3c:2e:84:1f:fb:80:ef:
         db:03:a4:4c:b4:28:e4:17:bb:42:9d:f2:8f:51:15:58:51:43:
         d8:ac:3f:c8:1c:83:3b:8a:7a:46:06:2b:6e:65:a0:98:c6:74:
         f0:4d:b4:46:42:06:0b:c8:6f:58:25:62:19:97:76:98:26:a9:
         be:1c:c6:5b:d7:31:ac:c7:4f:97:ac:c8:0f:03:0a:67:6d:ff:
         70:57:1a:54:1e:66:0e:24
-----BEGIN CERTIFICATE-----
MIIHSDCCBTCgAwIBAgICApMwDQYJKoZIhvcNAQEFBQAwgbQxCzAJBgNVBAYTAlVT
MQswCQYDVQQIEwJDQTEVMBMGA1UEBxMMU2FuRnJhbmNpc2NvMRUwEwYDVQQKEwxQ
aXhnbG8sIEluYy4xEDAOBgNVBAsTB1ZQTi1DSUUxGjAYBgNVBAMTEXR1bm5lbC5w
aXhnbG8uY29tMRwwGgYDVQQpExNCYWxhIENoYW5kcmFzZWthcmFuMR4wHAYJKoZI
hvcNAQkBFg9iYWxhQHBpeGdsby5jb20wHhcNMTgwMjE0MDYzOTQwWhcNMjgwMjEy
MDYzOTQwWjCBqTELMAkGA1UEBhMCVVMxCzAJBgNVBAgTAkNBMRUwEwYDVQQHEwxT
YW5GcmFuY2lzY28xFTATBgNVBAoTDFBpeGdsbywgSW5jLjEQMA4GA1UECxMHVlBO
LUNJRTEPMA0GA1UEAxMGY2llNjU4MRwwGgYDVQQpExNCYWxhIENoYW5kcmFzZWth
cmFuMR4wHAYJKoZIhvcNAQkBFg9iYWxhQHBpeGdsby5jb20wggIiMA0GCSqGSIb3
DQEBAQUAA4ICDwAwggIKAoICAQC99wp6gyiqZn6A621reS0vqfKK8O9Wlp54qTmE
k1uGALwL7WkV3LU0xqhrPhATMwc+ChHcJ6hAAAQf8cvYsvUvH0m/x2KfZThiyiPZ
popT4lBDjU14LsnNZToeVY4JYkV9SDEtt+H2ytww9/nOgYUtOBR/4TYIfbJ0jLwG
6GGtaIisbtFZ23GOJmEZNJu1MJd3ecXPeXcY344e1r2Nt/gcOrZ3LlD7pkWyqeNI
v/0Wm0iJTPUMvGS+UOUKkYmXLxoxsp9bSGSbmAN/vm1sxsdjODvoawDZWzgtAi38
s8WpkbMYJAT1uiRk02K4khhiGaN4FlMsKEJCD6aZTCT9QjTPRYQ7AcX5rYqal8jR
sx/HMTmRfwnlXCkRX+9aJNf/ZLJA6naGu1beQQWmEDNfVvAa9cJSw1QBqkVVMoAZ
K8F7zCtTCgVMqbZlqc2a1Dg9Omlk0JW9f7a79hhxF/EeScszDwrKOzhajflWn46/
eSU5KyO7lxTK6RClRlOQP+y811BCwuGzN3m0VlVTUImRNsRLf0kJQW1eZhRvv5tD
hyqlMlf7vlqC3mpTxVqAY1S5wLvY2BY3i17nsHybAha4TtJm6liXT6oQpn5++SlH
TcRIEak7PZ486Jg53tBkop/NWifNYNI+Wby5FjVSRWNht21RX2DzB1VE2o/GUoAz
wEwkDQIDAQABo4IBazCCAWcwCQYDVR0TBAIwADAtBglghkgBhvhCAQ0EIBYeRWFz
eS1SU0EgR2VuZXJhdGVkIENlcnRpZmljYXRlMB0GA1UdDgQWBBTomsyAkKBTwfnl
591t3TJ0AUt2dTCB6QYDVR0jBIHhMIHegBTvOI0UUFinW02cF3L837msp1GwEKGB
uqSBtzCBtDELMAkGA1UEBhMCVVMxCzAJBgNVBAgTAkNBMRUwEwYDVQQHEwxTYW5G
cmFuY2lzY28xFTATBgNVBAoTDFBpeGdsbywgSW5jLjEQMA4GA1UECxMHVlBOLUNJ
RTEaMBgGA1UEAxMRdHVubmVsLnBpeGdsby5jb20xHDAaBgNVBCkTE0JhbGEgQ2hh
bmRyYXNla2FyYW4xHjAcBgkqhkiG9w0BCQEWD2JhbGFAcGl4Z2xvLmNvbYIJAKbb
xoOA5qB5MBMGA1UdJQQMMAoGCCsGAQUFBwMCMAsGA1UdDwQEAwIHgDANBgkqhkiG
9w0BAQUFAAOCAgEAHLHHBliaE0KboUcODwbi4SyZYAWy0nzb3tMlYSCkjrBdOZbF
nyG8K7xe7IsFTI7u/4JZqkJMQMdHsCxxnkOUn1Tq4JxU4C8pk/iVjA6iGkRB7VrU
fwu63jinMCUiRvHTNoSwH3wVQjYuT53Lfc+GzGWRKCSNxQaJ+ukZZB5M2h5CsDbp
4yxo5KWqFgw5EIHMcXJE3rtFY07Vlp9jTARDr2cP9LOFvB0aoZRXUqGrhmR6eCyI
asRjqwQQD5FtAQVXPrBDS0IUgke33iOAHzfBbyoo8My9plyli5GNHO5K8LM7VSpo
joo/Xk9XSin39jYtg5lGxJ2rZnoXXq9avyRIfqruiAbdDEeE2E61Bf40u4EeOBQo
gaO+Uqc6W6xBOTo3FHCW4hsdLYC7rhy73h5XMDLyNIKxgjTP0B//G3wuxeJ+j+A2
Iu6Ogh61eSGFmGGqufyjf66jAJ1EWgnjw6C3I/zl1zMJpmA3RYjeFOLY2VprVCp0
lrQ+/xzVH8183xbnraWeu1YNv4sxWRQR5slTNdQjHSKnD/VQpwGpxfPGoV99kmwE
Acnah1Q8LoQf+4Dv2wOkTLQo5Be7Qp3yj1EVWFFD2Kw/yByDO4p6RgYrbmWgmMZ0
8E20RkIGC8hvWCViGZd2mCapvhzGW9cxrMdPl6zIDwMKZ23/cFcaVB5mDiQ=
-----END CERTIFICATE-----
