Certificate:
    Data:
        Version: 3 (0x2)
        Serial Number: 661 (0x295)
    Signature Algorithm: sha1WithRSAEncryption
        Issuer: C=US, ST=CA, L=SanFrancisco, O=Pixglo, Inc., OU=VPN-CIE, CN=tunnel.pixglo.com/name=Bala Chandrasekaran/emailAddress=bala@pixglo.com
        Validity
            Not Before: Feb 14 06:39:43 2018 GMT
            Not After : Feb 12 06:39:43 2028 GMT
        Subject: C=US, ST=CA, L=SanFrancisco, O=Pixglo, Inc., OU=VPN-CIE, CN=cie660/name=Bala Chandrasekaran/emailAddress=bala@pixglo.com
        Subject Public Key Info:
            Public Key Algorithm: rsaEncryption
                Public-Key: (4096 bit)
                Modulus:
                    00:e1:c5:6c:03:9d:46:4d:fb:4b:98:d5:b5:65:23:
                    11:9b:81:5c:50:71:66:7a:9e:c2:25:5e:03:14:f5:
                    57:55:6b:20:83:cb:80:2e:3a:d4:00:2a:d8:3e:6a:
                    4e:70:35:1d:74:e3:e7:ac:59:65:4f:79:41:ba:49:
                    8e:f1:f0:99:42:0a:c2:03:fc:04:e2:e4:5d:21:87:
                    a6:42:31:78:cf:21:6b:65:1d:e6:8a:5d:b8:61:58:
                    d2:db:fb:73:73:d4:b4:59:ea:c5:0f:de:48:a6:09:
                    0d:d7:18:c8:ad:fe:f7:22:02:9d:93:2e:72:9e:26:
                    27:11:9b:f3:f6:3b:45:47:16:48:85:18:b2:c1:36:
                    52:14:d0:91:91:a7:83:12:5f:e9:56:52:dd:39:b4:
                    b5:e0:b6:e9:b3:ee:15:0c:c6:e0:f1:72:0b:d0:c4:
                    27:38:7c:ec:fa:60:5b:d5:76:69:78:e7:58:4e:e3:
                    e9:04:26:b8:1d:c2:4e:b2:55:58:7b:86:c9:37:41:
                    aa:5c:e0:41:36:0d:17:9d:ca:71:c8:bd:34:22:c1:
                    fb:69:df:37:b1:01:6d:eb:af:f5:b8:67:7f:60:1f:
                    1b:dd:86:6b:90:d5:34:cb:b3:97:f8:e8:0b:81:29:
                    ea:b2:8e:f2:5b:76:e8:36:1d:f4:c4:23:d2:02:1f:
                    cb:77:e3:95:0d:e4:e1:17:50:73:af:6a:fd:a0:2b:
                    51:05:db:96:64:9b:eb:88:85:01:2e:4d:a6:c5:5b:
                    9a:8c:31:f0:11:18:d3:0e:c1:fe:2f:11:e9:98:86:
                    b2:38:8e:ef:0e:9d:05:fc:f2:31:ea:3f:9c:bc:c5:
                    62:35:2a:8c:4b:8b:de:d1:d0:39:b7:ac:31:55:91:
                    05:3a:d5:cf:ee:6d:59:30:82:e8:f5:1c:ed:87:e7:
                    97:ea:94:11:00:54:af:22:93:6c:4c:3e:3c:b9:a7:
                    b3:96:bf:7c:68:4a:b1:bf:1b:dc:b6:9c:4b:81:91:
                    2f:b3:fe:a5:a6:de:3c:02:50:1a:6f:f6:62:22:a1:
                    60:d4:85:78:9b:f8:59:15:ea:17:7b:27:5c:13:0e:
                    d9:b9:3a:23:24:6c:09:fc:3e:2f:b3:67:c8:c1:99:
                    e0:1f:5e:db:d9:fe:dc:89:7b:12:b0:47:5a:3d:78:
                    83:54:c1:c0:b7:a4:58:d9:31:c5:dd:29:e9:08:41:
                    94:57:62:42:d5:b8:22:15:b2:9c:bc:cf:ed:6c:d4:
                    9f:b3:fe:76:17:d5:15:74:ea:b5:15:af:7d:68:10:
                    73:c9:34:56:1e:21:68:24:02:95:29:fd:64:67:32:
                    82:37:19:2b:18:05:c7:f2:97:1a:20:73:67:e3:55:
                    c9:3e:5f
                Exponent: 65537 (0x10001)
        X509v3 extensions:
            X509v3 Basic Constraints: 
                CA:FALSE
            Netscape Comment: 
                Easy-RSA Generated Certificate
            X509v3 Subject Key Identifier: 
                64:C2:9C:44:E9:C3:87:16:DA:1D:D5:50:E2:9C:71:D2:F5:90:0E:42
            X509v3 Authority Key Identifier: 
                keyid:EF:38:8D:14:50:58:A7:5B:4D:9C:17:72:FC:DF:B9:AC:A7:51:B0:10
                DirName:/C=US/ST=CA/L=SanFrancisco/O=Pixglo, Inc./OU=VPN-CIE/CN=tunnel.pixglo.com/name=Bala Chandrasekaran/emailAddress=bala@pixglo.com
                serial:A6:DB:C6:83:80:E6:A0:79

            X509v3 Extended Key Usage: 
                TLS Web Client Authentication
            X509v3 Key Usage: 
                Digital Signature
    Signature Algorithm: sha1WithRSAEncryption
         a5:14:73:0e:9d:ea:a8:cd:cb:71:ac:73:b0:f5:78:d7:1a:33:
         a8:d3:ac:ce:7b:19:3f:1d:9c:33:d9:32:1d:01:5a:1a:15:1a:
         93:5a:e6:33:60:54:96:48:3b:6a:7c:93:1a:43:da:df:63:ff:
         ab:49:b8:b2:5b:97:09:1d:64:22:fc:69:fe:97:4e:9b:81:31:
         f9:45:92:ad:27:0a:c0:5f:4d:08:4b:35:5e:84:a6:81:8f:34:
         9b:6f:9e:15:d9:51:c5:9f:13:e9:38:a4:87:4a:fc:ff:e1:16:
         8c:39:ec:0b:66:2f:74:95:1b:87:c0:a5:1f:63:36:96:49:70:
         66:44:1e:a6:8f:95:bb:3c:b1:25:23:86:b9:14:ac:08:e7:ef:
         f8:df:e6:33:ac:7f:e7:62:8f:74:7c:1e:55:1e:e8:90:65:3e:
         2f:4b:aa:0e:69:67:0a:33:37:f3:18:a3:5b:39:a6:7e:c7:9e:
         01:ea:04:20:a3:a5:c6:a7:7e:a8:c0:ca:f8:32:62:2a:9d:e5:
         ba:fb:a9:3c:1a:39:1a:33:e9:e2:a6:0b:47:6e:60:b3:fc:da:
         7d:bd:0a:33:60:f4:61:b8:5a:d9:2f:23:b9:7f:71:52:36:bd:
         d8:13:52:ed:b2:5b:74:80:9f:c7:f6:3f:68:79:d8:84:fe:93:
         cd:23:89:e8:c6:26:e4:c1:02:01:f7:18:94:12:80:97:d4:09:
         16:b9:9f:54:a6:44:87:ea:bf:fb:a2:fb:4f:02:51:c1:57:4a:
         32:49:36:28:dd:5e:22:05:e4:b8:04:7e:cf:ab:5a:46:fb:3f:
         75:1d:4b:f8:9d:d7:ec:2b:9c:6c:2a:c8:58:4c:b9:f2:1d:19:
         db:50:06:a9:23:e4:ef:65:d6:1a:73:a3:70:9b:25:fe:67:c7:
         dc:13:a2:ff:07:92:3a:b6:89:df:e6:24:ab:f8:f5:76:d1:de:
         08:85:e7:7c:f9:05:c6:29:74:f8:63:d8:e7:54:66:ec:ea:86:
         42:62:7a:ef:c7:c2:51:2d:50:0a:c1:1e:3f:ae:f3:66:02:1e:
         a2:ff:b2:88:59:66:e0:40:18:b2:14:b9:c8:eb:78:10:3b:07:
         de:e5:53:32:12:20:aa:6b:38:b8:0a:78:27:43:67:ba:ca:81:
         c0:17:e3:d2:93:01:80:70:a3:b2:e1:c8:ec:ef:ca:b6:b1:c5:
         b9:69:80:03:22:83:0d:59:2f:17:78:e9:66:1f:dc:25:e4:78:
         37:1a:87:5e:15:a6:c9:cc:6c:20:89:68:e0:65:e7:73:96:1c:
         65:a1:8e:9b:4e:9f:dc:88:e1:85:96:eb:9c:b4:b0:74:ab:14:
         40:47:0b:dd:17:92:ec:db
-----BEGIN CERTIFICATE-----
MIIHSDCCBTCgAwIBAgICApUwDQYJKoZIhvcNAQEFBQAwgbQxCzAJBgNVBAYTAlVT
MQswCQYDVQQIEwJDQTEVMBMGA1UEBxMMU2FuRnJhbmNpc2NvMRUwEwYDVQQKEwxQ
aXhnbG8sIEluYy4xEDAOBgNVBAsTB1ZQTi1DSUUxGjAYBgNVBAMTEXR1bm5lbC5w
aXhnbG8uY29tMRwwGgYDVQQpExNCYWxhIENoYW5kcmFzZWthcmFuMR4wHAYJKoZI
hvcNAQkBFg9iYWxhQHBpeGdsby5jb20wHhcNMTgwMjE0MDYzOTQzWhcNMjgwMjEy
MDYzOTQzWjCBqTELMAkGA1UEBhMCVVMxCzAJBgNVBAgTAkNBMRUwEwYDVQQHEwxT
YW5GcmFuY2lzY28xFTATBgNVBAoTDFBpeGdsbywgSW5jLjEQMA4GA1UECxMHVlBO
LUNJRTEPMA0GA1UEAxMGY2llNjYwMRwwGgYDVQQpExNCYWxhIENoYW5kcmFzZWth
cmFuMR4wHAYJKoZIhvcNAQkBFg9iYWxhQHBpeGdsby5jb20wggIiMA0GCSqGSIb3
DQEBAQUAA4ICDwAwggIKAoICAQDhxWwDnUZN+0uY1bVlIxGbgVxQcWZ6nsIlXgMU
9VdVayCDy4AuOtQAKtg+ak5wNR104+esWWVPeUG6SY7x8JlCCsID/ATi5F0hh6ZC
MXjPIWtlHeaKXbhhWNLb+3Nz1LRZ6sUP3kimCQ3XGMit/vciAp2TLnKeJicRm/P2
O0VHFkiFGLLBNlIU0JGRp4MSX+lWUt05tLXgtumz7hUMxuDxcgvQxCc4fOz6YFvV
dml451hO4+kEJrgdwk6yVVh7hsk3Qapc4EE2DRedynHIvTQiwftp3zexAW3rr/W4
Z39gHxvdhmuQ1TTLs5f46AuBKeqyjvJbdug2HfTEI9ICH8t345UN5OEXUHOvav2g
K1EF25Zkm+uIhQEuTabFW5qMMfARGNMOwf4vEemYhrI4ju8OnQX88jHqP5y8xWI1
KoxLi97R0Dm3rDFVkQU61c/ubVkwguj1HO2H55fqlBEAVK8ik2xMPjy5p7OWv3xo
SrG/G9y2nEuBkS+z/qWm3jwCUBpv9mIioWDUhXib+FkV6hd7J1wTDtm5OiMkbAn8
Pi+zZ8jBmeAfXtvZ/tyJexKwR1o9eINUwcC3pFjZMcXdKekIQZRXYkLVuCIVspy8
z+1s1J+z/nYX1RV06rUVr31oEHPJNFYeIWgkApUp/WRnMoI3GSsYBcfylxogc2fj
Vck+XwIDAQABo4IBazCCAWcwCQYDVR0TBAIwADAtBglghkgBhvhCAQ0EIBYeRWFz
eS1SU0EgR2VuZXJhdGVkIENlcnRpZmljYXRlMB0GA1UdDgQWBBRkwpxE6cOHFtod
1VDinHHS9ZAOQjCB6QYDVR0jBIHhMIHegBTvOI0UUFinW02cF3L837msp1GwEKGB
uqSBtzCBtDELMAkGA1UEBhMCVVMxCzAJBgNVBAgTAkNBMRUwEwYDVQQHEwxTYW5G
cmFuY2lzY28xFTATBgNVBAoTDFBpeGdsbywgSW5jLjEQMA4GA1UECxMHVlBOLUNJ
RTEaMBgGA1UEAxMRdHVubmVsLnBpeGdsby5jb20xHDAaBgNVBCkTE0JhbGEgQ2hh
bmRyYXNla2FyYW4xHjAcBgkqhkiG9w0BCQEWD2JhbGFAcGl4Z2xvLmNvbYIJAKbb
xoOA5qB5MBMGA1UdJQQMMAoGCCsGAQUFBwMCMAsGA1UdDwQEAwIHgDANBgkqhkiG
9w0BAQUFAAOCAgEApRRzDp3qqM3LcaxzsPV41xozqNOsznsZPx2cM9kyHQFaGhUa
k1rmM2BUlkg7anyTGkPa32P/q0m4sluXCR1kIvxp/pdOm4Ex+UWSrScKwF9NCEs1
XoSmgY80m2+eFdlRxZ8T6Tikh0r8/+EWjDnsC2YvdJUbh8ClH2M2lklwZkQepo+V
uzyxJSOGuRSsCOfv+N/mM6x/52KPdHweVR7okGU+L0uqDmlnCjM38xijWzmmfsee
AeoEIKOlxqd+qMDK+DJiKp3luvupPBo5GjPp4qYLR25gs/zafb0KM2D0Ybha2S8j
uX9xUja92BNS7bJbdICfx/Y/aHnYhP6TzSOJ6MYm5MECAfcYlBKAl9QJFrmfVKZE
h+q/+6L7TwJRwVdKMkk2KN1eIgXkuAR+z6taRvs/dR1L+J3X7CucbCrIWEy58h0Z
21AGqSPk72XWGnOjcJsl/mfH3BOi/weSOraJ3+Ykq/j1dtHeCIXnfPkFxil0+GPY
51Rm7OqGQmJ678fCUS1QCsEeP67zZgIeov+yiFlm4EAYshS5yOt4EDsH3uVTMhIg
qms4uAp4J0NnusqBwBfj0pMBgHCjsuHI7O/KtrHFuWmAAyKDDVkvF3jpZh/cJeR4
NxqHXhWmycxsIIlo4GXnc5YcZaGOm06f3IjhhZbrnLSwdKsUQEcL3ReS7Ns=
-----END CERTIFICATE-----
