Certificate:
    Data:
        Version: 3 (0x2)
        Serial Number: 662 (0x296)
    Signature Algorithm: sha1WithRSAEncryption
        Issuer: C=US, ST=CA, L=SanFrancisco, O=Pixglo, Inc., OU=VPN-CIE, CN=tunnel.pixglo.com/name=Bala Chandrasekaran/emailAddress=bala@pixglo.com
        Validity
            Not Before: Feb 14 06:39:44 2018 GMT
            Not After : Feb 12 06:39:44 2028 GMT
        Subject: C=US, ST=CA, L=SanFrancisco, O=Pixglo, Inc., OU=VPN-CIE, CN=cie661/name=Bala Chandrasekaran/emailAddress=bala@pixglo.com
        Subject Public Key Info:
            Public Key Algorithm: rsaEncryption
                Public-Key: (4096 bit)
                Modulus:
                    00:ed:e4:74:f7:21:2e:0d:28:0c:ca:94:49:3d:0d:
                    bc:0b:86:6d:d5:64:70:f6:4a:6e:d2:66:ce:90:b4:
                    bd:22:b7:0a:89:b4:57:d5:3b:df:f2:b2:3e:1d:41:
                    88:36:7c:90:1a:9f:0c:d8:b4:6a:15:9a:e7:08:b9:
                    d8:22:9b:24:e3:b9:39:e3:b4:4a:b6:19:f7:97:c6:
                    4b:2a:e4:ae:be:dd:09:b6:55:b6:75:f6:33:ae:9e:
                    68:8e:4f:fe:11:01:a2:a5:91:c8:ac:f1:2a:39:c3:
                    e4:dc:a2:44:ee:34:8b:db:a1:ff:45:0d:b9:5d:04:
                    93:54:16:76:b7:a6:47:3a:06:6e:ba:63:36:c6:85:
                    cb:9f:00:b3:45:2c:e8:6f:09:28:64:2e:d1:75:3d:
                    a9:44:59:2e:2d:82:e1:42:8c:22:86:97:03:9e:06:
                    09:de:9d:30:44:99:a1:08:56:e9:e3:6e:27:08:ed:
                    7d:bf:49:14:35:9d:02:8f:80:71:54:51:ca:50:f8:
                    90:79:7e:31:78:28:68:33:d7:d1:2d:df:99:ed:8b:
                    dc:07:56:83:25:b2:e1:fe:ec:5a:01:81:0e:c0:57:
                    f7:9a:e2:1c:61:c4:c3:ee:ed:07:2f:0c:7b:4a:43:
                    18:d7:a6:b0:0d:e2:66:4c:2c:8b:3f:61:af:53:94:
                    98:5d:46:aa:d1:a9:02:6e:16:84:93:af:7e:71:17:
                    86:d3:d4:46:cf:bd:79:65:98:be:97:bf:c3:9b:52:
                    37:2b:f9:fb:fa:98:55:ce:f1:b2:74:64:5e:dc:63:
                    e9:df:05:07:af:ff:6e:6e:3b:20:8a:a2:03:6b:2d:
                    92:cf:5d:cb:a0:65:90:04:e6:1e:41:c6:d5:f1:74:
                    4b:75:bc:40:5e:c6:e9:23:5c:09:62:69:2f:62:3d:
                    80:7f:ef:91:b6:d8:f7:1e:15:14:7c:45:6c:b6:96:
                    29:29:c2:18:21:dd:68:de:14:17:1f:8f:ed:5a:dd:
                    02:78:d9:fd:ad:74:e7:1a:df:cb:17:6f:6a:58:99:
                    52:4f:46:42:64:8d:d9:1f:e3:c1:c1:b0:3a:18:85:
                    1e:b3:df:ba:17:f5:30:82:d3:0d:84:42:d7:e1:1f:
                    de:ec:04:1a:d2:b3:8f:49:38:9f:19:97:4d:e5:c7:
                    d5:9b:a4:3a:80:95:27:fb:f6:f4:98:ef:4f:56:b9:
                    2e:f3:d3:bf:dc:a4:5c:e9:78:a3:5a:b0:b7:b5:a7:
                    4f:ad:37:26:29:3a:90:b7:be:31:fc:c3:68:fc:26:
                    c7:7e:b2:3b:27:94:4d:b9:a0:42:12:a6:9f:b6:d4:
                    49:9c:4d:19:12:09:0e:fc:a9:5b:7f:d8:ba:91:a4:
                    f5:61:fd
                Exponent: 65537 (0x10001)
        X509v3 extensions:
            X509v3 Basic Constraints: 
                CA:FALSE
            Netscape Comment: 
                Easy-RSA Generated Certificate
            X509v3 Subject Key Identifier: 
                B8:69:31:CF:1D:7A:93:46:EA:A3:44:47:D2:BE:21:FE:4D:01:DB:4B
            X509v3 Authority Key Identifier: 
                keyid:EF:38:8D:14:50:58:A7:5B:4D:9C:17:72:FC:DF:B9:AC:A7:51:B0:10
                DirName:/C=US/ST=CA/L=SanFrancisco/O=Pixglo, Inc./OU=VPN-CIE/CN=tunnel.pixglo.com/name=Bala Chandrasekaran/emailAddress=bala@pixglo.com
                serial:A6:DB:C6:83:80:E6:A0:79

            X509v3 Extended Key Usage: 
                TLS Web Client Authentication
            X509v3 Key Usage: 
                Digital Signature
    Signature Algorithm: sha1WithRSAEncryption
         70:73:b4:26:dc:14:61:22:6c:45:d3:62:58:67:8d:66:bc:a8:
         c7:45:21:aa:5f:1b:d3:53:40:62:04:bf:32:26:80:01:04:9a:
         22:9d:82:c2:c3:1d:ba:a3:54:de:21:3e:e3:49:9f:2a:e0:cc:
         d3:94:0d:56:68:9c:22:63:e0:96:ac:26:3e:96:f0:50:e1:75:
         a8:f9:f4:91:68:32:ad:50:d7:b2:40:9c:ef:75:99:6e:71:3a:
         17:9f:b9:b4:44:61:3d:c4:70:90:36:02:d4:61:9e:f6:c5:17:
         34:8e:65:fd:21:6e:88:b6:cc:b9:3f:80:62:0f:a9:07:9d:ef:
         51:c4:4a:52:0a:1f:71:9d:91:57:b2:5e:c8:9b:ab:99:00:a1:
         4d:ae:b2:3a:4f:c0:ae:b0:97:97:5f:76:2d:07:03:d1:6c:ef:
         5b:db:3e:45:bf:e7:de:6d:25:dc:7d:a5:ca:c5:ce:63:e6:7f:
         f1:4f:4d:44:81:10:dd:80:52:6e:4b:b3:31:92:58:aa:2b:71:
         05:6e:ee:75:48:9a:bd:7f:3a:8d:fb:f1:dc:87:71:c6:c5:ee:
         8d:07:37:eb:93:e8:2c:f9:48:d4:3e:35:70:23:d1:62:50:d4:
         6e:ee:81:5c:6e:8e:5c:13:11:fe:71:84:7e:35:83:07:8d:81:
         4f:92:33:33:36:c1:f0:8c:ea:de:f1:9b:3f:82:fd:29:ff:c5:
         9c:cf:30:6d:02:81:7e:ed:53:68:44:57:f2:0e:5a:41:d3:81:
         7b:dc:9b:3f:95:26:c0:51:b4:f1:5a:f3:03:a0:0d:ea:0a:71:
         34:de:2d:14:bb:34:36:71:61:a2:a5:a1:81:89:a7:dd:12:8a:
         44:fc:7a:44:d2:0f:4a:9d:ce:17:38:5c:fb:e6:72:bd:a6:b2:
         f0:8e:8a:d8:be:ff:47:c4:8c:5f:92:ad:28:d0:b5:63:3d:63:
         b3:45:d1:b8:6a:33:f2:80:ff:54:3d:bf:ea:72:a4:9e:ce:b9:
         f5:6d:e2:e2:55:fb:c7:f3:87:df:cf:c2:dc:8c:8a:7c:d9:42:
         63:1b:d6:bb:78:50:db:c3:9e:e6:7d:94:48:b5:3f:ea:0e:b9:
         22:5f:04:44:90:8e:3f:cc:77:2a:70:68:8e:55:52:6b:5f:41:
         a3:e9:e9:03:59:f0:23:8f:2f:b6:30:e2:a3:4e:7b:fa:d2:a3:
         82:c0:52:99:95:8c:01:67:a7:04:5f:1c:39:69:9b:50:50:e8:
         23:f2:de:a9:6f:4b:a2:1c:ab:42:f0:3d:9c:60:49:8e:ac:75:
         4a:46:21:fc:48:3a:e0:13:6f:52:d8:af:8d:b4:b9:30:d4:8d:
         15:69:63:b8:7a:2f:8f:01
-----BEGIN CERTIFICATE-----
MIIHSDCCBTCgAwIBAgICApYwDQYJKoZIhvcNAQEFBQAwgbQxCzAJBgNVBAYTAlVT
MQswCQYDVQQIEwJDQTEVMBMGA1UEBxMMU2FuRnJhbmNpc2NvMRUwEwYDVQQKEwxQ
aXhnbG8sIEluYy4xEDAOBgNVBAsTB1ZQTi1DSUUxGjAYBgNVBAMTEXR1bm5lbC5w
aXhnbG8uY29tMRwwGgYDVQQpExNCYWxhIENoYW5kcmFzZWthcmFuMR4wHAYJKoZI
hvcNAQkBFg9iYWxhQHBpeGdsby5jb20wHhcNMTgwMjE0MDYzOTQ0WhcNMjgwMjEy
MDYzOTQ0WjCBqTELMAkGA1UEBhMCVVMxCzAJBgNVBAgTAkNBMRUwEwYDVQQHEwxT
YW5GcmFuY2lzY28xFTATBgNVBAoTDFBpeGdsbywgSW5jLjEQMA4GA1UECxMHVlBO
LUNJRTEPMA0GA1UEAxMGY2llNjYxMRwwGgYDVQQpExNCYWxhIENoYW5kcmFzZWth
cmFuMR4wHAYJKoZIhvcNAQkBFg9iYWxhQHBpeGdsby5jb20wggIiMA0GCSqGSIb3
DQEBAQUAA4ICDwAwggIKAoICAQDt5HT3IS4NKAzKlEk9DbwLhm3VZHD2Sm7SZs6Q
tL0itwqJtFfVO9/ysj4dQYg2fJAanwzYtGoVmucIudgimyTjuTnjtEq2GfeXxksq
5K6+3Qm2VbZ19jOunmiOT/4RAaKlkcis8So5w+TcokTuNIvbof9FDbldBJNUFna3
pkc6Bm66YzbGhcufALNFLOhvCShkLtF1PalEWS4tguFCjCKGlwOeBgnenTBEmaEI
VunjbicI7X2/SRQ1nQKPgHFUUcpQ+JB5fjF4KGgz19Et35nti9wHVoMlsuH+7FoB
gQ7AV/ea4hxhxMPu7QcvDHtKQxjXprAN4mZMLIs/Ya9TlJhdRqrRqQJuFoSTr35x
F4bT1EbPvXllmL6Xv8ObUjcr+fv6mFXO8bJ0ZF7cY+nfBQev/25uOyCKogNrLZLP
XcugZZAE5h5BxtXxdEt1vEBexukjXAliaS9iPYB/75G22PceFRR8RWy2likpwhgh
3WjeFBcfj+1a3QJ42f2tdOca38sXb2pYmVJPRkJkjdkf48HBsDoYhR6z37oX9TCC
0w2EQtfhH97sBBrSs49JOJ8Zl03lx9WbpDqAlSf79vSY709WuS7z07/cpFzpeKNa
sLe1p0+tNyYpOpC3vjH8w2j8Jsd+sjsnlE25oEISpp+21EmcTRkSCQ78qVt/2LqR
pPVh/QIDAQABo4IBazCCAWcwCQYDVR0TBAIwADAtBglghkgBhvhCAQ0EIBYeRWFz
eS1SU0EgR2VuZXJhdGVkIENlcnRpZmljYXRlMB0GA1UdDgQWBBS4aTHPHXqTRuqj
REfSviH+TQHbSzCB6QYDVR0jBIHhMIHegBTvOI0UUFinW02cF3L837msp1GwEKGB
uqSBtzCBtDELMAkGA1UEBhMCVVMxCzAJBgNVBAgTAkNBMRUwEwYDVQQHEwxTYW5G
cmFuY2lzY28xFTATBgNVBAoTDFBpeGdsbywgSW5jLjEQMA4GA1UECxMHVlBOLUNJ
RTEaMBgGA1UEAxMRdHVubmVsLnBpeGdsby5jb20xHDAaBgNVBCkTE0JhbGEgQ2hh
bmRyYXNla2FyYW4xHjAcBgkqhkiG9w0BCQEWD2JhbGFAcGl4Z2xvLmNvbYIJAKbb
xoOA5qB5MBMGA1UdJQQMMAoGCCsGAQUFBwMCMAsGA1UdDwQEAwIHgDANBgkqhkiG
9w0BAQUFAAOCAgEAcHO0JtwUYSJsRdNiWGeNZryox0Uhql8b01NAYgS/MiaAAQSa
Ip2CwsMduqNU3iE+40mfKuDM05QNVmicImPglqwmPpbwUOF1qPn0kWgyrVDXskCc
73WZbnE6F5+5tERhPcRwkDYC1GGe9sUXNI5l/SFuiLbMuT+AYg+pB53vUcRKUgof
cZ2RV7JeyJurmQChTa6yOk/ArrCXl192LQcD0WzvW9s+Rb/n3m0l3H2lysXOY+Z/
8U9NRIEQ3YBSbkuzMZJYqitxBW7udUiavX86jfvx3IdxxsXujQc365PoLPlI1D41
cCPRYlDUbu6BXG6OXBMR/nGEfjWDB42BT5IzMzbB8Izq3vGbP4L9Kf/FnM8wbQKB
fu1TaERX8g5aQdOBe9ybP5UmwFG08VrzA6AN6gpxNN4tFLs0NnFhoqWhgYmn3RKK
RPx6RNIPSp3OFzhc++Zyvaay8I6K2L7/R8SMX5KtKNC1Yz1js0XRuGoz8oD/VD2/
6nKkns659W3i4lX7x/OH38/C3IyKfNlCYxvWu3hQ28Oe5n2USLU/6g65Il8ERJCO
P8x3KnBojlVSa19Bo+npA1nwI48vtjDio057+tKjgsBSmZWMAWenBF8cOWmbUFDo
I/LeqW9LohyrQvA9nGBJjqx1SkYh/Eg64BNvUtivjbS5MNSNFWljuHovjwE=
-----END CERTIFICATE-----
