Certificate:
    Data:
        Version: 3 (0x2)
        Serial Number: 663 (0x297)
    Signature Algorithm: sha1WithRSAEncryption
        Issuer: C=US, ST=CA, L=SanFrancisco, O=Pixglo, Inc., OU=VPN-CIE, CN=tunnel.pixglo.com/name=Bala Chandrasekaran/emailAddress=bala@pixglo.com
        Validity
            Not Before: Feb 14 06:39:46 2018 GMT
            Not After : Feb 12 06:39:46 2028 GMT
        Subject: C=US, ST=CA, L=SanFrancisco, O=Pixglo, Inc., OU=VPN-CIE, CN=cie662/name=Bala Chandrasekaran/emailAddress=bala@pixglo.com
        Subject Public Key Info:
            Public Key Algorithm: rsaEncryption
                Public-Key: (4096 bit)
                Modulus:
                    00:d2:bd:8b:c4:d6:d5:e5:cf:94:99:c4:d5:c2:49:
                    2b:34:ec:0f:2b:3a:fe:d1:ff:46:1b:c2:03:01:88:
                    9a:9c:16:24:09:c5:ec:b5:3b:f1:a4:a8:72:20:5f:
                    4f:e8:cd:7c:d6:bc:72:5f:45:2e:ad:06:d7:9a:b4:
                    b9:27:c1:79:07:a1:b5:39:c0:7b:f2:18:84:94:98:
                    60:8a:2c:c8:2b:16:c1:12:52:91:83:5a:fb:db:d7:
                    58:d3:98:ce:98:58:35:a7:b5:04:70:06:de:d9:2d:
                    bb:8d:d3:5f:f9:89:8a:d9:36:6f:8d:50:12:1e:dc:
                    51:fe:d5:20:96:5d:97:3b:f2:23:7c:43:df:87:89:
                    21:c1:02:b4:84:e5:f0:2c:9d:f4:99:25:28:e0:ba:
                    2c:2a:54:9a:2a:be:60:42:71:8c:d8:a8:6e:17:58:
                    f0:5b:bf:8d:83:04:ab:b3:83:fc:b5:24:18:2c:d0:
                    32:eb:ce:87:20:4c:2a:c4:75:e7:45:5b:a5:d2:96:
                    df:dd:fd:fb:e5:8f:56:b4:2b:96:cf:49:da:9d:ee:
                    e9:4a:39:d0:55:ef:be:d8:41:1e:86:0b:6e:ae:b2:
                    4f:e9:13:89:fa:36:8e:30:68:09:de:55:70:a5:97:
                    0c:38:0c:25:51:28:f9:c8:dd:11:d4:e1:87:5c:0a:
                    c2:83:90:61:42:14:cc:ee:4a:e0:34:fc:17:27:73:
                    4a:08:63:46:2d:3c:f1:81:22:70:15:ef:28:d5:0a:
                    65:5f:7a:a5:26:59:6c:7f:da:80:b1:5f:00:45:0e:
                    4b:3d:c9:94:0b:96:d6:67:ca:08:b9:57:5d:b4:16:
                    19:78:48:75:eb:e2:fd:1c:0f:cd:59:e0:62:d6:aa:
                    93:e7:3c:bd:49:87:e9:d5:81:26:7c:8a:3c:ab:9f:
                    62:da:9b:95:2a:89:bb:5e:df:b1:4d:e5:f1:89:24:
                    78:b1:7f:92:e1:3b:15:ef:dc:d3:c6:12:ff:fc:d4:
                    60:55:51:0e:1d:aa:a3:60:af:de:08:06:23:a2:82:
                    06:ba:56:ca:d3:8e:8d:33:2c:b5:5f:ea:49:ef:d8:
                    95:26:3c:df:89:df:0c:16:2d:a8:23:ef:ee:b5:f9:
                    a6:d4:c9:88:ed:10:3b:79:89:11:c4:1d:8d:b3:ce:
                    4f:d3:b2:b5:2e:93:82:15:c2:b3:fd:a3:d4:aa:f1:
                    15:f6:b3:84:e8:b0:aa:0e:c7:70:3d:c3:79:4f:03:
                    cd:6c:80:54:27:68:d6:f9:a8:32:fe:a4:57:28:39:
                    64:90:aa:49:3e:fe:e4:95:48:b4:ea:1b:41:a6:f5:
                    4d:fa:95:b2:c1:7c:4a:a8:a0:25:66:f1:e7:fa:2b:
                    1d:e6:ed
                Exponent: 65537 (0x10001)
        X509v3 extensions:
            X509v3 Basic Constraints: 
                CA:FALSE
            Netscape Comment: 
                Easy-RSA Generated Certificate
            X509v3 Subject Key Identifier: 
                CA:0F:3A:83:78:D7:56:87:1E:98:40:6B:64:31:D6:96:94:DA:7B:BD
            X509v3 Authority Key Identifier: 
                keyid:EF:38:8D:14:50:58:A7:5B:4D:9C:17:72:FC:DF:B9:AC:A7:51:B0:10
                DirName:/C=US/ST=CA/L=SanFrancisco/O=Pixglo, Inc./OU=VPN-CIE/CN=tunnel.pixglo.com/name=Bala Chandrasekaran/emailAddress=bala@pixglo.com
                serial:A6:DB:C6:83:80:E6:A0:79

            X509v3 Extended Key Usage: 
                TLS Web Client Authentication
            X509v3 Key Usage: 
                Digital Signature
    Signature Algorithm: sha1WithRSAEncryption
         aa:3f:b2:42:73:79:b3:79:54:cf:0e:eb:a1:b6:84:dc:64:66:
         f0:6f:bb:6c:ea:14:fe:01:3c:c1:e8:2f:76:d7:13:0d:7f:98:
         34:15:30:5c:74:b5:a8:87:0f:d2:15:a7:58:0b:22:6f:b0:bb:
         a6:73:37:81:cd:f9:d6:ff:02:4e:5e:be:5a:20:73:93:2d:e2:
         04:54:1e:1e:55:b0:32:6e:b1:9c:cf:01:77:71:e4:c2:4d:a7:
         de:f5:4b:48:ae:bf:92:43:b1:1f:07:a7:b1:05:f3:69:af:c3:
         c7:61:bf:29:db:81:0b:ad:9b:4d:19:f7:ca:24:fc:e7:e3:36:
         b3:4c:94:5a:d5:7a:f0:e6:22:fb:85:0b:7d:0f:e1:79:0d:c2:
         3f:89:32:71:d2:84:9f:bc:10:bc:d6:19:b3:68:b9:0a:04:50:
         a0:77:96:05:f1:fa:8d:98:0b:47:c3:26:fe:a8:92:7a:15:80:
         35:17:43:4f:43:94:3f:ce:fe:9a:b1:68:18:89:81:11:81:f3:
         b3:bb:11:31:5b:7b:20:03:8a:1d:5e:dd:61:5d:82:53:ac:68:
         7b:b6:98:7d:a0:32:2f:b7:9a:1c:e6:ab:87:c5:10:d6:41:b8:
         17:11:c9:b9:4b:1f:bd:61:2a:42:c0:3c:22:ab:85:7c:cb:27:
         19:30:da:c1:f5:73:f2:17:6c:be:95:49:83:10:7d:5c:fb:85:
         f0:6a:b9:1a:2a:20:7d:43:34:bc:47:0b:9f:79:65:a8:8b:d2:
         e9:e8:42:8f:a7:62:21:9b:0b:ea:a4:90:76:0e:a0:00:a9:3a:
         4f:33:02:44:d8:19:83:c8:e2:12:33:ca:69:2d:17:9d:b7:78:
         d7:ee:18:5b:7c:24:32:6d:af:c3:8e:e4:c4:8a:b8:64:39:b3:
         5b:c9:2c:60:20:38:f2:b6:fc:9d:e2:fa:4d:5f:f6:1d:08:87:
         9c:dc:45:00:43:9b:13:67:49:16:10:34:4c:28:26:33:9e:4f:
         f9:e8:69:a6:7d:b0:02:8e:b5:2f:ff:1a:82:87:03:eb:41:e3:
         82:f3:a5:04:7b:cd:59:5e:1e:69:01:7d:da:af:c5:54:32:23:
         78:7b:96:88:ae:ad:3f:ed:9c:bb:86:9f:2f:c4:3d:28:92:d8:
         03:75:d4:e4:ed:04:6b:2e:25:37:7f:25:a5:c6:3c:15:14:27:
         02:9d:35:40:cf:cb:9c:7e:8a:e0:b9:e5:ea:84:00:29:87:a3:
         51:77:c0:dc:27:9a:0f:f7:89:b8:71:16:69:93:1d:4d:d6:78:
         e6:8a:4b:95:b6:42:f1:36:80:aa:fa:6e:69:a5:58:10:1f:83:
         e4:b4:86:20:ab:93:ab:af
-----BEGIN CERTIFICATE-----
MIIHSDCCBTCgAwIBAgICApcwDQYJKoZIhvcNAQEFBQAwgbQxCzAJBgNVBAYTAlVT
MQswCQYDVQQIEwJDQTEVMBMGA1UEBxMMU2FuRnJhbmNpc2NvMRUwEwYDVQQKEwxQ
aXhnbG8sIEluYy4xEDAOBgNVBAsTB1ZQTi1DSUUxGjAYBgNVBAMTEXR1bm5lbC5w
aXhnbG8uY29tMRwwGgYDVQQpExNCYWxhIENoYW5kcmFzZWthcmFuMR4wHAYJKoZI
hvcNAQkBFg9iYWxhQHBpeGdsby5jb20wHhcNMTgwMjE0MDYzOTQ2WhcNMjgwMjEy
MDYzOTQ2WjCBqTELMAkGA1UEBhMCVVMxCzAJBgNVBAgTAkNBMRUwEwYDVQQHEwxT
YW5GcmFuY2lzY28xFTATBgNVBAoTDFBpeGdsbywgSW5jLjEQMA4GA1UECxMHVlBO
LUNJRTEPMA0GA1UEAxMGY2llNjYyMRwwGgYDVQQpExNCYWxhIENoYW5kcmFzZWth
cmFuMR4wHAYJKoZIhvcNAQkBFg9iYWxhQHBpeGdsby5jb20wggIiMA0GCSqGSIb3
DQEBAQUAA4ICDwAwggIKAoICAQDSvYvE1tXlz5SZxNXCSSs07A8rOv7R/0YbwgMB
iJqcFiQJxey1O/GkqHIgX0/ozXzWvHJfRS6tBteatLknwXkHobU5wHvyGISUmGCK
LMgrFsESUpGDWvvb11jTmM6YWDWntQRwBt7ZLbuN01/5iYrZNm+NUBIe3FH+1SCW
XZc78iN8Q9+HiSHBArSE5fAsnfSZJSjguiwqVJoqvmBCcYzYqG4XWPBbv42DBKuz
g/y1JBgs0DLrzocgTCrEdedFW6XSlt/d/fvlj1a0K5bPSdqd7ulKOdBV777YQR6G
C26usk/pE4n6No4waAneVXCllww4DCVRKPnI3RHU4YdcCsKDkGFCFMzuSuA0/Bcn
c0oIY0YtPPGBInAV7yjVCmVfeqUmWWx/2oCxXwBFDks9yZQLltZnygi5V120Fhl4
SHXr4v0cD81Z4GLWqpPnPL1Jh+nVgSZ8ijyrn2Lam5Uqibte37FN5fGJJHixf5Lh
OxXv3NPGEv/81GBVUQ4dqqNgr94IBiOigga6VsrTjo0zLLVf6knv2JUmPN+J3wwW
Lagj7+61+abUyYjtEDt5iRHEHY2zzk/TsrUuk4IVwrP9o9Sq8RX2s4TosKoOx3A9
w3lPA81sgFQnaNb5qDL+pFcoOWSQqkk+/uSVSLTqG0Gm9U36lbLBfEqooCVm8ef6
Kx3m7QIDAQABo4IBazCCAWcwCQYDVR0TBAIwADAtBglghkgBhvhCAQ0EIBYeRWFz
eS1SU0EgR2VuZXJhdGVkIENlcnRpZmljYXRlMB0GA1UdDgQWBBTKDzqDeNdWhx6Y
QGtkMdaWlNp7vTCB6QYDVR0jBIHhMIHegBTvOI0UUFinW02cF3L837msp1GwEKGB
uqSBtzCBtDELMAkGA1UEBhMCVVMxCzAJBgNVBAgTAkNBMRUwEwYDVQQHEwxTYW5G
cmFuY2lzY28xFTATBgNVBAoTDFBpeGdsbywgSW5jLjEQMA4GA1UECxMHVlBOLUNJ
RTEaMBgGA1UEAxMRdHVubmVsLnBpeGdsby5jb20xHDAaBgNVBCkTE0JhbGEgQ2hh
bmRyYXNla2FyYW4xHjAcBgkqhkiG9w0BCQEWD2JhbGFAcGl4Z2xvLmNvbYIJAKbb
xoOA5qB5MBMGA1UdJQQMMAoGCCsGAQUFBwMCMAsGA1UdDwQEAwIHgDANBgkqhkiG
9w0BAQUFAAOCAgEAqj+yQnN5s3lUzw7robaE3GRm8G+7bOoU/gE8wegvdtcTDX+Y
NBUwXHS1qIcP0hWnWAsib7C7pnM3gc351v8CTl6+WiBzky3iBFQeHlWwMm6xnM8B
d3Hkwk2n3vVLSK6/kkOxHwensQXzaa/Dx2G/KduBC62bTRn3yiT85+M2s0yUWtV6
8OYi+4ULfQ/heQ3CP4kycdKEn7wQvNYZs2i5CgRQoHeWBfH6jZgLR8Mm/qiSehWA
NRdDT0OUP87+mrFoGImBEYHzs7sRMVt7IAOKHV7dYV2CU6xoe7aYfaAyL7eaHOar
h8UQ1kG4FxHJuUsfvWEqQsA8IquFfMsnGTDawfVz8hdsvpVJgxB9XPuF8Gq5Giog
fUM0vEcLn3llqIvS6ehCj6diIZsL6qSQdg6gAKk6TzMCRNgZg8jiEjPKaS0Xnbd4
1+4YW3wkMm2vw47kxIq4ZDmzW8ksYCA48rb8neL6TV/2HQiHnNxFAEObE2dJFhA0
TCgmM55P+ehppn2wAo61L/8agocD60HjgvOlBHvNWV4eaQF92q/FVDIjeHuWiK6t
P+2cu4afL8Q9KJLYA3XU5O0Eay4lN38lpcY8FRQnAp01QM/LnH6K4Lnl6oQAKYej
UXfA3CeaD/eJuHEWaZMdTdZ45opLlbZC8TaAqvpuaaVYEB+D5LSGIKuTq68=
-----END CERTIFICATE-----
