Certificate:
    Data:
        Version: 3 (0x2)
        Serial Number: 665 (0x299)
    Signature Algorithm: sha1WithRSAEncryption
        Issuer: C=US, ST=CA, L=SanFrancisco, O=Pixglo, Inc., OU=VPN-CIE, CN=tunnel.pixglo.com/name=Bala Chandrasekaran/emailAddress=bala@pixglo.com
        Validity
            Not Before: Feb 14 06:39:48 2018 GMT
            Not After : Feb 12 06:39:48 2028 GMT
        Subject: C=US, ST=CA, L=SanFrancisco, O=Pixglo, Inc., OU=VPN-CIE, CN=cie664/name=Bala Chandrasekaran/emailAddress=bala@pixglo.com
        Subject Public Key Info:
            Public Key Algorithm: rsaEncryption
                Public-Key: (4096 bit)
                Modulus:
                    00:df:2f:aa:eb:98:1a:95:d4:ee:81:54:97:9c:26:
                    e4:ab:13:d3:c1:6a:3a:d9:e6:04:d0:6a:8e:9a:ef:
                    d2:ed:1d:18:9a:18:76:40:29:57:d3:c3:0e:b3:ce:
                    5f:1a:a9:3d:3a:96:75:d9:38:b1:9d:95:87:f3:1b:
                    8c:1a:1b:ab:7f:1f:33:7c:4a:2c:95:76:02:8a:49:
                    d5:b1:f4:68:36:73:11:bd:b7:a3:33:de:3b:c2:1b:
                    9b:b6:61:eb:e6:c9:e2:8f:4a:5d:84:db:3a:f1:58:
                    88:71:e6:f3:2a:75:4d:5b:4c:fe:29:71:ef:c3:d5:
                    c1:f6:dc:24:ce:a0:24:53:ae:e4:7b:4e:76:0b:0b:
                    1d:8e:0a:28:b9:23:b7:6f:47:8f:a6:e8:f0:8f:35:
                    b7:af:c7:96:49:fc:1a:7f:84:92:ca:c5:10:2f:64:
                    b1:d8:0f:8f:6b:9c:c4:23:50:93:d0:c5:82:f3:97:
                    f1:40:00:d2:16:f1:b2:69:49:53:e6:e0:40:5d:84:
                    42:e6:af:71:8d:bd:8d:7a:36:39:85:35:0d:d8:09:
                    c6:cc:86:26:49:a7:90:01:39:ba:e6:da:74:5e:91:
                    90:a9:55:76:8b:25:0f:96:cb:3c:eb:25:dd:fb:47:
                    a7:d5:c0:6b:34:66:e0:e7:45:6f:74:18:73:3f:e7:
                    96:67:28:91:21:67:50:88:d4:ac:b0:72:0f:11:45:
                    ff:79:5b:07:dc:d4:99:0d:6b:d1:ea:b8:a8:ae:62:
                    ce:d5:5b:e1:9e:6a:d8:05:d7:b1:30:76:c0:0e:a0:
                    43:6f:7c:9c:2d:59:03:08:e1:c3:84:b9:22:7a:64:
                    3d:c8:94:f0:70:14:75:0c:e2:22:75:b8:f8:8d:01:
                    56:23:ce:00:dc:e6:81:72:b1:17:ee:f6:56:ce:b3:
                    47:a7:db:68:cc:07:72:0d:93:2c:10:71:06:a1:dc:
                    ac:69:ba:58:e9:37:94:f2:dd:34:da:5c:0b:15:63:
                    7b:4b:85:68:10:65:6f:e0:85:4e:5c:0f:44:ed:be:
                    92:8b:83:5a:e6:c6:a7:54:4a:96:cd:34:d9:fd:9e:
                    bd:36:5b:92:56:ba:eb:2e:63:f2:39:40:10:10:bb:
                    a1:35:e8:2e:e5:6e:71:9d:27:a3:72:96:cc:1f:24:
                    36:b5:85:ed:35:5f:bd:15:02:1b:c4:e8:58:25:d0:
                    00:30:75:46:70:e5:a1:3b:1b:6c:ac:63:f4:00:4e:
                    da:3f:1a:d2:f9:b1:2e:8f:a5:86:7e:88:1b:e2:26:
                    ef:12:71:98:9f:89:f4:bb:6b:47:0a:85:21:11:2c:
                    a6:ab:5d:20:a5:27:74:ad:f4:fe:ec:8e:d6:8a:00:
                    16:94:db
                Exponent: 65537 (0x10001)
        X509v3 extensions:
            X509v3 Basic Constraints: 
                CA:FALSE
            Netscape Comment: 
                Easy-RSA Generated Certificate
            X509v3 Subject Key Identifier: 
                78:CE:66:BC:D9:8C:59:FD:74:6A:E9:7A:48:A2:F9:2A:16:81:98:A3
            X509v3 Authority Key Identifier: 
                keyid:EF:38:8D:14:50:58:A7:5B:4D:9C:17:72:FC:DF:B9:AC:A7:51:B0:10
                DirName:/C=US/ST=CA/L=SanFrancisco/O=Pixglo, Inc./OU=VPN-CIE/CN=tunnel.pixglo.com/name=Bala Chandrasekaran/emailAddress=bala@pixglo.com
                serial:A6:DB:C6:83:80:E6:A0:79

            X509v3 Extended Key Usage: 
                TLS Web Client Authentication
            X509v3 Key Usage: 
                Digital Signature
    Signature Algorithm: sha1WithRSAEncryption
         86:c5:d5:50:a9:52:b2:41:0e:f1:62:88:77:f0:b2:cb:a5:cd:
         a5:f7:c0:d9:0e:6c:f4:8c:1e:d2:f3:cc:bc:8d:2e:1b:2c:c1:
         12:4c:4d:3c:06:e2:dd:97:ad:16:fe:d1:d8:ed:07:2a:db:02:
         35:54:db:45:49:29:56:15:04:54:ec:63:d5:3f:28:20:f2:94:
         6c:cc:6d:5b:84:98:83:c8:a8:cd:f7:fb:ac:e1:c7:fd:2e:47:
         17:1b:6e:df:d7:c8:c5:41:80:44:a8:5f:75:d7:1d:b7:d2:7c:
         bf:34:4e:0c:4b:f5:3a:da:8d:ef:29:0e:93:e7:27:3d:92:27:
         d8:8e:30:68:79:2a:2a:d2:2f:13:83:69:ad:a8:6d:c1:5b:97:
         79:2e:5b:42:22:a8:12:cb:2e:c4:54:8b:8f:4b:22:b5:11:33:
         b7:f0:53:cc:88:d8:cf:be:af:de:f7:14:83:82:4c:13:c4:0f:
         9f:e6:b3:42:e5:07:4f:f7:98:6b:87:14:2d:a9:34:99:bc:fb:
         79:db:70:5e:ab:86:59:fa:ad:8d:b4:1e:f6:24:be:5a:0f:67:
         d9:4f:eb:b8:e7:6f:3a:46:78:e7:42:09:49:67:9a:da:8a:14:
         45:70:98:70:8a:c1:26:71:50:48:b6:a7:5f:b0:bb:21:3e:dc:
         4c:74:e9:6f:61:ef:93:68:f0:94:75:4e:7e:05:c8:24:b9:59:
         77:02:af:dd:95:86:fd:69:cd:69:30:10:8a:88:6e:f4:40:9a:
         12:e5:94:ff:b6:8c:0c:4c:63:e4:19:14:6b:3b:24:9d:37:a3:
         49:96:54:b2:10:31:88:00:0b:26:22:9b:cf:27:3c:0d:a5:d1:
         8a:14:f1:b4:fc:33:31:63:ca:dd:02:8f:e9:77:99:81:a2:7b:
         3c:d2:41:77:07:b3:6c:2d:db:4b:f3:de:f7:18:05:05:0a:da:
         f8:82:ff:dd:99:6b:bc:27:0f:36:8e:49:d8:a7:00:a6:85:04:
         09:98:78:4d:2d:da:38:7b:5e:7e:e2:8a:3d:37:39:e5:3c:58:
         9f:38:11:77:61:47:e6:50:e7:02:16:f1:db:85:09:49:20:6f:
         d3:57:53:20:c3:7c:45:b5:b6:49:a7:a1:00:39:f0:5b:69:8a:
         11:12:ab:4d:c5:b5:e1:a7:44:dc:50:e5:83:15:71:69:e9:47:
         54:d3:5c:20:80:23:e6:b2:14:fb:d4:e8:a3:79:d3:57:64:44:
         30:c8:83:35:56:7b:10:49:e7:3a:0e:db:ec:92:c3:83:31:dc:
         21:46:1c:3d:5d:a2:68:2c:1e:12:70:1a:f2:3a:c4:db:fd:aa:
         5c:7b:4b:f4:61:30:3f:2f
-----BEGIN CERTIFICATE-----
MIIHSDCCBTCgAwIBAgICApkwDQYJKoZIhvcNAQEFBQAwgbQxCzAJBgNVBAYTAlVT
MQswCQYDVQQIEwJDQTEVMBMGA1UEBxMMU2FuRnJhbmNpc2NvMRUwEwYDVQQKEwxQ
aXhnbG8sIEluYy4xEDAOBgNVBAsTB1ZQTi1DSUUxGjAYBgNVBAMTEXR1bm5lbC5w
aXhnbG8uY29tMRwwGgYDVQQpExNCYWxhIENoYW5kcmFzZWthcmFuMR4wHAYJKoZI
hvcNAQkBFg9iYWxhQHBpeGdsby5jb20wHhcNMTgwMjE0MDYzOTQ4WhcNMjgwMjEy
MDYzOTQ4WjCBqTELMAkGA1UEBhMCVVMxCzAJBgNVBAgTAkNBMRUwEwYDVQQHEwxT
YW5GcmFuY2lzY28xFTATBgNVBAoTDFBpeGdsbywgSW5jLjEQMA4GA1UECxMHVlBO
LUNJRTEPMA0GA1UEAxMGY2llNjY0MRwwGgYDVQQpExNCYWxhIENoYW5kcmFzZWth
cmFuMR4wHAYJKoZIhvcNAQkBFg9iYWxhQHBpeGdsby5jb20wggIiMA0GCSqGSIb3
DQEBAQUAA4ICDwAwggIKAoICAQDfL6rrmBqV1O6BVJecJuSrE9PBajrZ5gTQao6a
79LtHRiaGHZAKVfTww6zzl8aqT06lnXZOLGdlYfzG4waG6t/HzN8SiyVdgKKSdWx
9Gg2cxG9t6Mz3jvCG5u2YevmyeKPSl2E2zrxWIhx5vMqdU1bTP4pce/D1cH23CTO
oCRTruR7TnYLCx2OCii5I7dvR4+m6PCPNbevx5ZJ/Bp/hJLKxRAvZLHYD49rnMQj
UJPQxYLzl/FAANIW8bJpSVPm4EBdhELmr3GNvY16NjmFNQ3YCcbMhiZJp5ABObrm
2nRekZCpVXaLJQ+WyzzrJd37R6fVwGs0ZuDnRW90GHM/55ZnKJEhZ1CI1Kywcg8R
Rf95Wwfc1JkNa9HquKiuYs7VW+GeatgF17EwdsAOoENvfJwtWQMI4cOEuSJ6ZD3I
lPBwFHUM4iJ1uPiNAVYjzgDc5oFysRfu9lbOs0en22jMB3INkywQcQah3Kxpuljp
N5Ty3TTaXAsVY3tLhWgQZW/ghU5cD0TtvpKLg1rmxqdUSpbNNNn9nr02W5JWuusu
Y/I5QBAQu6E16C7lbnGdJ6NylswfJDa1he01X70VAhvE6Fgl0AAwdUZw5aE7G2ys
Y/QATto/GtL5sS6PpYZ+iBviJu8ScZififS7a0cKhSERLKarXSClJ3St9P7sjtaK
ABaU2wIDAQABo4IBazCCAWcwCQYDVR0TBAIwADAtBglghkgBhvhCAQ0EIBYeRWFz
eS1SU0EgR2VuZXJhdGVkIENlcnRpZmljYXRlMB0GA1UdDgQWBBR4zma82YxZ/XRq
6XpIovkqFoGYozCB6QYDVR0jBIHhMIHegBTvOI0UUFinW02cF3L837msp1GwEKGB
uqSBtzCBtDELMAkGA1UEBhMCVVMxCzAJBgNVBAgTAkNBMRUwEwYDVQQHEwxTYW5G
cmFuY2lzY28xFTATBgNVBAoTDFBpeGdsbywgSW5jLjEQMA4GA1UECxMHVlBOLUNJ
RTEaMBgGA1UEAxMRdHVubmVsLnBpeGdsby5jb20xHDAaBgNVBCkTE0JhbGEgQ2hh
bmRyYXNla2FyYW4xHjAcBgkqhkiG9w0BCQEWD2JhbGFAcGl4Z2xvLmNvbYIJAKbb
xoOA5qB5MBMGA1UdJQQMMAoGCCsGAQUFBwMCMAsGA1UdDwQEAwIHgDANBgkqhkiG
9w0BAQUFAAOCAgEAhsXVUKlSskEO8WKId/Cyy6XNpffA2Q5s9Iwe0vPMvI0uGyzB
EkxNPAbi3ZetFv7R2O0HKtsCNVTbRUkpVhUEVOxj1T8oIPKUbMxtW4SYg8iozff7
rOHH/S5HFxtu39fIxUGARKhfddcdt9J8vzRODEv1OtqN7ykOk+cnPZIn2I4waHkq
KtIvE4NprahtwVuXeS5bQiKoEssuxFSLj0sitREzt/BTzIjYz76v3vcUg4JME8QP
n+azQuUHT/eYa4cULak0mbz7edtwXquGWfqtjbQe9iS+Wg9n2U/ruOdvOkZ450IJ
SWea2ooURXCYcIrBJnFQSLanX7C7IT7cTHTpb2Hvk2jwlHVOfgXIJLlZdwKv3ZWG
/WnNaTAQiohu9ECaEuWU/7aMDExj5BkUazsknTejSZZUshAxiAALJiKbzyc8DaXR
ihTxtPwzMWPK3QKP6XeZgaJ7PNJBdwezbC3bS/Pe9xgFBQra+IL/3ZlrvCcPNo5J
2KcApoUECZh4TS3aOHtefuKKPTc55TxYnzgRd2FH5lDnAhbx24UJSSBv01dTIMN8
RbW2SaehADnwW2mKERKrTcW14adE3FDlgxVxaelHVNNcIIAj5rIU+9Too3nTV2RE
MMiDNVZ7EEnnOg7b7JLDgzHcIUYcPV2iaCweEnAa8jrE2/2qXHtL9GEwPy8=
-----END CERTIFICATE-----
