Certificate:
    Data:
        Version: 3 (0x2)
        Serial Number: 669 (0x29d)
    Signature Algorithm: sha1WithRSAEncryption
        Issuer: C=US, ST=CA, L=SanFrancisco, O=Pixglo, Inc., OU=VPN-CIE, CN=tunnel.pixglo.com/name=Bala Chandrasekaran/emailAddress=bala@pixglo.com
        Validity
            Not Before: Feb 14 06:39:53 2018 GMT
            Not After : Feb 12 06:39:53 2028 GMT
        Subject: C=US, ST=CA, L=SanFrancisco, O=Pixglo, Inc., OU=VPN-CIE, CN=cie668/name=Bala Chandrasekaran/emailAddress=bala@pixglo.com
        Subject Public Key Info:
            Public Key Algorithm: rsaEncryption
                Public-Key: (4096 bit)
                Modulus:
                    00:e5:bf:65:62:e0:98:43:3f:bd:88:65:95:3b:22:
                    c5:b0:3f:6a:d3:fc:b8:3a:70:4e:d1:13:c8:95:96:
                    3f:06:73:3a:5f:d1:6f:a6:0d:03:df:4e:3e:99:91:
                    d5:a4:04:55:e0:8d:22:09:fc:d2:34:fb:12:62:ed:
                    5e:55:bf:d9:03:0f:f0:4e:c4:f4:33:72:51:d4:2f:
                    0e:8e:db:ba:91:15:26:dd:c9:49:d8:a7:69:8f:67:
                    68:33:48:95:3d:b7:be:2a:17:a9:4d:39:0a:f1:77:
                    c6:7a:4d:0a:20:18:67:42:e3:ba:69:b2:12:d7:57:
                    db:bd:7b:fa:07:df:25:ce:79:36:c3:5c:c8:89:57:
                    2f:14:c4:48:86:40:ad:2d:d4:99:b8:77:9b:e9:b0:
                    4d:86:f3:09:83:76:cf:d3:9d:8d:fc:6b:2f:f2:b4:
                    0e:52:61:32:ed:e2:fe:5a:8b:bd:95:4f:22:34:02:
                    3a:a7:c4:7b:bd:6a:41:cb:42:d8:8f:76:14:42:98:
                    16:a3:75:62:f5:84:23:14:f1:8b:a4:22:fd:e2:ed:
                    29:f8:7a:7d:b1:96:55:16:38:6e:78:e0:aa:84:e3:
                    92:fe:4a:4e:81:a5:9d:b2:db:b9:d3:7b:28:b1:7b:
                    9b:43:a6:bd:85:19:52:39:80:38:f4:1f:14:2a:ad:
                    85:c7:55:86:75:60:bc:46:e2:71:69:26:21:18:9c:
                    ca:c2:d5:81:92:a0:49:83:0b:48:19:75:8f:86:99:
                    48:56:dc:1c:2e:81:02:44:a3:b0:ab:63:96:ce:1a:
                    9f:bf:76:7b:18:b2:31:de:4d:f4:39:41:cf:9d:64:
                    48:c0:de:9c:93:38:d7:60:b4:b4:b6:8f:49:ab:0d:
                    ab:94:bd:d4:d8:57:6f:1e:90:bb:08:cd:d7:d1:6e:
                    34:c5:c6:bd:06:eb:37:36:80:ba:70:65:17:8a:2c:
                    52:da:e1:a5:e4:50:d7:be:8c:18:44:a0:b5:58:20:
                    9a:14:55:17:b4:86:e1:b9:75:df:fd:dd:d3:f1:d6:
                    ca:69:d7:d2:9f:2f:24:8c:bb:b6:fb:ed:e2:e8:1e:
                    fd:fc:ac:de:61:fd:03:dd:0d:a8:1e:be:46:72:6b:
                    8f:f9:97:09:87:85:3f:08:13:f3:75:93:93:f6:ac:
                    61:9c:40:ae:5f:53:cd:33:a2:c2:ea:31:25:1b:fa:
                    6b:b6:29:cd:24:2b:df:ff:17:2c:82:d1:45:a1:0e:
                    9a:24:47:2d:b0:ce:41:22:74:38:f7:2f:b0:a5:9e:
                    d2:4c:0f:12:02:ed:92:2c:4e:03:4e:b3:30:b8:d2:
                    9e:01:c0:8e:68:dd:cb:82:99:2e:00:fc:df:fa:ae:
                    39:b3:bb
                Exponent: 65537 (0x10001)
        X509v3 extensions:
            X509v3 Basic Constraints: 
                CA:FALSE
            Netscape Comment: 
                Easy-RSA Generated Certificate
            X509v3 Subject Key Identifier: 
                27:46:C6:D0:1D:89:30:25:9A:6F:F0:B8:36:62:F7:B8:0C:EF:88:8B
            X509v3 Authority Key Identifier: 
                keyid:EF:38:8D:14:50:58:A7:5B:4D:9C:17:72:FC:DF:B9:AC:A7:51:B0:10
                DirName:/C=US/ST=CA/L=SanFrancisco/O=Pixglo, Inc./OU=VPN-CIE/CN=tunnel.pixglo.com/name=Bala Chandrasekaran/emailAddress=bala@pixglo.com
                serial:A6:DB:C6:83:80:E6:A0:79

            X509v3 Extended Key Usage: 
                TLS Web Client Authentication
            X509v3 Key Usage: 
                Digital Signature
    Signature Algorithm: sha1WithRSAEncryption
         3b:9b:e8:e2:20:84:11:86:b1:5d:5e:00:c0:35:15:74:8c:07:
         34:7e:b2:c0:2e:fb:da:7b:a1:91:e8:f7:37:dd:4d:ee:ea:c6:
         a1:2c:db:39:fa:46:06:b2:50:1e:e4:f3:a3:76:7c:3a:46:5a:
         dd:d8:f6:54:dc:84:f7:d1:f7:92:b9:6f:ef:c0:f8:3d:dd:51:
         3f:d0:3e:4f:6a:ff:03:97:3a:11:aa:4d:5c:8f:63:1b:50:ab:
         fb:70:d2:fb:1a:f3:16:42:ce:6f:62:50:2d:77:ff:59:33:3b:
         d3:40:8e:6c:ca:b8:c8:ce:c5:e7:b2:5f:7d:15:6b:6e:ba:16:
         aa:65:f4:8b:92:68:a2:80:17:65:ed:3e:3f:74:69:a5:51:de:
         10:4d:e2:3c:5d:c9:82:e6:49:d6:d6:55:69:93:b6:16:da:80:
         72:f2:2e:1a:1a:bd:b6:1e:4a:0f:25:9c:5a:69:2f:c6:e8:88:
         88:94:d6:3f:a8:b1:81:e9:40:88:4d:4d:69:a3:94:9d:78:c4:
         e8:d9:dc:af:1f:ae:a6:8b:b6:cd:41:bd:28:d1:79:1b:05:91:
         6d:f8:21:bd:49:fc:02:86:95:f7:7b:22:32:2d:24:fd:dc:6a:
         fa:6a:6a:c4:a2:be:86:86:02:37:98:7a:37:ea:2f:4f:01:92:
         f8:4d:84:cf:b0:95:2c:8e:c1:f2:7d:b6:8b:a4:57:1f:4a:c2:
         39:20:b3:29:09:b8:9d:0c:ab:bc:d9:0d:68:25:b9:a5:40:98:
         51:9f:9d:d8:79:cf:fb:a7:8c:d2:84:b7:0f:70:94:62:91:f2:
         a2:51:cc:9a:90:f9:02:a6:a1:58:00:eb:fd:e4:be:f5:32:51:
         53:b3:97:39:c2:00:62:dc:8c:4e:2c:a0:c5:72:b9:cf:2b:7d:
         7b:c3:92:68:12:23:52:fd:6d:d2:75:ab:e3:ed:ad:82:b6:28:
         9b:e2:2d:d9:03:50:6d:c3:cb:f2:cc:35:d3:28:56:0c:24:89:
         02:d3:ad:7a:7c:82:cd:5d:c4:09:c9:81:a9:54:ad:a6:16:40:
         b7:52:89:82:15:c4:4c:b6:16:44:92:e7:31:94:4a:18:95:95:
         0f:24:f3:07:a5:11:86:5c:a8:c5:18:27:2e:8f:fa:0c:ed:38:
         0c:5c:fb:0d:3d:62:ec:fd:98:d7:c0:c9:2e:42:b9:95:67:06:
         fe:35:1d:98:a5:87:e9:1c:f9:5a:dc:cb:2c:ed:99:36:0b:7c:
         c6:d8:09:6b:6a:fd:c1:ba:68:0a:e3:78:a2:b4:e3:dc:e6:63:
         90:e4:83:73:d7:ff:ff:fa:10:58:bb:28:0f:54:ed:83:fa:30:
         4d:33:d1:53:b3:84:4b:69
-----BEGIN CERTIFICATE-----
MIIHSDCCBTCgAwIBAgICAp0wDQYJKoZIhvcNAQEFBQAwgbQxCzAJBgNVBAYTAlVT
MQswCQYDVQQIEwJDQTEVMBMGA1UEBxMMU2FuRnJhbmNpc2NvMRUwEwYDVQQKEwxQ
aXhnbG8sIEluYy4xEDAOBgNVBAsTB1ZQTi1DSUUxGjAYBgNVBAMTEXR1bm5lbC5w
aXhnbG8uY29tMRwwGgYDVQQpExNCYWxhIENoYW5kcmFzZWthcmFuMR4wHAYJKoZI
hvcNAQkBFg9iYWxhQHBpeGdsby5jb20wHhcNMTgwMjE0MDYzOTUzWhcNMjgwMjEy
MDYzOTUzWjCBqTELMAkGA1UEBhMCVVMxCzAJBgNVBAgTAkNBMRUwEwYDVQQHEwxT
YW5GcmFuY2lzY28xFTATBgNVBAoTDFBpeGdsbywgSW5jLjEQMA4GA1UECxMHVlBO
LUNJRTEPMA0GA1UEAxMGY2llNjY4MRwwGgYDVQQpExNCYWxhIENoYW5kcmFzZWth
cmFuMR4wHAYJKoZIhvcNAQkBFg9iYWxhQHBpeGdsby5jb20wggIiMA0GCSqGSIb3
DQEBAQUAA4ICDwAwggIKAoICAQDlv2Vi4JhDP72IZZU7IsWwP2rT/Lg6cE7RE8iV
lj8Gczpf0W+mDQPfTj6ZkdWkBFXgjSIJ/NI0+xJi7V5Vv9kDD/BOxPQzclHULw6O
27qRFSbdyUnYp2mPZ2gzSJU9t74qF6lNOQrxd8Z6TQogGGdC47ppshLXV9u9e/oH
3yXOeTbDXMiJVy8UxEiGQK0t1Jm4d5vpsE2G8wmDds/TnY38ay/ytA5SYTLt4v5a
i72VTyI0AjqnxHu9akHLQtiPdhRCmBajdWL1hCMU8YukIv3i7Sn4en2xllUWOG54
4KqE45L+Sk6BpZ2y27nTeyixe5tDpr2FGVI5gDj0HxQqrYXHVYZ1YLxG4nFpJiEY
nMrC1YGSoEmDC0gZdY+GmUhW3BwugQJEo7CrY5bOGp+/dnsYsjHeTfQ5Qc+dZEjA
3pyTONdgtLS2j0mrDauUvdTYV28ekLsIzdfRbjTFxr0G6zc2gLpwZReKLFLa4aXk
UNe+jBhEoLVYIJoUVRe0huG5dd/93dPx1spp19KfLySMu7b77eLoHv38rN5h/QPd
DagevkZya4/5lwmHhT8IE/N1k5P2rGGcQK5fU80zosLqMSUb+mu2Kc0kK9//FyyC
0UWhDpokRy2wzkEidDj3L7ClntJMDxIC7ZIsTgNOszC40p4BwI5o3cuCmS4A/N/6
rjmzuwIDAQABo4IBazCCAWcwCQYDVR0TBAIwADAtBglghkgBhvhCAQ0EIBYeRWFz
eS1SU0EgR2VuZXJhdGVkIENlcnRpZmljYXRlMB0GA1UdDgQWBBQnRsbQHYkwJZpv
8Lg2Yve4DO+IizCB6QYDVR0jBIHhMIHegBTvOI0UUFinW02cF3L837msp1GwEKGB
uqSBtzCBtDELMAkGA1UEBhMCVVMxCzAJBgNVBAgTAkNBMRUwEwYDVQQHEwxTYW5G
cmFuY2lzY28xFTATBgNVBAoTDFBpeGdsbywgSW5jLjEQMA4GA1UECxMHVlBOLUNJ
RTEaMBgGA1UEAxMRdHVubmVsLnBpeGdsby5jb20xHDAaBgNVBCkTE0JhbGEgQ2hh
bmRyYXNla2FyYW4xHjAcBgkqhkiG9w0BCQEWD2JhbGFAcGl4Z2xvLmNvbYIJAKbb
xoOA5qB5MBMGA1UdJQQMMAoGCCsGAQUFBwMCMAsGA1UdDwQEAwIHgDANBgkqhkiG
9w0BAQUFAAOCAgEAO5vo4iCEEYaxXV4AwDUVdIwHNH6ywC772nuhkej3N91N7urG
oSzbOfpGBrJQHuTzo3Z8OkZa3dj2VNyE99H3krlv78D4Pd1RP9A+T2r/A5c6EapN
XI9jG1Cr+3DS+xrzFkLOb2JQLXf/WTM700CObMq4yM7F57JffRVrbroWqmX0i5Jo
ooAXZe0+P3RppVHeEE3iPF3JguZJ1tZVaZO2FtqAcvIuGhq9th5KDyWcWmkvxuiI
iJTWP6ixgelAiE1NaaOUnXjE6Nncrx+upou2zUG9KNF5GwWRbfghvUn8AoaV93si
Mi0k/dxq+mpqxKK+hoYCN5h6N+ovTwGS+E2Ez7CVLI7B8n22i6RXH0rCOSCzKQm4
nQyrvNkNaCW5pUCYUZ+d2HnP+6eM0oS3D3CUYpHyolHMmpD5AqahWADr/eS+9TJR
U7OXOcIAYtyMTiygxXK5zyt9e8OSaBIjUv1t0nWr4+2tgrYom+It2QNQbcPL8sw1
0yhWDCSJAtOtenyCzV3ECcmBqVStphZAt1KJghXETLYWRJLnMZRKGJWVDyTzB6UR
hlyoxRgnLo/6DO04DFz7DT1i7P2Y18DJLkK5lWcG/jUdmKWH6Rz5WtzLLO2ZNgt8
xtgJa2r9wbpoCuN4orTj3OZjkOSDc9f///oQWLsoD1Ttg/owTTPRU7OES2k=
-----END CERTIFICATE-----
