Certificate:
    Data:
        Version: 3 (0x2)
        Serial Number: 670 (0x29e)
    Signature Algorithm: sha1WithRSAEncryption
        Issuer: C=US, ST=CA, L=SanFrancisco, O=Pixglo, Inc., OU=VPN-CIE, CN=tunnel.pixglo.com/name=Bala Chandrasekaran/emailAddress=bala@pixglo.com
        Validity
            Not Before: Feb 14 06:39:54 2018 GMT
            Not After : Feb 12 06:39:54 2028 GMT
        Subject: C=US, ST=CA, L=SanFrancisco, O=Pixglo, Inc., OU=VPN-CIE, CN=cie669/name=Bala Chandrasekaran/emailAddress=bala@pixglo.com
        Subject Public Key Info:
            Public Key Algorithm: rsaEncryption
                Public-Key: (4096 bit)
                Modulus:
                    00:bc:46:5c:88:f1:84:ac:57:d8:b2:4c:39:57:56:
                    53:a0:f4:8a:49:20:31:e4:59:f7:fe:07:6f:14:2d:
                    e2:d6:a4:d6:bb:89:2d:64:92:df:06:27:5c:c7:1d:
                    06:5c:d0:d0:bf:22:61:80:97:cf:91:f3:0e:5b:a7:
                    f0:34:da:99:d3:22:d3:74:3d:39:40:96:e1:ce:35:
                    30:54:00:0b:dc:94:f6:c8:8d:93:13:dd:6c:9f:4d:
                    26:2b:74:04:bb:22:4b:a4:cd:2f:0a:20:c2:2d:1c:
                    12:4a:30:08:8f:24:91:7a:b7:28:13:b6:a7:e4:f1:
                    ab:21:7a:dd:e2:f1:b2:0d:05:6f:b3:7b:15:b1:e4:
                    26:3b:3f:54:b9:56:e6:b2:be:a2:76:ae:5d:d5:bf:
                    e1:9b:62:ae:00:19:15:b3:7d:71:9a:d7:0e:e4:39:
                    2d:a6:27:5f:85:20:6d:d0:10:d6:6b:72:77:69:32:
                    90:bd:55:9e:2b:df:68:49:a7:53:a4:cc:bc:65:40:
                    73:a4:9a:37:26:16:c9:a3:6a:bf:fe:6b:65:49:5b:
                    19:f8:a1:81:21:a0:43:bd:be:e4:37:13:07:f8:5e:
                    81:43:4e:1d:98:95:f6:76:58:e0:11:c4:c9:ec:a3:
                    e5:c6:7e:e4:df:0f:7a:d1:64:a8:64:e5:46:d0:74:
                    82:96:6f:e5:7b:bb:08:32:9c:35:be:3d:7f:98:14:
                    7d:10:b4:aa:f6:0e:45:02:1d:dc:4a:32:ee:b7:40:
                    df:e6:4c:6f:b6:74:80:2b:0e:62:fc:27:83:2f:3c:
                    ca:33:31:58:cb:a2:89:a2:78:f6:e1:f2:c3:28:80:
                    cf:34:e5:d4:47:08:4c:32:72:d5:49:29:b0:f1:5c:
                    cb:58:63:e7:4f:9e:fd:ab:de:07:72:c1:4d:57:4c:
                    aa:45:e5:ff:98:c4:55:3e:12:27:a0:fd:dd:20:fb:
                    88:26:1a:ab:2f:09:46:8d:e1:6d:98:1e:c3:06:3a:
                    c4:d3:62:a0:03:17:42:8b:b3:50:4f:e3:3e:36:ec:
                    c1:a8:2d:af:e4:e5:1f:12:21:9b:ce:4b:dc:e1:47:
                    f7:82:ff:b8:58:2b:ef:7c:14:35:87:46:6f:38:ad:
                    78:c4:01:17:54:50:05:eb:59:43:47:0a:6b:fa:50:
                    6e:8a:c1:0e:8a:0e:f4:83:c0:43:f8:89:0b:3a:93:
                    15:7d:cb:79:71:d1:71:3e:78:9f:3b:b7:57:69:8d:
                    a9:db:bc:72:08:c1:ab:60:2c:bc:04:89:4b:a8:9e:
                    86:ca:ea:e5:59:12:12:b9:d4:7c:eb:dc:f4:4f:b2:
                    8b:71:2a:62:2c:67:7e:c7:95:1f:e5:66:17:f4:ee:
                    2a:dc:6f
                Exponent: 65537 (0x10001)
        X509v3 extensions:
            X509v3 Basic Constraints: 
                CA:FALSE
            Netscape Comment: 
                Easy-RSA Generated Certificate
            X509v3 Subject Key Identifier: 
                0F:87:EA:FB:02:CB:A2:B0:95:CC:9F:ED:86:FE:5B:11:B5:76:B1:B7
            X509v3 Authority Key Identifier: 
                keyid:EF:38:8D:14:50:58:A7:5B:4D:9C:17:72:FC:DF:B9:AC:A7:51:B0:10
                DirName:/C=US/ST=CA/L=SanFrancisco/O=Pixglo, Inc./OU=VPN-CIE/CN=tunnel.pixglo.com/name=Bala Chandrasekaran/emailAddress=bala@pixglo.com
                serial:A6:DB:C6:83:80:E6:A0:79

            X509v3 Extended Key Usage: 
                TLS Web Client Authentication
            X509v3 Key Usage: 
                Digital Signature
    Signature Algorithm: sha1WithRSAEncryption
         b0:73:ce:c5:40:3a:cd:1f:56:64:0d:18:5e:3b:07:61:12:32:
         0e:2a:26:7d:0f:ff:af:1a:f0:85:17:3a:60:6c:b4:7e:86:7e:
         a3:3a:bb:ac:7e:3f:23:62:42:cd:21:43:aa:93:2d:31:62:f3:
         26:85:88:ab:84:4f:19:01:8d:e7:f4:6d:2c:b2:23:d2:16:10:
         bc:3b:df:5e:65:1c:aa:4d:c8:75:0a:88:ac:84:33:b1:e3:4c:
         34:fc:a1:23:8c:fd:22:b1:86:d2:7b:ed:5c:0b:fb:ff:45:7e:
         71:84:98:bd:50:47:3a:dd:48:8b:e0:fe:70:7a:f7:77:66:8c:
         1a:10:c0:43:4d:11:e3:40:29:03:f7:cb:7e:c2:85:a0:cc:27:
         a8:16:2a:ef:a5:8a:62:12:86:e8:8c:31:1d:83:c4:03:c6:98:
         b9:2b:8e:7a:f6:68:1e:d1:ae:8c:7e:ea:22:60:92:42:82:ac:
         8a:7e:a0:d8:50:53:2e:32:24:b9:d8:95:82:44:93:46:f1:d5:
         00:4c:de:a4:66:39:cf:71:62:29:fa:f7:26:4b:a4:db:2f:35:
         d7:f5:45:5b:ea:98:3c:50:fc:84:37:49:4b:35:bd:5e:56:9f:
         6a:e5:4b:e3:c7:8f:f4:3a:c1:a4:41:ee:50:b0:49:8a:7c:fe:
         b6:57:55:b2:65:93:2a:aa:6e:74:c8:aa:22:46:2e:dd:92:52:
         e4:e2:1c:80:58:71:c2:69:2d:86:da:4e:4c:b2:c4:c8:f7:70:
         92:91:ca:e0:7e:44:47:d2:cf:67:27:4a:32:68:6e:2d:35:e3:
         30:fd:8e:93:92:f5:52:b9:4c:56:f8:12:15:e2:d7:b6:26:ca:
         6c:bd:7e:65:12:8f:ad:de:f0:13:df:d6:3a:76:c6:b8:ba:6e:
         af:55:83:cb:1f:11:70:16:37:d7:da:88:e0:98:ac:6d:60:5d:
         64:b3:83:eb:51:72:93:fb:15:c7:26:7f:b5:05:98:0e:1b:0f:
         25:9a:65:ef:7c:c3:35:7c:f6:c8:86:ab:c1:8d:29:40:af:ee:
         37:5a:3f:2c:be:5a:ee:c9:f6:1f:b9:e6:99:34:78:b1:9f:81:
         39:57:36:85:28:f6:e5:47:23:ab:c9:c5:0d:28:ca:e1:db:27:
         79:a2:b6:7d:98:df:ee:81:9d:0f:ee:50:2c:f3:ed:54:45:f9:
         4b:1b:88:0b:09:fd:7c:cb:c6:ac:82:4c:9a:08:df:f6:e8:db:
         56:98:d1:a5:80:42:6e:a8:12:35:8b:0c:8e:ea:2f:86:5f:98:
         44:04:de:c7:5d:98:68:cb:de:ac:22:bf:93:2e:87:70:b8:65:
         59:5c:49:eb:a2:eb:0d:60
-----BEGIN CERTIFICATE-----
MIIHSDCCBTCgAwIBAgICAp4wDQYJKoZIhvcNAQEFBQAwgbQxCzAJBgNVBAYTAlVT
MQswCQYDVQQIEwJDQTEVMBMGA1UEBxMMU2FuRnJhbmNpc2NvMRUwEwYDVQQKEwxQ
aXhnbG8sIEluYy4xEDAOBgNVBAsTB1ZQTi1DSUUxGjAYBgNVBAMTEXR1bm5lbC5w
aXhnbG8uY29tMRwwGgYDVQQpExNCYWxhIENoYW5kcmFzZWthcmFuMR4wHAYJKoZI
hvcNAQkBFg9iYWxhQHBpeGdsby5jb20wHhcNMTgwMjE0MDYzOTU0WhcNMjgwMjEy
MDYzOTU0WjCBqTELMAkGA1UEBhMCVVMxCzAJBgNVBAgTAkNBMRUwEwYDVQQHEwxT
YW5GcmFuY2lzY28xFTATBgNVBAoTDFBpeGdsbywgSW5jLjEQMA4GA1UECxMHVlBO
LUNJRTEPMA0GA1UEAxMGY2llNjY5MRwwGgYDVQQpExNCYWxhIENoYW5kcmFzZWth
cmFuMR4wHAYJKoZIhvcNAQkBFg9iYWxhQHBpeGdsby5jb20wggIiMA0GCSqGSIb3
DQEBAQUAA4ICDwAwggIKAoICAQC8RlyI8YSsV9iyTDlXVlOg9IpJIDHkWff+B28U
LeLWpNa7iS1kkt8GJ1zHHQZc0NC/ImGAl8+R8w5bp/A02pnTItN0PTlAluHONTBU
AAvclPbIjZMT3WyfTSYrdAS7IkukzS8KIMItHBJKMAiPJJF6tygTtqfk8ashet3i
8bINBW+zexWx5CY7P1S5VuayvqJ2rl3Vv+GbYq4AGRWzfXGa1w7kOS2mJ1+FIG3Q
ENZrcndpMpC9VZ4r32hJp1OkzLxlQHOkmjcmFsmjar/+a2VJWxn4oYEhoEO9vuQ3
Ewf4XoFDTh2YlfZ2WOARxMnso+XGfuTfD3rRZKhk5UbQdIKWb+V7uwgynDW+PX+Y
FH0QtKr2DkUCHdxKMu63QN/mTG+2dIArDmL8J4MvPMozMVjLoomiePbh8sMogM80
5dRHCEwyctVJKbDxXMtYY+dPnv2r3gdywU1XTKpF5f+YxFU+Eieg/d0g+4gmGqsv
CUaN4W2YHsMGOsTTYqADF0KLs1BP4z427MGoLa/k5R8SIZvOS9zhR/eC/7hYK+98
FDWHRm84rXjEARdUUAXrWUNHCmv6UG6KwQ6KDvSDwEP4iQs6kxV9y3lx0XE+eJ87
t1dpjanbvHIIwatgLLwEiUuonobK6uVZEhK51Hzr3PRPsotxKmIsZ37HlR/lZhf0
7ircbwIDAQABo4IBazCCAWcwCQYDVR0TBAIwADAtBglghkgBhvhCAQ0EIBYeRWFz
eS1SU0EgR2VuZXJhdGVkIENlcnRpZmljYXRlMB0GA1UdDgQWBBQPh+r7AsuisJXM
n+2G/lsRtXaxtzCB6QYDVR0jBIHhMIHegBTvOI0UUFinW02cF3L837msp1GwEKGB
uqSBtzCBtDELMAkGA1UEBhMCVVMxCzAJBgNVBAgTAkNBMRUwEwYDVQQHEwxTYW5G
cmFuY2lzY28xFTATBgNVBAoTDFBpeGdsbywgSW5jLjEQMA4GA1UECxMHVlBOLUNJ
RTEaMBgGA1UEAxMRdHVubmVsLnBpeGdsby5jb20xHDAaBgNVBCkTE0JhbGEgQ2hh
bmRyYXNla2FyYW4xHjAcBgkqhkiG9w0BCQEWD2JhbGFAcGl4Z2xvLmNvbYIJAKbb
xoOA5qB5MBMGA1UdJQQMMAoGCCsGAQUFBwMCMAsGA1UdDwQEAwIHgDANBgkqhkiG
9w0BAQUFAAOCAgEAsHPOxUA6zR9WZA0YXjsHYRIyDiomfQ//rxrwhRc6YGy0foZ+
ozq7rH4/I2JCzSFDqpMtMWLzJoWIq4RPGQGN5/RtLLIj0hYQvDvfXmUcqk3IdQqI
rIQzseNMNPyhI4z9IrGG0nvtXAv7/0V+cYSYvVBHOt1Ii+D+cHr3d2aMGhDAQ00R
40ApA/fLfsKFoMwnqBYq76WKYhKG6IwxHYPEA8aYuSuOevZoHtGujH7qImCSQoKs
in6g2FBTLjIkudiVgkSTRvHVAEzepGY5z3FiKfr3Jkuk2y811/VFW+qYPFD8hDdJ
SzW9XlafauVL48eP9DrBpEHuULBJinz+tldVsmWTKqpudMiqIkYu3ZJS5OIcgFhx
wmkthtpOTLLEyPdwkpHK4H5ER9LPZydKMmhuLTXjMP2Ok5L1UrlMVvgSFeLXtibK
bL1+ZRKPrd7wE9/WOnbGuLpur1WDyx8RcBY319qI4JisbWBdZLOD61Fyk/sVxyZ/
tQWYDhsPJZpl73zDNXz2yIarwY0pQK/uN1o/LL5a7sn2H7nmmTR4sZ+BOVc2hSj2
5Ucjq8nFDSjK4dsneaK2fZjf7oGdD+5QLPPtVEX5SxuICwn9fMvGrIJMmgjf9ujb
VpjRpYBCbqgSNYsMjuovhl+YRATex12YaMverCK/ky6HcLhlWVxJ66LrDWA=
-----END CERTIFICATE-----
