Certificate:
    Data:
        Version: 3 (0x2)
        Serial Number: 671 (0x29f)
    Signature Algorithm: sha1WithRSAEncryption
        Issuer: C=US, ST=CA, L=SanFrancisco, O=Pixglo, Inc., OU=VPN-CIE, CN=tunnel.pixglo.com/name=Bala Chandrasekaran/emailAddress=bala@pixglo.com
        Validity
            Not Before: Feb 14 06:39:55 2018 GMT
            Not After : Feb 12 06:39:55 2028 GMT
        Subject: C=US, ST=CA, L=SanFrancisco, O=Pixglo, Inc., OU=VPN-CIE, CN=cie670/name=Bala Chandrasekaran/emailAddress=bala@pixglo.com
        Subject Public Key Info:
            Public Key Algorithm: rsaEncryption
                Public-Key: (4096 bit)
                Modulus:
                    00:a5:c1:07:6e:fb:4f:2a:7c:34:50:db:a9:b5:ca:
                    b9:2a:76:12:0d:4c:25:e0:b7:00:38:19:7d:36:72:
                    7b:7b:06:d2:8e:de:8a:14:73:14:50:37:af:af:91:
                    b9:fb:fc:45:b6:2f:ad:f1:76:f4:22:3e:b2:a7:19:
                    e0:f4:e9:78:0f:d9:08:2d:df:ae:36:16:e8:80:c7:
                    19:63:cc:0f:c8:61:a5:23:8a:f4:04:f8:fd:da:e3:
                    30:97:19:eb:38:a5:43:f0:83:5b:b4:04:86:48:60:
                    b4:3d:0d:71:6a:80:c6:05:49:20:fe:a9:d5:f6:a1:
                    25:c1:a1:19:ae:6d:74:dd:12:71:d0:62:9e:29:67:
                    41:23:d9:83:15:d1:ed:f8:22:3e:73:eb:af:f3:cb:
                    56:de:6b:df:57:94:86:ff:a4:c7:b7:3a:56:21:5b:
                    74:c1:70:2c:60:f1:e6:78:82:63:da:96:5b:70:8e:
                    c7:20:08:eb:37:a5:52:2b:68:25:df:fd:3d:ba:24:
                    a4:ed:67:d0:0f:8a:64:b5:6d:75:7a:65:46:d2:d1:
                    73:58:e7:2a:9d:e2:7c:65:69:3e:30:f8:76:4e:dd:
                    57:90:95:a2:37:1c:29:87:cd:06:23:f6:77:2b:6e:
                    db:0c:5f:ed:58:b4:3f:f7:bf:38:d4:9e:ee:85:cb:
                    a0:38:a5:c8:76:97:c2:65:49:dd:70:3c:41:2b:b5:
                    c6:a3:7b:66:72:84:5a:99:0f:d0:46:54:4e:d8:2a:
                    19:db:90:3c:d5:00:1d:47:63:5a:69:4d:69:61:58:
                    72:10:91:f3:ba:e4:dd:99:1e:35:12:96:8a:6d:60:
                    a7:d2:8a:e0:0d:42:41:85:bc:6b:7f:6c:75:35:8a:
                    0b:4d:59:97:6d:6f:63:92:ad:29:45:7b:2f:be:fb:
                    23:85:b3:c6:e8:83:2d:5c:50:d0:f6:e6:9e:d7:5c:
                    7e:b0:6b:54:98:76:a7:a9:d7:9f:40:13:ec:ab:97:
                    39:50:ba:b5:07:e5:cd:75:37:69:da:a0:77:c6:ab:
                    5f:1c:82:94:0f:27:a1:38:57:b6:4e:da:88:85:b6:
                    89:d3:74:1d:8f:bf:fc:63:91:dd:fa:f1:80:c8:9f:
                    ac:09:43:a0:c4:6a:db:4d:62:be:46:73:3e:d0:48:
                    61:29:00:50:45:53:e1:94:08:e6:ca:c6:74:f3:f3:
                    45:2c:cd:a3:11:28:2b:7f:50:c7:dc:02:6c:ff:4e:
                    cc:7a:dd:da:51:7d:d5:17:88:54:e9:e2:15:0b:16:
                    dd:2f:af:d6:19:f1:07:3f:2f:39:04:b0:8c:ae:c7:
                    0c:68:14:87:3c:77:cd:ad:18:32:47:8b:29:50:89:
                    05:dd:23
                Exponent: 65537 (0x10001)
        X509v3 extensions:
            X509v3 Basic Constraints: 
                CA:FALSE
            Netscape Comment: 
                Easy-RSA Generated Certificate
            X509v3 Subject Key Identifier: 
                1A:62:27:CC:6F:5D:3B:BC:EF:C7:50:6C:4F:27:0E:7D:B4:D3:24:56
            X509v3 Authority Key Identifier: 
                keyid:EF:38:8D:14:50:58:A7:5B:4D:9C:17:72:FC:DF:B9:AC:A7:51:B0:10
                DirName:/C=US/ST=CA/L=SanFrancisco/O=Pixglo, Inc./OU=VPN-CIE/CN=tunnel.pixglo.com/name=Bala Chandrasekaran/emailAddress=bala@pixglo.com
                serial:A6:DB:C6:83:80:E6:A0:79

            X509v3 Extended Key Usage: 
                TLS Web Client Authentication
            X509v3 Key Usage: 
                Digital Signature
    Signature Algorithm: sha1WithRSAEncryption
         2b:9c:7f:00:cb:ef:10:59:46:86:36:23:5a:ee:4f:12:f7:8f:
         b0:6a:07:a9:6f:ac:24:fc:4e:e8:6a:91:2d:66:a8:6b:4f:e3:
         8f:26:44:5d:38:27:09:b6:be:49:d2:77:48:77:43:bc:66:3c:
         32:64:00:d1:e5:61:b9:9a:ec:ed:29:c8:05:83:bf:d0:68:32:
         93:c3:db:f7:cc:6c:97:ec:7b:71:02:42:0e:71:5f:a2:ed:4b:
         1b:2f:ce:b2:3d:3a:99:27:72:32:5f:97:2e:d9:09:32:c0:28:
         d6:2d:d7:06:88:59:cd:84:a3:9a:5d:fc:ab:d0:eb:d5:7d:18:
         dd:70:76:7e:dd:71:83:71:19:a9:95:8c:b2:10:3c:9d:a4:57:
         27:97:5a:b6:59:ad:37:70:24:6b:70:02:de:b6:13:e9:1a:bb:
         f1:64:27:8a:5b:76:ba:8d:33:7d:e1:67:00:10:04:30:3f:09:
         0d:93:43:ed:59:4a:b8:f2:e4:26:38:dc:34:29:28:c4:d3:f0:
         27:94:33:cb:0f:f7:eb:97:8f:de:2c:99:48:09:85:7e:7d:cb:
         f0:fc:f2:24:41:bf:a7:75:81:22:9a:c0:ff:32:a2:f3:22:c9:
         66:cc:2d:30:7b:60:9d:0d:b3:57:dc:e9:ab:8d:b4:cf:f4:74:
         bb:b2:3d:c6:b0:57:60:de:29:29:c3:69:8f:0c:e7:48:c4:3e:
         ff:16:a0:d9:41:3f:cf:36:42:51:64:09:9c:8a:05:2e:31:55:
         92:48:ba:6a:89:d4:c5:3c:9c:69:96:8d:e8:83:aa:07:cc:75:
         33:07:07:31:cb:78:09:e2:7d:36:42:30:6d:eb:56:22:a3:e4:
         2c:59:dc:47:5a:ac:4a:54:54:48:1d:7d:85:ea:02:bb:7c:c9:
         95:57:c0:2b:65:6f:94:0d:5e:ee:e8:6b:b9:77:96:39:02:d1:
         55:58:86:1f:17:17:a8:96:41:bc:88:f0:1a:3b:5d:56:c7:e9:
         e1:9b:a9:0f:56:40:d0:7e:00:26:07:cd:d0:94:16:3c:ad:74:
         95:0d:62:ee:03:81:c3:78:80:3a:86:e2:d9:46:6c:18:b6:f6:
         19:20:76:8d:00:63:66:45:f8:19:ee:19:98:f9:d2:27:f6:20:
         94:56:25:1d:f1:40:16:e6:4f:82:5d:ba:e2:c0:c6:da:a0:39:
         26:16:52:f0:dd:f8:a3:90:a4:54:23:cc:3f:4d:3e:59:74:22:
         79:2b:6f:a0:0e:da:be:63:53:ee:5a:dc:7c:86:55:48:04:5c:
         77:7c:4b:af:cd:1e:86:c0:8f:3c:1f:af:bc:86:89:ab:64:f9:
         14:fc:16:33:d1:34:28:56
-----BEGIN CERTIFICATE-----
MIIHSDCCBTCgAwIBAgICAp8wDQYJKoZIhvcNAQEFBQAwgbQxCzAJBgNVBAYTAlVT
MQswCQYDVQQIEwJDQTEVMBMGA1UEBxMMU2FuRnJhbmNpc2NvMRUwEwYDVQQKEwxQ
aXhnbG8sIEluYy4xEDAOBgNVBAsTB1ZQTi1DSUUxGjAYBgNVBAMTEXR1bm5lbC5w
aXhnbG8uY29tMRwwGgYDVQQpExNCYWxhIENoYW5kcmFzZWthcmFuMR4wHAYJKoZI
hvcNAQkBFg9iYWxhQHBpeGdsby5jb20wHhcNMTgwMjE0MDYzOTU1WhcNMjgwMjEy
MDYzOTU1WjCBqTELMAkGA1UEBhMCVVMxCzAJBgNVBAgTAkNBMRUwEwYDVQQHEwxT
YW5GcmFuY2lzY28xFTATBgNVBAoTDFBpeGdsbywgSW5jLjEQMA4GA1UECxMHVlBO
LUNJRTEPMA0GA1UEAxMGY2llNjcwMRwwGgYDVQQpExNCYWxhIENoYW5kcmFzZWth
cmFuMR4wHAYJKoZIhvcNAQkBFg9iYWxhQHBpeGdsby5jb20wggIiMA0GCSqGSIb3
DQEBAQUAA4ICDwAwggIKAoICAQClwQdu+08qfDRQ26m1yrkqdhINTCXgtwA4GX02
cnt7BtKO3ooUcxRQN6+vkbn7/EW2L63xdvQiPrKnGeD06XgP2Qgt3642FuiAxxlj
zA/IYaUjivQE+P3a4zCXGes4pUPwg1u0BIZIYLQ9DXFqgMYFSSD+qdX2oSXBoRmu
bXTdEnHQYp4pZ0Ej2YMV0e34Ij5z66/zy1bea99XlIb/pMe3OlYhW3TBcCxg8eZ4
gmPalltwjscgCOs3pVIraCXf/T26JKTtZ9APimS1bXV6ZUbS0XNY5yqd4nxlaT4w
+HZO3VeQlaI3HCmHzQYj9ncrbtsMX+1YtD/3vzjUnu6Fy6A4pch2l8JlSd1wPEEr
tcaje2ZyhFqZD9BGVE7YKhnbkDzVAB1HY1ppTWlhWHIQkfO65N2ZHjUSloptYKfS
iuANQkGFvGt/bHU1igtNWZdtb2OSrSlFey+++yOFs8bogy1cUND25p7XXH6wa1SY
dqep159AE+yrlzlQurUH5c11N2naoHfGq18cgpQPJ6E4V7ZO2oiFtonTdB2Pv/xj
kd368YDIn6wJQ6DEattNYr5Gcz7QSGEpAFBFU+GUCObKxnTz80UszaMRKCt/UMfc
Amz/Tsx63dpRfdUXiFTp4hULFt0vr9YZ8Qc/LzkEsIyuxwxoFIc8d82tGDJHiylQ
iQXdIwIDAQABo4IBazCCAWcwCQYDVR0TBAIwADAtBglghkgBhvhCAQ0EIBYeRWFz
eS1SU0EgR2VuZXJhdGVkIENlcnRpZmljYXRlMB0GA1UdDgQWBBQaYifMb107vO/H
UGxPJw59tNMkVjCB6QYDVR0jBIHhMIHegBTvOI0UUFinW02cF3L837msp1GwEKGB
uqSBtzCBtDELMAkGA1UEBhMCVVMxCzAJBgNVBAgTAkNBMRUwEwYDVQQHEwxTYW5G
cmFuY2lzY28xFTATBgNVBAoTDFBpeGdsbywgSW5jLjEQMA4GA1UECxMHVlBOLUNJ
RTEaMBgGA1UEAxMRdHVubmVsLnBpeGdsby5jb20xHDAaBgNVBCkTE0JhbGEgQ2hh
bmRyYXNla2FyYW4xHjAcBgkqhkiG9w0BCQEWD2JhbGFAcGl4Z2xvLmNvbYIJAKbb
xoOA5qB5MBMGA1UdJQQMMAoGCCsGAQUFBwMCMAsGA1UdDwQEAwIHgDANBgkqhkiG
9w0BAQUFAAOCAgEAK5x/AMvvEFlGhjYjWu5PEvePsGoHqW+sJPxO6GqRLWaoa0/j
jyZEXTgnCba+SdJ3SHdDvGY8MmQA0eVhuZrs7SnIBYO/0Ggyk8Pb98xsl+x7cQJC
DnFfou1LGy/Osj06mSdyMl+XLtkJMsAo1i3XBohZzYSjml38q9Dr1X0Y3XB2ft1x
g3EZqZWMshA8naRXJ5datlmtN3Aka3AC3rYT6Rq78WQnilt2uo0zfeFnABAEMD8J
DZND7VlKuPLkJjjcNCkoxNPwJ5Qzyw/365eP3iyZSAmFfn3L8PzyJEG/p3WBIprA
/zKi8yLJZswtMHtgnQ2zV9zpq420z/R0u7I9xrBXYN4pKcNpjwznSMQ+/xag2UE/
zzZCUWQJnIoFLjFVkki6aonUxTycaZaN6IOqB8x1MwcHMct4CeJ9NkIwbetWIqPk
LFncR1qsSlRUSB19heoCu3zJlVfAK2VvlA1e7uhruXeWOQLRVViGHxcXqJZBvIjw
GjtdVsfp4ZupD1ZA0H4AJgfN0JQWPK10lQ1i7gOBw3iAOobi2UZsGLb2GSB2jQBj
ZkX4Ge4ZmPnSJ/YglFYlHfFAFuZPgl264sDG2qA5JhZS8N34o5CkVCPMP00+WXQi
eStvoA7avmNT7lrcfIZVSARcd3xLr80ehsCPPB+vvIaJq2T5FPwWM9E0KFY=
-----END CERTIFICATE-----
