Certificate:
    Data:
        Version: 3 (0x2)
        Serial Number: 673 (0x2a1)
    Signature Algorithm: sha1WithRSAEncryption
        Issuer: C=US, ST=CA, L=SanFrancisco, O=Pixglo, Inc., OU=VPN-CIE, CN=tunnel.pixglo.com/name=Bala Chandrasekaran/emailAddress=bala@pixglo.com
        Validity
            Not Before: Feb 14 06:39:59 2018 GMT
            Not After : Feb 12 06:39:59 2028 GMT
        Subject: C=US, ST=CA, L=SanFrancisco, O=Pixglo, Inc., OU=VPN-CIE, CN=cie672/name=Bala Chandrasekaran/emailAddress=bala@pixglo.com
        Subject Public Key Info:
            Public Key Algorithm: rsaEncryption
                Public-Key: (4096 bit)
                Modulus:
                    00:d9:b4:3c:8b:84:ae:6e:bc:ad:11:67:98:22:dc:
                    b5:54:b8:56:2f:89:d8:0c:67:e6:38:f0:bb:5c:e7:
                    44:fb:f1:ef:52:4b:9f:bf:38:e3:fb:2b:79:cd:29:
                    34:f0:2c:e6:ef:ea:2f:42:59:53:da:5a:f3:34:d3:
                    47:0e:de:38:27:d7:61:d3:0a:3e:99:3c:d8:f0:45:
                    da:97:ea:c3:67:d8:45:14:a3:db:f9:51:02:a5:bd:
                    c5:a9:b9:04:08:a4:47:bd:12:a7:67:0c:30:c6:e8:
                    d5:fc:9f:3e:e6:09:99:72:27:17:d1:66:4d:ee:b6:
                    af:a5:ec:c7:3a:d4:48:22:0d:a9:67:2e:67:ed:09:
                    cb:0b:12:31:53:d3:ba:3f:4a:39:25:05:1e:bd:61:
                    33:d4:92:e7:aa:cf:34:19:62:2f:07:20:fd:40:fb:
                    51:f2:58:ef:fc:42:db:23:13:18:a7:67:59:f4:4a:
                    fa:4e:71:b7:23:e3:53:2f:81:be:1d:6c:d5:ba:98:
                    da:74:11:f7:6e:2f:98:78:05:ca:d5:2a:c2:b0:c6:
                    d0:42:a9:af:b6:22:70:fd:63:ef:74:5e:95:e4:47:
                    30:02:3d:e2:d3:d7:d2:90:8c:1c:22:6e:d0:bc:86:
                    0b:0e:2a:69:e5:9b:73:f7:a3:4c:5a:e3:d4:bf:ed:
                    87:64:ad:6e:6f:20:0f:34:5b:6b:8e:b6:e3:6d:ec:
                    6a:30:38:1d:55:68:ba:ee:3b:d3:cf:6d:c1:7e:e7:
                    f5:37:da:a6:9a:b1:6b:95:1f:f6:86:be:b7:23:0e:
                    13:ca:92:b0:b4:72:b8:e1:9c:1c:79:35:6c:c3:ac:
                    48:d2:d9:19:2f:b7:60:e0:fe:6c:f5:14:60:2c:1e:
                    5d:34:8e:0f:e0:6b:fc:17:03:be:38:ec:cf:2b:21:
                    60:45:67:2b:c4:02:e7:1b:3a:b9:a8:8a:a4:c2:27:
                    b5:4c:17:82:cf:5b:4b:ab:a8:0d:59:51:55:90:1e:
                    ef:0d:38:d7:20:6a:05:54:72:5f:e7:ee:a5:65:0f:
                    63:51:f4:b7:d9:9a:43:ce:73:52:2e:1d:e4:4c:bf:
                    08:7b:7d:dd:b8:59:66:f0:73:6f:71:d4:a2:be:ce:
                    0f:10:b4:10:18:9f:fc:e4:54:6a:2e:9c:3c:4e:33:
                    d4:41:e7:ad:0b:e1:e5:66:e0:61:5b:c4:34:ad:e3:
                    8e:16:1f:7d:45:d7:2d:ca:4e:62:fd:85:2b:d0:c6:
                    7f:84:59:72:05:b9:c0:c7:d5:c6:c6:1e:01:95:ce:
                    ec:cf:d7:4a:90:8e:a4:f1:23:33:7c:5d:45:f9:ef:
                    09:fb:74:5f:65:71:f7:40:4d:fb:23:c3:97:c8:3b:
                    da:56:41
                Exponent: 65537 (0x10001)
        X509v3 extensions:
            X509v3 Basic Constraints: 
                CA:FALSE
            Netscape Comment: 
                Easy-RSA Generated Certificate
            X509v3 Subject Key Identifier: 
                7C:AE:AA:39:CF:05:F4:7E:B5:8B:6C:93:19:F4:D1:5A:45:78:C5:6F
            X509v3 Authority Key Identifier: 
                keyid:EF:38:8D:14:50:58:A7:5B:4D:9C:17:72:FC:DF:B9:AC:A7:51:B0:10
                DirName:/C=US/ST=CA/L=SanFrancisco/O=Pixglo, Inc./OU=VPN-CIE/CN=tunnel.pixglo.com/name=Bala Chandrasekaran/emailAddress=bala@pixglo.com
                serial:A6:DB:C6:83:80:E6:A0:79

            X509v3 Extended Key Usage: 
                TLS Web Client Authentication
            X509v3 Key Usage: 
                Digital Signature
    Signature Algorithm: sha1WithRSAEncryption
         95:dc:9e:c7:89:b1:a2:d4:d6:6b:7c:60:5d:75:b3:21:07:c4:
         81:a7:43:bd:fe:3d:f4:58:96:60:77:95:4b:64:a8:5d:df:68:
         97:b5:ff:b5:2f:7f:d6:97:eb:41:79:ef:05:70:3c:da:2b:8f:
         65:ce:4c:fc:0d:30:00:5f:66:25:3d:af:4f:52:d6:db:b5:3e:
         11:98:be:67:35:19:b0:29:88:c0:f8:1c:f2:18:34:4e:c0:0e:
         5d:32:67:ff:87:09:0d:66:7e:e9:8d:7d:4f:03:e8:02:8f:08:
         96:ff:fe:2b:25:27:13:6c:68:8b:a8:ec:2a:f6:95:81:4a:9c:
         ae:c5:4e:a6:75:60:49:0b:8e:5c:be:b6:7f:cc:17:f8:e5:e4:
         3b:36:03:81:4e:3b:09:d6:e4:c9:e4:90:4b:44:2a:3d:00:d5:
         81:66:c8:73:0d:11:90:9c:4a:c0:6f:a7:75:8d:f6:b7:72:8e:
         60:c8:41:8e:1c:7b:2b:6c:de:bc:c3:cf:46:ab:95:8c:27:e0:
         2c:3f:bd:44:b2:c0:98:b2:ab:64:46:5d:05:08:75:18:0b:dd:
         7d:78:20:0f:1b:a2:a2:d8:b2:2c:a9:be:bc:72:0a:13:bf:b8:
         29:73:2b:96:76:ec:cf:5f:05:24:3f:6f:65:5e:cc:14:1a:51:
         fd:2a:e2:5f:1c:da:12:12:0b:14:db:c6:8a:c6:87:58:e7:34:
         31:96:1f:c2:9f:d9:5f:7c:4b:45:dc:2f:eb:a2:95:81:d4:a6:
         bd:55:28:50:6f:61:ce:fb:38:58:3d:6f:0d:f3:bf:f7:1d:d5:
         1c:35:bc:41:9d:e3:58:27:16:49:bb:77:6e:ff:27:fd:dc:c4:
         91:e9:eb:61:ea:8b:d2:9e:67:0c:c8:8f:5f:26:0d:81:09:31:
         0b:09:8b:00:0a:b6:6a:cd:1b:24:8e:90:db:a8:a0:08:1a:ab:
         bc:c2:cd:47:d2:49:f1:41:76:d7:26:85:a5:06:e4:cd:27:79:
         62:94:49:b7:6b:bd:8f:a7:98:be:88:79:79:59:37:b1:2d:4e:
         c9:08:fb:ff:66:c3:e6:0f:94:03:f8:57:18:14:0a:0e:94:4e:
         74:be:ba:fa:4d:a7:32:12:de:f5:8a:d9:12:8a:7f:12:a9:b7:
         3f:af:d5:16:e1:48:e4:bc:16:80:65:4b:e3:84:fa:52:a9:b8:
         4c:63:e9:95:a4:2a:2d:66:aa:f9:94:8a:03:00:ac:76:76:46:
         c2:30:16:4c:09:cf:da:35:da:7f:65:de:f5:96:8f:c9:95:f5:
         99:4c:96:e6:be:1e:7b:bd:01:42:14:52:81:c9:6a:6f:08:ae:
         2a:e5:e2:5f:f7:eb:a7:3a
-----BEGIN CERTIFICATE-----
MIIHSDCCBTCgAwIBAgICAqEwDQYJKoZIhvcNAQEFBQAwgbQxCzAJBgNVBAYTAlVT
MQswCQYDVQQIEwJDQTEVMBMGA1UEBxMMU2FuRnJhbmNpc2NvMRUwEwYDVQQKEwxQ
aXhnbG8sIEluYy4xEDAOBgNVBAsTB1ZQTi1DSUUxGjAYBgNVBAMTEXR1bm5lbC5w
aXhnbG8uY29tMRwwGgYDVQQpExNCYWxhIENoYW5kcmFzZWthcmFuMR4wHAYJKoZI
hvcNAQkBFg9iYWxhQHBpeGdsby5jb20wHhcNMTgwMjE0MDYzOTU5WhcNMjgwMjEy
MDYzOTU5WjCBqTELMAkGA1UEBhMCVVMxCzAJBgNVBAgTAkNBMRUwEwYDVQQHEwxT
YW5GcmFuY2lzY28xFTATBgNVBAoTDFBpeGdsbywgSW5jLjEQMA4GA1UECxMHVlBO
LUNJRTEPMA0GA1UEAxMGY2llNjcyMRwwGgYDVQQpExNCYWxhIENoYW5kcmFzZWth
cmFuMR4wHAYJKoZIhvcNAQkBFg9iYWxhQHBpeGdsby5jb20wggIiMA0GCSqGSIb3
DQEBAQUAA4ICDwAwggIKAoICAQDZtDyLhK5uvK0RZ5gi3LVUuFYvidgMZ+Y48Ltc
50T78e9SS5+/OOP7K3nNKTTwLObv6i9CWVPaWvM000cO3jgn12HTCj6ZPNjwRdqX
6sNn2EUUo9v5UQKlvcWpuQQIpEe9EqdnDDDG6NX8nz7mCZlyJxfRZk3utq+l7Mc6
1EgiDalnLmftCcsLEjFT07o/SjklBR69YTPUkueqzzQZYi8HIP1A+1HyWO/8Qtsj
ExinZ1n0SvpOcbcj41Mvgb4dbNW6mNp0EfduL5h4BcrVKsKwxtBCqa+2InD9Y+90
XpXkRzACPeLT19KQjBwibtC8hgsOKmnlm3P3o0xa49S/7YdkrW5vIA80W2uOtuNt
7GowOB1VaLruO9PPbcF+5/U32qaasWuVH/aGvrcjDhPKkrC0crjhnBx5NWzDrEjS
2Rkvt2Dg/mz1FGAsHl00jg/ga/wXA7447M8rIWBFZyvEAucbOrmoiqTCJ7VMF4LP
W0urqA1ZUVWQHu8NONcgagVUcl/n7qVlD2NR9LfZmkPOc1IuHeRMvwh7fd24WWbw
c29x1KK+zg8QtBAYn/zkVGounDxOM9RB560L4eVm4GFbxDSt444WH31F1y3KTmL9
hSvQxn+EWXIFucDH1cbGHgGVzuzP10qQjqTxIzN8XUX57wn7dF9lcfdATfsjw5fI
O9pWQQIDAQABo4IBazCCAWcwCQYDVR0TBAIwADAtBglghkgBhvhCAQ0EIBYeRWFz
eS1SU0EgR2VuZXJhdGVkIENlcnRpZmljYXRlMB0GA1UdDgQWBBR8rqo5zwX0frWL
bJMZ9NFaRXjFbzCB6QYDVR0jBIHhMIHegBTvOI0UUFinW02cF3L837msp1GwEKGB
uqSBtzCBtDELMAkGA1UEBhMCVVMxCzAJBgNVBAgTAkNBMRUwEwYDVQQHEwxTYW5G
cmFuY2lzY28xFTATBgNVBAoTDFBpeGdsbywgSW5jLjEQMA4GA1UECxMHVlBOLUNJ
RTEaMBgGA1UEAxMRdHVubmVsLnBpeGdsby5jb20xHDAaBgNVBCkTE0JhbGEgQ2hh
bmRyYXNla2FyYW4xHjAcBgkqhkiG9w0BCQEWD2JhbGFAcGl4Z2xvLmNvbYIJAKbb
xoOA5qB5MBMGA1UdJQQMMAoGCCsGAQUFBwMCMAsGA1UdDwQEAwIHgDANBgkqhkiG
9w0BAQUFAAOCAgEAldyex4mxotTWa3xgXXWzIQfEgadDvf499FiWYHeVS2SoXd9o
l7X/tS9/1pfrQXnvBXA82iuPZc5M/A0wAF9mJT2vT1LW27U+EZi+ZzUZsCmIwPgc
8hg0TsAOXTJn/4cJDWZ+6Y19TwPoAo8Ilv/+KyUnE2xoi6jsKvaVgUqcrsVOpnVg
SQuOXL62f8wX+OXkOzYDgU47CdbkyeSQS0QqPQDVgWbIcw0RkJxKwG+ndY32t3KO
YMhBjhx7K2zevMPPRquVjCfgLD+9RLLAmLKrZEZdBQh1GAvdfXggDxuiotiyLKm+
vHIKE7+4KXMrlnbsz18FJD9vZV7MFBpR/SriXxzaEhILFNvGisaHWOc0MZYfwp/Z
X3xLRdwv66KVgdSmvVUoUG9hzvs4WD1vDfO/9x3VHDW8QZ3jWCcWSbt3bv8n/dzE
kenrYeqL0p5nDMiPXyYNgQkxCwmLAAq2as0bJI6Q26igCBqrvMLNR9JJ8UF21yaF
pQbkzSd5YpRJt2u9j6eYvoh5eVk3sS1OyQj7/2bD5g+UA/hXGBQKDpROdL66+k2n
MhLe9YrZEop/Eqm3P6/VFuFI5LwWgGVL44T6Uqm4TGPplaQqLWaq+ZSKAwCsdnZG
wjAWTAnP2jXaf2Xe9ZaPyZX1mUyW5r4ee70BQhRSgclqbwiuKuXiX/frpzo=
-----END CERTIFICATE-----
