Certificate:
    Data:
        Version: 3 (0x2)
        Serial Number: 675 (0x2a3)
    Signature Algorithm: sha1WithRSAEncryption
        Issuer: C=US, ST=CA, L=SanFrancisco, O=Pixglo, Inc., OU=VPN-CIE, CN=tunnel.pixglo.com/name=Bala Chandrasekaran/emailAddress=bala@pixglo.com
        Validity
            Not Before: Feb 14 06:40:03 2018 GMT
            Not After : Feb 12 06:40:03 2028 GMT
        Subject: C=US, ST=CA, L=SanFrancisco, O=Pixglo, Inc., OU=VPN-CIE, CN=cie674/name=Bala Chandrasekaran/emailAddress=bala@pixglo.com
        Subject Public Key Info:
            Public Key Algorithm: rsaEncryption
                Public-Key: (4096 bit)
                Modulus:
                    00:ef:c6:39:5f:e4:2d:49:1e:6c:03:fa:7e:d0:88:
                    84:05:c2:62:93:09:95:69:57:ff:1b:49:5f:27:b7:
                    4f:fb:db:ad:98:5b:46:47:a4:4e:ec:80:5c:74:2d:
                    f2:ee:0c:46:de:82:05:7b:68:e8:96:64:f5:9b:29:
                    bf:46:5f:59:59:23:a2:ae:d7:35:63:04:28:c4:56:
                    a4:62:73:fc:31:ab:6f:0d:d9:54:6c:22:de:21:34:
                    3a:3f:ac:44:9d:81:cc:aa:40:a1:b3:76:46:d1:45:
                    f1:45:d2:89:d4:72:fa:1c:a2:ca:ba:23:ed:cf:5c:
                    43:ba:50:10:3a:6b:e3:39:fe:a3:cb:ae:aa:74:99:
                    ba:28:74:67:e9:2e:1f:26:37:13:71:19:be:d6:18:
                    5f:6e:d6:09:74:df:ba:41:dd:54:4c:3d:9e:5e:94:
                    79:6b:1e:1a:dd:8e:97:a0:e2:fd:a7:16:36:cb:08:
                    49:5f:1c:7a:74:a4:62:bd:f0:e5:11:54:6a:0a:5b:
                    4b:0e:8d:e6:f4:20:da:7d:4c:40:26:f8:19:ea:dc:
                    c9:46:8c:5b:44:9f:0a:24:2b:26:99:f8:46:38:3c:
                    c9:5a:1d:fa:1b:59:ed:a0:d3:45:94:cd:39:b5:43:
                    c9:1b:06:82:06:71:a0:e5:c2:8c:ca:4f:b7:cd:34:
                    4e:38:c2:a1:4a:09:5c:7f:25:3c:87:ab:a5:b1:60:
                    d7:fa:10:de:99:33:2e:6e:91:4a:8b:1a:4c:1b:00:
                    3f:5c:83:4e:5e:69:ff:88:46:ce:74:aa:26:db:26:
                    f6:91:e4:9d:36:c9:02:12:10:18:1d:a4:3d:cd:39:
                    a1:03:d7:ac:da:f0:08:5b:f3:89:7e:51:23:e2:85:
                    99:20:d4:5a:30:4f:c4:92:ee:e9:56:93:07:40:16:
                    93:ed:6c:2e:b1:aa:f1:66:d1:30:31:78:21:7c:d4:
                    2d:b1:0d:ab:8f:60:38:58:bd:46:46:31:d6:65:eb:
                    ad:f3:6a:0b:87:bc:0e:14:b8:3e:33:7b:d9:ed:25:
                    8a:02:c2:9d:b8:62:2d:79:09:7c:9f:a6:f0:b1:8c:
                    f0:c8:35:7f:f8:35:92:cd:80:23:26:c6:f1:57:8d:
                    82:7e:0b:3b:88:b1:c7:d8:6d:26:f1:fa:a1:a2:1c:
                    c7:e2:79:9f:26:a8:a9:cb:be:38:c2:65:7d:4d:1b:
                    90:87:e9:b9:6b:94:43:3c:38:4f:04:26:d7:62:48:
                    7d:85:1a:6a:0f:ff:e0:84:04:d9:c5:22:e4:6b:6e:
                    54:59:e6:38:cf:99:d4:e1:0b:98:c3:1c:68:fe:ca:
                    2c:94:b7:ff:b8:40:81:05:ee:8c:fe:fa:18:0d:28:
                    83:50:d5
                Exponent: 65537 (0x10001)
        X509v3 extensions:
            X509v3 Basic Constraints: 
                CA:FALSE
            Netscape Comment: 
                Easy-RSA Generated Certificate
            X509v3 Subject Key Identifier: 
                14:99:89:FB:0E:BC:87:C2:52:20:ED:89:75:B2:F0:DD:D5:75:FE:D9
            X509v3 Authority Key Identifier: 
                keyid:EF:38:8D:14:50:58:A7:5B:4D:9C:17:72:FC:DF:B9:AC:A7:51:B0:10
                DirName:/C=US/ST=CA/L=SanFrancisco/O=Pixglo, Inc./OU=VPN-CIE/CN=tunnel.pixglo.com/name=Bala Chandrasekaran/emailAddress=bala@pixglo.com
                serial:A6:DB:C6:83:80:E6:A0:79

            X509v3 Extended Key Usage: 
                TLS Web Client Authentication
            X509v3 Key Usage: 
                Digital Signature
    Signature Algorithm: sha1WithRSAEncryption
         53:cf:ce:56:15:93:82:d7:3c:66:ae:d7:b3:a6:2c:b8:2a:96:
         dc:6a:d3:77:99:68:45:c1:d2:10:04:ae:a4:5a:c2:15:7c:32:
         5a:2d:2d:b8:6e:9e:06:8c:8e:7b:8a:8e:3a:c0:cd:ac:cf:5d:
         ac:ae:26:06:fb:0f:c2:30:b1:90:be:db:3d:4b:8a:cf:8b:01:
         6c:bf:1d:4b:ce:3f:bb:68:ee:79:40:be:54:1e:fc:5a:31:08:
         74:0e:89:69:b6:25:88:39:77:30:c0:bb:37:c5:c8:76:5c:20:
         25:6e:b8:93:36:0d:c8:5f:04:78:73:2f:42:da:9d:34:28:98:
         87:70:b5:3b:18:c1:79:c1:60:2e:6a:0d:0e:e2:1b:68:2b:87:
         db:d4:ae:83:e6:ff:d7:60:08:3a:86:16:28:ac:09:c8:c9:7c:
         47:b0:e4:36:77:18:44:9e:bf:7a:25:7d:76:31:c2:86:6c:5f:
         ae:70:38:95:54:e6:cf:f5:eb:ff:4a:d0:b4:fb:f0:f0:c7:b3:
         35:45:a9:4b:bf:a1:2c:80:88:5b:d4:e8:2a:c9:9b:03:ec:af:
         47:ea:38:4a:bb:f7:9b:8b:15:fe:d4:70:c4:dc:c4:46:30:d4:
         cf:3e:2c:3a:cf:e9:1e:1c:dc:a8:e3:8c:0c:45:b8:65:dc:41:
         30:76:c0:23:77:f9:88:ff:6a:1a:29:3c:32:27:54:02:6f:ee:
         d5:51:06:e4:cf:bb:ba:44:4f:69:cd:7d:4b:5e:79:c4:92:14:
         4d:d6:cf:f3:c8:fe:21:16:76:9b:e6:56:c7:a2:e9:b1:44:89:
         d5:23:7c:e4:fe:f4:7a:76:1f:6e:63:d2:67:9e:8a:f3:35:04:
         17:01:a9:48:5d:21:17:52:8f:b8:da:c9:b7:6b:6d:c9:cb:dd:
         fc:56:7a:d0:f1:f4:82:ba:52:c2:60:03:db:54:2d:91:06:c8:
         3a:34:58:88:9a:bd:c9:8c:9f:87:cb:a5:b1:17:46:46:61:3e:
         9d:25:a2:f7:6d:d7:18:35:c2:9d:3f:e7:f1:9f:fb:a8:77:9f:
         2e:b4:de:d9:c0:d9:35:6b:89:32:5e:f1:5e:72:b9:db:f9:52:
         6e:5a:7a:5e:8f:38:84:30:a8:c7:00:73:c4:2f:7c:13:74:0c:
         34:30:fb:21:d5:1f:c7:55:4e:5c:b1:b0:9d:28:bd:c6:94:ef:
         a0:c9:f8:fc:1d:ef:28:69:ee:2f:6b:1c:64:f0:a2:e3:a6:ce:
         21:86:78:19:03:12:ca:76:24:7b:9a:30:da:dc:65:d8:a5:d2:
         09:11:af:ff:44:f5:18:3b:25:c6:fd:5e:80:a1:4c:ff:19:bf:
         69:3b:49:76:1c:44:90:7d
-----BEGIN CERTIFICATE-----
MIIHSDCCBTCgAwIBAgICAqMwDQYJKoZIhvcNAQEFBQAwgbQxCzAJBgNVBAYTAlVT
MQswCQYDVQQIEwJDQTEVMBMGA1UEBxMMU2FuRnJhbmNpc2NvMRUwEwYDVQQKEwxQ
aXhnbG8sIEluYy4xEDAOBgNVBAsTB1ZQTi1DSUUxGjAYBgNVBAMTEXR1bm5lbC5w
aXhnbG8uY29tMRwwGgYDVQQpExNCYWxhIENoYW5kcmFzZWthcmFuMR4wHAYJKoZI
hvcNAQkBFg9iYWxhQHBpeGdsby5jb20wHhcNMTgwMjE0MDY0MDAzWhcNMjgwMjEy
MDY0MDAzWjCBqTELMAkGA1UEBhMCVVMxCzAJBgNVBAgTAkNBMRUwEwYDVQQHEwxT
YW5GcmFuY2lzY28xFTATBgNVBAoTDFBpeGdsbywgSW5jLjEQMA4GA1UECxMHVlBO
LUNJRTEPMA0GA1UEAxMGY2llNjc0MRwwGgYDVQQpExNCYWxhIENoYW5kcmFzZWth
cmFuMR4wHAYJKoZIhvcNAQkBFg9iYWxhQHBpeGdsby5jb20wggIiMA0GCSqGSIb3
DQEBAQUAA4ICDwAwggIKAoICAQDvxjlf5C1JHmwD+n7QiIQFwmKTCZVpV/8bSV8n
t0/7262YW0ZHpE7sgFx0LfLuDEbeggV7aOiWZPWbKb9GX1lZI6Ku1zVjBCjEVqRi
c/wxq28N2VRsIt4hNDo/rESdgcyqQKGzdkbRRfFF0onUcvocosq6I+3PXEO6UBA6
a+M5/qPLrqp0mboodGfpLh8mNxNxGb7WGF9u1gl037pB3VRMPZ5elHlrHhrdjpeg
4v2nFjbLCElfHHp0pGK98OURVGoKW0sOjeb0INp9TEAm+Bnq3MlGjFtEnwokKyaZ
+EY4PMlaHfobWe2g00WUzTm1Q8kbBoIGcaDlwozKT7fNNE44wqFKCVx/JTyHq6Wx
YNf6EN6ZMy5ukUqLGkwbAD9cg05eaf+IRs50qibbJvaR5J02yQISEBgdpD3NOaED
16za8Ahb84l+USPihZkg1FowT8SS7ulWkwdAFpPtbC6xqvFm0TAxeCF81C2xDauP
YDhYvUZGMdZl663zaguHvA4UuD4ze9ntJYoCwp24Yi15CXyfpvCxjPDINX/4NZLN
gCMmxvFXjYJ+CzuIscfYbSbx+qGiHMfieZ8mqKnLvjjCZX1NG5CH6blrlEM8OE8E
JtdiSH2FGmoP/+CEBNnFIuRrblRZ5jjPmdThC5jDHGj+yiyUt/+4QIEF7oz++hgN
KINQ1QIDAQABo4IBazCCAWcwCQYDVR0TBAIwADAtBglghkgBhvhCAQ0EIBYeRWFz
eS1SU0EgR2VuZXJhdGVkIENlcnRpZmljYXRlMB0GA1UdDgQWBBQUmYn7DryHwlIg
7Yl1svDd1XX+2TCB6QYDVR0jBIHhMIHegBTvOI0UUFinW02cF3L837msp1GwEKGB
uqSBtzCBtDELMAkGA1UEBhMCVVMxCzAJBgNVBAgTAkNBMRUwEwYDVQQHEwxTYW5G
cmFuY2lzY28xFTATBgNVBAoTDFBpeGdsbywgSW5jLjEQMA4GA1UECxMHVlBOLUNJ
RTEaMBgGA1UEAxMRdHVubmVsLnBpeGdsby5jb20xHDAaBgNVBCkTE0JhbGEgQ2hh
bmRyYXNla2FyYW4xHjAcBgkqhkiG9w0BCQEWD2JhbGFAcGl4Z2xvLmNvbYIJAKbb
xoOA5qB5MBMGA1UdJQQMMAoGCCsGAQUFBwMCMAsGA1UdDwQEAwIHgDANBgkqhkiG
9w0BAQUFAAOCAgEAU8/OVhWTgtc8Zq7Xs6YsuCqW3GrTd5loRcHSEASupFrCFXwy
Wi0tuG6eBoyOe4qOOsDNrM9drK4mBvsPwjCxkL7bPUuKz4sBbL8dS84/u2jueUC+
VB78WjEIdA6JabYliDl3MMC7N8XIdlwgJW64kzYNyF8EeHMvQtqdNCiYh3C1OxjB
ecFgLmoNDuIbaCuH29Sug+b/12AIOoYWKKwJyMl8R7DkNncYRJ6/eiV9djHChmxf
rnA4lVTmz/Xr/0rQtPvw8MezNUWpS7+hLICIW9ToKsmbA+yvR+o4Srv3m4sV/tRw
xNzERjDUzz4sOs/pHhzcqOOMDEW4ZdxBMHbAI3f5iP9qGik8MidUAm/u1VEG5M+7
ukRPac19S155xJIUTdbP88j+IRZ2m+ZWx6LpsUSJ1SN85P70enYfbmPSZ56K8zUE
FwGpSF0hF1KPuNrJt2ttycvd/FZ60PH0grpSwmAD21QtkQbIOjRYiJq9yYyfh8ul
sRdGRmE+nSWi923XGDXCnT/n8Z/7qHefLrTe2cDZNWuJMl7xXnK52/lSblp6Xo84
hDCoxwBzxC98E3QMNDD7IdUfx1VOXLGwnSi9xpTvoMn4/B3vKGnuL2scZPCi46bO
IYZ4GQMSynYke5ow2txl2KXSCRGv/0T1GDslxv1egKFM/xm/aTtJdhxEkH0=
-----END CERTIFICATE-----
