Certificate:
    Data:
        Version: 3 (0x2)
        Serial Number: 677 (0x2a5)
    Signature Algorithm: sha1WithRSAEncryption
        Issuer: C=US, ST=CA, L=SanFrancisco, O=Pixglo, Inc., OU=VPN-CIE, CN=tunnel.pixglo.com/name=Bala Chandrasekaran/emailAddress=bala@pixglo.com
        Validity
            Not Before: Feb 14 06:40:06 2018 GMT
            Not After : Feb 12 06:40:06 2028 GMT
        Subject: C=US, ST=CA, L=SanFrancisco, O=Pixglo, Inc., OU=VPN-CIE, CN=cie676/name=Bala Chandrasekaran/emailAddress=bala@pixglo.com
        Subject Public Key Info:
            Public Key Algorithm: rsaEncryption
                Public-Key: (4096 bit)
                Modulus:
                    00:d2:f2:96:ef:64:9c:29:d1:e6:d8:22:68:ad:44:
                    81:e6:52:fd:78:fb:e8:80:68:9f:0b:54:0e:3f:69:
                    a5:6a:5a:c4:7b:dd:c1:55:bd:a2:df:fd:ac:68:54:
                    72:48:fd:5d:a3:9e:d5:80:57:22:b3:71:2a:0d:2a:
                    67:dd:d9:73:5e:a1:4e:ef:f9:26:26:b5:0e:ce:0a:
                    dc:c3:38:ff:26:1c:86:13:a7:62:72:fd:35:a8:24:
                    88:9b:8d:08:6f:e4:a3:b0:b7:95:46:db:5f:d3:c1:
                    78:6b:43:c7:af:d8:74:4c:05:23:72:82:b0:2b:42:
                    6e:dd:cf:a9:53:99:31:aa:aa:71:76:33:41:aa:07:
                    c1:a4:44:ce:e3:d0:b5:5f:70:24:a3:b4:ed:57:44:
                    24:80:3f:e9:b7:67:5a:59:b2:93:9e:6c:14:f3:f2:
                    23:a4:77:30:b4:79:5a:c2:34:4a:ae:f5:b6:7c:51:
                    27:07:81:f3:6e:27:37:d1:7d:43:b8:a7:79:41:de:
                    5d:21:f1:a0:33:00:9e:a9:df:81:ae:82:52:87:9e:
                    c1:10:31:71:dd:31:08:25:b6:c0:d3:2e:75:86:72:
                    55:8f:a7:bc:f4:9b:1c:11:b9:7c:6d:43:ce:96:b4:
                    da:da:36:05:55:56:d5:01:2d:7c:16:0e:e4:27:e9:
                    73:0f:78:d2:b5:9b:f6:03:bf:81:60:20:98:26:5a:
                    58:dd:98:ec:9e:4e:5e:1f:9f:fd:7e:c7:83:ff:21:
                    39:56:2d:88:9c:e4:07:39:29:8c:67:cd:99:8e:32:
                    40:d9:12:f1:5d:e8:ec:8a:f3:4b:a6:c9:68:fb:d1:
                    30:d3:2d:7b:09:77:3d:02:ac:9f:1a:27:9f:72:bd:
                    d3:7f:f5:1a:2c:42:8e:4c:f3:e3:62:69:93:4d:dd:
                    5e:17:15:cf:dc:dd:20:32:ce:f1:d2:a5:df:03:c8:
                    35:1d:64:ac:c0:8b:23:07:b0:d1:fd:29:22:9d:12:
                    59:f6:b9:19:8a:62:63:68:0e:25:d6:6e:11:dc:5d:
                    0b:88:fa:f1:f5:5d:78:cf:de:0c:52:24:42:23:12:
                    ce:a9:8e:f1:ad:50:db:ed:24:4e:ea:de:ca:48:ff:
                    51:49:18:a5:2f:24:71:88:82:33:1e:15:fa:7c:be:
                    9e:9e:2f:10:e7:1d:51:b9:8d:29:9e:10:e5:b5:4e:
                    9e:18:59:cf:42:f0:c6:c2:1b:d4:40:52:7b:4b:1e:
                    f2:40:b1:2c:a8:f3:8e:ed:5f:54:06:e1:8e:69:74:
                    4b:5b:44:57:9a:a9:6d:d3:ca:fa:91:84:53:9e:fe:
                    a2:de:f6:d4:0f:e9:70:4a:d2:25:17:40:24:5a:f1:
                    20:9c:e5
                Exponent: 65537 (0x10001)
        X509v3 extensions:
            X509v3 Basic Constraints: 
                CA:FALSE
            Netscape Comment: 
                Easy-RSA Generated Certificate
            X509v3 Subject Key Identifier: 
                8A:EA:E5:E6:55:E9:F6:DD:66:56:F2:51:6A:57:66:2B:D2:A0:B3:CC
            X509v3 Authority Key Identifier: 
                keyid:EF:38:8D:14:50:58:A7:5B:4D:9C:17:72:FC:DF:B9:AC:A7:51:B0:10
                DirName:/C=US/ST=CA/L=SanFrancisco/O=Pixglo, Inc./OU=VPN-CIE/CN=tunnel.pixglo.com/name=Bala Chandrasekaran/emailAddress=bala@pixglo.com
                serial:A6:DB:C6:83:80:E6:A0:79

            X509v3 Extended Key Usage: 
                TLS Web Client Authentication
            X509v3 Key Usage: 
                Digital Signature
    Signature Algorithm: sha1WithRSAEncryption
         87:c4:13:b9:d3:07:a1:9e:ac:01:1e:62:f9:3b:58:23:22:cd:
         8a:04:be:de:fc:81:98:98:e0:50:0e:eb:92:25:29:27:ff:3b:
         ae:cd:4a:7c:32:20:e5:10:52:ed:1b:0b:26:91:96:c0:24:62:
         d4:ed:48:70:e1:fd:5e:74:fa:37:2a:19:2a:24:30:d4:8c:6e:
         cc:fe:40:68:16:a3:5a:1b:35:52:15:60:25:90:2d:28:02:c0:
         a7:16:c8:82:ef:03:53:9c:8e:48:11:21:b1:96:cd:d2:96:37:
         ba:09:33:05:09:af:b6:37:89:52:07:e8:ab:97:ea:55:9c:ce:
         a9:f2:e0:ef:97:7a:0c:14:3a:8e:8c:26:e3:51:4f:02:4b:5d:
         4d:d9:0c:10:13:d8:b2:b5:d8:1b:87:1f:c1:6f:89:04:66:ac:
         a4:33:1d:71:80:4f:fb:89:da:48:97:d9:4d:c0:93:43:86:fc:
         03:0f:47:75:ed:23:31:c1:f4:66:48:5c:da:8a:f2:8f:30:f5:
         b4:6a:1b:84:16:1b:ef:03:09:ae:2a:b2:24:90:cb:ae:d1:5c:
         e1:2f:5b:a0:0f:2d:e3:f9:96:79:82:f1:91:d4:0e:e5:87:68:
         31:ff:fc:be:f8:cd:d6:18:16:c9:d8:89:e4:69:f8:65:4c:c6:
         e9:c5:79:05:03:18:13:ac:cf:b4:cc:0b:94:21:11:64:50:65:
         ef:ba:87:7e:bf:ac:53:ca:fa:32:83:49:52:37:2b:95:d8:9f:
         af:69:9c:95:3c:34:21:56:64:8b:ed:53:49:05:d8:61:6e:9d:
         14:cf:8e:a2:f0:3d:e1:13:b1:7a:ba:37:31:57:a9:c7:fc:03:
         e9:b9:f0:8e:52:4e:1f:a4:67:d5:98:a8:b6:31:12:3d:95:45:
         eb:31:c7:9e:6d:ba:fd:67:3d:45:a4:d0:1a:f8:7a:ea:6d:39:
         8f:b7:dd:3b:de:60:13:11:22:9c:d9:6b:98:40:e0:d8:be:6c:
         2d:63:e7:c8:9e:75:e8:e3:e1:d1:d9:0b:e9:d3:82:8b:b1:1e:
         0f:9b:d7:9e:12:ce:15:15:f1:76:d6:ce:53:14:f3:9e:c0:3b:
         fe:88:07:ab:d1:34:42:c1:75:7b:b1:7f:0d:fe:47:fb:02:bc:
         35:a1:c3:50:63:f6:5f:07:ab:f8:83:ba:db:39:0d:5d:45:de:
         d5:ef:d7:75:43:b7:1d:ba:7d:20:94:5d:2a:d4:81:18:42:11:
         a9:6e:16:31:75:b4:76:c9:d6:c0:c3:ab:9f:ba:6f:42:f1:e1:
         0d:7a:5e:a8:14:24:cf:bc:08:de:a0:4d:14:e2:28:60:27:e3:
         bb:4e:30:9b:86:0f:55:cd
-----BEGIN CERTIFICATE-----
MIIHSDCCBTCgAwIBAgICAqUwDQYJKoZIhvcNAQEFBQAwgbQxCzAJBgNVBAYTAlVT
MQswCQYDVQQIEwJDQTEVMBMGA1UEBxMMU2FuRnJhbmNpc2NvMRUwEwYDVQQKEwxQ
aXhnbG8sIEluYy4xEDAOBgNVBAsTB1ZQTi1DSUUxGjAYBgNVBAMTEXR1bm5lbC5w
aXhnbG8uY29tMRwwGgYDVQQpExNCYWxhIENoYW5kcmFzZWthcmFuMR4wHAYJKoZI
hvcNAQkBFg9iYWxhQHBpeGdsby5jb20wHhcNMTgwMjE0MDY0MDA2WhcNMjgwMjEy
MDY0MDA2WjCBqTELMAkGA1UEBhMCVVMxCzAJBgNVBAgTAkNBMRUwEwYDVQQHEwxT
YW5GcmFuY2lzY28xFTATBgNVBAoTDFBpeGdsbywgSW5jLjEQMA4GA1UECxMHVlBO
LUNJRTEPMA0GA1UEAxMGY2llNjc2MRwwGgYDVQQpExNCYWxhIENoYW5kcmFzZWth
cmFuMR4wHAYJKoZIhvcNAQkBFg9iYWxhQHBpeGdsby5jb20wggIiMA0GCSqGSIb3
DQEBAQUAA4ICDwAwggIKAoICAQDS8pbvZJwp0ebYImitRIHmUv14++iAaJ8LVA4/
aaVqWsR73cFVvaLf/axoVHJI/V2jntWAVyKzcSoNKmfd2XNeoU7v+SYmtQ7OCtzD
OP8mHIYTp2Jy/TWoJIibjQhv5KOwt5VG21/TwXhrQ8ev2HRMBSNygrArQm7dz6lT
mTGqqnF2M0GqB8GkRM7j0LVfcCSjtO1XRCSAP+m3Z1pZspOebBTz8iOkdzC0eVrC
NEqu9bZ8UScHgfNuJzfRfUO4p3lB3l0h8aAzAJ6p34GuglKHnsEQMXHdMQgltsDT
LnWGclWPp7z0mxwRuXxtQ86WtNraNgVVVtUBLXwWDuQn6XMPeNK1m/YDv4FgIJgm
WljdmOyeTl4fn/1+x4P/ITlWLYic5Ac5KYxnzZmOMkDZEvFd6OyK80umyWj70TDT
LXsJdz0CrJ8aJ59yvdN/9RosQo5M8+NiaZNN3V4XFc/c3SAyzvHSpd8DyDUdZKzA
iyMHsNH9KSKdEln2uRmKYmNoDiXWbhHcXQuI+vH1XXjP3gxSJEIjEs6pjvGtUNvt
JE7q3spI/1FJGKUvJHGIgjMeFfp8vp6eLxDnHVG5jSmeEOW1Tp4YWc9C8MbCG9RA
UntLHvJAsSyo847tX1QG4Y5pdEtbRFeaqW3TyvqRhFOe/qLe9tQP6XBK0iUXQCRa
8SCc5QIDAQABo4IBazCCAWcwCQYDVR0TBAIwADAtBglghkgBhvhCAQ0EIBYeRWFz
eS1SU0EgR2VuZXJhdGVkIENlcnRpZmljYXRlMB0GA1UdDgQWBBSK6uXmVen23WZW
8lFqV2Yr0qCzzDCB6QYDVR0jBIHhMIHegBTvOI0UUFinW02cF3L837msp1GwEKGB
uqSBtzCBtDELMAkGA1UEBhMCVVMxCzAJBgNVBAgTAkNBMRUwEwYDVQQHEwxTYW5G
cmFuY2lzY28xFTATBgNVBAoTDFBpeGdsbywgSW5jLjEQMA4GA1UECxMHVlBOLUNJ
RTEaMBgGA1UEAxMRdHVubmVsLnBpeGdsby5jb20xHDAaBgNVBCkTE0JhbGEgQ2hh
bmRyYXNla2FyYW4xHjAcBgkqhkiG9w0BCQEWD2JhbGFAcGl4Z2xvLmNvbYIJAKbb
xoOA5qB5MBMGA1UdJQQMMAoGCCsGAQUFBwMCMAsGA1UdDwQEAwIHgDANBgkqhkiG
9w0BAQUFAAOCAgEAh8QTudMHoZ6sAR5i+TtYIyLNigS+3vyBmJjgUA7rkiUpJ/87
rs1KfDIg5RBS7RsLJpGWwCRi1O1IcOH9XnT6NyoZKiQw1IxuzP5AaBajWhs1UhVg
JZAtKALApxbIgu8DU5yOSBEhsZbN0pY3ugkzBQmvtjeJUgfoq5fqVZzOqfLg75d6
DBQ6jowm41FPAktdTdkMEBPYsrXYG4cfwW+JBGaspDMdcYBP+4naSJfZTcCTQ4b8
Aw9Hde0jMcH0Zkhc2oryjzD1tGobhBYb7wMJriqyJJDLrtFc4S9boA8t4/mWeYLx
kdQO5YdoMf/8vvjN1hgWydiJ5Gn4ZUzG6cV5BQMYE6zPtMwLlCERZFBl77qHfr+s
U8r6MoNJUjcrldifr2mclTw0IVZki+1TSQXYYW6dFM+OovA94ROxero3MVepx/wD
6bnwjlJOH6Rn1ZiotjESPZVF6zHHnm26/Wc9RaTQGvh66m05j7fdO95gExEinNlr
mEDg2L5sLWPnyJ516OPh0dkL6dOCi7EeD5vXnhLOFRXxdtbOUxTznsA7/ogHq9E0
QsF1e7F/Df5H+wK8NaHDUGP2Xwer+IO62zkNXUXe1e/XdUO3Hbp9IJRdKtSBGEIR
qW4WMXW0dsnWwMOrn7pvQvHhDXpeqBQkz7wI3qBNFOIoYCfju04wm4YPVc0=
-----END CERTIFICATE-----
