Certificate:
    Data:
        Version: 3 (0x2)
        Serial Number: 678 (0x2a6)
    Signature Algorithm: sha1WithRSAEncryption
        Issuer: C=US, ST=CA, L=SanFrancisco, O=Pixglo, Inc., OU=VPN-CIE, CN=tunnel.pixglo.com/name=Bala Chandrasekaran/emailAddress=bala@pixglo.com
        Validity
            Not Before: Feb 14 06:40:08 2018 GMT
            Not After : Feb 12 06:40:08 2028 GMT
        Subject: C=US, ST=CA, L=SanFrancisco, O=Pixglo, Inc., OU=VPN-CIE, CN=cie677/name=Bala Chandrasekaran/emailAddress=bala@pixglo.com
        Subject Public Key Info:
            Public Key Algorithm: rsaEncryption
                Public-Key: (4096 bit)
                Modulus:
                    00:d7:f0:1a:92:0a:3d:9a:97:34:e5:7e:e7:9b:ad:
                    99:38:ad:8c:a2:f1:5b:db:ff:f1:1e:a4:1f:39:36:
                    ea:50:da:45:2c:77:3c:8a:5f:cc:16:81:34:b0:b2:
                    d9:c5:06:49:99:65:a1:59:22:54:43:50:30:b5:8a:
                    7f:cf:d0:7f:d4:5a:01:6f:8b:8a:e1:8d:50:3f:03:
                    b3:2b:a7:1f:20:7f:79:e9:ab:51:0f:e6:ea:08:ca:
                    86:2d:b7:8d:78:dd:6a:bf:b5:12:18:8b:68:b8:f5:
                    ff:2c:b5:43:a6:79:30:86:40:95:d9:b5:0f:0c:ec:
                    76:c5:23:0c:a8:34:d2:57:a3:d1:20:5e:23:a5:90:
                    c0:d3:6d:3a:b5:42:24:7a:9c:2a:97:72:e0:26:d1:
                    f7:ab:92:dc:68:88:0a:6c:b6:0d:2e:ee:92:dc:0a:
                    b3:ca:5c:d2:22:6f:b8:34:f7:35:25:d5:ec:07:10:
                    52:1b:f1:f6:1c:be:4d:87:0c:89:9e:4b:cd:07:a5:
                    ca:d8:3e:35:e3:16:cb:59:b7:44:e3:7f:8c:41:62:
                    6d:2b:f2:37:0d:f3:bc:75:31:14:57:a3:67:d2:11:
                    e8:e4:8b:aa:92:cb:ed:96:0b:44:41:f6:aa:d5:e6:
                    f7:94:c7:5c:bd:69:ee:d2:bd:2f:a2:1c:db:b9:29:
                    b0:2e:b5:22:3a:05:db:c3:f7:be:f7:4e:d5:f1:38:
                    4c:21:a2:a6:73:de:a3:0d:c9:d4:3e:7e:20:c7:3c:
                    79:f7:82:b0:b6:06:e2:7b:37:2b:2a:49:3d:95:70:
                    41:9b:76:da:35:67:f6:8c:3f:ad:5d:32:1a:35:02:
                    be:40:cb:72:56:88:da:66:b3:ef:f5:8a:3b:b8:fa:
                    17:1d:51:9a:47:90:b0:16:9f:7f:22:e6:35:7a:06:
                    58:d9:f3:c7:67:32:7d:bf:dd:1d:5e:a0:76:2b:fc:
                    63:27:6d:7a:a6:88:6b:cf:b3:03:b1:23:25:41:88:
                    17:02:31:af:fc:52:01:32:26:6b:4f:10:a7:36:9b:
                    38:d9:21:d1:bf:47:41:4d:61:55:14:27:85:dd:93:
                    1a:4a:c4:b3:b3:75:b9:6e:a1:fb:e3:8f:62:c9:69:
                    01:32:e4:33:94:47:3d:8b:80:fa:4f:08:9b:ad:57:
                    cd:df:03:c5:f7:e6:47:2d:ab:88:cf:70:55:16:71:
                    4d:45:04:d4:29:ec:62:b3:5f:11:e8:ad:64:9f:44:
                    ad:c9:ca:57:ae:76:d2:41:10:e8:53:0c:03:0a:59:
                    24:6e:90:68:3f:56:fb:ec:02:f2:84:97:cd:72:48:
                    af:86:86:0c:d7:77:67:2e:93:13:83:fc:b0:cf:b3:
                    02:0c:19
                Exponent: 65537 (0x10001)
        X509v3 extensions:
            X509v3 Basic Constraints: 
                CA:FALSE
            Netscape Comment: 
                Easy-RSA Generated Certificate
            X509v3 Subject Key Identifier: 
                D7:6A:B4:B2:81:F8:31:58:FA:2E:F5:B3:21:BF:79:F3:5D:EA:04:46
            X509v3 Authority Key Identifier: 
                keyid:EF:38:8D:14:50:58:A7:5B:4D:9C:17:72:FC:DF:B9:AC:A7:51:B0:10
                DirName:/C=US/ST=CA/L=SanFrancisco/O=Pixglo, Inc./OU=VPN-CIE/CN=tunnel.pixglo.com/name=Bala Chandrasekaran/emailAddress=bala@pixglo.com
                serial:A6:DB:C6:83:80:E6:A0:79

            X509v3 Extended Key Usage: 
                TLS Web Client Authentication
            X509v3 Key Usage: 
                Digital Signature
    Signature Algorithm: sha1WithRSAEncryption
         47:56:79:66:26:ee:a2:12:74:6d:2c:4f:78:67:0b:59:ea:03:
         40:21:4e:6c:51:1e:c9:d0:79:27:bc:07:92:68:3f:2d:6c:12:
         29:55:b3:3d:8a:16:f1:d9:46:c2:16:d8:54:a8:96:90:f2:27:
         81:df:66:e2:2b:37:2f:cf:a7:40:6a:97:86:c7:81:59:8c:23:
         d1:2d:10:d0:95:9d:ad:e8:f7:49:d3:f1:84:dc:f2:2a:a6:49:
         4a:b1:98:fe:65:b9:50:c4:fa:65:b2:b5:93:c1:6f:b4:53:6d:
         45:2b:cf:22:b3:6a:95:63:f0:8d:46:8f:00:61:59:7a:4a:28:
         95:71:01:11:13:8a:06:86:f6:10:89:4c:6f:d4:32:a4:83:76:
         2d:3f:25:44:a9:6f:cb:e0:30:8e:bd:cc:97:f8:65:2d:00:0b:
         ce:ba:26:a8:f9:fe:f6:69:11:d3:54:9f:4d:fa:2a:06:be:48:
         38:f1:a7:a3:68:5e:53:fe:e3:14:37:27:1d:b0:eb:29:19:77:
         b2:6f:2f:7f:8a:2c:bd:4a:2b:6a:9e:60:b3:40:56:b4:1b:b5:
         37:2d:27:8e:02:56:5c:e4:64:44:cc:b7:48:4b:54:12:39:36:
         e3:67:9a:07:43:23:a2:cd:67:07:bb:ca:95:15:29:d3:d0:fa:
         1a:7f:8c:09:20:90:cb:e3:3a:d5:e9:86:ae:36:5c:18:53:71:
         89:44:b7:ab:68:e7:79:52:09:60:c5:10:22:57:01:d6:25:96:
         e0:c5:b0:5a:11:73:73:2a:ee:07:46:ac:d6:ac:f6:72:63:6e:
         9c:ed:f8:6a:e4:d0:c1:07:c8:51:a0:59:03:5a:b7:85:e5:7a:
         a2:56:fa:a0:41:6e:52:d3:e5:c0:68:ad:db:04:ff:7c:79:16:
         79:d9:97:33:92:ff:39:44:d1:18:6f:25:6b:e4:69:56:4e:83:
         7d:b3:3b:3d:99:fe:a5:e5:1c:19:6d:e5:43:51:12:5f:12:c7:
         6c:1d:0d:cc:90:9b:f3:5a:b4:0c:56:6c:29:01:93:7f:16:8e:
         33:07:a8:2f:a9:55:b5:ca:9a:d0:e7:38:69:3b:ce:3a:3f:c4:
         3c:d7:fa:24:1b:70:57:16:91:25:03:bf:a8:db:35:92:81:16:
         3d:e3:60:7e:f1:a9:d6:5e:a0:02:b6:c8:74:bc:eb:6c:2e:83:
         dc:1f:72:6d:77:13:1c:9e:e8:36:d0:8c:18:29:c2:98:3e:9a:
         14:fb:68:1e:ce:a6:e4:d8:68:1b:0f:e4:61:e8:89:fd:24:6a:
         ba:b3:93:ad:c5:dc:be:71:49:26:43:c4:6e:1d:0e:a2:d0:58:
         de:c1:89:ba:a9:f6:c2:ae
-----BEGIN CERTIFICATE-----
MIIHSDCCBTCgAwIBAgICAqYwDQYJKoZIhvcNAQEFBQAwgbQxCzAJBgNVBAYTAlVT
MQswCQYDVQQIEwJDQTEVMBMGA1UEBxMMU2FuRnJhbmNpc2NvMRUwEwYDVQQKEwxQ
aXhnbG8sIEluYy4xEDAOBgNVBAsTB1ZQTi1DSUUxGjAYBgNVBAMTEXR1bm5lbC5w
aXhnbG8uY29tMRwwGgYDVQQpExNCYWxhIENoYW5kcmFzZWthcmFuMR4wHAYJKoZI
hvcNAQkBFg9iYWxhQHBpeGdsby5jb20wHhcNMTgwMjE0MDY0MDA4WhcNMjgwMjEy
MDY0MDA4WjCBqTELMAkGA1UEBhMCVVMxCzAJBgNVBAgTAkNBMRUwEwYDVQQHEwxT
YW5GcmFuY2lzY28xFTATBgNVBAoTDFBpeGdsbywgSW5jLjEQMA4GA1UECxMHVlBO
LUNJRTEPMA0GA1UEAxMGY2llNjc3MRwwGgYDVQQpExNCYWxhIENoYW5kcmFzZWth
cmFuMR4wHAYJKoZIhvcNAQkBFg9iYWxhQHBpeGdsby5jb20wggIiMA0GCSqGSIb3
DQEBAQUAA4ICDwAwggIKAoICAQDX8BqSCj2alzTlfuebrZk4rYyi8Vvb//EepB85
NupQ2kUsdzyKX8wWgTSwstnFBkmZZaFZIlRDUDC1in/P0H/UWgFvi4rhjVA/A7Mr
px8gf3npq1EP5uoIyoYtt4143Wq/tRIYi2i49f8stUOmeTCGQJXZtQ8M7HbFIwyo
NNJXo9EgXiOlkMDTbTq1QiR6nCqXcuAm0ferktxoiApstg0u7pLcCrPKXNIib7g0
9zUl1ewHEFIb8fYcvk2HDImeS80HpcrYPjXjFstZt0Tjf4xBYm0r8jcN87x1MRRX
o2fSEejki6qSy+2WC0RB9qrV5veUx1y9ae7SvS+iHNu5KbAutSI6BdvD9773TtXx
OEwhoqZz3qMNydQ+fiDHPHn3grC2BuJ7NysqST2VcEGbdto1Z/aMP61dMho1Ar5A
y3JWiNpms+/1iju4+hcdUZpHkLAWn38i5jV6BljZ88dnMn2/3R1eoHYr/GMnbXqm
iGvPswOxIyVBiBcCMa/8UgEyJmtPEKc2mzjZIdG/R0FNYVUUJ4XdkxpKxLOzdblu
ofvjj2LJaQEy5DOURz2LgPpPCJutV83fA8X35kctq4jPcFUWcU1FBNQp7GKzXxHo
rWSfRK3JyleudtJBEOhTDAMKWSRukGg/VvvsAvKEl81ySK+GhgzXd2cukxOD/LDP
swIMGQIDAQABo4IBazCCAWcwCQYDVR0TBAIwADAtBglghkgBhvhCAQ0EIBYeRWFz
eS1SU0EgR2VuZXJhdGVkIENlcnRpZmljYXRlMB0GA1UdDgQWBBTXarSygfgxWPou
9bMhv3nzXeoERjCB6QYDVR0jBIHhMIHegBTvOI0UUFinW02cF3L837msp1GwEKGB
uqSBtzCBtDELMAkGA1UEBhMCVVMxCzAJBgNVBAgTAkNBMRUwEwYDVQQHEwxTYW5G
cmFuY2lzY28xFTATBgNVBAoTDFBpeGdsbywgSW5jLjEQMA4GA1UECxMHVlBOLUNJ
RTEaMBgGA1UEAxMRdHVubmVsLnBpeGdsby5jb20xHDAaBgNVBCkTE0JhbGEgQ2hh
bmRyYXNla2FyYW4xHjAcBgkqhkiG9w0BCQEWD2JhbGFAcGl4Z2xvLmNvbYIJAKbb
xoOA5qB5MBMGA1UdJQQMMAoGCCsGAQUFBwMCMAsGA1UdDwQEAwIHgDANBgkqhkiG
9w0BAQUFAAOCAgEAR1Z5ZibuohJ0bSxPeGcLWeoDQCFObFEeydB5J7wHkmg/LWwS
KVWzPYoW8dlGwhbYVKiWkPIngd9m4is3L8+nQGqXhseBWYwj0S0Q0JWdrej3SdPx
hNzyKqZJSrGY/mW5UMT6ZbK1k8FvtFNtRSvPIrNqlWPwjUaPAGFZekoolXEBEROK
Bob2EIlMb9QypIN2LT8lRKlvy+Awjr3Ml/hlLQALzromqPn+9mkR01SfTfoqBr5I
OPGno2heU/7jFDcnHbDrKRl3sm8vf4osvUorap5gs0BWtBu1Ny0njgJWXORkRMy3
SEtUEjk242eaB0Mjos1nB7vKlRUp09D6Gn+MCSCQy+M61emGrjZcGFNxiUS3q2jn
eVIJYMUQIlcB1iWW4MWwWhFzcyruB0as1qz2cmNunO34auTQwQfIUaBZA1q3heV6
olb6oEFuUtPlwGit2wT/fHkWedmXM5L/OUTRGG8la+RpVk6DfbM7PZn+peUcGW3l
Q1ESXxLHbB0NzJCb81q0DFZsKQGTfxaOMweoL6lVtcqa0Oc4aTvOOj/EPNf6JBtw
VxaRJQO/qNs1koEWPeNgfvGp1l6gArbIdLzrbC6D3B9ybXcTHJ7oNtCMGCnCmD6a
FPtoHs6m5NhoGw/kYeiJ/SRqurOTrcXcvnFJJkPEbh0OotBY3sGJuqn2wq4=
-----END CERTIFICATE-----
