Certificate:
    Data:
        Version: 3 (0x2)
        Serial Number: 681 (0x2a9)
    Signature Algorithm: sha1WithRSAEncryption
        Issuer: C=US, ST=CA, L=SanFrancisco, O=Pixglo, Inc., OU=VPN-CIE, CN=tunnel.pixglo.com/name=Bala Chandrasekaran/emailAddress=bala@pixglo.com
        Validity
            Not Before: Feb 14 06:40:13 2018 GMT
            Not After : Feb 12 06:40:13 2028 GMT
        Subject: C=US, ST=CA, L=SanFrancisco, O=Pixglo, Inc., OU=VPN-CIE, CN=cie680/name=Bala Chandrasekaran/emailAddress=bala@pixglo.com
        Subject Public Key Info:
            Public Key Algorithm: rsaEncryption
                Public-Key: (4096 bit)
                Modulus:
                    00:d5:d8:e0:36:fc:10:11:53:d6:49:6f:c8:77:ce:
                    d3:1d:d1:6f:ce:ba:d0:a8:b7:3d:82:1f:0f:00:af:
                    84:97:f5:7f:60:10:8d:4c:68:ef:91:11:09:bc:25:
                    45:ad:48:5c:8d:e6:be:49:74:c5:17:10:bf:74:24:
                    ce:5a:c8:6c:dc:15:e5:99:ad:d3:af:b4:11:a3:0b:
                    08:b8:08:7d:19:6f:49:0b:ae:73:75:d3:14:9a:5a:
                    1b:6c:f4:21:ae:b2:df:b3:83:80:43:35:3f:ba:68:
                    0a:70:e5:82:8b:12:9f:b9:bb:1a:e7:4d:87:41:93:
                    23:55:0e:b5:cd:50:4b:fb:4c:43:98:8d:9a:09:e0:
                    65:ea:aa:cf:84:6d:09:2a:a0:92:de:33:c8:2a:28:
                    66:bc:80:49:15:ec:33:48:81:29:43:f4:91:d5:d7:
                    b2:20:db:3f:56:43:52:1e:7c:d7:94:bb:39:49:cf:
                    fa:6b:9c:38:3b:6b:f3:5b:8f:84:43:93:4b:7e:58:
                    32:11:ea:cc:b9:7b:56:3b:e4:02:33:9d:ab:86:fa:
                    9b:14:60:df:a6:4a:3d:d7:96:03:a5:89:b8:bd:6a:
                    f7:59:cf:70:f4:58:ef:b2:60:ff:da:b7:b3:d2:0f:
                    18:1e:da:3e:5e:e6:dd:75:7f:b6:a1:58:08:80:f9:
                    2f:bd:6d:90:08:25:49:7c:fa:d7:58:63:29:bb:b9:
                    64:ff:85:b1:55:b7:e8:1e:f9:d3:1a:ea:bc:cb:35:
                    6f:88:e4:da:b9:4c:29:f4:8a:3e:12:67:13:3b:fb:
                    8f:c6:38:3f:17:80:0c:3b:a1:c7:22:ab:2c:83:62:
                    1e:99:a7:ea:4f:8f:e7:94:52:c5:2d:23:d8:8b:39:
                    5a:66:c1:37:59:e7:b7:27:4d:ef:2a:ce:76:7d:21:
                    27:0d:72:4a:db:65:e3:00:3f:b2:91:08:df:93:7f:
                    81:38:bd:f4:68:cc:af:a4:cb:24:95:97:f7:bf:c3:
                    df:7f:24:e8:75:da:42:bb:fa:58:5c:71:76:40:02:
                    80:fe:ba:41:3c:82:0a:f7:57:3b:46:61:7f:f4:25:
                    c9:df:d6:d4:4e:95:dd:f4:10:dc:3b:c8:46:a6:a4:
                    c2:98:42:06:ef:02:47:18:0b:ef:52:11:bb:3b:3f:
                    6b:43:b5:ef:72:0f:9b:75:88:98:60:ac:6f:d3:63:
                    20:ef:37:6e:06:d3:b8:bf:f1:f2:87:98:3b:95:80:
                    39:92:68:ed:f3:ae:c3:fe:80:fe:37:b2:17:71:f1:
                    01:4b:7b:4a:3b:b3:2b:60:69:12:57:ee:bc:c8:8b:
                    8e:e0:57:3b:4b:06:f7:59:3b:d6:e8:20:8d:64:48:
                    fb:ef:85
                Exponent: 65537 (0x10001)
        X509v3 extensions:
            X509v3 Basic Constraints: 
                CA:FALSE
            Netscape Comment: 
                Easy-RSA Generated Certificate
            X509v3 Subject Key Identifier: 
                69:B8:28:D7:52:86:C6:B5:03:67:67:FC:33:43:E1:4E:FC:5D:A0:D0
            X509v3 Authority Key Identifier: 
                keyid:EF:38:8D:14:50:58:A7:5B:4D:9C:17:72:FC:DF:B9:AC:A7:51:B0:10
                DirName:/C=US/ST=CA/L=SanFrancisco/O=Pixglo, Inc./OU=VPN-CIE/CN=tunnel.pixglo.com/name=Bala Chandrasekaran/emailAddress=bala@pixglo.com
                serial:A6:DB:C6:83:80:E6:A0:79

            X509v3 Extended Key Usage: 
                TLS Web Client Authentication
            X509v3 Key Usage: 
                Digital Signature
    Signature Algorithm: sha1WithRSAEncryption
         75:2d:00:77:c1:23:f6:82:ef:04:7e:5f:2a:a7:bf:70:77:6a:
         0b:ac:21:f5:f0:b1:30:64:07:74:db:ea:60:1f:8d:67:c6:7c:
         b4:4f:03:9a:f9:b7:43:59:8e:f7:b0:63:ec:60:ce:da:8c:c2:
         1d:0d:79:63:70:ee:06:fc:80:6a:bb:12:04:80:8a:73:0a:64:
         bf:d4:0c:8e:13:51:99:2f:23:9b:2b:4d:e7:80:83:7d:b4:64:
         b1:46:3c:14:58:e1:d9:40:0a:cb:ba:30:52:6a:62:5f:9f:14:
         fd:4e:e7:a6:e6:21:2d:eb:63:60:ce:14:82:fb:e6:cc:46:f0:
         68:85:d2:3d:8d:72:29:cc:be:02:67:ff:af:71:ef:3e:8f:61:
         10:c6:69:ce:49:08:5a:2d:59:01:aa:d3:4f:84:3c:9c:ab:cd:
         2b:f4:f5:c3:15:de:ad:8c:f2:c7:24:81:0b:06:94:3b:c5:1c:
         a4:38:26:cb:95:39:51:fe:d1:82:0d:b1:7b:52:85:ad:eb:f2:
         db:fc:de:a0:a9:da:96:eb:0b:b6:f4:29:bc:8d:d5:9e:d3:17:
         0c:c0:f2:86:b1:0b:a6:6a:30:a2:47:04:71:f1:1b:8d:b4:bc:
         51:1b:88:33:72:e7:c2:ac:bb:57:e4:a1:6a:48:3a:7e:9a:86:
         4b:33:64:bc:45:6a:dc:75:b6:47:1c:18:df:45:18:1c:7e:ac:
         77:d1:dd:90:70:e2:5d:f9:a7:44:1a:e5:ea:8b:ad:fd:59:98:
         bc:bf:f1:6c:34:64:35:f4:4c:c4:e3:7c:6e:5b:e0:d4:fa:d0:
         4d:5d:33:fa:a3:05:81:d6:fd:34:d6:77:ca:65:41:7d:42:7f:
         f5:61:51:5d:be:9a:3a:63:ad:ea:24:80:ce:ba:c0:a6:26:07:
         39:d6:b6:02:38:25:f2:c2:44:b6:a1:9d:db:e4:28:ed:b8:da:
         a5:65:7f:93:11:33:23:c9:1d:e9:4a:b5:fb:a9:cb:f0:5a:f3:
         f4:50:09:e6:a9:c6:93:4e:e5:6d:67:75:5e:a5:1c:f7:46:5f:
         d5:b4:3a:94:a9:87:42:c8:52:6a:8f:95:bb:7c:38:e6:08:a9:
         b2:e0:f3:eb:35:37:49:70:5b:0f:80:4d:7d:de:0f:3e:e8:0b:
         8b:15:45:7a:58:17:d2:af:fd:44:21:13:56:c3:dd:c3:04:78:
         1d:72:43:e4:63:87:85:e6:84:f6:42:25:ad:58:58:8a:cf:db:
         8d:b6:76:3d:ea:87:7d:77:3f:09:b8:9a:22:5f:b8:a1:c2:70:
         fe:6c:d7:88:18:9a:b2:db:01:f4:ad:33:7a:cc:cd:33:7c:74:
         2f:b4:6b:2c:ea:06:7e:dd
-----BEGIN CERTIFICATE-----
MIIHSDCCBTCgAwIBAgICAqkwDQYJKoZIhvcNAQEFBQAwgbQxCzAJBgNVBAYTAlVT
MQswCQYDVQQIEwJDQTEVMBMGA1UEBxMMU2FuRnJhbmNpc2NvMRUwEwYDVQQKEwxQ
aXhnbG8sIEluYy4xEDAOBgNVBAsTB1ZQTi1DSUUxGjAYBgNVBAMTEXR1bm5lbC5w
aXhnbG8uY29tMRwwGgYDVQQpExNCYWxhIENoYW5kcmFzZWthcmFuMR4wHAYJKoZI
hvcNAQkBFg9iYWxhQHBpeGdsby5jb20wHhcNMTgwMjE0MDY0MDEzWhcNMjgwMjEy
MDY0MDEzWjCBqTELMAkGA1UEBhMCVVMxCzAJBgNVBAgTAkNBMRUwEwYDVQQHEwxT
YW5GcmFuY2lzY28xFTATBgNVBAoTDFBpeGdsbywgSW5jLjEQMA4GA1UECxMHVlBO
LUNJRTEPMA0GA1UEAxMGY2llNjgwMRwwGgYDVQQpExNCYWxhIENoYW5kcmFzZWth
cmFuMR4wHAYJKoZIhvcNAQkBFg9iYWxhQHBpeGdsby5jb20wggIiMA0GCSqGSIb3
DQEBAQUAA4ICDwAwggIKAoICAQDV2OA2/BARU9ZJb8h3ztMd0W/OutCotz2CHw8A
r4SX9X9gEI1MaO+REQm8JUWtSFyN5r5JdMUXEL90JM5ayGzcFeWZrdOvtBGjCwi4
CH0Zb0kLrnN10xSaWhts9CGust+zg4BDNT+6aApw5YKLEp+5uxrnTYdBkyNVDrXN
UEv7TEOYjZoJ4GXqqs+EbQkqoJLeM8gqKGa8gEkV7DNIgSlD9JHV17Ig2z9WQ1Ie
fNeUuzlJz/prnDg7a/Nbj4RDk0t+WDIR6sy5e1Y75AIznauG+psUYN+mSj3XlgOl
ibi9avdZz3D0WO+yYP/at7PSDxge2j5e5t11f7ahWAiA+S+9bZAIJUl8+tdYYym7
uWT/hbFVt+ge+dMa6rzLNW+I5Nq5TCn0ij4SZxM7+4/GOD8XgAw7occiqyyDYh6Z
p+pPj+eUUsUtI9iLOVpmwTdZ57cnTe8qznZ9IScNckrbZeMAP7KRCN+Tf4E4vfRo
zK+kyySVl/e/w99/JOh12kK7+lhccXZAAoD+ukE8ggr3VztGYX/0Jcnf1tROld30
ENw7yEampMKYQgbvAkcYC+9SEbs7P2tDte9yD5t1iJhgrG/TYyDvN24G07i/8fKH
mDuVgDmSaO3zrsP+gP43shdx8QFLe0o7sytgaRJX7rzIi47gVztLBvdZO9boII1k
SPvvhQIDAQABo4IBazCCAWcwCQYDVR0TBAIwADAtBglghkgBhvhCAQ0EIBYeRWFz
eS1SU0EgR2VuZXJhdGVkIENlcnRpZmljYXRlMB0GA1UdDgQWBBRpuCjXUobGtQNn
Z/wzQ+FO/F2g0DCB6QYDVR0jBIHhMIHegBTvOI0UUFinW02cF3L837msp1GwEKGB
uqSBtzCBtDELMAkGA1UEBhMCVVMxCzAJBgNVBAgTAkNBMRUwEwYDVQQHEwxTYW5G
cmFuY2lzY28xFTATBgNVBAoTDFBpeGdsbywgSW5jLjEQMA4GA1UECxMHVlBOLUNJ
RTEaMBgGA1UEAxMRdHVubmVsLnBpeGdsby5jb20xHDAaBgNVBCkTE0JhbGEgQ2hh
bmRyYXNla2FyYW4xHjAcBgkqhkiG9w0BCQEWD2JhbGFAcGl4Z2xvLmNvbYIJAKbb
xoOA5qB5MBMGA1UdJQQMMAoGCCsGAQUFBwMCMAsGA1UdDwQEAwIHgDANBgkqhkiG
9w0BAQUFAAOCAgEAdS0Ad8Ej9oLvBH5fKqe/cHdqC6wh9fCxMGQHdNvqYB+NZ8Z8
tE8Dmvm3Q1mO97Bj7GDO2ozCHQ15Y3DuBvyAarsSBICKcwpkv9QMjhNRmS8jmytN
54CDfbRksUY8FFjh2UAKy7owUmpiX58U/U7npuYhLetjYM4UgvvmzEbwaIXSPY1y
Kcy+Amf/r3HvPo9hEMZpzkkIWi1ZAarTT4Q8nKvNK/T1wxXerYzyxySBCwaUO8Uc
pDgmy5U5Uf7Rgg2xe1KFrevy2/zeoKnalusLtvQpvI3VntMXDMDyhrELpmowokcE
cfEbjbS8URuIM3Lnwqy7V+Shakg6fpqGSzNkvEVq3HW2RxwY30UYHH6sd9HdkHDi
XfmnRBrl6out/VmYvL/xbDRkNfRMxON8blvg1PrQTV0z+qMFgdb9NNZ3ymVBfUJ/
9WFRXb6aOmOt6iSAzrrApiYHOda2Ajgl8sJEtqGd2+Qo7bjapWV/kxEzI8kd6Uq1
+6nL8Frz9FAJ5qnGk07lbWd1XqUc90Zf1bQ6lKmHQshSao+Vu3w45gipsuDz6zU3
SXBbD4BNfd4PPugLixVFelgX0q/9RCETVsPdwwR4HXJD5GOHheaE9kIlrVhYis/b
jbZ2PeqHfXc/CbiaIl+4ocJw/mzXiBiastsB9K0zeszNM3x0L7RrLOoGft0=
-----END CERTIFICATE-----
