Certificate:
    Data:
        Version: 3 (0x2)
        Serial Number: 682 (0x2aa)
    Signature Algorithm: sha1WithRSAEncryption
        Issuer: C=US, ST=CA, L=SanFrancisco, O=Pixglo, Inc., OU=VPN-CIE, CN=tunnel.pixglo.com/name=Bala Chandrasekaran/emailAddress=bala@pixglo.com
        Validity
            Not Before: Feb 14 06:40:15 2018 GMT
            Not After : Feb 12 06:40:15 2028 GMT
        Subject: C=US, ST=CA, L=SanFrancisco, O=Pixglo, Inc., OU=VPN-CIE, CN=cie681/name=Bala Chandrasekaran/emailAddress=bala@pixglo.com
        Subject Public Key Info:
            Public Key Algorithm: rsaEncryption
                Public-Key: (4096 bit)
                Modulus:
                    00:f2:99:05:e1:13:ef:37:64:26:97:9e:30:51:c5:
                    55:c8:1b:9b:8a:ea:e2:4a:66:f2:0d:a9:0f:33:66:
                    34:72:92:a0:a0:e6:7c:32:e8:85:93:1e:b7:00:d8:
                    a1:b6:4d:40:ec:27:45:a8:47:82:8b:fb:96:3d:dd:
                    11:cd:b6:8b:9a:b5:81:22:19:73:3c:77:5a:ae:a5:
                    fb:f6:02:e3:67:af:40:4e:77:37:74:46:9c:ed:f5:
                    04:6c:3f:34:33:2d:b6:54:a5:e5:18:72:6d:1d:ff:
                    93:71:4b:94:8c:9c:b2:89:00:64:68:64:af:76:4d:
                    ed:de:03:80:2e:44:bc:3d:5f:66:c4:3c:21:d5:f4:
                    ec:73:bc:aa:11:2b:80:98:5a:3f:b7:1b:23:db:2a:
                    1c:5a:ac:22:00:23:97:85:da:c1:db:fc:19:c0:a6:
                    e8:63:26:61:10:7d:93:cc:21:ac:03:d8:aa:75:d4:
                    5a:86:3d:23:ba:79:50:76:fa:17:f3:3c:4e:0d:60:
                    5d:be:ac:65:4f:65:63:68:02:ca:76:7c:94:0e:e1:
                    ba:9b:34:11:f2:e3:ac:17:5d:cd:ac:da:ce:8c:f1:
                    8c:93:9d:85:3d:56:9e:fe:2d:66:40:b6:54:e9:54:
                    4d:5a:fb:b3:bc:f5:fd:57:e1:4a:e8:ff:1d:44:1a:
                    64:08:a5:76:3c:f1:67:af:a1:15:aa:be:4d:40:04:
                    56:3c:c9:86:b1:97:b2:4b:61:b4:3f:13:43:6b:18:
                    e2:8c:ed:6a:80:ec:4d:41:93:aa:25:55:95:4e:d9:
                    51:cb:20:0e:db:65:dd:53:f5:bd:a0:db:76:cc:4d:
                    f1:e5:a3:03:9d:cc:0c:37:b3:56:0f:ac:4c:17:a3:
                    77:55:e7:20:45:6b:5b:3d:ad:46:2e:bf:7e:8c:8d:
                    4a:95:64:9e:9d:11:80:0c:6c:92:cd:22:8d:9c:4a:
                    51:92:67:45:a6:b7:2e:0b:03:66:a4:0c:64:91:1a:
                    14:5d:f2:2d:99:4d:86:ef:e1:6c:79:0d:c3:41:39:
                    36:a6:c7:ef:5c:f7:81:b7:7e:96:a3:63:f7:ef:b2:
                    df:01:40:ef:51:4d:80:f0:a9:12:a7:c8:38:c8:d9:
                    a8:d7:68:f1:3f:ea:e3:ee:83:f6:a3:2b:5a:a8:f1:
                    50:f9:c1:34:bd:c9:dd:93:bd:20:9c:1e:0f:c2:ab:
                    b4:eb:c2:5c:30:ea:78:47:77:85:d5:43:12:9d:f4:
                    54:0c:26:c9:a8:34:b8:43:f7:7a:0d:1d:45:2f:f1:
                    3c:db:44:17:32:26:af:cf:4c:bb:69:3c:5b:67:5d:
                    62:c7:a4:dc:07:94:b8:18:b7:8d:77:02:dc:ce:d7:
                    87:b4:59
                Exponent: 65537 (0x10001)
        X509v3 extensions:
            X509v3 Basic Constraints: 
                CA:FALSE
            Netscape Comment: 
                Easy-RSA Generated Certificate
            X509v3 Subject Key Identifier: 
                94:8B:C4:3F:13:B5:52:6C:15:16:BE:18:1F:5F:52:CE:70:50:94:CC
            X509v3 Authority Key Identifier: 
                keyid:EF:38:8D:14:50:58:A7:5B:4D:9C:17:72:FC:DF:B9:AC:A7:51:B0:10
                DirName:/C=US/ST=CA/L=SanFrancisco/O=Pixglo, Inc./OU=VPN-CIE/CN=tunnel.pixglo.com/name=Bala Chandrasekaran/emailAddress=bala@pixglo.com
                serial:A6:DB:C6:83:80:E6:A0:79

            X509v3 Extended Key Usage: 
                TLS Web Client Authentication
            X509v3 Key Usage: 
                Digital Signature
    Signature Algorithm: sha1WithRSAEncryption
         ce:19:5b:92:df:43:47:1f:92:8c:84:37:7b:40:d4:ed:3d:85:
         7a:94:a3:c2:d7:fb:cb:ec:a1:fa:7f:32:e1:39:86:20:a4:de:
         04:0b:84:64:79:75:8f:b7:cb:ef:42:7d:49:43:28:1d:54:1f:
         b3:f0:67:08:83:0c:13:84:23:6b:c9:24:0a:d0:c8:a5:59:39:
         96:2a:7a:00:a3:9d:1c:02:f1:58:10:a5:f1:14:64:0a:75:cb:
         5f:33:d2:df:0d:50:f6:46:65:d2:4c:5d:b5:0a:2a:50:bb:f0:
         18:68:c7:bf:c6:b0:cd:ab:49:02:bb:17:92:cc:a9:a7:e9:f2:
         c5:32:5f:2e:56:0c:e0:b5:63:d6:32:43:77:b7:7e:d0:cc:5f:
         d8:fa:05:77:0a:46:ea:6e:f2:88:1d:18:91:8e:6d:7d:3a:b4:
         bc:7c:36:b3:61:7e:46:e6:77:62:e2:c4:e9:e8:7f:76:24:35:
         10:16:58:78:d7:d7:32:12:94:20:04:70:39:44:0f:74:82:30:
         c9:c1:8d:5d:53:c8:ed:25:c7:4a:48:54:78:6e:41:fc:e2:cf:
         83:33:ad:ed:4c:09:2c:35:74:97:cb:ca:cd:a3:6d:25:ca:d6:
         56:7d:df:40:44:8d:99:a4:6e:86:ab:f8:ad:5a:a6:7c:8d:cb:
         b2:0b:df:79:f5:a1:6c:8c:b2:4e:7f:8f:4f:a0:6c:90:81:ec:
         8a:32:09:5b:fe:03:a2:cc:cc:d4:20:20:fa:46:6a:fa:09:07:
         63:9e:63:f7:b0:de:e1:be:13:e3:6f:0b:61:98:7d:d5:05:80:
         3a:ff:f1:51:6e:02:65:9a:c3:a7:c1:b4:09:41:75:12:4b:6b:
         52:02:05:1d:c4:f7:9f:11:ff:0e:1a:22:76:2f:e4:79:7d:bd:
         09:73:f5:c5:c2:fa:1e:c2:63:b6:67:01:54:65:45:b6:f3:fc:
         c0:7f:02:98:02:eb:79:97:2a:5c:6e:a9:f2:df:e4:9c:55:99:
         07:2c:9a:09:8a:6a:9b:26:a3:c6:7a:ea:f3:e5:d3:69:bd:c3:
         8c:5a:ec:9f:0d:c3:12:6f:f0:dc:c3:56:8c:eb:fb:d2:2c:b5:
         26:b1:bc:7c:10:39:3b:f3:00:9b:0b:86:59:3b:96:8a:ce:e8:
         7b:9a:fb:c4:d5:9f:90:d4:99:fc:ba:e7:d9:28:13:6a:73:65:
         e6:53:5c:e9:78:8f:d1:c2:77:6d:0a:58:2d:85:a4:31:53:41:
         0f:3f:52:e4:0a:79:18:6e:96:f9:94:49:90:d1:30:ab:8a:38:
         4a:e2:7b:29:64:ca:50:c2:89:3d:69:d0:f7:d1:ec:c8:c8:b0:
         60:eb:d8:d1:04:bd:ea:65
-----BEGIN CERTIFICATE-----
MIIHSDCCBTCgAwIBAgICAqowDQYJKoZIhvcNAQEFBQAwgbQxCzAJBgNVBAYTAlVT
MQswCQYDVQQIEwJDQTEVMBMGA1UEBxMMU2FuRnJhbmNpc2NvMRUwEwYDVQQKEwxQ
aXhnbG8sIEluYy4xEDAOBgNVBAsTB1ZQTi1DSUUxGjAYBgNVBAMTEXR1bm5lbC5w
aXhnbG8uY29tMRwwGgYDVQQpExNCYWxhIENoYW5kcmFzZWthcmFuMR4wHAYJKoZI
hvcNAQkBFg9iYWxhQHBpeGdsby5jb20wHhcNMTgwMjE0MDY0MDE1WhcNMjgwMjEy
MDY0MDE1WjCBqTELMAkGA1UEBhMCVVMxCzAJBgNVBAgTAkNBMRUwEwYDVQQHEwxT
YW5GcmFuY2lzY28xFTATBgNVBAoTDFBpeGdsbywgSW5jLjEQMA4GA1UECxMHVlBO
LUNJRTEPMA0GA1UEAxMGY2llNjgxMRwwGgYDVQQpExNCYWxhIENoYW5kcmFzZWth
cmFuMR4wHAYJKoZIhvcNAQkBFg9iYWxhQHBpeGdsby5jb20wggIiMA0GCSqGSIb3
DQEBAQUAA4ICDwAwggIKAoICAQDymQXhE+83ZCaXnjBRxVXIG5uK6uJKZvINqQ8z
ZjRykqCg5nwy6IWTHrcA2KG2TUDsJ0WoR4KL+5Y93RHNtouatYEiGXM8d1qupfv2
AuNnr0BOdzd0Rpzt9QRsPzQzLbZUpeUYcm0d/5NxS5SMnLKJAGRoZK92Te3eA4Au
RLw9X2bEPCHV9OxzvKoRK4CYWj+3GyPbKhxarCIAI5eF2sHb/BnApuhjJmEQfZPM
IawD2Kp11FqGPSO6eVB2+hfzPE4NYF2+rGVPZWNoAsp2fJQO4bqbNBHy46wXXc2s
2s6M8YyTnYU9Vp7+LWZAtlTpVE1a+7O89f1X4Uro/x1EGmQIpXY88WevoRWqvk1A
BFY8yYaxl7JLYbQ/E0NrGOKM7WqA7E1Bk6olVZVO2VHLIA7bZd1T9b2g23bMTfHl
owOdzAw3s1YPrEwXo3dV5yBFa1s9rUYuv36MjUqVZJ6dEYAMbJLNIo2cSlGSZ0Wm
ty4LA2akDGSRGhRd8i2ZTYbv4Wx5DcNBOTamx+9c94G3fpajY/fvst8BQO9RTYDw
qRKnyDjI2ajXaPE/6uPug/ajK1qo8VD5wTS9yd2TvSCcHg/Cq7Trwlww6nhHd4XV
QxKd9FQMJsmoNLhD93oNHUUv8TzbRBcyJq/PTLtpPFtnXWLHpNwHlLgYt413AtzO
14e0WQIDAQABo4IBazCCAWcwCQYDVR0TBAIwADAtBglghkgBhvhCAQ0EIBYeRWFz
eS1SU0EgR2VuZXJhdGVkIENlcnRpZmljYXRlMB0GA1UdDgQWBBSUi8Q/E7VSbBUW
vhgfX1LOcFCUzDCB6QYDVR0jBIHhMIHegBTvOI0UUFinW02cF3L837msp1GwEKGB
uqSBtzCBtDELMAkGA1UEBhMCVVMxCzAJBgNVBAgTAkNBMRUwEwYDVQQHEwxTYW5G
cmFuY2lzY28xFTATBgNVBAoTDFBpeGdsbywgSW5jLjEQMA4GA1UECxMHVlBOLUNJ
RTEaMBgGA1UEAxMRdHVubmVsLnBpeGdsby5jb20xHDAaBgNVBCkTE0JhbGEgQ2hh
bmRyYXNla2FyYW4xHjAcBgkqhkiG9w0BCQEWD2JhbGFAcGl4Z2xvLmNvbYIJAKbb
xoOA5qB5MBMGA1UdJQQMMAoGCCsGAQUFBwMCMAsGA1UdDwQEAwIHgDANBgkqhkiG
9w0BAQUFAAOCAgEAzhlbkt9DRx+SjIQ3e0DU7T2FepSjwtf7y+yh+n8y4TmGIKTe
BAuEZHl1j7fL70J9SUMoHVQfs/BnCIMME4Qja8kkCtDIpVk5lip6AKOdHALxWBCl
8RRkCnXLXzPS3w1Q9kZl0kxdtQoqULvwGGjHv8awzatJArsXksypp+nyxTJfLlYM
4LVj1jJDd7d+0Mxf2PoFdwpG6m7yiB0YkY5tfTq0vHw2s2F+RuZ3YuLE6eh/diQ1
EBZYeNfXMhKUIARwOUQPdIIwycGNXVPI7SXHSkhUeG5B/OLPgzOt7UwJLDV0l8vK
zaNtJcrWVn3fQESNmaRuhqv4rVqmfI3LsgvfefWhbIyyTn+PT6BskIHsijIJW/4D
oszM1CAg+kZq+gkHY55j97De4b4T428LYZh91QWAOv/xUW4CZZrDp8G0CUF1Ektr
UgIFHcT3nxH/Dhoidi/keX29CXP1xcL6HsJjtmcBVGVFtvP8wH8CmALreZcqXG6p
8t/knFWZByyaCYpqmyajxnrq8+XTab3DjFrsnw3DEm/w3MNWjOv70iy1JrG8fBA5
O/MAmwuGWTuWis7oe5r7xNWfkNSZ/Lrn2SgTanNl5lNc6XiP0cJ3bQpYLYWkMVNB
Dz9S5Ap5GG6W+ZRJkNEwq4o4SuJ7KWTKUMKJPWnQ99HsyMiwYOvY0QS96mU=
-----END CERTIFICATE-----
