Certificate:
    Data:
        Version: 3 (0x2)
        Serial Number: 683 (0x2ab)
    Signature Algorithm: sha1WithRSAEncryption
        Issuer: C=US, ST=CA, L=SanFrancisco, O=Pixglo, Inc., OU=VPN-CIE, CN=tunnel.pixglo.com/name=Bala Chandrasekaran/emailAddress=bala@pixglo.com
        Validity
            Not Before: Feb 14 06:40:16 2018 GMT
            Not After : Feb 12 06:40:16 2028 GMT
        Subject: C=US, ST=CA, L=SanFrancisco, O=Pixglo, Inc., OU=VPN-CIE, CN=cie682/name=Bala Chandrasekaran/emailAddress=bala@pixglo.com
        Subject Public Key Info:
            Public Key Algorithm: rsaEncryption
                Public-Key: (4096 bit)
                Modulus:
                    00:a9:1c:c2:00:1d:46:24:f9:e6:47:ac:fb:75:5e:
                    4f:f9:58:b1:c5:cd:df:e1:82:e0:8a:68:5d:ae:7b:
                    b6:6c:0a:05:77:7d:2b:36:86:1b:2b:69:ea:eb:7a:
                    8b:bc:ed:84:bb:be:df:0f:a6:ed:98:44:88:1d:e5:
                    d0:12:63:81:a6:b7:03:5b:fb:9b:83:18:68:70:59:
                    ab:7e:e6:5f:c3:bf:cf:07:8c:63:49:c0:d1:ff:62:
                    54:ba:a9:11:a5:37:b1:5f:97:bd:c4:c5:14:45:4a:
                    68:5a:ca:71:a1:b3:ad:da:93:69:d2:ee:d3:16:ee:
                    91:db:b0:2f:11:08:39:00:c0:3e:ae:44:a3:cc:57:
                    fa:54:e8:01:12:28:03:43:94:13:db:11:8a:52:88:
                    63:67:4d:16:dc:5b:56:77:b6:f7:0e:b8:b5:2f:a1:
                    34:25:fd:e5:d2:f0:52:f0:45:0b:1f:f7:b7:f6:f2:
                    c9:02:3b:7b:d0:52:eb:20:bc:f2:00:f2:80:ab:37:
                    86:40:a0:94:77:2f:5e:0e:12:e0:f9:46:25:0b:ab:
                    82:95:22:83:e1:0f:42:67:e8:10:24:c3:06:28:9b:
                    fc:57:39:79:5b:3b:21:a7:db:2b:1f:96:26:73:b3:
                    44:ae:ba:5f:46:94:f3:14:99:51:ea:cb:33:73:76:
                    8d:01:60:67:73:33:c7:5f:32:39:bc:76:6d:6d:ef:
                    a4:ce:d2:d3:be:26:10:8f:55:75:59:c3:a9:6e:9c:
                    fd:ae:14:06:dd:e3:d1:da:8e:04:be:93:37:0d:b2:
                    f4:02:b0:c2:55:d5:ba:eb:af:4d:2f:27:4e:92:b6:
                    c2:f9:35:d0:59:4e:30:72:19:42:9d:78:23:f5:74:
                    2d:83:85:a9:73:64:fd:13:ec:36:8b:6f:8a:3d:55:
                    5d:b9:ca:c5:71:9b:a0:fe:65:00:26:e3:68:fd:83:
                    a8:2c:c3:2f:58:16:e4:a0:8a:07:76:70:47:2a:f9:
                    4c:2f:a3:4d:ec:62:f4:ef:c8:23:2e:45:91:3d:c5:
                    53:05:79:31:bc:d4:46:35:7b:87:c7:a0:fc:41:6f:
                    32:63:d5:f0:cc:6d:8c:6f:00:3f:fe:5b:42:6a:63:
                    d8:e2:78:48:b0:e0:c8:2e:6b:76:63:8c:30:bd:76:
                    cf:ca:5f:db:61:c2:dd:fe:75:4e:a4:32:61:98:cd:
                    c0:5c:87:af:b4:61:a6:5e:27:fc:a8:83:50:96:14:
                    63:c5:a3:6c:e9:1d:a2:33:9e:1e:1e:6e:e3:24:64:
                    64:f8:de:e8:c4:b9:8f:16:75:f6:75:20:20:0d:f2:
                    a1:9e:60:66:86:8b:6e:a0:63:7d:d6:40:2d:74:ab:
                    5d:c1:4f
                Exponent: 65537 (0x10001)
        X509v3 extensions:
            X509v3 Basic Constraints: 
                CA:FALSE
            Netscape Comment: 
                Easy-RSA Generated Certificate
            X509v3 Subject Key Identifier: 
                BD:1D:FF:88:D7:C9:67:CE:D5:D3:F1:06:AC:E5:0A:BC:69:7C:00:CE
            X509v3 Authority Key Identifier: 
                keyid:EF:38:8D:14:50:58:A7:5B:4D:9C:17:72:FC:DF:B9:AC:A7:51:B0:10
                DirName:/C=US/ST=CA/L=SanFrancisco/O=Pixglo, Inc./OU=VPN-CIE/CN=tunnel.pixglo.com/name=Bala Chandrasekaran/emailAddress=bala@pixglo.com
                serial:A6:DB:C6:83:80:E6:A0:79

            X509v3 Extended Key Usage: 
                TLS Web Client Authentication
            X509v3 Key Usage: 
                Digital Signature
    Signature Algorithm: sha1WithRSAEncryption
         ab:19:b0:05:6d:e0:b2:7d:69:e1:8d:5c:dc:b5:68:2c:c5:e2:
         b9:60:33:59:ff:6a:85:31:e7:6c:6e:f1:20:46:16:5d:46:68:
         22:01:6f:1c:df:d1:a9:13:7c:aa:a0:bf:09:b0:27:58:57:de:
         86:2a:18:7c:b6:83:5a:0a:1b:86:d1:81:4f:74:f0:f8:a9:16:
         bb:64:a2:90:01:e2:ab:dc:dc:ea:9f:02:9a:51:f4:19:b8:30:
         d7:9c:99:23:51:9d:f3:ac:cd:ed:1a:2b:09:e6:40:34:63:cb:
         22:5f:69:b1:21:86:ff:24:3f:3c:2b:c8:59:08:18:f3:5d:5e:
         48:8e:0b:09:10:33:fd:c8:03:06:21:d9:4a:62:c0:99:2f:ec:
         03:3e:14:18:d2:d3:83:8d:33:1c:f6:bd:43:6f:82:7d:32:8c:
         91:8b:de:84:77:39:18:94:73:96:57:d9:61:76:7c:8c:b0:14:
         6f:c3:b3:57:93:48:2d:3a:60:4e:01:9c:e0:af:27:90:c2:80:
         99:24:4e:63:fd:c7:85:ed:07:32:4e:dc:01:88:ff:50:e4:ac:
         e9:bf:69:ec:dd:59:6e:da:e3:25:51:4a:97:92:ab:cb:eb:1f:
         52:88:0d:6e:10:31:f7:df:4e:a8:d6:04:26:a3:c9:c2:66:a8:
         7e:27:c1:fc:da:28:58:87:59:38:f0:55:37:e9:97:66:6e:13:
         47:fe:99:6e:dd:06:26:f7:16:3a:75:8d:8d:34:14:68:02:b4:
         54:f0:9a:5c:4c:32:da:48:91:51:97:27:6b:cf:0d:f5:5c:a6:
         39:23:01:f1:f6:25:21:15:3f:96:67:e6:2d:e3:d9:34:7e:9e:
         c0:71:27:4b:f5:57:41:aa:1e:ad:1b:96:a7:0c:f3:c4:f5:6d:
         9f:17:2f:27:6c:d1:8d:48:54:0d:8a:3c:52:8b:ac:94:fe:ce:
         22:76:05:12:ca:56:8e:f9:ba:c3:20:03:f5:17:d6:85:09:db:
         53:6a:a5:d6:20:88:8f:a7:8e:78:de:cd:28:81:dd:15:c4:bd:
         28:a0:29:8f:b7:9e:8a:66:76:73:08:48:50:1e:45:c2:7a:07:
         05:82:42:c1:d3:42:29:b2:31:51:5c:bf:fb:52:a5:79:f8:06:
         fe:3e:cb:d4:3f:ed:b9:98:78:d6:14:27:f0:9a:56:c5:8a:a8:
         49:3d:4e:51:99:38:29:cf:72:00:7b:95:5d:87:2f:1f:68:f5:
         f4:4f:5e:7a:49:9b:df:de:9c:69:72:10:f9:29:1e:c4:9a:24:
         e0:3a:c2:00:40:9f:74:3a:56:63:4b:52:ce:aa:a8:e5:14:49:
         56:60:da:49:21:ed:ef:24
-----BEGIN CERTIFICATE-----
MIIHSDCCBTCgAwIBAgICAqswDQYJKoZIhvcNAQEFBQAwgbQxCzAJBgNVBAYTAlVT
MQswCQYDVQQIEwJDQTEVMBMGA1UEBxMMU2FuRnJhbmNpc2NvMRUwEwYDVQQKEwxQ
aXhnbG8sIEluYy4xEDAOBgNVBAsTB1ZQTi1DSUUxGjAYBgNVBAMTEXR1bm5lbC5w
aXhnbG8uY29tMRwwGgYDVQQpExNCYWxhIENoYW5kcmFzZWthcmFuMR4wHAYJKoZI
hvcNAQkBFg9iYWxhQHBpeGdsby5jb20wHhcNMTgwMjE0MDY0MDE2WhcNMjgwMjEy
MDY0MDE2WjCBqTELMAkGA1UEBhMCVVMxCzAJBgNVBAgTAkNBMRUwEwYDVQQHEwxT
YW5GcmFuY2lzY28xFTATBgNVBAoTDFBpeGdsbywgSW5jLjEQMA4GA1UECxMHVlBO
LUNJRTEPMA0GA1UEAxMGY2llNjgyMRwwGgYDVQQpExNCYWxhIENoYW5kcmFzZWth
cmFuMR4wHAYJKoZIhvcNAQkBFg9iYWxhQHBpeGdsby5jb20wggIiMA0GCSqGSIb3
DQEBAQUAA4ICDwAwggIKAoICAQCpHMIAHUYk+eZHrPt1Xk/5WLHFzd/hguCKaF2u
e7ZsCgV3fSs2hhsraerreou87YS7vt8Ppu2YRIgd5dASY4GmtwNb+5uDGGhwWat+
5l/Dv88HjGNJwNH/YlS6qRGlN7Ffl73ExRRFSmhaynGhs63ak2nS7tMW7pHbsC8R
CDkAwD6uRKPMV/pU6AESKANDlBPbEYpSiGNnTRbcW1Z3tvcOuLUvoTQl/eXS8FLw
RQsf97f28skCO3vQUusgvPIA8oCrN4ZAoJR3L14OEuD5RiULq4KVIoPhD0Jn6BAk
wwYom/xXOXlbOyGn2ysfliZzs0Suul9GlPMUmVHqyzNzdo0BYGdzM8dfMjm8dm1t
76TO0tO+JhCPVXVZw6lunP2uFAbd49HajgS+kzcNsvQCsMJV1brrr00vJ06StsL5
NdBZTjByGUKdeCP1dC2DhalzZP0T7DaLb4o9VV25ysVxm6D+ZQAm42j9g6gswy9Y
FuSgigd2cEcq+Uwvo03sYvTvyCMuRZE9xVMFeTG81EY1e4fHoPxBbzJj1fDMbYxv
AD/+W0JqY9jieEiw4Mgua3ZjjDC9ds/KX9thwt3+dU6kMmGYzcBch6+0YaZeJ/yo
g1CWFGPFo2zpHaIznh4ebuMkZGT43ujEuY8WdfZ1ICAN8qGeYGaGi26gY33WQC10
q13BTwIDAQABo4IBazCCAWcwCQYDVR0TBAIwADAtBglghkgBhvhCAQ0EIBYeRWFz
eS1SU0EgR2VuZXJhdGVkIENlcnRpZmljYXRlMB0GA1UdDgQWBBS9Hf+I18lnztXT
8Qas5Qq8aXwAzjCB6QYDVR0jBIHhMIHegBTvOI0UUFinW02cF3L837msp1GwEKGB
uqSBtzCBtDELMAkGA1UEBhMCVVMxCzAJBgNVBAgTAkNBMRUwEwYDVQQHEwxTYW5G
cmFuY2lzY28xFTATBgNVBAoTDFBpeGdsbywgSW5jLjEQMA4GA1UECxMHVlBOLUNJ
RTEaMBgGA1UEAxMRdHVubmVsLnBpeGdsby5jb20xHDAaBgNVBCkTE0JhbGEgQ2hh
bmRyYXNla2FyYW4xHjAcBgkqhkiG9w0BCQEWD2JhbGFAcGl4Z2xvLmNvbYIJAKbb
xoOA5qB5MBMGA1UdJQQMMAoGCCsGAQUFBwMCMAsGA1UdDwQEAwIHgDANBgkqhkiG
9w0BAQUFAAOCAgEAqxmwBW3gsn1p4Y1c3LVoLMXiuWAzWf9qhTHnbG7xIEYWXUZo
IgFvHN/RqRN8qqC/CbAnWFfehioYfLaDWgobhtGBT3Tw+KkWu2SikAHiq9zc6p8C
mlH0Gbgw15yZI1Gd86zN7RorCeZANGPLIl9psSGG/yQ/PCvIWQgY811eSI4LCRAz
/cgDBiHZSmLAmS/sAz4UGNLTg40zHPa9Q2+CfTKMkYvehHc5GJRzllfZYXZ8jLAU
b8OzV5NILTpgTgGc4K8nkMKAmSROY/3Hhe0HMk7cAYj/UOSs6b9p7N1ZbtrjJVFK
l5Kry+sfUogNbhAx999OqNYEJqPJwmaofifB/NooWIdZOPBVN+mXZm4TR/6Zbt0G
JvcWOnWNjTQUaAK0VPCaXEwy2kiRUZcna88N9VymOSMB8fYlIRU/lmfmLePZNH6e
wHEnS/VXQaoerRuWpwzzxPVtnxcvJ2zRjUhUDYo8UouslP7OInYFEspWjvm6wyAD
9RfWhQnbU2ql1iCIj6eOeN7NKIHdFcS9KKApj7eeimZ2cwhIUB5FwnoHBYJCwdNC
KbIxUVy/+1KlefgG/j7L1D/tuZh41hQn8JpWxYqoST1OUZk4Kc9yAHuVXYcvH2j1
9E9eekmb396caXIQ+SkexJok4DrCAECfdDpWY0tSzqqo5RRJVmDaSSHt7yQ=
-----END CERTIFICATE-----
