Certificate:
    Data:
        Version: 3 (0x2)
        Serial Number: 688 (0x2b0)
    Signature Algorithm: sha1WithRSAEncryption
        Issuer: C=US, ST=CA, L=SanFrancisco, O=Pixglo, Inc., OU=VPN-CIE, CN=tunnel.pixglo.com/name=Bala Chandrasekaran/emailAddress=bala@pixglo.com
        Validity
            Not Before: Feb 14 06:40:24 2018 GMT
            Not After : Feb 12 06:40:24 2028 GMT
        Subject: C=US, ST=CA, L=SanFrancisco, O=Pixglo, Inc., OU=VPN-CIE, CN=cie687/name=Bala Chandrasekaran/emailAddress=bala@pixglo.com
        Subject Public Key Info:
            Public Key Algorithm: rsaEncryption
                Public-Key: (4096 bit)
                Modulus:
                    00:e3:d3:b5:c8:c7:43:2b:52:6a:9b:cf:d7:03:7a:
                    f7:33:dd:cc:95:90:1b:75:44:7e:75:c1:63:b4:14:
                    01:a6:ac:e0:b6:ee:87:65:5b:28:4b:36:34:74:b3:
                    70:09:c3:1a:8f:39:22:c6:dc:19:16:a0:3f:34:47:
                    a6:58:9d:39:e3:34:13:b1:67:e4:99:84:e7:37:6b:
                    2b:f2:67:98:17:e2:74:d3:6d:76:fb:19:d1:72:6e:
                    30:2f:0e:48:6d:71:1a:6d:c4:a3:6a:c6:e1:e0:8e:
                    34:85:a7:97:26:83:78:5c:1c:af:d7:49:09:53:8e:
                    e7:7b:2e:88:31:e2:03:68:88:da:15:38:1d:b9:b2:
                    da:17:79:86:95:97:5c:4f:2f:d0:3e:29:30:9c:5e:
                    53:1d:6a:04:0a:2b:73:6e:ac:ff:39:52:ee:8d:92:
                    04:4a:51:29:58:e6:40:f1:c2:12:dc:29:28:13:62:
                    fd:f8:7e:e8:a9:dc:77:ee:c8:9f:e2:e2:b1:7b:60:
                    16:13:69:92:60:32:ad:fd:11:22:3e:69:a4:35:29:
                    ba:ae:83:90:41:0f:d9:e5:e5:47:0c:80:b5:c9:9b:
                    b1:a3:96:83:78:50:fa:0c:e8:37:2d:3c:90:a7:82:
                    83:7e:aa:f3:8f:47:7d:f3:48:72:81:18:09:46:bc:
                    c8:47:4c:cf:a2:d6:3f:0f:34:6c:28:32:f1:e1:15:
                    fc:c9:94:56:ad:69:33:5c:e1:46:20:64:8b:85:41:
                    2b:9b:86:4f:81:51:24:80:61:dc:26:11:78:57:13:
                    a1:69:f9:ae:99:ea:6e:d2:e1:14:7e:5b:3e:ff:31:
                    da:78:17:5e:49:0e:1d:f6:6c:9c:d7:31:87:10:19:
                    64:38:49:ab:05:f1:33:67:09:a8:0b:2b:2b:bd:25:
                    34:88:a4:e0:c9:65:56:a0:44:8a:84:de:9a:2f:e3:
                    e0:d1:d4:84:98:3d:7b:a1:eb:35:86:f7:d6:84:f1:
                    bb:f2:9b:2e:3c:d3:27:c5:06:39:0e:8f:35:40:73:
                    35:79:9d:56:25:ee:e6:72:06:a0:89:09:74:6e:21:
                    b1:74:91:8e:c6:83:55:dd:3d:43:2c:70:12:d3:31:
                    a4:dd:05:15:b7:49:d1:f2:46:c8:8b:85:53:32:66:
                    6c:d4:03:34:1c:c3:52:ec:72:e4:25:3c:a7:1b:f5:
                    ee:33:b2:12:4e:55:7b:1d:bb:97:b9:aa:78:6a:a5:
                    6e:66:2e:56:e9:05:1b:fb:aa:48:a3:66:a8:71:6f:
                    15:e8:6a:ab:db:fb:ef:88:32:73:69:37:3f:59:11:
                    e6:d0:f3:26:3a:7f:26:f3:c9:36:0a:71:7d:23:81:
                    eb:75:a3
                Exponent: 65537 (0x10001)
        X509v3 extensions:
            X509v3 Basic Constraints: 
                CA:FALSE
            Netscape Comment: 
                Easy-RSA Generated Certificate
            X509v3 Subject Key Identifier: 
                FA:6B:0F:92:EB:66:45:BF:51:60:F2:D5:71:8F:9F:5D:05:D7:D9:3F
            X509v3 Authority Key Identifier: 
                keyid:EF:38:8D:14:50:58:A7:5B:4D:9C:17:72:FC:DF:B9:AC:A7:51:B0:10
                DirName:/C=US/ST=CA/L=SanFrancisco/O=Pixglo, Inc./OU=VPN-CIE/CN=tunnel.pixglo.com/name=Bala Chandrasekaran/emailAddress=bala@pixglo.com
                serial:A6:DB:C6:83:80:E6:A0:79

            X509v3 Extended Key Usage: 
                TLS Web Client Authentication
            X509v3 Key Usage: 
                Digital Signature
    Signature Algorithm: sha1WithRSAEncryption
         40:16:d1:92:dc:2e:0a:90:a8:1c:4a:5f:75:60:b5:45:60:b0:
         53:de:7d:19:50:6d:f9:96:01:58:55:a5:3c:ff:b6:92:11:13:
         3c:a9:02:f6:ec:f9:99:23:c9:ed:89:2f:e7:8e:75:67:dc:d2:
         40:92:59:b9:b6:28:2a:9d:77:7c:3a:c9:c1:12:cd:c6:a7:1f:
         e5:57:b3:5b:29:cb:28:e0:9f:80:6f:13:37:08:45:5e:e4:a8:
         0f:a6:d9:e6:ce:18:74:25:a4:db:f7:22:16:fe:ad:74:da:65:
         4a:31:5b:80:e1:64:aa:74:85:0d:20:f7:5f:e1:3d:d2:ff:81:
         04:52:10:99:87:ae:58:77:d6:f8:09:1d:9c:f0:03:20:98:7d:
         17:52:df:e8:9f:36:48:f7:85:97:74:de:c6:e3:80:30:1f:97:
         e4:97:d5:d8:10:3f:f5:68:07:29:65:df:fe:55:9f:29:40:24:
         ea:66:0f:88:fa:bc:a8:1c:51:b1:2b:f1:87:c8:7f:40:fd:f8:
         bd:53:c0:36:d5:09:56:df:0d:ac:4f:9b:e4:86:a7:21:a1:a4:
         dc:c1:d6:70:58:db:45:b9:41:92:02:ca:91:10:28:0a:87:54:
         3d:39:7c:24:07:fd:f5:44:9b:42:02:59:69:66:bf:8f:15:0a:
         a8:50:41:78:c8:34:3b:3e:d5:89:e8:a1:44:1b:d0:a5:95:97:
         87:2e:ad:ef:8c:0e:e7:cc:c7:f8:04:e8:5a:53:97:8e:a6:d4:
         14:a9:6d:59:31:71:4a:71:dc:3c:99:35:65:f9:c5:ba:ab:97:
         c7:c1:0d:e3:d1:0f:8c:b2:71:a2:86:57:74:bc:08:f7:11:51:
         2e:1f:f6:c1:8a:bd:fc:c3:50:73:f2:0c:ae:65:66:b2:90:9b:
         ea:f1:03:a7:99:4d:04:bd:aa:9d:7a:1d:fc:85:81:f0:5d:0c:
         fe:e4:fc:53:5a:1d:6c:19:45:81:9f:cc:79:83:c0:04:3c:24:
         19:fe:93:52:33:9d:da:fd:d6:1c:59:cf:40:eb:9b:e3:26:b8:
         f7:64:75:13:40:9d:a6:10:71:4b:ac:33:20:57:2d:46:f8:e0:
         8e:1e:4d:93:61:8a:39:90:31:7e:29:ec:c9:59:4e:ea:6b:68:
         db:eb:c5:75:0c:46:ed:40:d4:73:ff:35:f4:76:8f:29:fe:e5:
         1f:4b:0d:46:5b:82:a5:2f:b0:b2:27:d8:d7:8e:f3:89:b3:06:
         54:d0:7f:5e:03:9e:d3:2f:4a:c7:20:09:62:d5:a3:2b:4b:b0:
         59:34:15:bf:66:8c:94:35:46:42:74:fe:b0:ec:44:40:8e:34:
         95:2a:a0:f1:ff:fd:b5:8e
-----BEGIN CERTIFICATE-----
MIIHSDCCBTCgAwIBAgICArAwDQYJKoZIhvcNAQEFBQAwgbQxCzAJBgNVBAYTAlVT
MQswCQYDVQQIEwJDQTEVMBMGA1UEBxMMU2FuRnJhbmNpc2NvMRUwEwYDVQQKEwxQ
aXhnbG8sIEluYy4xEDAOBgNVBAsTB1ZQTi1DSUUxGjAYBgNVBAMTEXR1bm5lbC5w
aXhnbG8uY29tMRwwGgYDVQQpExNCYWxhIENoYW5kcmFzZWthcmFuMR4wHAYJKoZI
hvcNAQkBFg9iYWxhQHBpeGdsby5jb20wHhcNMTgwMjE0MDY0MDI0WhcNMjgwMjEy
MDY0MDI0WjCBqTELMAkGA1UEBhMCVVMxCzAJBgNVBAgTAkNBMRUwEwYDVQQHEwxT
YW5GcmFuY2lzY28xFTATBgNVBAoTDFBpeGdsbywgSW5jLjEQMA4GA1UECxMHVlBO
LUNJRTEPMA0GA1UEAxMGY2llNjg3MRwwGgYDVQQpExNCYWxhIENoYW5kcmFzZWth
cmFuMR4wHAYJKoZIhvcNAQkBFg9iYWxhQHBpeGdsby5jb20wggIiMA0GCSqGSIb3
DQEBAQUAA4ICDwAwggIKAoICAQDj07XIx0MrUmqbz9cDevcz3cyVkBt1RH51wWO0
FAGmrOC27odlWyhLNjR0s3AJwxqPOSLG3BkWoD80R6ZYnTnjNBOxZ+SZhOc3ayvy
Z5gX4nTTbXb7GdFybjAvDkhtcRptxKNqxuHgjjSFp5cmg3hcHK/XSQlTjud7Logx
4gNoiNoVOB25stoXeYaVl1xPL9A+KTCcXlMdagQKK3NurP85Uu6NkgRKUSlY5kDx
whLcKSgTYv34fuip3HfuyJ/i4rF7YBYTaZJgMq39ESI+aaQ1Kbqug5BBD9nl5UcM
gLXJm7GjloN4UPoM6DctPJCngoN+qvOPR33zSHKBGAlGvMhHTM+i1j8PNGwoMvHh
FfzJlFataTNc4UYgZIuFQSubhk+BUSSAYdwmEXhXE6Fp+a6Z6m7S4RR+Wz7/Mdp4
F15JDh32bJzXMYcQGWQ4SasF8TNnCagLKyu9JTSIpODJZVagRIqE3pov4+DR1ISY
PXuh6zWG99aE8bvymy480yfFBjkOjzVAczV5nVYl7uZyBqCJCXRuIbF0kY7Gg1Xd
PUMscBLTMaTdBRW3SdHyRsiLhVMyZmzUAzQcw1LscuQlPKcb9e4zshJOVXsdu5e5
qnhqpW5mLlbpBRv7qkijZqhxbxXoaqvb+++IMnNpNz9ZEebQ8yY6fybzyTYKcX0j
get1owIDAQABo4IBazCCAWcwCQYDVR0TBAIwADAtBglghkgBhvhCAQ0EIBYeRWFz
eS1SU0EgR2VuZXJhdGVkIENlcnRpZmljYXRlMB0GA1UdDgQWBBT6aw+S62ZFv1Fg
8tVxj59dBdfZPzCB6QYDVR0jBIHhMIHegBTvOI0UUFinW02cF3L837msp1GwEKGB
uqSBtzCBtDELMAkGA1UEBhMCVVMxCzAJBgNVBAgTAkNBMRUwEwYDVQQHEwxTYW5G
cmFuY2lzY28xFTATBgNVBAoTDFBpeGdsbywgSW5jLjEQMA4GA1UECxMHVlBOLUNJ
RTEaMBgGA1UEAxMRdHVubmVsLnBpeGdsby5jb20xHDAaBgNVBCkTE0JhbGEgQ2hh
bmRyYXNla2FyYW4xHjAcBgkqhkiG9w0BCQEWD2JhbGFAcGl4Z2xvLmNvbYIJAKbb
xoOA5qB5MBMGA1UdJQQMMAoGCCsGAQUFBwMCMAsGA1UdDwQEAwIHgDANBgkqhkiG
9w0BAQUFAAOCAgEAQBbRktwuCpCoHEpfdWC1RWCwU959GVBt+ZYBWFWlPP+2khET
PKkC9uz5mSPJ7Ykv5451Z9zSQJJZubYoKp13fDrJwRLNxqcf5VezWynLKOCfgG8T
NwhFXuSoD6bZ5s4YdCWk2/ciFv6tdNplSjFbgOFkqnSFDSD3X+E90v+BBFIQmYeu
WHfW+AkdnPADIJh9F1Lf6J82SPeFl3TexuOAMB+X5JfV2BA/9WgHKWXf/lWfKUAk
6mYPiPq8qBxRsSvxh8h/QP34vVPANtUJVt8NrE+b5IanIaGk3MHWcFjbRblBkgLK
kRAoCodUPTl8JAf99USbQgJZaWa/jxUKqFBBeMg0Oz7VieihRBvQpZWXhy6t74wO
58zH+AToWlOXjqbUFKltWTFxSnHcPJk1ZfnFuquXx8EN49EPjLJxooZXdLwI9xFR
Lh/2wYq9/MNQc/IMrmVmspCb6vEDp5lNBL2qnXod/IWB8F0M/uT8U1odbBlFgZ/M
eYPABDwkGf6TUjOd2v3WHFnPQOub4ya492R1E0CdphBxS6wzIFctRvjgjh5Nk2GK
OZAxfinsyVlO6mto2+vFdQxG7UDUc/819HaPKf7lH0sNRluCpS+wsifY147zibMG
VNB/XgOe0y9KxyAJYtWjK0uwWTQVv2aMlDVGQnT+sOxEQI40lSqg8f/9tY4=
-----END CERTIFICATE-----
