Certificate:
    Data:
        Version: 3 (0x2)
        Serial Number: 689 (0x2b1)
    Signature Algorithm: sha1WithRSAEncryption
        Issuer: C=US, ST=CA, L=SanFrancisco, O=Pixglo, Inc., OU=VPN-CIE, CN=tunnel.pixglo.com/name=Bala Chandrasekaran/emailAddress=bala@pixglo.com
        Validity
            Not Before: Feb 14 06:40:27 2018 GMT
            Not After : Feb 12 06:40:27 2028 GMT
        Subject: C=US, ST=CA, L=SanFrancisco, O=Pixglo, Inc., OU=VPN-CIE, CN=cie688/name=Bala Chandrasekaran/emailAddress=bala@pixglo.com
        Subject Public Key Info:
            Public Key Algorithm: rsaEncryption
                Public-Key: (4096 bit)
                Modulus:
                    00:ba:a4:33:3f:c6:2f:e0:2f:12:ca:22:c0:e7:5a:
                    8e:28:1d:41:84:07:23:6b:c7:e5:73:00:a9:a0:47:
                    0e:f9:c0:83:b3:fb:7d:18:8d:74:f1:44:23:f4:fa:
                    ad:84:af:6e:c4:93:57:1d:31:74:c5:39:ab:e9:ed:
                    99:be:6b:36:d6:23:d0:b6:1a:bd:cd:1b:52:16:45:
                    1e:c4:cc:1c:26:5e:d8:88:41:ca:67:8c:a9:a8:03:
                    4d:84:26:e4:44:c1:42:31:6c:7b:53:12:f7:05:c7:
                    f2:4e:02:c4:29:f5:b8:64:9a:26:5d:c5:17:04:4f:
                    46:53:82:8d:bc:02:d2:3f:f0:08:65:f3:b2:3b:1f:
                    2d:e7:c7:43:cd:93:99:0e:98:20:af:87:90:26:4a:
                    f5:a8:08:c6:c9:78:19:de:9f:c6:d4:34:10:bf:46:
                    2c:3a:c0:1d:d1:fe:50:58:de:98:8b:31:0b:7f:4d:
                    8c:8e:16:d8:fe:3c:69:4b:06:79:fd:10:eb:95:d8:
                    38:18:01:1c:36:bb:ad:45:01:ae:56:62:18:84:a9:
                    5c:15:c0:fa:0e:f8:da:c2:8e:f5:7d:2f:0a:73:2d:
                    fe:fe:be:c8:f2:ff:f3:5c:53:ba:f2:53:84:e6:e5:
                    56:8a:e2:1d:26:5c:b4:18:96:4b:77:1d:63:50:7a:
                    b9:0a:88:e0:9d:18:1d:c4:8b:23:dc:7c:c3:04:c3:
                    70:9c:2a:c3:f1:a2:58:7a:a0:23:15:aa:b9:5b:c2:
                    e9:cb:c7:a4:41:2b:07:ae:fd:c4:b0:d5:d9:d0:b2:
                    bf:44:63:85:91:f6:6a:d4:90:5f:ad:3e:d5:0f:48:
                    07:3a:15:a2:55:78:4e:78:21:61:a0:97:51:c6:36:
                    71:e0:b9:38:4c:56:8a:f1:25:22:f0:20:08:58:64:
                    6a:02:56:08:9a:e5:39:7e:6d:fa:78:db:f4:ac:7f:
                    3b:26:57:0c:81:64:ef:cc:01:bb:05:32:38:d1:8a:
                    12:2f:d5:e3:84:ab:55:6c:c7:9d:df:df:a0:05:d5:
                    17:5e:72:d1:f1:37:70:21:f0:a4:2c:ad:c5:92:58:
                    54:eb:f4:da:4c:1a:6f:d6:57:ca:1c:ca:3b:02:c4:
                    bf:5d:3f:bc:b4:e4:ff:7a:c5:c4:f4:74:53:75:40:
                    55:38:79:cd:e8:49:94:d5:56:98:00:dd:e7:59:10:
                    bd:75:5e:90:2c:f3:ac:01:9d:b0:e0:b8:3d:98:20:
                    5e:9e:6b:32:db:df:24:ae:f3:35:bc:41:d8:80:98:
                    6b:94:c5:67:c5:8c:cb:b2:9d:ec:c5:01:ff:b5:df:
                    c8:cd:5b:34:5b:3d:f1:d0:ef:b6:2b:0f:67:92:61:
                    a3:18:a7
                Exponent: 65537 (0x10001)
        X509v3 extensions:
            X509v3 Basic Constraints: 
                CA:FALSE
            Netscape Comment: 
                Easy-RSA Generated Certificate
            X509v3 Subject Key Identifier: 
                63:9B:F4:8F:40:20:E3:69:B1:9F:29:03:20:E3:CA:4F:C5:8A:FB:19
            X509v3 Authority Key Identifier: 
                keyid:EF:38:8D:14:50:58:A7:5B:4D:9C:17:72:FC:DF:B9:AC:A7:51:B0:10
                DirName:/C=US/ST=CA/L=SanFrancisco/O=Pixglo, Inc./OU=VPN-CIE/CN=tunnel.pixglo.com/name=Bala Chandrasekaran/emailAddress=bala@pixglo.com
                serial:A6:DB:C6:83:80:E6:A0:79

            X509v3 Extended Key Usage: 
                TLS Web Client Authentication
            X509v3 Key Usage: 
                Digital Signature
    Signature Algorithm: sha1WithRSAEncryption
         8e:07:70:ee:b6:fa:a9:c9:9c:0c:b7:cc:6c:5c:91:d5:d8:2c:
         5b:66:10:3d:81:bd:0b:ee:bf:93:9d:1c:e0:5e:69:b9:75:82:
         48:bf:8d:55:fd:cf:f2:d3:f7:c9:0e:74:14:9f:65:f0:d0:87:
         2a:d5:b8:a9:1a:e2:61:1a:3c:4f:7a:65:70:71:9d:6d:60:f5:
         87:18:d1:a2:3b:26:43:94:7f:01:ea:2a:b6:c1:85:34:fd:b8:
         df:0d:eb:b3:57:4a:5c:de:af:90:92:88:df:a6:24:10:6f:4e:
         9e:bd:88:b5:2f:77:40:a4:1b:90:96:77:de:a2:3d:e6:e7:5e:
         4f:ee:56:c9:71:bc:f8:dd:b8:e0:27:ce:a6:26:fe:42:21:78:
         50:e0:b8:15:3b:8a:3a:42:e5:01:50:aa:d9:16:50:0f:6b:f4:
         b0:7d:bf:0e:2c:d0:79:24:1c:96:2f:13:3d:c5:f7:a9:ec:18:
         30:a5:60:bb:af:74:33:03:1b:e0:fd:3c:8f:d3:6a:e1:8b:a2:
         11:1d:7c:ec:8f:1d:4f:9c:c3:6d:31:c0:59:6f:6e:52:c2:39:
         6e:cc:05:8d:90:8c:76:18:f0:30:7c:92:95:da:fe:b7:be:a1:
         76:98:2f:18:37:0d:a7:e6:ee:cf:56:24:92:80:2d:18:ec:0d:
         6b:43:b6:b3:7e:a7:05:72:89:2a:9d:3f:d5:66:3d:0b:58:81:
         d1:4a:ec:b6:72:d3:df:9a:08:5e:09:d6:59:7a:e7:5a:92:ac:
         c1:27:7b:42:09:34:1f:39:07:2b:56:9e:a2:6c:2c:d8:af:32:
         53:5d:ed:bc:1b:5f:0b:eb:19:3a:67:5a:60:9f:53:f3:11:4c:
         d7:50:77:77:c5:11:a4:a0:5a:57:d1:07:e1:53:ee:b2:65:06:
         5f:29:06:7f:c1:a0:4c:88:bb:8a:a8:6f:b2:92:76:3b:f1:37:
         42:a2:6c:c1:78:8e:0c:60:9b:5c:d0:7a:6a:ab:8b:17:f7:a0:
         e6:c2:c0:f9:12:d5:b5:ce:af:90:dd:1e:1b:83:20:ef:8d:81:
         51:28:fc:9d:ee:4a:59:65:7c:3e:9f:ae:6f:05:f4:8d:65:a2:
         f1:22:9c:ca:13:a3:57:31:b1:a2:99:aa:96:9f:38:a6:e3:36:
         db:22:39:4a:ad:91:6b:f9:d4:60:df:2e:f7:ab:9d:c1:c3:27:
         4b:b1:f7:8b:5f:43:a1:37:2f:52:d1:55:2a:7e:7d:10:4f:34:
         45:82:4e:6d:99:7c:39:62:24:f0:c6:16:d9:09:77:d4:ef:a5:
         60:16:2b:96:2a:44:f5:cb:74:37:34:52:9b:ae:f3:9c:5a:08:
         f2:b6:69:8a:e1:e1:e1:de
-----BEGIN CERTIFICATE-----
MIIHSDCCBTCgAwIBAgICArEwDQYJKoZIhvcNAQEFBQAwgbQxCzAJBgNVBAYTAlVT
MQswCQYDVQQIEwJDQTEVMBMGA1UEBxMMU2FuRnJhbmNpc2NvMRUwEwYDVQQKEwxQ
aXhnbG8sIEluYy4xEDAOBgNVBAsTB1ZQTi1DSUUxGjAYBgNVBAMTEXR1bm5lbC5w
aXhnbG8uY29tMRwwGgYDVQQpExNCYWxhIENoYW5kcmFzZWthcmFuMR4wHAYJKoZI
hvcNAQkBFg9iYWxhQHBpeGdsby5jb20wHhcNMTgwMjE0MDY0MDI3WhcNMjgwMjEy
MDY0MDI3WjCBqTELMAkGA1UEBhMCVVMxCzAJBgNVBAgTAkNBMRUwEwYDVQQHEwxT
YW5GcmFuY2lzY28xFTATBgNVBAoTDFBpeGdsbywgSW5jLjEQMA4GA1UECxMHVlBO
LUNJRTEPMA0GA1UEAxMGY2llNjg4MRwwGgYDVQQpExNCYWxhIENoYW5kcmFzZWth
cmFuMR4wHAYJKoZIhvcNAQkBFg9iYWxhQHBpeGdsby5jb20wggIiMA0GCSqGSIb3
DQEBAQUAA4ICDwAwggIKAoICAQC6pDM/xi/gLxLKIsDnWo4oHUGEByNrx+VzAKmg
Rw75wIOz+30YjXTxRCP0+q2Er27Ek1cdMXTFOavp7Zm+azbWI9C2Gr3NG1IWRR7E
zBwmXtiIQcpnjKmoA02EJuREwUIxbHtTEvcFx/JOAsQp9bhkmiZdxRcET0ZTgo28
AtI/8Ahl87I7Hy3nx0PNk5kOmCCvh5AmSvWoCMbJeBnen8bUNBC/Riw6wB3R/lBY
3piLMQt/TYyOFtj+PGlLBnn9EOuV2DgYARw2u61FAa5WYhiEqVwVwPoO+NrCjvV9
LwpzLf7+vsjy//NcU7ryU4Tm5VaK4h0mXLQYlkt3HWNQerkKiOCdGB3EiyPcfMME
w3CcKsPxolh6oCMVqrlbwunLx6RBKweu/cSw1dnQsr9EY4WR9mrUkF+tPtUPSAc6
FaJVeE54IWGgl1HGNnHguThMVorxJSLwIAhYZGoCVgia5Tl+bfp42/SsfzsmVwyB
ZO/MAbsFMjjRihIv1eOEq1Vsx53f36AF1RdectHxN3Ah8KQsrcWSWFTr9NpMGm/W
V8ocyjsCxL9dP7y05P96xcT0dFN1QFU4ec3oSZTVVpgA3edZEL11XpAs86wBnbDg
uD2YIF6eazLb3ySu8zW8QdiAmGuUxWfFjMuynezFAf+138jNWzRbPfHQ77YrD2eS
YaMYpwIDAQABo4IBazCCAWcwCQYDVR0TBAIwADAtBglghkgBhvhCAQ0EIBYeRWFz
eS1SU0EgR2VuZXJhdGVkIENlcnRpZmljYXRlMB0GA1UdDgQWBBRjm/SPQCDjabGf
KQMg48pPxYr7GTCB6QYDVR0jBIHhMIHegBTvOI0UUFinW02cF3L837msp1GwEKGB
uqSBtzCBtDELMAkGA1UEBhMCVVMxCzAJBgNVBAgTAkNBMRUwEwYDVQQHEwxTYW5G
cmFuY2lzY28xFTATBgNVBAoTDFBpeGdsbywgSW5jLjEQMA4GA1UECxMHVlBOLUNJ
RTEaMBgGA1UEAxMRdHVubmVsLnBpeGdsby5jb20xHDAaBgNVBCkTE0JhbGEgQ2hh
bmRyYXNla2FyYW4xHjAcBgkqhkiG9w0BCQEWD2JhbGFAcGl4Z2xvLmNvbYIJAKbb
xoOA5qB5MBMGA1UdJQQMMAoGCCsGAQUFBwMCMAsGA1UdDwQEAwIHgDANBgkqhkiG
9w0BAQUFAAOCAgEAjgdw7rb6qcmcDLfMbFyR1dgsW2YQPYG9C+6/k50c4F5puXWC
SL+NVf3P8tP3yQ50FJ9l8NCHKtW4qRriYRo8T3plcHGdbWD1hxjRojsmQ5R/Aeoq
tsGFNP243w3rs1dKXN6vkJKI36YkEG9Onr2ItS93QKQbkJZ33qI95udeT+5WyXG8
+N244CfOpib+QiF4UOC4FTuKOkLlAVCq2RZQD2v0sH2/DizQeSQcli8TPcX3qewY
MKVgu690MwMb4P08j9Nq4YuiER187I8dT5zDbTHAWW9uUsI5bswFjZCMdhjwMHyS
ldr+t76hdpgvGDcNp+buz1YkkoAtGOwNa0O2s36nBXKJKp0/1WY9C1iB0UrstnLT
35oIXgnWWXrnWpKswSd7Qgk0HzkHK1aeomws2K8yU13tvBtfC+sZOmdaYJ9T8xFM
11B3d8URpKBaV9EH4VPusmUGXykGf8GgTIi7iqhvspJ2O/E3QqJswXiODGCbXNB6
aquLF/eg5sLA+RLVtc6vkN0eG4Mg742BUSj8ne5KWWV8Pp+ubwX0jWWi8SKcyhOj
VzGxopmqlp84puM22yI5Sq2Ra/nUYN8u96udwcMnS7H3i19DoTcvUtFVKn59EE80
RYJObZl8OWIk8MYW2Ql31O+lYBYrlipE9ct0NzRSm67znFoI8rZpiuHh4d4=
-----END CERTIFICATE-----
