Certificate:
    Data:
        Version: 3 (0x2)
        Serial Number: 690 (0x2b2)
    Signature Algorithm: sha1WithRSAEncryption
        Issuer: C=US, ST=CA, L=SanFrancisco, O=Pixglo, Inc., OU=VPN-CIE, CN=tunnel.pixglo.com/name=Bala Chandrasekaran/emailAddress=bala@pixglo.com
        Validity
            Not Before: Feb 14 06:40:32 2018 GMT
            Not After : Feb 12 06:40:32 2028 GMT
        Subject: C=US, ST=CA, L=SanFrancisco, O=Pixglo, Inc., OU=VPN-CIE, CN=cie689/name=Bala Chandrasekaran/emailAddress=bala@pixglo.com
        Subject Public Key Info:
            Public Key Algorithm: rsaEncryption
                Public-Key: (4096 bit)
                Modulus:
                    00:cb:e8:d9:f5:85:ba:e3:91:8a:46:fa:bf:e0:6b:
                    b0:8f:d9:f1:97:5e:8f:29:2a:38:c7:28:ec:54:a6:
                    e0:9c:85:db:58:77:19:65:e8:5e:5b:22:e4:12:e9:
                    57:11:c0:ee:2e:30:c2:ea:79:e7:53:d1:b9:0b:00:
                    7a:b7:80:84:c5:c3:d2:9d:9a:4b:3f:4d:db:09:44:
                    70:9a:9e:ac:63:b3:19:69:10:f8:68:af:7e:65:37:
                    ed:69:65:84:79:54:bf:1b:37:33:c7:1e:b6:d8:03:
                    3a:e9:56:e2:82:d0:1d:d4:71:81:17:27:85:32:77:
                    ce:3d:9c:c6:2c:ad:45:e0:89:19:bb:26:ef:12:c7:
                    19:23:3b:b8:35:75:0f:43:a8:44:73:68:72:db:60:
                    88:71:84:f3:45:94:c7:b0:72:36:42:37:ef:ca:f3:
                    20:bb:fc:d6:aa:d3:c4:35:39:fd:9b:a8:71:82:82:
                    45:ec:bc:9e:2b:93:e9:ce:d0:2a:3e:b0:b8:23:40:
                    71:6e:2c:58:06:14:2e:84:40:f6:a8:a3:8d:44:ee:
                    b6:98:ca:98:17:9f:66:2d:5e:de:4c:30:db:a6:c9:
                    26:80:f8:ac:b0:11:33:e7:5c:59:02:3e:91:be:bc:
                    1d:5a:16:8d:d6:4b:30:90:fa:20:d6:12:e2:41:9c:
                    b6:09:d3:df:e4:20:56:ee:5a:e9:3b:14:2a:68:8d:
                    b7:10:d9:fe:d4:05:b3:db:50:94:37:18:cf:c9:54:
                    12:f6:0e:6e:1b:15:6d:99:3b:d3:b6:d7:6d:3e:1c:
                    8e:f1:0c:ed:4d:e8:9a:22:ab:7b:b8:03:9a:43:d0:
                    b6:7c:19:45:f3:4d:0e:93:be:0a:d3:1f:6f:ee:50:
                    74:f1:6e:f9:ff:f2:3c:13:ba:88:28:6e:e3:8a:95:
                    f0:1c:5d:bf:b3:ba:26:dc:c6:1f:ef:88:48:59:bd:
                    db:45:8a:76:c0:ac:6d:da:26:f3:80:05:d2:22:9c:
                    66:02:69:b8:e8:43:53:8f:79:46:58:98:cd:5f:71:
                    fe:9f:49:dd:fc:0a:e3:24:04:60:72:a0:dc:98:e5:
                    76:53:b4:ce:15:51:9d:98:56:fa:ee:7a:ea:90:e3:
                    c9:f2:de:0a:f6:94:9a:e6:13:87:71:70:ad:a6:89:
                    9a:ef:17:a9:f9:8e:d8:82:27:5c:88:25:e7:42:81:
                    f7:69:29:46:fb:94:d4:8b:75:e5:52:e7:84:80:7e:
                    a2:e0:2e:ed:32:21:b6:c6:d0:04:17:b4:a0:35:23:
                    04:6f:34:87:d8:a1:06:b0:a2:c1:93:d0:95:98:ec:
                    d6:25:81:00:5f:96:55:46:47:83:34:d6:04:4c:3f:
                    37:c8:8d
                Exponent: 65537 (0x10001)
        X509v3 extensions:
            X509v3 Basic Constraints: 
                CA:FALSE
            Netscape Comment: 
                Easy-RSA Generated Certificate
            X509v3 Subject Key Identifier: 
                99:D7:1C:00:82:6A:51:60:4D:14:9D:A2:C3:B2:F1:D1:EE:4F:A1:17
            X509v3 Authority Key Identifier: 
                keyid:EF:38:8D:14:50:58:A7:5B:4D:9C:17:72:FC:DF:B9:AC:A7:51:B0:10
                DirName:/C=US/ST=CA/L=SanFrancisco/O=Pixglo, Inc./OU=VPN-CIE/CN=tunnel.pixglo.com/name=Bala Chandrasekaran/emailAddress=bala@pixglo.com
                serial:A6:DB:C6:83:80:E6:A0:79

            X509v3 Extended Key Usage: 
                TLS Web Client Authentication
            X509v3 Key Usage: 
                Digital Signature
    Signature Algorithm: sha1WithRSAEncryption
         b3:50:74:be:b1:ae:c1:22:ed:a9:bf:6d:a3:8b:e9:5c:3d:c3:
         44:9d:75:21:2a:92:ee:a5:7c:0e:70:26:66:69:4a:33:0b:2e:
         bf:b6:90:a4:4c:0f:8b:1c:86:dd:16:4f:c1:cf:80:35:08:a7:
         cc:34:c8:82:1c:49:db:28:6e:90:bf:b2:16:79:ac:d3:72:4c:
         04:6b:44:2e:15:09:58:4c:05:ba:eb:d1:e5:f6:ec:40:de:e8:
         6c:64:5b:a0:f3:f8:c4:fa:cd:d9:75:ec:93:ce:66:8b:17:b7:
         9a:07:83:fa:09:7d:be:7b:40:41:c0:53:c2:85:5d:fe:6a:d2:
         f0:62:ac:13:1a:c1:f1:93:b6:1e:cb:cb:c9:77:0e:38:d7:2d:
         95:f9:c3:ab:2e:de:de:fb:d8:26:bd:e8:ee:06:43:40:37:36:
         06:71:ed:70:33:be:73:b9:a3:21:64:b5:d8:8b:15:1c:98:71:
         04:8d:19:76:5f:06:5a:cf:e6:0a:90:25:79:dd:c8:34:79:d4:
         56:82:c3:b4:36:c1:ac:57:0e:56:8c:77:20:a1:1f:dc:b0:81:
         4d:58:8d:c2:d9:93:d2:b8:62:bf:fc:52:36:63:c9:d9:df:d8:
         24:7c:7b:26:66:80:0c:ab:2d:d1:d1:bc:aa:b7:0e:2f:4b:a7:
         bf:5f:e7:43:b7:a7:64:78:ae:60:3e:a9:99:28:9c:3c:80:51:
         15:5f:0f:52:14:e6:b5:c6:9f:45:32:79:95:4a:e0:87:ec:3e:
         c1:81:38:f9:fe:38:0d:0a:e7:52:1a:bc:41:14:44:96:27:41:
         8c:fc:b3:0b:e0:5c:58:0a:be:9a:43:1a:1c:74:02:e1:2d:30:
         f0:e3:ca:48:38:3f:5b:b1:a5:cd:f0:d1:91:8e:ae:0b:f0:94:
         91:9e:71:54:e5:31:61:c7:b1:5b:7b:52:18:c6:89:60:26:83:
         40:75:34:dd:1b:e9:42:5b:b4:e2:de:a9:41:aa:55:c9:af:17:
         f7:f6:f5:e4:51:c3:7a:ec:c1:78:87:fc:54:5d:e1:04:f3:e2:
         66:fc:a2:bc:02:81:3e:bf:14:8f:91:be:59:ff:fc:e3:76:70:
         6f:59:be:93:15:08:12:02:82:90:1e:33:49:62:73:2b:bc:c1:
         d4:4b:02:53:58:fe:42:d5:d5:e6:b8:49:e9:b7:79:5d:6a:f5:
         1b:93:7f:83:48:dc:c4:92:3a:aa:4b:89:9e:0a:94:14:81:c5:
         a9:83:bf:1c:f0:ff:a5:0f:cc:48:8b:d7:6d:5d:80:42:2e:8c:
         f8:2f:a2:db:43:b1:86:00:3f:8e:ac:ef:21:a3:a9:c3:f3:d3:
         e3:50:e9:1a:ff:d9:b9:0f
-----BEGIN CERTIFICATE-----
MIIHSDCCBTCgAwIBAgICArIwDQYJKoZIhvcNAQEFBQAwgbQxCzAJBgNVBAYTAlVT
MQswCQYDVQQIEwJDQTEVMBMGA1UEBxMMU2FuRnJhbmNpc2NvMRUwEwYDVQQKEwxQ
aXhnbG8sIEluYy4xEDAOBgNVBAsTB1ZQTi1DSUUxGjAYBgNVBAMTEXR1bm5lbC5w
aXhnbG8uY29tMRwwGgYDVQQpExNCYWxhIENoYW5kcmFzZWthcmFuMR4wHAYJKoZI
hvcNAQkBFg9iYWxhQHBpeGdsby5jb20wHhcNMTgwMjE0MDY0MDMyWhcNMjgwMjEy
MDY0MDMyWjCBqTELMAkGA1UEBhMCVVMxCzAJBgNVBAgTAkNBMRUwEwYDVQQHEwxT
YW5GcmFuY2lzY28xFTATBgNVBAoTDFBpeGdsbywgSW5jLjEQMA4GA1UECxMHVlBO
LUNJRTEPMA0GA1UEAxMGY2llNjg5MRwwGgYDVQQpExNCYWxhIENoYW5kcmFzZWth
cmFuMR4wHAYJKoZIhvcNAQkBFg9iYWxhQHBpeGdsby5jb20wggIiMA0GCSqGSIb3
DQEBAQUAA4ICDwAwggIKAoICAQDL6Nn1hbrjkYpG+r/ga7CP2fGXXo8pKjjHKOxU
puCchdtYdxll6F5bIuQS6VcRwO4uMMLqeedT0bkLAHq3gITFw9Kdmks/TdsJRHCa
nqxjsxlpEPhor35lN+1pZYR5VL8bNzPHHrbYAzrpVuKC0B3UcYEXJ4Uyd849nMYs
rUXgiRm7Ju8SxxkjO7g1dQ9DqERzaHLbYIhxhPNFlMewcjZCN+/K8yC7/Naq08Q1
Of2bqHGCgkXsvJ4rk+nO0Co+sLgjQHFuLFgGFC6EQPaoo41E7raYypgXn2YtXt5M
MNumySaA+KywETPnXFkCPpG+vB1aFo3WSzCQ+iDWEuJBnLYJ09/kIFbuWuk7FCpo
jbcQ2f7UBbPbUJQ3GM/JVBL2Dm4bFW2ZO9O2120+HI7xDO1N6Joiq3u4A5pD0LZ8
GUXzTQ6TvgrTH2/uUHTxbvn/8jwTuogobuOKlfAcXb+zuibcxh/viEhZvdtFinbA
rG3aJvOABdIinGYCabjoQ1OPeUZYmM1fcf6fSd38CuMkBGByoNyY5XZTtM4VUZ2Y
VvrueuqQ48ny3gr2lJrmE4dxcK2miZrvF6n5jtiCJ1yIJedCgfdpKUb7lNSLdeVS
54SAfqLgLu0yIbbG0AQXtKA1IwRvNIfYoQawosGT0JWY7NYlgQBfllVGR4M01gRM
PzfIjQIDAQABo4IBazCCAWcwCQYDVR0TBAIwADAtBglghkgBhvhCAQ0EIBYeRWFz
eS1SU0EgR2VuZXJhdGVkIENlcnRpZmljYXRlMB0GA1UdDgQWBBSZ1xwAgmpRYE0U
naLDsvHR7k+hFzCB6QYDVR0jBIHhMIHegBTvOI0UUFinW02cF3L837msp1GwEKGB
uqSBtzCBtDELMAkGA1UEBhMCVVMxCzAJBgNVBAgTAkNBMRUwEwYDVQQHEwxTYW5G
cmFuY2lzY28xFTATBgNVBAoTDFBpeGdsbywgSW5jLjEQMA4GA1UECxMHVlBOLUNJ
RTEaMBgGA1UEAxMRdHVubmVsLnBpeGdsby5jb20xHDAaBgNVBCkTE0JhbGEgQ2hh
bmRyYXNla2FyYW4xHjAcBgkqhkiG9w0BCQEWD2JhbGFAcGl4Z2xvLmNvbYIJAKbb
xoOA5qB5MBMGA1UdJQQMMAoGCCsGAQUFBwMCMAsGA1UdDwQEAwIHgDANBgkqhkiG
9w0BAQUFAAOCAgEAs1B0vrGuwSLtqb9to4vpXD3DRJ11ISqS7qV8DnAmZmlKMwsu
v7aQpEwPixyG3RZPwc+ANQinzDTIghxJ2yhukL+yFnms03JMBGtELhUJWEwFuuvR
5fbsQN7obGRboPP4xPrN2XXsk85mixe3mgeD+gl9vntAQcBTwoVd/mrS8GKsExrB
8ZO2HsvLyXcOONctlfnDqy7e3vvYJr3o7gZDQDc2BnHtcDO+c7mjIWS12IsVHJhx
BI0Zdl8GWs/mCpAled3INHnUVoLDtDbBrFcOVox3IKEf3LCBTViNwtmT0rhiv/xS
NmPJ2d/YJHx7JmaADKst0dG8qrcOL0unv1/nQ7enZHiuYD6pmSicPIBRFV8PUhTm
tcafRTJ5lUrgh+w+wYE4+f44DQrnUhq8QRRElidBjPyzC+BcWAq+mkMaHHQC4S0w
8OPKSDg/W7GlzfDRkY6uC/CUkZ5xVOUxYcexW3tSGMaJYCaDQHU03RvpQlu04t6p
QapVya8X9/b15FHDeuzBeIf8VF3hBPPiZvyivAKBPr8Uj5G+Wf/843Zwb1m+kxUI
EgKCkB4zSWJzK7zB1EsCU1j+QtXV5rhJ6bd5XWr1G5N/g0jcxJI6qkuJngqUFIHF
qYO/HPD/pQ/MSIvXbV2AQi6M+C+i20OxhgA/jqzvIaOpw/PT41DpGv/ZuQ8=
-----END CERTIFICATE-----
