Certificate:
    Data:
        Version: 3 (0x2)
        Serial Number: 691 (0x2b3)
    Signature Algorithm: sha1WithRSAEncryption
        Issuer: C=US, ST=CA, L=SanFrancisco, O=Pixglo, Inc., OU=VPN-CIE, CN=tunnel.pixglo.com/name=Bala Chandrasekaran/emailAddress=bala@pixglo.com
        Validity
            Not Before: Feb 14 06:40:34 2018 GMT
            Not After : Feb 12 06:40:34 2028 GMT
        Subject: C=US, ST=CA, L=SanFrancisco, O=Pixglo, Inc., OU=VPN-CIE, CN=cie690/name=Bala Chandrasekaran/emailAddress=bala@pixglo.com
        Subject Public Key Info:
            Public Key Algorithm: rsaEncryption
                Public-Key: (4096 bit)
                Modulus:
                    00:cb:80:f3:e3:24:a7:78:80:2d:e7:7e:86:ee:56:
                    46:36:f4:ea:0f:f7:a9:2d:8d:49:53:2e:06:33:65:
                    8c:8e:de:f8:bb:8a:95:8f:a0:89:05:db:66:02:71:
                    dd:e9:b2:a7:83:fc:b4:a1:d4:b6:df:45:3a:00:36:
                    fc:5c:35:9d:2d:96:db:61:f6:c2:b5:ff:dd:c6:5e:
                    da:09:4c:74:c4:a8:45:ef:2d:b3:c8:03:a3:10:6e:
                    3a:6c:5f:71:af:bc:4f:3a:ec:ca:29:88:27:a9:04:
                    4f:d0:33:62:5a:00:68:cb:31:d0:5f:46:ff:1d:4f:
                    7c:85:87:30:9f:2f:be:43:d0:72:14:27:1c:0d:a2:
                    08:0c:63:b6:4e:5d:05:78:a7:f2:f0:c1:00:cd:e3:
                    a3:68:4e:ac:3f:8c:2e:9b:19:c9:de:b5:8f:d4:ec:
                    5f:5a:22:94:44:9a:14:6f:b3:9a:38:8e:2b:16:37:
                    6c:9b:90:b9:b1:3f:2d:7e:75:f6:da:88:a2:6d:14:
                    74:9a:d5:e2:e5:a1:02:ea:61:63:df:d0:95:31:d3:
                    b5:63:62:fd:4a:d5:7d:7b:88:68:81:98:01:91:11:
                    3e:a4:2a:3b:c8:a6:9a:dd:4c:9d:e8:c9:0d:91:63:
                    07:54:c5:83:92:c7:d3:28:a2:87:d4:0d:d6:88:ad:
                    d8:b2:ac:2e:49:2f:4b:ea:fd:98:a3:db:b6:16:36:
                    05:c5:b3:eb:aa:de:42:ed:54:60:32:af:5e:bb:5e:
                    75:c2:fa:9a:a8:da:82:dc:0e:3f:0f:7a:b2:88:79:
                    3d:30:3b:e0:89:93:e8:a6:da:b0:b4:0a:c4:92:db:
                    b3:8c:d1:68:4b:85:8f:6d:7d:52:61:a1:30:34:9b:
                    d1:99:16:58:9d:56:df:89:8f:ad:fd:a6:ac:8d:6d:
                    62:8d:d3:bc:b5:60:8b:c7:39:ea:4c:5b:b0:e7:77:
                    8c:9d:43:b8:7f:1f:93:f5:de:a6:4f:fd:3f:d3:7e:
                    92:ef:89:ec:65:82:58:cb:c6:85:df:60:fe:05:7b:
                    76:0b:31:cd:7c:77:53:ef:17:82:fa:16:c0:50:13:
                    bb:79:47:c5:da:c8:d9:16:e7:45:97:6a:17:54:6a:
                    53:e8:87:42:24:ca:29:dd:a6:10:4a:49:da:b6:62:
                    08:51:5f:2e:12:da:f4:2c:b0:c1:dd:85:4c:4d:b1:
                    b7:d6:54:ed:0b:fc:e9:0c:8e:97:6f:66:c2:41:a6:
                    c8:07:f4:18:26:b8:dd:c7:68:61:95:df:da:e6:d8:
                    90:a0:f7:bc:78:41:54:74:fe:14:75:97:d0:8a:5d:
                    43:a0:7e:00:6c:41:c2:c6:39:a9:93:91:e4:82:87:
                    a5:db:17
                Exponent: 65537 (0x10001)
        X509v3 extensions:
            X509v3 Basic Constraints: 
                CA:FALSE
            Netscape Comment: 
                Easy-RSA Generated Certificate
            X509v3 Subject Key Identifier: 
                6F:30:7A:92:05:7B:D6:0F:58:8B:9D:D1:29:81:57:B0:AB:B2:94:DA
            X509v3 Authority Key Identifier: 
                keyid:EF:38:8D:14:50:58:A7:5B:4D:9C:17:72:FC:DF:B9:AC:A7:51:B0:10
                DirName:/C=US/ST=CA/L=SanFrancisco/O=Pixglo, Inc./OU=VPN-CIE/CN=tunnel.pixglo.com/name=Bala Chandrasekaran/emailAddress=bala@pixglo.com
                serial:A6:DB:C6:83:80:E6:A0:79

            X509v3 Extended Key Usage: 
                TLS Web Client Authentication
            X509v3 Key Usage: 
                Digital Signature
    Signature Algorithm: sha1WithRSAEncryption
         c3:72:8f:df:b4:4c:d1:f7:be:90:07:37:61:5c:74:3d:e7:5b:
         38:b8:cf:70:d2:86:6e:73:d4:1a:09:30:50:d0:46:2e:63:28:
         74:64:80:ed:0f:0e:b7:57:61:ac:d5:ff:c2:d7:d9:bc:c4:72:
         4a:b9:04:48:fd:87:b2:cb:07:57:e6:f1:be:d2:e2:be:fe:3d:
         69:bf:27:4a:ef:dc:10:71:a5:2f:23:cd:e7:6a:55:54:25:8b:
         af:ce:d3:a7:c8:0d:fc:cb:76:51:8e:ad:1a:5a:ac:75:26:45:
         a7:d5:6e:3c:36:03:86:d4:38:e6:be:20:d2:22:33:55:78:1b:
         0a:9d:38:89:6b:80:ff:f9:50:68:1f:55:ba:eb:5b:4d:42:c1:
         62:2f:d0:33:0f:15:2b:bd:9b:0b:97:39:bf:eb:d3:da:ae:5c:
         d0:99:da:21:d1:4a:47:98:10:68:3a:1d:9e:50:76:66:41:3a:
         fc:cd:47:3a:9c:22:b1:32:13:21:d9:2c:51:bc:66:34:9a:2c:
         37:00:87:0b:62:7b:b4:ff:66:64:41:79:c8:36:82:f1:e9:3e:
         d0:22:92:c6:bc:6d:23:97:ef:ae:75:a0:be:3d:05:ab:69:66:
         e0:27:bc:89:9a:e6:28:d1:67:20:70:fa:d4:3e:c3:a1:29:a7:
         45:7d:1a:c6:ef:08:78:5d:8e:1c:0b:73:7d:b4:02:00:10:a6:
         0c:de:4f:90:6c:f9:4c:c0:34:fe:12:8d:43:1e:e3:2a:ea:5f:
         25:43:32:a7:2a:e6:f4:d7:b5:5f:e8:38:e1:c5:6a:b3:b1:15:
         a7:a5:a2:1f:ea:7a:ef:e5:35:3e:6e:a8:36:78:a9:68:f7:69:
         97:76:bc:df:16:8f:b7:03:cf:d0:4d:e9:43:8d:0c:e1:ce:52:
         a5:76:51:58:3e:c2:0a:95:e0:66:b1:0b:b5:13:0a:71:5a:89:
         a9:dc:8f:82:e4:9b:7a:f9:da:4b:21:ba:7e:87:b9:38:da:57:
         09:c8:de:24:86:52:d1:1e:e6:27:9e:a7:6d:fb:5d:9f:65:45:
         27:32:44:c4:42:09:14:41:78:17:b8:8f:6c:49:4d:7a:53:e8:
         21:a7:c7:48:f6:05:f0:21:c8:75:cf:d1:1b:3f:9f:e4:90:68:
         f0:2b:78:f6:99:46:ac:e8:8c:5f:a5:4f:b7:f9:f9:c9:5e:a6:
         c8:0a:f2:7b:30:25:14:44:b6:de:99:f5:db:cc:95:ef:02:83:
         5c:a7:fc:c5:47:d4:c5:fd:4d:1c:f8:6c:89:8d:37:8e:6a:1c:
         78:d3:17:c3:16:62:e0:7b:c0:c0:02:41:2e:2c:a3:16:27:1d:
         02:87:4e:e8:28:75:44:4a
-----BEGIN CERTIFICATE-----
MIIHSDCCBTCgAwIBAgICArMwDQYJKoZIhvcNAQEFBQAwgbQxCzAJBgNVBAYTAlVT
MQswCQYDVQQIEwJDQTEVMBMGA1UEBxMMU2FuRnJhbmNpc2NvMRUwEwYDVQQKEwxQ
aXhnbG8sIEluYy4xEDAOBgNVBAsTB1ZQTi1DSUUxGjAYBgNVBAMTEXR1bm5lbC5w
aXhnbG8uY29tMRwwGgYDVQQpExNCYWxhIENoYW5kcmFzZWthcmFuMR4wHAYJKoZI
hvcNAQkBFg9iYWxhQHBpeGdsby5jb20wHhcNMTgwMjE0MDY0MDM0WhcNMjgwMjEy
MDY0MDM0WjCBqTELMAkGA1UEBhMCVVMxCzAJBgNVBAgTAkNBMRUwEwYDVQQHEwxT
YW5GcmFuY2lzY28xFTATBgNVBAoTDFBpeGdsbywgSW5jLjEQMA4GA1UECxMHVlBO
LUNJRTEPMA0GA1UEAxMGY2llNjkwMRwwGgYDVQQpExNCYWxhIENoYW5kcmFzZWth
cmFuMR4wHAYJKoZIhvcNAQkBFg9iYWxhQHBpeGdsby5jb20wggIiMA0GCSqGSIb3
DQEBAQUAA4ICDwAwggIKAoICAQDLgPPjJKd4gC3nfobuVkY29OoP96ktjUlTLgYz
ZYyO3vi7ipWPoIkF22YCcd3psqeD/LSh1LbfRToANvxcNZ0tltth9sK1/93GXtoJ
THTEqEXvLbPIA6MQbjpsX3GvvE867MopiCepBE/QM2JaAGjLMdBfRv8dT3yFhzCf
L75D0HIUJxwNoggMY7ZOXQV4p/LwwQDN46NoTqw/jC6bGcnetY/U7F9aIpREmhRv
s5o4jisWN2ybkLmxPy1+dfbaiKJtFHSa1eLloQLqYWPf0JUx07VjYv1K1X17iGiB
mAGRET6kKjvIpprdTJ3oyQ2RYwdUxYOSx9MooofUDdaIrdiyrC5JL0vq/Zij27YW
NgXFs+uq3kLtVGAyr167XnXC+pqo2oLcDj8PerKIeT0wO+CJk+im2rC0CsSS27OM
0WhLhY9tfVJhoTA0m9GZFlidVt+Jj639pqyNbWKN07y1YIvHOepMW7Dnd4ydQ7h/
H5P13qZP/T/TfpLviexlgljLxoXfYP4Fe3YLMc18d1PvF4L6FsBQE7t5R8XayNkW
50WXahdUalPoh0IkyindphBKSdq2YghRXy4S2vQssMHdhUxNsbfWVO0L/OkMjpdv
ZsJBpsgH9BgmuN3HaGGV39rm2JCg97x4QVR0/hR1l9CKXUOgfgBsQcLGOamTkeSC
h6XbFwIDAQABo4IBazCCAWcwCQYDVR0TBAIwADAtBglghkgBhvhCAQ0EIBYeRWFz
eS1SU0EgR2VuZXJhdGVkIENlcnRpZmljYXRlMB0GA1UdDgQWBBRvMHqSBXvWD1iL
ndEpgVewq7KU2jCB6QYDVR0jBIHhMIHegBTvOI0UUFinW02cF3L837msp1GwEKGB
uqSBtzCBtDELMAkGA1UEBhMCVVMxCzAJBgNVBAgTAkNBMRUwEwYDVQQHEwxTYW5G
cmFuY2lzY28xFTATBgNVBAoTDFBpeGdsbywgSW5jLjEQMA4GA1UECxMHVlBOLUNJ
RTEaMBgGA1UEAxMRdHVubmVsLnBpeGdsby5jb20xHDAaBgNVBCkTE0JhbGEgQ2hh
bmRyYXNla2FyYW4xHjAcBgkqhkiG9w0BCQEWD2JhbGFAcGl4Z2xvLmNvbYIJAKbb
xoOA5qB5MBMGA1UdJQQMMAoGCCsGAQUFBwMCMAsGA1UdDwQEAwIHgDANBgkqhkiG
9w0BAQUFAAOCAgEAw3KP37RM0fe+kAc3YVx0PedbOLjPcNKGbnPUGgkwUNBGLmMo
dGSA7Q8Ot1dhrNX/wtfZvMRySrkESP2HsssHV+bxvtLivv49ab8nSu/cEHGlLyPN
52pVVCWLr87Tp8gN/Mt2UY6tGlqsdSZFp9VuPDYDhtQ45r4g0iIzVXgbCp04iWuA
//lQaB9VuutbTULBYi/QMw8VK72bC5c5v+vT2q5c0JnaIdFKR5gQaDodnlB2ZkE6
/M1HOpwisTITIdksUbxmNJosNwCHC2J7tP9mZEF5yDaC8ek+0CKSxrxtI5fvrnWg
vj0Fq2lm4Ce8iZrmKNFnIHD61D7DoSmnRX0axu8IeF2OHAtzfbQCABCmDN5PkGz5
TMA0/hKNQx7jKupfJUMypyrm9Ne1X+g44cVqs7EVp6WiH+p67+U1Pm6oNnipaPdp
l3a83xaPtwPP0E3pQ40M4c5SpXZRWD7CCpXgZrELtRMKcVqJqdyPguSbevnaSyG6
foe5ONpXCcjeJIZS0R7mJ56nbftdn2VFJzJExEIJFEF4F7iPbElNelPoIafHSPYF
8CHIdc/RGz+f5JBo8Ct49plGrOiMX6VPt/n5yV6myAryezAlFES23pn128yV7wKD
XKf8xUfUxf1NHPhsiY03jmoceNMXwxZi4HvAwAJBLiyjFicdAodO6Ch1REo=
-----END CERTIFICATE-----
