Certificate:
    Data:
        Version: 3 (0x2)
        Serial Number: 692 (0x2b4)
    Signature Algorithm: sha1WithRSAEncryption
        Issuer: C=US, ST=CA, L=SanFrancisco, O=Pixglo, Inc., OU=VPN-CIE, CN=tunnel.pixglo.com/name=Bala Chandrasekaran/emailAddress=bala@pixglo.com
        Validity
            Not Before: Feb 14 06:40:37 2018 GMT
            Not After : Feb 12 06:40:37 2028 GMT
        Subject: C=US, ST=CA, L=SanFrancisco, O=Pixglo, Inc., OU=VPN-CIE, CN=cie691/name=Bala Chandrasekaran/emailAddress=bala@pixglo.com
        Subject Public Key Info:
            Public Key Algorithm: rsaEncryption
                Public-Key: (4096 bit)
                Modulus:
                    00:e2:ab:e1:4a:0e:d5:b9:5e:39:f5:a8:67:6a:38:
                    a8:f3:bc:e3:b1:14:5f:c0:bb:35:f9:99:12:31:69:
                    ce:c3:1f:10:6d:4f:49:4d:61:eb:2e:e1:9e:a6:ec:
                    f9:f2:e2:2d:06:6b:c1:ed:0b:48:77:cd:11:48:1d:
                    04:ca:59:6b:5c:f8:5b:72:f5:83:2d:fa:31:bd:b8:
                    c5:37:bb:d7:d2:f6:34:3b:d0:85:88:d6:a8:e2:c7:
                    27:99:50:35:02:eb:86:38:cb:fa:ae:47:72:99:21:
                    cf:1f:2b:ac:f3:23:2f:e4:52:3e:57:94:21:bd:d2:
                    6c:57:3e:13:1a:a7:0b:33:d2:93:d1:e5:c2:27:fa:
                    b7:3a:3f:f9:6f:c8:2a:7d:37:75:32:0c:ce:a7:2b:
                    6d:ac:40:d2:6e:fb:1d:97:2b:48:55:c0:56:80:bf:
                    fe:86:78:bf:19:25:28:86:37:17:f4:37:82:13:b8:
                    64:42:20:1a:79:73:d9:47:c2:e5:59:dc:01:87:ae:
                    7d:8c:83:84:5e:ad:66:99:b6:aa:7b:fc:35:1b:d8:
                    69:28:ca:65:4e:27:f5:0c:c9:e8:c2:ac:dd:28:21:
                    ce:d0:f5:5d:bc:ba:ed:36:d9:04:b4:e9:7b:2b:82:
                    63:8d:d4:fb:39:8d:f7:2a:50:c1:85:8d:5e:5f:a6:
                    89:1b:34:b1:d6:6c:d4:28:f4:76:da:ef:50:0d:d0:
                    6c:5e:ff:ed:a1:4f:eb:bb:44:26:36:4d:16:bb:ba:
                    dc:b4:90:48:14:f5:83:43:d9:f8:1c:b0:48:b7:8c:
                    ea:1c:c6:eb:99:50:29:f0:64:6b:7e:75:64:27:07:
                    a1:e4:4e:58:b0:c0:9f:7a:8b:83:e5:94:93:a6:96:
                    4b:18:8b:11:2f:d4:7c:6e:6f:d5:6a:16:04:20:8d:
                    d4:9a:28:c1:c4:8c:2c:65:a6:df:04:56:22:a4:d9:
                    21:84:34:0c:a5:f6:25:77:4a:c7:d8:e7:41:e1:c7:
                    2c:8c:f9:87:d3:43:4d:2d:48:46:60:33:01:d8:65:
                    71:16:1f:52:c9:2f:e1:fc:c7:d6:09:13:2b:98:c2:
                    3c:c0:90:dd:ea:40:87:18:04:a1:fb:fb:57:8f:4a:
                    aa:fe:86:42:5c:69:90:43:24:26:c5:cc:4e:c3:27:
                    25:c6:e9:58:da:0a:6d:30:d9:bb:6a:b4:44:5b:7f:
                    f5:84:48:b7:34:f8:4d:5a:88:3d:1d:27:dd:81:42:
                    f4:ff:9e:10:9c:b6:55:96:12:87:22:e5:8d:e0:61:
                    1d:9c:8c:e3:8a:bc:ff:c7:d5:e0:b7:34:8f:ec:d3:
                    d2:49:41:aa:c5:75:bc:05:57:24:f1:23:ca:c9:96:
                    54:ac:6d
                Exponent: 65537 (0x10001)
        X509v3 extensions:
            X509v3 Basic Constraints: 
                CA:FALSE
            Netscape Comment: 
                Easy-RSA Generated Certificate
            X509v3 Subject Key Identifier: 
                32:93:67:56:BD:7E:7B:9A:C8:C3:AB:A6:C2:8B:71:0B:5A:BB:20:8B
            X509v3 Authority Key Identifier: 
                keyid:EF:38:8D:14:50:58:A7:5B:4D:9C:17:72:FC:DF:B9:AC:A7:51:B0:10
                DirName:/C=US/ST=CA/L=SanFrancisco/O=Pixglo, Inc./OU=VPN-CIE/CN=tunnel.pixglo.com/name=Bala Chandrasekaran/emailAddress=bala@pixglo.com
                serial:A6:DB:C6:83:80:E6:A0:79

            X509v3 Extended Key Usage: 
                TLS Web Client Authentication
            X509v3 Key Usage: 
                Digital Signature
    Signature Algorithm: sha1WithRSAEncryption
         bb:04:8e:7e:d1:eb:18:38:42:ed:65:9c:f0:ef:10:6c:3b:8f:
         34:37:ca:0a:cd:2a:a4:a4:e1:5a:2e:c7:2d:48:34:bb:0f:33:
         8f:5d:34:57:38:c3:b6:15:50:0e:29:69:49:39:d1:69:69:c3:
         ad:6f:be:7b:40:17:0d:e3:07:30:85:cd:e2:f2:cf:49:ce:62:
         80:87:ca:20:4e:65:29:44:1e:1f:c3:21:89:e2:09:1a:d1:82:
         e8:d3:ad:4b:2d:4e:95:b1:16:37:94:16:11:10:ec:75:b2:2e:
         eb:4a:c3:6a:79:eb:9c:82:c4:8c:7f:28:e4:83:09:5d:43:2e:
         41:a6:bc:be:5c:f0:ae:ed:16:bd:13:db:c7:5a:97:fe:45:ea:
         01:a6:ad:0d:92:57:3b:0e:90:f0:75:27:fb:da:c2:a1:fe:de:
         78:f9:dd:e1:61:23:34:a3:5f:26:1d:2e:01:05:0d:fe:cc:cb:
         03:bd:11:96:28:85:4e:e2:24:b3:12:13:2c:c6:19:5f:02:d3:
         56:c1:28:9c:4f:3b:56:e6:d6:cd:1a:af:fb:d5:c2:86:d7:5f:
         3d:0f:c0:95:33:49:5b:16:09:c5:3f:49:b0:e6:7a:8a:f5:40:
         ca:a6:93:8c:a5:35:90:05:b3:ad:02:6a:5b:f0:ac:95:34:4a:
         5f:96:eb:ff:f1:c6:1a:e6:9f:53:b2:8b:a0:27:7f:33:06:bb:
         64:c9:c8:8b:4f:51:6e:7c:30:c6:4d:1e:66:a8:08:d1:ec:75:
         57:37:3b:74:94:58:10:ed:63:8c:c1:a8:30:10:8a:34:a9:2f:
         b4:37:3c:00:dd:84:bb:eb:20:8f:ac:a2:8b:2d:cd:8a:ed:6b:
         0c:4d:ff:f5:d1:82:37:0d:27:10:51:52:f9:e0:ff:b8:8a:fd:
         e1:f4:c2:a5:59:4e:09:3d:bf:6f:4a:83:ce:ca:c7:9c:57:5f:
         78:40:80:2e:b9:94:e8:9e:87:f5:89:e4:0b:3c:ab:a9:1d:fa:
         29:6a:c6:f9:63:87:37:3d:b7:44:85:a1:b2:80:1b:4a:5d:de:
         b7:21:d4:bc:12:b8:4e:1a:53:54:16:db:2e:6e:a3:02:d8:33:
         75:2f:d8:e2:e5:c4:28:d4:5a:34:c5:c9:87:c0:dd:ac:9f:1f:
         f4:fa:bf:48:6c:eb:b8:f3:1d:5b:36:d6:4f:e5:a3:a7:ff:c2:
         a3:41:f6:6d:94:86:ab:49:1f:e1:2e:ae:66:91:2b:34:a9:bc:
         1b:27:77:69:fd:1c:fb:38:40:86:05:b7:1f:9a:b9:43:84:7f:
         b9:b8:69:b3:69:40:ef:db:1e:2d:cf:63:17:83:b2:b7:dc:36:
         63:4c:dc:0f:be:b4:de:cb
-----BEGIN CERTIFICATE-----
MIIHSDCCBTCgAwIBAgICArQwDQYJKoZIhvcNAQEFBQAwgbQxCzAJBgNVBAYTAlVT
MQswCQYDVQQIEwJDQTEVMBMGA1UEBxMMU2FuRnJhbmNpc2NvMRUwEwYDVQQKEwxQ
aXhnbG8sIEluYy4xEDAOBgNVBAsTB1ZQTi1DSUUxGjAYBgNVBAMTEXR1bm5lbC5w
aXhnbG8uY29tMRwwGgYDVQQpExNCYWxhIENoYW5kcmFzZWthcmFuMR4wHAYJKoZI
hvcNAQkBFg9iYWxhQHBpeGdsby5jb20wHhcNMTgwMjE0MDY0MDM3WhcNMjgwMjEy
MDY0MDM3WjCBqTELMAkGA1UEBhMCVVMxCzAJBgNVBAgTAkNBMRUwEwYDVQQHEwxT
YW5GcmFuY2lzY28xFTATBgNVBAoTDFBpeGdsbywgSW5jLjEQMA4GA1UECxMHVlBO
LUNJRTEPMA0GA1UEAxMGY2llNjkxMRwwGgYDVQQpExNCYWxhIENoYW5kcmFzZWth
cmFuMR4wHAYJKoZIhvcNAQkBFg9iYWxhQHBpeGdsby5jb20wggIiMA0GCSqGSIb3
DQEBAQUAA4ICDwAwggIKAoICAQDiq+FKDtW5Xjn1qGdqOKjzvOOxFF/AuzX5mRIx
ac7DHxBtT0lNYesu4Z6m7Pny4i0Ga8HtC0h3zRFIHQTKWWtc+Fty9YMt+jG9uMU3
u9fS9jQ70IWI1qjixyeZUDUC64Y4y/quR3KZIc8fK6zzIy/kUj5XlCG90mxXPhMa
pwsz0pPR5cIn+rc6P/lvyCp9N3UyDM6nK22sQNJu+x2XK0hVwFaAv/6GeL8ZJSiG
Nxf0N4ITuGRCIBp5c9lHwuVZ3AGHrn2Mg4RerWaZtqp7/DUb2GkoymVOJ/UMyejC
rN0oIc7Q9V28uu022QS06XsrgmON1Ps5jfcqUMGFjV5fpokbNLHWbNQo9Hba71AN
0Gxe/+2hT+u7RCY2TRa7uty0kEgU9YND2fgcsEi3jOocxuuZUCnwZGt+dWQnB6Hk
TliwwJ96i4PllJOmlksYixEv1Hxub9VqFgQgjdSaKMHEjCxlpt8EViKk2SGENAyl
9iV3SsfY50HhxyyM+YfTQ00tSEZgMwHYZXEWH1LJL+H8x9YJEyuYwjzAkN3qQIcY
BKH7+1ePSqr+hkJcaZBDJCbFzE7DJyXG6VjaCm0w2btqtERbf/WESLc0+E1aiD0d
J92BQvT/nhCctlWWEoci5Y3gYR2cjOOKvP/H1eC3NI/s09JJQarFdbwFVyTxI8rJ
llSsbQIDAQABo4IBazCCAWcwCQYDVR0TBAIwADAtBglghkgBhvhCAQ0EIBYeRWFz
eS1SU0EgR2VuZXJhdGVkIENlcnRpZmljYXRlMB0GA1UdDgQWBBQyk2dWvX57msjD
q6bCi3ELWrsgizCB6QYDVR0jBIHhMIHegBTvOI0UUFinW02cF3L837msp1GwEKGB
uqSBtzCBtDELMAkGA1UEBhMCVVMxCzAJBgNVBAgTAkNBMRUwEwYDVQQHEwxTYW5G
cmFuY2lzY28xFTATBgNVBAoTDFBpeGdsbywgSW5jLjEQMA4GA1UECxMHVlBOLUNJ
RTEaMBgGA1UEAxMRdHVubmVsLnBpeGdsby5jb20xHDAaBgNVBCkTE0JhbGEgQ2hh
bmRyYXNla2FyYW4xHjAcBgkqhkiG9w0BCQEWD2JhbGFAcGl4Z2xvLmNvbYIJAKbb
xoOA5qB5MBMGA1UdJQQMMAoGCCsGAQUFBwMCMAsGA1UdDwQEAwIHgDANBgkqhkiG
9w0BAQUFAAOCAgEAuwSOftHrGDhC7WWc8O8QbDuPNDfKCs0qpKThWi7HLUg0uw8z
j100VzjDthVQDilpSTnRaWnDrW++e0AXDeMHMIXN4vLPSc5igIfKIE5lKUQeH8Mh
ieIJGtGC6NOtSy1OlbEWN5QWERDsdbIu60rDannrnILEjH8o5IMJXUMuQaa8vlzw
ru0WvRPbx1qX/kXqAaatDZJXOw6Q8HUn+9rCof7eePnd4WEjNKNfJh0uAQUN/szL
A70RliiFTuIksxITLMYZXwLTVsEonE87VubWzRqv+9XChtdfPQ/AlTNJWxYJxT9J
sOZ6ivVAyqaTjKU1kAWzrQJqW/CslTRKX5br//HGGuafU7KLoCd/Mwa7ZMnIi09R
bnwwxk0eZqgI0ex1Vzc7dJRYEO1jjMGoMBCKNKkvtDc8AN2Eu+sgj6yiiy3Niu1r
DE3/9dGCNw0nEFFS+eD/uIr94fTCpVlOCT2/b0qDzsrHnFdfeECALrmU6J6H9Ynk
CzyrqR36KWrG+WOHNz23RIWhsoAbSl3etyHUvBK4ThpTVBbbLm6jAtgzdS/Y4uXE
KNRaNMXJh8DdrJ8f9Pq/SGzruPMdWzbWT+Wjp//Co0H2bZSGq0kf4S6uZpErNKm8
Gyd3af0c+zhAhgW3H5q5Q4R/ubhps2lA79seLc9jF4Oyt9w2Y0zcD7603ss=
-----END CERTIFICATE-----
