Certificate:
    Data:
        Version: 3 (0x2)
        Serial Number: 693 (0x2b5)
    Signature Algorithm: sha1WithRSAEncryption
        Issuer: C=US, ST=CA, L=SanFrancisco, O=Pixglo, Inc., OU=VPN-CIE, CN=tunnel.pixglo.com/name=Bala Chandrasekaran/emailAddress=bala@pixglo.com
        Validity
            Not Before: Feb 14 06:40:39 2018 GMT
            Not After : Feb 12 06:40:39 2028 GMT
        Subject: C=US, ST=CA, L=SanFrancisco, O=Pixglo, Inc., OU=VPN-CIE, CN=cie692/name=Bala Chandrasekaran/emailAddress=bala@pixglo.com
        Subject Public Key Info:
            Public Key Algorithm: rsaEncryption
                Public-Key: (4096 bit)
                Modulus:
                    00:ec:97:19:2a:08:4a:1e:5a:6e:f8:3d:a1:e9:9b:
                    09:ed:ab:37:6b:26:62:5d:e8:2d:6b:af:a8:cd:a9:
                    8e:ae:9a:c3:d5:29:74:62:d3:34:70:93:3b:f0:2b:
                    41:5a:8d:09:f4:1c:5b:bd:cf:51:12:55:d5:70:77:
                    8a:7f:c6:cc:24:87:df:fc:5e:a6:fb:0f:6d:63:39:
                    d4:41:c8:43:02:e8:95:97:d2:a4:ed:2b:f9:d4:45:
                    fa:6b:ae:1e:7b:f3:52:c9:7f:a1:4c:7c:ea:81:6e:
                    b8:3f:a6:ec:e8:03:1b:1a:19:5f:ea:c9:18:98:b7:
                    46:9e:4f:20:27:9e:06:de:70:9a:ec:e5:9f:c2:d1:
                    c0:6f:37:71:29:fd:1a:56:40:8d:6a:6f:5b:05:34:
                    b5:32:5a:37:81:05:5f:0a:d2:f7:be:0b:5c:61:c5:
                    5d:00:64:f6:7f:f9:22:a1:43:4e:be:bf:bb:bd:8f:
                    59:7b:63:38:e2:6f:36:1f:b0:05:34:60:2c:46:ed:
                    4c:28:14:82:e3:e2:a4:3b:f3:8c:a5:07:a3:03:e6:
                    4b:93:b3:24:49:3d:84:66:53:87:f0:7a:39:18:fc:
                    8b:8a:31:3c:c3:63:fa:0a:c6:a3:29:75:32:b1:83:
                    9b:1e:a5:34:ac:c8:91:3a:8d:95:e6:f9:46:2b:23:
                    ed:b1:e1:a3:66:e1:f2:53:6b:e1:56:37:94:16:9c:
                    46:d0:c7:84:c9:72:f8:05:85:16:82:7a:14:20:17:
                    3c:f1:5c:9d:0a:7f:bf:4e:5b:96:39:c8:d1:56:13:
                    78:4f:e0:9b:63:20:3b:a8:6f:a9:f0:34:13:a7:fb:
                    5d:63:27:f7:e8:ec:5e:71:38:fb:61:aa:f5:b5:1b:
                    c6:7f:dd:92:0d:f9:d7:74:14:15:f3:b8:f1:83:a9:
                    92:6e:f9:6e:f6:b7:9f:a0:a5:2b:4c:db:f1:91:de:
                    4b:4c:fc:fd:00:7b:84:9d:9a:f5:d7:53:8f:d3:b0:
                    ff:db:d1:32:41:0b:6c:c4:c6:9a:eb:79:6e:75:41:
                    8b:77:ad:f2:be:13:6d:71:0e:e3:9c:ab:07:7d:c5:
                    c3:2a:8f:68:98:c2:1a:96:95:78:09:96:0b:55:6f:
                    f2:f3:f5:41:b4:b8:1b:6c:10:df:df:cf:4d:c6:e3:
                    00:70:ea:36:47:6b:19:4d:75:ed:c8:d0:18:6a:c9:
                    c9:5a:b2:2c:bf:25:40:01:df:3e:32:f1:1d:80:10:
                    0d:7e:62:32:f7:db:92:bd:99:b6:a6:86:c1:0e:e7:
                    ec:c9:ad:16:7f:32:5a:e0:44:32:05:2d:04:b1:3a:
                    54:ad:2a:6c:03:8e:99:ce:b9:22:6f:88:d5:00:8a:
                    b2:dc:1d
                Exponent: 65537 (0x10001)
        X509v3 extensions:
            X509v3 Basic Constraints: 
                CA:FALSE
            Netscape Comment: 
                Easy-RSA Generated Certificate
            X509v3 Subject Key Identifier: 
                AB:71:4D:C3:D8:54:46:15:B2:F0:18:A1:4D:21:15:02:2C:E2:5C:18
            X509v3 Authority Key Identifier: 
                keyid:EF:38:8D:14:50:58:A7:5B:4D:9C:17:72:FC:DF:B9:AC:A7:51:B0:10
                DirName:/C=US/ST=CA/L=SanFrancisco/O=Pixglo, Inc./OU=VPN-CIE/CN=tunnel.pixglo.com/name=Bala Chandrasekaran/emailAddress=bala@pixglo.com
                serial:A6:DB:C6:83:80:E6:A0:79

            X509v3 Extended Key Usage: 
                TLS Web Client Authentication
            X509v3 Key Usage: 
                Digital Signature
    Signature Algorithm: sha1WithRSAEncryption
         9a:b4:67:d0:b2:34:e9:71:b2:b0:9a:9a:f2:7c:9c:60:de:94:
         0f:50:35:a1:5f:45:95:2e:f8:e5:2b:5a:85:c3:50:09:3a:4b:
         e5:dc:64:d9:60:de:08:eb:74:14:d1:87:de:7a:05:5a:df:3b:
         6e:43:4d:fc:fd:fd:fb:b1:6c:0b:0b:e4:df:53:82:a8:8b:d5:
         4a:2f:5a:d8:7e:f6:2c:1e:b8:f2:2d:3d:3b:a6:d0:d5:ef:bd:
         e3:3c:fc:e7:c0:55:51:99:04:a0:5d:31:ff:4b:6b:9c:26:d7:
         4d:a2:84:44:36:0e:45:07:4a:0c:e1:a0:de:36:d4:f2:d2:86:
         47:22:ea:ce:56:a0:74:07:33:14:db:fe:d7:3f:bc:cd:dc:d8:
         0e:d6:1d:a1:af:06:9b:78:fa:49:4b:87:d4:ae:0e:e1:c6:54:
         44:1e:31:64:4e:c3:ae:89:97:62:b3:26:1f:16:15:3c:a4:b2:
         40:75:6e:92:67:d5:3c:6c:06:3b:24:42:0d:d7:90:1f:2c:c3:
         09:8c:80:a6:ce:5d:71:26:c5:70:fa:43:3f:63:0f:8a:dd:06:
         3f:3a:b0:cc:18:3a:25:34:e5:83:d4:06:3b:02:d8:f4:ab:2f:
         d3:de:cc:5d:e8:8a:f6:e9:e3:fc:15:00:ce:7a:13:a5:bd:c6:
         59:0b:80:58:35:7b:52:55:e9:ff:97:0c:6f:e9:d9:4c:23:f0:
         0c:f1:55:6c:22:30:02:a1:eb:d0:cf:29:a8:d7:d9:e5:c0:c0:
         1f:58:f2:75:63:9d:49:17:26:a8:be:e8:37:f8:33:ac:15:74:
         40:c6:76:e0:e7:3c:ca:75:cf:b5:52:cc:d5:24:50:7a:ed:fa:
         07:5d:bf:0f:b6:51:d1:13:fe:99:ff:ce:8a:c8:42:13:99:d4:
         6b:d1:03:3b:df:80:7d:88:49:16:be:3b:3b:7f:db:d9:d2:2e:
         7b:72:29:30:05:8f:50:0d:49:4a:71:49:06:30:27:7d:a5:79:
         a2:22:55:98:87:11:c0:44:14:a8:a1:23:76:05:a6:7c:95:1a:
         e1:38:22:50:ef:65:f0:eb:26:67:fc:0d:3f:af:a8:b8:b4:2e:
         0c:f1:9b:69:e3:c6:79:08:c8:2f:b8:58:d7:da:9d:35:d8:62:
         7c:2c:b1:a6:d3:0b:8c:f7:dc:39:41:a6:53:9d:a9:e2:86:a9:
         f7:10:12:5e:b3:49:ac:4b:32:42:b1:b9:9c:78:cc:d9:c0:47:
         32:af:3a:ce:59:59:d2:45:f0:93:88:42:00:8d:86:7c:2e:87:
         e2:83:f6:c2:38:9b:b5:19:26:00:dd:7c:4a:1d:19:47:57:df:
         41:0f:83:39:6f:20:b7:44
-----BEGIN CERTIFICATE-----
MIIHSDCCBTCgAwIBAgICArUwDQYJKoZIhvcNAQEFBQAwgbQxCzAJBgNVBAYTAlVT
MQswCQYDVQQIEwJDQTEVMBMGA1UEBxMMU2FuRnJhbmNpc2NvMRUwEwYDVQQKEwxQ
aXhnbG8sIEluYy4xEDAOBgNVBAsTB1ZQTi1DSUUxGjAYBgNVBAMTEXR1bm5lbC5w
aXhnbG8uY29tMRwwGgYDVQQpExNCYWxhIENoYW5kcmFzZWthcmFuMR4wHAYJKoZI
hvcNAQkBFg9iYWxhQHBpeGdsby5jb20wHhcNMTgwMjE0MDY0MDM5WhcNMjgwMjEy
MDY0MDM5WjCBqTELMAkGA1UEBhMCVVMxCzAJBgNVBAgTAkNBMRUwEwYDVQQHEwxT
YW5GcmFuY2lzY28xFTATBgNVBAoTDFBpeGdsbywgSW5jLjEQMA4GA1UECxMHVlBO
LUNJRTEPMA0GA1UEAxMGY2llNjkyMRwwGgYDVQQpExNCYWxhIENoYW5kcmFzZWth
cmFuMR4wHAYJKoZIhvcNAQkBFg9iYWxhQHBpeGdsby5jb20wggIiMA0GCSqGSIb3
DQEBAQUAA4ICDwAwggIKAoICAQDslxkqCEoeWm74PaHpmwntqzdrJmJd6C1rr6jN
qY6umsPVKXRi0zRwkzvwK0FajQn0HFu9z1ESVdVwd4p/xswkh9/8Xqb7D21jOdRB
yEMC6JWX0qTtK/nURfprrh5781LJf6FMfOqBbrg/puzoAxsaGV/qyRiYt0aeTyAn
ngbecJrs5Z/C0cBvN3Ep/RpWQI1qb1sFNLUyWjeBBV8K0ve+C1xhxV0AZPZ/+SKh
Q06+v7u9j1l7YzjibzYfsAU0YCxG7UwoFILj4qQ784ylB6MD5kuTsyRJPYRmU4fw
ejkY/IuKMTzDY/oKxqMpdTKxg5sepTSsyJE6jZXm+UYrI+2x4aNm4fJTa+FWN5QW
nEbQx4TJcvgFhRaCehQgFzzxXJ0Kf79OW5Y5yNFWE3hP4JtjIDuob6nwNBOn+11j
J/fo7F5xOPthqvW1G8Z/3ZIN+dd0FBXzuPGDqZJu+W72t5+gpStM2/GR3ktM/P0A
e4SdmvXXU4/TsP/b0TJBC2zExprreW51QYt3rfK+E21xDuOcqwd9xcMqj2iYwhqW
lXgJlgtVb/Lz9UG0uBtsEN/fz03G4wBw6jZHaxlNde3I0Bhqyclasiy/JUAB3z4y
8R2AEA1+YjL325K9mbamhsEO5+zJrRZ/MlrgRDIFLQSxOlStKmwDjpnOuSJviNUA
irLcHQIDAQABo4IBazCCAWcwCQYDVR0TBAIwADAtBglghkgBhvhCAQ0EIBYeRWFz
eS1SU0EgR2VuZXJhdGVkIENlcnRpZmljYXRlMB0GA1UdDgQWBBSrcU3D2FRGFbLw
GKFNIRUCLOJcGDCB6QYDVR0jBIHhMIHegBTvOI0UUFinW02cF3L837msp1GwEKGB
uqSBtzCBtDELMAkGA1UEBhMCVVMxCzAJBgNVBAgTAkNBMRUwEwYDVQQHEwxTYW5G
cmFuY2lzY28xFTATBgNVBAoTDFBpeGdsbywgSW5jLjEQMA4GA1UECxMHVlBOLUNJ
RTEaMBgGA1UEAxMRdHVubmVsLnBpeGdsby5jb20xHDAaBgNVBCkTE0JhbGEgQ2hh
bmRyYXNla2FyYW4xHjAcBgkqhkiG9w0BCQEWD2JhbGFAcGl4Z2xvLmNvbYIJAKbb
xoOA5qB5MBMGA1UdJQQMMAoGCCsGAQUFBwMCMAsGA1UdDwQEAwIHgDANBgkqhkiG
9w0BAQUFAAOCAgEAmrRn0LI06XGysJqa8nycYN6UD1A1oV9FlS745StahcNQCTpL
5dxk2WDeCOt0FNGH3noFWt87bkNN/P39+7FsCwvk31OCqIvVSi9a2H72LB648i09
O6bQ1e+94zz858BVUZkEoF0x/0trnCbXTaKERDYORQdKDOGg3jbU8tKGRyLqzlag
dAczFNv+1z+8zdzYDtYdoa8Gm3j6SUuH1K4O4cZURB4xZE7DromXYrMmHxYVPKSy
QHVukmfVPGwGOyRCDdeQHyzDCYyAps5dcSbFcPpDP2MPit0GPzqwzBg6JTTlg9QG
OwLY9Ksv097MXeiK9unj/BUAznoTpb3GWQuAWDV7UlXp/5cMb+nZTCPwDPFVbCIw
AqHr0M8pqNfZ5cDAH1jydWOdSRcmqL7oN/gzrBV0QMZ24Oc8ynXPtVLM1SRQeu36
B12/D7ZR0RP+mf/OishCE5nUa9EDO9+AfYhJFr47O3/b2dIue3IpMAWPUA1JSnFJ
BjAnfaV5oiJVmIcRwEQUqKEjdgWmfJUa4TgiUO9l8OsmZ/wNP6+ouLQuDPGbaePG
eQjIL7hY19qdNdhifCyxptMLjPfcOUGmU52p4oap9xASXrNJrEsyQrG5nHjM2cBH
Mq86zllZ0kXwk4hCAI2GfC6H4oP2wjibtRkmAN18Sh0ZR1ffQQ+DOW8gt0Q=
-----END CERTIFICATE-----
