Certificate:
    Data:
        Version: 3 (0x2)
        Serial Number: 694 (0x2b6)
    Signature Algorithm: sha1WithRSAEncryption
        Issuer: C=US, ST=CA, L=SanFrancisco, O=Pixglo, Inc., OU=VPN-CIE, CN=tunnel.pixglo.com/name=Bala Chandrasekaran/emailAddress=bala@pixglo.com
        Validity
            Not Before: Feb 14 06:40:43 2018 GMT
            Not After : Feb 12 06:40:43 2028 GMT
        Subject: C=US, ST=CA, L=SanFrancisco, O=Pixglo, Inc., OU=VPN-CIE, CN=cie693/name=Bala Chandrasekaran/emailAddress=bala@pixglo.com
        Subject Public Key Info:
            Public Key Algorithm: rsaEncryption
                Public-Key: (4096 bit)
                Modulus:
                    00:c5:ac:24:1d:9e:6d:51:ee:83:3a:3d:63:23:e3:
                    bb:aa:ee:49:1b:6b:7b:32:85:f3:98:29:ea:bc:07:
                    f3:fa:36:a9:37:e9:3f:8a:4d:ac:b2:4d:62:4f:ce:
                    e8:fc:d1:e1:28:7a:74:0a:89:ac:f0:46:0b:31:8f:
                    9a:a4:90:73:8e:2c:c2:62:0b:ff:9d:a8:c1:2b:04:
                    80:a7:0c:c9:e8:42:3b:d1:c2:45:e9:3c:5b:49:f9:
                    48:c5:ee:0e:36:2e:45:3b:ac:49:65:f4:46:67:8c:
                    2e:50:c5:aa:4f:75:e3:c6:b1:4c:46:82:e4:21:1b:
                    f3:75:f6:87:b7:3d:1f:2c:6e:ce:ec:9a:84:21:2e:
                    ae:ff:f9:09:27:fd:82:43:96:1b:3f:d0:0a:1d:66:
                    ed:db:32:a0:29:f1:2f:15:6c:57:07:f4:f3:19:91:
                    fa:45:81:a4:74:4d:9c:04:f4:82:b9:17:57:01:eb:
                    f1:57:2e:43:75:eb:75:b2:84:e7:38:f6:be:41:14:
                    17:9f:7d:54:49:70:34:26:95:ba:8d:8d:f2:bd:86:
                    34:6b:0d:5b:46:4e:91:d4:6f:0a:a2:b0:9e:65:fd:
                    ea:c5:7c:be:d6:29:f1:ea:40:04:33:5c:5a:81:55:
                    a0:6a:fd:66:3d:10:c0:cd:1b:e7:d6:cc:62:75:9f:
                    44:af:bb:c0:78:ef:08:f4:bd:93:07:e1:1e:1c:a9:
                    25:64:71:44:6a:b7:c1:71:67:7a:57:17:f8:d3:8c:
                    28:21:e8:11:5f:44:bf:ff:48:c7:db:df:8e:8c:31:
                    49:fc:6c:40:da:41:1a:fd:d3:5e:6d:5a:6f:74:d6:
                    49:8b:d2:17:44:fb:35:08:95:d8:00:74:66:a4:cc:
                    c2:25:3e:96:2a:84:da:7b:2b:7d:14:37:f8:c1:db:
                    fc:d2:a2:2f:82:1e:ea:43:94:fc:e5:f5:c6:0e:7c:
                    30:28:ae:2d:1e:84:f5:e5:bd:98:91:85:10:a2:62:
                    53:da:de:fa:c2:4c:e1:95:a4:fa:68:7e:f6:0a:19:
                    49:07:c3:11:50:0b:0d:d1:22:e7:a1:c4:c2:79:fa:
                    76:39:26:69:52:fb:51:26:93:ad:68:8a:fe:80:dd:
                    a9:9b:c3:9b:b8:4c:de:41:35:7d:00:6c:a7:f0:94:
                    6e:8e:8f:fd:42:45:39:77:cf:a1:4d:c9:a0:9d:9d:
                    33:01:08:bc:19:dc:4c:da:7b:99:ef:1c:e0:85:f4:
                    40:26:4e:51:70:45:2e:9c:04:cf:4d:ad:cc:80:46:
                    b6:32:3c:b0:e2:cc:d2:11:ff:63:20:33:57:05:56:
                    ff:f9:d1:22:93:73:ad:bc:55:8e:48:c4:ae:bd:90:
                    d5:61:49
                Exponent: 65537 (0x10001)
        X509v3 extensions:
            X509v3 Basic Constraints: 
                CA:FALSE
            Netscape Comment: 
                Easy-RSA Generated Certificate
            X509v3 Subject Key Identifier: 
                8B:8A:BC:CA:C3:98:9C:1C:DF:B6:9C:F3:5A:67:60:8D:1F:AE:32:67
            X509v3 Authority Key Identifier: 
                keyid:EF:38:8D:14:50:58:A7:5B:4D:9C:17:72:FC:DF:B9:AC:A7:51:B0:10
                DirName:/C=US/ST=CA/L=SanFrancisco/O=Pixglo, Inc./OU=VPN-CIE/CN=tunnel.pixglo.com/name=Bala Chandrasekaran/emailAddress=bala@pixglo.com
                serial:A6:DB:C6:83:80:E6:A0:79

            X509v3 Extended Key Usage: 
                TLS Web Client Authentication
            X509v3 Key Usage: 
                Digital Signature
    Signature Algorithm: sha1WithRSAEncryption
         30:2e:b3:b9:e5:4e:54:41:0e:e4:ab:1c:cb:42:9b:b2:f0:c0:
         9b:08:f1:75:42:0b:95:d0:88:58:39:a6:92:2d:d9:51:6e:19:
         1a:2e:08:95:7b:3a:46:23:22:3f:64:b4:c8:af:c8:78:f8:e5:
         32:de:b8:90:76:34:7e:70:2a:7b:ad:01:bf:d5:8d:ed:b2:18:
         40:a7:c4:48:1b:9f:5e:7c:18:c9:b1:cb:81:20:e2:65:13:12:
         42:55:f6:20:49:f1:3d:10:25:e1:a7:7d:ae:0a:14:34:b1:0f:
         7a:61:f3:34:e5:91:86:f0:c0:0c:50:f9:36:61:8c:1b:50:cd:
         79:01:d4:1a:00:00:5a:e6:f0:c3:79:8c:27:00:0c:ea:1f:e6:
         12:5e:05:7e:66:55:fc:a8:55:9e:1e:9c:df:73:e6:85:e2:a2:
         2d:9f:6e:e3:ca:c1:b8:ab:cf:27:46:1e:a2:dc:d7:3b:f3:c1:
         f5:3e:2e:59:e6:df:8f:c3:37:83:49:91:b2:5b:aa:fe:4e:4a:
         d0:67:1d:bf:10:73:f9:ad:93:07:59:28:5c:d8:70:1e:af:1f:
         1c:7f:29:9a:ae:17:86:f1:81:da:9e:10:57:aa:6d:60:06:cf:
         ee:be:26:a6:35:9c:07:66:1d:88:26:3f:c9:b9:64:57:d9:ac:
         62:a9:14:af:52:60:ea:fc:4c:c7:1c:b7:e0:c1:fb:4d:d7:c6:
         df:9b:de:b6:36:29:46:12:d4:fe:43:ff:8c:68:6d:e7:68:d7:
         44:aa:4e:9d:79:07:58:8e:d1:fc:bc:5f:50:68:66:49:4d:9e:
         0d:e6:c0:35:71:e5:d0:53:2d:87:4f:50:b2:4d:12:e5:18:65:
         8c:5d:af:0a:b6:8e:c9:5c:e9:c5:46:d8:ac:5a:7a:66:59:63:
         d0:d7:27:8a:8d:e3:15:84:38:25:72:07:ea:58:aa:b8:db:2e:
         e1:b1:37:23:b8:ba:60:63:ec:df:b9:70:78:86:40:73:93:e6:
         86:19:f5:1e:c1:47:07:07:4a:36:93:8c:7a:61:8e:9c:f0:ed:
         2f:a4:f7:a6:59:8e:6b:dd:5c:4a:a8:3b:de:8f:f5:1f:87:a5:
         f3:ef:91:48:6d:13:bb:2a:b1:90:e6:2b:0b:46:1f:8e:7a:26:
         75:c0:e8:1c:fe:c5:e0:27:cf:6a:15:a9:3a:ab:ba:77:f7:89:
         b3:1b:80:23:b8:a4:aa:b7:5d:21:5e:6e:b0:41:c0:ac:41:46:
         44:15:e0:c7:20:77:f0:fa:84:56:c0:d2:37:ab:c4:20:90:82:
         56:0a:b3:87:07:98:d0:9d:9a:18:49:54:66:2c:41:f4:1c:8d:
         4c:0d:7c:3d:d2:ca:7d:0a
-----BEGIN CERTIFICATE-----
MIIHSDCCBTCgAwIBAgICArYwDQYJKoZIhvcNAQEFBQAwgbQxCzAJBgNVBAYTAlVT
MQswCQYDVQQIEwJDQTEVMBMGA1UEBxMMU2FuRnJhbmNpc2NvMRUwEwYDVQQKEwxQ
aXhnbG8sIEluYy4xEDAOBgNVBAsTB1ZQTi1DSUUxGjAYBgNVBAMTEXR1bm5lbC5w
aXhnbG8uY29tMRwwGgYDVQQpExNCYWxhIENoYW5kcmFzZWthcmFuMR4wHAYJKoZI
hvcNAQkBFg9iYWxhQHBpeGdsby5jb20wHhcNMTgwMjE0MDY0MDQzWhcNMjgwMjEy
MDY0MDQzWjCBqTELMAkGA1UEBhMCVVMxCzAJBgNVBAgTAkNBMRUwEwYDVQQHEwxT
YW5GcmFuY2lzY28xFTATBgNVBAoTDFBpeGdsbywgSW5jLjEQMA4GA1UECxMHVlBO
LUNJRTEPMA0GA1UEAxMGY2llNjkzMRwwGgYDVQQpExNCYWxhIENoYW5kcmFzZWth
cmFuMR4wHAYJKoZIhvcNAQkBFg9iYWxhQHBpeGdsby5jb20wggIiMA0GCSqGSIb3
DQEBAQUAA4ICDwAwggIKAoICAQDFrCQdnm1R7oM6PWMj47uq7kkba3syhfOYKeq8
B/P6Nqk36T+KTayyTWJPzuj80eEoenQKiazwRgsxj5qkkHOOLMJiC/+dqMErBICn
DMnoQjvRwkXpPFtJ+UjF7g42LkU7rEll9EZnjC5QxapPdePGsUxGguQhG/N19oe3
PR8sbs7smoQhLq7/+Qkn/YJDlhs/0AodZu3bMqAp8S8VbFcH9PMZkfpFgaR0TZwE
9IK5F1cB6/FXLkN163WyhOc49r5BFBeffVRJcDQmlbqNjfK9hjRrDVtGTpHUbwqi
sJ5l/erFfL7WKfHqQAQzXFqBVaBq/WY9EMDNG+fWzGJ1n0Svu8B47wj0vZMH4R4c
qSVkcURqt8FxZ3pXF/jTjCgh6BFfRL//SMfb346MMUn8bEDaQRr9015tWm901kmL
0hdE+zUIldgAdGakzMIlPpYqhNp7K30UN/jB2/zSoi+CHupDlPzl9cYOfDAori0e
hPXlvZiRhRCiYlPa3vrCTOGVpPpofvYKGUkHwxFQCw3RIuehxMJ5+nY5JmlS+1Em
k61oiv6A3ambw5u4TN5BNX0AbKfwlG6Oj/1CRTl3z6FNyaCdnTMBCLwZ3Ezae5nv
HOCF9EAmTlFwRS6cBM9NrcyARrYyPLDizNIR/2MgM1cFVv/50SKTc628VY5IxK69
kNVhSQIDAQABo4IBazCCAWcwCQYDVR0TBAIwADAtBglghkgBhvhCAQ0EIBYeRWFz
eS1SU0EgR2VuZXJhdGVkIENlcnRpZmljYXRlMB0GA1UdDgQWBBSLirzKw5icHN+2
nPNaZ2CNH64yZzCB6QYDVR0jBIHhMIHegBTvOI0UUFinW02cF3L837msp1GwEKGB
uqSBtzCBtDELMAkGA1UEBhMCVVMxCzAJBgNVBAgTAkNBMRUwEwYDVQQHEwxTYW5G
cmFuY2lzY28xFTATBgNVBAoTDFBpeGdsbywgSW5jLjEQMA4GA1UECxMHVlBOLUNJ
RTEaMBgGA1UEAxMRdHVubmVsLnBpeGdsby5jb20xHDAaBgNVBCkTE0JhbGEgQ2hh
bmRyYXNla2FyYW4xHjAcBgkqhkiG9w0BCQEWD2JhbGFAcGl4Z2xvLmNvbYIJAKbb
xoOA5qB5MBMGA1UdJQQMMAoGCCsGAQUFBwMCMAsGA1UdDwQEAwIHgDANBgkqhkiG
9w0BAQUFAAOCAgEAMC6zueVOVEEO5Kscy0KbsvDAmwjxdUILldCIWDmmki3ZUW4Z
Gi4IlXs6RiMiP2S0yK/IePjlMt64kHY0fnAqe60Bv9WN7bIYQKfESBufXnwYybHL
gSDiZRMSQlX2IEnxPRAl4ad9rgoUNLEPemHzNOWRhvDADFD5NmGMG1DNeQHUGgAA
Wubww3mMJwAM6h/mEl4FfmZV/KhVnh6c33PmheKiLZ9u48rBuKvPJ0YeotzXO/PB
9T4uWebfj8M3g0mRsluq/k5K0GcdvxBz+a2TB1koXNhwHq8fHH8pmq4XhvGB2p4Q
V6ptYAbP7r4mpjWcB2YdiCY/yblkV9msYqkUr1Jg6vxMxxy34MH7TdfG35vetjYp
RhLU/kP/jGht52jXRKpOnXkHWI7R/LxfUGhmSU2eDebANXHl0FMth09Qsk0S5Rhl
jF2vCraOyVzpxUbYrFp6Zllj0Ncnio3jFYQ4JXIH6liquNsu4bE3I7i6YGPs37lw
eIZAc5Pmhhn1HsFHBwdKNpOMemGOnPDtL6T3plmOa91cSqg73o/1H4el8++RSG0T
uyqxkOYrC0YfjnomdcDoHP7F4CfPahWpOqu6d/eJsxuAI7ikqrddIV5usEHArEFG
RBXgxyB38PqEVsDSN6vEIJCCVgqzhweY0J2aGElUZixB9ByNTA18PdLKfQo=
-----END CERTIFICATE-----
