Certificate:
    Data:
        Version: 3 (0x2)
        Serial Number: 695 (0x2b7)
    Signature Algorithm: sha1WithRSAEncryption
        Issuer: C=US, ST=CA, L=SanFrancisco, O=Pixglo, Inc., OU=VPN-CIE, CN=tunnel.pixglo.com/name=Bala Chandrasekaran/emailAddress=bala@pixglo.com
        Validity
            Not Before: Feb 14 06:40:46 2018 GMT
            Not After : Feb 12 06:40:46 2028 GMT
        Subject: C=US, ST=CA, L=SanFrancisco, O=Pixglo, Inc., OU=VPN-CIE, CN=cie694/name=Bala Chandrasekaran/emailAddress=bala@pixglo.com
        Subject Public Key Info:
            Public Key Algorithm: rsaEncryption
                Public-Key: (4096 bit)
                Modulus:
                    00:ac:02:d0:10:4f:e6:5c:0e:6b:11:e9:22:51:c7:
                    e1:9c:9e:bb:c6:9e:31:87:dd:6e:4d:18:4e:d4:a8:
                    63:a0:76:78:6a:90:89:8c:7e:28:81:4a:6f:23:cc:
                    b9:7f:50:f9:e2:1b:30:b0:59:2b:01:b5:1e:60:8b:
                    ac:62:bf:80:23:8e:a8:6a:82:21:97:b7:1e:fc:32:
                    ee:b3:c9:3f:d8:83:a8:da:77:ad:9d:14:81:e6:0f:
                    bd:f2:c2:a1:ae:99:32:6e:6b:fc:69:84:24:aa:ad:
                    85:e8:4e:86:5f:b9:67:2c:a2:59:3a:ee:48:f3:90:
                    8a:80:1f:bd:de:79:d1:ad:ba:80:5a:13:2c:fa:3a:
                    6c:a5:26:64:d5:6e:a5:4a:34:95:aa:36:23:6d:93:
                    56:9d:d0:c7:35:49:26:70:a8:42:1b:a6:cd:ca:1d:
                    65:61:64:41:89:be:a1:b8:58:d1:54:2e:04:b0:22:
                    01:46:2c:1a:cd:f1:15:36:26:85:2c:1b:44:93:b3:
                    44:07:ab:a3:03:a1:12:96:7b:6f:1b:74:5c:99:06:
                    8d:b8:bd:64:78:36:32:5e:45:66:b1:79:63:8a:65:
                    7d:bf:ca:7b:32:b0:2f:5b:1a:8e:0e:c8:c6:d3:c3:
                    88:48:5c:6f:48:84:cd:68:4a:78:85:02:f6:8b:06:
                    f6:22:3b:c3:83:18:d3:e0:d3:7e:1a:9a:52:1c:c7:
                    d1:af:83:33:6a:c2:fb:53:b8:5a:54:5e:85:da:2f:
                    73:6f:7c:e2:01:eb:8e:e2:ca:cd:19:8c:06:fd:12:
                    7b:b9:71:b9:20:5b:28:91:5d:3c:1e:f5:15:ce:ef:
                    a1:98:06:b5:1a:57:00:e4:e5:40:ed:d7:e9:91:d3:
                    70:e4:e1:2c:a5:43:d6:62:b7:12:dc:0e:94:83:08:
                    d7:6b:bc:55:fe:8e:b1:d1:24:c3:ca:06:e4:cd:13:
                    6b:e4:f8:0f:69:91:ae:ab:06:0d:27:76:a4:71:2c:
                    59:89:c6:76:1c:9a:27:12:e0:1e:3b:cf:15:5f:12:
                    7b:7e:8e:1b:0c:a8:b4:e6:5d:35:75:d4:31:04:14:
                    18:7e:83:43:72:9d:e3:a4:69:cd:a6:5d:4d:5a:8a:
                    2e:fd:27:3e:bd:0c:ea:2c:7c:0a:30:6d:e4:60:89:
                    c7:10:e4:c8:2e:da:59:e3:05:5d:e0:df:13:7d:7b:
                    55:a9:8d:01:5c:6e:85:b8:06:23:71:47:f4:16:f6:
                    2d:1b:03:cb:e3:c0:50:50:a5:7f:a1:46:8f:dd:ed:
                    6e:98:3a:73:c5:bf:58:e0:76:b5:fa:45:00:1d:51:
                    dc:b5:08:2d:1c:c6:a8:1d:d5:dd:43:98:dc:69:6a:
                    a9:e6:1b
                Exponent: 65537 (0x10001)
        X509v3 extensions:
            X509v3 Basic Constraints: 
                CA:FALSE
            Netscape Comment: 
                Easy-RSA Generated Certificate
            X509v3 Subject Key Identifier: 
                AC:92:06:2A:C1:76:AF:07:DB:10:93:AA:90:B9:6A:48:E3:EC:C1:A0
            X509v3 Authority Key Identifier: 
                keyid:EF:38:8D:14:50:58:A7:5B:4D:9C:17:72:FC:DF:B9:AC:A7:51:B0:10
                DirName:/C=US/ST=CA/L=SanFrancisco/O=Pixglo, Inc./OU=VPN-CIE/CN=tunnel.pixglo.com/name=Bala Chandrasekaran/emailAddress=bala@pixglo.com
                serial:A6:DB:C6:83:80:E6:A0:79

            X509v3 Extended Key Usage: 
                TLS Web Client Authentication
            X509v3 Key Usage: 
                Digital Signature
    Signature Algorithm: sha1WithRSAEncryption
         b4:fa:c7:a3:b6:38:d8:01:63:3b:05:4c:93:e1:d4:13:5f:48:
         47:b5:8a:77:94:4e:14:80:08:53:da:c4:49:48:e8:ba:6c:86:
         0a:fc:4b:a3:b2:59:c7:89:4a:e7:aa:d4:37:ea:d6:ae:58:40:
         93:90:a3:93:d1:68:7a:f5:50:67:32:9d:29:70:51:68:7c:fa:
         4a:8d:4c:05:a1:4d:8a:f0:06:c8:e5:df:57:96:cb:15:45:5d:
         f6:42:8f:34:50:1e:f3:32:21:5e:04:9a:03:a9:c2:4c:7b:fa:
         46:b8:c4:f4:be:89:8a:31:a2:7d:9c:df:bf:c1:89:b6:89:cd:
         9c:2a:f1:a9:21:20:2a:b7:61:fb:00:a9:55:83:83:5d:f1:c9:
         d8:09:4f:0b:d7:05:c2:a0:60:9c:c1:f9:99:7a:7b:a0:7b:6a:
         74:87:b1:ac:57:3d:df:a1:ff:f1:a8:b8:a3:2f:68:d6:b9:43:
         d7:7b:35:a4:8f:0f:9d:6f:9e:04:f4:31:2e:d6:e4:07:cd:42:
         b2:ad:5e:b2:55:02:16:c1:40:e4:67:d1:e0:dd:ed:94:2e:2d:
         fe:25:e8:ef:bf:77:86:52:15:95:6d:25:90:e5:4c:56:76:df:
         b3:53:60:ee:63:7d:03:38:52:94:a0:37:2a:88:80:c4:ab:d0:
         9f:cb:9c:5e:8c:59:5d:86:76:51:b2:5d:c9:df:be:3b:af:29:
         86:2f:24:fb:d2:11:21:8e:99:c6:86:82:fc:0c:2d:ae:89:0c:
         6f:1d:61:9c:28:42:86:2a:52:ff:c5:f0:22:6d:4d:d1:dd:f4:
         71:99:d8:08:1b:ac:42:a1:e0:83:42:4e:01:94:56:f7:8d:66:
         02:7c:12:47:c6:48:33:d2:76:20:41:6a:95:8c:35:b8:19:79:
         84:af:28:44:56:f3:77:96:d6:78:88:43:a7:72:be:a4:e1:bf:
         a9:60:a0:47:97:e7:18:b2:e3:ad:73:99:24:24:fc:6a:5b:52:
         8f:5b:02:c0:8f:ff:69:e3:3d:6e:11:1e:62:b4:38:b0:72:aa:
         55:2f:84:05:3e:05:98:b5:d3:7f:e9:76:0a:0a:b8:e8:f3:12:
         60:ca:39:6c:51:5e:98:04:57:0d:86:bb:6a:85:a9:66:9a:72:
         4c:bc:35:4f:87:32:de:a2:c9:da:6d:11:28:f6:b9:92:91:41:
         af:37:a0:81:a3:36:67:59:4f:bf:de:5e:36:3e:03:80:94:a4:
         d4:d9:db:52:f4:37:bc:a3:7e:38:b1:92:4b:65:8f:32:4d:9e:
         ee:37:32:d9:3c:96:f3:c3:12:cd:a4:1a:06:38:85:62:ad:75:
         b6:dd:e2:75:26:96:cd:2d
-----BEGIN CERTIFICATE-----
MIIHSDCCBTCgAwIBAgICArcwDQYJKoZIhvcNAQEFBQAwgbQxCzAJBgNVBAYTAlVT
MQswCQYDVQQIEwJDQTEVMBMGA1UEBxMMU2FuRnJhbmNpc2NvMRUwEwYDVQQKEwxQ
aXhnbG8sIEluYy4xEDAOBgNVBAsTB1ZQTi1DSUUxGjAYBgNVBAMTEXR1bm5lbC5w
aXhnbG8uY29tMRwwGgYDVQQpExNCYWxhIENoYW5kcmFzZWthcmFuMR4wHAYJKoZI
hvcNAQkBFg9iYWxhQHBpeGdsby5jb20wHhcNMTgwMjE0MDY0MDQ2WhcNMjgwMjEy
MDY0MDQ2WjCBqTELMAkGA1UEBhMCVVMxCzAJBgNVBAgTAkNBMRUwEwYDVQQHEwxT
YW5GcmFuY2lzY28xFTATBgNVBAoTDFBpeGdsbywgSW5jLjEQMA4GA1UECxMHVlBO
LUNJRTEPMA0GA1UEAxMGY2llNjk0MRwwGgYDVQQpExNCYWxhIENoYW5kcmFzZWth
cmFuMR4wHAYJKoZIhvcNAQkBFg9iYWxhQHBpeGdsby5jb20wggIiMA0GCSqGSIb3
DQEBAQUAA4ICDwAwggIKAoICAQCsAtAQT+ZcDmsR6SJRx+GcnrvGnjGH3W5NGE7U
qGOgdnhqkImMfiiBSm8jzLl/UPniGzCwWSsBtR5gi6xiv4AjjqhqgiGXtx78Mu6z
yT/Yg6jad62dFIHmD73ywqGumTJua/xphCSqrYXoToZfuWcsolk67kjzkIqAH73e
edGtuoBaEyz6OmylJmTVbqVKNJWqNiNtk1ad0Mc1SSZwqEIbps3KHWVhZEGJvqG4
WNFULgSwIgFGLBrN8RU2JoUsG0STs0QHq6MDoRKWe28bdFyZBo24vWR4NjJeRWax
eWOKZX2/ynsysC9bGo4OyMbTw4hIXG9IhM1oSniFAvaLBvYiO8ODGNPg034amlIc
x9GvgzNqwvtTuFpUXoXaL3NvfOIB647iys0ZjAb9Enu5cbkgWyiRXTwe9RXO76GY
BrUaVwDk5UDt1+mR03Dk4SylQ9ZitxLcDpSDCNdrvFX+jrHRJMPKBuTNE2vk+A9p
ka6rBg0ndqRxLFmJxnYcmicS4B47zxVfEnt+jhsMqLTmXTV11DEEFBh+g0NyneOk
ac2mXU1aii79Jz69DOosfAowbeRgiccQ5Mgu2lnjBV3g3xN9e1WpjQFcboW4BiNx
R/QW9i0bA8vjwFBQpX+hRo/d7W6YOnPFv1jgdrX6RQAdUdy1CC0cxqgd1d1DmNxp
aqnmGwIDAQABo4IBazCCAWcwCQYDVR0TBAIwADAtBglghkgBhvhCAQ0EIBYeRWFz
eS1SU0EgR2VuZXJhdGVkIENlcnRpZmljYXRlMB0GA1UdDgQWBBSskgYqwXavB9sQ
k6qQuWpI4+zBoDCB6QYDVR0jBIHhMIHegBTvOI0UUFinW02cF3L837msp1GwEKGB
uqSBtzCBtDELMAkGA1UEBhMCVVMxCzAJBgNVBAgTAkNBMRUwEwYDVQQHEwxTYW5G
cmFuY2lzY28xFTATBgNVBAoTDFBpeGdsbywgSW5jLjEQMA4GA1UECxMHVlBOLUNJ
RTEaMBgGA1UEAxMRdHVubmVsLnBpeGdsby5jb20xHDAaBgNVBCkTE0JhbGEgQ2hh
bmRyYXNla2FyYW4xHjAcBgkqhkiG9w0BCQEWD2JhbGFAcGl4Z2xvLmNvbYIJAKbb
xoOA5qB5MBMGA1UdJQQMMAoGCCsGAQUFBwMCMAsGA1UdDwQEAwIHgDANBgkqhkiG
9w0BAQUFAAOCAgEAtPrHo7Y42AFjOwVMk+HUE19IR7WKd5ROFIAIU9rESUjoumyG
CvxLo7JZx4lK56rUN+rWrlhAk5Cjk9FoevVQZzKdKXBRaHz6So1MBaFNivAGyOXf
V5bLFUVd9kKPNFAe8zIhXgSaA6nCTHv6RrjE9L6JijGifZzfv8GJtonNnCrxqSEg
Krdh+wCpVYODXfHJ2AlPC9cFwqBgnMH5mXp7oHtqdIexrFc936H/8ai4oy9o1rlD
13s1pI8PnW+eBPQxLtbkB81Csq1eslUCFsFA5GfR4N3tlC4t/iXo7793hlIVlW0l
kOVMVnbfs1Ng7mN9AzhSlKA3KoiAxKvQn8ucXoxZXYZ2UbJdyd++O68phi8k+9IR
IY6ZxoaC/AwtrokMbx1hnChChipS/8XwIm1N0d30cZnYCBusQqHgg0JOAZRW941m
AnwSR8ZIM9J2IEFqlYw1uBl5hK8oRFbzd5bWeIhDp3K+pOG/qWCgR5fnGLLjrXOZ
JCT8altSj1sCwI//aeM9bhEeYrQ4sHKqVS+EBT4FmLXTf+l2Cgq46PMSYMo5bFFe
mARXDYa7aoWpZppyTLw1T4cy3qLJ2m0RKPa5kpFBrzeggaM2Z1lPv95eNj4DgJSk
1NnbUvQ3vKN+OLGSS2WPMk2e7jcy2TyW88MSzaQaBjiFYq11tt3idSaWzS0=
-----END CERTIFICATE-----
