Certificate:
    Data:
        Version: 3 (0x2)
        Serial Number: 697 (0x2b9)
    Signature Algorithm: sha1WithRSAEncryption
        Issuer: C=US, ST=CA, L=SanFrancisco, O=Pixglo, Inc., OU=VPN-CIE, CN=tunnel.pixglo.com/name=Bala Chandrasekaran/emailAddress=bala@pixglo.com
        Validity
            Not Before: Feb 14 06:40:47 2018 GMT
            Not After : Feb 12 06:40:47 2028 GMT
        Subject: C=US, ST=CA, L=SanFrancisco, O=Pixglo, Inc., OU=VPN-CIE, CN=cie696/name=Bala Chandrasekaran/emailAddress=bala@pixglo.com
        Subject Public Key Info:
            Public Key Algorithm: rsaEncryption
                Public-Key: (4096 bit)
                Modulus:
                    00:99:fb:9e:74:77:bb:33:8c:7a:3c:d9:42:14:16:
                    73:64:94:3a:10:d9:7b:9b:fb:67:fb:da:e9:90:41:
                    68:1d:11:c6:33:f2:a7:87:63:4d:8b:7b:30:69:49:
                    fb:1a:84:88:e4:6d:d0:c4:7c:23:5d:e2:9e:7f:14:
                    04:68:48:10:8f:f6:e0:9f:2e:81:a1:d4:07:37:b5:
                    6a:ec:d7:43:a9:32:73:ef:3a:fa:11:aa:8a:ed:a5:
                    13:17:8d:4c:a6:e8:e9:11:7d:e9:0e:3a:2d:fc:fa:
                    23:5a:89:b4:12:6d:d1:f7:eb:88:93:09:d5:16:0a:
                    5c:34:78:0a:84:57:e4:a1:19:ea:66:67:ab:e0:ef:
                    d2:2a:ee:1d:71:aa:ed:d7:08:4a:6a:26:dc:2a:ac:
                    fe:51:4c:05:a0:2a:b0:64:48:4d:9c:73:3a:e8:41:
                    a1:20:14:5e:c2:0f:73:bf:ee:38:ec:a3:ed:de:f5:
                    80:5b:b7:fc:3d:d0:27:f3:56:31:55:a5:9c:98:a7:
                    6e:f8:57:0e:6d:a2:96:0a:36:6f:83:37:d4:3e:b3:
                    d6:00:81:40:9a:90:bd:6c:ec:f1:fb:67:1a:57:0b:
                    80:b7:69:02:0a:70:80:e8:8e:3f:ca:80:51:d6:59:
                    ce:a4:da:56:f9:57:b8:f3:c8:f8:64:ab:d7:0c:a3:
                    b5:da:7a:60:70:f1:62:07:08:46:2a:8b:ba:82:02:
                    61:f1:b2:71:d4:ca:56:6b:7b:fa:f5:9b:17:68:54:
                    7b:3b:fa:7a:1b:18:0e:42:25:66:e6:ac:7f:c8:7f:
                    f3:ff:1d:8d:31:32:5f:0a:11:a5:6b:ca:72:1a:1c:
                    b6:c2:c1:90:44:a4:da:19:ec:13:72:19:43:87:ef:
                    c7:e6:b1:b6:2b:ff:de:03:5b:30:17:e8:10:b4:c6:
                    d9:63:8d:88:8d:3c:6c:27:81:62:fd:b6:a4:52:92:
                    d1:42:4e:6b:dc:9e:49:37:2b:39:e5:7c:2b:97:45:
                    10:72:24:62:aa:ae:25:2b:7c:df:f0:44:c5:17:a9:
                    c8:c5:29:57:5c:1b:57:97:1f:fb:73:cf:58:07:2c:
                    15:7a:7a:c9:c8:8d:84:9e:91:02:e6:b0:45:c5:5b:
                    44:37:36:39:e1:e7:a6:5c:9b:39:c5:e0:35:b5:17:
                    2b:bf:9b:4f:94:32:0b:23:1b:46:6b:8e:8d:f2:13:
                    5f:b6:d2:37:ac:8c:08:4c:c5:01:22:99:b8:f7:16:
                    b2:b9:2f:e1:c8:af:ee:a6:1a:7a:0f:a9:1e:51:f6:
                    08:c5:d7:43:a5:69:17:f3:ed:10:90:ea:fc:31:ef:
                    82:57:47:12:03:5b:74:19:20:59:0e:b0:fa:cd:e4:
                    fd:4a:07
                Exponent: 65537 (0x10001)
        X509v3 extensions:
            X509v3 Basic Constraints: 
                CA:FALSE
            Netscape Comment: 
                Easy-RSA Generated Certificate
            X509v3 Subject Key Identifier: 
                6E:EF:8E:7D:C1:02:0B:5B:65:14:FE:5F:F6:1F:F7:B0:EC:0C:33:22
            X509v3 Authority Key Identifier: 
                keyid:EF:38:8D:14:50:58:A7:5B:4D:9C:17:72:FC:DF:B9:AC:A7:51:B0:10
                DirName:/C=US/ST=CA/L=SanFrancisco/O=Pixglo, Inc./OU=VPN-CIE/CN=tunnel.pixglo.com/name=Bala Chandrasekaran/emailAddress=bala@pixglo.com
                serial:A6:DB:C6:83:80:E6:A0:79

            X509v3 Extended Key Usage: 
                TLS Web Client Authentication
            X509v3 Key Usage: 
                Digital Signature
    Signature Algorithm: sha1WithRSAEncryption
         03:b7:26:bd:3a:1b:71:9a:a3:5a:00:ed:95:52:84:ea:2e:bf:
         3f:14:0b:50:63:8e:b7:73:8a:44:76:66:3b:26:2c:e1:d5:31:
         e4:85:56:81:82:1c:0a:7b:2d:84:49:c1:a8:1f:e4:49:0c:65:
         b6:b5:f4:a1:4a:00:40:d4:07:28:5b:34:8c:7c:16:57:48:d6:
         3a:4b:eb:85:02:3e:45:31:77:87:8b:7d:df:b7:90:47:eb:fb:
         71:c5:76:63:73:33:7f:47:05:d9:b4:8c:5e:7e:1a:f2:3c:e7:
         6d:08:95:e5:f9:b1:7b:8d:22:f2:52:22:7f:3a:88:a3:01:a4:
         8d:5d:a0:0e:ed:84:ea:7f:65:a4:4d:58:21:ef:8d:cf:46:09:
         e8:84:e9:ba:d4:3a:d7:0d:a4:f2:3a:af:52:32:59:13:b9:17:
         0b:6a:51:45:c3:5d:67:ce:8c:b3:8e:04:ce:f3:eb:aa:8b:55:
         d1:a6:77:c0:db:9f:80:88:fc:c6:30:d3:b0:de:32:57:13:b5:
         ba:be:83:f0:26:06:8c:bf:ad:22:af:a6:7f:5f:8d:3f:e3:0b:
         e0:44:2c:c3:ba:97:c3:3a:d8:d3:f8:43:ab:d9:c6:ed:dd:28:
         20:77:b2:e8:06:f9:94:72:98:31:f4:a9:c6:75:63:4d:2e:47:
         dd:41:f0:78:15:50:d8:d6:99:bc:e7:27:91:a8:97:7a:6d:53:
         03:a5:1a:69:80:87:6f:92:fa:ac:56:a3:d7:e4:3a:ef:0a:ff:
         de:61:72:c7:7b:3b:63:68:6f:50:1f:dc:01:8d:3c:de:2c:3a:
         6c:68:40:df:1a:30:ae:e3:c9:06:df:e6:84:15:3c:e6:22:05:
         86:7b:38:a1:44:32:8c:c0:5e:77:4b:54:5b:a4:a3:de:57:08:
         95:3a:0d:56:e9:f1:7a:42:f8:f2:d0:c6:63:dc:0c:b3:cc:95:
         06:ae:af:7f:b7:29:d2:eb:10:c9:44:a3:6d:98:bd:c3:4f:f1:
         f7:ea:5e:16:9c:74:7c:a0:6d:74:d0:2d:5b:52:49:a9:aa:a3:
         f7:b9:7f:10:56:ac:22:66:d0:d5:9c:8b:c2:8f:5a:25:5b:4d:
         f4:97:35:03:5c:7e:e9:25:7e:c0:f5:42:ad:84:e0:d1:d5:66:
         ae:5b:55:3e:d1:f6:13:19:5d:63:82:ec:fd:52:c4:fb:4d:76:
         12:42:e0:95:c3:d6:f3:3e:28:7d:02:35:c9:8b:51:fa:88:40:
         24:eb:1f:16:cf:83:cc:a9:fd:10:86:0e:8e:94:8d:a3:e5:52:
         b2:00:51:81:2d:39:43:af:ca:8c:df:01:94:7c:a8:59:19:11:
         54:91:9e:29:27:f2:23:87
-----BEGIN CERTIFICATE-----
MIIHSDCCBTCgAwIBAgICArkwDQYJKoZIhvcNAQEFBQAwgbQxCzAJBgNVBAYTAlVT
MQswCQYDVQQIEwJDQTEVMBMGA1UEBxMMU2FuRnJhbmNpc2NvMRUwEwYDVQQKEwxQ
aXhnbG8sIEluYy4xEDAOBgNVBAsTB1ZQTi1DSUUxGjAYBgNVBAMTEXR1bm5lbC5w
aXhnbG8uY29tMRwwGgYDVQQpExNCYWxhIENoYW5kcmFzZWthcmFuMR4wHAYJKoZI
hvcNAQkBFg9iYWxhQHBpeGdsby5jb20wHhcNMTgwMjE0MDY0MDQ3WhcNMjgwMjEy
MDY0MDQ3WjCBqTELMAkGA1UEBhMCVVMxCzAJBgNVBAgTAkNBMRUwEwYDVQQHEwxT
YW5GcmFuY2lzY28xFTATBgNVBAoTDFBpeGdsbywgSW5jLjEQMA4GA1UECxMHVlBO
LUNJRTEPMA0GA1UEAxMGY2llNjk2MRwwGgYDVQQpExNCYWxhIENoYW5kcmFzZWth
cmFuMR4wHAYJKoZIhvcNAQkBFg9iYWxhQHBpeGdsby5jb20wggIiMA0GCSqGSIb3
DQEBAQUAA4ICDwAwggIKAoICAQCZ+550d7szjHo82UIUFnNklDoQ2Xub+2f72umQ
QWgdEcYz8qeHY02LezBpSfsahIjkbdDEfCNd4p5/FARoSBCP9uCfLoGh1Ac3tWrs
10OpMnPvOvoRqortpRMXjUym6OkRfekOOi38+iNaibQSbdH364iTCdUWClw0eAqE
V+ShGepmZ6vg79Iq7h1xqu3XCEpqJtwqrP5RTAWgKrBkSE2cczroQaEgFF7CD3O/
7jjso+3e9YBbt/w90CfzVjFVpZyYp274Vw5topYKNm+DN9Q+s9YAgUCakL1s7PH7
ZxpXC4C3aQIKcIDojj/KgFHWWc6k2lb5V7jzyPhkq9cMo7XaemBw8WIHCEYqi7qC
AmHxsnHUylZre/r1mxdoVHs7+nobGA5CJWbmrH/If/P/HY0xMl8KEaVrynIaHLbC
wZBEpNoZ7BNyGUOH78fmsbYr/94DWzAX6BC0xtljjYiNPGwngWL9tqRSktFCTmvc
nkk3KznlfCuXRRByJGKqriUrfN/wRMUXqcjFKVdcG1eXH/tzz1gHLBV6esnIjYSe
kQLmsEXFW0Q3Njnh56ZcmznF4DW1Fyu/m0+UMgsjG0Zrjo3yE1+20jesjAhMxQEi
mbj3FrK5L+HIr+6mGnoPqR5R9gjF10OlaRfz7RCQ6vwx74JXRxIDW3QZIFkOsPrN
5P1KBwIDAQABo4IBazCCAWcwCQYDVR0TBAIwADAtBglghkgBhvhCAQ0EIBYeRWFz
eS1SU0EgR2VuZXJhdGVkIENlcnRpZmljYXRlMB0GA1UdDgQWBBRu7459wQILW2UU
/l/2H/ew7AwzIjCB6QYDVR0jBIHhMIHegBTvOI0UUFinW02cF3L837msp1GwEKGB
uqSBtzCBtDELMAkGA1UEBhMCVVMxCzAJBgNVBAgTAkNBMRUwEwYDVQQHEwxTYW5G
cmFuY2lzY28xFTATBgNVBAoTDFBpeGdsbywgSW5jLjEQMA4GA1UECxMHVlBOLUNJ
RTEaMBgGA1UEAxMRdHVubmVsLnBpeGdsby5jb20xHDAaBgNVBCkTE0JhbGEgQ2hh
bmRyYXNla2FyYW4xHjAcBgkqhkiG9w0BCQEWD2JhbGFAcGl4Z2xvLmNvbYIJAKbb
xoOA5qB5MBMGA1UdJQQMMAoGCCsGAQUFBwMCMAsGA1UdDwQEAwIHgDANBgkqhkiG
9w0BAQUFAAOCAgEAA7cmvTobcZqjWgDtlVKE6i6/PxQLUGOOt3OKRHZmOyYs4dUx
5IVWgYIcCnsthEnBqB/kSQxltrX0oUoAQNQHKFs0jHwWV0jWOkvrhQI+RTF3h4t9
37eQR+v7ccV2Y3Mzf0cF2bSMXn4a8jznbQiV5fmxe40i8lIifzqIowGkjV2gDu2E
6n9lpE1YIe+Nz0YJ6ITputQ61w2k8jqvUjJZE7kXC2pRRcNdZ86Ms44EzvPrqotV
0aZ3wNufgIj8xjDTsN4yVxO1ur6D8CYGjL+tIq+mf1+NP+ML4EQsw7qXwzrY0/hD
q9nG7d0oIHey6Ab5lHKYMfSpxnVjTS5H3UHweBVQ2NaZvOcnkaiXem1TA6UaaYCH
b5L6rFaj1+Q67wr/3mFyx3s7Y2hvUB/cAY083iw6bGhA3xowruPJBt/mhBU85iIF
hns4oUQyjMBed0tUW6Sj3lcIlToNVunxekL48tDGY9wMs8yVBq6vf7cp0usQyUSj
bZi9w0/x9+peFpx0fKBtdNAtW1JJqaqj97l/EFasImbQ1ZyLwo9aJVtN9Jc1A1x+
6SV+wPVCrYTg0dVmrltVPtH2ExldY4Ls/VLE+012EkLglcPW8z4ofQI1yYtR+ohA
JOsfFs+DzKn9EIYOjpSNo+VSsgBRgS05Q6/KjN8BlHyoWRkRVJGeKSfyI4c=
-----END CERTIFICATE-----
