Certificate:
    Data:
        Version: 3 (0x2)
        Serial Number: 698 (0x2ba)
    Signature Algorithm: sha1WithRSAEncryption
        Issuer: C=US, ST=CA, L=SanFrancisco, O=Pixglo, Inc., OU=VPN-CIE, CN=tunnel.pixglo.com/name=Bala Chandrasekaran/emailAddress=bala@pixglo.com
        Validity
            Not Before: Feb 14 06:40:51 2018 GMT
            Not After : Feb 12 06:40:51 2028 GMT
        Subject: C=US, ST=CA, L=SanFrancisco, O=Pixglo, Inc., OU=VPN-CIE, CN=cie697/name=Bala Chandrasekaran/emailAddress=bala@pixglo.com
        Subject Public Key Info:
            Public Key Algorithm: rsaEncryption
                Public-Key: (4096 bit)
                Modulus:
                    00:c9:1d:ec:11:06:2c:83:82:36:58:20:d1:a6:7c:
                    2a:65:90:14:7a:5e:63:7b:02:d6:46:2a:04:fc:40:
                    4c:74:13:45:03:4f:e3:64:95:a4:8f:3a:c9:ca:96:
                    72:b8:09:67:0d:0a:5b:11:ad:c9:2e:96:6b:4d:6d:
                    74:48:af:f7:2e:a4:17:27:15:55:46:9b:01:e6:79:
                    a9:f3:1d:b7:67:21:b9:a4:9e:ba:30:e8:25:d3:a8:
                    10:53:9c:77:43:b5:73:25:22:cc:02:13:1c:be:31:
                    28:9a:89:4e:9c:34:88:ef:4a:55:34:06:59:17:4c:
                    b1:6b:55:4f:b7:f3:4b:7e:05:77:f5:89:60:73:d5:
                    02:3e:10:ff:6f:7f:64:f0:65:d1:54:bd:c6:2e:30:
                    3b:96:07:e7:42:b8:06:be:70:58:4c:16:99:65:9c:
                    6f:e7:7a:c4:dd:f7:52:91:66:e9:eb:e6:7a:67:76:
                    f2:4c:f7:71:cb:d8:dc:06:74:12:50:ac:3a:f0:34:
                    aa:b2:5c:65:e6:07:23:26:66:9c:32:16:2a:23:2b:
                    54:21:42:d0:31:e9:dd:7c:60:19:fc:a8:46:d6:22:
                    b2:56:49:60:02:34:77:0b:c5:0b:d0:ab:d6:bf:e9:
                    d2:ad:d5:d9:84:84:61:67:be:be:52:96:37:3d:6e:
                    26:b0:a2:21:f8:09:d4:50:7d:50:e2:40:9b:f8:78:
                    98:df:4c:18:09:68:0c:5a:d3:e8:82:a0:14:7a:2a:
                    92:da:01:fc:43:33:9d:53:5d:5c:2e:f5:9c:68:d8:
                    0a:26:92:a0:11:f2:9c:e3:6f:80:20:22:69:33:ba:
                    20:86:83:52:76:b3:86:6c:0f:76:66:3e:89:55:b4:
                    6f:98:e9:8d:c1:a7:42:af:29:eb:92:68:45:2f:ba:
                    b7:b9:bc:73:20:64:48:82:9f:23:db:d6:9e:3a:b2:
                    67:9e:10:52:b6:5c:18:72:de:e8:d5:87:41:73:4f:
                    0a:a1:56:32:fd:f1:f2:ab:4a:54:d7:43:df:d3:84:
                    64:35:e7:87:39:5d:8c:7e:82:6f:73:3e:fe:b8:e7:
                    be:51:27:8f:33:0c:0d:9a:fe:69:06:3e:2d:ff:71:
                    7e:a8:28:66:8b:21:02:e1:93:d1:98:3d:3f:da:38:
                    1e:36:99:65:bf:12:52:37:c0:3c:24:8d:ec:06:04:
                    63:61:32:ea:36:9c:45:80:8f:b3:91:25:21:1d:35:
                    39:98:48:07:a0:c8:f9:33:e1:2e:e5:bb:c2:d5:26:
                    4a:aa:53:61:c3:59:e1:f6:45:82:82:0d:e9:11:d0:
                    e1:0e:0e:4e:d9:4a:c9:c7:33:cc:03:97:d4:af:a9:
                    2b:1b:59
                Exponent: 65537 (0x10001)
        X509v3 extensions:
            X509v3 Basic Constraints: 
                CA:FALSE
            Netscape Comment: 
                Easy-RSA Generated Certificate
            X509v3 Subject Key Identifier: 
                BE:9E:E4:CA:FB:3D:1B:12:4D:A6:FA:C9:A7:2E:A2:69:4B:9A:5C:3D
            X509v3 Authority Key Identifier: 
                keyid:EF:38:8D:14:50:58:A7:5B:4D:9C:17:72:FC:DF:B9:AC:A7:51:B0:10
                DirName:/C=US/ST=CA/L=SanFrancisco/O=Pixglo, Inc./OU=VPN-CIE/CN=tunnel.pixglo.com/name=Bala Chandrasekaran/emailAddress=bala@pixglo.com
                serial:A6:DB:C6:83:80:E6:A0:79

            X509v3 Extended Key Usage: 
                TLS Web Client Authentication
            X509v3 Key Usage: 
                Digital Signature
    Signature Algorithm: sha1WithRSAEncryption
         25:29:08:43:12:66:ba:6a:70:a8:5b:0a:d4:df:81:6a:05:7b:
         d9:f4:a8:bd:d5:d7:84:20:dd:08:9c:07:01:36:cf:1c:5b:7c:
         69:f4:d4:28:b8:53:3d:66:7c:89:00:3c:58:d4:2c:2f:b7:7b:
         d7:eb:df:4a:4a:fc:37:82:2b:19:ae:11:47:35:14:1c:d5:cc:
         f7:fb:08:93:8e:ff:8a:d7:39:89:13:ff:cd:a4:2a:c3:29:77:
         8e:23:c6:ab:66:c2:33:5a:67:3c:49:4f:7b:71:00:3a:28:8c:
         09:cf:2c:e8:11:d5:dc:cb:22:15:f8:6f:66:ca:30:aa:c2:9f:
         72:b7:d3:86:a8:e6:87:99:63:57:86:86:36:c4:dd:4a:25:9d:
         cb:89:92:1a:82:29:9f:b5:d3:c8:ca:fc:50:14:22:b1:a4:4d:
         3a:6b:73:d8:1f:c9:5d:b8:50:e5:5c:fb:4e:95:96:9d:21:45:
         29:e9:f9:75:3e:a4:b0:6f:bf:e3:a9:e2:d1:69:1b:6c:6e:a5:
         df:36:3b:7f:ee:85:14:61:41:d6:f3:cb:fb:7c:82:b8:99:83:
         9d:5e:9b:e0:2e:df:65:f4:53:4e:8c:0d:fd:74:5d:c3:00:94:
         a9:06:cd:1a:2c:33:fe:03:b2:6c:65:84:fc:04:52:4d:98:b2:
         05:90:7e:23:cd:63:d4:fb:0f:d1:e1:c0:12:79:d8:ce:b9:8c:
         49:a2:66:40:02:af:d8:c8:d8:6b:f5:87:75:60:22:2a:c0:6f:
         b8:89:b7:f5:92:90:f2:ae:a3:df:9a:13:44:84:bd:93:b4:7d:
         fa:a1:3e:df:54:ef:3b:6b:e4:37:8b:ba:de:18:ca:93:0f:64:
         a3:35:7d:ab:5d:38:6e:46:1c:f6:6a:7f:0d:84:5b:07:09:e4:
         6e:fb:5c:db:ba:7f:ca:81:b1:f0:45:96:06:c2:f9:0c:3e:40:
         e9:37:67:aa:a5:b0:f8:46:8c:a4:84:7e:53:3b:21:0c:21:a8:
         6a:51:23:91:01:f5:02:d6:02:cc:72:21:3c:ae:c9:68:e5:46:
         ea:5c:02:63:b9:a3:83:4b:f0:0b:28:c1:8d:b2:66:1c:a8:7d:
         3c:da:a1:ac:1f:39:15:96:10:fb:29:42:01:fa:c5:9a:ad:5b:
         12:5e:f5:0e:35:4a:24:d4:a7:ed:c8:a2:ac:29:cf:ec:12:4c:
         88:72:89:73:54:85:5a:c0:a5:5c:9f:e6:19:d6:a4:e6:42:9a:
         a1:12:26:a5:2d:1e:24:e6:35:bf:ea:b7:9f:bc:f0:c6:b5:1f:
         c8:91:94:8a:d6:c5:f6:a4:03:32:2b:b0:6a:6d:a4:e0:5c:e9:
         9d:2e:12:86:c0:00:bf:72
-----BEGIN CERTIFICATE-----
MIIHSDCCBTCgAwIBAgICArowDQYJKoZIhvcNAQEFBQAwgbQxCzAJBgNVBAYTAlVT
MQswCQYDVQQIEwJDQTEVMBMGA1UEBxMMU2FuRnJhbmNpc2NvMRUwEwYDVQQKEwxQ
aXhnbG8sIEluYy4xEDAOBgNVBAsTB1ZQTi1DSUUxGjAYBgNVBAMTEXR1bm5lbC5w
aXhnbG8uY29tMRwwGgYDVQQpExNCYWxhIENoYW5kcmFzZWthcmFuMR4wHAYJKoZI
hvcNAQkBFg9iYWxhQHBpeGdsby5jb20wHhcNMTgwMjE0MDY0MDUxWhcNMjgwMjEy
MDY0MDUxWjCBqTELMAkGA1UEBhMCVVMxCzAJBgNVBAgTAkNBMRUwEwYDVQQHEwxT
YW5GcmFuY2lzY28xFTATBgNVBAoTDFBpeGdsbywgSW5jLjEQMA4GA1UECxMHVlBO
LUNJRTEPMA0GA1UEAxMGY2llNjk3MRwwGgYDVQQpExNCYWxhIENoYW5kcmFzZWth
cmFuMR4wHAYJKoZIhvcNAQkBFg9iYWxhQHBpeGdsby5jb20wggIiMA0GCSqGSIb3
DQEBAQUAA4ICDwAwggIKAoICAQDJHewRBiyDgjZYINGmfCplkBR6XmN7AtZGKgT8
QEx0E0UDT+NklaSPOsnKlnK4CWcNClsRrckulmtNbXRIr/cupBcnFVVGmwHmeanz
HbdnIbmknrow6CXTqBBTnHdDtXMlIswCExy+MSiaiU6cNIjvSlU0BlkXTLFrVU+3
80t+BXf1iWBz1QI+EP9vf2TwZdFUvcYuMDuWB+dCuAa+cFhMFpllnG/nesTd91KR
Zunr5npndvJM93HL2NwGdBJQrDrwNKqyXGXmByMmZpwyFiojK1QhQtAx6d18YBn8
qEbWIrJWSWACNHcLxQvQq9a/6dKt1dmEhGFnvr5Sljc9biawoiH4CdRQfVDiQJv4
eJjfTBgJaAxa0+iCoBR6KpLaAfxDM51TXVwu9Zxo2AomkqAR8pzjb4AgImkzuiCG
g1J2s4ZsD3ZmPolVtG+Y6Y3Bp0KvKeuSaEUvure5vHMgZEiCnyPb1p46smeeEFK2
XBhy3ujVh0FzTwqhVjL98fKrSlTXQ9/ThGQ154c5XYx+gm9zPv64575RJ48zDA2a
/mkGPi3/cX6oKGaLIQLhk9GYPT/aOB42mWW/ElI3wDwkjewGBGNhMuo2nEWAj7OR
JSEdNTmYSAegyPkz4S7lu8LVJkqqU2HDWeH2RYKCDekR0OEODk7ZSsnHM8wDl9Sv
qSsbWQIDAQABo4IBazCCAWcwCQYDVR0TBAIwADAtBglghkgBhvhCAQ0EIBYeRWFz
eS1SU0EgR2VuZXJhdGVkIENlcnRpZmljYXRlMB0GA1UdDgQWBBS+nuTK+z0bEk2m
+smnLqJpS5pcPTCB6QYDVR0jBIHhMIHegBTvOI0UUFinW02cF3L837msp1GwEKGB
uqSBtzCBtDELMAkGA1UEBhMCVVMxCzAJBgNVBAgTAkNBMRUwEwYDVQQHEwxTYW5G
cmFuY2lzY28xFTATBgNVBAoTDFBpeGdsbywgSW5jLjEQMA4GA1UECxMHVlBOLUNJ
RTEaMBgGA1UEAxMRdHVubmVsLnBpeGdsby5jb20xHDAaBgNVBCkTE0JhbGEgQ2hh
bmRyYXNla2FyYW4xHjAcBgkqhkiG9w0BCQEWD2JhbGFAcGl4Z2xvLmNvbYIJAKbb
xoOA5qB5MBMGA1UdJQQMMAoGCCsGAQUFBwMCMAsGA1UdDwQEAwIHgDANBgkqhkiG
9w0BAQUFAAOCAgEAJSkIQxJmumpwqFsK1N+BagV72fSovdXXhCDdCJwHATbPHFt8
afTUKLhTPWZ8iQA8WNQsL7d71+vfSkr8N4IrGa4RRzUUHNXM9/sIk47/itc5iRP/
zaQqwyl3jiPGq2bCM1pnPElPe3EAOiiMCc8s6BHV3MsiFfhvZsowqsKfcrfThqjm
h5ljV4aGNsTdSiWdy4mSGoIpn7XTyMr8UBQisaRNOmtz2B/JXbhQ5Vz7TpWWnSFF
Ken5dT6ksG+/46ni0WkbbG6l3zY7f+6FFGFB1vPL+3yCuJmDnV6b4C7fZfRTTowN
/XRdwwCUqQbNGiwz/gOybGWE/ARSTZiyBZB+I81j1PsP0eHAEnnYzrmMSaJmQAKv
2MjYa/WHdWAiKsBvuIm39ZKQ8q6j35oTRIS9k7R9+qE+31TvO2vkN4u63hjKkw9k
ozV9q104bkYc9mp/DYRbBwnkbvtc27p/yoGx8EWWBsL5DD5A6TdnqqWw+EaMpIR+
UzshDCGoalEjkQH1AtYCzHIhPK7JaOVG6lwCY7mjg0vwCyjBjbJmHKh9PNqhrB85
FZYQ+ylCAfrFmq1bEl71DjVKJNSn7ciirCnP7BJMiHKJc1SFWsClXJ/mGdak5kKa
oRImpS0eJOY1v+q3n7zwxrUfyJGUitbF9qQDMiuwam2k4FzpnS4ShsAAv3I=
-----END CERTIFICATE-----
