Certificate:
    Data:
        Version: 3 (0x2)
        Serial Number: 700 (0x2bc)
    Signature Algorithm: sha1WithRSAEncryption
        Issuer: C=US, ST=CA, L=SanFrancisco, O=Pixglo, Inc., OU=VPN-CIE, CN=tunnel.pixglo.com/name=Bala Chandrasekaran/emailAddress=bala@pixglo.com
        Validity
            Not Before: Feb 14 06:40:53 2018 GMT
            Not After : Feb 12 06:40:53 2028 GMT
        Subject: C=US, ST=CA, L=SanFrancisco, O=Pixglo, Inc., OU=VPN-CIE, CN=cie699/name=Bala Chandrasekaran/emailAddress=bala@pixglo.com
        Subject Public Key Info:
            Public Key Algorithm: rsaEncryption
                Public-Key: (4096 bit)
                Modulus:
                    00:a3:cd:86:8f:fe:c5:6f:25:86:01:4b:05:d8:56:
                    c0:66:95:46:26:f3:e3:73:68:9e:3a:8f:cb:5b:1f:
                    32:7e:7d:75:df:0a:ae:5f:b9:a7:e2:02:0a:5e:6c:
                    f0:e3:34:1b:37:3f:9b:c2:3d:e0:5b:9d:c6:91:90:
                    9f:f7:5f:36:b8:28:80:e8:49:2a:ec:99:61:e0:56:
                    b0:73:a7:e2:82:bd:de:96:af:95:f9:11:e0:a1:a4:
                    6c:ee:4d:69:7a:7e:d2:a3:61:55:c5:cf:03:d5:d9:
                    c6:00:5b:55:98:0d:da:b1:2f:32:1c:a6:85:1b:54:
                    21:76:e9:90:a7:69:bd:a8:07:c8:76:d5:a8:9f:76:
                    2b:63:64:51:a0:51:5b:53:86:59:da:a1:25:09:ac:
                    80:6c:b3:a8:de:9f:50:5b:b6:a3:5d:0a:8e:9e:0a:
                    a0:4b:f4:3c:75:a6:a2:3c:5e:ee:47:4a:93:d4:f4:
                    db:3a:66:96:f5:90:96:1a:91:e5:66:e9:98:0e:d0:
                    79:8b:4b:a2:4b:87:4c:1f:85:86:c8:ed:73:a0:00:
                    ac:52:e9:6a:71:48:8f:8c:ea:70:ab:4e:7a:3f:2e:
                    57:0e:1e:02:e0:4b:6d:24:c6:c4:c9:aa:9c:ff:bf:
                    ab:fa:b8:15:1a:e8:42:56:30:da:0d:fe:eb:b7:86:
                    b9:9c:7e:f6:35:58:4e:64:bc:3f:42:e8:56:b1:26:
                    3d:18:77:e8:29:2e:8b:78:e4:ac:77:f0:6b:f6:41:
                    34:4b:6a:90:5c:a4:f0:58:9c:a3:37:a9:74:bf:6b:
                    49:c6:9b:5e:4e:2b:ad:f7:ad:c1:13:92:d2:c7:6a:
                    18:81:4b:cd:18:16:31:03:4b:de:00:f6:13:3c:f6:
                    6f:05:5c:91:dc:af:a5:04:3e:94:a7:1a:ae:37:93:
                    cd:28:2a:38:d9:43:bd:44:40:49:b9:dd:a6:2a:8f:
                    23:72:35:b4:48:09:19:a9:c4:3a:ef:cd:8c:5a:ac:
                    06:74:68:9b:84:3b:7d:9e:b7:f7:07:c5:6a:63:d5:
                    6d:d2:13:01:b7:95:b7:9d:dc:d8:3b:6f:03:e9:0a:
                    4c:af:94:cb:a0:88:c7:0c:0b:2d:a1:fc:e5:cb:0a:
                    43:20:8e:61:5c:a3:5f:f8:57:db:9d:f7:09:d6:f5:
                    4a:2a:32:2d:09:35:96:eb:2e:9a:45:16:5a:75:4e:
                    d4:97:de:4e:2e:c9:2d:99:a3:f0:ed:2a:7c:80:0f:
                    82:ff:f1:78:02:44:07:bc:a4:6e:66:13:be:1e:c5:
                    72:2b:c4:1d:07:4a:06:66:32:ab:f2:7a:44:1c:8d:
                    70:85:44:b4:59:e5:da:18:55:5c:79:2e:5a:76:a7:
                    72:a5:29
                Exponent: 65537 (0x10001)
        X509v3 extensions:
            X509v3 Basic Constraints: 
                CA:FALSE
            Netscape Comment: 
                Easy-RSA Generated Certificate
            X509v3 Subject Key Identifier: 
                22:87:06:05:65:09:4E:43:AA:06:AE:D9:B6:D3:B4:6C:FF:06:25:B5
            X509v3 Authority Key Identifier: 
                keyid:EF:38:8D:14:50:58:A7:5B:4D:9C:17:72:FC:DF:B9:AC:A7:51:B0:10
                DirName:/C=US/ST=CA/L=SanFrancisco/O=Pixglo, Inc./OU=VPN-CIE/CN=tunnel.pixglo.com/name=Bala Chandrasekaran/emailAddress=bala@pixglo.com
                serial:A6:DB:C6:83:80:E6:A0:79

            X509v3 Extended Key Usage: 
                TLS Web Client Authentication
            X509v3 Key Usage: 
                Digital Signature
    Signature Algorithm: sha1WithRSAEncryption
         9b:cd:82:ce:9e:48:d2:c7:3d:6c:dd:46:07:70:f5:f0:3a:a2:
         86:ed:0f:ce:20:94:3d:94:b1:93:11:34:8d:ae:73:6c:ae:ac:
         3a:3e:9c:92:84:79:38:f9:00:ea:d3:6a:b7:66:92:69:c6:6c:
         9d:88:8c:14:2e:f3:35:c5:da:91:51:5e:02:72:59:c8:bf:4d:
         0a:de:d5:27:ab:85:3d:44:3d:c2:c9:aa:78:4d:d9:c5:f7:5a:
         75:31:08:21:ae:f6:8b:6d:70:d4:0a:44:06:7f:4f:15:cd:2e:
         d1:05:d9:53:95:30:da:19:49:c6:25:46:69:46:d8:9f:cf:76:
         83:60:6c:05:d0:ce:60:c9:2b:ef:1f:1a:f8:cd:ad:d0:68:d0:
         22:ab:f9:32:77:f2:22:d0:fc:50:e5:4e:5c:b8:97:2f:92:47:
         1d:6c:72:c2:be:8a:81:be:7d:ab:e2:2c:bc:6c:b8:33:87:01:
         9f:f2:76:db:04:b9:b2:e2:d2:2d:e3:15:09:d4:56:68:ff:ab:
         15:5e:90:37:d8:1c:7f:3c:5b:b1:f9:c8:2e:b4:b1:0c:f4:9e:
         c8:a5:d1:c8:3b:2c:66:b6:77:cb:8d:9b:11:26:2a:e8:18:63:
         c5:d5:be:97:e6:54:a2:30:9d:bf:64:88:83:9e:b6:a7:27:a0:
         e8:b4:df:12:a0:2c:9d:76:fe:43:0c:d9:41:86:9d:2d:97:33:
         34:26:2c:01:06:4c:af:86:88:bd:6b:10:34:80:c3:8f:d4:3d:
         cd:95:fe:c0:ad:9e:17:32:0f:89:e3:5e:7b:be:2b:cf:ba:1e:
         21:67:3a:94:52:95:8d:20:f4:38:b2:45:3d:f8:b1:d6:cf:48:
         98:c2:20:6b:76:05:1e:74:2c:53:5a:f7:8a:e4:4c:f5:2f:42:
         4c:69:85:9c:46:a2:e7:27:82:dd:9d:4e:d4:92:d4:22:ff:3f:
         d5:d3:2e:fa:68:b6:dc:78:83:7b:c3:e9:5d:15:06:30:12:1e:
         0c:94:4f:a7:8d:34:da:67:8b:59:61:cb:ad:89:98:6b:23:38:
         dc:d3:7f:6b:7a:20:55:2e:25:dc:1d:75:2c:57:07:13:92:ff:
         ee:2f:dc:3f:db:79:2e:22:64:6a:77:64:cc:36:17:a2:8d:c9:
         ac:41:7d:13:5e:ce:f8:01:93:35:cf:f9:b2:f7:2b:60:20:d0:
         81:40:ee:09:8d:ed:b0:11:87:51:3c:f2:ad:0a:91:0c:78:79:
         00:a7:e5:55:8f:a2:4d:d3:94:ab:45:4c:db:dd:a4:b1:8c:d8:
         30:e8:ab:0f:92:05:5d:73:68:dc:da:c7:77:32:30:78:21:67:
         d7:a9:10:94:1f:ee:79:b5
-----BEGIN CERTIFICATE-----
MIIHSDCCBTCgAwIBAgICArwwDQYJKoZIhvcNAQEFBQAwgbQxCzAJBgNVBAYTAlVT
MQswCQYDVQQIEwJDQTEVMBMGA1UEBxMMU2FuRnJhbmNpc2NvMRUwEwYDVQQKEwxQ
aXhnbG8sIEluYy4xEDAOBgNVBAsTB1ZQTi1DSUUxGjAYBgNVBAMTEXR1bm5lbC5w
aXhnbG8uY29tMRwwGgYDVQQpExNCYWxhIENoYW5kcmFzZWthcmFuMR4wHAYJKoZI
hvcNAQkBFg9iYWxhQHBpeGdsby5jb20wHhcNMTgwMjE0MDY0MDUzWhcNMjgwMjEy
MDY0MDUzWjCBqTELMAkGA1UEBhMCVVMxCzAJBgNVBAgTAkNBMRUwEwYDVQQHEwxT
YW5GcmFuY2lzY28xFTATBgNVBAoTDFBpeGdsbywgSW5jLjEQMA4GA1UECxMHVlBO
LUNJRTEPMA0GA1UEAxMGY2llNjk5MRwwGgYDVQQpExNCYWxhIENoYW5kcmFzZWth
cmFuMR4wHAYJKoZIhvcNAQkBFg9iYWxhQHBpeGdsby5jb20wggIiMA0GCSqGSIb3
DQEBAQUAA4ICDwAwggIKAoICAQCjzYaP/sVvJYYBSwXYVsBmlUYm8+NzaJ46j8tb
HzJ+fXXfCq5fuafiAgpebPDjNBs3P5vCPeBbncaRkJ/3Xza4KIDoSSrsmWHgVrBz
p+KCvd6Wr5X5EeChpGzuTWl6ftKjYVXFzwPV2cYAW1WYDdqxLzIcpoUbVCF26ZCn
ab2oB8h21aifditjZFGgUVtThlnaoSUJrIBss6jen1BbtqNdCo6eCqBL9Dx1pqI8
Xu5HSpPU9Ns6Zpb1kJYakeVm6ZgO0HmLS6JLh0wfhYbI7XOgAKxS6WpxSI+M6nCr
Tno/LlcOHgLgS20kxsTJqpz/v6v6uBUa6EJWMNoN/uu3hrmcfvY1WE5kvD9C6Fax
Jj0Yd+gpLot45Kx38Gv2QTRLapBcpPBYnKM3qXS/a0nGm15OK633rcETktLHahiB
S80YFjEDS94A9hM89m8FXJHcr6UEPpSnGq43k80oKjjZQ71EQEm53aYqjyNyNbRI
CRmpxDrvzYxarAZ0aJuEO32et/cHxWpj1W3SEwG3lbed3Ng7bwPpCkyvlMugiMcM
Cy2h/OXLCkMgjmFco1/4V9ud9wnW9UoqMi0JNZbrLppFFlp1TtSX3k4uyS2Zo/Dt
KnyAD4L/8XgCRAe8pG5mE74exXIrxB0HSgZmMqvyekQcjXCFRLRZ5doYVVx5Llp2
p3KlKQIDAQABo4IBazCCAWcwCQYDVR0TBAIwADAtBglghkgBhvhCAQ0EIBYeRWFz
eS1SU0EgR2VuZXJhdGVkIENlcnRpZmljYXRlMB0GA1UdDgQWBBQihwYFZQlOQ6oG
rtm207Rs/wYltTCB6QYDVR0jBIHhMIHegBTvOI0UUFinW02cF3L837msp1GwEKGB
uqSBtzCBtDELMAkGA1UEBhMCVVMxCzAJBgNVBAgTAkNBMRUwEwYDVQQHEwxTYW5G
cmFuY2lzY28xFTATBgNVBAoTDFBpeGdsbywgSW5jLjEQMA4GA1UECxMHVlBOLUNJ
RTEaMBgGA1UEAxMRdHVubmVsLnBpeGdsby5jb20xHDAaBgNVBCkTE0JhbGEgQ2hh
bmRyYXNla2FyYW4xHjAcBgkqhkiG9w0BCQEWD2JhbGFAcGl4Z2xvLmNvbYIJAKbb
xoOA5qB5MBMGA1UdJQQMMAoGCCsGAQUFBwMCMAsGA1UdDwQEAwIHgDANBgkqhkiG
9w0BAQUFAAOCAgEAm82Czp5I0sc9bN1GB3D18Dqihu0PziCUPZSxkxE0ja5zbK6s
Oj6ckoR5OPkA6tNqt2aSacZsnYiMFC7zNcXakVFeAnJZyL9NCt7VJ6uFPUQ9wsmq
eE3ZxfdadTEIIa72i21w1ApEBn9PFc0u0QXZU5Uw2hlJxiVGaUbYn892g2BsBdDO
YMkr7x8a+M2t0GjQIqv5MnfyItD8UOVOXLiXL5JHHWxywr6Kgb59q+IsvGy4M4cB
n/J22wS5suLSLeMVCdRWaP+rFV6QN9gcfzxbsfnILrSxDPSeyKXRyDssZrZ3y42b
ESYq6BhjxdW+l+ZUojCdv2SIg562pyeg6LTfEqAsnXb+QwzZQYadLZczNCYsAQZM
r4aIvWsQNIDDj9Q9zZX+wK2eFzIPieNee74rz7oeIWc6lFKVjSD0OLJFPfix1s9I
mMIga3YFHnQsU1r3iuRM9S9CTGmFnEai5yeC3Z1O1JLUIv8/1dMu+mi23HiDe8Pp
XRUGMBIeDJRPp4002meLWWHLrYmYayM43NN/a3ogVS4l3B11LFcHE5L/7i/cP9t5
LiJkandkzDYXoo3JrEF9E17O+AGTNc/5svcrYCDQgUDuCY3tsBGHUTzyrQqRDHh5
AKflVY+iTdOUq0VM292ksYzYMOirD5IFXXNo3NrHdzIweCFn16kQlB/uebU=
-----END CERTIFICATE-----
