Certificate:
    Data:
        Version: 3 (0x2)
        Serial Number: 702 (0x2be)
    Signature Algorithm: sha1WithRSAEncryption
        Issuer: C=US, ST=CA, L=SanFrancisco, O=Pixglo, Inc., OU=VPN-CIE, CN=tunnel.pixglo.com/name=Bala Chandrasekaran/emailAddress=bala@pixglo.com
        Validity
            Not Before: Feb 14 06:41:01 2018 GMT
            Not After : Feb 12 06:41:01 2028 GMT
        Subject: C=US, ST=CA, L=SanFrancisco, O=Pixglo, Inc., OU=VPN-CIE, CN=cie701/name=Bala Chandrasekaran/emailAddress=bala@pixglo.com
        Subject Public Key Info:
            Public Key Algorithm: rsaEncryption
                Public-Key: (4096 bit)
                Modulus:
                    00:dd:bc:a5:ce:35:2b:f2:87:f2:21:e7:ee:d9:de:
                    7e:8c:27:09:85:e1:62:5a:62:b2:db:f9:fb:80:76:
                    eb:e5:91:43:d9:6b:fb:a9:3f:b6:94:17:3e:97:d3:
                    8f:b6:be:45:70:2e:7d:df:f1:f5:91:ba:26:2d:26:
                    20:77:d8:ca:28:ae:bb:a2:e9:cc:ff:fc:05:71:b9:
                    ab:df:42:89:79:7f:6d:4c:63:21:80:42:42:b0:aa:
                    f9:33:7a:90:fa:40:bc:b0:3e:ec:6b:3c:06:61:76:
                    ec:3f:f0:b6:a1:19:c0:a7:0e:53:4d:fc:5e:f7:5d:
                    1e:11:b0:12:39:cd:9a:4c:13:f3:9c:83:c7:71:80:
                    e3:93:96:42:cc:53:1d:2b:9a:82:83:15:8a:a6:74:
                    1f:2a:e9:64:7d:95:8b:ee:7c:30:b6:ff:ef:09:dd:
                    1c:5d:a3:40:13:ca:25:1c:64:0c:9a:95:3f:bd:0e:
                    63:68:a3:d6:16:b5:9d:ff:a0:be:34:53:88:20:aa:
                    22:f8:c5:d6:c3:a6:6b:6f:8f:b7:f2:84:28:ec:85:
                    f8:69:e9:39:2c:cd:8f:4a:18:bb:cc:9b:7e:ae:db:
                    cc:ff:ac:16:02:e6:9e:9b:53:d9:3f:b8:8f:61:d9:
                    36:eb:5e:4b:44:f5:06:aa:b1:d0:77:fa:65:a5:c4:
                    1f:c2:38:b6:53:f1:42:a0:a7:23:a5:ec:18:8d:5f:
                    a9:17:b9:bd:28:08:b1:0d:ac:88:d1:0c:93:92:6a:
                    f4:40:93:95:f7:df:fe:53:79:79:15:71:00:9e:59:
                    eb:60:3e:47:79:12:f6:5e:df:0a:d0:04:e5:85:cc:
                    ac:ac:76:bf:aa:75:3f:42:59:b3:38:88:3f:ad:be:
                    ec:ae:7d:82:7a:34:41:50:d1:89:87:1c:61:bc:1c:
                    dd:60:7c:0c:b5:f8:3d:10:ba:f7:3f:fb:d2:67:6b:
                    d6:14:1b:bc:f7:2b:3f:00:8b:76:6a:7b:d8:93:b9:
                    eb:54:50:e0:31:51:68:de:a2:30:3a:56:ed:c0:a7:
                    ee:69:18:9f:dc:5c:96:a3:01:0f:9f:31:be:e9:40:
                    09:4a:52:78:c8:64:0c:9f:23:3a:97:16:79:b4:37:
                    54:f3:93:ac:89:5e:bb:d5:b3:cc:41:81:8c:80:72:
                    63:f9:13:c2:31:7a:4e:6b:62:d2:df:8e:10:ef:57:
                    dd:bf:60:a3:9d:9b:7b:8a:ed:0f:d4:81:c8:4b:3b:
                    59:62:e2:5d:07:06:58:e2:c8:f4:d0:8c:d1:15:ef:
                    60:47:04:5e:16:75:61:7b:d7:8e:03:94:7e:d1:0b:
                    98:cc:30:36:9a:f0:83:57:5c:92:d2:6b:e4:c5:1d:
                    52:23:c7
                Exponent: 65537 (0x10001)
        X509v3 extensions:
            X509v3 Basic Constraints: 
                CA:FALSE
            Netscape Comment: 
                Easy-RSA Generated Certificate
            X509v3 Subject Key Identifier: 
                C8:D7:40:63:F3:AD:1E:BB:8E:3A:76:9B:22:7D:20:D1:D0:A0:0F:BC
            X509v3 Authority Key Identifier: 
                keyid:EF:38:8D:14:50:58:A7:5B:4D:9C:17:72:FC:DF:B9:AC:A7:51:B0:10
                DirName:/C=US/ST=CA/L=SanFrancisco/O=Pixglo, Inc./OU=VPN-CIE/CN=tunnel.pixglo.com/name=Bala Chandrasekaran/emailAddress=bala@pixglo.com
                serial:A6:DB:C6:83:80:E6:A0:79

            X509v3 Extended Key Usage: 
                TLS Web Client Authentication
            X509v3 Key Usage: 
                Digital Signature
    Signature Algorithm: sha1WithRSAEncryption
         82:67:6f:a6:a6:1a:93:05:44:6e:b4:a8:c3:69:d2:6b:5a:20:
         6d:43:ee:ff:e0:6c:7f:d3:34:e6:7f:0d:df:3a:be:fd:56:bf:
         83:06:3a:ce:2f:68:46:cc:17:d0:f9:12:81:fe:5c:3b:35:92:
         0d:a2:04:30:1b:0e:86:68:a7:21:b2:56:ce:92:77:72:92:ac:
         78:5a:aa:25:81:3f:de:bb:c3:b5:45:52:9c:63:82:6c:37:ac:
         7c:4b:8a:bb:d3:cb:62:86:28:e5:e8:5c:8e:4d:bb:a5:ac:d0:
         88:92:0d:43:8e:1f:cc:b0:d3:70:b7:06:58:ce:16:d5:07:e4:
         ec:c5:15:dd:a3:85:be:5b:18:41:2f:eb:35:a1:4d:5f:2f:fe:
         db:2e:92:c2:35:48:3f:a9:b9:7c:44:90:20:73:e3:f1:79:a2:
         0e:61:32:aa:5b:d3:73:aa:92:49:88:59:aa:79:80:3e:0a:17:
         c4:01:1e:52:1a:05:ab:03:37:ab:d7:74:b2:10:ef:08:5c:6b:
         71:be:8c:90:e2:44:67:03:67:80:ac:61:67:8e:02:44:a5:82:
         2b:12:2b:12:1c:6e:9d:2d:4d:a6:bd:85:81:15:ef:14:6a:54:
         d6:cf:83:01:c1:6e:99:a7:8e:0d:a6:0e:cf:82:6c:17:b8:37:
         55:63:20:7d:51:bd:c0:a8:16:13:12:0b:3c:85:34:06:6d:39:
         bd:a5:03:1f:96:b8:22:51:78:a2:d6:4b:7e:3d:3f:fa:db:2d:
         1d:d8:61:24:42:98:eb:a2:34:97:f4:f0:5d:64:e2:9a:f1:4c:
         83:35:10:d1:31:ae:ee:2a:b3:cd:bd:21:93:38:8d:6b:da:04:
         cd:6d:ac:e9:2c:1c:6a:bd:d3:6f:29:ff:96:fe:68:0b:16:0a:
         29:9d:00:0e:63:b3:a6:5e:ee:16:72:9b:ae:6e:ee:1b:50:9b:
         12:4c:94:36:1c:9a:03:07:e5:e2:95:03:6f:ab:43:ca:17:d6:
         9c:c5:18:35:f6:fe:92:85:2e:69:e7:c3:98:a2:e5:3d:b2:08:
         47:dd:0f:cb:0e:a6:8d:db:67:91:8b:35:f1:0f:da:d8:e8:64:
         87:d1:b8:03:17:ec:f5:82:c5:3c:e0:90:97:49:af:da:c2:b0:
         8e:17:56:7e:d5:d6:07:9f:75:2e:15:67:8c:3a:d8:a0:7b:e8:
         4f:f3:63:1f:01:ce:b8:1d:41:3f:5d:de:29:b8:bf:28:a0:41:
         56:22:57:6c:18:43:ba:83:16:f3:64:f2:5d:85:3e:a1:55:3f:
         65:0a:f4:3d:4a:77:39:aa:f0:b5:b1:a2:0d:5a:95:e8:a9:3d:
         7a:c3:f4:79:16:57:18:fd
-----BEGIN CERTIFICATE-----
MIIHSDCCBTCgAwIBAgICAr4wDQYJKoZIhvcNAQEFBQAwgbQxCzAJBgNVBAYTAlVT
MQswCQYDVQQIEwJDQTEVMBMGA1UEBxMMU2FuRnJhbmNpc2NvMRUwEwYDVQQKEwxQ
aXhnbG8sIEluYy4xEDAOBgNVBAsTB1ZQTi1DSUUxGjAYBgNVBAMTEXR1bm5lbC5w
aXhnbG8uY29tMRwwGgYDVQQpExNCYWxhIENoYW5kcmFzZWthcmFuMR4wHAYJKoZI
hvcNAQkBFg9iYWxhQHBpeGdsby5jb20wHhcNMTgwMjE0MDY0MTAxWhcNMjgwMjEy
MDY0MTAxWjCBqTELMAkGA1UEBhMCVVMxCzAJBgNVBAgTAkNBMRUwEwYDVQQHEwxT
YW5GcmFuY2lzY28xFTATBgNVBAoTDFBpeGdsbywgSW5jLjEQMA4GA1UECxMHVlBO
LUNJRTEPMA0GA1UEAxMGY2llNzAxMRwwGgYDVQQpExNCYWxhIENoYW5kcmFzZWth
cmFuMR4wHAYJKoZIhvcNAQkBFg9iYWxhQHBpeGdsby5jb20wggIiMA0GCSqGSIb3
DQEBAQUAA4ICDwAwggIKAoICAQDdvKXONSvyh/Ih5+7Z3n6MJwmF4WJaYrLb+fuA
duvlkUPZa/upP7aUFz6X04+2vkVwLn3f8fWRuiYtJiB32Moorrui6cz//AVxuavf
Qol5f21MYyGAQkKwqvkzepD6QLywPuxrPAZhduw/8LahGcCnDlNN/F73XR4RsBI5
zZpME/Ocg8dxgOOTlkLMUx0rmoKDFYqmdB8q6WR9lYvufDC2/+8J3Rxdo0ATyiUc
ZAyalT+9DmNoo9YWtZ3/oL40U4ggqiL4xdbDpmtvj7fyhCjshfhp6TkszY9KGLvM
m36u28z/rBYC5p6bU9k/uI9h2TbrXktE9QaqsdB3+mWlxB/COLZT8UKgpyOl7BiN
X6kXub0oCLENrIjRDJOSavRAk5X33/5TeXkVcQCeWetgPkd5EvZe3wrQBOWFzKys
dr+qdT9CWbM4iD+tvuyufYJ6NEFQ0YmHHGG8HN1gfAy1+D0Quvc/+9Jna9YUG7z3
Kz8Ai3Zqe9iTuetUUOAxUWjeojA6Vu3Ap+5pGJ/cXJajAQ+fMb7pQAlKUnjIZAyf
IzqXFnm0N1Tzk6yJXrvVs8xBgYyAcmP5E8Ixek5rYtLfjhDvV92/YKOdm3uK7Q/U
gchLO1li4l0HBljiyPTQjNEV72BHBF4WdWF7144DlH7RC5jMMDaa8INXXJLSa+TF
HVIjxwIDAQABo4IBazCCAWcwCQYDVR0TBAIwADAtBglghkgBhvhCAQ0EIBYeRWFz
eS1SU0EgR2VuZXJhdGVkIENlcnRpZmljYXRlMB0GA1UdDgQWBBTI10Bj860eu446
dpsifSDR0KAPvDCB6QYDVR0jBIHhMIHegBTvOI0UUFinW02cF3L837msp1GwEKGB
uqSBtzCBtDELMAkGA1UEBhMCVVMxCzAJBgNVBAgTAkNBMRUwEwYDVQQHEwxTYW5G
cmFuY2lzY28xFTATBgNVBAoTDFBpeGdsbywgSW5jLjEQMA4GA1UECxMHVlBOLUNJ
RTEaMBgGA1UEAxMRdHVubmVsLnBpeGdsby5jb20xHDAaBgNVBCkTE0JhbGEgQ2hh
bmRyYXNla2FyYW4xHjAcBgkqhkiG9w0BCQEWD2JhbGFAcGl4Z2xvLmNvbYIJAKbb
xoOA5qB5MBMGA1UdJQQMMAoGCCsGAQUFBwMCMAsGA1UdDwQEAwIHgDANBgkqhkiG
9w0BAQUFAAOCAgEAgmdvpqYakwVEbrSow2nSa1ogbUPu/+Bsf9M05n8N3zq+/Va/
gwY6zi9oRswX0PkSgf5cOzWSDaIEMBsOhminIbJWzpJ3cpKseFqqJYE/3rvDtUVS
nGOCbDesfEuKu9PLYoYo5ehcjk27pazQiJINQ44fzLDTcLcGWM4W1Qfk7MUV3aOF
vlsYQS/rNaFNXy/+2y6SwjVIP6m5fESQIHPj8XmiDmEyqlvTc6qSSYhZqnmAPgoX
xAEeUhoFqwM3q9d0shDvCFxrcb6MkOJEZwNngKxhZ44CRKWCKxIrEhxunS1Npr2F
gRXvFGpU1s+DAcFumaeODaYOz4JsF7g3VWMgfVG9wKgWExILPIU0Bm05vaUDH5a4
IlF4otZLfj0/+tstHdhhJEKY66I0l/TwXWTimvFMgzUQ0TGu7iqzzb0hkziNa9oE
zW2s6Swcar3Tbyn/lv5oCxYKKZ0ADmOzpl7uFnKbrm7uG1CbEkyUNhyaAwfl4pUD
b6tDyhfWnMUYNfb+koUuaefDmKLlPbIIR90Pyw6mjdtnkYs18Q/a2Ohkh9G4Axfs
9YLFPOCQl0mv2sKwjhdWftXWB591LhVnjDrYoHvoT/NjHwHOuB1BP13eKbi/KKBB
ViJXbBhDuoMW82TyXYU+oVU/ZQr0PUp3OarwtbGiDVqV6Kk9esP0eRZXGP0=
-----END CERTIFICATE-----
