Certificate:
    Data:
        Version: 3 (0x2)
        Serial Number: 704 (0x2c0)
    Signature Algorithm: sha1WithRSAEncryption
        Issuer: C=US, ST=CA, L=SanFrancisco, O=Pixglo, Inc., OU=VPN-CIE, CN=tunnel.pixglo.com/name=Bala Chandrasekaran/emailAddress=bala@pixglo.com
        Validity
            Not Before: Feb 14 06:41:02 2018 GMT
            Not After : Feb 12 06:41:02 2028 GMT
        Subject: C=US, ST=CA, L=SanFrancisco, O=Pixglo, Inc., OU=VPN-CIE, CN=cie703/name=Bala Chandrasekaran/emailAddress=bala@pixglo.com
        Subject Public Key Info:
            Public Key Algorithm: rsaEncryption
                Public-Key: (4096 bit)
                Modulus:
                    00:e0:b6:b1:38:af:1d:10:c9:d3:e8:36:f8:df:22:
                    44:58:df:46:89:9b:a8:a1:c1:69:33:4b:2a:fb:5a:
                    82:86:ae:5c:2d:b7:ba:0c:67:99:39:ab:16:bf:38:
                    6d:29:d8:90:50:5b:ba:5a:04:20:d6:8f:71:41:ca:
                    63:34:b7:b5:27:83:b7:b9:96:ee:35:5b:9a:47:54:
                    ed:5a:78:37:46:e5:a4:b6:c0:14:88:67:36:ba:92:
                    ef:bf:41:53:bb:84:1f:df:9e:67:f1:ae:8a:11:21:
                    84:ba:14:d4:0a:52:33:de:79:9e:98:99:93:dc:8c:
                    d6:b9:26:05:77:74:18:0d:26:76:4c:11:35:a6:97:
                    e8:a9:56:af:98:19:d1:20:7f:95:de:37:6e:f3:17:
                    1c:47:94:6d:fd:2b:3b:40:a5:80:bf:68:79:70:23:
                    79:13:56:42:d0:95:9c:fe:1d:11:61:bc:cf:22:4a:
                    3f:49:25:08:1c:e9:fe:5f:f9:8f:fb:35:e0:e8:fc:
                    1f:57:30:fc:9b:c9:8f:67:4e:0f:18:ca:10:c0:3d:
                    ef:3d:96:9a:34:fc:45:22:92:a1:87:f3:fa:a2:eb:
                    af:76:d1:07:f1:09:48:7a:63:3e:48:3a:7c:8c:6f:
                    6f:0a:7d:1b:6a:27:78:2b:94:b2:c2:57:73:6f:77:
                    30:b0:76:91:1b:b8:3d:8b:d7:01:3d:e8:c5:5d:0f:
                    b2:c6:f5:9e:9d:d9:04:4c:a1:e5:f2:a4:72:a9:1a:
                    f5:b8:17:76:e0:15:7b:d8:1d:7f:be:0f:ec:63:3e:
                    d6:54:24:4f:c1:a4:ce:fe:1c:86:71:d8:32:0e:86:
                    d3:9b:f1:e1:d7:74:fa:7a:20:f0:a6:9b:5a:11:da:
                    d1:07:9f:da:70:d2:27:f2:e1:31:ac:67:e8:f7:82:
                    c2:6f:12:dd:92:3f:22:f3:fd:4f:2c:8b:7b:f0:b7:
                    09:fe:c5:1e:83:9a:98:70:3d:d4:33:60:e4:4b:4c:
                    92:9d:b4:3c:7e:b8:71:c0:09:b5:3f:1f:d7:2d:53:
                    8e:13:47:d5:d2:1f:c5:54:48:e6:86:24:78:17:a1:
                    f5:8d:34:ad:b2:40:30:c9:41:2b:fe:09:b7:71:2b:
                    fc:01:3c:49:c2:a3:37:b6:af:aa:3b:7a:6c:72:29:
                    7f:08:96:53:db:da:f8:91:a8:0e:eb:94:53:87:56:
                    68:7f:6f:8a:22:91:e8:7d:bd:05:f4:90:38:55:b1:
                    fd:25:9a:f0:f6:56:2d:64:c4:05:eb:0a:a7:cd:2c:
                    aa:f0:44:36:4c:9d:28:0f:f7:4d:f6:60:c0:9f:45:
                    95:da:82:69:0e:39:39:c2:cf:00:23:03:cb:e3:f4:
                    ed:d7:11
                Exponent: 65537 (0x10001)
        X509v3 extensions:
            X509v3 Basic Constraints: 
                CA:FALSE
            Netscape Comment: 
                Easy-RSA Generated Certificate
            X509v3 Subject Key Identifier: 
                BD:34:22:2F:98:44:14:EC:BE:3D:4A:AA:4D:09:41:42:82:2D:08:84
            X509v3 Authority Key Identifier: 
                keyid:EF:38:8D:14:50:58:A7:5B:4D:9C:17:72:FC:DF:B9:AC:A7:51:B0:10
                DirName:/C=US/ST=CA/L=SanFrancisco/O=Pixglo, Inc./OU=VPN-CIE/CN=tunnel.pixglo.com/name=Bala Chandrasekaran/emailAddress=bala@pixglo.com
                serial:A6:DB:C6:83:80:E6:A0:79

            X509v3 Extended Key Usage: 
                TLS Web Client Authentication
            X509v3 Key Usage: 
                Digital Signature
    Signature Algorithm: sha1WithRSAEncryption
         96:1f:b0:da:08:2b:d4:39:ad:0d:c4:e5:f3:06:77:7d:3a:41:
         9b:76:9c:8d:b6:11:01:e9:dd:a5:21:66:d5:c7:2e:36:90:af:
         2c:26:b1:de:82:64:37:5f:5a:e0:36:bf:43:e5:b8:34:c4:a9:
         79:dd:dc:2e:c4:73:c3:28:dc:55:91:c6:d8:bf:a9:56:0f:a2:
         06:d9:0e:6c:d5:d1:6f:47:e8:7c:7f:49:07:ca:b4:03:cb:f7:
         5a:6b:8e:3b:8a:fb:e8:f5:5a:1b:d6:fe:71:2d:25:65:83:64:
         39:96:5a:4a:72:14:f1:86:51:48:05:9a:25:d1:0b:7f:29:80:
         65:44:78:1b:4d:08:47:ad:d2:1d:51:e9:10:10:a6:3d:99:a7:
         4b:5e:92:e7:a8:c4:fb:6e:46:5b:c4:91:39:b0:af:08:e3:28:
         7d:d4:78:40:79:36:6c:32:7c:1f:3c:e0:79:b9:4a:e7:13:f6:
         41:da:dd:25:bb:c7:1a:36:48:45:1b:ed:4b:88:b0:df:31:cf:
         33:b7:b1:24:c6:fb:df:81:5f:dd:b3:9a:18:20:12:f8:ac:ec:
         a6:1e:12:73:a1:f9:f1:17:d7:fd:fa:66:87:57:9b:89:81:4c:
         a2:1e:39:22:01:ee:ae:c0:14:0d:79:76:38:32:29:2e:06:41:
         e1:f8:cb:c7:99:49:d9:f5:65:13:7a:f8:1b:50:18:e1:8d:d4:
         af:a4:07:51:50:6e:f9:78:a3:60:7e:c8:eb:b7:28:3e:e8:c8:
         61:da:10:7f:b3:d1:b8:82:e8:87:0a:b0:0d:f7:a4:0a:55:0f:
         30:27:a7:5b:9a:24:85:c2:be:3c:83:0e:bb:92:77:05:fa:f1:
         58:e9:3d:a2:00:2a:00:c2:f7:73:1f:c9:1b:6c:db:e0:a3:dc:
         3e:70:14:9e:26:0f:40:11:f8:4b:b9:a5:1b:10:2f:bd:fc:0b:
         57:ce:9f:79:cc:b3:25:0d:30:87:1a:44:d2:0f:79:a7:3f:c0:
         14:4e:69:c8:de:58:35:2e:68:9c:c3:ca:17:ed:a9:81:20:eb:
         0a:09:30:cd:77:75:f8:5c:f4:54:ec:0a:a2:68:0b:61:9e:93:
         b5:d8:12:c7:8a:01:79:a5:1b:13:31:bd:8f:56:0f:f4:99:f5:
         64:89:ee:02:6f:b9:65:d2:4b:6a:b4:65:19:09:cd:99:4a:5f:
         3a:bd:13:b8:85:06:e2:25:4e:22:f0:14:8a:45:3d:1d:78:26:
         b4:48:e9:1e:d1:56:ec:41:49:df:d3:49:1e:f6:ed:ba:da:d0:
         e0:41:a3:09:da:63:bb:ae:88:fa:f6:df:33:8c:d3:67:5a:a3:
         e9:1f:90:74:43:1b:08:b8
-----BEGIN CERTIFICATE-----
MIIHSDCCBTCgAwIBAgICAsAwDQYJKoZIhvcNAQEFBQAwgbQxCzAJBgNVBAYTAlVT
MQswCQYDVQQIEwJDQTEVMBMGA1UEBxMMU2FuRnJhbmNpc2NvMRUwEwYDVQQKEwxQ
aXhnbG8sIEluYy4xEDAOBgNVBAsTB1ZQTi1DSUUxGjAYBgNVBAMTEXR1bm5lbC5w
aXhnbG8uY29tMRwwGgYDVQQpExNCYWxhIENoYW5kcmFzZWthcmFuMR4wHAYJKoZI
hvcNAQkBFg9iYWxhQHBpeGdsby5jb20wHhcNMTgwMjE0MDY0MTAyWhcNMjgwMjEy
MDY0MTAyWjCBqTELMAkGA1UEBhMCVVMxCzAJBgNVBAgTAkNBMRUwEwYDVQQHEwxT
YW5GcmFuY2lzY28xFTATBgNVBAoTDFBpeGdsbywgSW5jLjEQMA4GA1UECxMHVlBO
LUNJRTEPMA0GA1UEAxMGY2llNzAzMRwwGgYDVQQpExNCYWxhIENoYW5kcmFzZWth
cmFuMR4wHAYJKoZIhvcNAQkBFg9iYWxhQHBpeGdsby5jb20wggIiMA0GCSqGSIb3
DQEBAQUAA4ICDwAwggIKAoICAQDgtrE4rx0QydPoNvjfIkRY30aJm6ihwWkzSyr7
WoKGrlwtt7oMZ5k5qxa/OG0p2JBQW7paBCDWj3FBymM0t7Ung7e5lu41W5pHVO1a
eDdG5aS2wBSIZza6ku+/QVO7hB/fnmfxrooRIYS6FNQKUjPeeZ6YmZPcjNa5JgV3
dBgNJnZMETWml+ipVq+YGdEgf5XeN27zFxxHlG39KztApYC/aHlwI3kTVkLQlZz+
HRFhvM8iSj9JJQgc6f5f+Y/7NeDo/B9XMPybyY9nTg8YyhDAPe89lpo0/EUikqGH
8/qi66920QfxCUh6Yz5IOnyMb28KfRtqJ3grlLLCV3NvdzCwdpEbuD2L1wE96MVd
D7LG9Z6d2QRMoeXypHKpGvW4F3bgFXvYHX++D+xjPtZUJE/BpM7+HIZx2DIOhtOb
8eHXdPp6IPCmm1oR2tEHn9pw0ify4TGsZ+j3gsJvEt2SPyLz/U8si3vwtwn+xR6D
mphwPdQzYORLTJKdtDx+uHHACbU/H9ctU44TR9XSH8VUSOaGJHgXofWNNK2yQDDJ
QSv+CbdxK/wBPEnCoze2r6o7emxyKX8IllPb2viRqA7rlFOHVmh/b4oikeh9vQX0
kDhVsf0lmvD2Vi1kxAXrCqfNLKrwRDZMnSgP9032YMCfRZXagmkOOTnCzwAjA8vj
9O3XEQIDAQABo4IBazCCAWcwCQYDVR0TBAIwADAtBglghkgBhvhCAQ0EIBYeRWFz
eS1SU0EgR2VuZXJhdGVkIENlcnRpZmljYXRlMB0GA1UdDgQWBBS9NCIvmEQU7L49
SqpNCUFCgi0IhDCB6QYDVR0jBIHhMIHegBTvOI0UUFinW02cF3L837msp1GwEKGB
uqSBtzCBtDELMAkGA1UEBhMCVVMxCzAJBgNVBAgTAkNBMRUwEwYDVQQHEwxTYW5G
cmFuY2lzY28xFTATBgNVBAoTDFBpeGdsbywgSW5jLjEQMA4GA1UECxMHVlBOLUNJ
RTEaMBgGA1UEAxMRdHVubmVsLnBpeGdsby5jb20xHDAaBgNVBCkTE0JhbGEgQ2hh
bmRyYXNla2FyYW4xHjAcBgkqhkiG9w0BCQEWD2JhbGFAcGl4Z2xvLmNvbYIJAKbb
xoOA5qB5MBMGA1UdJQQMMAoGCCsGAQUFBwMCMAsGA1UdDwQEAwIHgDANBgkqhkiG
9w0BAQUFAAOCAgEAlh+w2ggr1DmtDcTl8wZ3fTpBm3acjbYRAendpSFm1ccuNpCv
LCax3oJkN19a4Da/Q+W4NMSped3cLsRzwyjcVZHG2L+pVg+iBtkObNXRb0fofH9J
B8q0A8v3WmuOO4r76PVaG9b+cS0lZYNkOZZaSnIU8YZRSAWaJdELfymAZUR4G00I
R63SHVHpEBCmPZmnS16S56jE+25GW8SRObCvCOMofdR4QHk2bDJ8HzzgeblK5xP2
QdrdJbvHGjZIRRvtS4iw3zHPM7exJMb734Ff3bOaGCAS+Kzsph4Sc6H58RfX/fpm
h1ebiYFMoh45IgHursAUDXl2ODIpLgZB4fjLx5lJ2fVlE3r4G1AY4Y3Ur6QHUVBu
+XijYH7I67coPujIYdoQf7PRuILohwqwDfekClUPMCenW5okhcK+PIMOu5J3Bfrx
WOk9ogAqAML3cx/JG2zb4KPcPnAUniYPQBH4S7mlGxAvvfwLV86fecyzJQ0whxpE
0g95pz/AFE5pyN5YNS5onMPKF+2pgSDrCgkwzXd1+Fz0VOwKomgLYZ6TtdgSx4oB
eaUbEzG9j1YP9Jn1ZInuAm+5ZdJLarRlGQnNmUpfOr0TuIUG4iVOIvAUikU9HXgm
tEjpHtFW7EFJ39NJHvbtutrQ4EGjCdpju66I+vbfM4zTZ1qj6R+QdEMbCLg=
-----END CERTIFICATE-----
