Certificate:
    Data:
        Version: 3 (0x2)
        Serial Number: 705 (0x2c1)
    Signature Algorithm: sha1WithRSAEncryption
        Issuer: C=US, ST=CA, L=SanFrancisco, O=Pixglo, Inc., OU=VPN-CIE, CN=tunnel.pixglo.com/name=Bala Chandrasekaran/emailAddress=bala@pixglo.com
        Validity
            Not Before: Feb 14 06:41:03 2018 GMT
            Not After : Feb 12 06:41:03 2028 GMT
        Subject: C=US, ST=CA, L=SanFrancisco, O=Pixglo, Inc., OU=VPN-CIE, CN=cie704/name=Bala Chandrasekaran/emailAddress=bala@pixglo.com
        Subject Public Key Info:
            Public Key Algorithm: rsaEncryption
                Public-Key: (4096 bit)
                Modulus:
                    00:cc:b7:6e:e1:ec:db:20:b1:9b:e8:ed:2a:69:31:
                    4b:fa:77:7e:b5:59:58:90:46:5d:99:7b:68:f1:d7:
                    b7:53:ab:0f:df:e1:aa:3c:6c:48:81:d1:58:85:91:
                    d6:a4:33:13:30:d8:4b:ed:b2:62:72:17:e0:be:31:
                    8e:92:2f:96:c0:08:17:c5:e9:7b:f0:e6:12:dd:25:
                    ec:f1:8a:ed:a7:2c:8c:a3:5a:42:fc:dd:e2:61:23:
                    a5:e2:96:fb:eb:36:6c:af:61:ac:15:35:5b:ac:f5:
                    7c:17:6a:1b:ac:7f:fd:90:4f:05:aa:22:d4:e6:b0:
                    9b:e8:24:89:2a:f8:84:34:e3:1b:16:79:54:cc:b7:
                    09:b7:7c:87:48:e6:25:9f:47:09:5d:2b:96:a0:2b:
                    aa:b0:4d:63:de:36:19:e8:80:1c:97:85:e3:ec:2e:
                    8f:1d:4e:94:e9:e2:93:cb:76:9c:a9:e9:88:ab:f4:
                    5a:64:fd:65:4f:12:ce:66:27:be:53:41:8d:12:e0:
                    de:19:5d:ef:c9:78:40:a8:28:e8:7c:67:1f:c0:b5:
                    51:c6:ec:50:5b:50:2f:7c:da:9b:03:50:4f:b4:35:
                    cb:9c:a4:31:92:a9:2b:ee:26:7d:56:54:46:d2:26:
                    fc:83:e6:60:a9:51:dd:25:25:d0:dd:41:b9:df:d0:
                    d5:94:cb:ef:dd:28:5c:2c:d8:e6:dc:04:96:2b:94:
                    b0:92:37:bc:0d:a1:e9:c7:82:04:e8:65:25:00:5b:
                    21:59:61:b4:08:f7:15:b5:35:55:8e:52:56:54:1b:
                    81:de:13:75:8e:42:94:71:19:91:67:b6:1e:74:89:
                    d1:04:26:1f:fb:84:27:21:8d:49:db:a7:bf:c4:4a:
                    d7:92:47:84:18:4f:58:c4:08:97:25:c5:2f:0c:d1:
                    68:4c:0b:6b:1b:5d:bc:f5:e3:80:5a:59:ab:cc:26:
                    a8:16:46:df:ca:6b:91:e4:be:02:6e:7e:69:b5:94:
                    74:c2:0c:af:ea:3f:53:fe:ee:ad:d4:c4:f2:67:1f:
                    4a:53:bf:66:7a:95:4b:9e:44:99:2c:56:55:8e:96:
                    48:62:ee:c1:f4:f9:19:9a:be:b1:70:cc:36:ac:35:
                    05:fd:ab:5d:70:ef:bd:78:0f:0a:53:9b:e7:ae:4b:
                    f4:df:7b:80:be:3e:e1:05:72:f0:7f:23:17:e2:4b:
                    6a:ef:1c:c3:49:0f:49:c8:80:c9:36:ee:9d:e3:4c:
                    dd:d4:c9:51:88:90:ac:ab:a0:be:89:07:d2:e6:78:
                    d4:96:86:9f:fe:07:d8:a2:eb:8a:d6:97:5c:14:a8:
                    6b:54:2d:7c:2a:d7:43:7b:c4:d0:f6:22:6b:25:c8:
                    3e:a0:09
                Exponent: 65537 (0x10001)
        X509v3 extensions:
            X509v3 Basic Constraints: 
                CA:FALSE
            Netscape Comment: 
                Easy-RSA Generated Certificate
            X509v3 Subject Key Identifier: 
                32:F6:71:3B:8A:34:05:4E:38:90:4F:77:19:E7:50:63:75:3E:CD:A3
            X509v3 Authority Key Identifier: 
                keyid:EF:38:8D:14:50:58:A7:5B:4D:9C:17:72:FC:DF:B9:AC:A7:51:B0:10
                DirName:/C=US/ST=CA/L=SanFrancisco/O=Pixglo, Inc./OU=VPN-CIE/CN=tunnel.pixglo.com/name=Bala Chandrasekaran/emailAddress=bala@pixglo.com
                serial:A6:DB:C6:83:80:E6:A0:79

            X509v3 Extended Key Usage: 
                TLS Web Client Authentication
            X509v3 Key Usage: 
                Digital Signature
    Signature Algorithm: sha1WithRSAEncryption
         42:42:89:1c:3c:a1:3a:9a:9a:ee:a8:68:93:85:5e:65:48:95:
         7f:fb:9c:88:7a:66:04:a8:59:e1:a3:26:ea:50:88:c9:ec:85:
         ec:68:e5:36:ae:bc:42:40:4f:1d:2d:72:3f:dd:6f:06:cf:b1:
         57:bb:93:a1:f8:83:c4:39:50:df:dd:2f:46:bf:c2:3c:56:ae:
         02:14:55:40:6a:3e:8a:ce:85:fa:14:6e:17:c3:c4:d2:74:07:
         ff:de:54:64:e2:18:2f:76:78:57:89:2f:72:b2:99:62:46:3a:
         6c:c2:8a:38:bd:ea:5c:ce:26:27:26:52:e5:a9:42:66:a0:66:
         b6:38:77:f2:5f:a1:66:81:35:f6:94:6f:81:2d:fe:d9:df:da:
         a6:57:b3:56:1b:47:95:5c:5a:05:0d:ad:ce:cf:7d:8e:6d:82:
         0f:61:9c:e9:15:86:fd:20:0c:9c:13:79:1b:93:c2:62:06:13:
         e9:1c:18:24:19:31:58:8a:a1:1d:a4:b5:9f:50:72:b2:3c:ce:
         c3:83:b4:2a:8d:ea:17:d9:b9:92:49:50:d6:02:38:2f:49:ec:
         77:a2:82:35:44:cb:65:37:4e:1c:60:a2:65:c9:02:ee:c2:4a:
         ea:3a:70:fd:5e:ca:51:07:d0:f2:e7:55:a7:99:88:5e:75:32:
         a6:85:14:fe:19:cb:33:ee:ff:24:ce:3b:26:f8:13:6c:56:2e:
         cc:0d:b0:8e:57:f0:d2:f9:17:3a:a1:a6:65:23:a5:56:4b:e7:
         71:42:13:1d:7b:34:82:d0:07:8c:bc:8c:a3:5a:1d:6b:22:0a:
         ee:d5:36:0b:6c:86:79:5f:47:34:f8:98:1e:e5:a7:8d:a3:a1:
         44:ea:a2:fb:3b:d2:bc:a3:d6:ab:30:63:21:bc:e2:57:25:94:
         cc:1a:a1:3f:7d:86:7e:27:17:2e:64:52:65:03:fb:52:7a:87:
         a9:f8:58:aa:f3:5f:cb:eb:87:16:a6:b9:c8:ed:3f:51:73:96:
         56:28:24:84:c5:81:23:e4:d8:c9:19:72:f7:44:ee:15:27:e8:
         5c:07:18:b9:26:27:fe:bc:22:60:bf:41:c8:6d:63:8e:a6:52:
         a1:a1:8e:b8:74:67:75:ef:7a:ab:d1:00:45:7c:d7:eb:57:98:
         12:c9:d1:ce:46:56:c5:96:97:ac:fa:a0:3f:d3:f1:36:bd:08:
         bd:31:7c:ff:a9:6a:3e:7d:b0:99:e8:91:59:fb:9e:ea:da:66:
         ea:69:62:8f:79:14:d3:96:f9:61:22:3a:5f:c8:a8:fb:50:5e:
         50:93:28:a1:36:fc:07:d9:18:e4:a6:2a:fb:fc:51:32:c8:c9:
         ce:7a:02:0a:de:7b:2d:77
-----BEGIN CERTIFICATE-----
MIIHSDCCBTCgAwIBAgICAsEwDQYJKoZIhvcNAQEFBQAwgbQxCzAJBgNVBAYTAlVT
MQswCQYDVQQIEwJDQTEVMBMGA1UEBxMMU2FuRnJhbmNpc2NvMRUwEwYDVQQKEwxQ
aXhnbG8sIEluYy4xEDAOBgNVBAsTB1ZQTi1DSUUxGjAYBgNVBAMTEXR1bm5lbC5w
aXhnbG8uY29tMRwwGgYDVQQpExNCYWxhIENoYW5kcmFzZWthcmFuMR4wHAYJKoZI
hvcNAQkBFg9iYWxhQHBpeGdsby5jb20wHhcNMTgwMjE0MDY0MTAzWhcNMjgwMjEy
MDY0MTAzWjCBqTELMAkGA1UEBhMCVVMxCzAJBgNVBAgTAkNBMRUwEwYDVQQHEwxT
YW5GcmFuY2lzY28xFTATBgNVBAoTDFBpeGdsbywgSW5jLjEQMA4GA1UECxMHVlBO
LUNJRTEPMA0GA1UEAxMGY2llNzA0MRwwGgYDVQQpExNCYWxhIENoYW5kcmFzZWth
cmFuMR4wHAYJKoZIhvcNAQkBFg9iYWxhQHBpeGdsby5jb20wggIiMA0GCSqGSIb3
DQEBAQUAA4ICDwAwggIKAoICAQDMt27h7NsgsZvo7SppMUv6d361WViQRl2Ze2jx
17dTqw/f4ao8bEiB0ViFkdakMxMw2EvtsmJyF+C+MY6SL5bACBfF6Xvw5hLdJezx
iu2nLIyjWkL83eJhI6XilvvrNmyvYawVNVus9XwXahusf/2QTwWqItTmsJvoJIkq
+IQ04xsWeVTMtwm3fIdI5iWfRwldK5agK6qwTWPeNhnogByXhePsLo8dTpTp4pPL
dpyp6Yir9Fpk/WVPEs5mJ75TQY0S4N4ZXe/JeECoKOh8Zx/AtVHG7FBbUC982psD
UE+0NcucpDGSqSvuJn1WVEbSJvyD5mCpUd0lJdDdQbnf0NWUy+/dKFws2ObcBJYr
lLCSN7wNoenHggToZSUAWyFZYbQI9xW1NVWOUlZUG4HeE3WOQpRxGZFnth50idEE
Jh/7hCchjUnbp7/ESteSR4QYT1jECJclxS8M0WhMC2sbXbz144BaWavMJqgWRt/K
a5HkvgJufmm1lHTCDK/qP1P+7q3UxPJnH0pTv2Z6lUueRJksVlWOlkhi7sH0+Rma
vrFwzDasNQX9q11w7714DwpTm+euS/Tfe4C+PuEFcvB/IxfiS2rvHMNJD0nIgMk2
7p3jTN3UyVGIkKyroL6JB9LmeNSWhp/+B9ii64rWl1wUqGtULXwq10N7xND2Imsl
yD6gCQIDAQABo4IBazCCAWcwCQYDVR0TBAIwADAtBglghkgBhvhCAQ0EIBYeRWFz
eS1SU0EgR2VuZXJhdGVkIENlcnRpZmljYXRlMB0GA1UdDgQWBBQy9nE7ijQFTjiQ
T3cZ51BjdT7NozCB6QYDVR0jBIHhMIHegBTvOI0UUFinW02cF3L837msp1GwEKGB
uqSBtzCBtDELMAkGA1UEBhMCVVMxCzAJBgNVBAgTAkNBMRUwEwYDVQQHEwxTYW5G
cmFuY2lzY28xFTATBgNVBAoTDFBpeGdsbywgSW5jLjEQMA4GA1UECxMHVlBOLUNJ
RTEaMBgGA1UEAxMRdHVubmVsLnBpeGdsby5jb20xHDAaBgNVBCkTE0JhbGEgQ2hh
bmRyYXNla2FyYW4xHjAcBgkqhkiG9w0BCQEWD2JhbGFAcGl4Z2xvLmNvbYIJAKbb
xoOA5qB5MBMGA1UdJQQMMAoGCCsGAQUFBwMCMAsGA1UdDwQEAwIHgDANBgkqhkiG
9w0BAQUFAAOCAgEAQkKJHDyhOpqa7qhok4VeZUiVf/uciHpmBKhZ4aMm6lCIyeyF
7GjlNq68QkBPHS1yP91vBs+xV7uTofiDxDlQ390vRr/CPFauAhRVQGo+is6F+hRu
F8PE0nQH/95UZOIYL3Z4V4kvcrKZYkY6bMKKOL3qXM4mJyZS5alCZqBmtjh38l+h
ZoE19pRvgS3+2d/aplezVhtHlVxaBQ2tzs99jm2CD2Gc6RWG/SAMnBN5G5PCYgYT
6RwYJBkxWIqhHaS1n1BysjzOw4O0Ko3qF9m5kklQ1gI4L0nsd6KCNUTLZTdOHGCi
ZckC7sJK6jpw/V7KUQfQ8udVp5mIXnUypoUU/hnLM+7/JM47JvgTbFYuzA2wjlfw
0vkXOqGmZSOlVkvncUITHXs0gtAHjLyMo1odayIK7tU2C2yGeV9HNPiYHuWnjaOh
ROqi+zvSvKPWqzBjIbziVyWUzBqhP32GficXLmRSZQP7UnqHqfhYqvNfy+uHFqa5
yO0/UXOWVigkhMWBI+TYyRly90TuFSfoXAcYuSYn/rwiYL9ByG1jjqZSoaGOuHRn
de96q9EARXzX61eYEsnRzkZWxZaXrPqgP9PxNr0IvTF8/6lqPn2wmeiRWfue6tpm
6mlij3kU05b5YSI6X8io+1BeUJMooTb8B9kY5KYq+/xRMsjJznoCCt57LXc=
-----END CERTIFICATE-----
