Certificate:
    Data:
        Version: 3 (0x2)
        Serial Number: 706 (0x2c2)
    Signature Algorithm: sha1WithRSAEncryption
        Issuer: C=US, ST=CA, L=SanFrancisco, O=Pixglo, Inc., OU=VPN-CIE, CN=tunnel.pixglo.com/name=Bala Chandrasekaran/emailAddress=bala@pixglo.com
        Validity
            Not Before: Feb 14 06:41:04 2018 GMT
            Not After : Feb 12 06:41:04 2028 GMT
        Subject: C=US, ST=CA, L=SanFrancisco, O=Pixglo, Inc., OU=VPN-CIE, CN=cie705/name=Bala Chandrasekaran/emailAddress=bala@pixglo.com
        Subject Public Key Info:
            Public Key Algorithm: rsaEncryption
                Public-Key: (4096 bit)
                Modulus:
                    00:dc:f1:d9:f3:85:b5:cb:03:f1:b8:1e:3a:97:ed:
                    27:c3:35:fe:9c:df:5c:d9:0a:08:6f:73:c7:3c:2a:
                    95:80:ce:ed:23:49:7c:4d:e1:f2:17:ee:5d:dc:cf:
                    90:a5:94:26:d1:b5:75:2c:b3:35:12:af:d4:33:6c:
                    43:26:66:60:ed:5c:e1:8c:d5:ff:28:08:c7:8f:61:
                    4d:2c:b4:d8:3e:c9:ec:67:a8:c5:a3:e6:5c:73:71:
                    83:4a:25:12:14:00:51:5e:00:de:50:c6:f8:c3:01:
                    ee:77:f0:51:76:a2:f8:88:03:46:44:e8:16:d5:a2:
                    5c:79:c4:46:10:58:1e:19:d7:27:a5:31:d6:8f:13:
                    5d:37:29:6e:e4:ab:c6:10:46:37:66:85:25:a1:00:
                    4d:bf:b6:26:70:95:b5:04:03:53:92:21:18:ea:f1:
                    c8:c3:9a:1c:b8:49:e0:ff:9e:cf:20:d0:55:97:bf:
                    56:18:1e:83:ec:39:d8:13:9d:27:19:17:f8:cd:75:
                    cf:e2:a3:b4:d4:5e:de:46:ac:04:10:df:d7:ab:d8:
                    8f:f7:0f:3a:c0:32:8b:4f:cc:88:1f:82:e6:d3:6d:
                    a8:70:24:ac:d3:2c:ba:bd:ef:fa:ca:e9:51:d0:88:
                    e7:0a:7d:b3:37:ce:dc:c9:b8:de:06:33:5b:22:6a:
                    22:36:99:9c:1c:74:f6:20:d1:e6:41:fb:bc:d3:7b:
                    38:70:14:ad:31:e6:62:94:47:8c:8c:3e:33:29:fe:
                    45:6c:07:58:bd:22:14:1c:dc:9f:67:ca:bb:d4:2f:
                    c7:4d:f6:61:fc:cc:b7:46:47:7e:24:97:b9:fc:fd:
                    f3:42:41:ad:70:fd:80:28:cc:3e:50:56:ba:8f:07:
                    35:27:ed:94:39:4f:ad:a4:53:c2:84:1f:ef:03:cc:
                    c3:06:14:4e:93:49:24:89:47:1b:e3:aa:4d:47:b2:
                    fb:51:52:0c:1c:84:02:65:ff:aa:75:30:22:e6:f9:
                    d3:6c:99:85:92:b3:87:4b:05:f4:36:0d:9c:b2:98:
                    35:e1:9d:f5:67:23:56:82:06:40:8a:dc:15:8b:3a:
                    99:10:7c:c6:a9:fa:60:85:53:20:14:22:bc:e7:d3:
                    f3:ad:d0:18:eb:c9:25:8d:50:3f:e2:75:2a:d4:23:
                    f8:2d:45:30:f4:e2:fc:5b:23:0c:40:c9:44:c9:55:
                    b7:b2:6f:8d:5c:b7:61:72:64:30:ec:33:f3:cf:7e:
                    1f:1d:48:ef:67:df:80:70:1d:cd:57:98:a8:0c:67:
                    01:47:0b:4a:92:13:e3:9c:c8:c1:07:00:bc:01:3c:
                    4a:a9:51:f3:ce:c8:83:70:c8:9d:31:93:63:ef:32:
                    6e:00:73
                Exponent: 65537 (0x10001)
        X509v3 extensions:
            X509v3 Basic Constraints: 
                CA:FALSE
            Netscape Comment: 
                Easy-RSA Generated Certificate
            X509v3 Subject Key Identifier: 
                46:D7:2D:CD:C0:63:F0:98:32:A9:FD:F6:1D:60:88:18:09:47:99:D3
            X509v3 Authority Key Identifier: 
                keyid:EF:38:8D:14:50:58:A7:5B:4D:9C:17:72:FC:DF:B9:AC:A7:51:B0:10
                DirName:/C=US/ST=CA/L=SanFrancisco/O=Pixglo, Inc./OU=VPN-CIE/CN=tunnel.pixglo.com/name=Bala Chandrasekaran/emailAddress=bala@pixglo.com
                serial:A6:DB:C6:83:80:E6:A0:79

            X509v3 Extended Key Usage: 
                TLS Web Client Authentication
            X509v3 Key Usage: 
                Digital Signature
    Signature Algorithm: sha1WithRSAEncryption
         a1:e2:6e:f3:8e:cf:7e:9d:75:fa:a1:e1:aa:e5:32:be:87:ab:
         c2:f1:54:e4:7a:08:8e:ed:57:70:3a:36:e5:50:c1:b0:0c:25:
         c0:41:08:ec:e3:cf:d8:e1:48:26:5f:66:0b:18:dc:79:41:5c:
         bb:30:66:10:6a:48:26:5c:e1:92:2e:7e:65:73:9a:d5:8a:f0:
         74:66:bc:fd:95:09:8c:ae:b2:fe:fb:67:5a:dd:c4:2e:2f:6d:
         b6:d7:ff:47:30:8d:1b:10:92:64:9f:da:ab:1a:59:1a:65:50:
         80:b6:19:d6:b7:0a:64:d4:f1:e7:4c:88:b7:4f:22:45:1e:ae:
         5d:c4:5a:85:aa:46:b2:fd:3b:14:d4:be:03:b7:9f:99:bc:ea:
         13:64:5f:50:43:87:4c:dc:64:a2:bb:a3:d9:9e:fc:8c:6b:9b:
         56:61:08:40:1f:dc:9d:6c:62:a9:94:19:34:48:4b:03:a1:f3:
         a1:29:22:f7:c5:45:35:a8:3f:e5:dd:6e:4f:ed:46:1e:e8:0d:
         a9:e5:0b:8d:b8:10:12:e0:53:75:fc:a1:fc:53:ee:32:8f:ac:
         09:0d:14:1d:11:ce:ca:72:5c:6d:a1:05:64:77:b3:fc:20:27:
         1e:e3:1f:ec:a5:0b:86:ba:7e:10:f1:6b:ce:1b:d5:3e:11:e8:
         33:67:f4:91:27:5f:75:44:ca:2c:4b:07:73:c6:14:08:0c:95:
         fc:52:c8:9c:cc:6f:fa:0c:12:ec:f8:07:bc:62:15:36:51:c1:
         ca:49:82:39:74:35:b8:ca:5f:c5:a7:fe:2e:63:08:a8:11:7d:
         0a:4d:dd:07:16:02:d6:b4:99:35:44:1c:42:83:02:b3:ba:6d:
         07:a4:37:8a:6d:34:39:56:59:9b:04:e5:73:06:18:a2:f8:aa:
         9d:ab:2f:ac:1d:cb:bd:6b:62:82:56:0a:3d:ae:1f:f8:b5:3d:
         c8:af:ec:8a:d2:72:25:6c:e6:30:70:b6:8f:27:af:69:6c:ea:
         72:d6:fb:d0:ec:4b:7b:b6:fb:d7:a4:8c:bc:44:b7:26:94:6a:
         79:df:26:28:95:60:b4:e1:ea:63:51:96:0b:92:87:90:a0:c0:
         98:c6:bb:e7:9f:90:ce:fa:b4:ef:0d:6e:3f:43:10:3a:17:52:
         65:fa:08:01:b0:e2:99:51:78:b1:e2:c1:53:46:36:84:78:36:
         47:21:e7:60:42:61:f6:71:00:8f:73:d9:e0:fd:f8:2f:b6:94:
         b5:75:0e:27:c7:06:72:03:90:b6:29:66:94:ef:2d:76:db:e3:
         94:4b:b2:b4:0b:4f:5e:ec:46:fb:55:ff:c7:ff:af:0d:06:6f:
         e2:13:cf:d3:2b:91:25:b3
-----BEGIN CERTIFICATE-----
MIIHSDCCBTCgAwIBAgICAsIwDQYJKoZIhvcNAQEFBQAwgbQxCzAJBgNVBAYTAlVT
MQswCQYDVQQIEwJDQTEVMBMGA1UEBxMMU2FuRnJhbmNpc2NvMRUwEwYDVQQKEwxQ
aXhnbG8sIEluYy4xEDAOBgNVBAsTB1ZQTi1DSUUxGjAYBgNVBAMTEXR1bm5lbC5w
aXhnbG8uY29tMRwwGgYDVQQpExNCYWxhIENoYW5kcmFzZWthcmFuMR4wHAYJKoZI
hvcNAQkBFg9iYWxhQHBpeGdsby5jb20wHhcNMTgwMjE0MDY0MTA0WhcNMjgwMjEy
MDY0MTA0WjCBqTELMAkGA1UEBhMCVVMxCzAJBgNVBAgTAkNBMRUwEwYDVQQHEwxT
YW5GcmFuY2lzY28xFTATBgNVBAoTDFBpeGdsbywgSW5jLjEQMA4GA1UECxMHVlBO
LUNJRTEPMA0GA1UEAxMGY2llNzA1MRwwGgYDVQQpExNCYWxhIENoYW5kcmFzZWth
cmFuMR4wHAYJKoZIhvcNAQkBFg9iYWxhQHBpeGdsby5jb20wggIiMA0GCSqGSIb3
DQEBAQUAA4ICDwAwggIKAoICAQDc8dnzhbXLA/G4HjqX7SfDNf6c31zZCghvc8c8
KpWAzu0jSXxN4fIX7l3cz5CllCbRtXUsszUSr9QzbEMmZmDtXOGM1f8oCMePYU0s
tNg+yexnqMWj5lxzcYNKJRIUAFFeAN5QxvjDAe538FF2oviIA0ZE6BbVolx5xEYQ
WB4Z1yelMdaPE103KW7kq8YQRjdmhSWhAE2/tiZwlbUEA1OSIRjq8cjDmhy4SeD/
ns8g0FWXv1YYHoPsOdgTnScZF/jNdc/io7TUXt5GrAQQ39er2I/3DzrAMotPzIgf
gubTbahwJKzTLLq97/rK6VHQiOcKfbM3ztzJuN4GM1siaiI2mZwcdPYg0eZB+7zT
ezhwFK0x5mKUR4yMPjMp/kVsB1i9IhQc3J9nyrvUL8dN9mH8zLdGR34kl7n8/fNC
Qa1w/YAozD5QVrqPBzUn7ZQ5T62kU8KEH+8DzMMGFE6TSSSJRxvjqk1HsvtRUgwc
hAJl/6p1MCLm+dNsmYWSs4dLBfQ2DZyymDXhnfVnI1aCBkCK3BWLOpkQfMap+mCF
UyAUIrzn0/Ot0BjrySWNUD/idSrUI/gtRTD04vxbIwxAyUTJVbeyb41ct2FyZDDs
M/PPfh8dSO9n34BwHc1XmKgMZwFHC0qSE+OcyMEHALwBPEqpUfPOyINwyJ0xk2Pv
Mm4AcwIDAQABo4IBazCCAWcwCQYDVR0TBAIwADAtBglghkgBhvhCAQ0EIBYeRWFz
eS1SU0EgR2VuZXJhdGVkIENlcnRpZmljYXRlMB0GA1UdDgQWBBRG1y3NwGPwmDKp
/fYdYIgYCUeZ0zCB6QYDVR0jBIHhMIHegBTvOI0UUFinW02cF3L837msp1GwEKGB
uqSBtzCBtDELMAkGA1UEBhMCVVMxCzAJBgNVBAgTAkNBMRUwEwYDVQQHEwxTYW5G
cmFuY2lzY28xFTATBgNVBAoTDFBpeGdsbywgSW5jLjEQMA4GA1UECxMHVlBOLUNJ
RTEaMBgGA1UEAxMRdHVubmVsLnBpeGdsby5jb20xHDAaBgNVBCkTE0JhbGEgQ2hh
bmRyYXNla2FyYW4xHjAcBgkqhkiG9w0BCQEWD2JhbGFAcGl4Z2xvLmNvbYIJAKbb
xoOA5qB5MBMGA1UdJQQMMAoGCCsGAQUFBwMCMAsGA1UdDwQEAwIHgDANBgkqhkiG
9w0BAQUFAAOCAgEAoeJu847Pfp11+qHhquUyvoerwvFU5HoIju1XcDo25VDBsAwl
wEEI7OPP2OFIJl9mCxjceUFcuzBmEGpIJlzhki5+ZXOa1YrwdGa8/ZUJjK6y/vtn
Wt3ELi9tttf/RzCNGxCSZJ/aqxpZGmVQgLYZ1rcKZNTx50yIt08iRR6uXcRahapG
sv07FNS+A7efmbzqE2RfUEOHTNxkoruj2Z78jGubVmEIQB/cnWxiqZQZNEhLA6Hz
oSki98VFNag/5d1uT+1GHugNqeULjbgQEuBTdfyh/FPuMo+sCQ0UHRHOynJcbaEF
ZHez/CAnHuMf7KULhrp+EPFrzhvVPhHoM2f0kSdfdUTKLEsHc8YUCAyV/FLInMxv
+gwS7PgHvGIVNlHBykmCOXQ1uMpfxaf+LmMIqBF9Ck3dBxYC1rSZNUQcQoMCs7pt
B6Q3im00OVZZmwTlcwYYoviqnasvrB3LvWtiglYKPa4f+LU9yK/sitJyJWzmMHC2
jyevaWzqctb70OxLe7b716SMvES3JpRqed8mKJVgtOHqY1GWC5KHkKDAmMa755+Q
zvq07w1uP0MQOhdSZfoIAbDimVF4seLBU0Y2hHg2RyHnYEJh9nEAj3PZ4P34L7aU
tXUOJ8cGcgOQtilmlO8tdtvjlEuytAtPXuxG+1X/x/+vDQZv4hPP0yuRJbM=
-----END CERTIFICATE-----
