Certificate:
    Data:
        Version: 3 (0x2)
        Serial Number: 709 (0x2c5)
    Signature Algorithm: sha1WithRSAEncryption
        Issuer: C=US, ST=CA, L=SanFrancisco, O=Pixglo, Inc., OU=VPN-CIE, CN=tunnel.pixglo.com/name=Bala Chandrasekaran/emailAddress=bala@pixglo.com
        Validity
            Not Before: Feb 14 06:41:10 2018 GMT
            Not After : Feb 12 06:41:10 2028 GMT
        Subject: C=US, ST=CA, L=SanFrancisco, O=Pixglo, Inc., OU=VPN-CIE, CN=cie708/name=Bala Chandrasekaran/emailAddress=bala@pixglo.com
        Subject Public Key Info:
            Public Key Algorithm: rsaEncryption
                Public-Key: (4096 bit)
                Modulus:
                    00:c2:c6:ac:43:0c:86:12:9b:f3:ba:8f:77:ca:fc:
                    19:3f:b5:23:8f:1e:09:f3:26:da:2e:f1:4f:d3:4c:
                    2f:dc:09:1d:82:45:da:41:52:82:e4:a9:b9:7a:36:
                    79:f3:54:e2:83:a8:ed:50:75:db:d7:25:5b:6c:9a:
                    c1:98:35:35:31:13:6e:5e:ce:52:cb:2c:ed:f2:8c:
                    94:a7:84:64:7a:f2:7d:7e:22:59:66:fa:37:e0:fe:
                    d7:6a:29:76:d9:d1:9a:3e:39:b5:47:e4:c1:5e:7c:
                    c6:53:f6:5e:24:de:1d:ee:c7:8d:9b:89:67:82:88:
                    3a:ed:5b:02:38:c0:3d:85:24:a7:b5:4d:2c:cf:b9:
                    8d:e0:51:17:98:fc:95:be:f7:e2:65:52:dc:c1:ea:
                    c2:08:e6:e6:fe:ea:bd:14:40:5d:ce:6d:f3:e5:0d:
                    73:a7:d5:e4:da:5e:ba:86:28:0b:fa:05:72:fe:f5:
                    b6:e5:d8:72:91:b2:31:31:c6:7e:34:d9:a4:85:7e:
                    34:b0:d7:ab:3a:6a:d7:15:f1:67:d2:d7:f1:ff:87:
                    5b:bb:04:a9:d8:fb:f8:c5:53:fa:b5:91:3e:da:42:
                    fb:c8:c2:9b:fb:1c:5c:de:4d:8e:58:74:df:2a:60:
                    bd:e8:92:8d:82:06:15:3d:ef:39:fa:f8:9d:12:f6:
                    6c:8b:3f:32:9a:29:70:a5:ed:30:b0:b9:58:87:bd:
                    b8:8e:55:d6:ff:9e:33:eb:f0:7d:bf:2f:99:76:1d:
                    be:31:c0:5f:0f:e3:0b:f5:a9:ec:43:ca:3a:a9:84:
                    c6:99:79:71:ea:e3:5b:b9:27:fe:91:8c:d8:e2:fe:
                    4d:60:62:95:31:95:19:86:19:cd:2e:35:f0:26:76:
                    65:0e:a8:63:d2:f8:87:4f:ab:b1:19:3c:ff:a7:44:
                    62:43:b3:65:84:62:05:73:53:27:37:e3:e2:5f:12:
                    4f:26:c2:69:17:ab:0c:10:01:82:15:27:97:46:04:
                    93:e7:41:f9:74:1b:3d:32:d7:1c:3f:31:bf:18:e7:
                    51:e9:a7:bd:b8:86:d9:e0:e4:6a:df:97:5c:58:26:
                    f3:02:2e:39:7d:78:26:07:1a:b8:8d:fd:c2:24:d9:
                    37:ad:72:9e:2e:34:22:64:91:dc:c5:e4:03:46:38:
                    cf:db:21:ef:d3:b2:25:9f:e2:bc:65:27:aa:d2:ff:
                    7c:23:cd:84:f6:e5:62:27:b9:4b:09:bd:77:77:06:
                    20:47:37:af:af:d3:4d:e2:e4:b5:0d:bc:0b:ac:0f:
                    2c:1b:e5:f9:01:ef:8b:34:83:3f:24:71:94:73:65:
                    ad:61:a1:45:51:37:c1:88:43:b9:6d:16:53:18:f1:
                    10:7c:af
                Exponent: 65537 (0x10001)
        X509v3 extensions:
            X509v3 Basic Constraints: 
                CA:FALSE
            Netscape Comment: 
                Easy-RSA Generated Certificate
            X509v3 Subject Key Identifier: 
                9B:6C:86:AA:3A:E9:10:4C:2E:E9:8E:53:EF:DD:9A:0C:D6:FD:31:23
            X509v3 Authority Key Identifier: 
                keyid:EF:38:8D:14:50:58:A7:5B:4D:9C:17:72:FC:DF:B9:AC:A7:51:B0:10
                DirName:/C=US/ST=CA/L=SanFrancisco/O=Pixglo, Inc./OU=VPN-CIE/CN=tunnel.pixglo.com/name=Bala Chandrasekaran/emailAddress=bala@pixglo.com
                serial:A6:DB:C6:83:80:E6:A0:79

            X509v3 Extended Key Usage: 
                TLS Web Client Authentication
            X509v3 Key Usage: 
                Digital Signature
    Signature Algorithm: sha1WithRSAEncryption
         a0:70:63:30:28:d8:9d:1c:be:34:45:bb:32:ff:b1:45:3d:bd:
         34:b7:3b:70:87:d4:2d:b9:e5:7d:c5:ae:50:c4:2f:ea:d1:76:
         f3:ae:28:b4:73:46:7a:84:62:57:e0:5d:5d:b0:76:04:1c:48:
         61:dc:b8:a8:43:e5:16:e5:6c:9d:8d:10:71:34:4e:a1:7e:21:
         14:8d:61:11:9e:cd:f6:b1:0a:24:57:4c:51:fc:33:2e:0d:c6:
         60:68:49:ff:2b:2c:55:a8:63:41:8f:af:ae:9e:fe:5f:4e:8b:
         42:61:3f:51:a3:1f:af:51:bd:4a:a5:4f:6a:ec:79:ef:52:5d:
         3a:50:c6:4d:e8:97:51:62:20:aa:f8:27:a3:2d:74:a1:73:9b:
         c7:8d:df:db:77:39:6d:98:37:54:6e:9f:05:20:2a:f1:d7:47:
         4d:e3:13:11:3a:45:bb:22:bc:9b:81:31:65:76:2d:77:ba:ef:
         d0:3f:37:2f:7d:47:a0:16:0c:3c:41:a5:61:af:48:6c:7c:be:
         a4:a3:02:ab:03:27:6e:7f:d7:ff:b0:1d:3b:26:a6:d9:fc:65:
         3c:ff:0e:dd:b4:e1:4e:1f:c1:d7:8b:0c:d0:8a:f0:d6:e3:e5:
         3c:eb:ef:9e:a4:3e:b2:09:4e:d8:cc:5a:a3:46:af:f1:9c:65:
         5c:45:0c:00:4a:6c:68:40:65:d7:39:df:39:39:24:b6:9d:30:
         ae:f7:8f:3b:48:f1:34:f8:98:12:50:aa:ce:dd:ae:1f:d0:62:
         c3:59:c4:91:91:5c:ce:8f:79:0f:ef:5a:f5:1e:59:eb:50:93:
         ff:95:f4:6e:8f:94:72:ab:99:b3:d8:27:66:57:35:2a:bf:78:
         3a:24:9c:66:22:2a:1c:d7:0c:8f:ff:eb:9e:b6:02:98:7b:bd:
         4b:07:bf:cd:f0:20:cc:b1:a7:5b:68:c5:a2:60:82:ea:34:58:
         ae:49:07:00:1c:a8:ee:cf:f9:bf:8e:67:a2:4f:d9:40:1a:9d:
         64:bd:db:f0:f4:69:95:a3:8d:38:2f:90:04:ae:fc:17:87:25:
         81:ef:19:e9:0f:a0:be:99:43:b1:61:2c:20:76:a9:0f:13:5f:
         10:5c:36:25:0f:b8:f7:c6:8c:cf:18:d1:ee:38:36:f4:92:e6:
         76:d8:46:a1:7b:e0:8c:7a:ef:3f:e1:b0:fc:d0:89:df:02:53:
         73:3e:50:6f:c0:9f:78:eb:08:52:fd:c2:4c:ad:75:0f:44:75:
         e0:cd:14:a0:89:36:d0:b2:6f:a7:46:3f:af:7e:bd:40:84:28:
         1e:c7:13:86:e7:c1:66:4c:bd:67:a4:0f:40:6c:6f:08:0a:53:
         bc:92:0e:a9:8b:81:66:c6
-----BEGIN CERTIFICATE-----
MIIHSDCCBTCgAwIBAgICAsUwDQYJKoZIhvcNAQEFBQAwgbQxCzAJBgNVBAYTAlVT
MQswCQYDVQQIEwJDQTEVMBMGA1UEBxMMU2FuRnJhbmNpc2NvMRUwEwYDVQQKEwxQ
aXhnbG8sIEluYy4xEDAOBgNVBAsTB1ZQTi1DSUUxGjAYBgNVBAMTEXR1bm5lbC5w
aXhnbG8uY29tMRwwGgYDVQQpExNCYWxhIENoYW5kcmFzZWthcmFuMR4wHAYJKoZI
hvcNAQkBFg9iYWxhQHBpeGdsby5jb20wHhcNMTgwMjE0MDY0MTEwWhcNMjgwMjEy
MDY0MTEwWjCBqTELMAkGA1UEBhMCVVMxCzAJBgNVBAgTAkNBMRUwEwYDVQQHEwxT
YW5GcmFuY2lzY28xFTATBgNVBAoTDFBpeGdsbywgSW5jLjEQMA4GA1UECxMHVlBO
LUNJRTEPMA0GA1UEAxMGY2llNzA4MRwwGgYDVQQpExNCYWxhIENoYW5kcmFzZWth
cmFuMR4wHAYJKoZIhvcNAQkBFg9iYWxhQHBpeGdsby5jb20wggIiMA0GCSqGSIb3
DQEBAQUAA4ICDwAwggIKAoICAQDCxqxDDIYSm/O6j3fK/Bk/tSOPHgnzJtou8U/T
TC/cCR2CRdpBUoLkqbl6NnnzVOKDqO1QddvXJVtsmsGYNTUxE25ezlLLLO3yjJSn
hGR68n1+Illm+jfg/tdqKXbZ0Zo+ObVH5MFefMZT9l4k3h3ux42biWeCiDrtWwI4
wD2FJKe1TSzPuY3gUReY/JW+9+JlUtzB6sII5ub+6r0UQF3ObfPlDXOn1eTaXrqG
KAv6BXL+9bbl2HKRsjExxn402aSFfjSw16s6atcV8WfS1/H/h1u7BKnY+/jFU/q1
kT7aQvvIwpv7HFzeTY5YdN8qYL3oko2CBhU97zn6+J0S9myLPzKaKXCl7TCwuViH
vbiOVdb/njPr8H2/L5l2Hb4xwF8P4wv1qexDyjqphMaZeXHq41u5J/6RjNji/k1g
YpUxlRmGGc0uNfAmdmUOqGPS+IdPq7EZPP+nRGJDs2WEYgVzUyc34+JfEk8mwmkX
qwwQAYIVJ5dGBJPnQfl0Gz0y1xw/Mb8Y51Hpp724htng5Grfl1xYJvMCLjl9eCYH
GriN/cIk2Tetcp4uNCJkkdzF5ANGOM/bIe/TsiWf4rxlJ6rS/3wjzYT25WInuUsJ
vXd3BiBHN6+v003i5LUNvAusDywb5fkB74s0gz8kcZRzZa1hoUVRN8GIQ7ltFlMY
8RB8rwIDAQABo4IBazCCAWcwCQYDVR0TBAIwADAtBglghkgBhvhCAQ0EIBYeRWFz
eS1SU0EgR2VuZXJhdGVkIENlcnRpZmljYXRlMB0GA1UdDgQWBBSbbIaqOukQTC7p
jlPv3ZoM1v0xIzCB6QYDVR0jBIHhMIHegBTvOI0UUFinW02cF3L837msp1GwEKGB
uqSBtzCBtDELMAkGA1UEBhMCVVMxCzAJBgNVBAgTAkNBMRUwEwYDVQQHEwxTYW5G
cmFuY2lzY28xFTATBgNVBAoTDFBpeGdsbywgSW5jLjEQMA4GA1UECxMHVlBOLUNJ
RTEaMBgGA1UEAxMRdHVubmVsLnBpeGdsby5jb20xHDAaBgNVBCkTE0JhbGEgQ2hh
bmRyYXNla2FyYW4xHjAcBgkqhkiG9w0BCQEWD2JhbGFAcGl4Z2xvLmNvbYIJAKbb
xoOA5qB5MBMGA1UdJQQMMAoGCCsGAQUFBwMCMAsGA1UdDwQEAwIHgDANBgkqhkiG
9w0BAQUFAAOCAgEAoHBjMCjYnRy+NEW7Mv+xRT29NLc7cIfULbnlfcWuUMQv6tF2
864otHNGeoRiV+BdXbB2BBxIYdy4qEPlFuVsnY0QcTROoX4hFI1hEZ7N9rEKJFdM
UfwzLg3GYGhJ/yssVahjQY+vrp7+X06LQmE/UaMfr1G9SqVPaux571JdOlDGTeiX
UWIgqvgnoy10oXObx43f23c5bZg3VG6fBSAq8ddHTeMTETpFuyK8m4ExZXYtd7rv
0D83L31HoBYMPEGlYa9IbHy+pKMCqwMnbn/X/7AdOyam2fxlPP8O3bThTh/B14sM
0Irw1uPlPOvvnqQ+sglO2Mxao0av8ZxlXEUMAEpsaEBl1znfOTkktp0wrvePO0jx
NPiYElCqzt2uH9Biw1nEkZFczo95D+9a9R5Z61CT/5X0bo+UcquZs9gnZlc1Kr94
OiScZiIqHNcMj//rnrYCmHu9Swe/zfAgzLGnW2jFomCC6jRYrkkHAByo7s/5v45n
ok/ZQBqdZL3b8PRplaONOC+QBK78F4clge8Z6Q+gvplDsWEsIHapDxNfEFw2JQ+4
98aMzxjR7jg29JLmdthGoXvgjHrvP+Gw/NCJ3wJTcz5Qb8CfeOsIUv3CTK11D0R1
4M0UoIk20LJvp0Y/r369QIQoHscThufBZky9Z6QPQGxvCApTvJIOqYuBZsY=
-----END CERTIFICATE-----
