Certificate:
    Data:
        Version: 3 (0x2)
        Serial Number: 710 (0x2c6)
    Signature Algorithm: sha1WithRSAEncryption
        Issuer: C=US, ST=CA, L=SanFrancisco, O=Pixglo, Inc., OU=VPN-CIE, CN=tunnel.pixglo.com/name=Bala Chandrasekaran/emailAddress=bala@pixglo.com
        Validity
            Not Before: Feb 14 06:41:12 2018 GMT
            Not After : Feb 12 06:41:12 2028 GMT
        Subject: C=US, ST=CA, L=SanFrancisco, O=Pixglo, Inc., OU=VPN-CIE, CN=cie709/name=Bala Chandrasekaran/emailAddress=bala@pixglo.com
        Subject Public Key Info:
            Public Key Algorithm: rsaEncryption
                Public-Key: (4096 bit)
                Modulus:
                    00:cb:ce:f5:e6:54:26:b2:0b:93:fc:66:34:97:19:
                    22:4a:fe:ef:1f:f7:bf:fc:14:44:96:47:ec:86:b4:
                    6d:dd:50:6a:9d:02:e8:fc:9d:52:97:ca:57:3b:e3:
                    08:87:9f:e7:53:41:3e:ca:fa:97:2a:69:17:ab:35:
                    79:51:fc:18:17:3e:31:01:2d:0d:c9:b4:45:7b:86:
                    c5:d2:56:34:33:34:f3:f8:cb:4e:85:f5:f0:ab:11:
                    4c:a4:c7:21:c9:f4:78:e1:9e:df:e6:df:58:bc:d2:
                    dc:24:eb:0e:b1:49:08:b3:a5:48:1c:b6:54:a4:aa:
                    74:99:88:aa:f3:4f:5f:02:1a:7e:cf:d6:5e:0d:f2:
                    3b:b6:9b:fb:80:e1:1b:d9:c7:27:e5:ba:f8:91:f4:
                    50:7f:86:45:cc:bd:83:8f:b0:b9:86:b9:8c:c5:15:
                    3a:c9:23:18:19:10:3c:c3:d2:dd:a0:f4:a8:91:7b:
                    c6:e5:86:fb:d2:6f:a6:6f:17:f3:24:80:b8:9a:5e:
                    65:dc:f5:3b:fc:3a:c6:1d:5e:c1:3f:02:ec:ca:80:
                    cf:78:60:68:2b:6d:ba:bc:2f:ea:aa:51:c1:6f:36:
                    41:1c:d7:54:3f:a0:2b:b4:91:e2:7c:9c:6b:97:83:
                    26:e5:be:47:3b:27:64:1d:df:a7:e2:c8:b6:6a:12:
                    16:70:91:8c:a8:e8:30:a1:f1:e5:aa:1f:35:2a:9a:
                    45:9b:7a:de:23:c5:dc:3a:63:57:c0:e4:9a:52:87:
                    6a:cc:58:84:9e:3a:10:f3:03:7b:df:ad:30:be:8d:
                    90:13:c6:e0:f0:9b:4d:47:6e:11:60:2b:f4:9e:9f:
                    37:75:3e:6a:78:5d:44:70:25:fb:81:13:2a:3e:20:
                    dc:4a:0a:70:e1:6a:f9:1a:d2:ad:c3:84:4d:67:10:
                    ab:3d:ae:39:4d:34:9d:04:13:41:2c:4b:fd:db:84:
                    a0:f4:ee:e3:fb:ea:60:68:3b:bf:17:2d:c1:d3:f4:
                    9b:9a:6d:3f:a3:7a:8e:61:cf:a7:a1:2a:f9:89:99:
                    73:54:12:54:ae:b9:fa:ea:18:b4:7a:12:9c:81:21:
                    31:c9:13:66:ea:61:0d:0f:c8:08:1e:dc:54:6c:99:
                    1c:97:34:f8:ce:07:2a:a8:ed:1f:52:ef:0c:a3:c4:
                    18:26:70:26:26:d4:c0:7c:42:0e:09:1d:e6:4e:f3:
                    72:09:cd:c4:30:2b:d2:05:2c:5a:07:29:26:6b:ac:
                    3b:6c:c4:8f:87:d4:e1:a7:8b:ac:46:c6:4b:46:19:
                    3b:cc:aa:86:70:1e:42:1a:60:03:a2:fa:01:b9:d0:
                    c7:c9:f8:21:32:09:6e:83:f5:d6:d9:8b:51:44:e7:
                    0d:13:e9
                Exponent: 65537 (0x10001)
        X509v3 extensions:
            X509v3 Basic Constraints: 
                CA:FALSE
            Netscape Comment: 
                Easy-RSA Generated Certificate
            X509v3 Subject Key Identifier: 
                FF:3E:88:7F:CB:2E:87:B5:13:70:CC:2A:63:81:F5:D6:03:EB:8B:9F
            X509v3 Authority Key Identifier: 
                keyid:EF:38:8D:14:50:58:A7:5B:4D:9C:17:72:FC:DF:B9:AC:A7:51:B0:10
                DirName:/C=US/ST=CA/L=SanFrancisco/O=Pixglo, Inc./OU=VPN-CIE/CN=tunnel.pixglo.com/name=Bala Chandrasekaran/emailAddress=bala@pixglo.com
                serial:A6:DB:C6:83:80:E6:A0:79

            X509v3 Extended Key Usage: 
                TLS Web Client Authentication
            X509v3 Key Usage: 
                Digital Signature
    Signature Algorithm: sha1WithRSAEncryption
         42:9e:9f:7c:d9:ba:7b:8a:39:63:7f:2a:22:9a:e4:fa:ff:06:
         c8:06:10:6d:e4:55:a0:ff:9f:a5:e2:36:76:a2:6e:08:4c:79:
         86:03:21:e0:f2:f5:ce:f3:2c:0e:37:6e:21:ea:70:9b:19:fc:
         13:5f:e8:21:1c:4f:9e:80:3a:bc:1d:b7:d0:b9:dd:21:d4:34:
         fd:68:dc:a0:82:92:23:ab:a3:1f:b9:de:5f:79:66:3c:e0:61:
         1a:ae:90:3e:7d:12:2b:1b:06:4c:f2:75:e0:92:a7:e0:97:cd:
         1f:dc:c6:05:ee:b4:e5:2a:bc:c8:64:2b:2f:e7:02:3c:de:1d:
         cd:85:3f:4e:62:ea:75:76:2e:38:2e:a7:39:89:7f:c0:ad:68:
         ed:e0:e3:cc:f7:ce:35:6c:39:3c:9d:95:60:0d:0f:d4:30:d1:
         a0:45:d0:1b:c3:f3:1f:58:34:03:77:06:71:18:ac:bd:22:f8:
         f5:15:33:fa:84:75:c4:17:91:ce:22:1e:42:f3:2f:52:40:08:
         52:51:93:57:67:e6:48:e3:30:1d:53:ae:3f:07:2e:f1:6b:22:
         fe:b8:d7:7e:cb:3b:b9:0c:79:4a:77:cd:72:32:47:e3:d8:e0:
         94:02:4d:2f:6b:df:a7:22:32:dc:6d:07:be:38:30:68:6a:51:
         b5:51:86:3d:dc:98:e6:ba:b7:6f:43:63:3e:7c:28:10:54:43:
         98:45:52:c0:e7:c6:2c:45:85:eb:4f:a6:8e:11:31:ea:3b:23:
         b4:d2:e3:a7:47:97:e0:20:18:0f:f6:f2:29:9a:bf:78:70:e2:
         09:b5:f4:3e:df:c2:1f:cd:27:b4:98:43:47:95:46:f6:4c:55:
         66:99:9d:af:71:2d:1e:53:44:d2:e1:96:d3:75:a5:f5:2c:d8:
         f5:5e:32:a9:88:84:34:69:14:6e:b7:62:72:d0:1d:2f:a6:dc:
         52:9c:90:b3:58:24:df:c4:91:71:69:58:ea:f7:13:d2:0e:c9:
         1a:b9:8d:a4:25:c5:5b:42:e9:a4:cd:bb:f5:bd:71:cd:32:92:
         5a:db:64:ab:c8:dc:80:de:76:ea:72:cd:f0:7d:38:d4:9b:54:
         4e:45:0a:af:1a:a9:8e:cb:3a:4e:97:3a:2f:8b:55:55:44:36:
         86:37:0d:bb:d6:9c:73:c0:00:03:45:5f:51:a4:2f:f8:f4:1b:
         b7:de:a3:0c:fc:59:76:30:60:83:6d:b6:81:f0:b6:d1:87:1f:
         c9:44:fb:4d:a1:16:40:ae:e1:be:d5:c3:bd:e0:98:42:86:bd:
         d6:30:b8:0c:5f:94:24:93:e9:b5:2c:83:cc:7f:ba:3f:57:e0:
         33:05:06:f9:b8:ce:5e:32
-----BEGIN CERTIFICATE-----
MIIHSDCCBTCgAwIBAgICAsYwDQYJKoZIhvcNAQEFBQAwgbQxCzAJBgNVBAYTAlVT
MQswCQYDVQQIEwJDQTEVMBMGA1UEBxMMU2FuRnJhbmNpc2NvMRUwEwYDVQQKEwxQ
aXhnbG8sIEluYy4xEDAOBgNVBAsTB1ZQTi1DSUUxGjAYBgNVBAMTEXR1bm5lbC5w
aXhnbG8uY29tMRwwGgYDVQQpExNCYWxhIENoYW5kcmFzZWthcmFuMR4wHAYJKoZI
hvcNAQkBFg9iYWxhQHBpeGdsby5jb20wHhcNMTgwMjE0MDY0MTEyWhcNMjgwMjEy
MDY0MTEyWjCBqTELMAkGA1UEBhMCVVMxCzAJBgNVBAgTAkNBMRUwEwYDVQQHEwxT
YW5GcmFuY2lzY28xFTATBgNVBAoTDFBpeGdsbywgSW5jLjEQMA4GA1UECxMHVlBO
LUNJRTEPMA0GA1UEAxMGY2llNzA5MRwwGgYDVQQpExNCYWxhIENoYW5kcmFzZWth
cmFuMR4wHAYJKoZIhvcNAQkBFg9iYWxhQHBpeGdsby5jb20wggIiMA0GCSqGSIb3
DQEBAQUAA4ICDwAwggIKAoICAQDLzvXmVCayC5P8ZjSXGSJK/u8f97/8FESWR+yG
tG3dUGqdAuj8nVKXylc74wiHn+dTQT7K+pcqaRerNXlR/BgXPjEBLQ3JtEV7hsXS
VjQzNPP4y06F9fCrEUykxyHJ9Hjhnt/m31i80twk6w6xSQizpUgctlSkqnSZiKrz
T18CGn7P1l4N8ju2m/uA4RvZxyfluviR9FB/hkXMvYOPsLmGuYzFFTrJIxgZEDzD
0t2g9KiRe8blhvvSb6ZvF/MkgLiaXmXc9Tv8OsYdXsE/AuzKgM94YGgrbbq8L+qq
UcFvNkEc11Q/oCu0keJ8nGuXgyblvkc7J2Qd36fiyLZqEhZwkYyo6DCh8eWqHzUq
mkWbet4jxdw6Y1fA5JpSh2rMWISeOhDzA3vfrTC+jZATxuDwm01HbhFgK/Senzd1
Pmp4XURwJfuBEyo+INxKCnDhavka0q3DhE1nEKs9rjlNNJ0EE0EsS/3bhKD07uP7
6mBoO78XLcHT9JuabT+jeo5hz6ehKvmJmXNUElSuufrqGLR6EpyBITHJE2bqYQ0P
yAge3FRsmRyXNPjOByqo7R9S7wyjxBgmcCYm1MB8Qg4JHeZO83IJzcQwK9IFLFoH
KSZrrDtsxI+H1OGni6xGxktGGTvMqoZwHkIaYAOi+gG50MfJ+CEyCW6D9dbZi1FE
5w0T6QIDAQABo4IBazCCAWcwCQYDVR0TBAIwADAtBglghkgBhvhCAQ0EIBYeRWFz
eS1SU0EgR2VuZXJhdGVkIENlcnRpZmljYXRlMB0GA1UdDgQWBBT/Poh/yy6HtRNw
zCpjgfXWA+uLnzCB6QYDVR0jBIHhMIHegBTvOI0UUFinW02cF3L837msp1GwEKGB
uqSBtzCBtDELMAkGA1UEBhMCVVMxCzAJBgNVBAgTAkNBMRUwEwYDVQQHEwxTYW5G
cmFuY2lzY28xFTATBgNVBAoTDFBpeGdsbywgSW5jLjEQMA4GA1UECxMHVlBOLUNJ
RTEaMBgGA1UEAxMRdHVubmVsLnBpeGdsby5jb20xHDAaBgNVBCkTE0JhbGEgQ2hh
bmRyYXNla2FyYW4xHjAcBgkqhkiG9w0BCQEWD2JhbGFAcGl4Z2xvLmNvbYIJAKbb
xoOA5qB5MBMGA1UdJQQMMAoGCCsGAQUFBwMCMAsGA1UdDwQEAwIHgDANBgkqhkiG
9w0BAQUFAAOCAgEAQp6ffNm6e4o5Y38qIprk+v8GyAYQbeRVoP+fpeI2dqJuCEx5
hgMh4PL1zvMsDjduIepwmxn8E1/oIRxPnoA6vB230LndIdQ0/WjcoIKSI6ujH7ne
X3lmPOBhGq6QPn0SKxsGTPJ14JKn4JfNH9zGBe605Sq8yGQrL+cCPN4dzYU/TmLq
dXYuOC6nOYl/wK1o7eDjzPfONWw5PJ2VYA0P1DDRoEXQG8PzH1g0A3cGcRisvSL4
9RUz+oR1xBeRziIeQvMvUkAIUlGTV2fmSOMwHVOuPwcu8Wsi/rjXfss7uQx5SnfN
cjJH49jglAJNL2vfpyIy3G0HvjgwaGpRtVGGPdyY5rq3b0NjPnwoEFRDmEVSwOfG
LEWF60+mjhEx6jsjtNLjp0eX4CAYD/byKZq/eHDiCbX0Pt/CH80ntJhDR5VG9kxV
Zpmdr3EtHlNE0uGW03Wl9SzY9V4yqYiENGkUbrdictAdL6bcUpyQs1gk38SRcWlY
6vcT0g7JGrmNpCXFW0LppM279b1xzTKSWttkq8jcgN526nLN8H041JtUTkUKrxqp
jss6Tpc6L4tVVUQ2hjcNu9acc8AAA0VfUaQv+PQbt96jDPxZdjBgg222gfC20Ycf
yUT7TaEWQK7hvtXDveCYQoa91jC4DF+UJJPptSyDzH+6P1fgMwUG+bjOXjI=
-----END CERTIFICATE-----
