Certificate:
    Data:
        Version: 3 (0x2)
        Serial Number: 711 (0x2c7)
    Signature Algorithm: sha1WithRSAEncryption
        Issuer: C=US, ST=CA, L=SanFrancisco, O=Pixglo, Inc., OU=VPN-CIE, CN=tunnel.pixglo.com/name=Bala Chandrasekaran/emailAddress=bala@pixglo.com
        Validity
            Not Before: Feb 14 06:41:13 2018 GMT
            Not After : Feb 12 06:41:13 2028 GMT
        Subject: C=US, ST=CA, L=SanFrancisco, O=Pixglo, Inc., OU=VPN-CIE, CN=cie710/name=Bala Chandrasekaran/emailAddress=bala@pixglo.com
        Subject Public Key Info:
            Public Key Algorithm: rsaEncryption
                Public-Key: (4096 bit)
                Modulus:
                    00:c2:30:e1:44:15:85:a1:e4:5e:d2:f9:93:57:9a:
                    54:43:23:4c:0a:9e:e2:69:26:31:e6:1b:cc:d3:e8:
                    70:67:21:26:a9:08:32:e2:4a:c7:84:2d:94:fb:e3:
                    12:bf:2c:30:a9:e8:6f:c6:00:3b:4b:a6:f5:aa:d3:
                    3a:6b:50:4a:84:2d:cf:59:f5:b6:92:a7:d5:94:86:
                    49:1a:50:49:02:48:56:e4:22:c1:e8:29:bb:e9:f4:
                    8f:1a:2a:3d:5b:60:b0:25:4a:e5:e1:44:fa:34:92:
                    a9:68:94:80:ab:64:19:48:e3:50:e9:81:e0:cb:40:
                    f8:dc:d5:07:f6:64:e1:91:ee:d0:ee:1f:17:92:33:
                    ae:36:71:e9:58:6c:e1:a0:de:86:fd:e4:e9:86:d1:
                    62:90:26:d3:c2:0a:71:5c:8e:35:ec:ec:b4:6b:b6:
                    16:c0:89:6e:c2:a7:aa:79:d4:fe:88:8c:7d:b6:5b:
                    30:aa:de:51:53:b8:38:19:a1:05:16:d6:17:31:7d:
                    a8:81:1f:38:59:f7:3a:c5:47:01:3e:3c:d9:3e:8a:
                    f5:be:97:8c:19:01:ad:73:fe:a2:03:df:0d:da:f1:
                    1b:16:41:a5:8a:ea:36:0d:ec:7e:bb:07:93:c4:3f:
                    40:72:ad:3f:95:5d:b6:df:bd:df:83:6c:d7:f3:a5:
                    49:1e:54:f7:7e:bd:d8:52:20:39:b7:d5:ef:68:bd:
                    11:46:82:9a:9e:db:fb:10:3f:5a:f2:62:c0:2e:fc:
                    19:96:71:12:e7:38:75:6d:02:78:2f:50:08:02:d5:
                    e9:4e:c8:b4:02:fb:d4:58:75:a6:94:f6:7d:a8:c1:
                    1d:57:23:5d:d3:cb:64:06:a0:25:d9:72:80:eb:1f:
                    00:ac:b2:73:78:6c:4e:60:ea:56:7a:ef:f2:6b:b1:
                    ad:4a:3f:12:2c:a7:33:9b:03:ea:99:34:ce:ba:f4:
                    47:2a:21:0d:e1:e3:fe:8d:fe:ed:7e:a4:47:9e:b0:
                    63:51:bd:d9:dd:2f:9f:cd:71:e3:25:14:71:ad:40:
                    fb:0b:8a:68:2d:aa:da:a7:5b:20:c5:9b:d0:2e:71:
                    32:de:5e:cf:f6:83:68:b8:92:e4:07:9b:55:09:b8:
                    c2:e4:1a:1b:04:1b:1c:e4:4d:dd:e3:60:ee:ec:e8:
                    17:24:3c:06:93:ce:b7:78:9a:26:08:f3:49:91:0b:
                    62:d4:33:f6:65:37:9e:56:11:b3:92:7c:3a:25:60:
                    32:77:9c:50:b2:e7:d4:d4:5e:cc:ae:06:f8:1c:be:
                    9b:9a:66:66:89:cb:2b:51:74:29:30:02:47:f8:5b:
                    02:92:6c:c7:93:a5:e4:2a:b6:59:9e:7f:de:42:c8:
                    d2:05:1f
                Exponent: 65537 (0x10001)
        X509v3 extensions:
            X509v3 Basic Constraints: 
                CA:FALSE
            Netscape Comment: 
                Easy-RSA Generated Certificate
            X509v3 Subject Key Identifier: 
                52:A5:56:E6:03:B5:91:C3:CC:F6:87:3B:5E:A1:5E:90:75:47:A1:49
            X509v3 Authority Key Identifier: 
                keyid:EF:38:8D:14:50:58:A7:5B:4D:9C:17:72:FC:DF:B9:AC:A7:51:B0:10
                DirName:/C=US/ST=CA/L=SanFrancisco/O=Pixglo, Inc./OU=VPN-CIE/CN=tunnel.pixglo.com/name=Bala Chandrasekaran/emailAddress=bala@pixglo.com
                serial:A6:DB:C6:83:80:E6:A0:79

            X509v3 Extended Key Usage: 
                TLS Web Client Authentication
            X509v3 Key Usage: 
                Digital Signature
    Signature Algorithm: sha1WithRSAEncryption
         3c:36:85:1f:c4:47:c6:42:f9:bc:23:f8:80:c9:f7:92:43:65:
         fb:91:3d:03:4e:46:da:02:62:cf:be:f8:7e:00:65:5f:52:ca:
         94:a0:f9:c4:06:73:bb:d1:cb:e4:90:01:cf:4a:6e:bd:64:c7:
         e9:27:9a:7c:a8:59:5b:ca:d7:ce:3b:bc:9d:c6:b7:60:ef:44:
         73:e6:98:e8:76:ab:30:a3:22:f0:61:dc:65:34:2d:0d:cb:19:
         b1:7c:a5:d3:51:0f:2a:43:8c:9f:2d:f6:4d:a6:1a:fa:85:fd:
         22:2f:0d:45:42:0e:b8:43:7a:94:c5:da:af:85:71:f6:bb:64:
         9c:d0:32:fd:e6:56:fd:a7:4b:12:6e:8b:30:0a:da:d3:a4:bf:
         36:95:5b:10:c0:13:7d:f3:d3:2c:d5:ff:f4:4e:36:12:21:9a:
         12:6b:45:89:a8:35:13:c1:28:9d:af:e0:fa:d5:0c:16:a8:1c:
         a5:a0:8b:c1:1b:2b:55:97:8d:ed:51:8a:e2:aa:f2:98:e1:d3:
         52:4a:1c:81:15:2d:75:05:aa:44:79:12:57:df:ff:24:f7:e7:
         27:a8:3b:4e:4a:3d:15:ec:24:36:63:64:98:82:88:bd:4d:80:
         84:19:0a:5f:66:2b:5f:29:13:74:dc:9d:85:1b:82:4f:c7:99:
         bd:15:73:7c:c6:6f:0a:d9:82:ed:9f:da:75:94:0d:69:0d:b4:
         79:e9:1a:3c:4e:c1:e4:b9:78:a0:94:76:40:46:4e:03:a1:c6:
         a4:4b:8a:35:67:fa:b7:b2:d0:42:bc:81:0d:f5:5a:bc:d6:ea:
         31:b5:ba:77:1c:25:6c:e9:e6:2b:87:29:2d:40:02:60:64:26:
         1d:d1:66:19:b4:05:43:98:5c:4c:45:f5:5d:0b:20:ec:77:21:
         48:86:8a:e9:9b:93:63:4a:37:16:52:f0:52:1e:f3:a4:70:93:
         23:de:df:a0:22:aa:04:6f:83:e9:2e:23:bb:20:ea:67:da:8f:
         6c:66:de:04:3b:bd:d1:22:04:d9:77:1b:3e:a2:34:fe:21:a3:
         7e:89:75:70:d6:e7:fe:4b:1c:96:89:67:fb:a2:00:e9:2e:82:
         21:1c:65:77:3e:dd:99:a6:da:52:8e:4d:08:ae:f7:12:c6:87:
         3e:89:34:7e:bf:d9:98:21:c5:be:85:d8:a1:d6:66:37:54:8c:
         88:5d:4f:06:60:54:3a:15:29:af:94:ff:0b:b7:ff:d9:23:1b:
         3a:ad:0c:b3:00:53:0f:37:d2:b1:1b:e9:e2:34:28:0e:20:b7:
         ef:20:23:43:a2:8c:47:66:e3:a5:b9:3b:38:3d:9b:34:d5:65:
         3d:1e:90:18:50:ae:8e:d0
-----BEGIN CERTIFICATE-----
MIIHSDCCBTCgAwIBAgICAscwDQYJKoZIhvcNAQEFBQAwgbQxCzAJBgNVBAYTAlVT
MQswCQYDVQQIEwJDQTEVMBMGA1UEBxMMU2FuRnJhbmNpc2NvMRUwEwYDVQQKEwxQ
aXhnbG8sIEluYy4xEDAOBgNVBAsTB1ZQTi1DSUUxGjAYBgNVBAMTEXR1bm5lbC5w
aXhnbG8uY29tMRwwGgYDVQQpExNCYWxhIENoYW5kcmFzZWthcmFuMR4wHAYJKoZI
hvcNAQkBFg9iYWxhQHBpeGdsby5jb20wHhcNMTgwMjE0MDY0MTEzWhcNMjgwMjEy
MDY0MTEzWjCBqTELMAkGA1UEBhMCVVMxCzAJBgNVBAgTAkNBMRUwEwYDVQQHEwxT
YW5GcmFuY2lzY28xFTATBgNVBAoTDFBpeGdsbywgSW5jLjEQMA4GA1UECxMHVlBO
LUNJRTEPMA0GA1UEAxMGY2llNzEwMRwwGgYDVQQpExNCYWxhIENoYW5kcmFzZWth
cmFuMR4wHAYJKoZIhvcNAQkBFg9iYWxhQHBpeGdsby5jb20wggIiMA0GCSqGSIb3
DQEBAQUAA4ICDwAwggIKAoICAQDCMOFEFYWh5F7S+ZNXmlRDI0wKnuJpJjHmG8zT
6HBnISapCDLiSseELZT74xK/LDCp6G/GADtLpvWq0zprUEqELc9Z9baSp9WUhkka
UEkCSFbkIsHoKbvp9I8aKj1bYLAlSuXhRPo0kqlolICrZBlI41DpgeDLQPjc1Qf2
ZOGR7tDuHxeSM642celYbOGg3ob95OmG0WKQJtPCCnFcjjXs7LRrthbAiW7Cp6p5
1P6IjH22WzCq3lFTuDgZoQUW1hcxfaiBHzhZ9zrFRwE+PNk+ivW+l4wZAa1z/qID
3w3a8RsWQaWK6jYN7H67B5PEP0ByrT+VXbbfvd+DbNfzpUkeVPd+vdhSIDm31e9o
vRFGgpqe2/sQP1ryYsAu/BmWcRLnOHVtAngvUAgC1elOyLQC+9RYdaaU9n2owR1X
I13Ty2QGoCXZcoDrHwCssnN4bE5g6lZ67/Jrsa1KPxIspzObA+qZNM669EcqIQ3h
4/6N/u1+pEeesGNRvdndL5/NceMlFHGtQPsLimgtqtqnWyDFm9AucTLeXs/2g2i4
kuQHm1UJuMLkGhsEGxzkTd3jYO7s6BckPAaTzrd4miYI80mRC2LUM/ZlN55WEbOS
fDolYDJ3nFCy59TUXsyuBvgcvpuaZmaJyytRdCkwAkf4WwKSbMeTpeQqtlmef95C
yNIFHwIDAQABo4IBazCCAWcwCQYDVR0TBAIwADAtBglghkgBhvhCAQ0EIBYeRWFz
eS1SU0EgR2VuZXJhdGVkIENlcnRpZmljYXRlMB0GA1UdDgQWBBRSpVbmA7WRw8z2
hzteoV6QdUehSTCB6QYDVR0jBIHhMIHegBTvOI0UUFinW02cF3L837msp1GwEKGB
uqSBtzCBtDELMAkGA1UEBhMCVVMxCzAJBgNVBAgTAkNBMRUwEwYDVQQHEwxTYW5G
cmFuY2lzY28xFTATBgNVBAoTDFBpeGdsbywgSW5jLjEQMA4GA1UECxMHVlBOLUNJ
RTEaMBgGA1UEAxMRdHVubmVsLnBpeGdsby5jb20xHDAaBgNVBCkTE0JhbGEgQ2hh
bmRyYXNla2FyYW4xHjAcBgkqhkiG9w0BCQEWD2JhbGFAcGl4Z2xvLmNvbYIJAKbb
xoOA5qB5MBMGA1UdJQQMMAoGCCsGAQUFBwMCMAsGA1UdDwQEAwIHgDANBgkqhkiG
9w0BAQUFAAOCAgEAPDaFH8RHxkL5vCP4gMn3kkNl+5E9A05G2gJiz774fgBlX1LK
lKD5xAZzu9HL5JABz0puvWTH6SeafKhZW8rXzju8nca3YO9Ec+aY6HarMKMi8GHc
ZTQtDcsZsXyl01EPKkOMny32TaYa+oX9Ii8NRUIOuEN6lMXar4Vx9rtknNAy/eZW
/adLEm6LMAra06S/NpVbEMATffPTLNX/9E42EiGaEmtFiag1E8Eona/g+tUMFqgc
paCLwRsrVZeN7VGK4qrymOHTUkocgRUtdQWqRHkSV9//JPfnJ6g7Tko9FewkNmNk
mIKIvU2AhBkKX2YrXykTdNydhRuCT8eZvRVzfMZvCtmC7Z/adZQNaQ20eekaPE7B
5Ll4oJR2QEZOA6HGpEuKNWf6t7LQQryBDfVavNbqMbW6dxwlbOnmK4cpLUACYGQm
HdFmGbQFQ5hcTEX1XQsg7HchSIaK6ZuTY0o3FlLwUh7zpHCTI97foCKqBG+D6S4j
uyDqZ9qPbGbeBDu90SIE2XcbPqI0/iGjfol1cNbn/kscloln+6IA6S6CIRxldz7d
mabaUo5NCK73EsaHPok0fr/ZmCHFvoXYodZmN1SMiF1PBmBUOhUpr5T/C7f/2SMb
Oq0MswBTDzfSsRvp4jQoDiC37yAjQ6KMR2bjpbk7OD2bNNVlPR6QGFCujtA=
-----END CERTIFICATE-----
