Certificate:
    Data:
        Version: 3 (0x2)
        Serial Number: 712 (0x2c8)
    Signature Algorithm: sha1WithRSAEncryption
        Issuer: C=US, ST=CA, L=SanFrancisco, O=Pixglo, Inc., OU=VPN-CIE, CN=tunnel.pixglo.com/name=Bala Chandrasekaran/emailAddress=bala@pixglo.com
        Validity
            Not Before: Feb 14 06:41:14 2018 GMT
            Not After : Feb 12 06:41:14 2028 GMT
        Subject: C=US, ST=CA, L=SanFrancisco, O=Pixglo, Inc., OU=VPN-CIE, CN=cie711/name=Bala Chandrasekaran/emailAddress=bala@pixglo.com
        Subject Public Key Info:
            Public Key Algorithm: rsaEncryption
                Public-Key: (4096 bit)
                Modulus:
                    00:b8:05:02:3e:f3:8b:e1:6f:67:30:57:c7:59:a0:
                    67:33:e9:c8:05:ef:11:22:2d:d5:ef:a2:f5:69:c8:
                    55:40:38:3e:6a:cd:39:97:75:43:a1:99:88:ec:98:
                    7e:98:81:f3:fd:bd:d1:46:ed:d4:67:20:3a:ce:f1:
                    50:af:a0:78:f6:ad:21:4c:2b:17:8a:07:c6:42:77:
                    bc:a1:a3:8b:d0:14:f6:20:87:57:7d:e9:61:d5:f5:
                    b2:8d:52:36:3f:47:bd:51:38:28:0d:63:8e:46:c8:
                    79:c4:61:f8:22:b1:f7:2d:18:a3:7d:2a:2a:69:85:
                    6f:eb:41:03:f5:39:fa:4d:a7:77:3a:2a:00:d1:e4:
                    1a:a3:05:8f:aa:b4:f0:c5:54:c5:7a:b1:38:1c:c6:
                    e3:a2:ca:45:18:6d:17:1b:e8:72:24:25:5e:85:33:
                    18:ba:a7:16:c7:e8:66:e7:40:04:e6:5b:94:c2:78:
                    62:ce:b8:d4:fb:35:4e:1d:d4:25:8f:4c:34:ff:e0:
                    91:9f:81:e9:03:58:92:5d:af:85:f5:2e:57:17:55:
                    fb:24:10:a3:23:48:17:5b:60:e4:1e:17:88:0a:a2:
                    8e:e9:73:e2:af:46:9b:ba:cd:13:44:4e:ad:82:21:
                    e9:96:83:7c:0d:27:1f:49:f2:17:84:43:58:4d:b2:
                    be:df:37:e6:de:5b:ea:43:a5:ed:f7:4b:9f:c2:dc:
                    ce:44:91:b6:de:e4:08:24:1b:0c:b5:e9:98:9e:f2:
                    a7:8a:bc:36:ea:d9:62:94:87:07:c3:b1:e8:71:03:
                    05:24:4e:bc:a3:0e:05:47:ff:ed:bf:59:5a:23:2b:
                    97:c0:37:2e:7d:2c:85:83:7a:16:e3:e7:d9:53:e1:
                    5f:d0:4f:3c:2c:0f:7a:8d:f4:8b:33:8d:a2:16:75:
                    27:86:cb:46:be:dc:5a:e1:af:07:21:d5:2b:ea:ed:
                    ae:e2:12:b0:fb:4a:79:1b:7f:a9:b6:67:37:ca:40:
                    60:d8:b9:ae:3b:b7:50:ba:43:36:5d:25:92:e9:8a:
                    70:b6:ff:41:de:9b:36:d4:48:f6:0e:0c:98:8d:64:
                    b5:a6:95:48:46:aa:da:1a:b9:9a:2c:25:f5:24:27:
                    88:b0:b0:40:c2:b6:3d:e6:a2:0e:8f:15:1e:00:2b:
                    44:aa:41:87:6d:77:f1:22:3f:e5:b3:cb:f9:38:9b:
                    9a:24:15:aa:94:fb:c7:8e:cb:1a:b0:af:c0:fb:51:
                    61:63:56:be:94:97:11:15:27:7f:a1:29:30:96:7d:
                    1e:4c:81:4d:41:1c:0b:4b:8e:5d:ec:91:38:12:50:
                    95:b5:d1:b6:3a:bd:f8:02:54:8f:c4:a0:70:77:07:
                    ff:5a:33
                Exponent: 65537 (0x10001)
        X509v3 extensions:
            X509v3 Basic Constraints: 
                CA:FALSE
            Netscape Comment: 
                Easy-RSA Generated Certificate
            X509v3 Subject Key Identifier: 
                06:6A:25:87:2C:97:BB:DC:9A:AE:84:09:4E:55:53:CD:B6:CB:E8:3E
            X509v3 Authority Key Identifier: 
                keyid:EF:38:8D:14:50:58:A7:5B:4D:9C:17:72:FC:DF:B9:AC:A7:51:B0:10
                DirName:/C=US/ST=CA/L=SanFrancisco/O=Pixglo, Inc./OU=VPN-CIE/CN=tunnel.pixglo.com/name=Bala Chandrasekaran/emailAddress=bala@pixglo.com
                serial:A6:DB:C6:83:80:E6:A0:79

            X509v3 Extended Key Usage: 
                TLS Web Client Authentication
            X509v3 Key Usage: 
                Digital Signature
    Signature Algorithm: sha1WithRSAEncryption
         aa:03:d8:c5:2e:c8:cb:0f:fd:87:26:93:22:01:54:93:0c:ec:
         89:47:da:13:fe:5d:79:ee:a5:c7:77:ce:ed:5d:9c:17:dc:14:
         39:da:f1:89:a1:7b:47:1c:ad:bf:29:73:3d:8e:da:2d:bd:6d:
         8d:54:71:42:e0:7c:da:3b:98:b8:38:49:5e:54:6f:da:da:03:
         b4:63:70:0b:68:ae:18:70:aa:0e:23:15:85:2c:b6:a8:10:f3:
         10:9f:84:d4:bb:7f:3a:c3:eb:a1:3e:f8:ae:ee:90:eb:77:cc:
         16:09:4b:30:53:7d:3d:08:49:eb:fa:63:99:f7:8a:5b:ba:b1:
         1b:9c:07:71:8c:06:c8:87:c8:b0:52:0e:bc:af:6f:be:81:1a:
         68:45:62:d8:8a:c8:4c:06:34:82:31:b1:ae:2d:5b:45:79:f8:
         a6:4a:19:5b:b5:1e:ae:8e:99:65:d2:15:ea:8c:06:67:11:c9:
         5e:8e:ea:59:1e:ad:07:36:f7:60:55:2e:70:d5:18:1e:f6:91:
         a2:34:c1:c4:4d:27:a8:ba:07:38:58:56:e4:f2:93:4c:47:c4:
         d1:c8:cb:17:57:3e:a1:dc:48:d4:d8:6b:71:db:5d:7e:c3:b6:
         96:d4:ff:09:81:31:be:2c:47:2b:35:c8:24:93:5f:95:63:d6:
         c9:c2:88:7b:1e:53:55:95:20:d0:23:c7:ce:13:29:bb:80:2a:
         f4:a5:aa:b6:de:9d:e6:7f:7b:39:78:53:23:64:99:1f:0d:d0:
         51:32:dd:a6:5f:8d:0c:c3:1d:49:d3:71:31:f6:68:55:14:66:
         5b:6b:af:03:24:ea:ae:23:4d:2e:77:94:a1:06:23:b7:e0:64:
         c6:2d:e0:f7:b6:ff:df:e4:6d:c5:93:9a:d5:bc:9f:41:c6:92:
         25:0d:aa:c1:b8:b7:47:2b:59:b9:cf:d0:5e:bd:dd:a6:c3:fa:
         bc:3e:15:83:fb:b8:ef:7a:85:e0:ee:fe:4a:8e:66:89:2d:5f:
         42:00:33:d0:51:89:8a:bd:4a:02:c1:bb:6d:29:70:da:0b:20:
         84:49:7e:3c:e8:f2:a1:f8:5b:13:97:1c:d2:2a:32:9a:e9:63:
         19:40:55:0b:51:8d:de:0e:b9:c7:f9:24:8e:3c:4b:e3:a2:19:
         73:8b:b5:a2:ee:ff:aa:e2:93:0d:4e:ac:35:3d:d2:41:a1:55:
         f4:42:fa:a1:70:d7:6c:47:78:3e:b6:43:ad:7c:e6:f4:79:63:
         f4:06:cb:f8:2f:c1:7a:a2:4f:9b:b7:81:f0:52:07:cd:da:e0:
         cc:2f:96:55:34:cc:3f:7b:83:63:a8:c9:0b:b2:a3:56:1d:ae:
         40:20:0c:9e:76:77:db:58
-----BEGIN CERTIFICATE-----
MIIHSDCCBTCgAwIBAgICAsgwDQYJKoZIhvcNAQEFBQAwgbQxCzAJBgNVBAYTAlVT
MQswCQYDVQQIEwJDQTEVMBMGA1UEBxMMU2FuRnJhbmNpc2NvMRUwEwYDVQQKEwxQ
aXhnbG8sIEluYy4xEDAOBgNVBAsTB1ZQTi1DSUUxGjAYBgNVBAMTEXR1bm5lbC5w
aXhnbG8uY29tMRwwGgYDVQQpExNCYWxhIENoYW5kcmFzZWthcmFuMR4wHAYJKoZI
hvcNAQkBFg9iYWxhQHBpeGdsby5jb20wHhcNMTgwMjE0MDY0MTE0WhcNMjgwMjEy
MDY0MTE0WjCBqTELMAkGA1UEBhMCVVMxCzAJBgNVBAgTAkNBMRUwEwYDVQQHEwxT
YW5GcmFuY2lzY28xFTATBgNVBAoTDFBpeGdsbywgSW5jLjEQMA4GA1UECxMHVlBO
LUNJRTEPMA0GA1UEAxMGY2llNzExMRwwGgYDVQQpExNCYWxhIENoYW5kcmFzZWth
cmFuMR4wHAYJKoZIhvcNAQkBFg9iYWxhQHBpeGdsby5jb20wggIiMA0GCSqGSIb3
DQEBAQUAA4ICDwAwggIKAoICAQC4BQI+84vhb2cwV8dZoGcz6cgF7xEiLdXvovVp
yFVAOD5qzTmXdUOhmYjsmH6YgfP9vdFG7dRnIDrO8VCvoHj2rSFMKxeKB8ZCd7yh
o4vQFPYgh1d96WHV9bKNUjY/R71ROCgNY45GyHnEYfgisfctGKN9KipphW/rQQP1
OfpNp3c6KgDR5BqjBY+qtPDFVMV6sTgcxuOiykUYbRcb6HIkJV6FMxi6pxbH6Gbn
QATmW5TCeGLOuNT7NU4d1CWPTDT/4JGfgekDWJJdr4X1LlcXVfskEKMjSBdbYOQe
F4gKoo7pc+KvRpu6zRNETq2CIemWg3wNJx9J8heEQ1hNsr7fN+beW+pDpe33S5/C
3M5Ekbbe5AgkGwy16Zie8qeKvDbq2WKUhwfDsehxAwUkTryjDgVH/+2/WVojK5fA
Ny59LIWDehbj59lT4V/QTzwsD3qN9IszjaIWdSeGy0a+3Frhrwch1Svq7a7iErD7
Snkbf6m2ZzfKQGDYua47t1C6QzZdJZLpinC2/0HemzbUSPYODJiNZLWmlUhGqtoa
uZosJfUkJ4iwsEDCtj3mog6PFR4AK0SqQYdtd/EiP+Wzy/k4m5okFaqU+8eOyxqw
r8D7UWFjVr6UlxEVJ3+hKTCWfR5MgU1BHAtLjl3skTgSUJW10bY6vfgCVI/EoHB3
B/9aMwIDAQABo4IBazCCAWcwCQYDVR0TBAIwADAtBglghkgBhvhCAQ0EIBYeRWFz
eS1SU0EgR2VuZXJhdGVkIENlcnRpZmljYXRlMB0GA1UdDgQWBBQGaiWHLJe73Jqu
hAlOVVPNtsvoPjCB6QYDVR0jBIHhMIHegBTvOI0UUFinW02cF3L837msp1GwEKGB
uqSBtzCBtDELMAkGA1UEBhMCVVMxCzAJBgNVBAgTAkNBMRUwEwYDVQQHEwxTYW5G
cmFuY2lzY28xFTATBgNVBAoTDFBpeGdsbywgSW5jLjEQMA4GA1UECxMHVlBOLUNJ
RTEaMBgGA1UEAxMRdHVubmVsLnBpeGdsby5jb20xHDAaBgNVBCkTE0JhbGEgQ2hh
bmRyYXNla2FyYW4xHjAcBgkqhkiG9w0BCQEWD2JhbGFAcGl4Z2xvLmNvbYIJAKbb
xoOA5qB5MBMGA1UdJQQMMAoGCCsGAQUFBwMCMAsGA1UdDwQEAwIHgDANBgkqhkiG
9w0BAQUFAAOCAgEAqgPYxS7Iyw/9hyaTIgFUkwzsiUfaE/5dee6lx3fO7V2cF9wU
OdrxiaF7RxytvylzPY7aLb1tjVRxQuB82juYuDhJXlRv2toDtGNwC2iuGHCqDiMV
hSy2qBDzEJ+E1Lt/OsProT74ru6Q63fMFglLMFN9PQhJ6/pjmfeKW7qxG5wHcYwG
yIfIsFIOvK9vvoEaaEVi2IrITAY0gjGxri1bRXn4pkoZW7Uero6ZZdIV6owGZxHJ
Xo7qWR6tBzb3YFUucNUYHvaRojTBxE0nqLoHOFhW5PKTTEfE0cjLF1c+odxI1Nhr
cdtdfsO2ltT/CYExvixHKzXIJJNflWPWycKIex5TVZUg0CPHzhMpu4Aq9KWqtt6d
5n97OXhTI2SZHw3QUTLdpl+NDMMdSdNxMfZoVRRmW2uvAyTqriNNLneUoQYjt+Bk
xi3g97b/3+RtxZOa1byfQcaSJQ2qwbi3RytZuc/QXr3dpsP6vD4Vg/u473qF4O7+
So5miS1fQgAz0FGJir1KAsG7bSlw2gsghEl+POjyofhbE5cc0ioymuljGUBVC1GN
3g65x/kkjjxL46IZc4u1ou7/quKTDU6sNT3SQaFV9EL6oXDXbEd4PrZDrXzm9Hlj
9AbL+C/BeqJPm7eB8FIHzdrgzC+WVTTMP3uDY6jJC7KjVh2uQCAMnnZ321g=
-----END CERTIFICATE-----
