Certificate:
    Data:
        Version: 3 (0x2)
        Serial Number: 713 (0x2c9)
    Signature Algorithm: sha1WithRSAEncryption
        Issuer: C=US, ST=CA, L=SanFrancisco, O=Pixglo, Inc., OU=VPN-CIE, CN=tunnel.pixglo.com/name=Bala Chandrasekaran/emailAddress=bala@pixglo.com
        Validity
            Not Before: Feb 14 06:41:15 2018 GMT
            Not After : Feb 12 06:41:15 2028 GMT
        Subject: C=US, ST=CA, L=SanFrancisco, O=Pixglo, Inc., OU=VPN-CIE, CN=cie712/name=Bala Chandrasekaran/emailAddress=bala@pixglo.com
        Subject Public Key Info:
            Public Key Algorithm: rsaEncryption
                Public-Key: (4096 bit)
                Modulus:
                    00:c1:c4:cd:26:4e:41:64:26:05:df:23:70:7b:52:
                    23:a4:51:85:dc:30:8a:52:e8:60:68:15:a7:4d:8a:
                    95:45:67:f8:82:bf:b4:dd:31:da:3d:ae:f5:2d:87:
                    df:54:28:90:fb:ee:4c:8b:b9:79:81:b8:a0:1d:9f:
                    4b:a7:43:3e:ea:1d:c4:ac:64:dc:c0:e9:bf:0f:9e:
                    e7:5f:12:f2:2d:a8:c1:4a:2c:40:ce:cb:85:bb:4c:
                    79:b3:50:92:f5:e5:82:3e:e9:44:c0:43:54:67:ba:
                    e7:d4:85:be:0e:a3:b2:8a:92:85:27:95:ad:bd:d2:
                    ce:9d:87:6f:df:bc:a1:75:cd:07:2f:bd:c6:69:cf:
                    f3:ec:2e:8d:a9:57:09:e5:33:3c:42:56:79:06:e8:
                    28:01:fa:c2:7a:ac:80:0d:15:87:1a:1f:97:d1:3c:
                    8a:1b:a2:14:1a:74:db:4f:2f:51:6b:e8:2e:fc:36:
                    44:07:b4:6a:bb:26:38:f5:94:da:dd:8f:65:75:41:
                    e4:ef:80:68:c1:5f:2e:0e:c7:61:71:5a:e9:8f:e8:
                    43:23:f3:96:26:7a:3a:66:f0:2b:2f:0f:a7:cc:85:
                    e6:0b:e6:da:cd:03:a5:9b:91:5a:98:7f:35:b6:36:
                    e5:d9:86:06:4c:69:d5:96:1d:71:93:fd:50:6d:5c:
                    36:e0:b2:9b:28:7a:8e:1a:b0:9b:57:c1:86:13:70:
                    c3:21:72:52:99:93:ce:ae:a3:5f:79:cc:cd:95:fe:
                    92:67:70:06:a2:cb:ad:e1:4a:4b:05:96:3d:ee:7d:
                    10:ab:2b:6f:f7:f3:63:b2:d7:07:91:4b:90:84:f1:
                    55:b3:5a:43:7f:c8:26:03:fb:4b:23:e1:0f:ed:98:
                    c5:d4:2e:c5:db:91:52:2f:82:65:15:39:f1:3b:d7:
                    c0:bb:c6:d2:6a:9c:bf:cd:96:40:b0:37:3a:0e:ac:
                    b1:bd:3b:eb:93:ca:2f:30:8e:dc:1d:6d:3a:a6:15:
                    16:22:cb:c4:e4:e0:48:58:e6:0a:ef:ad:d9:fa:4d:
                    22:d8:21:84:6e:ea:fb:fd:46:1d:b0:72:df:bb:37:
                    82:35:09:9b:3a:b4:61:bd:f0:0a:fc:ab:c2:27:be:
                    e1:3c:23:cf:1c:61:c2:4f:d5:3d:09:b0:dc:02:18:
                    5c:df:42:a0:1d:9e:a7:02:ab:da:4e:53:04:2a:96:
                    e5:35:fb:5b:72:41:d8:e9:57:c9:61:5e:cb:18:20:
                    6f:12:af:dd:43:f5:73:60:9a:03:58:7e:b8:b2:b9:
                    21:e7:50:d7:bc:c1:21:8c:4c:63:90:db:94:50:0e:
                    ee:9c:44:a0:04:bd:9b:d6:09:d6:d1:1b:1d:a1:03:
                    13:fb:a1
                Exponent: 65537 (0x10001)
        X509v3 extensions:
            X509v3 Basic Constraints: 
                CA:FALSE
            Netscape Comment: 
                Easy-RSA Generated Certificate
            X509v3 Subject Key Identifier: 
                FB:6B:6D:83:17:DA:69:D7:C1:32:19:2C:4A:D4:F1:75:79:A1:EE:AB
            X509v3 Authority Key Identifier: 
                keyid:EF:38:8D:14:50:58:A7:5B:4D:9C:17:72:FC:DF:B9:AC:A7:51:B0:10
                DirName:/C=US/ST=CA/L=SanFrancisco/O=Pixglo, Inc./OU=VPN-CIE/CN=tunnel.pixglo.com/name=Bala Chandrasekaran/emailAddress=bala@pixglo.com
                serial:A6:DB:C6:83:80:E6:A0:79

            X509v3 Extended Key Usage: 
                TLS Web Client Authentication
            X509v3 Key Usage: 
                Digital Signature
    Signature Algorithm: sha1WithRSAEncryption
         63:58:45:0b:08:f0:9f:00:9a:66:b5:c6:9d:2f:07:c6:0e:7e:
         22:12:cd:e1:fd:dd:5f:82:23:6f:a2:35:58:46:5f:0a:39:0c:
         7b:c4:64:6e:d5:8e:4d:4f:61:52:7c:ed:a0:7c:ac:5b:e5:ba:
         03:76:b2:d1:a8:b2:ac:28:46:69:a8:04:6c:22:91:57:a4:e8:
         33:6e:48:12:e5:f7:89:6e:50:54:ab:8a:72:f9:4b:2e:67:ed:
         26:c7:4b:99:44:34:13:e2:aa:54:9d:cc:98:47:e3:a4:a3:60:
         38:d8:b5:b2:5e:1d:41:24:af:4e:73:cf:28:62:38:ca:b6:a3:
         b6:b8:09:85:fd:ce:17:4d:71:71:3f:63:a6:fb:80:18:e4:5e:
         aa:cb:4c:6e:83:7b:83:83:ec:ca:8c:f8:2c:be:44:6e:22:dd:
         7f:a0:9d:d3:7d:12:02:17:57:7e:51:8b:2d:92:18:79:2d:fe:
         37:fc:c8:fe:1d:a9:d4:24:9a:6f:40:dd:cf:e0:c2:14:de:e3:
         e3:8a:09:d3:a3:0b:36:8e:87:05:3a:b2:da:9a:77:21:36:73:
         73:3c:7f:7c:0c:cf:d3:73:3d:ea:95:b9:89:fd:39:22:11:a6:
         68:e9:8c:cb:6f:60:8f:c0:22:88:40:9f:21:bd:34:c9:fc:08:
         8c:1f:a8:1e:1c:63:b5:d5:cb:df:c5:de:35:3e:58:44:5b:a0:
         b8:e9:4c:9b:a8:34:59:98:34:f3:c5:80:de:02:66:77:1f:66:
         b8:cd:d5:c2:4a:1f:b9:73:f8:f3:ad:d0:fe:a7:a6:c2:4d:61:
         7e:14:20:cb:2b:60:eb:98:ee:c4:80:15:e1:32:3c:cd:d2:3d:
         55:e3:a6:a9:d5:d8:20:98:3d:6a:5d:db:02:7f:62:69:9d:1a:
         e3:ba:79:4d:28:43:d3:0e:1a:7f:f8:1a:22:1a:e4:e5:8e:7d:
         bc:ff:ad:39:d2:dd:d2:63:62:b0:f0:5b:fa:eb:aa:b0:36:63:
         a7:e0:ce:b7:16:b3:68:57:65:76:f1:81:ff:69:e5:05:7e:46:
         90:6d:d6:6d:09:69:ef:f2:a5:be:86:a3:1e:8c:cb:ff:76:3b:
         0b:e0:f0:34:12:cc:21:3f:26:ef:85:20:a7:1b:15:b0:98:0e:
         f4:ed:e2:e2:41:0b:13:cd:d7:86:f5:ae:1d:1f:b1:19:16:3f:
         70:e7:12:56:7e:ed:dd:83:e9:06:71:c0:27:70:cc:d2:97:01:
         48:f7:78:ba:20:3e:aa:fd:4a:5d:5d:33:1a:10:6c:58:2b:5f:
         b6:d3:cf:ca:f5:e6:cf:50:e2:cc:d5:c7:c1:03:22:3b:27:03:
         74:a6:e8:b4:c6:c7:8c:ca
-----BEGIN CERTIFICATE-----
MIIHSDCCBTCgAwIBAgICAskwDQYJKoZIhvcNAQEFBQAwgbQxCzAJBgNVBAYTAlVT
MQswCQYDVQQIEwJDQTEVMBMGA1UEBxMMU2FuRnJhbmNpc2NvMRUwEwYDVQQKEwxQ
aXhnbG8sIEluYy4xEDAOBgNVBAsTB1ZQTi1DSUUxGjAYBgNVBAMTEXR1bm5lbC5w
aXhnbG8uY29tMRwwGgYDVQQpExNCYWxhIENoYW5kcmFzZWthcmFuMR4wHAYJKoZI
hvcNAQkBFg9iYWxhQHBpeGdsby5jb20wHhcNMTgwMjE0MDY0MTE1WhcNMjgwMjEy
MDY0MTE1WjCBqTELMAkGA1UEBhMCVVMxCzAJBgNVBAgTAkNBMRUwEwYDVQQHEwxT
YW5GcmFuY2lzY28xFTATBgNVBAoTDFBpeGdsbywgSW5jLjEQMA4GA1UECxMHVlBO
LUNJRTEPMA0GA1UEAxMGY2llNzEyMRwwGgYDVQQpExNCYWxhIENoYW5kcmFzZWth
cmFuMR4wHAYJKoZIhvcNAQkBFg9iYWxhQHBpeGdsby5jb20wggIiMA0GCSqGSIb3
DQEBAQUAA4ICDwAwggIKAoICAQDBxM0mTkFkJgXfI3B7UiOkUYXcMIpS6GBoFadN
ipVFZ/iCv7TdMdo9rvUth99UKJD77kyLuXmBuKAdn0unQz7qHcSsZNzA6b8Pnudf
EvItqMFKLEDOy4W7THmzUJL15YI+6UTAQ1RnuufUhb4Oo7KKkoUnla290s6dh2/f
vKF1zQcvvcZpz/PsLo2pVwnlMzxCVnkG6CgB+sJ6rIANFYcaH5fRPIobohQadNtP
L1Fr6C78NkQHtGq7Jjj1lNrdj2V1QeTvgGjBXy4Ox2FxWumP6EMj85Ymejpm8Csv
D6fMheYL5trNA6WbkVqYfzW2NuXZhgZMadWWHXGT/VBtXDbgspsoeo4asJtXwYYT
cMMhclKZk86uo195zM2V/pJncAaiy63hSksFlj3ufRCrK2/382Oy1weRS5CE8VWz
WkN/yCYD+0sj4Q/tmMXULsXbkVIvgmUVOfE718C7xtJqnL/NlkCwNzoOrLG9O+uT
yi8wjtwdbTqmFRYiy8Tk4EhY5grvrdn6TSLYIYRu6vv9Rh2wct+7N4I1CZs6tGG9
8Ar8q8InvuE8I88cYcJP1T0JsNwCGFzfQqAdnqcCq9pOUwQqluU1+1tyQdjpV8lh
XssYIG8Sr91D9XNgmgNYfriyuSHnUNe8wSGMTGOQ25RQDu6cRKAEvZvWCdbRGx2h
AxP7oQIDAQABo4IBazCCAWcwCQYDVR0TBAIwADAtBglghkgBhvhCAQ0EIBYeRWFz
eS1SU0EgR2VuZXJhdGVkIENlcnRpZmljYXRlMB0GA1UdDgQWBBT7a22DF9pp18Ey
GSxK1PF1eaHuqzCB6QYDVR0jBIHhMIHegBTvOI0UUFinW02cF3L837msp1GwEKGB
uqSBtzCBtDELMAkGA1UEBhMCVVMxCzAJBgNVBAgTAkNBMRUwEwYDVQQHEwxTYW5G
cmFuY2lzY28xFTATBgNVBAoTDFBpeGdsbywgSW5jLjEQMA4GA1UECxMHVlBOLUNJ
RTEaMBgGA1UEAxMRdHVubmVsLnBpeGdsby5jb20xHDAaBgNVBCkTE0JhbGEgQ2hh
bmRyYXNla2FyYW4xHjAcBgkqhkiG9w0BCQEWD2JhbGFAcGl4Z2xvLmNvbYIJAKbb
xoOA5qB5MBMGA1UdJQQMMAoGCCsGAQUFBwMCMAsGA1UdDwQEAwIHgDANBgkqhkiG
9w0BAQUFAAOCAgEAY1hFCwjwnwCaZrXGnS8Hxg5+IhLN4f3dX4Ijb6I1WEZfCjkM
e8RkbtWOTU9hUnztoHysW+W6A3ay0aiyrChGaagEbCKRV6ToM25IEuX3iW5QVKuK
cvlLLmftJsdLmUQ0E+KqVJ3MmEfjpKNgONi1sl4dQSSvTnPPKGI4yrajtrgJhf3O
F01xcT9jpvuAGOReqstMboN7g4Psyoz4LL5EbiLdf6Cd030SAhdXflGLLZIYeS3+
N/zI/h2p1CSab0Ddz+DCFN7j44oJ06MLNo6HBTqy2pp3ITZzczx/fAzP03M96pW5
if05IhGmaOmMy29gj8AiiECfIb00yfwIjB+oHhxjtdXL38XeNT5YRFuguOlMm6g0
WZg088WA3gJmdx9muM3VwkofuXP4863Q/qemwk1hfhQgyytg65juxIAV4TI8zdI9
VeOmqdXYIJg9al3bAn9iaZ0a47p5TShD0w4af/gaIhrk5Y59vP+tOdLd0mNisPBb
+uuqsDZjp+DOtxazaFdldvGB/2nlBX5GkG3WbQlp7/KlvoajHozL/3Y7C+DwNBLM
IT8m74UgpxsVsJgO9O3i4kELE83XhvWuHR+xGRY/cOcSVn7t3YPpBnHAJ3DM0pcB
SPd4uiA+qv1KXV0zGhBsWCtfttPPyvXmz1DizNXHwQMiOycDdKbotMbHjMo=
-----END CERTIFICATE-----
