Certificate:
    Data:
        Version: 3 (0x2)
        Serial Number: 715 (0x2cb)
    Signature Algorithm: sha1WithRSAEncryption
        Issuer: C=US, ST=CA, L=SanFrancisco, O=Pixglo, Inc., OU=VPN-CIE, CN=tunnel.pixglo.com/name=Bala Chandrasekaran/emailAddress=bala@pixglo.com
        Validity
            Not Before: Feb 14 06:41:19 2018 GMT
            Not After : Feb 12 06:41:19 2028 GMT
        Subject: C=US, ST=CA, L=SanFrancisco, O=Pixglo, Inc., OU=VPN-CIE, CN=cie714/name=Bala Chandrasekaran/emailAddress=bala@pixglo.com
        Subject Public Key Info:
            Public Key Algorithm: rsaEncryption
                Public-Key: (4096 bit)
                Modulus:
                    00:d1:5c:b1:1b:a2:85:19:a4:c4:ff:f2:44:6d:e9:
                    e3:89:c7:72:21:f0:83:13:3a:04:86:72:25:9e:de:
                    a8:c1:cb:e2:46:c4:1c:9e:1d:24:79:54:d1:fc:ef:
                    2d:c6:89:19:25:26:c1:b8:b7:8c:8b:a2:7d:5f:2b:
                    5d:a3:7e:9e:45:b5:ea:4b:a9:af:cf:18:84:c8:20:
                    7a:d6:b0:77:b5:8a:57:af:9c:77:6a:b0:97:5e:5a:
                    56:f0:d5:9c:31:c2:bc:af:3b:8e:39:33:58:7c:22:
                    30:81:5a:5c:55:98:34:47:12:26:c3:1a:02:10:30:
                    0b:6a:ce:ac:bb:0d:27:57:ac:66:3c:24:49:74:43:
                    3e:30:07:6c:89:3f:aa:e6:fb:4b:06:18:8d:6b:72:
                    99:b3:4a:63:f7:28:20:f5:f5:7e:b2:4e:ce:a7:b7:
                    93:73:76:40:5f:55:5a:dd:8f:4d:d2:23:9e:09:2b:
                    64:9b:61:e9:b4:04:87:63:52:16:d3:3b:e6:de:2e:
                    32:85:07:a8:b1:4c:8b:e7:38:08:04:64:25:31:0b:
                    0a:9e:ce:17:cc:a5:05:63:6c:a3:d7:1d:4b:6a:6e:
                    a9:08:92:00:83:00:28:4f:87:5a:5c:58:4d:a9:2b:
                    b8:b3:37:e0:47:9c:0f:c5:52:eb:e5:84:d2:18:ac:
                    dc:40:8d:fa:94:78:57:49:ad:6e:d0:64:d0:47:24:
                    07:a0:14:91:e6:ee:f1:6b:70:91:bc:03:66:f8:23:
                    68:87:a1:13:20:90:7e:2e:96:3e:50:4c:56:99:04:
                    d1:50:ac:08:4f:ce:b7:ec:ee:d9:67:d5:5f:ed:54:
                    82:c9:ed:75:09:ae:ab:e6:56:cf:06:2e:a3:3c:cf:
                    dd:35:f0:2b:94:aa:45:7b:15:4e:5c:9b:16:aa:20:
                    3d:97:74:cd:17:90:60:8e:e2:2d:d7:f4:d4:1f:d9:
                    a2:2f:52:75:c6:e0:18:61:62:63:e1:47:9e:54:64:
                    a1:40:bd:47:2a:67:9b:2a:0a:5a:17:1c:77:9f:80:
                    6d:09:99:85:4e:26:82:08:b3:60:9d:0b:ab:75:fb:
                    5d:82:6c:fe:a0:8d:17:79:2c:93:a9:b2:10:91:02:
                    e0:8e:96:80:94:e1:ce:35:88:31:2c:ee:0a:4c:c5:
                    4d:76:8c:da:96:f1:b6:68:67:fb:26:84:cb:26:2f:
                    25:ec:ae:55:bd:34:14:64:54:1b:f9:5a:74:69:35:
                    cc:91:84:07:4f:dd:7c:dd:53:51:9d:ff:37:ae:8e:
                    8c:55:d3:37:12:5a:4d:3d:68:23:72:ab:83:fb:e3:
                    a0:84:3c:45:31:a6:a8:46:69:c6:e4:4c:e0:5d:8f:
                    37:5b:cd
                Exponent: 65537 (0x10001)
        X509v3 extensions:
            X509v3 Basic Constraints: 
                CA:FALSE
            Netscape Comment: 
                Easy-RSA Generated Certificate
            X509v3 Subject Key Identifier: 
                5C:A4:C3:82:75:D2:26:57:75:D2:5B:EB:64:D3:EE:4E:6A:7E:FA:9E
            X509v3 Authority Key Identifier: 
                keyid:EF:38:8D:14:50:58:A7:5B:4D:9C:17:72:FC:DF:B9:AC:A7:51:B0:10
                DirName:/C=US/ST=CA/L=SanFrancisco/O=Pixglo, Inc./OU=VPN-CIE/CN=tunnel.pixglo.com/name=Bala Chandrasekaran/emailAddress=bala@pixglo.com
                serial:A6:DB:C6:83:80:E6:A0:79

            X509v3 Extended Key Usage: 
                TLS Web Client Authentication
            X509v3 Key Usage: 
                Digital Signature
    Signature Algorithm: sha1WithRSAEncryption
         a4:aa:1d:a0:41:8b:f5:d4:6a:64:df:6d:1a:54:01:6b:95:fd:
         c2:ae:d8:da:21:2d:6d:23:bd:2f:47:14:0a:b7:06:50:d2:29:
         11:55:11:9a:c2:7f:4e:88:aa:53:f5:81:99:21:29:1e:d7:ef:
         8e:de:50:de:02:66:f9:e5:f4:b1:09:1f:e4:4c:49:63:ba:2d:
         c8:9d:0b:70:1b:3a:46:14:f1:55:64:48:e3:44:34:41:06:0d:
         33:f9:16:5c:e2:9a:4b:80:b9:65:50:c6:18:9e:e8:21:55:fe:
         39:24:78:be:b9:fc:83:63:d5:5e:4a:a7:da:78:7d:c6:84:48:
         85:da:47:dc:eb:33:ed:96:0f:dd:fb:0c:0c:1e:a2:f0:1e:2e:
         6e:2a:d2:be:8e:78:e1:43:f0:d3:80:d6:96:ba:37:a1:2c:ae:
         d3:d1:84:bd:3d:df:2f:b3:49:3e:cb:2d:3f:38:a6:7e:fa:d5:
         c4:ab:7f:46:70:bd:05:ab:f0:4a:9d:2d:e3:45:8c:b5:3b:6f:
         f1:d7:38:79:a4:13:ad:c4:cc:fc:37:3b:90:00:19:e2:d4:f6:
         3a:ef:ac:e4:16:20:f7:fd:e6:fa:99:59:b7:c7:04:01:58:e2:
         4c:3a:15:0d:0d:14:31:f8:6c:18:48:2b:08:58:d6:12:d2:89:
         55:10:19:97:d7:b2:46:22:72:42:e9:4e:d9:23:24:15:f2:4b:
         56:7b:ae:af:eb:d0:06:18:0d:1f:98:f7:c9:cd:20:27:2b:dd:
         0a:88:48:b1:ec:53:1e:06:3c:7f:ad:46:d4:b9:bc:c0:42:5e:
         73:c2:01:d7:a6:47:5d:37:49:9e:fc:af:ae:ce:45:ac:3b:69:
         d6:f1:7c:84:5a:56:eb:ef:b5:83:28:29:50:6a:30:16:fc:f5:
         f1:a1:28:11:42:86:e1:91:c3:3a:ea:ed:14:34:ef:8d:1e:79:
         db:b8:78:2d:de:71:06:08:60:a5:6f:c5:91:6e:9d:69:f9:fb:
         5d:d3:80:09:ab:18:bc:4b:db:80:15:07:14:4c:b8:42:56:dc:
         df:31:fa:d4:3e:74:94:22:f0:d9:84:52:39:4c:2f:9c:06:91:
         5e:7c:db:cb:60:39:70:a2:5b:11:e6:2e:7f:28:5e:ec:ff:7f:
         f2:7e:06:38:8f:b5:70:bf:01:4f:0b:d0:39:29:00:bb:3b:0d:
         ea:24:a7:d6:13:56:0d:f7:bb:08:da:06:61:03:df:88:ce:44:
         a9:25:3b:d1:9a:2c:d3:1a:48:33:ff:7f:8b:8d:17:79:d9:59:
         5e:36:77:d5:4c:67:d6:eb:46:2d:f6:89:c5:33:dc:04:a7:31:
         c4:31:35:69:77:02:a9:f6
-----BEGIN CERTIFICATE-----
MIIHSDCCBTCgAwIBAgICAsswDQYJKoZIhvcNAQEFBQAwgbQxCzAJBgNVBAYTAlVT
MQswCQYDVQQIEwJDQTEVMBMGA1UEBxMMU2FuRnJhbmNpc2NvMRUwEwYDVQQKEwxQ
aXhnbG8sIEluYy4xEDAOBgNVBAsTB1ZQTi1DSUUxGjAYBgNVBAMTEXR1bm5lbC5w
aXhnbG8uY29tMRwwGgYDVQQpExNCYWxhIENoYW5kcmFzZWthcmFuMR4wHAYJKoZI
hvcNAQkBFg9iYWxhQHBpeGdsby5jb20wHhcNMTgwMjE0MDY0MTE5WhcNMjgwMjEy
MDY0MTE5WjCBqTELMAkGA1UEBhMCVVMxCzAJBgNVBAgTAkNBMRUwEwYDVQQHEwxT
YW5GcmFuY2lzY28xFTATBgNVBAoTDFBpeGdsbywgSW5jLjEQMA4GA1UECxMHVlBO
LUNJRTEPMA0GA1UEAxMGY2llNzE0MRwwGgYDVQQpExNCYWxhIENoYW5kcmFzZWth
cmFuMR4wHAYJKoZIhvcNAQkBFg9iYWxhQHBpeGdsby5jb20wggIiMA0GCSqGSIb3
DQEBAQUAA4ICDwAwggIKAoICAQDRXLEbooUZpMT/8kRt6eOJx3Ih8IMTOgSGciWe
3qjBy+JGxByeHSR5VNH87y3GiRklJsG4t4yLon1fK12jfp5FtepLqa/PGITIIHrW
sHe1ilevnHdqsJdeWlbw1ZwxwryvO445M1h8IjCBWlxVmDRHEibDGgIQMAtqzqy7
DSdXrGY8JEl0Qz4wB2yJP6rm+0sGGI1rcpmzSmP3KCD19X6yTs6nt5NzdkBfVVrd
j03SI54JK2SbYem0BIdjUhbTO+beLjKFB6ixTIvnOAgEZCUxCwqezhfMpQVjbKPX
HUtqbqkIkgCDAChPh1pcWE2pK7izN+BHnA/FUuvlhNIYrNxAjfqUeFdJrW7QZNBH
JAegFJHm7vFrcJG8A2b4I2iHoRMgkH4ulj5QTFaZBNFQrAhPzrfs7tln1V/tVILJ
7XUJrqvmVs8GLqM8z9018CuUqkV7FU5cmxaqID2XdM0XkGCO4i3X9NQf2aIvUnXG
4BhhYmPhR55UZKFAvUcqZ5sqCloXHHefgG0JmYVOJoIIs2CdC6t1+12CbP6gjRd5
LJOpshCRAuCOloCU4c41iDEs7gpMxU12jNqW8bZoZ/smhMsmLyXsrlW9NBRkVBv5
WnRpNcyRhAdP3XzdU1Gd/zeujoxV0zcSWk09aCNyq4P746CEPEUxpqhGacbkTOBd
jzdbzQIDAQABo4IBazCCAWcwCQYDVR0TBAIwADAtBglghkgBhvhCAQ0EIBYeRWFz
eS1SU0EgR2VuZXJhdGVkIENlcnRpZmljYXRlMB0GA1UdDgQWBBRcpMOCddImV3XS
W+tk0+5Oan76njCB6QYDVR0jBIHhMIHegBTvOI0UUFinW02cF3L837msp1GwEKGB
uqSBtzCBtDELMAkGA1UEBhMCVVMxCzAJBgNVBAgTAkNBMRUwEwYDVQQHEwxTYW5G
cmFuY2lzY28xFTATBgNVBAoTDFBpeGdsbywgSW5jLjEQMA4GA1UECxMHVlBOLUNJ
RTEaMBgGA1UEAxMRdHVubmVsLnBpeGdsby5jb20xHDAaBgNVBCkTE0JhbGEgQ2hh
bmRyYXNla2FyYW4xHjAcBgkqhkiG9w0BCQEWD2JhbGFAcGl4Z2xvLmNvbYIJAKbb
xoOA5qB5MBMGA1UdJQQMMAoGCCsGAQUFBwMCMAsGA1UdDwQEAwIHgDANBgkqhkiG
9w0BAQUFAAOCAgEApKodoEGL9dRqZN9tGlQBa5X9wq7Y2iEtbSO9L0cUCrcGUNIp
EVURmsJ/ToiqU/WBmSEpHtfvjt5Q3gJm+eX0sQkf5ExJY7otyJ0LcBs6RhTxVWRI
40Q0QQYNM/kWXOKaS4C5ZVDGGJ7oIVX+OSR4vrn8g2PVXkqn2nh9xoRIhdpH3Osz
7ZYP3fsMDB6i8B4ubirSvo544UPw04DWlro3oSyu09GEvT3fL7NJPsstPzimfvrV
xKt/RnC9BavwSp0t40WMtTtv8dc4eaQTrcTM/Dc7kAAZ4tT2Ou+s5BYg9/3m+plZ
t8cEAVjiTDoVDQ0UMfhsGEgrCFjWEtKJVRAZl9eyRiJyQulO2SMkFfJLVnuur+vQ
BhgNH5j3yc0gJyvdCohIsexTHgY8f61G1Lm8wEJec8IB16ZHXTdJnvyvrs5FrDtp
1vF8hFpW6++1gygpUGowFvz18aEoEUKG4ZHDOurtFDTvjR5527h4Ld5xBghgpW/F
kW6dafn7XdOACasYvEvbgBUHFEy4Qlbc3zH61D50lCLw2YRSOUwvnAaRXnzby2A5
cKJbEeYufyhe7P9/8n4GOI+1cL8BTwvQOSkAuzsN6iSn1hNWDfe7CNoGYQPfiM5E
qSU70Zos0xpIM/9/i40XedlZXjZ31Uxn1utGLfaJxTPcBKcxxDE1aXcCqfY=
-----END CERTIFICATE-----
