Certificate:
    Data:
        Version: 3 (0x2)
        Serial Number: 717 (0x2cd)
    Signature Algorithm: sha1WithRSAEncryption
        Issuer: C=US, ST=CA, L=SanFrancisco, O=Pixglo, Inc., OU=VPN-CIE, CN=tunnel.pixglo.com/name=Bala Chandrasekaran/emailAddress=bala@pixglo.com
        Validity
            Not Before: Feb 14 06:41:22 2018 GMT
            Not After : Feb 12 06:41:22 2028 GMT
        Subject: C=US, ST=CA, L=SanFrancisco, O=Pixglo, Inc., OU=VPN-CIE, CN=cie716/name=Bala Chandrasekaran/emailAddress=bala@pixglo.com
        Subject Public Key Info:
            Public Key Algorithm: rsaEncryption
                Public-Key: (4096 bit)
                Modulus:
                    00:c0:d7:cd:be:91:07:80:fe:5e:ed:fa:3d:5a:4d:
                    c6:e4:f4:3c:71:53:9f:55:2b:1c:ab:e0:57:58:a4:
                    08:c0:b9:d6:d9:ae:50:a8:fc:33:67:93:fb:02:ad:
                    7e:a0:b8:f4:c3:b8:66:3d:2d:b9:a5:5d:cc:4e:3d:
                    cf:8e:dc:d9:ac:88:31:71:b8:e2:f8:15:e3:8a:04:
                    f0:fd:39:ff:e4:d3:fc:0c:58:73:fd:55:3a:a9:7c:
                    a3:43:70:f8:62:6c:1f:d3:7a:89:64:29:07:4c:52:
                    81:2b:80:02:43:4e:e8:ae:96:13:c5:5c:cd:a8:9b:
                    fe:cd:2c:e5:05:b8:e8:6a:28:19:d3:10:a7:a1:39:
                    30:bf:2c:09:b9:56:f4:3e:4f:c3:6c:78:83:8d:6e:
                    90:94:07:48:04:4e:a7:a3:c8:79:d8:0d:e0:68:b7:
                    3d:34:b0:86:6a:93:c3:be:50:11:6f:16:32:7f:8d:
                    8d:61:7e:52:c8:ba:07:65:14:fc:75:4b:ce:46:91:
                    3f:35:c4:09:65:21:1c:16:a6:16:60:4e:65:e8:f3:
                    69:36:31:e3:c4:6a:a1:3e:52:32:c0:e5:cc:21:78:
                    64:27:0b:29:47:e0:37:47:aa:ea:97:73:db:21:e6:
                    ae:9e:6a:c8:90:29:89:1a:94:0c:f0:e2:07:99:7a:
                    30:e3:5f:0a:52:a3:ee:98:37:34:0e:51:7b:bd:cc:
                    2b:25:a7:30:4a:12:8d:69:37:d5:4b:f1:d3:b6:9b:
                    ae:43:82:03:85:33:c7:86:d9:1c:1c:53:a5:2f:ea:
                    83:94:2c:a0:30:c2:e0:4a:a7:79:83:d9:4c:e4:b0:
                    55:f4:48:f5:d8:7f:96:6d:38:70:c6:32:3f:f3:c2:
                    5d:72:45:74:c4:1d:d0:67:c4:85:be:69:bf:62:44:
                    09:aa:a4:73:21:2f:dc:ae:10:39:71:9a:56:a7:f2:
                    ad:23:c6:e0:88:12:17:4c:09:d1:fb:28:be:61:92:
                    ce:74:b2:a0:04:f9:13:5f:6c:e5:e7:80:bb:c7:35:
                    01:9c:cf:25:c9:b7:1b:73:16:79:fd:40:69:73:01:
                    2b:7f:9d:f6:ac:03:03:be:21:60:94:5c:46:0c:e4:
                    63:80:62:c2:f8:cb:d8:de:60:c3:27:f0:64:7a:9e:
                    ec:ce:99:36:4a:43:4c:a5:1c:f4:7d:e6:90:db:c1:
                    66:73:36:f4:01:87:b8:98:83:dd:53:8b:de:b1:53:
                    fa:a8:2a:d3:99:9d:71:7c:bf:98:11:c9:4f:4c:a2:
                    e1:79:cd:a9:a2:a1:11:6d:3c:eb:0e:6a:2f:af:0c:
                    59:53:da:09:37:22:4d:9d:47:98:23:38:b3:64:25:
                    a7:4c:bd
                Exponent: 65537 (0x10001)
        X509v3 extensions:
            X509v3 Basic Constraints: 
                CA:FALSE
            Netscape Comment: 
                Easy-RSA Generated Certificate
            X509v3 Subject Key Identifier: 
                78:73:0B:EC:B8:C0:4D:59:F9:02:E8:23:F8:F4:83:87:88:0F:76:96
            X509v3 Authority Key Identifier: 
                keyid:EF:38:8D:14:50:58:A7:5B:4D:9C:17:72:FC:DF:B9:AC:A7:51:B0:10
                DirName:/C=US/ST=CA/L=SanFrancisco/O=Pixglo, Inc./OU=VPN-CIE/CN=tunnel.pixglo.com/name=Bala Chandrasekaran/emailAddress=bala@pixglo.com
                serial:A6:DB:C6:83:80:E6:A0:79

            X509v3 Extended Key Usage: 
                TLS Web Client Authentication
            X509v3 Key Usage: 
                Digital Signature
    Signature Algorithm: sha1WithRSAEncryption
         6d:03:22:83:f8:5a:25:8e:ae:b4:94:20:6c:cb:09:d4:29:f3:
         26:26:77:fb:eb:9f:4a:a8:bf:f9:92:ee:6d:c4:d1:ed:1b:2d:
         79:ae:e8:58:68:53:92:a5:84:a8:b3:3a:f0:a3:5f:13:f4:17:
         fd:fd:b5:61:ce:91:63:c6:dc:58:27:93:da:cc:c4:6c:ca:b6:
         96:3e:b9:de:e2:a1:e8:82:3f:68:d0:fc:d4:cd:d4:07:0f:20:
         a0:a8:1f:f4:5d:5a:3e:1d:06:fb:51:bb:15:46:12:e0:87:0c:
         00:ef:47:ee:f3:18:d3:ed:9a:a6:5c:89:10:0d:0a:c5:03:51:
         88:91:70:2d:d6:89:8e:bc:78:87:12:d7:d7:0b:ef:6d:1e:84:
         30:ae:5a:a6:05:35:b3:b7:49:51:dc:2d:09:78:bf:d5:a6:12:
         79:58:80:e3:89:82:dc:28:0b:55:18:bb:08:96:4b:56:56:49:
         af:f7:3b:74:31:32:a5:73:55:61:82:cf:15:17:74:73:3d:14:
         91:2e:8e:12:b5:bc:77:51:17:64:ec:08:17:a9:e5:b8:a8:cf:
         86:30:13:51:49:fb:92:35:64:03:96:05:36:39:6d:a0:0e:cb:
         c8:3a:98:27:86:c4:e1:21:58:f9:90:04:24:ed:25:27:ff:0a:
         b3:82:11:0d:b3:e0:6e:89:88:63:86:37:f3:f9:94:43:42:b9:
         5b:3b:f8:80:17:80:b1:1e:82:f9:29:b1:60:b9:ae:b1:ce:74:
         fe:84:a6:3a:bd:68:89:34:c7:66:13:3c:9a:2d:58:13:9e:6c:
         31:ea:02:1f:1f:fc:e2:ba:b5:03:e2:8a:f9:94:d2:7b:02:b5:
         7c:92:2d:3d:4b:41:68:97:9e:4e:94:f6:93:a2:04:e5:94:94:
         0b:5d:71:4a:21:ec:3d:f8:3b:bb:60:12:01:9e:98:e3:83:c3:
         8d:a5:50:9e:82:74:6f:7a:e2:b6:74:d7:39:8c:33:0e:a6:78:
         f2:f5:4f:26:bf:7a:00:35:36:87:c6:26:9a:20:0f:3a:f0:e7:
         0a:5f:16:da:8f:38:44:0b:0a:77:a3:bb:5e:b1:73:4e:30:3b:
         8d:f9:40:5b:50:62:16:f9:c6:b0:59:2b:4e:33:6a:77:eb:de:
         cd:64:05:5e:77:b1:3c:7f:5c:1d:d8:9b:95:83:cd:13:bb:a2:
         ce:a6:c8:d9:a7:6b:42:1b:54:32:36:51:8d:66:a4:c3:91:25:
         56:bc:be:65:58:3d:8c:c1:ad:aa:f5:68:fc:5e:f5:c4:92:ca:
         ae:d7:41:a3:6c:07:c5:6b:9a:b3:bf:19:ec:30:86:07:ac:b0:
         a4:cb:d6:fd:87:94:53:99
-----BEGIN CERTIFICATE-----
MIIHSDCCBTCgAwIBAgICAs0wDQYJKoZIhvcNAQEFBQAwgbQxCzAJBgNVBAYTAlVT
MQswCQYDVQQIEwJDQTEVMBMGA1UEBxMMU2FuRnJhbmNpc2NvMRUwEwYDVQQKEwxQ
aXhnbG8sIEluYy4xEDAOBgNVBAsTB1ZQTi1DSUUxGjAYBgNVBAMTEXR1bm5lbC5w
aXhnbG8uY29tMRwwGgYDVQQpExNCYWxhIENoYW5kcmFzZWthcmFuMR4wHAYJKoZI
hvcNAQkBFg9iYWxhQHBpeGdsby5jb20wHhcNMTgwMjE0MDY0MTIyWhcNMjgwMjEy
MDY0MTIyWjCBqTELMAkGA1UEBhMCVVMxCzAJBgNVBAgTAkNBMRUwEwYDVQQHEwxT
YW5GcmFuY2lzY28xFTATBgNVBAoTDFBpeGdsbywgSW5jLjEQMA4GA1UECxMHVlBO
LUNJRTEPMA0GA1UEAxMGY2llNzE2MRwwGgYDVQQpExNCYWxhIENoYW5kcmFzZWth
cmFuMR4wHAYJKoZIhvcNAQkBFg9iYWxhQHBpeGdsby5jb20wggIiMA0GCSqGSIb3
DQEBAQUAA4ICDwAwggIKAoICAQDA182+kQeA/l7t+j1aTcbk9DxxU59VKxyr4FdY
pAjAudbZrlCo/DNnk/sCrX6guPTDuGY9LbmlXcxOPc+O3NmsiDFxuOL4FeOKBPD9
Of/k0/wMWHP9VTqpfKNDcPhibB/TeolkKQdMUoErgAJDTuiulhPFXM2om/7NLOUF
uOhqKBnTEKehOTC/LAm5VvQ+T8NseIONbpCUB0gETqejyHnYDeBotz00sIZqk8O+
UBFvFjJ/jY1hflLIugdlFPx1S85GkT81xAllIRwWphZgTmXo82k2MePEaqE+UjLA
5cwheGQnCylH4DdHquqXc9sh5q6easiQKYkalAzw4geZejDjXwpSo+6YNzQOUXu9
zCslpzBKEo1pN9VL8dO2m65DggOFM8eG2RwcU6Uv6oOULKAwwuBKp3mD2UzksFX0
SPXYf5ZtOHDGMj/zwl1yRXTEHdBnxIW+ab9iRAmqpHMhL9yuEDlxmlan8q0jxuCI
EhdMCdH7KL5hks50sqAE+RNfbOXngLvHNQGczyXJtxtzFnn9QGlzASt/nfasAwO+
IWCUXEYM5GOAYsL4y9jeYMMn8GR6nuzOmTZKQ0ylHPR95pDbwWZzNvQBh7iYg91T
i96xU/qoKtOZnXF8v5gRyU9MouF5zamioRFtPOsOai+vDFlT2gk3Ik2dR5gjOLNk
JadMvQIDAQABo4IBazCCAWcwCQYDVR0TBAIwADAtBglghkgBhvhCAQ0EIBYeRWFz
eS1SU0EgR2VuZXJhdGVkIENlcnRpZmljYXRlMB0GA1UdDgQWBBR4cwvsuMBNWfkC
6CP49IOHiA92ljCB6QYDVR0jBIHhMIHegBTvOI0UUFinW02cF3L837msp1GwEKGB
uqSBtzCBtDELMAkGA1UEBhMCVVMxCzAJBgNVBAgTAkNBMRUwEwYDVQQHEwxTYW5G
cmFuY2lzY28xFTATBgNVBAoTDFBpeGdsbywgSW5jLjEQMA4GA1UECxMHVlBOLUNJ
RTEaMBgGA1UEAxMRdHVubmVsLnBpeGdsby5jb20xHDAaBgNVBCkTE0JhbGEgQ2hh
bmRyYXNla2FyYW4xHjAcBgkqhkiG9w0BCQEWD2JhbGFAcGl4Z2xvLmNvbYIJAKbb
xoOA5qB5MBMGA1UdJQQMMAoGCCsGAQUFBwMCMAsGA1UdDwQEAwIHgDANBgkqhkiG
9w0BAQUFAAOCAgEAbQMig/haJY6utJQgbMsJ1CnzJiZ3++ufSqi/+ZLubcTR7Rst
ea7oWGhTkqWEqLM68KNfE/QX/f21Yc6RY8bcWCeT2szEbMq2lj653uKh6II/aND8
1M3UBw8goKgf9F1aPh0G+1G7FUYS4IcMAO9H7vMY0+2aplyJEA0KxQNRiJFwLdaJ
jrx4hxLX1wvvbR6EMK5apgU1s7dJUdwtCXi/1aYSeViA44mC3CgLVRi7CJZLVlZJ
r/c7dDEypXNVYYLPFRd0cz0UkS6OErW8d1EXZOwIF6nluKjPhjATUUn7kjVkA5YF
NjltoA7LyDqYJ4bE4SFY+ZAEJO0lJ/8Ks4IRDbPgbomIY4Y38/mUQ0K5Wzv4gBeA
sR6C+SmxYLmusc50/oSmOr1oiTTHZhM8mi1YE55sMeoCHx/84rq1A+KK+ZTSewK1
fJItPUtBaJeeTpT2k6IE5ZSUC11xSiHsPfg7u2ASAZ6Y44PDjaVQnoJ0b3ritnTX
OYwzDqZ48vVPJr96ADU2h8YmmiAPOvDnCl8W2o84RAsKd6O7XrFzTjA7jflAW1Bi
FvnGsFkrTjNqd+vezWQFXnexPH9cHdiblYPNE7uizqbI2adrQhtUMjZRjWakw5El
Vry+ZVg9jMGtqvVo/F71xJLKrtdBo2wHxWuas78Z7DCGB6ywpMvW/YeUU5k=
-----END CERTIFICATE-----
