Certificate:
    Data:
        Version: 3 (0x2)
        Serial Number: 718 (0x2ce)
    Signature Algorithm: sha1WithRSAEncryption
        Issuer: C=US, ST=CA, L=SanFrancisco, O=Pixglo, Inc., OU=VPN-CIE, CN=tunnel.pixglo.com/name=Bala Chandrasekaran/emailAddress=bala@pixglo.com
        Validity
            Not Before: Feb 14 06:41:23 2018 GMT
            Not After : Feb 12 06:41:23 2028 GMT
        Subject: C=US, ST=CA, L=SanFrancisco, O=Pixglo, Inc., OU=VPN-CIE, CN=cie717/name=Bala Chandrasekaran/emailAddress=bala@pixglo.com
        Subject Public Key Info:
            Public Key Algorithm: rsaEncryption
                Public-Key: (4096 bit)
                Modulus:
                    00:c7:d6:5d:b2:83:a8:1c:fc:d9:c5:e3:d0:f0:3e:
                    4a:df:2c:9e:3e:44:3e:36:8e:5d:1f:31:1d:50:33:
                    1e:22:23:db:09:cf:b3:85:51:0f:c2:4a:89:8e:c5:
                    a8:13:95:f5:59:6f:d8:19:ad:79:ab:f5:87:cb:19:
                    3c:44:74:d0:b6:af:fb:89:8a:14:81:4d:3a:9e:16:
                    5a:49:73:4e:be:da:54:2b:6c:ba:bd:36:73:d9:c2:
                    86:12:be:37:b5:d1:2c:1a:4c:47:19:0d:c5:10:d7:
                    1a:c1:2d:3c:80:3b:e4:f3:2b:0e:d0:19:8d:43:b6:
                    e8:23:d1:41:12:87:33:91:6d:03:3d:87:09:c5:1d:
                    0c:be:e9:ad:94:93:8f:75:02:2b:88:47:47:81:7b:
                    75:4b:70:a6:06:e7:1d:d5:c8:dc:e3:61:2d:f1:91:
                    ed:c3:f4:a0:b4:92:fa:fb:b1:74:d1:8d:40:cf:a3:
                    8e:63:ef:88:b5:44:4a:c6:15:53:1b:4a:d0:d6:4d:
                    c8:0a:a6:ba:51:b6:86:83:1b:85:03:45:67:bb:43:
                    66:08:35:3f:27:50:47:76:67:a4:7d:b6:ba:a3:31:
                    57:6d:d3:13:ad:7a:62:24:51:64:84:f3:10:e3:55:
                    29:0d:a2:f0:72:9d:a6:0f:28:d5:2f:95:99:ce:e9:
                    87:c4:6d:56:d5:9c:45:ec:05:36:c7:6e:26:2c:82:
                    0a:4c:17:71:c1:83:54:a0:36:9a:29:dd:91:4f:43:
                    12:4b:9e:22:fd:91:e0:5f:4a:3d:f3:75:8e:fc:53:
                    2b:70:4b:5e:a7:8c:1d:da:54:ce:79:b7:49:bf:38:
                    3c:c1:43:e5:24:f5:1e:06:d3:8e:ef:16:26:88:39:
                    4f:ba:dc:1f:e1:82:b0:04:42:47:5b:23:d9:af:08:
                    be:6c:99:d7:ee:e0:39:35:d3:90:fc:f6:a2:c4:c8:
                    83:20:b9:0e:31:39:b9:a9:18:5d:6b:2f:74:d1:49:
                    2f:e4:c2:d3:2c:3b:17:b6:5c:0d:c1:d2:69:92:bd:
                    fa:f2:e0:9b:18:b7:62:0b:69:cb:6e:3b:f6:08:f5:
                    b6:fe:d9:52:3b:d3:18:82:38:d4:3b:f5:33:be:45:
                    04:85:29:2a:5b:b3:29:d8:8c:d0:ca:80:66:0e:86:
                    05:c1:88:44:4c:93:d0:a4:7a:dc:3d:d4:f6:7a:ae:
                    c6:b1:46:22:9d:78:65:af:2b:8d:b4:13:6e:85:56:
                    bf:7f:a4:14:14:90:d4:66:a4:6e:b6:21:36:e5:e0:
                    7d:f9:f5:09:6a:dc:98:7e:2e:39:35:8f:1c:13:74:
                    bd:37:b6:e8:c9:52:90:ae:1b:da:63:2a:44:73:e3:
                    ea:2e:13
                Exponent: 65537 (0x10001)
        X509v3 extensions:
            X509v3 Basic Constraints: 
                CA:FALSE
            Netscape Comment: 
                Easy-RSA Generated Certificate
            X509v3 Subject Key Identifier: 
                DC:66:05:7C:EA:E7:BF:12:07:F0:F7:0C:DB:30:65:38:C3:FF:D0:8B
            X509v3 Authority Key Identifier: 
                keyid:EF:38:8D:14:50:58:A7:5B:4D:9C:17:72:FC:DF:B9:AC:A7:51:B0:10
                DirName:/C=US/ST=CA/L=SanFrancisco/O=Pixglo, Inc./OU=VPN-CIE/CN=tunnel.pixglo.com/name=Bala Chandrasekaran/emailAddress=bala@pixglo.com
                serial:A6:DB:C6:83:80:E6:A0:79

            X509v3 Extended Key Usage: 
                TLS Web Client Authentication
            X509v3 Key Usage: 
                Digital Signature
    Signature Algorithm: sha1WithRSAEncryption
         6d:09:54:07:c2:37:31:0d:be:ed:1f:57:d5:f2:96:34:e9:5c:
         e5:28:64:65:0c:b0:19:10:c5:e7:77:4f:87:bd:15:15:78:30:
         21:c4:96:60:fe:6d:c0:82:e2:2a:5f:fa:da:66:c6:8b:20:63:
         54:09:9e:eb:6f:20:cd:d3:48:55:48:ab:eb:95:59:39:b8:dc:
         1d:c7:ae:4f:57:36:18:a7:3d:cf:69:01:85:c3:1a:b7:cf:14:
         e8:ed:c9:3b:a8:a5:2b:27:90:f4:ce:74:66:e5:24:15:14:e0:
         1c:9e:7d:55:ae:57:83:ca:a8:a3:91:73:9d:02:e5:fa:1f:4c:
         44:66:05:17:00:26:2b:e9:85:9c:cb:c0:d0:30:8a:71:f3:0f:
         a4:12:cf:5b:d8:cb:15:55:65:bf:85:34:47:4b:04:77:47:a3:
         ab:4c:3e:53:5b:1b:16:81:47:f5:71:b6:91:b0:c2:b7:64:e8:
         bc:31:4e:8c:48:51:3a:77:d7:26:d3:fd:7f:fd:d4:9a:10:44:
         14:2b:6c:38:3d:74:bb:52:a9:38:0b:0d:fb:33:d6:74:fe:3b:
         4c:e5:2e:f1:20:ef:19:7c:99:29:24:f5:83:66:88:4b:02:0c:
         b0:f4:1c:3e:08:6d:cf:c4:25:bd:4c:c0:6f:7c:e0:a9:74:b5:
         c8:5c:c7:8e:1d:27:af:1f:7b:94:8e:c6:f9:47:30:7e:99:4c:
         3d:90:ce:80:91:e0:ce:a8:6a:e3:b9:e3:67:c2:ba:ea:39:6f:
         f7:cc:8a:8c:bd:23:dd:ce:a6:9a:6c:91:80:fa:19:7f:f5:2d:
         dd:47:dc:b9:64:57:2f:cd:53:96:b0:15:e1:13:33:49:a7:c4:
         4a:45:3e:59:fd:12:a4:fc:b8:69:7b:1d:d4:92:e3:21:d1:d9:
         a1:87:f5:0c:4e:33:3a:ae:75:fd:e5:ee:50:f4:e9:e1:c3:a5:
         13:bb:e6:33:ac:2b:3d:d2:a4:58:90:17:2a:c6:d4:a2:c1:a7:
         a3:06:50:34:91:f5:be:9a:eb:d2:0a:2b:3f:b5:e4:77:32:34:
         d0:80:a4:9d:a5:a0:e3:d2:c0:fc:52:cb:1b:86:b7:55:de:fa:
         98:64:d3:f6:62:f3:29:09:19:49:1b:fa:3d:7e:7c:fa:25:11:
         ee:15:c2:59:e7:9d:4f:0d:52:ed:c4:f8:27:3f:39:26:d9:a8:
         ca:23:87:64:ce:89:8d:d6:dc:f9:c7:67:27:e7:4d:f1:d8:dc:
         da:47:42:74:2f:52:a9:aa:24:88:d7:45:ea:79:8f:e0:45:0b:
         c1:7e:f8:b4:6f:53:97:b9:87:54:42:ee:40:ee:0d:48:98:97:
         55:a1:42:c7:22:1b:9a:17
-----BEGIN CERTIFICATE-----
MIIHSDCCBTCgAwIBAgICAs4wDQYJKoZIhvcNAQEFBQAwgbQxCzAJBgNVBAYTAlVT
MQswCQYDVQQIEwJDQTEVMBMGA1UEBxMMU2FuRnJhbmNpc2NvMRUwEwYDVQQKEwxQ
aXhnbG8sIEluYy4xEDAOBgNVBAsTB1ZQTi1DSUUxGjAYBgNVBAMTEXR1bm5lbC5w
aXhnbG8uY29tMRwwGgYDVQQpExNCYWxhIENoYW5kcmFzZWthcmFuMR4wHAYJKoZI
hvcNAQkBFg9iYWxhQHBpeGdsby5jb20wHhcNMTgwMjE0MDY0MTIzWhcNMjgwMjEy
MDY0MTIzWjCBqTELMAkGA1UEBhMCVVMxCzAJBgNVBAgTAkNBMRUwEwYDVQQHEwxT
YW5GcmFuY2lzY28xFTATBgNVBAoTDFBpeGdsbywgSW5jLjEQMA4GA1UECxMHVlBO
LUNJRTEPMA0GA1UEAxMGY2llNzE3MRwwGgYDVQQpExNCYWxhIENoYW5kcmFzZWth
cmFuMR4wHAYJKoZIhvcNAQkBFg9iYWxhQHBpeGdsby5jb20wggIiMA0GCSqGSIb3
DQEBAQUAA4ICDwAwggIKAoICAQDH1l2yg6gc/NnF49DwPkrfLJ4+RD42jl0fMR1Q
Mx4iI9sJz7OFUQ/CSomOxagTlfVZb9gZrXmr9YfLGTxEdNC2r/uJihSBTTqeFlpJ
c06+2lQrbLq9NnPZwoYSvje10SwaTEcZDcUQ1xrBLTyAO+TzKw7QGY1Dtugj0UES
hzORbQM9hwnFHQy+6a2Uk491AiuIR0eBe3VLcKYG5x3VyNzjYS3xke3D9KC0kvr7
sXTRjUDPo45j74i1RErGFVMbStDWTcgKprpRtoaDG4UDRWe7Q2YINT8nUEd2Z6R9
trqjMVdt0xOtemIkUWSE8xDjVSkNovBynaYPKNUvlZnO6YfEbVbVnEXsBTbHbiYs
ggpMF3HBg1SgNpop3ZFPQxJLniL9keBfSj3zdY78UytwS16njB3aVM55t0m/ODzB
Q+Uk9R4G047vFiaIOU+63B/hgrAEQkdbI9mvCL5smdfu4Dk105D89qLEyIMguQ4x
ObmpGF1rL3TRSS/kwtMsOxe2XA3B0mmSvfry4JsYt2ILactuO/YI9bb+2VI70xiC
ONQ79TO+RQSFKSpbsynYjNDKgGYOhgXBiERMk9Cketw91PZ6rsaxRiKdeGWvK420
E26FVr9/pBQUkNRmpG62ITbl4H359Qlq3Jh+Ljk1jxwTdL03tujJUpCuG9pjKkRz
4+ouEwIDAQABo4IBazCCAWcwCQYDVR0TBAIwADAtBglghkgBhvhCAQ0EIBYeRWFz
eS1SU0EgR2VuZXJhdGVkIENlcnRpZmljYXRlMB0GA1UdDgQWBBTcZgV86ue/Egfw
9wzbMGU4w//QizCB6QYDVR0jBIHhMIHegBTvOI0UUFinW02cF3L837msp1GwEKGB
uqSBtzCBtDELMAkGA1UEBhMCVVMxCzAJBgNVBAgTAkNBMRUwEwYDVQQHEwxTYW5G
cmFuY2lzY28xFTATBgNVBAoTDFBpeGdsbywgSW5jLjEQMA4GA1UECxMHVlBOLUNJ
RTEaMBgGA1UEAxMRdHVubmVsLnBpeGdsby5jb20xHDAaBgNVBCkTE0JhbGEgQ2hh
bmRyYXNla2FyYW4xHjAcBgkqhkiG9w0BCQEWD2JhbGFAcGl4Z2xvLmNvbYIJAKbb
xoOA5qB5MBMGA1UdJQQMMAoGCCsGAQUFBwMCMAsGA1UdDwQEAwIHgDANBgkqhkiG
9w0BAQUFAAOCAgEAbQlUB8I3MQ2+7R9X1fKWNOlc5ShkZQywGRDF53dPh70VFXgw
IcSWYP5twILiKl/62mbGiyBjVAme628gzdNIVUir65VZObjcHceuT1c2GKc9z2kB
hcMat88U6O3JO6ilKyeQ9M50ZuUkFRTgHJ59Va5Xg8qoo5FznQLl+h9MRGYFFwAm
K+mFnMvA0DCKcfMPpBLPW9jLFVVlv4U0R0sEd0ejq0w+U1sbFoFH9XG2kbDCt2To
vDFOjEhROnfXJtP9f/3UmhBEFCtsOD10u1KpOAsN+zPWdP47TOUu8SDvGXyZKST1
g2aISwIMsPQcPghtz8QlvUzAb3zgqXS1yFzHjh0nrx97lI7G+UcwfplMPZDOgJHg
zqhq47njZ8K66jlv98yKjL0j3c6mmmyRgPoZf/Ut3UfcuWRXL81TlrAV4RMzSafE
SkU+Wf0SpPy4aXsd1JLjIdHZoYf1DE4zOq51/eXuUPTp4cOlE7vmM6wrPdKkWJAX
KsbUosGnowZQNJH1vprr0gorP7XkdzI00ICknaWg49LA/FLLG4a3Vd76mGTT9mLz
KQkZSRv6PX58+iUR7hXCWeedTw1S7cT4Jz85JtmoyiOHZM6Jjdbc+cdnJ+dN8djc
2kdCdC9SqaokiNdF6nmP4EULwX74tG9Tl7mHVELuQO4NSJiXVaFCxyIbmhc=
-----END CERTIFICATE-----
