Certificate:
    Data:
        Version: 3 (0x2)
        Serial Number: 719 (0x2cf)
    Signature Algorithm: sha1WithRSAEncryption
        Issuer: C=US, ST=CA, L=SanFrancisco, O=Pixglo, Inc., OU=VPN-CIE, CN=tunnel.pixglo.com/name=Bala Chandrasekaran/emailAddress=bala@pixglo.com
        Validity
            Not Before: Feb 14 06:41:25 2018 GMT
            Not After : Feb 12 06:41:25 2028 GMT
        Subject: C=US, ST=CA, L=SanFrancisco, O=Pixglo, Inc., OU=VPN-CIE, CN=cie718/name=Bala Chandrasekaran/emailAddress=bala@pixglo.com
        Subject Public Key Info:
            Public Key Algorithm: rsaEncryption
                Public-Key: (4096 bit)
                Modulus:
                    00:c5:40:ce:f3:a9:c0:b5:4e:da:60:ab:9a:9b:e5:
                    13:09:45:0c:bd:b3:af:14:72:89:d9:35:69:2a:ff:
                    10:3b:e1:48:43:03:ad:fa:01:cb:23:b6:ec:84:f8:
                    8a:13:70:af:b0:86:34:1f:bd:a1:67:5a:ef:e5:8c:
                    97:ea:c6:80:9f:94:87:48:15:cd:88:65:09:6b:e5:
                    15:3f:60:a7:06:99:1f:07:02:08:86:7f:79:5e:87:
                    34:82:5a:77:58:a7:20:9b:0d:d7:b3:f7:f0:e0:a6:
                    6a:53:2f:ff:a3:4f:07:43:35:ca:9f:c6:fe:fe:fb:
                    d3:c4:60:46:dd:2d:1b:5a:32:99:18:b9:cc:c0:f2:
                    d3:88:7e:d6:32:ed:85:4f:b0:62:6c:ed:c0:62:82:
                    df:02:91:05:9b:e4:29:58:12:45:1e:2f:be:98:d5:
                    d1:9c:d0:21:ea:4e:e3:ae:56:53:52:07:57:f5:d9:
                    c2:fd:32:cc:53:23:ff:d5:e1:ee:97:78:f7:69:63:
                    12:a5:96:f7:f3:7d:10:ad:d9:c6:e4:00:d3:9e:fc:
                    75:db:7c:ba:58:73:32:9d:b0:d7:6a:e3:27:dd:4a:
                    e5:e8:f9:a3:16:fd:28:ff:41:cd:b4:0a:5d:a9:03:
                    cb:10:ae:c5:8c:e4:67:f3:e6:e2:8c:bb:bf:63:46:
                    da:59:50:f9:84:49:73:73:39:82:67:36:d2:02:9c:
                    7a:02:3c:7b:1c:77:fc:d0:1d:16:9d:5f:f1:ec:b4:
                    b1:86:75:04:5a:34:5d:6f:9f:41:d4:24:97:5e:ee:
                    b3:ec:bb:1e:55:9f:d6:6f:30:ef:3f:e2:fd:27:eb:
                    93:29:d3:32:24:b3:f7:12:42:45:6a:ca:56:21:10:
                    ff:a9:30:b2:3b:97:2c:64:4c:b9:cf:e6:90:bd:35:
                    8a:c3:e1:6a:5e:a2:d3:17:ed:a4:c6:67:0d:b4:c7:
                    3b:16:e3:5f:b8:f1:e3:12:fd:85:82:fb:95:6c:be:
                    32:4d:35:b2:04:7f:20:33:d8:b5:45:ae:a9:72:61:
                    1f:59:3a:a6:a4:7d:04:ab:37:c7:31:cd:33:4d:fe:
                    42:24:08:8b:42:0c:09:b7:eb:9f:88:5b:ac:e1:03:
                    85:31:d8:d8:d8:10:3e:3a:f3:90:21:8d:e3:a4:95:
                    27:16:42:af:fc:7b:b0:63:5c:3c:0b:9d:f7:78:a4:
                    f4:62:47:b6:23:6a:3e:dc:70:ea:c1:95:b7:c5:a9:
                    7c:e1:0f:d6:0d:0c:c2:c3:ca:c5:2d:a2:69:39:04:
                    46:67:0c:47:47:44:d7:c6:ef:2d:24:af:ed:4c:4d:
                    da:6e:ed:14:88:be:07:49:9a:b2:f5:53:de:d2:41:
                    14:45:1b
                Exponent: 65537 (0x10001)
        X509v3 extensions:
            X509v3 Basic Constraints: 
                CA:FALSE
            Netscape Comment: 
                Easy-RSA Generated Certificate
            X509v3 Subject Key Identifier: 
                7C:18:8A:36:62:B3:66:82:44:D4:04:40:BC:34:C7:34:10:0F:00:B1
            X509v3 Authority Key Identifier: 
                keyid:EF:38:8D:14:50:58:A7:5B:4D:9C:17:72:FC:DF:B9:AC:A7:51:B0:10
                DirName:/C=US/ST=CA/L=SanFrancisco/O=Pixglo, Inc./OU=VPN-CIE/CN=tunnel.pixglo.com/name=Bala Chandrasekaran/emailAddress=bala@pixglo.com
                serial:A6:DB:C6:83:80:E6:A0:79

            X509v3 Extended Key Usage: 
                TLS Web Client Authentication
            X509v3 Key Usage: 
                Digital Signature
    Signature Algorithm: sha1WithRSAEncryption
         6e:8f:07:5d:89:b6:18:e8:cb:49:da:17:ef:56:04:c6:fa:26:
         2e:95:78:c6:a9:df:ae:38:1e:ff:4a:a5:48:a5:ac:95:03:aa:
         20:66:8d:0b:c6:84:d1:d3:02:95:2a:be:17:d9:0a:76:7d:66:
         4b:4d:0b:88:a8:bd:33:dd:4f:6a:fe:5e:20:47:90:30:48:26:
         0d:27:9a:ae:0d:89:c7:75:8f:ae:3a:cd:1c:61:20:47:fd:7d:
         c0:c7:d9:1f:f3:87:d0:6c:64:be:53:e8:ff:9c:76:72:97:e4:
         ea:1b:78:73:da:32:b4:ed:1a:64:55:95:2d:9a:e0:e6:f0:3d:
         a4:14:c7:0d:03:00:4d:64:05:a6:7e:2d:04:15:01:f2:cf:b8:
         69:b1:33:f0:f1:7d:71:2c:58:59:36:9f:5c:52:e5:3b:16:2b:
         ee:46:b3:9e:cf:26:74:b0:5c:e7:64:2b:12:d3:f5:34:85:8a:
         27:a6:78:f2:01:fd:f2:32:f2:ca:87:c5:11:9c:79:ac:40:95:
         56:dd:ab:2d:47:06:91:a7:cc:b8:69:89:1e:dd:54:68:a4:55:
         53:6e:64:47:36:5a:03:50:22:73:29:21:c6:c4:60:d1:49:7c:
         e6:f6:1a:05:db:16:64:7d:e8:cf:44:a4:bb:85:74:0a:ef:fe:
         a0:11:67:bc:f6:42:8c:9b:ac:95:61:11:4f:2f:dc:9e:57:2c:
         1c:71:67:41:1e:f6:8a:f9:6d:4c:50:53:05:d5:b0:88:d7:58:
         87:9c:6d:64:9f:43:b9:6a:61:f5:51:3e:77:cf:1b:c6:9c:3a:
         3e:cb:64:cb:18:56:09:6c:8b:0f:63:11:be:95:53:5f:77:39:
         bd:01:2e:70:9f:f5:51:09:f4:72:89:b1:dc:b4:ac:d5:c8:e7:
         3c:a0:24:28:0a:b5:86:34:a5:9d:43:22:0a:1a:c5:59:7a:a7:
         5f:1d:f7:ed:f4:f2:ea:5e:ea:a3:97:9a:4f:bb:f4:fc:16:62:
         46:a3:62:67:bc:58:d4:75:77:66:b2:b7:12:67:42:34:71:13:
         98:05:34:e2:7a:9c:04:98:61:9d:9f:64:59:7d:a5:12:1e:19:
         aa:fe:09:cd:19:b5:a9:94:f9:ca:8d:58:32:e5:43:1d:e5:95:
         ae:89:00:10:38:7b:8d:4b:ec:4c:be:40:50:38:91:9a:54:38:
         22:06:a7:6f:96:9b:4e:37:16:99:48:64:80:39:d2:a8:c2:dc:
         5b:ce:5e:99:7c:43:5b:17:30:48:e0:3b:6d:e4:a1:85:06:0e:
         57:fd:a0:66:58:e3:d2:94:4b:91:99:19:f5:d1:47:5f:1d:32:
         21:02:02:e3:e1:98:13:92
-----BEGIN CERTIFICATE-----
MIIHSDCCBTCgAwIBAgICAs8wDQYJKoZIhvcNAQEFBQAwgbQxCzAJBgNVBAYTAlVT
MQswCQYDVQQIEwJDQTEVMBMGA1UEBxMMU2FuRnJhbmNpc2NvMRUwEwYDVQQKEwxQ
aXhnbG8sIEluYy4xEDAOBgNVBAsTB1ZQTi1DSUUxGjAYBgNVBAMTEXR1bm5lbC5w
aXhnbG8uY29tMRwwGgYDVQQpExNCYWxhIENoYW5kcmFzZWthcmFuMR4wHAYJKoZI
hvcNAQkBFg9iYWxhQHBpeGdsby5jb20wHhcNMTgwMjE0MDY0MTI1WhcNMjgwMjEy
MDY0MTI1WjCBqTELMAkGA1UEBhMCVVMxCzAJBgNVBAgTAkNBMRUwEwYDVQQHEwxT
YW5GcmFuY2lzY28xFTATBgNVBAoTDFBpeGdsbywgSW5jLjEQMA4GA1UECxMHVlBO
LUNJRTEPMA0GA1UEAxMGY2llNzE4MRwwGgYDVQQpExNCYWxhIENoYW5kcmFzZWth
cmFuMR4wHAYJKoZIhvcNAQkBFg9iYWxhQHBpeGdsby5jb20wggIiMA0GCSqGSIb3
DQEBAQUAA4ICDwAwggIKAoICAQDFQM7zqcC1Ttpgq5qb5RMJRQy9s68UconZNWkq
/xA74UhDA636AcsjtuyE+IoTcK+whjQfvaFnWu/ljJfqxoCflIdIFc2IZQlr5RU/
YKcGmR8HAgiGf3lehzSCWndYpyCbDdez9/DgpmpTL/+jTwdDNcqfxv7++9PEYEbd
LRtaMpkYuczA8tOIftYy7YVPsGJs7cBigt8CkQWb5ClYEkUeL76Y1dGc0CHqTuOu
VlNSB1f12cL9MsxTI//V4e6XePdpYxKllvfzfRCt2cbkANOe/HXbfLpYczKdsNdq
4yfdSuXo+aMW/Sj/Qc20Cl2pA8sQrsWM5Gfz5uKMu79jRtpZUPmESXNzOYJnNtIC
nHoCPHscd/zQHRadX/HstLGGdQRaNF1vn0HUJJde7rPsux5Vn9ZvMO8/4v0n65Mp
0zIks/cSQkVqylYhEP+pMLI7lyxkTLnP5pC9NYrD4WpeotMX7aTGZw20xzsW41+4
8eMS/YWC+5VsvjJNNbIEfyAz2LVFrqlyYR9ZOqakfQSrN8cxzTNN/kIkCItCDAm3
65+IW6zhA4Ux2NjYED4685AhjeOklScWQq/8e7BjXDwLnfd4pPRiR7Yjaj7ccOrB
lbfFqXzhD9YNDMLDysUtomk5BEZnDEdHRNfG7y0kr+1MTdpu7RSIvgdJmrL1U97S
QRRFGwIDAQABo4IBazCCAWcwCQYDVR0TBAIwADAtBglghkgBhvhCAQ0EIBYeRWFz
eS1SU0EgR2VuZXJhdGVkIENlcnRpZmljYXRlMB0GA1UdDgQWBBR8GIo2YrNmgkTU
BEC8NMc0EA8AsTCB6QYDVR0jBIHhMIHegBTvOI0UUFinW02cF3L837msp1GwEKGB
uqSBtzCBtDELMAkGA1UEBhMCVVMxCzAJBgNVBAgTAkNBMRUwEwYDVQQHEwxTYW5G
cmFuY2lzY28xFTATBgNVBAoTDFBpeGdsbywgSW5jLjEQMA4GA1UECxMHVlBOLUNJ
RTEaMBgGA1UEAxMRdHVubmVsLnBpeGdsby5jb20xHDAaBgNVBCkTE0JhbGEgQ2hh
bmRyYXNla2FyYW4xHjAcBgkqhkiG9w0BCQEWD2JhbGFAcGl4Z2xvLmNvbYIJAKbb
xoOA5qB5MBMGA1UdJQQMMAoGCCsGAQUFBwMCMAsGA1UdDwQEAwIHgDANBgkqhkiG
9w0BAQUFAAOCAgEAbo8HXYm2GOjLSdoX71YExvomLpV4xqnfrjge/0qlSKWslQOq
IGaNC8aE0dMClSq+F9kKdn1mS00LiKi9M91Pav5eIEeQMEgmDSearg2Jx3WPrjrN
HGEgR/19wMfZH/OH0GxkvlPo/5x2cpfk6ht4c9oytO0aZFWVLZrg5vA9pBTHDQMA
TWQFpn4tBBUB8s+4abEz8PF9cSxYWTafXFLlOxYr7kazns8mdLBc52QrEtP1NIWK
J6Z48gH98jLyyofFEZx5rECVVt2rLUcGkafMuGmJHt1UaKRVU25kRzZaA1Aicykh
xsRg0Ul85vYaBdsWZH3oz0Sku4V0Cu/+oBFnvPZCjJuslWERTy/cnlcsHHFnQR72
ivltTFBTBdWwiNdYh5xtZJ9DuWph9VE+d88bxpw6PstkyxhWCWyLD2MRvpVTX3c5
vQEucJ/1UQn0comx3LSs1cjnPKAkKAq1hjSlnUMiChrFWXqnXx337fTy6l7qo5ea
T7v0/BZiRqNiZ7xY1HV3ZrK3EmdCNHETmAU04nqcBJhhnZ9kWX2lEh4Zqv4JzRm1
qZT5yo1YMuVDHeWVrokAEDh7jUvsTL5AUDiRmlQ4Iganb5abTjcWmUhkgDnSqMLc
W85emXxDWxcwSOA7beShhQYOV/2gZljj0pRLkZkZ9dFHXx0yIQIC4+GYE5I=
-----END CERTIFICATE-----
