Certificate:
    Data:
        Version: 3 (0x2)
        Serial Number: 723 (0x2d3)
    Signature Algorithm: sha1WithRSAEncryption
        Issuer: C=US, ST=CA, L=SanFrancisco, O=Pixglo, Inc., OU=VPN-CIE, CN=tunnel.pixglo.com/name=Bala Chandrasekaran/emailAddress=bala@pixglo.com
        Validity
            Not Before: Feb 14 06:41:32 2018 GMT
            Not After : Feb 12 06:41:32 2028 GMT
        Subject: C=US, ST=CA, L=SanFrancisco, O=Pixglo, Inc., OU=VPN-CIE, CN=cie722/name=Bala Chandrasekaran/emailAddress=bala@pixglo.com
        Subject Public Key Info:
            Public Key Algorithm: rsaEncryption
                Public-Key: (4096 bit)
                Modulus:
                    00:b9:06:6e:84:ba:a0:c4:d3:81:6c:b8:b5:3d:27:
                    64:aa:33:4e:aa:74:f0:e3:f6:60:af:2f:42:d6:5a:
                    7c:8e:7a:b9:0c:62:3d:11:54:1e:48:b0:04:df:23:
                    a8:a7:33:a1:10:a4:f6:6b:3e:a0:50:5b:58:d9:1c:
                    5f:9a:a2:4a:27:af:6d:11:a5:b3:f0:51:4d:70:2f:
                    a8:9d:b8:ec:55:a1:87:0b:b6:d6:6a:5c:6c:28:92:
                    d7:75:f1:63:22:56:31:e7:1c:0f:18:33:b0:eb:b0:
                    61:9e:86:8f:13:6e:fa:1f:e9:a7:06:93:95:69:69:
                    66:88:d9:a8:73:0e:5d:ae:2f:8d:6c:8a:4a:1a:07:
                    98:8d:66:a4:0f:ea:5d:72:72:b4:ee:5c:68:d3:fc:
                    bc:1f:39:dc:a4:75:c5:c2:52:0b:d5:30:0e:9d:f5:
                    e5:2e:ec:f2:37:23:10:7f:be:3a:f0:fa:a3:a0:0f:
                    6e:0b:32:11:43:e7:c3:22:3f:ee:2a:ad:20:4c:f0:
                    3a:ce:e3:35:c9:99:e5:7c:6f:1a:20:60:97:2e:e8:
                    1e:70:5e:f0:ce:a3:ea:7d:26:fd:4e:e3:65:38:d9:
                    4d:ff:ea:9c:32:f5:ff:10:84:a2:ae:9e:ef:0a:88:
                    9b:16:03:01:48:2f:cc:25:64:9d:80:10:7d:13:b3:
                    ae:f7:1f:4c:da:d9:b6:86:c9:6c:d4:d9:e2:26:49:
                    75:18:46:e4:0c:8f:54:a6:1d:50:69:04:86:c9:30:
                    cf:63:9a:ba:fb:b3:3f:3c:1f:a9:78:e9:e4:9c:95:
                    d4:ec:41:10:81:4c:f3:95:7a:a3:22:37:df:28:71:
                    9e:1f:d8:87:7b:1c:02:12:39:86:9e:0c:5f:39:50:
                    82:ff:4f:ad:ea:c0:f0:26:de:2a:95:2d:fa:1b:e5:
                    5e:0f:65:42:35:cc:de:0a:b5:31:34:b5:7a:00:95:
                    f0:32:83:8e:be:07:13:79:22:e7:f8:9e:71:ca:03:
                    91:f7:16:82:7a:d4:79:47:61:cf:73:81:6c:30:b5:
                    44:a4:9b:20:81:dc:75:bb:e7:a7:ca:9f:96:fd:13:
                    a6:1c:44:36:d5:30:c4:65:e6:6e:08:7c:60:b2:3a:
                    67:e1:13:7e:43:da:1c:29:11:b9:1c:79:b6:16:f9:
                    9a:f1:0a:c7:09:0f:c6:cc:6d:d1:b2:dd:2d:61:fd:
                    4f:ea:a2:b1:68:b3:5f:8c:4f:c7:2b:7b:ff:c4:58:
                    b7:94:5f:d0:5f:b2:23:ff:d2:b3:35:3a:51:17:26:
                    fc:19:8c:0e:b3:7e:89:05:c5:20:bc:9c:9c:c4:83:
                    4a:c4:0b:65:46:fa:99:4f:c3:27:64:3d:d3:52:50:
                    16:eb:53
                Exponent: 65537 (0x10001)
        X509v3 extensions:
            X509v3 Basic Constraints: 
                CA:FALSE
            Netscape Comment: 
                Easy-RSA Generated Certificate
            X509v3 Subject Key Identifier: 
                7E:78:5D:E7:81:65:BE:42:A0:83:B5:16:63:E7:A1:11:06:C8:3C:B8
            X509v3 Authority Key Identifier: 
                keyid:EF:38:8D:14:50:58:A7:5B:4D:9C:17:72:FC:DF:B9:AC:A7:51:B0:10
                DirName:/C=US/ST=CA/L=SanFrancisco/O=Pixglo, Inc./OU=VPN-CIE/CN=tunnel.pixglo.com/name=Bala Chandrasekaran/emailAddress=bala@pixglo.com
                serial:A6:DB:C6:83:80:E6:A0:79

            X509v3 Extended Key Usage: 
                TLS Web Client Authentication
            X509v3 Key Usage: 
                Digital Signature
    Signature Algorithm: sha1WithRSAEncryption
         97:58:57:89:24:b4:85:08:ec:5c:08:4b:3d:af:b2:5d:78:aa:
         4e:aa:ff:77:03:6d:aa:fc:65:24:c9:3a:f8:c9:98:6f:b9:bd:
         52:09:94:a9:13:7a:c9:f2:14:f7:ee:f6:09:5f:88:10:66:80:
         d4:82:9e:ce:f2:d5:dc:6d:c8:29:94:8f:46:92:fa:0a:92:a6:
         b8:c7:44:3f:4b:37:12:41:5d:40:32:18:e9:8b:d2:2a:71:89:
         f1:06:5e:66:c7:ae:de:10:eb:47:0b:09:79:82:24:bb:c4:a6:
         30:55:c5:c3:c7:58:e5:cf:b0:a2:eb:86:26:83:5f:e1:d8:23:
         56:3e:54:a5:ad:0a:60:5d:e3:2a:53:57:01:66:d9:53:0e:73:
         40:fa:ca:0a:ba:a9:ef:88:23:ff:f4:63:7e:36:94:ff:00:3c:
         81:08:1f:5d:67:57:ff:c4:73:39:dd:9c:a2:9a:db:ba:32:a7:
         f5:bd:a8:39:f4:c2:50:6f:94:06:57:23:06:02:54:bc:ab:b6:
         b7:b6:db:1b:37:20:fd:35:1a:ad:ed:44:a1:24:9a:a3:03:9c:
         72:59:af:77:c7:e0:5e:4a:7f:8f:c0:ee:ac:65:29:8f:0f:10:
         e0:a8:df:25:e9:e7:52:09:58:65:e2:52:8c:94:93:92:93:d7:
         a7:0a:69:b6:68:ff:9e:03:a5:2b:c8:af:45:7f:61:8a:e1:f0:
         c6:c6:45:c1:12:09:0a:f9:28:7a:0a:43:d5:b5:b4:94:10:91:
         5e:68:ed:c1:35:7d:d0:b0:69:fd:19:70:75:41:a8:37:1c:08:
         95:16:7f:3e:f7:91:ab:6c:2d:24:f5:73:cd:e1:dd:79:51:9d:
         ae:83:04:a5:1f:7a:3c:b4:bb:fb:2c:98:be:7f:ac:cd:ef:6e:
         2e:23:5e:3d:e0:c5:e2:ce:fa:d8:2f:9b:66:af:0f:09:60:2d:
         2e:96:46:30:d0:82:ac:c7:91:37:0a:1c:36:d1:7c:90:ae:89:
         9a:2b:5d:5f:f0:df:63:75:fb:e0:ad:97:c4:f5:52:46:a9:19:
         25:b4:a9:c9:04:ae:07:69:04:3d:f8:c9:0c:84:9e:37:68:c1:
         ee:ce:a2:e6:d6:00:4a:ba:3d:2f:c5:73:f6:5e:57:8a:7d:70:
         1f:3c:e5:43:7f:b5:ce:c0:45:b1:d1:29:fd:8c:8f:7d:8c:b9:
         08:e1:79:e8:0a:5a:7d:9f:8e:0b:65:5a:0b:07:83:ed:f8:81:
         f5:5b:9c:0a:7b:dc:dd:d7:e3:5a:27:fd:e2:29:70:14:45:66:
         14:72:d4:0f:04:b5:b9:39:aa:ac:c6:a5:f1:59:93:e7:b1:0b:
         c8:74:d5:48:73:65:39:ac
-----BEGIN CERTIFICATE-----
MIIHSDCCBTCgAwIBAgICAtMwDQYJKoZIhvcNAQEFBQAwgbQxCzAJBgNVBAYTAlVT
MQswCQYDVQQIEwJDQTEVMBMGA1UEBxMMU2FuRnJhbmNpc2NvMRUwEwYDVQQKEwxQ
aXhnbG8sIEluYy4xEDAOBgNVBAsTB1ZQTi1DSUUxGjAYBgNVBAMTEXR1bm5lbC5w
aXhnbG8uY29tMRwwGgYDVQQpExNCYWxhIENoYW5kcmFzZWthcmFuMR4wHAYJKoZI
hvcNAQkBFg9iYWxhQHBpeGdsby5jb20wHhcNMTgwMjE0MDY0MTMyWhcNMjgwMjEy
MDY0MTMyWjCBqTELMAkGA1UEBhMCVVMxCzAJBgNVBAgTAkNBMRUwEwYDVQQHEwxT
YW5GcmFuY2lzY28xFTATBgNVBAoTDFBpeGdsbywgSW5jLjEQMA4GA1UECxMHVlBO
LUNJRTEPMA0GA1UEAxMGY2llNzIyMRwwGgYDVQQpExNCYWxhIENoYW5kcmFzZWth
cmFuMR4wHAYJKoZIhvcNAQkBFg9iYWxhQHBpeGdsby5jb20wggIiMA0GCSqGSIb3
DQEBAQUAA4ICDwAwggIKAoICAQC5Bm6EuqDE04FsuLU9J2SqM06qdPDj9mCvL0LW
WnyOerkMYj0RVB5IsATfI6inM6EQpPZrPqBQW1jZHF+aokonr20RpbPwUU1wL6id
uOxVoYcLttZqXGwoktd18WMiVjHnHA8YM7DrsGGeho8Tbvof6acGk5VpaWaI2ahz
Dl2uL41sikoaB5iNZqQP6l1ycrTuXGjT/LwfOdykdcXCUgvVMA6d9eUu7PI3IxB/
vjrw+qOgD24LMhFD58MiP+4qrSBM8DrO4zXJmeV8bxogYJcu6B5wXvDOo+p9Jv1O
42U42U3/6pwy9f8QhKKunu8KiJsWAwFIL8wlZJ2AEH0Ts673H0za2baGyWzU2eIm
SXUYRuQMj1SmHVBpBIbJMM9jmrr7sz88H6l46eScldTsQRCBTPOVeqMiN98ocZ4f
2Id7HAISOYaeDF85UIL/T63qwPAm3iqVLfob5V4PZUI1zN4KtTE0tXoAlfAyg46+
BxN5Iuf4nnHKA5H3FoJ61HlHYc9zgWwwtUSkmyCB3HW756fKn5b9E6YcRDbVMMRl
5m4IfGCyOmfhE35D2hwpEbkcebYW+ZrxCscJD8bMbdGy3S1h/U/qorFos1+MT8cr
e//EWLeUX9BfsiP/0rM1OlEXJvwZjA6zfokFxSC8nJzEg0rEC2VG+plPwydkPdNS
UBbrUwIDAQABo4IBazCCAWcwCQYDVR0TBAIwADAtBglghkgBhvhCAQ0EIBYeRWFz
eS1SU0EgR2VuZXJhdGVkIENlcnRpZmljYXRlMB0GA1UdDgQWBBR+eF3ngWW+QqCD
tRZj56ERBsg8uDCB6QYDVR0jBIHhMIHegBTvOI0UUFinW02cF3L837msp1GwEKGB
uqSBtzCBtDELMAkGA1UEBhMCVVMxCzAJBgNVBAgTAkNBMRUwEwYDVQQHEwxTYW5G
cmFuY2lzY28xFTATBgNVBAoTDFBpeGdsbywgSW5jLjEQMA4GA1UECxMHVlBOLUNJ
RTEaMBgGA1UEAxMRdHVubmVsLnBpeGdsby5jb20xHDAaBgNVBCkTE0JhbGEgQ2hh
bmRyYXNla2FyYW4xHjAcBgkqhkiG9w0BCQEWD2JhbGFAcGl4Z2xvLmNvbYIJAKbb
xoOA5qB5MBMGA1UdJQQMMAoGCCsGAQUFBwMCMAsGA1UdDwQEAwIHgDANBgkqhkiG
9w0BAQUFAAOCAgEAl1hXiSS0hQjsXAhLPa+yXXiqTqr/dwNtqvxlJMk6+MmYb7m9
UgmUqRN6yfIU9+72CV+IEGaA1IKezvLV3G3IKZSPRpL6CpKmuMdEP0s3EkFdQDIY
6YvSKnGJ8QZeZseu3hDrRwsJeYIku8SmMFXFw8dY5c+wouuGJoNf4dgjVj5Upa0K
YF3jKlNXAWbZUw5zQPrKCrqp74gj//RjfjaU/wA8gQgfXWdX/8RzOd2coprbujKn
9b2oOfTCUG+UBlcjBgJUvKu2t7bbGzcg/TUare1EoSSaowOcclmvd8fgXkp/j8Du
rGUpjw8Q4KjfJennUglYZeJSjJSTkpPXpwpptmj/ngOlK8ivRX9hiuHwxsZFwRIJ
CvkoegpD1bW0lBCRXmjtwTV90LBp/RlwdUGoNxwIlRZ/PveRq2wtJPVzzeHdeVGd
roMEpR96PLS7+yyYvn+sze9uLiNePeDF4s762C+bZq8PCWAtLpZGMNCCrMeRNwoc
NtF8kK6JmitdX/DfY3X74K2XxPVSRqkZJbSpyQSuB2kEPfjJDISeN2jB7s6i5tYA
Sro9L8Vz9l5Xin1wHzzlQ3+1zsBFsdEp/YyPfYy5COF56ApafZ+OC2VaCweD7fiB
9VucCnvc3dfjWif94ilwFEVmFHLUDwS1uTmqrMal8VmT57ELyHTVSHNlOaw=
-----END CERTIFICATE-----
