Certificate:
    Data:
        Version: 3 (0x2)
        Serial Number: 726 (0x2d6)
    Signature Algorithm: sha1WithRSAEncryption
        Issuer: C=US, ST=CA, L=SanFrancisco, O=Pixglo, Inc., OU=VPN-CIE, CN=tunnel.pixglo.com/name=Bala Chandrasekaran/emailAddress=bala@pixglo.com
        Validity
            Not Before: Feb 14 06:41:34 2018 GMT
            Not After : Feb 12 06:41:34 2028 GMT
        Subject: C=US, ST=CA, L=SanFrancisco, O=Pixglo, Inc., OU=VPN-CIE, CN=cie725/name=Bala Chandrasekaran/emailAddress=bala@pixglo.com
        Subject Public Key Info:
            Public Key Algorithm: rsaEncryption
                Public-Key: (4096 bit)
                Modulus:
                    00:d6:8b:39:1c:3c:b2:4b:8b:86:4a:4d:39:a8:c8:
                    cd:4a:9c:ed:88:07:34:e5:52:be:8c:92:c6:6b:1e:
                    4c:85:cb:be:78:9b:cb:40:48:65:c3:38:f5:6d:32:
                    6e:07:46:e7:80:67:e9:f6:a2:b7:a4:a9:86:dd:6b:
                    d1:f5:6b:cf:7a:15:b4:ca:6a:97:dc:8b:b4:3d:eb:
                    a0:a3:af:e7:9f:1b:da:d5:a8:b7:6c:dc:9b:00:66:
                    1b:44:42:e7:51:78:29:29:d8:5e:08:35:96:47:88:
                    44:93:06:da:24:48:88:b7:b5:3d:63:ed:4c:0b:8d:
                    6d:27:3d:58:e9:52:6c:07:27:74:f3:bb:e4:95:e0:
                    21:8f:df:6d:f9:8e:f8:67:4d:fc:f6:0e:95:cf:35:
                    0d:20:93:d2:2c:49:1c:80:c2:e5:5f:8a:f2:04:f9:
                    7d:59:a8:83:89:12:ff:84:bb:d7:7c:26:4f:d4:53:
                    4d:06:f2:74:93:0f:7e:ff:01:3e:36:23:28:9e:3d:
                    ff:63:89:2e:03:d2:f6:f1:c3:3a:77:c7:38:00:0e:
                    e9:2c:cb:8b:bb:62:be:f9:2a:b4:8b:38:e6:df:3f:
                    9b:74:5a:0f:f0:36:77:a0:10:bb:d9:0c:ea:80:90:
                    67:cc:35:0b:7c:b5:ae:55:36:6b:4e:a3:e8:e4:e5:
                    8a:cc:c1:42:5b:36:ec:47:44:1c:0d:99:99:5d:93:
                    48:bc:e6:1a:59:70:cc:7b:de:50:4f:af:99:f7:3d:
                    68:ce:c9:4c:fc:71:3c:8a:65:bc:3c:e2:f5:e5:4a:
                    3b:d3:79:22:98:98:67:a6:9a:69:70:33:d0:93:33:
                    2f:d3:1a:c7:85:8a:f6:e0:c5:b7:1e:f0:c0:73:9e:
                    2b:fc:c1:76:3f:87:64:9b:b7:ef:91:29:70:17:c4:
                    3a:5e:25:74:4a:9a:df:9d:a0:a1:63:8c:9b:9c:ce:
                    4e:07:57:47:2d:4a:8f:74:3c:6b:64:9c:8a:61:47:
                    20:58:7b:b7:29:d5:8c:fd:8f:36:f8:b2:8c:e7:52:
                    3d:56:c9:42:0f:fb:92:b6:8f:ba:33:0f:d6:0f:59:
                    41:0b:40:6a:62:ee:90:3d:03:7f:96:bd:21:92:3d:
                    f5:a9:46:a5:30:06:0a:3a:a6:89:2f:9b:12:02:75:
                    33:b7:47:42:98:98:db:84:f9:f8:33:99:c7:92:80:
                    b2:59:77:1b:c6:2a:2c:f8:88:d2:f0:9e:cc:e4:35:
                    8b:7b:28:0a:9e:3c:de:60:4a:25:24:9a:84:0b:6b:
                    66:20:7d:9b:68:73:7c:96:39:30:a3:b4:e8:11:f7:
                    66:b6:07:89:c0:0a:1a:d4:27:6f:be:6d:70:05:12:
                    3e:45:4d
                Exponent: 65537 (0x10001)
        X509v3 extensions:
            X509v3 Basic Constraints: 
                CA:FALSE
            Netscape Comment: 
                Easy-RSA Generated Certificate
            X509v3 Subject Key Identifier: 
                11:6B:1D:C8:21:43:1D:CB:01:09:3A:4E:C0:56:3A:5C:B7:65:9C:5D
            X509v3 Authority Key Identifier: 
                keyid:EF:38:8D:14:50:58:A7:5B:4D:9C:17:72:FC:DF:B9:AC:A7:51:B0:10
                DirName:/C=US/ST=CA/L=SanFrancisco/O=Pixglo, Inc./OU=VPN-CIE/CN=tunnel.pixglo.com/name=Bala Chandrasekaran/emailAddress=bala@pixglo.com
                serial:A6:DB:C6:83:80:E6:A0:79

            X509v3 Extended Key Usage: 
                TLS Web Client Authentication
            X509v3 Key Usage: 
                Digital Signature
    Signature Algorithm: sha1WithRSAEncryption
         74:81:d8:95:8c:1f:10:23:ab:39:7e:08:96:b4:18:99:98:2f:
         4b:f2:c1:e9:d7:e0:6b:84:c4:ef:12:06:11:e5:4d:a3:e4:c1:
         01:d1:4b:a3:20:de:7d:f3:ac:fc:5e:5d:1c:c0:06:b2:d0:8a:
         6f:9c:3f:45:93:a2:52:f4:c7:fc:8a:bc:c6:c9:fd:17:d7:5f:
         3f:9b:a3:c6:82:5f:3e:9f:9d:73:e1:82:26:f3:e4:06:b8:6b:
         c7:e4:22:a1:01:76:1d:2a:f1:7b:a6:4f:74:ae:34:ca:7b:c3:
         4a:f7:56:6b:35:dd:7d:aa:12:52:23:d1:79:a1:b9:ae:ec:21:
         d1:a0:03:6f:1a:ce:93:d4:14:0c:2b:07:45:0c:ef:78:ce:c1:
         c0:d4:9a:41:0b:eb:18:5a:a4:14:61:13:8a:c3:0b:4f:6b:e2:
         4f:43:15:d5:68:fe:2c:eb:2e:61:1b:32:38:64:77:28:f8:99:
         d0:af:3c:19:15:3b:17:f3:6d:99:95:57:46:1a:80:5b:98:a0:
         c5:cb:30:3d:13:0b:27:50:7c:81:f9:7f:90:3d:d8:53:74:a4:
         77:e6:95:cc:11:e8:75:53:6a:a1:91:5c:66:7c:5d:4d:b2:65:
         b3:10:9b:7b:24:02:b3:b6:52:4a:77:af:c1:67:5c:23:d4:2a:
         6e:f6:f6:e6:00:7f:1d:ef:8f:24:9c:ad:3d:42:58:c9:80:a8:
         b7:75:61:43:4d:0a:d7:62:da:b0:45:a0:77:f0:db:14:11:be:
         14:a6:54:89:1c:46:57:d2:e3:56:60:1a:d7:06:4a:c3:9e:de:
         03:08:bd:7d:e1:64:9a:ab:e6:68:52:df:98:ed:60:ee:cc:8d:
         96:1e:af:77:6a:01:3a:7d:a5:16:c2:dd:e4:77:d7:1a:ed:16:
         dc:80:b3:34:3a:7f:a0:3b:b5:85:e4:bb:3d:3b:9e:8d:a4:5b:
         ad:f9:0c:a5:7b:48:30:9f:63:97:f4:11:87:36:02:d8:84:13:
         9d:2b:4f:68:f8:64:3e:51:b7:aa:fd:48:26:cd:c9:4b:04:43:
         c7:fa:28:47:c0:a4:d0:ad:b7:dc:30:dc:52:a2:e7:ba:1d:24:
         94:32:09:90:dd:67:4f:5f:bd:24:ec:31:45:73:ca:68:92:7d:
         c5:f2:da:2c:e6:e4:e5:91:1d:15:f7:d4:59:e3:e4:7a:6a:23:
         f3:f5:6d:63:93:eb:9e:04:12:0c:30:e8:5f:aa:d7:15:ee:21:
         a3:d2:19:1f:1d:bf:0d:6f:18:0d:f8:e7:43:f3:dd:7e:6e:56:
         fe:c3:83:e3:18:cc:d7:05:a1:e6:5a:05:47:db:08:3e:6d:73:
         8a:91:f1:62:f9:0a:6a:fb
-----BEGIN CERTIFICATE-----
MIIHSDCCBTCgAwIBAgICAtYwDQYJKoZIhvcNAQEFBQAwgbQxCzAJBgNVBAYTAlVT
MQswCQYDVQQIEwJDQTEVMBMGA1UEBxMMU2FuRnJhbmNpc2NvMRUwEwYDVQQKEwxQ
aXhnbG8sIEluYy4xEDAOBgNVBAsTB1ZQTi1DSUUxGjAYBgNVBAMTEXR1bm5lbC5w
aXhnbG8uY29tMRwwGgYDVQQpExNCYWxhIENoYW5kcmFzZWthcmFuMR4wHAYJKoZI
hvcNAQkBFg9iYWxhQHBpeGdsby5jb20wHhcNMTgwMjE0MDY0MTM0WhcNMjgwMjEy
MDY0MTM0WjCBqTELMAkGA1UEBhMCVVMxCzAJBgNVBAgTAkNBMRUwEwYDVQQHEwxT
YW5GcmFuY2lzY28xFTATBgNVBAoTDFBpeGdsbywgSW5jLjEQMA4GA1UECxMHVlBO
LUNJRTEPMA0GA1UEAxMGY2llNzI1MRwwGgYDVQQpExNCYWxhIENoYW5kcmFzZWth
cmFuMR4wHAYJKoZIhvcNAQkBFg9iYWxhQHBpeGdsby5jb20wggIiMA0GCSqGSIb3
DQEBAQUAA4ICDwAwggIKAoICAQDWizkcPLJLi4ZKTTmoyM1KnO2IBzTlUr6MksZr
HkyFy754m8tASGXDOPVtMm4HRueAZ+n2orekqYbda9H1a896FbTKapfci7Q966Cj
r+efG9rVqLds3JsAZhtEQudReCkp2F4INZZHiESTBtokSIi3tT1j7UwLjW0nPVjp
UmwHJ3Tzu+SV4CGP3235jvhnTfz2DpXPNQ0gk9IsSRyAwuVfivIE+X1ZqIOJEv+E
u9d8Jk/UU00G8nSTD37/AT42IyiePf9jiS4D0vbxwzp3xzgADuksy4u7Yr75KrSL
OObfP5t0Wg/wNnegELvZDOqAkGfMNQt8ta5VNmtOo+jk5YrMwUJbNuxHRBwNmZld
k0i85hpZcMx73lBPr5n3PWjOyUz8cTyKZbw84vXlSjvTeSKYmGemmmlwM9CTMy/T
GseFivbgxbce8MBzniv8wXY/h2Sbt++RKXAXxDpeJXRKmt+doKFjjJuczk4HV0ct
So90PGtknIphRyBYe7cp1Yz9jzb4soznUj1WyUIP+5K2j7ozD9YPWUELQGpi7pA9
A3+WvSGSPfWpRqUwBgo6pokvmxICdTO3R0KYmNuE+fgzmceSgLJZdxvGKiz4iNLw
nszkNYt7KAqePN5gSiUkmoQLa2YgfZtoc3yWOTCjtOgR92a2B4nAChrUJ2++bXAF
Ej5FTQIDAQABo4IBazCCAWcwCQYDVR0TBAIwADAtBglghkgBhvhCAQ0EIBYeRWFz
eS1SU0EgR2VuZXJhdGVkIENlcnRpZmljYXRlMB0GA1UdDgQWBBQRax3IIUMdywEJ
Ok7AVjpct2WcXTCB6QYDVR0jBIHhMIHegBTvOI0UUFinW02cF3L837msp1GwEKGB
uqSBtzCBtDELMAkGA1UEBhMCVVMxCzAJBgNVBAgTAkNBMRUwEwYDVQQHEwxTYW5G
cmFuY2lzY28xFTATBgNVBAoTDFBpeGdsbywgSW5jLjEQMA4GA1UECxMHVlBOLUNJ
RTEaMBgGA1UEAxMRdHVubmVsLnBpeGdsby5jb20xHDAaBgNVBCkTE0JhbGEgQ2hh
bmRyYXNla2FyYW4xHjAcBgkqhkiG9w0BCQEWD2JhbGFAcGl4Z2xvLmNvbYIJAKbb
xoOA5qB5MBMGA1UdJQQMMAoGCCsGAQUFBwMCMAsGA1UdDwQEAwIHgDANBgkqhkiG
9w0BAQUFAAOCAgEAdIHYlYwfECOrOX4IlrQYmZgvS/LB6dfga4TE7xIGEeVNo+TB
AdFLoyDeffOs/F5dHMAGstCKb5w/RZOiUvTH/Iq8xsn9F9dfP5ujxoJfPp+dc+GC
JvPkBrhrx+QioQF2HSrxe6ZPdK40ynvDSvdWazXdfaoSUiPReaG5ruwh0aADbxrO
k9QUDCsHRQzveM7BwNSaQQvrGFqkFGETisMLT2viT0MV1Wj+LOsuYRsyOGR3KPiZ
0K88GRU7F/NtmZVXRhqAW5igxcswPRMLJ1B8gfl/kD3YU3Skd+aVzBHodVNqoZFc
ZnxdTbJlsxCbeyQCs7ZSSnevwWdcI9Qqbvb25gB/He+PJJytPUJYyYCot3VhQ00K
12LasEWgd/DbFBG+FKZUiRxGV9LjVmAa1wZKw57eAwi9feFkmqvmaFLfmO1g7syN
lh6vd2oBOn2lFsLd5HfXGu0W3ICzNDp/oDu1heS7PTuejaRbrfkMpXtIMJ9jl/QR
hzYC2IQTnStPaPhkPlG3qv1IJs3JSwRDx/ooR8Ck0K233DDcUqLnuh0klDIJkN1n
T1+9JOwxRXPKaJJ9xfLaLObk5ZEdFffUWePkemoj8/VtY5PrngQSDDDoX6rXFe4h
o9IZHx2/DW8YDfjnQ/Pdfm5W/sOD4xjM1wWh5loFR9sIPm1zipHxYvkKavs=
-----END CERTIFICATE-----
