Certificate:
    Data:
        Version: 3 (0x2)
        Serial Number: 727 (0x2d7)
    Signature Algorithm: sha1WithRSAEncryption
        Issuer: C=US, ST=CA, L=SanFrancisco, O=Pixglo, Inc., OU=VPN-CIE, CN=tunnel.pixglo.com/name=Bala Chandrasekaran/emailAddress=bala@pixglo.com
        Validity
            Not Before: Feb 14 06:41:35 2018 GMT
            Not After : Feb 12 06:41:35 2028 GMT
        Subject: C=US, ST=CA, L=SanFrancisco, O=Pixglo, Inc., OU=VPN-CIE, CN=cie726/name=Bala Chandrasekaran/emailAddress=bala@pixglo.com
        Subject Public Key Info:
            Public Key Algorithm: rsaEncryption
                Public-Key: (4096 bit)
                Modulus:
                    00:d3:36:f3:f5:09:2e:54:04:30:cb:6a:94:42:f6:
                    89:4c:51:b9:f0:5d:1b:ec:ec:16:4b:71:ad:39:51:
                    e8:d4:53:e6:60:79:d4:7e:90:93:88:d2:7b:ee:94:
                    84:3e:17:20:9c:3a:59:5c:84:ac:f4:62:a8:34:eb:
                    d4:37:39:2f:8f:90:10:6e:35:c8:f9:5a:2e:3c:ec:
                    ae:6f:86:2c:07:71:b6:ea:cd:b7:26:04:6d:0c:56:
                    49:b4:50:23:ff:b0:9c:b3:5b:61:ee:aa:0f:61:4a:
                    48:c6:00:9d:aa:f5:08:9a:0c:65:66:a4:4a:50:8d:
                    03:f2:77:b4:23:b3:b1:da:c9:cd:96:9b:e4:e0:3b:
                    5f:ed:b0:8f:04:f1:e7:8d:72:12:43:d9:24:06:a4:
                    0e:84:de:71:79:83:5e:40:a0:4d:98:b6:ab:09:4b:
                    45:8a:39:ad:81:98:d3:71:da:5b:ed:31:ff:11:ee:
                    fa:0d:b0:98:04:46:57:7b:74:12:61:ba:26:de:8f:
                    0b:0b:58:13:64:67:82:95:bb:25:28:d7:2f:da:fb:
                    b9:22:1d:6b:23:a8:70:42:b6:42:4b:dc:cd:fe:17:
                    13:32:b9:66:be:52:ba:73:0b:3a:66:91:a5:84:01:
                    7f:1a:51:40:8a:c4:9d:84:1f:51:b5:49:c7:17:5e:
                    4b:43:5e:e6:8f:37:88:18:7d:93:da:04:07:cb:0b:
                    96:37:e4:d0:bb:bf:67:40:cc:23:72:89:7d:78:f1:
                    34:a1:fa:44:df:2e:75:f9:44:ed:a4:df:10:c1:ef:
                    d2:5d:59:c1:77:f2:58:7e:a4:27:bc:6a:aa:18:23:
                    33:69:f5:88:67:7c:62:f0:cf:bc:f1:3f:fb:a5:a6:
                    78:29:af:33:d4:9d:59:7f:53:1c:25:28:9d:d5:47:
                    5b:b5:77:38:57:ba:72:ad:aa:ad:20:5e:d3:9e:9b:
                    73:16:11:ca:19:23:2f:56:4c:e8:88:76:33:12:3b:
                    b0:f5:b7:1b:2d:5b:1c:e5:cf:b7:f0:5b:d6:65:95:
                    f8:1b:c2:0f:d7:03:f0:1d:59:d3:ab:5a:bf:66:50:
                    b3:59:bd:38:ba:d5:3d:ee:15:d2:58:e7:2a:47:60:
                    00:46:d4:1f:5c:92:d3:aa:19:48:75:f2:cf:e7:eb:
                    19:4d:fe:43:1d:c9:f0:f9:3b:26:51:c1:e6:da:d5:
                    f1:70:e2:e3:ac:4e:e7:51:fc:83:dc:41:e1:d1:31:
                    da:e7:34:6c:0d:4f:e1:81:bc:d2:87:18:a3:42:d0:
                    c4:d6:0d:e1:a2:5a:f4:48:4a:2b:59:e3:02:5a:e7:
                    ea:3f:cd:cd:5f:7d:13:b8:1f:08:2a:a9:2c:9d:bc:
                    1f:97:55
                Exponent: 65537 (0x10001)
        X509v3 extensions:
            X509v3 Basic Constraints: 
                CA:FALSE
            Netscape Comment: 
                Easy-RSA Generated Certificate
            X509v3 Subject Key Identifier: 
                02:6C:BC:49:85:9C:D1:E3:E2:E2:7E:F0:E4:23:6A:84:A7:22:FB:7E
            X509v3 Authority Key Identifier: 
                keyid:EF:38:8D:14:50:58:A7:5B:4D:9C:17:72:FC:DF:B9:AC:A7:51:B0:10
                DirName:/C=US/ST=CA/L=SanFrancisco/O=Pixglo, Inc./OU=VPN-CIE/CN=tunnel.pixglo.com/name=Bala Chandrasekaran/emailAddress=bala@pixglo.com
                serial:A6:DB:C6:83:80:E6:A0:79

            X509v3 Extended Key Usage: 
                TLS Web Client Authentication
            X509v3 Key Usage: 
                Digital Signature
    Signature Algorithm: sha1WithRSAEncryption
         ba:27:1e:84:e6:cb:97:62:e8:e7:da:34:fa:ba:23:4f:c1:39:
         56:e5:5e:32:c3:66:6d:91:7e:e7:f5:65:91:74:33:4c:6c:5b:
         36:0b:1b:1c:9b:39:4a:3c:86:2f:ab:c3:b0:99:8a:6d:2e:37:
         40:de:5e:6d:7f:36:75:57:2a:f4:78:c3:e4:ae:60:88:39:eb:
         88:d2:fe:cd:62:11:4c:77:16:ff:45:89:c1:8e:6c:f7:f6:76:
         1a:36:88:45:da:b6:8b:c9:b8:d5:c0:4f:c8:02:8e:77:64:c2:
         34:68:7d:75:e6:a9:44:df:f5:06:9d:1a:44:e1:3b:cf:18:cc:
         37:7f:f3:c0:77:a2:92:87:af:98:9a:d5:98:21:19:73:70:a5:
         dc:ba:d4:8d:95:9e:1d:62:f0:5d:42:0d:3f:ec:32:29:92:d5:
         0a:17:7e:22:31:3f:50:76:0a:87:e4:fb:7a:b3:f6:9b:42:b8:
         99:d1:01:dc:89:a5:0a:45:b0:d5:4d:c8:62:10:a1:99:6d:19:
         02:2b:11:3d:96:79:7a:68:c0:d4:20:39:ed:2f:18:f8:b6:67:
         ad:7b:db:1d:9b:42:56:31:4b:3c:d7:06:8d:9d:d2:9d:b2:8e:
         ad:e9:8e:87:fb:82:2d:8e:58:b7:9e:ee:e5:c7:96:39:7f:19:
         94:fa:c9:78:75:5f:33:b4:59:c8:9a:a5:b5:72:4f:ae:f2:e9:
         0d:03:e1:f1:8d:22:cd:f3:c4:5d:7b:b5:8b:55:b1:06:65:d8:
         87:24:eb:9b:e9:cf:ac:ef:85:22:f1:fb:ac:b2:2a:70:95:68:
         2d:0a:10:45:17:bc:60:ef:59:44:c5:0f:dd:b9:7d:42:b5:09:
         b8:e5:4a:9d:27:b9:d0:db:67:0d:f9:4f:f3:c8:aa:8e:74:99:
         86:a6:b5:91:95:3d:bc:f1:31:1b:d0:80:f8:5b:46:ca:35:b4:
         1a:f5:4f:37:82:6f:95:30:5e:f7:cb:0b:72:f6:29:66:40:3c:
         8d:34:d6:b4:51:44:ae:95:59:eb:dc:09:39:d6:8b:97:f9:8e:
         77:9f:51:1d:14:eb:8e:b9:8b:6a:20:67:30:d7:b3:16:ff:06:
         61:f2:bd:06:6d:f9:2d:0f:c4:de:cc:29:6e:2e:71:65:b9:89:
         7a:04:2e:9d:9f:55:70:4c:7b:bc:a7:1c:95:5d:71:6e:2a:d6:
         53:d3:d6:3e:89:02:2b:b1:70:2c:46:d4:41:8f:1a:a1:34:28:
         80:24:76:13:de:7d:16:f9:94:e0:5d:b4:97:78:67:ab:e5:f5:
         a7:a7:d8:05:d0:02:58:af:5f:a7:43:33:ea:8a:5f:e4:47:87:
         92:9b:9e:a3:2b:a3:91:95
-----BEGIN CERTIFICATE-----
MIIHSDCCBTCgAwIBAgICAtcwDQYJKoZIhvcNAQEFBQAwgbQxCzAJBgNVBAYTAlVT
MQswCQYDVQQIEwJDQTEVMBMGA1UEBxMMU2FuRnJhbmNpc2NvMRUwEwYDVQQKEwxQ
aXhnbG8sIEluYy4xEDAOBgNVBAsTB1ZQTi1DSUUxGjAYBgNVBAMTEXR1bm5lbC5w
aXhnbG8uY29tMRwwGgYDVQQpExNCYWxhIENoYW5kcmFzZWthcmFuMR4wHAYJKoZI
hvcNAQkBFg9iYWxhQHBpeGdsby5jb20wHhcNMTgwMjE0MDY0MTM1WhcNMjgwMjEy
MDY0MTM1WjCBqTELMAkGA1UEBhMCVVMxCzAJBgNVBAgTAkNBMRUwEwYDVQQHEwxT
YW5GcmFuY2lzY28xFTATBgNVBAoTDFBpeGdsbywgSW5jLjEQMA4GA1UECxMHVlBO
LUNJRTEPMA0GA1UEAxMGY2llNzI2MRwwGgYDVQQpExNCYWxhIENoYW5kcmFzZWth
cmFuMR4wHAYJKoZIhvcNAQkBFg9iYWxhQHBpeGdsby5jb20wggIiMA0GCSqGSIb3
DQEBAQUAA4ICDwAwggIKAoICAQDTNvP1CS5UBDDLapRC9olMUbnwXRvs7BZLca05
UejUU+ZgedR+kJOI0nvulIQ+FyCcOllchKz0Yqg069Q3OS+PkBBuNcj5Wi487K5v
hiwHcbbqzbcmBG0MVkm0UCP/sJyzW2Huqg9hSkjGAJ2q9QiaDGVmpEpQjQPyd7Qj
s7Hayc2Wm+TgO1/tsI8E8eeNchJD2SQGpA6E3nF5g15AoE2YtqsJS0WKOa2BmNNx
2lvtMf8R7voNsJgERld7dBJhuibejwsLWBNkZ4KVuyUo1y/a+7kiHWsjqHBCtkJL
3M3+FxMyuWa+UrpzCzpmkaWEAX8aUUCKxJ2EH1G1SccXXktDXuaPN4gYfZPaBAfL
C5Y35NC7v2dAzCNyiX148TSh+kTfLnX5RO2k3xDB79JdWcF38lh+pCe8aqoYIzNp
9YhnfGLwz7zxP/ulpngprzPUnVl/UxwlKJ3VR1u1dzhXunKtqq0gXtOem3MWEcoZ
Iy9WTOiIdjMSO7D1txstWxzlz7fwW9Zllfgbwg/XA/AdWdOrWr9mULNZvTi61T3u
FdJY5ypHYABG1B9cktOqGUh18s/n6xlN/kMdyfD5OyZRweba1fFw4uOsTudR/IPc
QeHRMdrnNGwNT+GBvNKHGKNC0MTWDeGiWvRISitZ4wJa5+o/zc1ffRO4HwgqqSyd
vB+XVQIDAQABo4IBazCCAWcwCQYDVR0TBAIwADAtBglghkgBhvhCAQ0EIBYeRWFz
eS1SU0EgR2VuZXJhdGVkIENlcnRpZmljYXRlMB0GA1UdDgQWBBQCbLxJhZzR4+Li
fvDkI2qEpyL7fjCB6QYDVR0jBIHhMIHegBTvOI0UUFinW02cF3L837msp1GwEKGB
uqSBtzCBtDELMAkGA1UEBhMCVVMxCzAJBgNVBAgTAkNBMRUwEwYDVQQHEwxTYW5G
cmFuY2lzY28xFTATBgNVBAoTDFBpeGdsbywgSW5jLjEQMA4GA1UECxMHVlBOLUNJ
RTEaMBgGA1UEAxMRdHVubmVsLnBpeGdsby5jb20xHDAaBgNVBCkTE0JhbGEgQ2hh
bmRyYXNla2FyYW4xHjAcBgkqhkiG9w0BCQEWD2JhbGFAcGl4Z2xvLmNvbYIJAKbb
xoOA5qB5MBMGA1UdJQQMMAoGCCsGAQUFBwMCMAsGA1UdDwQEAwIHgDANBgkqhkiG
9w0BAQUFAAOCAgEAuicehObLl2Lo59o0+rojT8E5VuVeMsNmbZF+5/VlkXQzTGxb
NgsbHJs5SjyGL6vDsJmKbS43QN5ebX82dVcq9HjD5K5giDnriNL+zWIRTHcW/0WJ
wY5s9/Z2GjaIRdq2i8m41cBPyAKOd2TCNGh9deapRN/1Bp0aROE7zxjMN3/zwHei
koevmJrVmCEZc3Cl3LrUjZWeHWLwXUINP+wyKZLVChd+IjE/UHYKh+T7erP2m0K4
mdEB3ImlCkWw1U3IYhChmW0ZAisRPZZ5emjA1CA57S8Y+LZnrXvbHZtCVjFLPNcG
jZ3SnbKOremOh/uCLY5Yt57u5ceWOX8ZlPrJeHVfM7RZyJqltXJPrvLpDQPh8Y0i
zfPEXXu1i1WxBmXYhyTrm+nPrO+FIvH7rLIqcJVoLQoQRRe8YO9ZRMUP3bl9QrUJ
uOVKnSe50NtnDflP88iqjnSZhqa1kZU9vPExG9CA+FtGyjW0GvVPN4JvlTBe98sL
cvYpZkA8jTTWtFFErpVZ69wJOdaLl/mOd59RHRTrjrmLaiBnMNezFv8GYfK9Bm35
LQ/E3swpbi5xZbmJegQunZ9VcEx7vKcclV1xbirWU9PWPokCK7FwLEbUQY8aoTQo
gCR2E959FvmU4F20l3hnq+X1p6fYBdACWK9fp0Mz6opf5EeHkpueoyujkZU=
-----END CERTIFICATE-----
