Certificate:
    Data:
        Version: 3 (0x2)
        Serial Number: 730 (0x2da)
    Signature Algorithm: sha1WithRSAEncryption
        Issuer: C=US, ST=CA, L=SanFrancisco, O=Pixglo, Inc., OU=VPN-CIE, CN=tunnel.pixglo.com/name=Bala Chandrasekaran/emailAddress=bala@pixglo.com
        Validity
            Not Before: Feb 14 06:41:40 2018 GMT
            Not After : Feb 12 06:41:40 2028 GMT
        Subject: C=US, ST=CA, L=SanFrancisco, O=Pixglo, Inc., OU=VPN-CIE, CN=cie729/name=Bala Chandrasekaran/emailAddress=bala@pixglo.com
        Subject Public Key Info:
            Public Key Algorithm: rsaEncryption
                Public-Key: (4096 bit)
                Modulus:
                    00:b7:f8:80:d7:be:9a:64:0c:2a:e6:8d:26:f1:66:
                    59:2a:00:4b:a3:84:80:d0:cb:4a:1c:5b:46:b3:5a:
                    f7:e8:3e:b2:5b:b7:b4:a1:d8:ae:58:bb:14:3d:ef:
                    f5:d7:1f:01:06:74:24:e6:93:3c:54:ca:42:e8:94:
                    91:12:2e:d0:02:05:ab:90:01:60:31:96:41:b2:23:
                    65:36:83:81:d4:79:0e:23:41:74:b2:2c:7d:7f:13:
                    0a:8e:00:64:63:25:70:d8:24:52:91:95:64:18:24:
                    39:52:c0:4d:79:55:c4:83:bc:8a:c9:ee:89:f1:5e:
                    fb:55:3d:d9:29:93:f3:e8:4c:33:bf:fe:9f:ed:da:
                    17:90:42:e1:f6:85:0c:e4:d8:fa:f2:1f:87:b7:77:
                    51:f6:fd:28:fd:bd:bd:73:33:83:68:c0:3a:0a:cc:
                    84:92:02:01:4f:a0:46:cc:3e:92:2f:eb:2d:a9:9a:
                    84:99:fd:bd:48:83:99:5e:17:cd:d3:58:c1:47:69:
                    43:04:60:01:76:4e:3e:d3:ed:e8:38:ef:64:1a:e8:
                    55:50:e2:8f:1b:f7:68:83:23:a8:c2:78:81:72:51:
                    34:df:82:cc:10:d3:73:3a:d6:f3:1c:bd:4a:43:d9:
                    50:59:9e:ae:90:6b:0f:c0:a2:4b:77:23:6d:01:c5:
                    86:8f:af:d6:77:f2:84:b8:65:5c:78:e9:a0:9a:65:
                    74:2c:77:d5:47:65:7e:a7:81:2e:95:3e:35:69:83:
                    3e:c4:90:93:ec:4a:1d:fa:7f:f8:f5:b6:34:8d:90:
                    68:94:91:8d:29:b4:9a:69:b0:0a:53:2b:ff:1b:3e:
                    a5:b7:19:89:d8:64:4e:78:e0:fe:13:09:09:a5:cc:
                    1f:93:03:ac:16:07:14:3a:20:93:20:21:73:de:89:
                    ce:e4:71:9c:f3:96:ee:0d:81:d3:32:24:b7:b1:fe:
                    db:3b:c7:f4:da:3f:eb:b7:fa:7e:ea:33:e0:c1:fe:
                    86:ae:a5:6a:09:0c:f3:6f:68:4c:44:4b:07:1c:00:
                    0c:df:3b:49:65:b4:51:6d:46:8b:f3:d6:05:03:37:
                    a0:3a:d9:4e:78:55:d2:58:70:8c:75:a9:97:f6:ce:
                    83:23:93:f5:c2:35:10:a3:32:b5:2b:56:03:25:ad:
                    76:ac:fa:a1:22:3a:08:2c:06:6c:0a:5b:fa:d4:b8:
                    f1:16:52:87:1a:33:26:a6:d2:03:18:b3:f7:22:c6:
                    e6:33:c3:15:cb:7c:3a:2c:3d:b9:d5:03:dd:d7:a6:
                    fa:86:6f:93:76:4b:63:ed:fd:4f:f4:40:f7:13:c1:
                    2c:22:5c:85:ff:56:7e:2a:07:80:6f:c4:05:55:73:
                    af:22:e1
                Exponent: 65537 (0x10001)
        X509v3 extensions:
            X509v3 Basic Constraints: 
                CA:FALSE
            Netscape Comment: 
                Easy-RSA Generated Certificate
            X509v3 Subject Key Identifier: 
                D3:E5:2B:06:F4:2B:6C:7C:6A:FF:44:F9:D4:B5:EE:8B:70:EE:D8:74
            X509v3 Authority Key Identifier: 
                keyid:EF:38:8D:14:50:58:A7:5B:4D:9C:17:72:FC:DF:B9:AC:A7:51:B0:10
                DirName:/C=US/ST=CA/L=SanFrancisco/O=Pixglo, Inc./OU=VPN-CIE/CN=tunnel.pixglo.com/name=Bala Chandrasekaran/emailAddress=bala@pixglo.com
                serial:A6:DB:C6:83:80:E6:A0:79

            X509v3 Extended Key Usage: 
                TLS Web Client Authentication
            X509v3 Key Usage: 
                Digital Signature
    Signature Algorithm: sha1WithRSAEncryption
         0e:4f:a5:ee:70:e2:53:86:8b:0d:29:5e:3a:11:9d:b2:45:a2:
         24:4f:55:ae:75:f7:3f:84:3c:7f:03:68:73:8d:7a:33:a6:20:
         48:8b:6c:40:61:83:5a:fc:0d:2a:7c:05:e7:37:83:b4:31:ac:
         70:a4:22:32:02:70:c9:15:af:fb:d8:98:8c:c6:a0:ca:8d:3f:
         f2:7f:6c:fe:12:63:75:63:f0:04:86:0b:48:0d:3d:95:6f:81:
         62:87:a3:1b:5e:c7:c0:78:b9:dd:2e:0f:0a:8f:69:6e:af:bd:
         cb:fe:37:e8:1e:96:65:f3:8f:21:c6:fc:56:9d:80:35:88:a5:
         91:b4:94:43:3d:a3:a1:5f:a3:98:b8:af:e7:a1:46:2a:7f:39:
         97:44:05:e2:d1:97:49:ac:88:d6:0a:0b:b4:5a:83:dd:f8:b8:
         d4:d4:a7:16:86:ea:24:1c:55:9d:63:87:c6:02:82:f1:15:a1:
         b9:a8:d0:4e:68:ff:81:ce:fc:ed:6b:83:64:99:3e:28:21:a2:
         79:ad:a0:6f:9c:bd:f6:c2:83:53:0a:09:b7:89:47:13:00:2c:
         75:42:9b:cb:f2:e5:b7:98:2d:5c:d4:5a:5e:18:6f:db:e6:c1:
         8c:ee:70:a7:d5:ce:4e:72:3c:4e:55:aa:cd:f4:88:bd:75:a1:
         1b:4d:5a:4d:c6:3d:e8:5a:9b:e6:28:40:21:51:61:4d:23:47:
         0f:b5:e1:bb:2e:b3:fe:e1:bf:dc:04:fb:72:94:64:42:3d:94:
         6c:fb:af:ab:52:39:3d:ae:ad:c5:ac:2f:94:ee:24:b3:0c:f2:
         4a:fe:ce:19:d9:78:68:5a:0e:cd:a2:47:89:57:67:ed:fb:2d:
         a3:51:be:78:f3:eb:09:8f:fb:7c:2d:42:85:f2:fe:d8:bc:2c:
         ca:36:de:29:68:61:6a:5b:18:11:f6:96:3a:25:3d:06:cc:b4:
         ba:df:91:01:9f:b0:90:40:cb:f6:cf:ee:37:f4:43:ba:80:e7:
         44:e4:89:94:2f:bd:b7:06:40:f0:1a:8a:83:7b:a4:25:ed:cd:
         fc:9d:d4:54:af:e3:6e:7c:6a:a6:3c:72:bd:ad:ff:6e:6f:b6:
         54:f0:8f:86:87:96:92:e3:0f:c7:39:81:e9:0b:8a:d3:cd:8f:
         bc:e5:45:8f:30:97:a9:b2:82:ae:02:9b:2f:2c:d9:1a:3c:6d:
         81:fb:f0:ae:cd:a2:8f:7e:f3:07:9f:f8:f2:4d:5e:9e:cd:a5:
         8b:f1:f7:96:b2:7b:14:52:40:f7:05:1a:0b:20:23:a7:ea:3e:
         a8:8d:e6:31:e8:d5:8d:e6:b3:b8:db:c3:d2:a8:17:95:7e:44:
         8a:73:f5:26:1b:0b:e5:a1
-----BEGIN CERTIFICATE-----
MIIHSDCCBTCgAwIBAgICAtowDQYJKoZIhvcNAQEFBQAwgbQxCzAJBgNVBAYTAlVT
MQswCQYDVQQIEwJDQTEVMBMGA1UEBxMMU2FuRnJhbmNpc2NvMRUwEwYDVQQKEwxQ
aXhnbG8sIEluYy4xEDAOBgNVBAsTB1ZQTi1DSUUxGjAYBgNVBAMTEXR1bm5lbC5w
aXhnbG8uY29tMRwwGgYDVQQpExNCYWxhIENoYW5kcmFzZWthcmFuMR4wHAYJKoZI
hvcNAQkBFg9iYWxhQHBpeGdsby5jb20wHhcNMTgwMjE0MDY0MTQwWhcNMjgwMjEy
MDY0MTQwWjCBqTELMAkGA1UEBhMCVVMxCzAJBgNVBAgTAkNBMRUwEwYDVQQHEwxT
YW5GcmFuY2lzY28xFTATBgNVBAoTDFBpeGdsbywgSW5jLjEQMA4GA1UECxMHVlBO
LUNJRTEPMA0GA1UEAxMGY2llNzI5MRwwGgYDVQQpExNCYWxhIENoYW5kcmFzZWth
cmFuMR4wHAYJKoZIhvcNAQkBFg9iYWxhQHBpeGdsby5jb20wggIiMA0GCSqGSIb3
DQEBAQUAA4ICDwAwggIKAoICAQC3+IDXvppkDCrmjSbxZlkqAEujhIDQy0ocW0az
WvfoPrJbt7Sh2K5YuxQ97/XXHwEGdCTmkzxUykLolJESLtACBauQAWAxlkGyI2U2
g4HUeQ4jQXSyLH1/EwqOAGRjJXDYJFKRlWQYJDlSwE15VcSDvIrJ7onxXvtVPdkp
k/PoTDO//p/t2heQQuH2hQzk2PryH4e3d1H2/Sj9vb1zM4NowDoKzISSAgFPoEbM
PpIv6y2pmoSZ/b1Ig5leF83TWMFHaUMEYAF2Tj7T7eg472Qa6FVQ4o8b92iDI6jC
eIFyUTTfgswQ03M61vMcvUpD2VBZnq6Qaw/Aokt3I20BxYaPr9Z38oS4ZVx46aCa
ZXQsd9VHZX6ngS6VPjVpgz7EkJPsSh36f/j1tjSNkGiUkY0ptJppsApTK/8bPqW3
GYnYZE544P4TCQmlzB+TA6wWBxQ6IJMgIXPeic7kcZzzlu4NgdMyJLex/ts7x/Ta
P+u3+n7qM+DB/oaupWoJDPNvaExESwccAAzfO0lltFFtRovz1gUDN6A62U54VdJY
cIx1qZf2zoMjk/XCNRCjMrUrVgMlrXas+qEiOggsBmwKW/rUuPEWUocaMyam0gMY
s/cixuYzwxXLfDosPbnVA93XpvqGb5N2S2Pt/U/0QPcTwSwiXIX/Vn4qB4BvxAVV
c68i4QIDAQABo4IBazCCAWcwCQYDVR0TBAIwADAtBglghkgBhvhCAQ0EIBYeRWFz
eS1SU0EgR2VuZXJhdGVkIENlcnRpZmljYXRlMB0GA1UdDgQWBBTT5SsG9CtsfGr/
RPnUte6LcO7YdDCB6QYDVR0jBIHhMIHegBTvOI0UUFinW02cF3L837msp1GwEKGB
uqSBtzCBtDELMAkGA1UEBhMCVVMxCzAJBgNVBAgTAkNBMRUwEwYDVQQHEwxTYW5G
cmFuY2lzY28xFTATBgNVBAoTDFBpeGdsbywgSW5jLjEQMA4GA1UECxMHVlBOLUNJ
RTEaMBgGA1UEAxMRdHVubmVsLnBpeGdsby5jb20xHDAaBgNVBCkTE0JhbGEgQ2hh
bmRyYXNla2FyYW4xHjAcBgkqhkiG9w0BCQEWD2JhbGFAcGl4Z2xvLmNvbYIJAKbb
xoOA5qB5MBMGA1UdJQQMMAoGCCsGAQUFBwMCMAsGA1UdDwQEAwIHgDANBgkqhkiG
9w0BAQUFAAOCAgEADk+l7nDiU4aLDSleOhGdskWiJE9VrnX3P4Q8fwNoc416M6Yg
SItsQGGDWvwNKnwF5zeDtDGscKQiMgJwyRWv+9iYjMagyo0/8n9s/hJjdWPwBIYL
SA09lW+BYoejG17HwHi53S4PCo9pbq+9y/436B6WZfOPIcb8Vp2ANYilkbSUQz2j
oV+jmLiv56FGKn85l0QF4tGXSayI1goLtFqD3fi41NSnFobqJBxVnWOHxgKC8RWh
uajQTmj/gc787WuDZJk+KCGiea2gb5y99sKDUwoJt4lHEwAsdUKby/Llt5gtXNRa
Xhhv2+bBjO5wp9XOTnI8TlWqzfSIvXWhG01aTcY96Fqb5ihAIVFhTSNHD7Xhuy6z
/uG/3AT7cpRkQj2UbPuvq1I5Pa6txawvlO4kswzySv7OGdl4aFoOzaJHiVdn7fst
o1G+ePPrCY/7fC1ChfL+2LwsyjbeKWhhalsYEfaWOiU9Bsy0ut+RAZ+wkEDL9s/u
N/RDuoDnROSJlC+9twZA8BqKg3ukJe3N/J3UVK/jbnxqpjxyva3/bm+2VPCPhoeW
kuMPxzmB6QuK082PvOVFjzCXqbKCrgKbLyzZGjxtgfvwrs2ij37zB5/48k1ens2l
i/H3lrJ7FFJA9wUaCyAjp+o+qI3mMejVjeazuNvD0qgXlX5EinP1JhsL5aE=
-----END CERTIFICATE-----
