Certificate:
    Data:
        Version: 3 (0x2)
        Serial Number: 732 (0x2dc)
    Signature Algorithm: sha1WithRSAEncryption
        Issuer: C=US, ST=CA, L=SanFrancisco, O=Pixglo, Inc., OU=VPN-CIE, CN=tunnel.pixglo.com/name=Bala Chandrasekaran/emailAddress=bala@pixglo.com
        Validity
            Not Before: Feb 14 06:41:43 2018 GMT
            Not After : Feb 12 06:41:43 2028 GMT
        Subject: C=US, ST=CA, L=SanFrancisco, O=Pixglo, Inc., OU=VPN-CIE, CN=cie731/name=Bala Chandrasekaran/emailAddress=bala@pixglo.com
        Subject Public Key Info:
            Public Key Algorithm: rsaEncryption
                Public-Key: (4096 bit)
                Modulus:
                    00:dc:dd:2a:80:5a:df:4d:03:57:fc:dc:28:2c:64:
                    9c:c9:36:cd:0a:8a:97:46:97:38:a1:ce:be:69:47:
                    f0:0b:08:c0:f5:c0:1d:35:45:79:15:fe:26:68:dc:
                    12:4d:60:40:c2:ad:03:34:0e:40:86:0a:78:6d:5c:
                    ed:00:ee:64:03:5a:fd:6e:d1:8c:c3:49:d9:88:67:
                    62:43:e7:96:1e:e4:4e:2a:b4:95:78:d4:11:c1:af:
                    c3:35:1b:06:5a:0d:24:ae:f1:34:b5:48:60:62:19:
                    86:43:fe:29:0d:2d:87:cf:70:de:5f:71:51:d5:82:
                    0c:39:1f:d3:64:ca:e8:c1:76:20:f1:88:de:af:1f:
                    31:09:b2:dc:3b:7b:ab:98:29:46:50:9a:18:38:02:
                    31:d3:17:34:92:b5:9b:c7:39:ec:11:06:ba:6d:07:
                    c0:25:ea:dc:fa:7f:8e:46:80:ad:60:a5:2d:f5:ac:
                    4f:75:1a:aa:d5:75:4a:db:07:31:92:77:59:9a:4a:
                    5e:9b:e7:47:2f:0b:11:02:95:b1:4d:f9:bf:c9:13:
                    0f:d6:65:85:58:8c:e6:a6:f7:eb:3b:fe:c1:a9:5a:
                    db:82:fd:a9:09:60:be:2d:e5:02:8f:81:9e:b2:8e:
                    fc:83:21:8d:ba:26:62:d0:a5:ec:e0:9b:b5:0e:23:
                    1a:90:c0:76:2f:7a:9c:4c:65:de:da:22:2a:33:30:
                    fe:72:ee:80:76:e0:ca:5f:7a:c6:b6:50:11:9a:dc:
                    79:69:01:3d:01:f3:30:c7:b8:92:5a:b8:d1:b7:1b:
                    fa:31:01:b5:70:72:df:e0:20:60:c1:37:82:71:2b:
                    d1:c5:86:36:17:0b:f6:05:fa:15:2a:4f:92:16:fc:
                    f3:7e:38:b6:22:6d:21:75:66:c8:b5:aa:03:ab:13:
                    9b:17:9a:9f:eb:8e:0b:cd:fd:9d:2c:cc:23:23:c1:
                    7a:90:ce:a6:2f:9e:5d:0d:4b:35:90:38:97:bb:8c:
                    b8:43:29:6d:f8:51:52:47:1d:b2:d6:a2:7f:ab:78:
                    19:0a:f0:a7:a8:e8:39:71:4c:b6:db:ed:04:ca:14:
                    a6:c7:64:61:7e:1b:00:f3:eb:af:de:de:99:c0:85:
                    36:cd:bb:9a:7c:91:54:de:d1:c4:24:bc:f0:e9:70:
                    44:ff:4e:76:57:7d:66:46:ab:05:38:e8:f5:32:9d:
                    9f:5d:a1:42:57:4b:ce:bb:8c:a2:3c:fc:d2:72:86:
                    61:d3:f3:e8:85:aa:97:cd:df:44:e8:11:72:a4:cf:
                    47:26:f5:89:e4:c9:a6:bf:7b:54:58:4a:74:e6:96:
                    60:c7:1d:0a:9f:56:3a:f9:be:8b:1e:bd:e9:c2:ee:
                    3d:59:7b
                Exponent: 65537 (0x10001)
        X509v3 extensions:
            X509v3 Basic Constraints: 
                CA:FALSE
            Netscape Comment: 
                Easy-RSA Generated Certificate
            X509v3 Subject Key Identifier: 
                FE:D8:73:80:FB:7F:CE:13:46:78:73:F6:7C:F0:3E:6C:FD:CC:F7:DD
            X509v3 Authority Key Identifier: 
                keyid:EF:38:8D:14:50:58:A7:5B:4D:9C:17:72:FC:DF:B9:AC:A7:51:B0:10
                DirName:/C=US/ST=CA/L=SanFrancisco/O=Pixglo, Inc./OU=VPN-CIE/CN=tunnel.pixglo.com/name=Bala Chandrasekaran/emailAddress=bala@pixglo.com
                serial:A6:DB:C6:83:80:E6:A0:79

            X509v3 Extended Key Usage: 
                TLS Web Client Authentication
            X509v3 Key Usage: 
                Digital Signature
    Signature Algorithm: sha1WithRSAEncryption
         79:31:62:58:e7:27:16:6e:ad:f8:65:08:7e:bc:93:6c:37:24:
         23:4d:3c:9e:e9:d6:fe:c8:2c:c2:30:87:40:b9:f8:76:53:2c:
         99:d6:48:af:1e:3b:9d:82:a0:97:7f:f8:62:5e:f6:ae:45:96:
         73:3a:21:d3:33:e3:59:54:3f:32:95:4f:b6:a6:8e:58:b4:06:
         18:ea:64:c9:eb:39:80:95:de:df:5c:41:77:9d:9b:e2:34:73:
         83:98:f0:99:b5:b7:c1:db:49:b5:5f:1e:23:80:83:b4:fa:67:
         6a:34:8b:d9:41:cf:b8:19:bb:86:69:22:06:d8:48:ca:9d:bd:
         66:e5:06:6c:bc:fb:7e:fa:8d:72:0e:41:a7:a2:03:36:ed:28:
         a6:cc:ab:d2:80:64:6e:3f:19:f0:4b:72:67:6e:96:6d:3d:89:
         ca:c6:9a:98:4e:ab:4e:f0:02:30:66:8d:c1:8a:f3:0a:ad:7c:
         5c:f6:74:88:80:b7:43:95:54:c5:18:42:68:5b:96:92:fb:59:
         58:6b:f2:07:47:0b:28:ab:cf:65:29:ed:72:c4:3c:90:25:c2:
         6e:ca:9b:65:ca:42:91:12:ed:9c:06:63:b2:5a:a2:e2:52:c9:
         b6:84:f9:7d:2f:48:e5:9b:fe:11:c1:e1:e0:a6:4d:42:75:28:
         38:62:91:f6:44:27:d5:26:a2:ea:89:9e:b1:b5:7d:57:fe:7c:
         eb:4b:d8:f9:61:3f:9a:34:4e:70:32:c4:6a:25:21:44:7b:f0:
         d5:2a:de:5f:b8:26:5a:33:af:5e:df:9a:de:10:3c:d4:e5:d1:
         b5:07:02:ad:a9:8a:47:d7:5d:ec:04:ea:ed:d0:11:c1:74:0b:
         a1:64:b9:3d:92:56:f0:6f:7d:43:1a:a4:24:d2:25:5b:54:51:
         b6:ed:88:eb:62:0c:39:f7:76:67:90:cd:03:a1:42:54:9f:c1:
         a6:bd:cc:f8:16:90:51:bd:bc:4d:c4:a2:93:8e:a9:4d:94:cb:
         ff:f5:5f:94:24:1a:7f:ab:28:27:95:92:a9:f2:ab:54:f9:83:
         2b:6a:ea:af:eb:1e:c1:16:77:42:7e:44:c8:d5:e0:43:4b:98:
         3a:87:b6:0d:50:aa:66:0c:08:a2:ec:9d:b3:0d:e0:ca:67:e3:
         b8:41:21:c9:91:48:8c:35:7a:8b:c9:f2:c6:5a:fb:12:6d:f5:
         47:1d:17:f9:4b:b4:94:d0:52:3d:ed:ee:e3:19:5b:b4:8a:26:
         c6:55:5e:6b:43:18:a2:2f:17:e4:4a:8a:e4:3b:69:ed:a3:1f:
         bb:e5:f1:4c:ee:94:04:13:6c:be:96:fa:61:d7:7b:f2:bb:1d:
         7d:5c:e6:42:0a:bc:d7:39
-----BEGIN CERTIFICATE-----
MIIHSDCCBTCgAwIBAgICAtwwDQYJKoZIhvcNAQEFBQAwgbQxCzAJBgNVBAYTAlVT
MQswCQYDVQQIEwJDQTEVMBMGA1UEBxMMU2FuRnJhbmNpc2NvMRUwEwYDVQQKEwxQ
aXhnbG8sIEluYy4xEDAOBgNVBAsTB1ZQTi1DSUUxGjAYBgNVBAMTEXR1bm5lbC5w
aXhnbG8uY29tMRwwGgYDVQQpExNCYWxhIENoYW5kcmFzZWthcmFuMR4wHAYJKoZI
hvcNAQkBFg9iYWxhQHBpeGdsby5jb20wHhcNMTgwMjE0MDY0MTQzWhcNMjgwMjEy
MDY0MTQzWjCBqTELMAkGA1UEBhMCVVMxCzAJBgNVBAgTAkNBMRUwEwYDVQQHEwxT
YW5GcmFuY2lzY28xFTATBgNVBAoTDFBpeGdsbywgSW5jLjEQMA4GA1UECxMHVlBO
LUNJRTEPMA0GA1UEAxMGY2llNzMxMRwwGgYDVQQpExNCYWxhIENoYW5kcmFzZWth
cmFuMR4wHAYJKoZIhvcNAQkBFg9iYWxhQHBpeGdsby5jb20wggIiMA0GCSqGSIb3
DQEBAQUAA4ICDwAwggIKAoICAQDc3SqAWt9NA1f83CgsZJzJNs0KipdGlzihzr5p
R/ALCMD1wB01RXkV/iZo3BJNYEDCrQM0DkCGCnhtXO0A7mQDWv1u0YzDSdmIZ2JD
55Ye5E4qtJV41BHBr8M1GwZaDSSu8TS1SGBiGYZD/ikNLYfPcN5fcVHVggw5H9Nk
yujBdiDxiN6vHzEJstw7e6uYKUZQmhg4AjHTFzSStZvHOewRBrptB8Al6tz6f45G
gK1gpS31rE91GqrVdUrbBzGSd1maSl6b50cvCxEClbFN+b/JEw/WZYVYjOam9+s7
/sGpWtuC/akJYL4t5QKPgZ6yjvyDIY26JmLQpezgm7UOIxqQwHYvepxMZd7aIioz
MP5y7oB24Mpfesa2UBGa3HlpAT0B8zDHuJJauNG3G/oxAbVwct/gIGDBN4JxK9HF
hjYXC/YF+hUqT5IW/PN+OLYibSF1Zsi1qgOrE5sXmp/rjgvN/Z0szCMjwXqQzqYv
nl0NSzWQOJe7jLhDKW34UVJHHbLWon+reBkK8Keo6DlxTLbb7QTKFKbHZGF+GwDz
66/e3pnAhTbNu5p8kVTe0cQkvPDpcET/TnZXfWZGqwU46PUynZ9doUJXS867jKI8
/NJyhmHT8+iFqpfN30ToEXKkz0cm9Ynkyaa/e1RYSnTmlmDHHQqfVjr5vosevenC
7j1ZewIDAQABo4IBazCCAWcwCQYDVR0TBAIwADAtBglghkgBhvhCAQ0EIBYeRWFz
eS1SU0EgR2VuZXJhdGVkIENlcnRpZmljYXRlMB0GA1UdDgQWBBT+2HOA+3/OE0Z4
c/Z88D5s/cz33TCB6QYDVR0jBIHhMIHegBTvOI0UUFinW02cF3L837msp1GwEKGB
uqSBtzCBtDELMAkGA1UEBhMCVVMxCzAJBgNVBAgTAkNBMRUwEwYDVQQHEwxTYW5G
cmFuY2lzY28xFTATBgNVBAoTDFBpeGdsbywgSW5jLjEQMA4GA1UECxMHVlBOLUNJ
RTEaMBgGA1UEAxMRdHVubmVsLnBpeGdsby5jb20xHDAaBgNVBCkTE0JhbGEgQ2hh
bmRyYXNla2FyYW4xHjAcBgkqhkiG9w0BCQEWD2JhbGFAcGl4Z2xvLmNvbYIJAKbb
xoOA5qB5MBMGA1UdJQQMMAoGCCsGAQUFBwMCMAsGA1UdDwQEAwIHgDANBgkqhkiG
9w0BAQUFAAOCAgEAeTFiWOcnFm6t+GUIfryTbDckI008nunW/sgswjCHQLn4dlMs
mdZIrx47nYKgl3/4Yl72rkWWczoh0zPjWVQ/MpVPtqaOWLQGGOpkyes5gJXe31xB
d52b4jRzg5jwmbW3wdtJtV8eI4CDtPpnajSL2UHPuBm7hmkiBthIyp29ZuUGbLz7
fvqNcg5Bp6IDNu0opsyr0oBkbj8Z8EtyZ26WbT2JysaamE6rTvACMGaNwYrzCq18
XPZ0iIC3Q5VUxRhCaFuWkvtZWGvyB0cLKKvPZSntcsQ8kCXCbsqbZcpCkRLtnAZj
slqi4lLJtoT5fS9I5Zv+EcHh4KZNQnUoOGKR9kQn1Sai6omesbV9V/5860vY+WE/
mjROcDLEaiUhRHvw1SreX7gmWjOvXt+a3hA81OXRtQcCramKR9dd7ATq7dARwXQL
oWS5PZJW8G99QxqkJNIlW1RRtu2I62IMOfd2Z5DNA6FCVJ/Bpr3M+BaQUb28TcSi
k46pTZTL//VflCQaf6soJ5WSqfKrVPmDK2rqr+sewRZ3Qn5EyNXgQ0uYOoe2DVCq
ZgwIouydsw3gymfjuEEhyZFIjDV6i8nyxlr7Em31Rx0X+Uu0lNBSPe3u4xlbtIom
xlVea0MYoi8X5EqK5Dtp7aMfu+XxTO6UBBNsvpb6Ydd78rsdfVzmQgq81zk=
-----END CERTIFICATE-----
