Certificate:
    Data:
        Version: 3 (0x2)
        Serial Number: 733 (0x2dd)
    Signature Algorithm: sha1WithRSAEncryption
        Issuer: C=US, ST=CA, L=SanFrancisco, O=Pixglo, Inc., OU=VPN-CIE, CN=tunnel.pixglo.com/name=Bala Chandrasekaran/emailAddress=bala@pixglo.com
        Validity
            Not Before: Feb 14 06:41:46 2018 GMT
            Not After : Feb 12 06:41:46 2028 GMT
        Subject: C=US, ST=CA, L=SanFrancisco, O=Pixglo, Inc., OU=VPN-CIE, CN=cie732/name=Bala Chandrasekaran/emailAddress=bala@pixglo.com
        Subject Public Key Info:
            Public Key Algorithm: rsaEncryption
                Public-Key: (4096 bit)
                Modulus:
                    00:d0:82:8e:37:bc:99:e8:41:3c:8c:e9:88:ee:c1:
                    6a:cd:0d:d1:0f:04:1e:56:78:43:45:d1:99:b7:f0:
                    41:dd:76:d4:36:bf:66:db:bb:2e:e3:78:3f:89:0b:
                    40:43:f7:d1:b8:25:c0:06:33:d0:df:95:eb:9e:1e:
                    4e:5c:15:bb:9f:5c:35:f9:0f:34:5d:01:3b:9b:af:
                    54:9e:7c:d6:c5:a4:c0:44:d9:ac:29:12:c3:25:1f:
                    8d:02:26:5e:74:10:07:f4:3d:0e:5f:f8:45:4d:7f:
                    77:13:fb:95:51:05:14:68:27:04:aa:99:69:17:00:
                    43:8e:8d:d1:4f:00:98:d1:c5:95:64:ca:52:06:a9:
                    73:38:7f:2f:ed:67:0f:a9:b7:4f:34:1f:90:40:26:
                    d9:30:43:6d:c6:c5:e2:b5:89:bc:9c:30:62:b0:c0:
                    8f:9f:4b:ba:28:ff:a2:fb:8f:49:38:4c:ed:66:64:
                    11:9c:f2:fc:3e:31:55:80:27:c3:39:fc:bc:a7:a8:
                    6f:15:15:41:9e:49:78:d3:3e:58:09:63:9b:53:eb:
                    4f:64:7f:98:9e:e6:cb:d3:4c:3f:d8:87:65:2b:84:
                    b7:f9:aa:cd:19:22:e7:38:2c:50:b7:73:66:17:75:
                    47:e7:54:8a:59:4f:96:2e:4c:97:e6:e9:2e:52:18:
                    33:18:fd:63:4d:27:4e:bb:aa:e6:84:f4:27:47:02:
                    c6:9d:fe:32:3d:97:3c:41:69:87:ee:13:1d:d3:76:
                    b8:f3:2c:47:86:86:2f:a0:58:c6:54:6d:e4:08:21:
                    e9:e7:57:88:94:1e:00:9a:4b:95:38:05:90:be:3d:
                    ff:ce:67:e7:c9:d0:de:e4:3c:1e:97:41:4e:d3:7d:
                    f9:cc:38:5a:82:67:11:fc:5a:63:c7:49:fe:5f:b3:
                    71:22:04:8d:69:af:aa:3b:74:da:d4:f2:ad:10:e9:
                    5d:91:d4:8a:6e:93:21:69:83:86:86:48:16:b9:75:
                    4b:5d:f0:2b:23:c0:12:6b:7a:70:a3:0d:3a:b2:ce:
                    41:90:97:3f:16:ce:1d:27:aa:5e:49:94:e0:ae:33:
                    c9:d4:cf:65:dd:e6:bf:2d:44:39:a5:6d:99:57:bb:
                    c9:27:4e:95:b7:ee:03:97:df:a7:f7:33:2c:4c:d4:
                    c5:f5:22:6e:5a:55:89:83:e1:44:eb:53:41:f5:21:
                    3b:4c:11:55:19:61:7c:f6:a2:1a:6a:ab:6e:e3:d5:
                    ea:ac:60:08:cb:3d:9a:e5:1b:22:45:be:fa:45:90:
                    a4:9b:b8:5e:45:47:4e:07:2d:f7:bf:76:15:11:5c:
                    3c:f0:30:5f:f0:18:d1:cb:fb:de:29:cc:58:9e:cd:
                    a5:01:0b
                Exponent: 65537 (0x10001)
        X509v3 extensions:
            X509v3 Basic Constraints: 
                CA:FALSE
            Netscape Comment: 
                Easy-RSA Generated Certificate
            X509v3 Subject Key Identifier: 
                B2:6E:14:70:A6:06:75:18:11:A0:E8:62:A4:8C:00:F2:22:A4:3C:4F
            X509v3 Authority Key Identifier: 
                keyid:EF:38:8D:14:50:58:A7:5B:4D:9C:17:72:FC:DF:B9:AC:A7:51:B0:10
                DirName:/C=US/ST=CA/L=SanFrancisco/O=Pixglo, Inc./OU=VPN-CIE/CN=tunnel.pixglo.com/name=Bala Chandrasekaran/emailAddress=bala@pixglo.com
                serial:A6:DB:C6:83:80:E6:A0:79

            X509v3 Extended Key Usage: 
                TLS Web Client Authentication
            X509v3 Key Usage: 
                Digital Signature
    Signature Algorithm: sha1WithRSAEncryption
         cb:4e:c9:7e:af:b9:58:44:7e:7d:86:88:ee:a0:4e:1e:3e:11:
         2a:c3:a3:48:a3:8b:ef:4e:bc:0b:7a:19:77:8b:a4:9c:8b:6c:
         24:77:33:80:9c:cb:20:74:b6:dc:d3:f9:d9:d7:01:07:ca:6c:
         ab:e7:52:78:46:02:39:a2:09:53:23:ee:8a:58:15:37:b5:a9:
         90:5b:48:ae:6e:de:f5:02:31:51:43:ff:b6:3d:2e:6a:ee:7e:
         e5:cd:c8:ba:8f:83:cc:bc:c0:0f:a8:e3:40:1c:9b:0f:e8:01:
         57:37:d5:d6:62:a8:a8:48:d9:9d:34:68:9e:b9:29:3c:5a:91:
         27:b3:da:b0:05:db:48:1c:4a:20:6c:9d:39:46:8f:9c:08:aa:
         65:a8:19:9f:e5:38:bd:e0:75:dd:12:bc:e5:e7:26:dd:0b:70:
         b8:29:33:7c:af:1a:c0:d4:90:79:69:46:2f:57:25:40:03:64:
         53:28:9e:58:ed:ae:f6:88:5a:57:95:3f:f0:52:c3:98:4d:d7:
         75:27:80:e1:b5:d2:02:af:68:2a:d8:23:0b:14:06:fa:15:01:
         6c:5e:29:ee:57:7e:a8:16:1b:ea:85:74:90:0c:04:b4:1c:44:
         af:e4:e3:1a:f5:52:99:52:4d:44:7d:d0:2b:56:43:6b:0f:aa:
         67:d9:0b:4e:93:a7:c7:b4:2b:17:b3:e4:75:ed:4b:45:93:9f:
         fe:a0:60:98:4d:74:b5:7c:aa:6e:21:06:f3:c8:f3:8e:b2:ec:
         92:b5:91:30:9e:a5:f7:af:ba:83:69:28:59:3e:d4:f9:69:27:
         6a:1b:83:62:da:0e:bd:53:80:52:7b:04:2b:2d:e1:24:d3:50:
         44:2b:01:43:4b:de:fe:dc:51:20:55:f1:13:13:a4:a4:ed:9e:
         6f:e7:9f:9f:cc:26:24:bb:06:22:13:38:84:4c:ef:bf:52:80:
         6f:22:b8:64:8b:ec:7c:20:0f:74:3d:23:6c:10:7e:0a:c7:9f:
         a8:2f:7f:0c:a7:c8:01:57:e0:bd:45:b0:89:11:2a:b0:d9:ac:
         ac:40:39:aa:12:b5:2f:31:e3:71:a4:75:b5:b9:c6:af:8b:94:
         f2:f7:83:3d:33:d8:15:29:b0:a6:1a:9d:ea:7e:5a:20:aa:0d:
         90:3b:a7:7a:76:03:89:bf:79:4d:9b:be:9f:80:5d:76:37:33:
         45:c1:a5:5b:38:fd:6f:78:25:bb:2a:7c:23:7f:e5:20:1b:4d:
         b2:5c:a2:91:f4:c3:6b:ee:5a:83:10:2b:9f:87:13:ae:3a:67:
         7c:aa:24:7c:82:65:6d:bf:d2:8d:41:d2:c6:50:a3:88:ad:6c:
         6e:8a:66:69:ce:c4:32:83
-----BEGIN CERTIFICATE-----
MIIHSDCCBTCgAwIBAgICAt0wDQYJKoZIhvcNAQEFBQAwgbQxCzAJBgNVBAYTAlVT
MQswCQYDVQQIEwJDQTEVMBMGA1UEBxMMU2FuRnJhbmNpc2NvMRUwEwYDVQQKEwxQ
aXhnbG8sIEluYy4xEDAOBgNVBAsTB1ZQTi1DSUUxGjAYBgNVBAMTEXR1bm5lbC5w
aXhnbG8uY29tMRwwGgYDVQQpExNCYWxhIENoYW5kcmFzZWthcmFuMR4wHAYJKoZI
hvcNAQkBFg9iYWxhQHBpeGdsby5jb20wHhcNMTgwMjE0MDY0MTQ2WhcNMjgwMjEy
MDY0MTQ2WjCBqTELMAkGA1UEBhMCVVMxCzAJBgNVBAgTAkNBMRUwEwYDVQQHEwxT
YW5GcmFuY2lzY28xFTATBgNVBAoTDFBpeGdsbywgSW5jLjEQMA4GA1UECxMHVlBO
LUNJRTEPMA0GA1UEAxMGY2llNzMyMRwwGgYDVQQpExNCYWxhIENoYW5kcmFzZWth
cmFuMR4wHAYJKoZIhvcNAQkBFg9iYWxhQHBpeGdsby5jb20wggIiMA0GCSqGSIb3
DQEBAQUAA4ICDwAwggIKAoICAQDQgo43vJnoQTyM6YjuwWrNDdEPBB5WeENF0Zm3
8EHddtQ2v2bbuy7jeD+JC0BD99G4JcAGM9DfleueHk5cFbufXDX5DzRdATubr1Se
fNbFpMBE2awpEsMlH40CJl50EAf0PQ5f+EVNf3cT+5VRBRRoJwSqmWkXAEOOjdFP
AJjRxZVkylIGqXM4fy/tZw+pt080H5BAJtkwQ23GxeK1ibycMGKwwI+fS7oo/6L7
j0k4TO1mZBGc8vw+MVWAJ8M5/LynqG8VFUGeSXjTPlgJY5tT609kf5ie5svTTD/Y
h2UrhLf5qs0ZIuc4LFC3c2YXdUfnVIpZT5YuTJfm6S5SGDMY/WNNJ067quaE9CdH
Asad/jI9lzxBaYfuEx3TdrjzLEeGhi+gWMZUbeQIIennV4iUHgCaS5U4BZC+Pf/O
Z+fJ0N7kPB6XQU7TffnMOFqCZxH8WmPHSf5fs3EiBI1pr6o7dNrU8q0Q6V2R1Ipu
kyFpg4aGSBa5dUtd8CsjwBJrenCjDTqyzkGQlz8Wzh0nql5JlOCuM8nUz2Xd5r8t
RDmlbZlXu8knTpW37gOX36f3MyxM1MX1Im5aVYmD4UTrU0H1ITtMEVUZYXz2ohpq
q27j1eqsYAjLPZrlGyJFvvpFkKSbuF5FR04HLfe/dhURXDzwMF/wGNHL+94pzFie
zaUBCwIDAQABo4IBazCCAWcwCQYDVR0TBAIwADAtBglghkgBhvhCAQ0EIBYeRWFz
eS1SU0EgR2VuZXJhdGVkIENlcnRpZmljYXRlMB0GA1UdDgQWBBSybhRwpgZ1GBGg
6GKkjADyIqQ8TzCB6QYDVR0jBIHhMIHegBTvOI0UUFinW02cF3L837msp1GwEKGB
uqSBtzCBtDELMAkGA1UEBhMCVVMxCzAJBgNVBAgTAkNBMRUwEwYDVQQHEwxTYW5G
cmFuY2lzY28xFTATBgNVBAoTDFBpeGdsbywgSW5jLjEQMA4GA1UECxMHVlBOLUNJ
RTEaMBgGA1UEAxMRdHVubmVsLnBpeGdsby5jb20xHDAaBgNVBCkTE0JhbGEgQ2hh
bmRyYXNla2FyYW4xHjAcBgkqhkiG9w0BCQEWD2JhbGFAcGl4Z2xvLmNvbYIJAKbb
xoOA5qB5MBMGA1UdJQQMMAoGCCsGAQUFBwMCMAsGA1UdDwQEAwIHgDANBgkqhkiG
9w0BAQUFAAOCAgEAy07Jfq+5WER+fYaI7qBOHj4RKsOjSKOL7068C3oZd4uknIts
JHczgJzLIHS23NP52dcBB8psq+dSeEYCOaIJUyPuilgVN7WpkFtIrm7e9QIxUUP/
tj0uau5+5c3Iuo+DzLzAD6jjQBybD+gBVzfV1mKoqEjZnTRonrkpPFqRJ7PasAXb
SBxKIGydOUaPnAiqZagZn+U4veB13RK85ecm3QtwuCkzfK8awNSQeWlGL1clQANk
UyieWO2u9ohaV5U/8FLDmE3XdSeA4bXSAq9oKtgjCxQG+hUBbF4p7ld+qBYb6oV0
kAwEtBxEr+TjGvVSmVJNRH3QK1ZDaw+qZ9kLTpOnx7QrF7Pkde1LRZOf/qBgmE10
tXyqbiEG88jzjrLskrWRMJ6l96+6g2koWT7U+WknahuDYtoOvVOAUnsEKy3hJNNQ
RCsBQ0ve/txRIFXxExOkpO2eb+efn8wmJLsGIhM4hEzvv1KAbyK4ZIvsfCAPdD0j
bBB+CsefqC9/DKfIAVfgvUWwiREqsNmsrEA5qhK1LzHjcaR1tbnGr4uU8veDPTPY
FSmwphqd6n5aIKoNkDunenYDib95TZu+n4BddjczRcGlWzj9b3gluyp8I3/lIBtN
slyikfTDa+5agxArn4cTrjpnfKokfIJlbb/SjUHSxlCjiK1sbopmac7EMoM=
-----END CERTIFICATE-----
