Certificate:
    Data:
        Version: 3 (0x2)
        Serial Number: 734 (0x2de)
    Signature Algorithm: sha1WithRSAEncryption
        Issuer: C=US, ST=CA, L=SanFrancisco, O=Pixglo, Inc., OU=VPN-CIE, CN=tunnel.pixglo.com/name=Bala Chandrasekaran/emailAddress=bala@pixglo.com
        Validity
            Not Before: Feb 14 06:41:48 2018 GMT
            Not After : Feb 12 06:41:48 2028 GMT
        Subject: C=US, ST=CA, L=SanFrancisco, O=Pixglo, Inc., OU=VPN-CIE, CN=cie733/name=Bala Chandrasekaran/emailAddress=bala@pixglo.com
        Subject Public Key Info:
            Public Key Algorithm: rsaEncryption
                Public-Key: (4096 bit)
                Modulus:
                    00:ac:ee:16:6d:e9:dd:aa:e3:d2:76:2d:75:6a:b2:
                    8c:8e:5f:22:e3:46:0a:fa:1e:45:28:b6:12:f8:94:
                    9c:05:36:7d:09:78:de:73:28:e8:34:e2:35:0e:87:
                    de:e0:3b:79:94:10:b0:f0:4d:65:e2:2a:52:19:d3:
                    f2:e7:83:48:f6:40:f5:6a:02:ef:f1:36:9e:67:35:
                    8e:83:51:0f:99:40:1a:32:cc:77:5a:32:0f:ec:53:
                    09:c0:f3:66:99:e9:81:5b:ba:90:20:c0:1c:65:ef:
                    98:8c:78:bf:8e:ed:af:6b:25:39:e4:6a:b8:d8:4b:
                    f5:e2:b7:d1:bd:2f:4f:82:e4:1b:8c:a1:bc:66:ba:
                    5b:1e:45:20:a6:57:1c:79:16:d5:ef:11:48:c0:22:
                    dc:99:9e:9f:03:16:4a:4e:e6:16:73:3e:60:e2:c4:
                    ba:ca:7f:b1:b2:ee:cd:88:b4:c0:03:5f:52:e1:ca:
                    d8:da:ea:75:62:83:52:11:40:a7:2a:c3:09:6e:32:
                    0f:16:16:53:49:4d:60:d3:2e:fd:76:d9:89:28:30:
                    d4:ff:f1:80:1e:0d:4a:00:08:0e:7e:26:86:72:94:
                    a6:65:25:e4:29:8f:95:87:1e:4b:47:36:fa:b6:e4:
                    e1:76:eb:19:de:16:1c:ea:33:b8:53:be:59:c1:3c:
                    12:2c:63:f2:94:dc:e3:10:b3:80:bc:9e:e6:7d:a8:
                    fe:a2:31:89:02:2b:1e:be:2b:b5:ca:70:05:fd:eb:
                    2e:3d:a1:93:29:cb:e6:83:4d:ec:9e:2b:c5:b9:d7:
                    27:e2:25:82:30:38:00:0f:7c:c8:1a:91:05:ac:2f:
                    04:c0:35:f8:bf:05:f3:7d:e0:0a:50:90:38:b3:46:
                    49:7f:4f:e1:ee:48:4e:80:d3:6e:58:ed:a2:39:f0:
                    06:81:fd:77:16:1b:74:fd:30:a5:ba:9a:6f:95:79:
                    dd:8e:80:75:68:c7:aa:c0:b4:5f:3b:15:7a:14:f6:
                    c0:0e:10:88:0b:8c:3a:f5:86:d1:ae:b3:3d:e6:28:
                    24:75:5b:11:fe:c0:df:22:8f:90:30:5c:14:37:5e:
                    dc:57:16:7a:b7:60:9b:3e:1f:6f:47:a9:74:69:5a:
                    9f:b8:e8:f5:3a:9c:6e:28:6b:2c:97:8c:c4:7e:e8:
                    85:6b:ed:6c:cf:e1:9c:f9:3e:a4:25:e1:88:25:12:
                    6a:04:2d:29:a9:5b:eb:71:cb:6d:7f:97:3c:ea:58:
                    ae:4b:89:78:9f:72:22:a8:6d:d4:de:6c:fd:e2:a4:
                    e3:c5:0b:c3:85:cd:26:16:a7:ee:ee:2d:6c:f9:21:
                    85:03:b8:d5:92:a3:46:a7:ed:95:e9:ae:c1:7c:b8:
                    16:3f:57
                Exponent: 65537 (0x10001)
        X509v3 extensions:
            X509v3 Basic Constraints: 
                CA:FALSE
            Netscape Comment: 
                Easy-RSA Generated Certificate
            X509v3 Subject Key Identifier: 
                C7:41:8C:E3:97:4F:4F:A3:19:5F:4E:0D:A9:98:90:2C:67:4A:0D:3C
            X509v3 Authority Key Identifier: 
                keyid:EF:38:8D:14:50:58:A7:5B:4D:9C:17:72:FC:DF:B9:AC:A7:51:B0:10
                DirName:/C=US/ST=CA/L=SanFrancisco/O=Pixglo, Inc./OU=VPN-CIE/CN=tunnel.pixglo.com/name=Bala Chandrasekaran/emailAddress=bala@pixglo.com
                serial:A6:DB:C6:83:80:E6:A0:79

            X509v3 Extended Key Usage: 
                TLS Web Client Authentication
            X509v3 Key Usage: 
                Digital Signature
    Signature Algorithm: sha1WithRSAEncryption
         b2:06:b3:71:7b:27:c3:fc:9f:1c:9a:be:1b:48:ce:f5:ee:f8:
         46:48:15:0c:b9:df:37:41:b8:d2:a2:07:12:ca:2d:bb:9f:96:
         f4:68:69:d0:f4:be:a1:59:6b:9e:0e:38:58:89:23:a8:9f:f6:
         9f:5a:b0:07:e5:5c:41:5a:e0:3c:ed:6a:79:e1:e8:f6:3b:67:
         7e:f1:cb:7a:c8:0b:87:ad:89:05:82:d3:42:7e:37:84:7a:bc:
         8d:94:06:d1:c0:21:66:7b:e2:7d:38:b8:e6:db:9a:da:fb:59:
         30:41:72:70:f5:4f:1a:52:bf:31:47:fa:ee:dd:f2:33:24:d3:
         bc:6d:d5:67:8c:78:98:6b:33:5c:65:20:f3:40:36:0b:75:e3:
         d8:1c:a0:a7:d7:e1:2b:5d:68:c9:6a:fa:75:e3:49:98:2f:9a:
         ef:6a:5e:f8:a5:72:0f:ee:f5:27:ff:22:97:96:da:8e:25:05:
         c0:dd:3a:cd:81:84:63:ac:0d:97:d8:01:39:2b:33:10:73:c0:
         3b:1f:29:dc:8b:4f:29:62:1b:c7:9b:9e:e5:a0:18:74:76:38:
         97:57:ac:eb:87:5b:53:69:d6:54:20:7c:fe:9b:3c:0a:5d:68:
         f9:05:34:ab:4b:98:09:9e:4d:51:9d:e6:9d:85:78:23:0e:ea:
         d4:ee:c2:51:7e:1e:fc:58:e8:20:2a:10:e0:0b:25:ed:72:ef:
         5b:fe:a2:4d:0f:7c:c5:84:be:79:8c:86:48:03:f9:0f:a1:73:
         50:e0:97:6d:35:c2:74:76:28:9f:1a:07:7d:6a:a8:6d:bf:a7:
         15:38:ca:2c:26:5d:e1:f3:38:a4:24:cf:4f:5f:61:18:9e:93:
         38:c6:01:84:5a:71:2c:54:cf:f2:f9:42:d2:05:23:b1:8c:34:
         5b:d0:02:61:19:fb:24:d4:3f:13:13:71:22:1a:58:11:99:75:
         de:e8:44:0c:e2:fa:f7:c2:fc:f0:bd:55:02:84:cd:14:f6:b5:
         5a:14:4d:6f:62:f4:dd:5b:4a:8c:de:7d:58:84:f7:da:78:25:
         75:6e:18:74:a4:84:18:45:00:d6:84:01:50:06:b1:09:18:84:
         6b:c9:72:e3:bc:d6:56:d4:4b:15:44:ee:60:d2:eb:c1:38:f6:
         12:f5:88:39:29:d7:61:b7:47:28:12:01:eb:e1:a5:d6:5c:b3:
         fe:d1:a2:63:b2:a5:da:02:b4:6c:fd:e9:a9:d0:31:3e:3d:00:
         c2:59:96:0f:4f:d1:1b:16:2a:28:f8:d7:8f:2d:11:fe:d1:fa:
         58:7a:ae:1d:21:f4:83:a4:0a:af:92:20:36:85:76:d0:35:76:
         db:a4:aa:59:49:3e:80:43
-----BEGIN CERTIFICATE-----
MIIHSDCCBTCgAwIBAgICAt4wDQYJKoZIhvcNAQEFBQAwgbQxCzAJBgNVBAYTAlVT
MQswCQYDVQQIEwJDQTEVMBMGA1UEBxMMU2FuRnJhbmNpc2NvMRUwEwYDVQQKEwxQ
aXhnbG8sIEluYy4xEDAOBgNVBAsTB1ZQTi1DSUUxGjAYBgNVBAMTEXR1bm5lbC5w
aXhnbG8uY29tMRwwGgYDVQQpExNCYWxhIENoYW5kcmFzZWthcmFuMR4wHAYJKoZI
hvcNAQkBFg9iYWxhQHBpeGdsby5jb20wHhcNMTgwMjE0MDY0MTQ4WhcNMjgwMjEy
MDY0MTQ4WjCBqTELMAkGA1UEBhMCVVMxCzAJBgNVBAgTAkNBMRUwEwYDVQQHEwxT
YW5GcmFuY2lzY28xFTATBgNVBAoTDFBpeGdsbywgSW5jLjEQMA4GA1UECxMHVlBO
LUNJRTEPMA0GA1UEAxMGY2llNzMzMRwwGgYDVQQpExNCYWxhIENoYW5kcmFzZWth
cmFuMR4wHAYJKoZIhvcNAQkBFg9iYWxhQHBpeGdsby5jb20wggIiMA0GCSqGSIb3
DQEBAQUAA4ICDwAwggIKAoICAQCs7hZt6d2q49J2LXVqsoyOXyLjRgr6HkUothL4
lJwFNn0JeN5zKOg04jUOh97gO3mUELDwTWXiKlIZ0/Lng0j2QPVqAu/xNp5nNY6D
UQ+ZQBoyzHdaMg/sUwnA82aZ6YFbupAgwBxl75iMeL+O7a9rJTnkarjYS/Xit9G9
L0+C5BuMobxmulseRSCmVxx5FtXvEUjAItyZnp8DFkpO5hZzPmDixLrKf7Gy7s2I
tMADX1Lhytja6nVig1IRQKcqwwluMg8WFlNJTWDTLv122YkoMNT/8YAeDUoACA5+
JoZylKZlJeQpj5WHHktHNvq25OF26xneFhzqM7hTvlnBPBIsY/KU3OMQs4C8nuZ9
qP6iMYkCKx6+K7XKcAX96y49oZMpy+aDTeyeK8W51yfiJYIwOAAPfMgakQWsLwTA
Nfi/BfN94ApQkDizRkl/T+HuSE6A025Y7aI58AaB/XcWG3T9MKW6mm+Ved2OgHVo
x6rAtF87FXoU9sAOEIgLjDr1htGusz3mKCR1WxH+wN8ij5AwXBQ3XtxXFnq3YJs+
H29HqXRpWp+46PU6nG4oayyXjMR+6IVr7WzP4Zz5PqQl4YglEmoELSmpW+txy21/
lzzqWK5LiXifciKobdTebP3ipOPFC8OFzSYWp+7uLWz5IYUDuNWSo0an7ZXprsF8
uBY/VwIDAQABo4IBazCCAWcwCQYDVR0TBAIwADAtBglghkgBhvhCAQ0EIBYeRWFz
eS1SU0EgR2VuZXJhdGVkIENlcnRpZmljYXRlMB0GA1UdDgQWBBTHQYzjl09Poxlf
Tg2pmJAsZ0oNPDCB6QYDVR0jBIHhMIHegBTvOI0UUFinW02cF3L837msp1GwEKGB
uqSBtzCBtDELMAkGA1UEBhMCVVMxCzAJBgNVBAgTAkNBMRUwEwYDVQQHEwxTYW5G
cmFuY2lzY28xFTATBgNVBAoTDFBpeGdsbywgSW5jLjEQMA4GA1UECxMHVlBOLUNJ
RTEaMBgGA1UEAxMRdHVubmVsLnBpeGdsby5jb20xHDAaBgNVBCkTE0JhbGEgQ2hh
bmRyYXNla2FyYW4xHjAcBgkqhkiG9w0BCQEWD2JhbGFAcGl4Z2xvLmNvbYIJAKbb
xoOA5qB5MBMGA1UdJQQMMAoGCCsGAQUFBwMCMAsGA1UdDwQEAwIHgDANBgkqhkiG
9w0BAQUFAAOCAgEAsgazcXsnw/yfHJq+G0jO9e74RkgVDLnfN0G40qIHEsotu5+W
9Ghp0PS+oVlrng44WIkjqJ/2n1qwB+VcQVrgPO1qeeHo9jtnfvHLesgLh62JBYLT
Qn43hHq8jZQG0cAhZnvifTi45tua2vtZMEFycPVPGlK/MUf67t3yMyTTvG3VZ4x4
mGszXGUg80A2C3Xj2Bygp9fhK11oyWr6deNJmC+a72pe+KVyD+71J/8il5bajiUF
wN06zYGEY6wNl9gBOSszEHPAOx8p3ItPKWIbx5ue5aAYdHY4l1es64dbU2nWVCB8
/ps8Cl1o+QU0q0uYCZ5NUZ3mnYV4Iw7q1O7CUX4e/FjoICoQ4Asl7XLvW/6iTQ98
xYS+eYyGSAP5D6FzUOCXbTXCdHYonxoHfWqobb+nFTjKLCZd4fM4pCTPT19hGJ6T
OMYBhFpxLFTP8vlC0gUjsYw0W9ACYRn7JNQ/ExNxIhpYEZl13uhEDOL698L88L1V
AoTNFPa1WhRNb2L03VtKjN59WIT32ngldW4YdKSEGEUA1oQBUAaxCRiEa8ly47zW
VtRLFUTuYNLrwTj2EvWIOSnXYbdHKBIB6+Gl1lyz/tGiY7Kl2gK0bP3pqdAxPj0A
wlmWD0/RGxYqKPjXjy0R/tH6WHquHSH0g6QKr5IgNoV20DV226SqWUk+gEM=
-----END CERTIFICATE-----
