Certificate:
    Data:
        Version: 3 (0x2)
        Serial Number: 738 (0x2e2)
    Signature Algorithm: sha1WithRSAEncryption
        Issuer: C=US, ST=CA, L=SanFrancisco, O=Pixglo, Inc., OU=VPN-CIE, CN=tunnel.pixglo.com/name=Bala Chandrasekaran/emailAddress=bala@pixglo.com
        Validity
            Not Before: Feb 14 06:41:55 2018 GMT
            Not After : Feb 12 06:41:55 2028 GMT
        Subject: C=US, ST=CA, L=SanFrancisco, O=Pixglo, Inc., OU=VPN-CIE, CN=cie737/name=Bala Chandrasekaran/emailAddress=bala@pixglo.com
        Subject Public Key Info:
            Public Key Algorithm: rsaEncryption
                Public-Key: (4096 bit)
                Modulus:
                    00:b7:4e:cc:92:10:6c:af:8d:24:ca:02:5c:be:ee:
                    22:19:19:fc:90:69:ec:d0:b9:69:15:34:f6:79:7d:
                    6d:1e:b9:79:c4:9a:d7:ce:49:db:9d:ac:ad:b2:4a:
                    68:ca:19:5c:b0:33:63:31:b2:7c:33:d5:f6:08:40:
                    24:22:23:6b:6f:37:fd:89:d7:94:14:27:87:df:b3:
                    c3:4d:56:69:d5:74:63:ad:0a:11:fa:78:5c:3b:65:
                    ae:da:3b:08:3c:db:f7:e2:8f:12:57:ff:5d:ff:bb:
                    ea:31:8c:95:1b:e5:38:8d:bc:2c:5d:33:7f:69:b8:
                    4f:5c:51:8d:b2:0a:16:63:20:e6:9b:c2:64:7b:73:
                    ea:63:cb:67:db:0c:e7:dd:ce:94:78:18:f7:6d:45:
                    c3:27:94:0f:17:21:30:d3:72:a3:27:e1:c6:ef:92:
                    38:c3:14:1a:4f:69:48:84:14:bb:4b:9a:f1:47:e7:
                    22:3e:a0:e8:87:00:00:d2:5b:1f:3b:ed:42:f8:46:
                    29:76:7c:71:3a:99:26:f4:63:ab:19:b3:90:f0:ff:
                    01:31:82:dc:37:dc:48:3e:e8:7c:ac:ac:32:11:c9:
                    ef:51:5e:6e:d0:16:ae:6c:68:42:a7:cb:c2:97:80:
                    e0:9c:1b:f4:74:9e:f0:34:af:de:47:a8:88:7e:20:
                    3f:e1:2e:64:c6:5a:d5:37:f7:b8:e6:cc:3d:da:b0:
                    92:1a:d5:91:2a:8e:01:3c:b3:6a:96:3d:c3:49:bc:
                    c3:b6:0a:1d:d2:55:d5:e9:c1:1f:20:d1:67:49:a9:
                    c7:3c:8a:93:f9:cb:1a:4d:de:f8:53:a0:2d:f7:35:
                    7c:c8:1f:1e:c4:05:e7:d1:47:e1:7e:c4:91:d8:8d:
                    f4:57:f1:9d:8e:06:4b:9f:72:6c:1e:ef:04:1a:12:
                    b2:36:01:1b:57:32:f2:cc:d6:be:33:e6:09:e6:3e:
                    10:cf:01:37:ce:e8:58:41:2a:fd:bd:3e:89:a5:e1:
                    cc:5c:da:9a:2d:de:04:9c:48:36:16:58:35:35:28:
                    9f:46:31:30:b1:fb:28:33:1f:7c:22:43:81:f3:35:
                    4e:f5:56:84:eb:de:63:65:49:a0:7d:28:5f:d4:6a:
                    c0:60:6b:bc:db:ff:6f:46:91:36:3e:c6:79:8d:8c:
                    ab:f4:2b:a8:e4:b1:de:2f:56:2e:ad:c2:4a:56:e3:
                    f9:a9:b7:ed:4b:5a:e5:74:8b:83:40:40:26:72:da:
                    ee:c1:22:5f:1a:f5:aa:be:b6:57:23:05:8c:da:23:
                    27:b5:87:d5:b8:7e:56:1b:01:9d:97:23:13:e8:bf:
                    a3:5e:d1:82:d2:0f:4d:51:6d:90:66:b5:94:fa:44:
                    e2:1c:fb
                Exponent: 65537 (0x10001)
        X509v3 extensions:
            X509v3 Basic Constraints: 
                CA:FALSE
            Netscape Comment: 
                Easy-RSA Generated Certificate
            X509v3 Subject Key Identifier: 
                70:34:13:AF:05:3E:10:5E:6A:EB:47:2B:84:7E:56:D3:CF:5A:4C:59
            X509v3 Authority Key Identifier: 
                keyid:EF:38:8D:14:50:58:A7:5B:4D:9C:17:72:FC:DF:B9:AC:A7:51:B0:10
                DirName:/C=US/ST=CA/L=SanFrancisco/O=Pixglo, Inc./OU=VPN-CIE/CN=tunnel.pixglo.com/name=Bala Chandrasekaran/emailAddress=bala@pixglo.com
                serial:A6:DB:C6:83:80:E6:A0:79

            X509v3 Extended Key Usage: 
                TLS Web Client Authentication
            X509v3 Key Usage: 
                Digital Signature
    Signature Algorithm: sha1WithRSAEncryption
         b4:6d:4f:ec:c5:bd:53:2a:2f:a8:64:62:61:cf:72:ab:da:8f:
         05:e8:1f:bc:16:48:b2:92:a0:02:3d:26:f6:9a:9e:10:cb:47:
         05:6f:ee:8d:b1:cf:8f:40:d2:bc:8e:30:ad:3c:54:22:a4:41:
         c0:a5:01:5a:ec:6b:56:97:9b:96:ef:69:b0:c7:3c:30:1a:f6:
         d1:64:c8:d1:eb:d6:06:1b:34:f9:6f:f5:02:3a:13:e4:57:b4:
         0e:5f:af:32:aa:fe:77:cd:8d:84:62:42:ab:8b:fd:64:73:23:
         8b:70:42:3a:4e:f3:76:7f:2b:c5:47:26:c5:fa:f0:42:b2:08:
         22:b2:55:af:93:e9:2d:07:c0:8a:03:3b:92:65:e0:2c:0b:1c:
         db:41:e0:07:7a:d6:5b:2a:44:a2:6f:03:15:01:dc:7e:9a:6e:
         91:f3:28:39:14:23:62:80:9c:3e:93:95:0a:f0:b3:b3:e9:7f:
         c6:05:81:62:6b:5c:4d:e3:96:46:1e:d0:95:d4:b7:b3:49:88:
         56:dd:02:e2:14:a3:3c:3b:85:22:ec:76:3c:f2:53:55:00:fa:
         66:94:19:e0:05:6f:14:62:bc:3a:ae:17:64:81:2b:92:9e:e7:
         4d:fc:59:54:fc:22:d3:0e:49:d3:ab:33:10:13:7a:2b:a4:2d:
         97:7b:d4:45:70:4e:c5:7d:8b:d2:a4:23:e5:ba:b2:87:6b:60:
         44:ce:da:54:cb:64:ee:74:a9:38:3d:ca:bb:e5:07:a8:26:dd:
         85:ef:f2:e5:38:c2:fe:33:71:86:b3:cc:0c:77:e9:0a:96:1f:
         b4:cf:b5:ff:9e:49:3e:09:07:08:9b:d0:d1:2b:3c:16:ad:71:
         05:9f:2d:14:7a:31:04:f3:f1:d5:62:9e:ef:93:b6:e6:7f:49:
         16:a6:66:16:ea:3c:c7:8d:3f:5f:d6:78:87:81:e2:d5:3f:3c:
         fc:86:e9:81:07:c4:38:8b:6c:10:d1:9d:30:cd:de:89:a3:0c:
         f7:44:91:81:71:40:1f:34:dd:01:78:79:c6:1f:5d:2a:50:44:
         1f:2a:77:e1:43:32:40:75:0e:04:14:69:d8:98:ca:65:40:61:
         94:60:63:4c:f1:1f:d2:b7:f1:74:0c:8b:46:62:6c:3f:f2:e5:
         18:42:46:ad:a4:2a:7b:27:71:da:29:63:bf:21:2a:28:fc:ec:
         14:1b:c3:d7:09:1c:d3:89:03:aa:f4:9a:e2:fa:41:cb:3e:a0:
         98:09:25:e2:26:26:88:8d:40:d9:07:70:13:ac:04:cc:ea:e0:
         c3:e4:8f:19:b2:22:5f:44:cb:7f:5c:4f:51:90:2a:53:29:a6:
         69:f2:05:24:45:6d:32:f2
-----BEGIN CERTIFICATE-----
MIIHSDCCBTCgAwIBAgICAuIwDQYJKoZIhvcNAQEFBQAwgbQxCzAJBgNVBAYTAlVT
MQswCQYDVQQIEwJDQTEVMBMGA1UEBxMMU2FuRnJhbmNpc2NvMRUwEwYDVQQKEwxQ
aXhnbG8sIEluYy4xEDAOBgNVBAsTB1ZQTi1DSUUxGjAYBgNVBAMTEXR1bm5lbC5w
aXhnbG8uY29tMRwwGgYDVQQpExNCYWxhIENoYW5kcmFzZWthcmFuMR4wHAYJKoZI
hvcNAQkBFg9iYWxhQHBpeGdsby5jb20wHhcNMTgwMjE0MDY0MTU1WhcNMjgwMjEy
MDY0MTU1WjCBqTELMAkGA1UEBhMCVVMxCzAJBgNVBAgTAkNBMRUwEwYDVQQHEwxT
YW5GcmFuY2lzY28xFTATBgNVBAoTDFBpeGdsbywgSW5jLjEQMA4GA1UECxMHVlBO
LUNJRTEPMA0GA1UEAxMGY2llNzM3MRwwGgYDVQQpExNCYWxhIENoYW5kcmFzZWth
cmFuMR4wHAYJKoZIhvcNAQkBFg9iYWxhQHBpeGdsby5jb20wggIiMA0GCSqGSIb3
DQEBAQUAA4ICDwAwggIKAoICAQC3TsySEGyvjSTKAly+7iIZGfyQaezQuWkVNPZ5
fW0euXnEmtfOSdudrK2ySmjKGVywM2Mxsnwz1fYIQCQiI2tvN/2J15QUJ4ffs8NN
VmnVdGOtChH6eFw7Za7aOwg82/fijxJX/13/u+oxjJUb5TiNvCxdM39puE9cUY2y
ChZjIOabwmR7c+pjy2fbDOfdzpR4GPdtRcMnlA8XITDTcqMn4cbvkjjDFBpPaUiE
FLtLmvFH5yI+oOiHAADSWx877UL4Ril2fHE6mSb0Y6sZs5Dw/wExgtw33Eg+6Hys
rDIRye9RXm7QFq5saEKny8KXgOCcG/R0nvA0r95HqIh+ID/hLmTGWtU397jmzD3a
sJIa1ZEqjgE8s2qWPcNJvMO2Ch3SVdXpwR8g0WdJqcc8ipP5yxpN3vhToC33NXzI
Hx7EBefRR+F+xJHYjfRX8Z2OBkufcmwe7wQaErI2ARtXMvLM1r4z5gnmPhDPATfO
6FhBKv29Poml4cxc2pot3gScSDYWWDU1KJ9GMTCx+ygzH3wiQ4HzNU71VoTr3mNl
SaB9KF/UasBga7zb/29GkTY+xnmNjKv0K6jksd4vVi6twkpW4/mpt+1LWuV0i4NA
QCZy2u7BIl8a9aq+tlcjBYzaIye1h9W4flYbAZ2XIxPov6Ne0YLSD01RbZBmtZT6
ROIc+wIDAQABo4IBazCCAWcwCQYDVR0TBAIwADAtBglghkgBhvhCAQ0EIBYeRWFz
eS1SU0EgR2VuZXJhdGVkIENlcnRpZmljYXRlMB0GA1UdDgQWBBRwNBOvBT4QXmrr
RyuEflbTz1pMWTCB6QYDVR0jBIHhMIHegBTvOI0UUFinW02cF3L837msp1GwEKGB
uqSBtzCBtDELMAkGA1UEBhMCVVMxCzAJBgNVBAgTAkNBMRUwEwYDVQQHEwxTYW5G
cmFuY2lzY28xFTATBgNVBAoTDFBpeGdsbywgSW5jLjEQMA4GA1UECxMHVlBOLUNJ
RTEaMBgGA1UEAxMRdHVubmVsLnBpeGdsby5jb20xHDAaBgNVBCkTE0JhbGEgQ2hh
bmRyYXNla2FyYW4xHjAcBgkqhkiG9w0BCQEWD2JhbGFAcGl4Z2xvLmNvbYIJAKbb
xoOA5qB5MBMGA1UdJQQMMAoGCCsGAQUFBwMCMAsGA1UdDwQEAwIHgDANBgkqhkiG
9w0BAQUFAAOCAgEAtG1P7MW9UyovqGRiYc9yq9qPBegfvBZIspKgAj0m9pqeEMtH
BW/ujbHPj0DSvI4wrTxUIqRBwKUBWuxrVpeblu9psMc8MBr20WTI0evWBhs0+W/1
AjoT5Fe0Dl+vMqr+d82NhGJCq4v9ZHMji3BCOk7zdn8rxUcmxfrwQrIIIrJVr5Pp
LQfAigM7kmXgLAsc20HgB3rWWypEom8DFQHcfppukfMoORQjYoCcPpOVCvCzs+l/
xgWBYmtcTeOWRh7QldS3s0mIVt0C4hSjPDuFIux2PPJTVQD6ZpQZ4AVvFGK8Oq4X
ZIErkp7nTfxZVPwi0w5J06szEBN6K6Qtl3vURXBOxX2L0qQj5bqyh2tgRM7aVMtk
7nSpOD3Ku+UHqCbdhe/y5TjC/jNxhrPMDHfpCpYftM+1/55JPgkHCJvQ0Ss8Fq1x
BZ8tFHoxBPPx1WKe75O25n9JFqZmFuo8x40/X9Z4h4Hi1T88/IbpgQfEOItsENGd
MM3eiaMM90SRgXFAHzTdAXh5xh9dKlBEHyp34UMyQHUOBBRp2JjKZUBhlGBjTPEf
0rfxdAyLRmJsP/LlGEJGraQqeydx2iljvyEqKPzsFBvD1wkc04kDqvSa4vpByz6g
mAkl4iYmiI1A2QdwE6wEzOrgw+SPGbIiX0TLf1xPUZAqUymmafIFJEVtMvI=
-----END CERTIFICATE-----
