Certificate:
    Data:
        Version: 3 (0x2)
        Serial Number: 740 (0x2e4)
    Signature Algorithm: sha1WithRSAEncryption
        Issuer: C=US, ST=CA, L=SanFrancisco, O=Pixglo, Inc., OU=VPN-CIE, CN=tunnel.pixglo.com/name=Bala Chandrasekaran/emailAddress=bala@pixglo.com
        Validity
            Not Before: Feb 14 06:41:58 2018 GMT
            Not After : Feb 12 06:41:58 2028 GMT
        Subject: C=US, ST=CA, L=SanFrancisco, O=Pixglo, Inc., OU=VPN-CIE, CN=cie739/name=Bala Chandrasekaran/emailAddress=bala@pixglo.com
        Subject Public Key Info:
            Public Key Algorithm: rsaEncryption
                Public-Key: (4096 bit)
                Modulus:
                    00:f3:b6:60:b6:9d:5d:44:ca:b9:e8:b4:07:20:ad:
                    b2:00:e3:31:15:7d:3c:0f:a3:f5:20:b3:a8:98:2a:
                    a8:80:6b:e5:b6:ef:79:0d:a4:9a:96:22:6f:d6:68:
                    64:46:7e:05:b2:4c:36:de:bc:8e:40:68:1b:54:30:
                    3c:a1:80:59:16:0e:e0:c1:44:0a:f6:23:17:91:4d:
                    e1:4d:f2:e9:4a:b8:02:9c:b9:8e:04:ab:7c:28:30:
                    9a:ce:88:d4:b7:40:13:8e:8e:65:07:fc:df:89:4a:
                    93:65:0d:6a:fe:e8:5b:02:5d:7d:69:93:f4:02:26:
                    56:fa:7e:9a:da:bb:1b:74:cb:b7:9e:35:b2:39:d4:
                    b3:4e:09:8f:af:55:be:ff:07:2b:f8:5d:d7:0b:de:
                    6c:a3:fb:e9:d4:24:3b:e8:0e:e6:d2:08:82:a6:9e:
                    49:f1:7b:a6:bd:4f:05:8a:21:0a:df:cf:a1:4e:9c:
                    58:bb:82:a9:e9:09:3d:cb:aa:f2:ce:fe:b6:ff:7a:
                    9c:6e:99:b6:1b:91:fe:06:ae:9c:33:ba:7f:22:00:
                    b9:93:44:67:24:07:8e:b5:82:2c:30:8a:54:54:7d:
                    5d:c4:40:7b:98:6b:7f:f1:ca:3a:e2:85:e1:dc:d1:
                    f6:39:ab:37:63:7c:8e:6a:a5:7f:40:28:82:bd:94:
                    d8:d1:16:2e:55:bc:51:15:ed:07:62:ac:ac:dd:df:
                    68:3e:c3:8f:50:eb:b7:f1:5d:c6:b6:dc:dd:32:31:
                    43:36:b1:76:91:00:3e:37:c7:dc:43:66:16:25:1d:
                    0b:73:f7:da:9d:ec:9b:01:da:15:19:63:47:97:9b:
                    1a:f1:d5:fb:aa:a7:07:80:aa:5d:e9:c6:a1:07:31:
                    80:cb:e5:1f:08:cd:95:87:f8:44:98:86:21:6e:ba:
                    b3:b7:80:f7:23:e0:46:06:c8:64:01:34:13:91:a2:
                    32:18:e8:a4:c6:48:66:7a:c7:5a:fa:38:6d:3c:69:
                    cc:0c:cb:ff:c2:44:89:a1:53:7c:7a:39:50:db:8d:
                    0d:ee:4d:df:da:2e:a9:64:12:d0:3e:f9:a9:eb:8f:
                    c5:f5:d8:ea:7c:d6:70:f7:55:50:50:1a:98:2f:65:
                    11:74:ff:77:ff:58:29:16:9f:78:db:99:15:e2:8e:
                    76:bb:39:ab:d6:e6:6e:7a:73:03:f1:de:00:76:5f:
                    14:ab:b8:a9:d9:8d:95:67:13:16:33:30:9a:13:69:
                    4b:c4:bc:5f:e3:f3:5f:2f:97:07:62:0e:38:a4:ac:
                    c3:74:d9:2f:66:7d:0f:e3:2e:b9:f2:70:a9:12:c2:
                    28:a3:48:86:d1:4c:1a:ef:59:cc:ac:46:03:1b:15:
                    a6:c0:c9
                Exponent: 65537 (0x10001)
        X509v3 extensions:
            X509v3 Basic Constraints: 
                CA:FALSE
            Netscape Comment: 
                Easy-RSA Generated Certificate
            X509v3 Subject Key Identifier: 
                60:C1:C3:B2:6D:38:22:82:CB:DD:EF:DE:C6:43:F7:9E:A9:6A:E5:1B
            X509v3 Authority Key Identifier: 
                keyid:EF:38:8D:14:50:58:A7:5B:4D:9C:17:72:FC:DF:B9:AC:A7:51:B0:10
                DirName:/C=US/ST=CA/L=SanFrancisco/O=Pixglo, Inc./OU=VPN-CIE/CN=tunnel.pixglo.com/name=Bala Chandrasekaran/emailAddress=bala@pixglo.com
                serial:A6:DB:C6:83:80:E6:A0:79

            X509v3 Extended Key Usage: 
                TLS Web Client Authentication
            X509v3 Key Usage: 
                Digital Signature
    Signature Algorithm: sha1WithRSAEncryption
         bf:2c:ed:53:85:57:07:1e:20:bd:78:72:2e:b4:45:41:54:f4:
         bb:c8:c0:44:5d:8f:55:61:82:6c:a2:ac:a3:c0:c8:e6:8b:b5:
         b2:04:c1:48:9b:60:98:a0:42:f4:79:1c:70:6f:58:96:d4:07:
         7e:98:3e:36:e5:20:8a:cd:46:99:0a:b6:b5:41:a3:47:d4:e4:
         12:cb:f3:0a:6d:5b:23:dd:89:c8:03:da:3d:3c:eb:37:ce:cf:
         58:c1:9c:0f:c1:e0:5b:4d:96:af:9b:39:84:4c:b2:ee:07:d0:
         24:c4:99:52:3d:e4:f2:4a:bb:b4:83:bc:b7:91:b4:22:00:d3:
         b6:dc:e2:17:34:cd:36:cc:d7:fd:d5:d9:14:ee:1b:c4:20:7c:
         2c:b8:b0:31:51:93:64:f0:62:b9:8d:1c:35:fe:d9:30:5c:d5:
         f9:12:6a:5f:18:26:da:12:b9:39:66:e2:92:e4:09:9f:56:47:
         86:7c:d9:07:60:fa:ae:73:ca:54:a2:15:80:60:7e:e3:62:67:
         25:7c:16:77:0d:50:5b:4d:66:e6:b0:62:38:a0:a0:62:ed:75:
         b5:dd:ff:56:a7:1c:b2:4c:4a:2f:3a:ab:b6:1b:b0:95:67:64:
         f1:c2:2e:5b:5a:d0:d1:c8:7c:bf:22:bd:c4:05:08:66:ad:5c:
         9e:7c:94:8d:14:99:cb:d3:41:72:b9:aa:96:9f:2d:5b:01:a8:
         7a:23:2a:31:30:df:7a:1e:6a:bb:b9:00:72:dc:75:9c:43:49:
         31:6c:51:60:9c:89:fa:bc:a0:3d:0b:1b:d3:a2:65:d4:dc:22:
         b2:99:77:47:50:f2:c7:8b:d2:c8:e8:d0:b4:ad:3a:c4:f6:45:
         91:fb:de:1c:28:ea:bb:e4:4b:25:79:be:92:f2:81:27:2e:7d:
         30:42:fb:bb:5b:3f:cf:b5:f9:ff:4e:85:b5:36:3e:f5:4f:e2:
         86:63:60:78:46:3f:2e:78:92:3d:19:47:e0:c8:fc:29:a7:64:
         7c:70:52:8c:6c:69:f5:1d:35:43:5c:8b:53:d7:df:f7:6a:6d:
         5b:c8:79:2e:a5:02:8c:0d:63:1c:e6:28:34:82:ad:76:08:90:
         da:31:34:db:c7:69:89:17:8c:a8:3a:27:03:57:36:c5:c2:d6:
         55:74:5c:a0:7d:99:8d:12:2a:de:96:b9:13:58:74:72:1a:0d:
         33:a5:c5:63:3f:2c:62:72:28:24:2b:b3:f6:2f:5e:e0:1c:5e:
         9e:b3:b9:f3:c9:fc:f9:6b:a0:bf:09:d5:67:6b:1c:d5:ff:24:
         9a:27:5f:84:d3:05:f6:47:77:42:2d:89:98:cc:b0:e1:ed:a6:
         2a:1f:3a:80:eb:d5:31:99
-----BEGIN CERTIFICATE-----
MIIHSDCCBTCgAwIBAgICAuQwDQYJKoZIhvcNAQEFBQAwgbQxCzAJBgNVBAYTAlVT
MQswCQYDVQQIEwJDQTEVMBMGA1UEBxMMU2FuRnJhbmNpc2NvMRUwEwYDVQQKEwxQ
aXhnbG8sIEluYy4xEDAOBgNVBAsTB1ZQTi1DSUUxGjAYBgNVBAMTEXR1bm5lbC5w
aXhnbG8uY29tMRwwGgYDVQQpExNCYWxhIENoYW5kcmFzZWthcmFuMR4wHAYJKoZI
hvcNAQkBFg9iYWxhQHBpeGdsby5jb20wHhcNMTgwMjE0MDY0MTU4WhcNMjgwMjEy
MDY0MTU4WjCBqTELMAkGA1UEBhMCVVMxCzAJBgNVBAgTAkNBMRUwEwYDVQQHEwxT
YW5GcmFuY2lzY28xFTATBgNVBAoTDFBpeGdsbywgSW5jLjEQMA4GA1UECxMHVlBO
LUNJRTEPMA0GA1UEAxMGY2llNzM5MRwwGgYDVQQpExNCYWxhIENoYW5kcmFzZWth
cmFuMR4wHAYJKoZIhvcNAQkBFg9iYWxhQHBpeGdsby5jb20wggIiMA0GCSqGSIb3
DQEBAQUAA4ICDwAwggIKAoICAQDztmC2nV1EyrnotAcgrbIA4zEVfTwPo/Ugs6iY
KqiAa+W273kNpJqWIm/WaGRGfgWyTDbevI5AaBtUMDyhgFkWDuDBRAr2IxeRTeFN
8ulKuAKcuY4Eq3woMJrOiNS3QBOOjmUH/N+JSpNlDWr+6FsCXX1pk/QCJlb6fpra
uxt0y7eeNbI51LNOCY+vVb7/Byv4XdcL3myj++nUJDvoDubSCIKmnknxe6a9TwWK
IQrfz6FOnFi7gqnpCT3LqvLO/rb/epxumbYbkf4Grpwzun8iALmTRGckB461giww
ilRUfV3EQHuYa3/xyjriheHc0fY5qzdjfI5qpX9AKIK9lNjRFi5VvFEV7QdirKzd
32g+w49Q67fxXca23N0yMUM2sXaRAD43x9xDZhYlHQtz99qd7JsB2hUZY0eXmxrx
1fuqpweAql3pxqEHMYDL5R8IzZWH+ESYhiFuurO3gPcj4EYGyGQBNBORojIY6KTG
SGZ6x1r6OG08acwMy//CRImhU3x6OVDbjQ3uTd/aLqlkEtA++anrj8X12Op81nD3
VVBQGpgvZRF0/3f/WCkWn3jbmRXijna7OavW5m56cwPx3gB2XxSruKnZjZVnExYz
MJoTaUvEvF/j818vlwdiDjikrMN02S9mfQ/jLrnycKkSwiijSIbRTBrvWcysRgMb
FabAyQIDAQABo4IBazCCAWcwCQYDVR0TBAIwADAtBglghkgBhvhCAQ0EIBYeRWFz
eS1SU0EgR2VuZXJhdGVkIENlcnRpZmljYXRlMB0GA1UdDgQWBBRgwcOybTgigsvd
797GQ/eeqWrlGzCB6QYDVR0jBIHhMIHegBTvOI0UUFinW02cF3L837msp1GwEKGB
uqSBtzCBtDELMAkGA1UEBhMCVVMxCzAJBgNVBAgTAkNBMRUwEwYDVQQHEwxTYW5G
cmFuY2lzY28xFTATBgNVBAoTDFBpeGdsbywgSW5jLjEQMA4GA1UECxMHVlBOLUNJ
RTEaMBgGA1UEAxMRdHVubmVsLnBpeGdsby5jb20xHDAaBgNVBCkTE0JhbGEgQ2hh
bmRyYXNla2FyYW4xHjAcBgkqhkiG9w0BCQEWD2JhbGFAcGl4Z2xvLmNvbYIJAKbb
xoOA5qB5MBMGA1UdJQQMMAoGCCsGAQUFBwMCMAsGA1UdDwQEAwIHgDANBgkqhkiG
9w0BAQUFAAOCAgEAvyztU4VXBx4gvXhyLrRFQVT0u8jARF2PVWGCbKKso8DI5ou1
sgTBSJtgmKBC9HkccG9YltQHfpg+NuUgis1GmQq2tUGjR9TkEsvzCm1bI92JyAPa
PTzrN87PWMGcD8HgW02Wr5s5hEyy7gfQJMSZUj3k8kq7tIO8t5G0IgDTttziFzTN
NszX/dXZFO4bxCB8LLiwMVGTZPBiuY0cNf7ZMFzV+RJqXxgm2hK5OWbikuQJn1ZH
hnzZB2D6rnPKVKIVgGB+42JnJXwWdw1QW01m5rBiOKCgYu11td3/VqccskxKLzqr
thuwlWdk8cIuW1rQ0ch8vyK9xAUIZq1cnnyUjRSZy9NBcrmqlp8tWwGoeiMqMTDf
eh5qu7kActx1nENJMWxRYJyJ+rygPQsb06Jl1Nwispl3R1Dyx4vSyOjQtK06xPZF
kfveHCjqu+RLJXm+kvKBJy59MEL7u1s/z7X5/06FtTY+9U/ihmNgeEY/LniSPRlH
4Mj8KadkfHBSjGxp9R01Q1yLU9ff92ptW8h5LqUCjA1jHOYoNIKtdgiQ2jE028dp
iReMqDonA1c2xcLWVXRcoH2ZjRIq3pa5E1h0choNM6XFYz8sYnIoJCuz9i9e4Bxe
nrO588n8+WugvwnVZ2sc1f8kmidfhNMF9kd3Qi2JmMyw4e2mKh86gOvVMZk=
-----END CERTIFICATE-----
