Certificate:
    Data:
        Version: 3 (0x2)
        Serial Number: 741 (0x2e5)
    Signature Algorithm: sha1WithRSAEncryption
        Issuer: C=US, ST=CA, L=SanFrancisco, O=Pixglo, Inc., OU=VPN-CIE, CN=tunnel.pixglo.com/name=Bala Chandrasekaran/emailAddress=bala@pixglo.com
        Validity
            Not Before: Feb 14 06:41:59 2018 GMT
            Not After : Feb 12 06:41:59 2028 GMT
        Subject: C=US, ST=CA, L=SanFrancisco, O=Pixglo, Inc., OU=VPN-CIE, CN=cie740/name=Bala Chandrasekaran/emailAddress=bala@pixglo.com
        Subject Public Key Info:
            Public Key Algorithm: rsaEncryption
                Public-Key: (4096 bit)
                Modulus:
                    00:b3:74:79:90:74:31:2d:6a:39:63:b5:54:a2:08:
                    05:8f:56:89:60:9f:75:6c:fe:43:18:c9:40:ae:da:
                    5d:4c:25:51:79:60:65:cd:bd:0b:1c:ea:0b:d8:9e:
                    81:d0:60:95:ff:32:68:cb:ba:c0:c5:00:34:c2:31:
                    7c:b1:5a:7a:f3:fc:59:20:96:51:b0:e5:c9:31:ec:
                    e3:0b:72:5e:32:b5:e4:fa:47:b6:28:46:0b:07:90:
                    5a:8b:3e:9b:cc:ac:4a:d2:ed:82:b0:ee:6e:2e:8b:
                    00:87:44:6a:de:2b:3b:7d:07:45:b2:98:8c:10:50:
                    1e:92:77:95:d1:70:e8:62:0e:f1:ad:e4:22:34:cb:
                    da:70:83:e4:d5:ac:44:8e:f5:d8:79:8b:d1:70:b1:
                    27:a8:ed:f4:97:17:b3:76:68:86:87:78:83:e1:fd:
                    42:b9:43:f4:0e:20:1d:54:54:d7:12:6d:7d:37:96:
                    13:cb:60:7a:b9:14:2b:54:88:5e:c9:2b:01:43:f4:
                    f7:12:12:94:12:4a:ba:56:75:2e:e4:9d:e5:8d:82:
                    d9:14:b9:1e:60:4a:17:37:ec:a6:2c:04:10:80:94:
                    44:02:35:bb:af:82:18:14:50:90:0d:7a:c9:41:d6:
                    f0:99:cc:8e:49:d7:82:1f:68:d4:a6:e4:ca:59:15:
                    af:40:e5:26:18:fd:4c:3c:c4:4a:92:9b:14:93:d6:
                    46:0b:04:35:bd:ff:34:b8:b4:8d:f0:9b:51:f3:dd:
                    f8:23:9e:2d:72:9f:12:dd:14:96:15:31:df:d1:93:
                    7d:6e:eb:a0:e4:87:1a:28:f2:b0:68:27:0f:37:36:
                    64:58:a4:db:d6:42:8d:ff:39:b9:5a:58:6a:b3:28:
                    dd:30:51:8f:b9:b3:44:83:9c:73:ab:6c:78:25:6b:
                    00:7b:af:3a:3b:b2:e4:37:36:8e:7d:d6:e2:4f:91:
                    2f:4b:90:8f:09:90:a9:38:c0:56:a1:de:b8:e9:20:
                    8b:a2:56:4b:fe:6d:b5:19:0f:9a:3f:9f:29:9c:ea:
                    e9:51:0a:8a:b6:24:23:08:bd:74:9f:a5:41:6a:2d:
                    e7:b4:00:02:bc:66:5b:66:9f:52:3a:4b:98:fc:be:
                    60:3d:d4:ca:23:99:0f:0a:28:44:65:1a:9b:94:4d:
                    6e:9c:06:ab:52:e1:7a:48:db:08:ca:de:a5:28:2f:
                    bd:a2:3b:eb:d2:13:6e:e5:59:7e:8a:cd:2e:4f:0d:
                    1b:67:60:57:1e:e2:56:0a:80:6a:f9:4f:66:30:13:
                    a2:b7:05:39:9a:92:97:be:ec:e1:0e:87:fd:69:68:
                    1e:18:c5:d9:40:45:c7:3d:29:dd:a6:f0:c2:98:e2:
                    87:8d:f7
                Exponent: 65537 (0x10001)
        X509v3 extensions:
            X509v3 Basic Constraints: 
                CA:FALSE
            Netscape Comment: 
                Easy-RSA Generated Certificate
            X509v3 Subject Key Identifier: 
                6C:B3:C6:CE:00:8E:D4:04:6C:8E:25:C3:1C:18:39:A3:27:96:65:2B
            X509v3 Authority Key Identifier: 
                keyid:EF:38:8D:14:50:58:A7:5B:4D:9C:17:72:FC:DF:B9:AC:A7:51:B0:10
                DirName:/C=US/ST=CA/L=SanFrancisco/O=Pixglo, Inc./OU=VPN-CIE/CN=tunnel.pixglo.com/name=Bala Chandrasekaran/emailAddress=bala@pixglo.com
                serial:A6:DB:C6:83:80:E6:A0:79

            X509v3 Extended Key Usage: 
                TLS Web Client Authentication
            X509v3 Key Usage: 
                Digital Signature
    Signature Algorithm: sha1WithRSAEncryption
         5f:3b:d0:29:b1:f1:8a:18:9e:62:de:f3:3f:8f:bc:ad:f3:45:
         fa:90:06:69:a2:f9:8e:dc:58:1b:13:42:94:50:66:37:32:d1:
         1f:76:dc:8b:e8:2d:96:3a:0a:2f:6b:0d:9c:f2:d0:2c:7a:ba:
         cb:d4:50:58:f9:a6:6d:f9:9a:b8:08:8b:5c:0e:c9:6c:94:e8:
         f7:27:55:f5:44:12:0c:d6:e3:da:31:6b:62:01:69:b6:18:06:
         ea:e3:67:2d:ec:4a:7d:e8:3e:2f:65:e9:b7:2f:dc:40:16:78:
         05:d3:7c:be:40:2a:ad:00:11:2e:f6:7b:c3:a3:c7:91:66:7f:
         6e:42:fb:c8:77:63:5d:4f:66:8d:16:0a:35:04:2b:e7:42:42:
         ef:c0:2f:57:f5:c5:45:0d:08:ce:e5:73:68:91:ae:39:1b:3a:
         66:ae:57:6d:21:94:5e:c2:0b:4b:05:7f:66:c0:cb:75:df:3e:
         76:ec:4e:5f:52:72:d5:dd:67:64:f5:55:64:36:2c:57:4d:a9:
         8c:b7:72:fd:22:2f:87:70:81:c4:14:c6:2b:e3:c1:ce:41:82:
         25:a7:af:2b:0b:0a:32:56:f4:8f:5d:1a:10:12:7c:79:7c:bc:
         66:7a:11:c0:88:b0:1e:87:dd:c0:4c:11:0f:0b:d2:0f:e9:4f:
         a9:cc:da:6a:44:bf:3d:50:06:db:47:eb:26:25:57:a0:0d:41:
         5e:0a:4f:e0:fb:8c:5b:c0:70:b1:35:89:7c:f6:32:71:56:d1:
         1d:3e:17:b1:b4:b3:ff:17:0b:7b:0f:9d:82:cc:8e:1d:71:2c:
         f5:02:76:94:f9:82:68:f2:25:d8:57:85:c5:e7:db:99:d1:32:
         9e:8b:e8:4e:ad:b8:28:9c:40:03:73:78:22:d5:d2:87:37:24:
         55:26:94:3f:a8:bc:c6:32:a5:0b:94:f3:ff:c5:83:14:a2:33:
         6f:e5:bc:fc:e4:80:fa:e4:d0:3d:de:a5:13:1f:e4:25:ad:10:
         33:99:61:d6:38:ae:d2:12:73:83:51:2e:dc:4f:85:35:dc:87:
         1a:75:32:ec:54:f4:5f:4a:94:30:6d:54:68:fb:47:1c:99:ec:
         5b:f2:0a:0e:be:84:16:06:08:be:d4:2c:ab:f0:75:d7:38:9b:
         e3:3c:fd:22:e0:4d:6c:28:8c:cd:64:60:82:cb:53:0f:08:d0:
         46:81:61:a9:ae:59:4f:42:d8:ab:f5:78:e5:eb:8f:2c:63:10:
         cd:51:be:30:8e:10:15:6e:b8:f0:c8:b5:d5:de:75:f4:78:02:
         5d:07:9e:c8:da:52:3a:95:30:9e:84:b1:a3:ab:4b:db:0a:c2:
         25:37:ae:29:b8:8c:dc:cc
-----BEGIN CERTIFICATE-----
MIIHSDCCBTCgAwIBAgICAuUwDQYJKoZIhvcNAQEFBQAwgbQxCzAJBgNVBAYTAlVT
MQswCQYDVQQIEwJDQTEVMBMGA1UEBxMMU2FuRnJhbmNpc2NvMRUwEwYDVQQKEwxQ
aXhnbG8sIEluYy4xEDAOBgNVBAsTB1ZQTi1DSUUxGjAYBgNVBAMTEXR1bm5lbC5w
aXhnbG8uY29tMRwwGgYDVQQpExNCYWxhIENoYW5kcmFzZWthcmFuMR4wHAYJKoZI
hvcNAQkBFg9iYWxhQHBpeGdsby5jb20wHhcNMTgwMjE0MDY0MTU5WhcNMjgwMjEy
MDY0MTU5WjCBqTELMAkGA1UEBhMCVVMxCzAJBgNVBAgTAkNBMRUwEwYDVQQHEwxT
YW5GcmFuY2lzY28xFTATBgNVBAoTDFBpeGdsbywgSW5jLjEQMA4GA1UECxMHVlBO
LUNJRTEPMA0GA1UEAxMGY2llNzQwMRwwGgYDVQQpExNCYWxhIENoYW5kcmFzZWth
cmFuMR4wHAYJKoZIhvcNAQkBFg9iYWxhQHBpeGdsby5jb20wggIiMA0GCSqGSIb3
DQEBAQUAA4ICDwAwggIKAoICAQCzdHmQdDEtajljtVSiCAWPVolgn3Vs/kMYyUCu
2l1MJVF5YGXNvQsc6gvYnoHQYJX/MmjLusDFADTCMXyxWnrz/FkgllGw5ckx7OML
cl4yteT6R7YoRgsHkFqLPpvMrErS7YKw7m4uiwCHRGreKzt9B0WymIwQUB6Sd5XR
cOhiDvGt5CI0y9pwg+TVrESO9dh5i9FwsSeo7fSXF7N2aIaHeIPh/UK5Q/QOIB1U
VNcSbX03lhPLYHq5FCtUiF7JKwFD9PcSEpQSSrpWdS7kneWNgtkUuR5gShc37KYs
BBCAlEQCNbuvghgUUJANeslB1vCZzI5J14IfaNSm5MpZFa9A5SYY/Uw8xEqSmxST
1kYLBDW9/zS4tI3wm1Hz3fgjni1ynxLdFJYVMd/Rk31u66Dkhxoo8rBoJw83NmRY
pNvWQo3/OblaWGqzKN0wUY+5s0SDnHOrbHglawB7rzo7suQ3No591uJPkS9LkI8J
kKk4wFah3rjpIIuiVkv+bbUZD5o/nymc6ulRCoq2JCMIvXSfpUFqLee0AAK8Zltm
n1I6S5j8vmA91MojmQ8KKERlGpuUTW6cBqtS4XpI2wjK3qUoL72iO+vSE27lWX6K
zS5PDRtnYFce4lYKgGr5T2YwE6K3BTmakpe+7OEOh/1paB4YxdlARcc9Kd2m8MKY
4oeN9wIDAQABo4IBazCCAWcwCQYDVR0TBAIwADAtBglghkgBhvhCAQ0EIBYeRWFz
eS1SU0EgR2VuZXJhdGVkIENlcnRpZmljYXRlMB0GA1UdDgQWBBRss8bOAI7UBGyO
JcMcGDmjJ5ZlKzCB6QYDVR0jBIHhMIHegBTvOI0UUFinW02cF3L837msp1GwEKGB
uqSBtzCBtDELMAkGA1UEBhMCVVMxCzAJBgNVBAgTAkNBMRUwEwYDVQQHEwxTYW5G
cmFuY2lzY28xFTATBgNVBAoTDFBpeGdsbywgSW5jLjEQMA4GA1UECxMHVlBOLUNJ
RTEaMBgGA1UEAxMRdHVubmVsLnBpeGdsby5jb20xHDAaBgNVBCkTE0JhbGEgQ2hh
bmRyYXNla2FyYW4xHjAcBgkqhkiG9w0BCQEWD2JhbGFAcGl4Z2xvLmNvbYIJAKbb
xoOA5qB5MBMGA1UdJQQMMAoGCCsGAQUFBwMCMAsGA1UdDwQEAwIHgDANBgkqhkiG
9w0BAQUFAAOCAgEAXzvQKbHxihieYt7zP4+8rfNF+pAGaaL5jtxYGxNClFBmNzLR
H3bci+gtljoKL2sNnPLQLHq6y9RQWPmmbfmauAiLXA7JbJTo9ydV9UQSDNbj2jFr
YgFpthgG6uNnLexKfeg+L2Xpty/cQBZ4BdN8vkAqrQARLvZ7w6PHkWZ/bkL7yHdj
XU9mjRYKNQQr50JC78AvV/XFRQ0IzuVzaJGuORs6Zq5XbSGUXsILSwV/ZsDLdd8+
duxOX1Jy1d1nZPVVZDYsV02pjLdy/SIvh3CBxBTGK+PBzkGCJaevKwsKMlb0j10a
EBJ8eXy8ZnoRwIiwHofdwEwRDwvSD+lPqczaakS/PVAG20frJiVXoA1BXgpP4PuM
W8BwsTWJfPYycVbRHT4XsbSz/xcLew+dgsyOHXEs9QJ2lPmCaPIl2FeFxefbmdEy
novoTq24KJxAA3N4ItXShzckVSaUP6i8xjKlC5Tz/8WDFKIzb+W8/OSA+uTQPd6l
Ex/kJa0QM5lh1jiu0hJzg1Eu3E+FNdyHGnUy7FT0X0qUMG1UaPtHHJnsW/IKDr6E
FgYIvtQsq/B11zib4zz9IuBNbCiMzWRggstTDwjQRoFhqa5ZT0LYq/V45euPLGMQ
zVG+MI4QFW648Mi11d519HgCXQeeyNpSOpUwnoSxo6tL2wrCJTeuKbiM3Mw=
-----END CERTIFICATE-----
