Certificate:
    Data:
        Version: 3 (0x2)
        Serial Number: 742 (0x2e6)
    Signature Algorithm: sha1WithRSAEncryption
        Issuer: C=US, ST=CA, L=SanFrancisco, O=Pixglo, Inc., OU=VPN-CIE, CN=tunnel.pixglo.com/name=Bala Chandrasekaran/emailAddress=bala@pixglo.com
        Validity
            Not Before: Feb 14 06:42:02 2018 GMT
            Not After : Feb 12 06:42:02 2028 GMT
        Subject: C=US, ST=CA, L=SanFrancisco, O=Pixglo, Inc., OU=VPN-CIE, CN=cie741/name=Bala Chandrasekaran/emailAddress=bala@pixglo.com
        Subject Public Key Info:
            Public Key Algorithm: rsaEncryption
                Public-Key: (4096 bit)
                Modulus:
                    00:b6:6d:0d:56:f2:ad:79:85:86:86:a4:d2:03:28:
                    34:28:1e:b8:d6:11:08:da:d0:ed:7e:e8:93:0a:3f:
                    82:ba:81:57:92:a7:e0:44:7a:8c:70:58:c7:ef:29:
                    88:78:e6:14:65:49:e0:c4:e4:54:ee:7c:d7:50:d1:
                    e1:bd:19:a2:db:7d:4f:97:dc:3d:37:31:ad:48:51:
                    83:70:45:96:7c:d4:e1:78:e2:bf:34:18:75:85:c6:
                    4a:f9:2d:c4:38:4b:0d:ff:1e:b0:bd:ec:a2:6a:81:
                    a6:ad:8f:89:b7:89:34:6e:3e:94:e9:90:26:71:c9:
                    6a:f3:58:2e:48:f8:fa:4c:7f:72:9a:6d:1d:5d:b4:
                    f4:04:94:0c:00:49:8b:39:ce:f8:7e:ae:64:de:93:
                    82:e0:d0:f4:be:5b:09:cf:ad:75:89:90:da:78:27:
                    d0:dc:17:30:d6:ae:ac:23:aa:c9:0a:26:40:ec:49:
                    73:83:42:76:68:c7:7a:0f:48:83:4b:53:50:18:6e:
                    53:bc:19:76:e0:92:d6:0e:02:34:48:52:4b:a0:03:
                    a8:31:77:74:9f:53:2a:7f:2a:50:63:09:77:aa:2f:
                    b2:82:69:1d:59:85:eb:9d:51:77:c3:fa:d1:4a:2a:
                    8b:0a:8d:ab:26:d4:2a:f9:d5:c7:18:cb:ec:db:49:
                    4a:de:02:ed:ef:fd:2a:0e:bb:1c:e1:ca:77:65:3c:
                    bb:f3:db:66:3b:83:37:2a:e6:7a:54:ca:ee:71:27:
                    62:11:79:cb:9d:c9:98:7c:1a:6d:00:52:c3:6e:b7:
                    2f:fe:ad:51:5f:51:ab:0c:dd:06:c0:a8:19:3b:0d:
                    39:ba:bf:88:b0:43:1e:d8:6a:00:32:0c:5d:ff:57:
                    42:5b:86:29:01:be:92:0b:e3:c7:6c:8c:94:18:c3:
                    9b:4e:ab:5c:50:7b:55:77:c9:e1:45:5a:5f:56:f4:
                    87:6a:4b:0a:9c:8d:78:3b:21:9a:c6:b2:b3:96:48:
                    ec:97:d3:4d:86:3b:f5:e0:f2:de:c7:1e:80:d2:22:
                    a0:b3:ab:6c:5f:35:e0:27:6a:ae:ae:c7:57:f5:35:
                    4d:b0:9a:21:b6:aa:eb:61:64:b8:ce:f9:36:00:04:
                    2e:bb:28:0b:b7:67:bf:96:bb:7f:9c:ac:5f:50:2d:
                    fb:e2:d8:f0:dd:69:b7:47:1b:f6:0f:72:88:29:ff:
                    6e:4a:7c:35:e4:63:17:e3:61:d0:ca:5d:63:2d:8a:
                    b2:32:40:a4:3b:16:9c:c1:36:5d:92:c5:53:d4:33:
                    ec:76:eb:fd:f1:dc:59:18:0a:27:34:c8:6b:0c:45:
                    af:32:36:1b:f3:db:fe:4d:42:88:39:a0:20:cc:6f:
                    8d:9a:23
                Exponent: 65537 (0x10001)
        X509v3 extensions:
            X509v3 Basic Constraints: 
                CA:FALSE
            Netscape Comment: 
                Easy-RSA Generated Certificate
            X509v3 Subject Key Identifier: 
                BA:C0:E3:B9:49:CF:73:3C:35:ED:02:00:81:BA:D4:FF:0C:1F:96:4B
            X509v3 Authority Key Identifier: 
                keyid:EF:38:8D:14:50:58:A7:5B:4D:9C:17:72:FC:DF:B9:AC:A7:51:B0:10
                DirName:/C=US/ST=CA/L=SanFrancisco/O=Pixglo, Inc./OU=VPN-CIE/CN=tunnel.pixglo.com/name=Bala Chandrasekaran/emailAddress=bala@pixglo.com
                serial:A6:DB:C6:83:80:E6:A0:79

            X509v3 Extended Key Usage: 
                TLS Web Client Authentication
            X509v3 Key Usage: 
                Digital Signature
    Signature Algorithm: sha1WithRSAEncryption
         10:6a:3c:8f:9b:de:f6:be:93:f1:96:f8:78:fe:05:8c:29:04:
         99:9c:a8:46:ab:0c:06:3e:64:73:c3:ea:1a:24:6c:9e:02:04:
         3d:ae:52:25:f0:d9:b9:74:29:15:9e:db:97:93:3c:d3:66:ec:
         fd:97:a4:20:d6:ed:89:2e:8d:59:50:5b:2e:5c:58:02:05:77:
         c5:fd:2c:76:9e:af:40:96:2c:a5:6b:e8:dd:99:04:36:c3:f9:
         6f:c3:86:b5:b0:cc:b2:c3:61:6f:67:70:b7:f2:da:71:09:a3:
         5e:6b:4f:fa:4f:b4:28:35:f7:f4:8a:cb:58:1f:d5:7d:4c:de:
         f2:f1:b9:d6:80:dc:d7:59:21:5d:ae:fb:21:80:4c:b0:6a:3f:
         96:1c:72:ce:ce:af:44:78:7e:5a:b2:ce:85:13:56:f1:46:dd:
         af:6e:83:1e:1d:46:96:b8:13:00:f4:b2:5b:b2:26:17:6b:7d:
         a9:4c:ea:30:f9:1f:61:ce:6c:e4:40:53:c8:bc:fd:78:ec:b6:
         05:fd:f7:d5:da:8a:8a:f0:49:90:7a:ed:8d:9f:fc:ad:3c:27:
         97:b0:d3:f7:0e:5f:c4:78:12:cc:69:41:6e:66:3b:62:99:71:
         ed:5d:ee:22:93:4d:ea:7f:ec:00:a7:12:f7:28:0b:6b:92:97:
         26:01:21:8e:01:56:72:f5:85:f9:c9:ad:49:6a:24:ed:fc:0b:
         bf:bf:61:55:da:97:9c:d4:b5:6f:26:f8:b3:46:31:80:25:42:
         c8:62:1c:23:97:21:60:18:70:b9:fe:03:8c:2e:9f:ac:29:82:
         60:63:bd:3f:d0:50:c4:72:00:1f:c4:cd:99:e7:f0:4f:4c:a7:
         71:fc:25:2d:2b:92:d7:2b:04:9d:8d:ef:f7:00:fa:3f:2a:91:
         44:9a:02:5b:b0:5d:d0:64:77:b0:50:0f:d5:64:bd:fb:76:27:
         5f:01:44:cf:77:ab:94:64:1c:99:a8:62:ea:e6:8a:48:d2:5d:
         e9:be:91:1f:23:cc:5a:f1:76:9d:a5:ff:ba:9c:ba:16:fd:51:
         ad:d6:9a:fe:ea:ea:0a:60:0f:ea:73:68:f7:78:27:dc:2a:6b:
         47:da:52:35:10:8e:2e:78:3f:ff:34:2d:c5:d2:7c:28:57:a6:
         2d:bc:b5:aa:0c:3a:57:20:00:09:e3:44:fd:70:c6:81:55:30:
         80:a4:63:fd:22:84:ab:9b:36:2c:8b:e9:4f:f2:8b:a6:a3:c4:
         77:fa:18:d2:89:89:4a:8f:49:27:23:41:0d:b8:40:a0:8c:d5:
         f9:08:8b:63:89:8c:9c:ce:09:bb:98:b5:81:bc:e3:30:e9:6a:
         1a:5a:3d:51:71:9e:af:6b
-----BEGIN CERTIFICATE-----
MIIHSDCCBTCgAwIBAgICAuYwDQYJKoZIhvcNAQEFBQAwgbQxCzAJBgNVBAYTAlVT
MQswCQYDVQQIEwJDQTEVMBMGA1UEBxMMU2FuRnJhbmNpc2NvMRUwEwYDVQQKEwxQ
aXhnbG8sIEluYy4xEDAOBgNVBAsTB1ZQTi1DSUUxGjAYBgNVBAMTEXR1bm5lbC5w
aXhnbG8uY29tMRwwGgYDVQQpExNCYWxhIENoYW5kcmFzZWthcmFuMR4wHAYJKoZI
hvcNAQkBFg9iYWxhQHBpeGdsby5jb20wHhcNMTgwMjE0MDY0MjAyWhcNMjgwMjEy
MDY0MjAyWjCBqTELMAkGA1UEBhMCVVMxCzAJBgNVBAgTAkNBMRUwEwYDVQQHEwxT
YW5GcmFuY2lzY28xFTATBgNVBAoTDFBpeGdsbywgSW5jLjEQMA4GA1UECxMHVlBO
LUNJRTEPMA0GA1UEAxMGY2llNzQxMRwwGgYDVQQpExNCYWxhIENoYW5kcmFzZWth
cmFuMR4wHAYJKoZIhvcNAQkBFg9iYWxhQHBpeGdsby5jb20wggIiMA0GCSqGSIb3
DQEBAQUAA4ICDwAwggIKAoICAQC2bQ1W8q15hYaGpNIDKDQoHrjWEQja0O1+6JMK
P4K6gVeSp+BEeoxwWMfvKYh45hRlSeDE5FTufNdQ0eG9GaLbfU+X3D03Ma1IUYNw
RZZ81OF44r80GHWFxkr5LcQ4Sw3/HrC97KJqgaatj4m3iTRuPpTpkCZxyWrzWC5I
+PpMf3KabR1dtPQElAwASYs5zvh+rmTek4Lg0PS+WwnPrXWJkNp4J9DcFzDWrqwj
qskKJkDsSXODQnZox3oPSINLU1AYblO8GXbgktYOAjRIUkugA6gxd3SfUyp/KlBj
CXeqL7KCaR1ZheudUXfD+tFKKosKjasm1Cr51ccYy+zbSUreAu3v/SoOuxzhyndl
PLvz22Y7gzcq5npUyu5xJ2IRecudyZh8Gm0AUsNuty/+rVFfUasM3QbAqBk7DTm6
v4iwQx7YagAyDF3/V0JbhikBvpIL48dsjJQYw5tOq1xQe1V3yeFFWl9W9IdqSwqc
jXg7IZrGsrOWSOyX002GO/Xg8t7HHoDSIqCzq2xfNeAnaq6ux1f1NU2wmiG2quth
ZLjO+TYABC67KAu3Z7+Wu3+crF9QLfvi2PDdabdHG/YPcogp/25KfDXkYxfjYdDK
XWMtirIyQKQ7FpzBNl2SxVPUM+x26/3x3FkYCic0yGsMRa8yNhvz2/5NQog5oCDM
b42aIwIDAQABo4IBazCCAWcwCQYDVR0TBAIwADAtBglghkgBhvhCAQ0EIBYeRWFz
eS1SU0EgR2VuZXJhdGVkIENlcnRpZmljYXRlMB0GA1UdDgQWBBS6wOO5Sc9zPDXt
AgCButT/DB+WSzCB6QYDVR0jBIHhMIHegBTvOI0UUFinW02cF3L837msp1GwEKGB
uqSBtzCBtDELMAkGA1UEBhMCVVMxCzAJBgNVBAgTAkNBMRUwEwYDVQQHEwxTYW5G
cmFuY2lzY28xFTATBgNVBAoTDFBpeGdsbywgSW5jLjEQMA4GA1UECxMHVlBOLUNJ
RTEaMBgGA1UEAxMRdHVubmVsLnBpeGdsby5jb20xHDAaBgNVBCkTE0JhbGEgQ2hh
bmRyYXNla2FyYW4xHjAcBgkqhkiG9w0BCQEWD2JhbGFAcGl4Z2xvLmNvbYIJAKbb
xoOA5qB5MBMGA1UdJQQMMAoGCCsGAQUFBwMCMAsGA1UdDwQEAwIHgDANBgkqhkiG
9w0BAQUFAAOCAgEAEGo8j5ve9r6T8Zb4eP4FjCkEmZyoRqsMBj5kc8PqGiRsngIE
Pa5SJfDZuXQpFZ7bl5M802bs/ZekINbtiS6NWVBbLlxYAgV3xf0sdp6vQJYspWvo
3ZkENsP5b8OGtbDMssNhb2dwt/LacQmjXmtP+k+0KDX39IrLWB/VfUze8vG51oDc
11khXa77IYBMsGo/lhxyzs6vRHh+WrLOhRNW8Ubdr26DHh1GlrgTAPSyW7ImF2t9
qUzqMPkfYc5s5EBTyLz9eOy2Bf331dqKivBJkHrtjZ/8rTwnl7DT9w5fxHgSzGlB
bmY7Yplx7V3uIpNN6n/sAKcS9ygLa5KXJgEhjgFWcvWF+cmtSWok7fwLv79hVdqX
nNS1byb4s0YxgCVCyGIcI5chYBhwuf4DjC6frCmCYGO9P9BQxHIAH8TNmefwT0yn
cfwlLSuS1ysEnY3v9wD6PyqRRJoCW7Bd0GR3sFAP1WS9+3YnXwFEz3erlGQcmahi
6uaKSNJd6b6RHyPMWvF2naX/upy6Fv1Rrdaa/urqCmAP6nNo93gn3CprR9pSNRCO
Lng//zQtxdJ8KFemLby1qgw6VyAACeNE/XDGgVUwgKRj/SKEq5s2LIvpT/KLpqPE
d/oY0omJSo9JJyNBDbhAoIzV+QiLY4mMnM4Ju5i1gbzjMOlqGlo9UXGer2s=
-----END CERTIFICATE-----
