Certificate:
    Data:
        Version: 3 (0x2)
        Serial Number: 743 (0x2e7)
    Signature Algorithm: sha1WithRSAEncryption
        Issuer: C=US, ST=CA, L=SanFrancisco, O=Pixglo, Inc., OU=VPN-CIE, CN=tunnel.pixglo.com/name=Bala Chandrasekaran/emailAddress=bala@pixglo.com
        Validity
            Not Before: Feb 14 06:42:03 2018 GMT
            Not After : Feb 12 06:42:03 2028 GMT
        Subject: C=US, ST=CA, L=SanFrancisco, O=Pixglo, Inc., OU=VPN-CIE, CN=cie742/name=Bala Chandrasekaran/emailAddress=bala@pixglo.com
        Subject Public Key Info:
            Public Key Algorithm: rsaEncryption
                Public-Key: (4096 bit)
                Modulus:
                    00:b5:6b:f6:1d:93:a9:53:34:29:c3:62:5b:3c:33:
                    07:09:30:d3:cd:e7:99:b7:aa:46:3c:72:39:e4:ee:
                    14:97:46:61:98:09:40:a6:62:23:15:1a:dd:70:23:
                    62:6f:7f:94:ae:d4:a3:90:b6:e6:f6:38:81:eb:94:
                    e9:cd:f9:34:11:39:10:3c:e5:77:d9:cb:c3:0e:61:
                    16:e3:0f:93:a0:d8:3b:ac:ae:c9:26:5e:63:ad:64:
                    e3:67:b3:dc:da:39:52:13:2a:f4:b4:46:0f:d2:b8:
                    0b:82:af:82:d3:c9:b6:15:c3:82:f0:11:46:55:09:
                    3d:7e:32:ad:48:49:01:2d:31:27:99:bc:5d:6d:70:
                    51:77:7f:0a:c1:8e:93:17:9d:c8:d6:8d:e5:d4:f5:
                    02:4a:32:bb:78:db:aa:47:a4:2d:95:cf:23:3e:c8:
                    86:89:9b:6f:48:88:0f:8f:e4:5a:9b:c7:d0:38:0a:
                    fc:47:22:0f:21:ea:f5:82:2e:44:97:e0:79:98:9a:
                    35:db:b3:ff:ff:a7:5e:6b:3e:4b:aa:7a:a5:72:4c:
                    09:f3:40:10:58:ac:0a:ab:34:b6:05:7e:38:4a:00:
                    6b:d9:c5:91:69:90:8f:66:da:e0:a6:6a:87:2a:31:
                    fd:75:2a:67:78:d9:a4:55:ed:0e:6d:9c:db:8e:1c:
                    8f:7f:4b:8f:db:26:69:9b:1a:0c:11:3e:79:89:70:
                    fd:83:c3:be:76:26:ba:2d:d5:76:66:1a:57:d1:80:
                    b6:04:bc:a9:dc:5b:a6:b6:2b:c2:61:2b:ca:99:31:
                    61:0e:2d:0e:39:61:7d:fd:d4:0b:8a:58:b3:4d:ca:
                    91:2a:b3:b9:57:fb:4f:c8:dc:7f:18:17:5c:a6:5e:
                    fb:0d:b2:97:a0:35:60:1d:5b:26:1c:df:e2:54:03:
                    b8:12:08:cd:b7:3c:ef:5b:01:b8:b5:ba:33:4c:76:
                    73:5c:05:2c:fb:c8:87:05:5f:f6:8d:b6:f6:43:61:
                    9d:0b:4d:d1:58:b4:2c:4d:d0:a2:b8:d1:3c:aa:e1:
                    78:67:73:91:c1:60:b4:4b:aa:4c:65:d0:a9:a8:8c:
                    d5:21:d7:a9:01:d0:8e:4c:1c:48:47:95:76:34:45:
                    4c:d2:8e:fd:aa:5e:c3:c7:d4:c1:3b:de:7c:ca:d3:
                    53:2c:30:4b:de:20:37:4d:9b:7c:b6:e5:06:f1:12:
                    c6:83:13:8f:79:4f:68:38:4d:f2:98:69:86:96:02:
                    91:48:c7:1b:e1:c5:a3:29:2e:01:76:40:00:0c:db:
                    96:d6:b6:7a:f6:67:8e:21:b5:05:f6:8e:a9:3e:cc:
                    57:2d:8d:41:e9:a6:1f:8a:a0:60:fa:e0:ef:4c:7d:
                    ce:fa:65
                Exponent: 65537 (0x10001)
        X509v3 extensions:
            X509v3 Basic Constraints: 
                CA:FALSE
            Netscape Comment: 
                Easy-RSA Generated Certificate
            X509v3 Subject Key Identifier: 
                CA:47:B3:38:80:30:D1:C0:B9:B6:08:5B:18:AC:5E:F3:0D:0E:44:D9
            X509v3 Authority Key Identifier: 
                keyid:EF:38:8D:14:50:58:A7:5B:4D:9C:17:72:FC:DF:B9:AC:A7:51:B0:10
                DirName:/C=US/ST=CA/L=SanFrancisco/O=Pixglo, Inc./OU=VPN-CIE/CN=tunnel.pixglo.com/name=Bala Chandrasekaran/emailAddress=bala@pixglo.com
                serial:A6:DB:C6:83:80:E6:A0:79

            X509v3 Extended Key Usage: 
                TLS Web Client Authentication
            X509v3 Key Usage: 
                Digital Signature
    Signature Algorithm: sha1WithRSAEncryption
         cc:39:38:19:6d:97:51:9c:2e:a6:17:0e:bf:75:61:8d:ad:79:
         2e:3a:55:01:93:9e:42:0a:63:09:17:cd:2d:f0:bb:f5:97:06:
         f5:47:c6:22:d5:cb:7e:d1:7c:74:c0:94:e5:ec:ea:33:01:fd:
         89:ab:81:ce:d7:a5:9d:bb:12:77:7e:b2:26:77:d1:e5:5a:b0:
         95:54:57:4f:b2:0a:ee:06:e3:0e:cb:1f:d9:d0:7f:0e:8d:3c:
         a4:23:32:7d:03:91:bc:41:39:1d:67:88:b9:7e:ae:0b:73:d3:
         b5:99:83:14:02:16:e1:49:e3:66:66:1e:2a:c5:a4:ce:aa:d6:
         b8:17:5c:eb:00:37:7d:42:79:64:40:5e:19:6f:de:c6:69:e4:
         04:ec:44:7f:65:d7:c6:3d:f0:0c:ac:03:e0:ee:a0:f5:57:56:
         90:b1:95:f2:b6:01:b4:fa:ff:db:a5:02:32:bb:c3:23:4c:df:
         09:42:2e:64:17:d6:d8:cc:98:a5:06:32:15:25:57:ba:d5:84:
         53:63:fc:eb:4c:e8:5a:fb:fc:b5:44:28:f1:c2:5d:6e:bf:c2:
         fb:da:3a:29:7c:48:52:aa:00:54:6a:48:50:68:04:c5:cf:0e:
         22:49:4a:f0:c5:02:93:25:b8:63:a9:e2:e9:9d:d1:56:e9:e7:
         70:ee:2b:9c:bd:74:22:9a:b9:46:32:1a:4f:54:2b:16:50:98:
         78:e4:7b:c5:e2:fc:26:f2:53:b1:70:93:6a:72:7a:6d:10:b2:
         e5:34:0d:c2:46:93:2e:0b:da:7a:09:c6:a0:f3:fb:2c:69:1f:
         8e:39:ee:73:af:eb:f1:73:e2:9d:ed:0f:56:c4:a8:ff:92:17:
         a7:95:62:e0:3e:a1:6c:c9:47:eb:75:f7:15:6c:5c:4c:1f:0b:
         3d:8b:59:97:89:f0:5b:e7:3e:32:7c:53:07:f4:92:24:96:76:
         4f:43:90:ea:91:65:8c:b2:0f:d2:3f:da:39:1f:34:e4:d3:05:
         80:ba:9f:8e:91:a9:d6:20:6d:a9:bf:7a:1b:7c:05:09:1f:8f:
         de:9e:ee:60:4d:4b:9d:5c:2d:ca:36:ad:08:39:fa:2c:eb:24:
         26:70:e8:0f:cd:84:4f:03:f1:34:db:bd:19:55:eb:a9:0d:30:
         06:06:21:a7:cd:e8:8d:06:b7:1c:2a:df:72:ad:f1:9d:c5:10:
         05:01:64:43:ab:9c:d0:af:10:9b:d1:96:25:91:4a:e6:49:49:
         7e:ae:84:f5:1b:2f:83:13:0b:5c:93:d6:92:0f:d8:94:78:51:
         99:a8:56:b2:ae:48:59:bb:ea:1e:01:e6:56:74:7d:e8:3c:1d:
         5e:a3:69:4d:27:d2:a2:bf
-----BEGIN CERTIFICATE-----
MIIHSDCCBTCgAwIBAgICAucwDQYJKoZIhvcNAQEFBQAwgbQxCzAJBgNVBAYTAlVT
MQswCQYDVQQIEwJDQTEVMBMGA1UEBxMMU2FuRnJhbmNpc2NvMRUwEwYDVQQKEwxQ
aXhnbG8sIEluYy4xEDAOBgNVBAsTB1ZQTi1DSUUxGjAYBgNVBAMTEXR1bm5lbC5w
aXhnbG8uY29tMRwwGgYDVQQpExNCYWxhIENoYW5kcmFzZWthcmFuMR4wHAYJKoZI
hvcNAQkBFg9iYWxhQHBpeGdsby5jb20wHhcNMTgwMjE0MDY0MjAzWhcNMjgwMjEy
MDY0MjAzWjCBqTELMAkGA1UEBhMCVVMxCzAJBgNVBAgTAkNBMRUwEwYDVQQHEwxT
YW5GcmFuY2lzY28xFTATBgNVBAoTDFBpeGdsbywgSW5jLjEQMA4GA1UECxMHVlBO
LUNJRTEPMA0GA1UEAxMGY2llNzQyMRwwGgYDVQQpExNCYWxhIENoYW5kcmFzZWth
cmFuMR4wHAYJKoZIhvcNAQkBFg9iYWxhQHBpeGdsby5jb20wggIiMA0GCSqGSIb3
DQEBAQUAA4ICDwAwggIKAoICAQC1a/Ydk6lTNCnDYls8MwcJMNPN55m3qkY8cjnk
7hSXRmGYCUCmYiMVGt1wI2Jvf5Su1KOQtub2OIHrlOnN+TQRORA85XfZy8MOYRbj
D5Og2DusrskmXmOtZONns9zaOVITKvS0Rg/SuAuCr4LTybYVw4LwEUZVCT1+Mq1I
SQEtMSeZvF1tcFF3fwrBjpMXncjWjeXU9QJKMrt426pHpC2VzyM+yIaJm29IiA+P
5Fqbx9A4CvxHIg8h6vWCLkSX4HmYmjXbs///p15rPkuqeqVyTAnzQBBYrAqrNLYF
fjhKAGvZxZFpkI9m2uCmaocqMf11Kmd42aRV7Q5tnNuOHI9/S4/bJmmbGgwRPnmJ
cP2Dw752Jrot1XZmGlfRgLYEvKncW6a2K8JhK8qZMWEOLQ45YX391AuKWLNNypEq
s7lX+0/I3H8YF1ymXvsNspegNWAdWyYc3+JUA7gSCM23PO9bAbi1ujNMdnNcBSz7
yIcFX/aNtvZDYZ0LTdFYtCxN0KK40Tyq4Xhnc5HBYLRLqkxl0KmojNUh16kB0I5M
HEhHlXY0RUzSjv2qXsPH1ME73nzK01MsMEveIDdNm3y25QbxEsaDE495T2g4TfKY
aYaWApFIxxvhxaMpLgF2QAAM25bWtnr2Z44htQX2jqk+zFctjUHpph+KoGD64O9M
fc76ZQIDAQABo4IBazCCAWcwCQYDVR0TBAIwADAtBglghkgBhvhCAQ0EIBYeRWFz
eS1SU0EgR2VuZXJhdGVkIENlcnRpZmljYXRlMB0GA1UdDgQWBBTKR7M4gDDRwLm2
CFsYrF7zDQ5E2TCB6QYDVR0jBIHhMIHegBTvOI0UUFinW02cF3L837msp1GwEKGB
uqSBtzCBtDELMAkGA1UEBhMCVVMxCzAJBgNVBAgTAkNBMRUwEwYDVQQHEwxTYW5G
cmFuY2lzY28xFTATBgNVBAoTDFBpeGdsbywgSW5jLjEQMA4GA1UECxMHVlBOLUNJ
RTEaMBgGA1UEAxMRdHVubmVsLnBpeGdsby5jb20xHDAaBgNVBCkTE0JhbGEgQ2hh
bmRyYXNla2FyYW4xHjAcBgkqhkiG9w0BCQEWD2JhbGFAcGl4Z2xvLmNvbYIJAKbb
xoOA5qB5MBMGA1UdJQQMMAoGCCsGAQUFBwMCMAsGA1UdDwQEAwIHgDANBgkqhkiG
9w0BAQUFAAOCAgEAzDk4GW2XUZwuphcOv3Vhja15LjpVAZOeQgpjCRfNLfC79ZcG
9UfGItXLftF8dMCU5ezqMwH9iauBztelnbsSd36yJnfR5VqwlVRXT7IK7gbjDssf
2dB/Do08pCMyfQORvEE5HWeIuX6uC3PTtZmDFAIW4UnjZmYeKsWkzqrWuBdc6wA3
fUJ5ZEBeGW/exmnkBOxEf2XXxj3wDKwD4O6g9VdWkLGV8rYBtPr/26UCMrvDI0zf
CUIuZBfW2MyYpQYyFSVXutWEU2P860zoWvv8tUQo8cJdbr/C+9o6KXxIUqoAVGpI
UGgExc8OIklK8MUCkyW4Y6ni6Z3RVunncO4rnL10Ipq5RjIaT1QrFlCYeOR7xeL8
JvJTsXCTanJ6bRCy5TQNwkaTLgvaegnGoPP7LGkfjjnuc6/r8XPine0PVsSo/5IX
p5Vi4D6hbMlH63X3FWxcTB8LPYtZl4nwW+c+MnxTB/SSJJZ2T0OQ6pFljLIP0j/a
OR805NMFgLqfjpGp1iBtqb96G3wFCR+P3p7uYE1LnVwtyjatCDn6LOskJnDoD82E
TwPxNNu9GVXrqQ0wBgYhp83ojQa3HCrfcq3xncUQBQFkQ6uc0K8Qm9GWJZFK5klJ
fq6E9RsvgxMLXJPWkg/YlHhRmahWsq5IWbvqHgHmVnR96DwdXqNpTSfSor8=
-----END CERTIFICATE-----
