Certificate:
    Data:
        Version: 3 (0x2)
        Serial Number: 744 (0x2e8)
    Signature Algorithm: sha1WithRSAEncryption
        Issuer: C=US, ST=CA, L=SanFrancisco, O=Pixglo, Inc., OU=VPN-CIE, CN=tunnel.pixglo.com/name=Bala Chandrasekaran/emailAddress=bala@pixglo.com
        Validity
            Not Before: Feb 14 06:42:05 2018 GMT
            Not After : Feb 12 06:42:05 2028 GMT
        Subject: C=US, ST=CA, L=SanFrancisco, O=Pixglo, Inc., OU=VPN-CIE, CN=cie743/name=Bala Chandrasekaran/emailAddress=bala@pixglo.com
        Subject Public Key Info:
            Public Key Algorithm: rsaEncryption
                Public-Key: (4096 bit)
                Modulus:
                    00:b8:bf:4f:0f:24:de:ee:9e:1a:40:18:38:5d:cd:
                    ad:dc:6c:20:a0:3a:cd:b0:73:70:1c:c5:66:61:1b:
                    8b:a5:dd:53:6f:78:36:45:69:59:0f:be:5f:5a:5a:
                    bd:12:b1:11:da:c7:e8:3d:8b:01:e6:6d:1e:64:49:
                    56:d5:da:6c:fc:88:26:73:06:6c:89:da:12:df:ca:
                    ef:45:6d:af:eb:15:ed:48:0f:2f:23:f5:77:c4:01:
                    79:e2:f7:b1:bc:a6:fd:b4:62:99:c6:ec:5b:ae:ba:
                    e7:af:48:d9:41:56:40:f7:55:64:41:a4:3b:9f:cd:
                    5f:e4:cb:78:ca:a2:e3:a7:c5:f7:0f:ef:f3:c3:d2:
                    d0:ca:60:e3:39:2b:81:78:0c:13:dd:e6:da:3f:8c:
                    35:45:c5:86:52:58:e1:d3:69:b5:81:87:30:51:83:
                    74:09:8f:6f:31:b9:e1:3c:17:c8:ca:b7:4e:94:e4:
                    48:22:99:6f:bb:84:f0:29:d0:48:ca:71:b2:03:e2:
                    39:76:9c:73:2c:4b:00:68:ea:16:45:44:bc:d4:db:
                    ec:65:b7:f3:6f:98:bc:43:d2:0c:de:88:2c:bf:ef:
                    e8:f1:39:74:53:ff:4c:89:ad:b6:40:94:b9:bf:ca:
                    b6:63:03:6d:6d:6a:11:9c:27:57:28:a8:2c:70:df:
                    93:b9:1b:6d:f5:4d:66:1c:3c:98:ac:17:b9:12:58:
                    a4:bb:27:6a:39:6e:94:c8:56:9c:ed:82:67:84:18:
                    ca:0f:94:76:8e:5c:73:d7:31:1e:7c:95:83:af:22:
                    6b:b4:85:44:43:2f:4e:5b:ac:de:d6:77:8e:61:b9:
                    c1:e6:71:90:1d:32:04:b3:27:ee:8a:9a:c3:ff:5e:
                    50:86:8f:2a:28:2e:a3:87:cf:d1:e2:d5:88:c1:28:
                    99:aa:0b:95:c2:be:d8:fe:c7:b1:f1:f9:54:95:d1:
                    52:85:bb:c0:7a:22:ed:f7:c5:fb:c1:35:83:81:30:
                    43:22:24:88:d0:ce:61:cf:44:00:20:9d:5e:00:8b:
                    e5:0c:85:bf:42:f2:d4:69:d6:27:33:35:f0:be:7a:
                    d8:c0:1b:e2:a5:24:8d:ef:2b:16:2d:c2:89:e6:7d:
                    6b:db:8f:54:26:b9:d9:87:83:5d:33:88:6d:ea:10:
                    9a:b5:00:06:d3:fa:be:a9:4e:96:72:12:d1:07:4b:
                    f7:39:83:70:b2:b3:6d:82:9f:f1:57:bc:0d:21:61:
                    bb:7a:45:10:e6:4b:43:03:4a:0e:f0:a3:f6:5f:6a:
                    ab:2a:77:13:c7:04:ea:c8:9c:52:d3:0a:08:83:32:
                    99:3f:02:1c:7e:42:ef:67:78:c5:6b:7f:6f:e0:e7:
                    18:c8:35
                Exponent: 65537 (0x10001)
        X509v3 extensions:
            X509v3 Basic Constraints: 
                CA:FALSE
            Netscape Comment: 
                Easy-RSA Generated Certificate
            X509v3 Subject Key Identifier: 
                73:07:BA:FA:C3:9E:F6:A3:AD:EE:41:FC:F7:08:6D:69:A8:81:82:0D
            X509v3 Authority Key Identifier: 
                keyid:EF:38:8D:14:50:58:A7:5B:4D:9C:17:72:FC:DF:B9:AC:A7:51:B0:10
                DirName:/C=US/ST=CA/L=SanFrancisco/O=Pixglo, Inc./OU=VPN-CIE/CN=tunnel.pixglo.com/name=Bala Chandrasekaran/emailAddress=bala@pixglo.com
                serial:A6:DB:C6:83:80:E6:A0:79

            X509v3 Extended Key Usage: 
                TLS Web Client Authentication
            X509v3 Key Usage: 
                Digital Signature
    Signature Algorithm: sha1WithRSAEncryption
         79:02:9b:14:03:22:c1:15:0f:3b:7c:b6:f4:d3:a2:5a:26:e8:
         2d:23:5c:b6:63:84:9c:8a:fb:4d:20:0d:b1:98:66:2f:0a:9c:
         b0:53:4c:19:09:56:43:fe:15:b0:e3:db:5f:9e:f8:2c:c1:e4:
         e3:bd:a3:3d:bb:42:94:dd:66:13:44:47:cd:a7:17:18:86:0d:
         41:f2:3d:0b:e8:e4:df:cb:ed:72:20:85:38:49:55:68:73:71:
         17:19:f6:f4:f6:85:90:ce:75:27:63:93:66:43:5c:da:7e:18:
         91:ab:88:7a:7f:f1:de:27:ac:93:49:68:c8:3f:45:80:72:81:
         38:89:df:2e:1d:21:ef:0d:6f:62:ae:ea:1d:96:97:5e:fc:fb:
         0a:9f:39:d5:27:92:b5:7b:30:c6:b8:64:b8:3b:30:48:97:cc:
         7e:e8:0d:13:f1:8e:f7:df:df:71:d0:69:85:0a:09:d9:6c:31:
         d1:6d:ff:fd:4c:d7:f8:a1:cc:14:76:92:48:f3:b5:8f:ee:1a:
         47:bf:bd:3f:48:ab:aa:b6:0d:93:cb:9c:b1:9b:c6:ed:95:05:
         59:a4:f7:54:66:f6:3a:e9:73:37:68:b1:12:33:e6:37:ad:3d:
         b3:b3:04:51:13:7d:ee:a5:9a:e7:fe:cb:6b:c2:42:05:20:4e:
         77:15:19:34:fc:6e:d4:e4:4c:8f:5c:32:de:30:de:ce:34:36:
         0b:2f:d6:b4:b4:42:10:01:d5:93:c6:b2:19:49:7e:48:29:d9:
         ee:d0:14:4d:5f:a6:ba:08:06:0f:dc:61:34:59:13:86:40:ac:
         26:6b:d1:74:8d:1e:ac:3f:e0:8a:34:1c:3f:5c:a7:e1:b7:2d:
         99:6d:db:18:97:78:13:4c:d7:a8:6d:bb:d4:a8:d0:c0:73:d3:
         93:e9:19:06:c1:29:0e:b2:40:cd:4a:4a:04:e1:20:be:a1:a5:
         0a:9b:1d:6c:5c:39:78:cf:fe:05:2c:3d:96:98:40:f4:11:3f:
         65:67:79:b4:a5:11:33:02:eb:35:e8:3e:18:29:ad:4c:a3:f0:
         4e:d6:03:cb:d3:b8:8c:ca:a2:a0:bb:ec:72:26:22:f1:64:be:
         92:db:b2:f5:72:f6:c7:c3:82:d6:c5:9c:67:e7:ea:90:26:17:
         f8:52:e4:53:8b:f3:0e:92:bd:94:22:c4:4d:99:66:b1:d1:b2:
         b8:d0:8b:fa:a5:ad:55:2e:33:57:32:c2:fa:04:68:1e:fa:0e:
         70:c1:d4:1f:a0:76:02:13:41:16:41:fe:e3:64:45:fc:89:72:
         24:2d:4b:b8:3c:dd:5e:2c:60:54:7e:9f:63:8c:c6:2e:97:f0:
         4c:77:9b:b0:d3:a4:e6:64
-----BEGIN CERTIFICATE-----
MIIHSDCCBTCgAwIBAgICAugwDQYJKoZIhvcNAQEFBQAwgbQxCzAJBgNVBAYTAlVT
MQswCQYDVQQIEwJDQTEVMBMGA1UEBxMMU2FuRnJhbmNpc2NvMRUwEwYDVQQKEwxQ
aXhnbG8sIEluYy4xEDAOBgNVBAsTB1ZQTi1DSUUxGjAYBgNVBAMTEXR1bm5lbC5w
aXhnbG8uY29tMRwwGgYDVQQpExNCYWxhIENoYW5kcmFzZWthcmFuMR4wHAYJKoZI
hvcNAQkBFg9iYWxhQHBpeGdsby5jb20wHhcNMTgwMjE0MDY0MjA1WhcNMjgwMjEy
MDY0MjA1WjCBqTELMAkGA1UEBhMCVVMxCzAJBgNVBAgTAkNBMRUwEwYDVQQHEwxT
YW5GcmFuY2lzY28xFTATBgNVBAoTDFBpeGdsbywgSW5jLjEQMA4GA1UECxMHVlBO
LUNJRTEPMA0GA1UEAxMGY2llNzQzMRwwGgYDVQQpExNCYWxhIENoYW5kcmFzZWth
cmFuMR4wHAYJKoZIhvcNAQkBFg9iYWxhQHBpeGdsby5jb20wggIiMA0GCSqGSIb3
DQEBAQUAA4ICDwAwggIKAoICAQC4v08PJN7unhpAGDhdza3cbCCgOs2wc3AcxWZh
G4ul3VNveDZFaVkPvl9aWr0SsRHax+g9iwHmbR5kSVbV2mz8iCZzBmyJ2hLfyu9F
ba/rFe1IDy8j9XfEAXni97G8pv20YpnG7FuuuuevSNlBVkD3VWRBpDufzV/ky3jK
ouOnxfcP7/PD0tDKYOM5K4F4DBPd5to/jDVFxYZSWOHTabWBhzBRg3QJj28xueE8
F8jKt06U5EgimW+7hPAp0EjKcbID4jl2nHMsSwBo6hZFRLzU2+xlt/NvmLxD0gze
iCy/7+jxOXRT/0yJrbZAlLm/yrZjA21tahGcJ1coqCxw35O5G231TWYcPJisF7kS
WKS7J2o5bpTIVpztgmeEGMoPlHaOXHPXMR58lYOvImu0hURDL05brN7Wd45hucHm
cZAdMgSzJ+6KmsP/XlCGjyooLqOHz9Hi1YjBKJmqC5XCvtj+x7Hx+VSV0VKFu8B6
Iu33xfvBNYOBMEMiJIjQzmHPRAAgnV4Ai+UMhb9C8tRp1iczNfC+etjAG+KlJI3v
KxYtwonmfWvbj1QmudmHg10ziG3qEJq1AAbT+r6pTpZyEtEHS/c5g3Cys22Cn/FX
vA0hYbt6RRDmS0MDSg7wo/ZfaqsqdxPHBOrInFLTCgiDMpk/Ahx+Qu9neMVrf2/g
5xjINQIDAQABo4IBazCCAWcwCQYDVR0TBAIwADAtBglghkgBhvhCAQ0EIBYeRWFz
eS1SU0EgR2VuZXJhdGVkIENlcnRpZmljYXRlMB0GA1UdDgQWBBRzB7r6w572o63u
Qfz3CG1pqIGCDTCB6QYDVR0jBIHhMIHegBTvOI0UUFinW02cF3L837msp1GwEKGB
uqSBtzCBtDELMAkGA1UEBhMCVVMxCzAJBgNVBAgTAkNBMRUwEwYDVQQHEwxTYW5G
cmFuY2lzY28xFTATBgNVBAoTDFBpeGdsbywgSW5jLjEQMA4GA1UECxMHVlBOLUNJ
RTEaMBgGA1UEAxMRdHVubmVsLnBpeGdsby5jb20xHDAaBgNVBCkTE0JhbGEgQ2hh
bmRyYXNla2FyYW4xHjAcBgkqhkiG9w0BCQEWD2JhbGFAcGl4Z2xvLmNvbYIJAKbb
xoOA5qB5MBMGA1UdJQQMMAoGCCsGAQUFBwMCMAsGA1UdDwQEAwIHgDANBgkqhkiG
9w0BAQUFAAOCAgEAeQKbFAMiwRUPO3y29NOiWiboLSNctmOEnIr7TSANsZhmLwqc
sFNMGQlWQ/4VsOPbX574LMHk472jPbtClN1mE0RHzacXGIYNQfI9C+jk38vtciCF
OElVaHNxFxn29PaFkM51J2OTZkNc2n4YkauIen/x3iesk0loyD9FgHKBOInfLh0h
7w1vYq7qHZaXXvz7Cp851SeStXswxrhkuDswSJfMfugNE/GO99/fcdBphQoJ2Wwx
0W3//UzX+KHMFHaSSPO1j+4aR7+9P0irqrYNk8ucsZvG7ZUFWaT3VGb2OulzN2ix
EjPmN609s7MEURN97qWa5/7La8JCBSBOdxUZNPxu1ORMj1wy3jDezjQ2Cy/WtLRC
EAHVk8ayGUl+SCnZ7tAUTV+muggGD9xhNFkThkCsJmvRdI0erD/gijQcP1yn4bct
mW3bGJd4E0zXqG271KjQwHPTk+kZBsEpDrJAzUpKBOEgvqGlCpsdbFw5eM/+BSw9
lphA9BE/ZWd5tKURMwLrNeg+GCmtTKPwTtYDy9O4jMqioLvsciYi8WS+ktuy9XL2
x8OC1sWcZ+fqkCYX+FLkU4vzDpK9lCLETZlmsdGyuNCL+qWtVS4zVzLC+gRoHvoO
cMHUH6B2AhNBFkH+42RF/IlyJC1LuDzdXixgVH6fY4zGLpfwTHebsNOk5mQ=
-----END CERTIFICATE-----
