Certificate:
    Data:
        Version: 3 (0x2)
        Serial Number: 745 (0x2e9)
    Signature Algorithm: sha1WithRSAEncryption
        Issuer: C=US, ST=CA, L=SanFrancisco, O=Pixglo, Inc., OU=VPN-CIE, CN=tunnel.pixglo.com/name=Bala Chandrasekaran/emailAddress=bala@pixglo.com
        Validity
            Not Before: Feb 14 06:42:08 2018 GMT
            Not After : Feb 12 06:42:08 2028 GMT
        Subject: C=US, ST=CA, L=SanFrancisco, O=Pixglo, Inc., OU=VPN-CIE, CN=cie744/name=Bala Chandrasekaran/emailAddress=bala@pixglo.com
        Subject Public Key Info:
            Public Key Algorithm: rsaEncryption
                Public-Key: (4096 bit)
                Modulus:
                    00:dd:e5:e7:a1:24:17:89:58:ed:cd:65:c7:1e:37:
                    40:a7:0c:73:83:86:be:4f:57:aa:d3:3c:4f:d5:69:
                    f2:99:d7:dd:27:6f:0b:4e:0d:60:c5:cd:06:3e:2a:
                    05:35:1b:06:20:b0:b6:4d:fb:63:8b:43:d5:fd:6f:
                    39:90:44:ff:e3:fc:3c:74:80:23:01:8e:34:96:e3:
                    57:21:57:2e:75:c3:88:b6:30:ae:03:ea:f9:4c:eb:
                    d1:74:63:dc:88:f0:7d:6c:fc:45:76:c8:6e:d8:c3:
                    a5:a8:a8:c6:85:b2:8b:63:b5:cc:91:3c:04:1e:6e:
                    bd:96:22:1a:4b:61:1e:67:4a:5b:d8:82:18:a4:3c:
                    03:df:ac:d0:d8:04:f1:ee:ba:86:63:3b:2e:a3:09:
                    4d:c5:67:3e:ef:2a:01:44:4b:db:7b:f1:20:c9:2c:
                    51:66:f6:d6:4f:62:7f:11:fa:24:53:87:d4:bb:ab:
                    17:97:dd:ce:df:0b:20:97:4b:c8:a8:f0:86:80:7b:
                    fe:2e:18:f5:e1:0e:c1:ed:e8:25:dd:5d:ff:54:54:
                    6a:77:d8:00:db:e7:e3:00:b4:fc:53:23:c9:04:2f:
                    40:ce:1d:65:d6:24:97:af:1e:c6:18:80:a7:c4:3d:
                    c1:7c:c6:d8:2a:3b:41:55:3b:73:bd:29:6d:b9:c1:
                    f2:b0:a4:4b:31:b9:28:6c:0d:95:cf:e3:09:ed:8a:
                    c0:d7:4e:ee:3b:90:9a:08:6e:17:0e:9f:bf:53:1f:
                    22:be:36:a0:5a:cf:c7:e0:ab:17:4a:44:45:c6:37:
                    d6:85:79:cd:d0:d8:ea:01:b7:3f:4c:6e:7a:ca:59:
                    fe:7a:ca:1c:a4:a0:00:0b:66:d6:55:eb:b5:6c:ff:
                    1a:72:d8:f1:55:90:b1:72:de:ce:a4:ea:0d:fc:f0:
                    7c:6a:ca:bd:97:f6:56:8f:e0:14:0e:f7:6d:ac:3c:
                    10:89:c2:2f:3b:81:9e:e3:a5:7d:61:05:85:99:3d:
                    c8:d2:55:cf:f1:8a:cc:1c:6b:74:c5:60:32:c9:84:
                    e8:90:a4:c9:f1:f2:09:0d:53:75:d5:48:96:36:a7:
                    55:4f:27:c4:9e:bb:14:e9:9c:88:5b:ac:45:fd:27:
                    78:20:20:16:4c:a7:99:ba:a9:e9:17:57:bd:99:73:
                    fa:cc:ef:d3:44:44:ff:79:de:7e:67:cd:da:0c:dc:
                    51:82:72:1c:be:b3:33:c0:86:33:4e:08:92:fc:8e:
                    1c:8b:49:da:43:fe:ea:e5:71:4d:37:ea:af:34:1d:
                    b8:21:cd:3b:13:eb:8f:f3:2b:90:a0:ad:07:d3:bf:
                    85:ec:85:49:67:33:a0:d9:5b:93:44:84:b1:77:13:
                    96:a3:1d
                Exponent: 65537 (0x10001)
        X509v3 extensions:
            X509v3 Basic Constraints: 
                CA:FALSE
            Netscape Comment: 
                Easy-RSA Generated Certificate
            X509v3 Subject Key Identifier: 
                01:7B:67:87:3C:46:3D:C6:9D:30:A3:3C:2C:7D:75:5A:CC:43:1C:3E
            X509v3 Authority Key Identifier: 
                keyid:EF:38:8D:14:50:58:A7:5B:4D:9C:17:72:FC:DF:B9:AC:A7:51:B0:10
                DirName:/C=US/ST=CA/L=SanFrancisco/O=Pixglo, Inc./OU=VPN-CIE/CN=tunnel.pixglo.com/name=Bala Chandrasekaran/emailAddress=bala@pixglo.com
                serial:A6:DB:C6:83:80:E6:A0:79

            X509v3 Extended Key Usage: 
                TLS Web Client Authentication
            X509v3 Key Usage: 
                Digital Signature
    Signature Algorithm: sha1WithRSAEncryption
         47:09:de:b3:0a:e4:b4:b0:5d:ab:1e:00:1e:e9:b1:5c:97:8b:
         57:8c:af:e0:a2:43:63:ba:62:44:8e:22:62:07:eb:15:ac:73:
         45:1d:c0:0d:7f:5d:d6:75:7c:24:61:e1:f7:df:50:50:11:ea:
         3c:5e:70:97:6f:41:ef:fb:1e:cb:97:9f:da:3d:d5:3d:7f:d8:
         a0:7c:53:8e:34:f3:0d:97:54:06:71:c8:ee:72:be:1c:22:a5:
         de:50:ef:86:50:be:f8:87:0d:41:81:9c:1c:49:1b:48:4d:bc:
         06:36:e5:61:f3:a7:a2:04:ee:19:04:c2:b8:d4:72:ca:27:02:
         cd:2e:8e:a4:2b:eb:a8:f0:cc:a2:d7:b7:c9:45:00:6a:cc:77:
         a1:23:e7:6f:2b:f7:75:26:01:15:bf:f9:66:7c:33:3f:db:f2:
         66:2e:a4:db:a1:ce:96:4a:b7:0b:64:d8:ff:5c:92:f3:19:a4:
         30:a4:76:77:2e:ca:fb:18:0a:04:bb:f9:46:62:97:cb:4e:83:
         5d:e5:0d:be:ef:95:e8:2c:61:e1:8e:e5:37:22:a7:93:43:ef:
         1d:d6:28:04:00:f4:1a:2c:e6:dd:96:df:19:f1:83:7d:2e:f5:
         b1:45:98:86:f2:ee:87:b9:3c:6b:30:5b:2b:ba:fe:77:54:e1:
         ea:21:f2:97:86:64:e0:bc:e8:8f:57:58:bc:b6:f7:9f:e3:5c:
         a6:f4:b5:5f:09:5e:d9:23:ce:54:42:91:ad:de:1a:0c:74:3a:
         fa:eb:b2:f4:db:bb:94:32:78:ca:59:49:a2:cc:75:8b:d2:18:
         c8:c5:07:0f:81:23:65:7e:3d:ce:a2:a5:68:8c:48:70:28:cb:
         33:94:ab:87:8f:9e:b2:2e:9d:5c:90:7d:14:ff:38:60:e1:4d:
         70:03:0c:84:de:fb:01:00:8b:cd:b4:35:83:95:37:fe:a3:04:
         86:9b:f9:18:cb:58:ad:02:bf:ff:a0:b5:f3:5b:ce:19:a4:43:
         0a:e9:81:1c:8e:34:51:17:eb:d4:e6:9a:2b:2c:72:0e:7d:89:
         60:57:ba:7c:7f:00:d3:e9:01:2b:cf:cd:be:66:3a:50:75:d2:
         32:5f:09:89:a7:ac:61:35:70:7b:86:8b:98:60:8c:4f:42:92:
         34:d1:26:10:0a:b1:0d:99:06:29:40:ee:6a:f1:17:aa:9a:bf:
         19:67:c2:be:bb:7b:7d:b9:3b:c2:ef:71:45:33:13:e5:bd:35:
         f7:4a:a1:07:31:af:b3:9c:a4:21:45:ac:2e:f3:af:63:53:c0:
         1f:f0:f5:51:ff:11:4c:bb:8e:78:c6:cb:88:96:4c:9f:2f:cf:
         af:6e:48:d0:fd:12:ac:e8
-----BEGIN CERTIFICATE-----
MIIHSDCCBTCgAwIBAgICAukwDQYJKoZIhvcNAQEFBQAwgbQxCzAJBgNVBAYTAlVT
MQswCQYDVQQIEwJDQTEVMBMGA1UEBxMMU2FuRnJhbmNpc2NvMRUwEwYDVQQKEwxQ
aXhnbG8sIEluYy4xEDAOBgNVBAsTB1ZQTi1DSUUxGjAYBgNVBAMTEXR1bm5lbC5w
aXhnbG8uY29tMRwwGgYDVQQpExNCYWxhIENoYW5kcmFzZWthcmFuMR4wHAYJKoZI
hvcNAQkBFg9iYWxhQHBpeGdsby5jb20wHhcNMTgwMjE0MDY0MjA4WhcNMjgwMjEy
MDY0MjA4WjCBqTELMAkGA1UEBhMCVVMxCzAJBgNVBAgTAkNBMRUwEwYDVQQHEwxT
YW5GcmFuY2lzY28xFTATBgNVBAoTDFBpeGdsbywgSW5jLjEQMA4GA1UECxMHVlBO
LUNJRTEPMA0GA1UEAxMGY2llNzQ0MRwwGgYDVQQpExNCYWxhIENoYW5kcmFzZWth
cmFuMR4wHAYJKoZIhvcNAQkBFg9iYWxhQHBpeGdsby5jb20wggIiMA0GCSqGSIb3
DQEBAQUAA4ICDwAwggIKAoICAQDd5eehJBeJWO3NZcceN0CnDHODhr5PV6rTPE/V
afKZ190nbwtODWDFzQY+KgU1GwYgsLZN+2OLQ9X9bzmQRP/j/Dx0gCMBjjSW41ch
Vy51w4i2MK4D6vlM69F0Y9yI8H1s/EV2yG7Yw6WoqMaFsotjtcyRPAQebr2WIhpL
YR5nSlvYghikPAPfrNDYBPHuuoZjOy6jCU3FZz7vKgFES9t78SDJLFFm9tZPYn8R
+iRTh9S7qxeX3c7fCyCXS8io8IaAe/4uGPXhDsHt6CXdXf9UVGp32ADb5+MAtPxT
I8kEL0DOHWXWJJevHsYYgKfEPcF8xtgqO0FVO3O9KW25wfKwpEsxuShsDZXP4wnt
isDXTu47kJoIbhcOn79THyK+NqBaz8fgqxdKREXGN9aFec3Q2OoBtz9MbnrKWf56
yhykoAALZtZV67Vs/xpy2PFVkLFy3s6k6g388Hxqyr2X9laP4BQO922sPBCJwi87
gZ7jpX1hBYWZPcjSVc/xiswca3TFYDLJhOiQpMnx8gkNU3XVSJY2p1VPJ8SeuxTp
nIhbrEX9J3ggIBZMp5m6qekXV72Zc/rM79NERP953n5nzdoM3FGCchy+szPAhjNO
CJL8jhyLSdpD/urlcU036q80HbghzTsT64/zK5CgrQfTv4XshUlnM6DZW5NEhLF3
E5ajHQIDAQABo4IBazCCAWcwCQYDVR0TBAIwADAtBglghkgBhvhCAQ0EIBYeRWFz
eS1SU0EgR2VuZXJhdGVkIENlcnRpZmljYXRlMB0GA1UdDgQWBBQBe2eHPEY9xp0w
ozwsfXVazEMcPjCB6QYDVR0jBIHhMIHegBTvOI0UUFinW02cF3L837msp1GwEKGB
uqSBtzCBtDELMAkGA1UEBhMCVVMxCzAJBgNVBAgTAkNBMRUwEwYDVQQHEwxTYW5G
cmFuY2lzY28xFTATBgNVBAoTDFBpeGdsbywgSW5jLjEQMA4GA1UECxMHVlBOLUNJ
RTEaMBgGA1UEAxMRdHVubmVsLnBpeGdsby5jb20xHDAaBgNVBCkTE0JhbGEgQ2hh
bmRyYXNla2FyYW4xHjAcBgkqhkiG9w0BCQEWD2JhbGFAcGl4Z2xvLmNvbYIJAKbb
xoOA5qB5MBMGA1UdJQQMMAoGCCsGAQUFBwMCMAsGA1UdDwQEAwIHgDANBgkqhkiG
9w0BAQUFAAOCAgEARwneswrktLBdqx4AHumxXJeLV4yv4KJDY7piRI4iYgfrFaxz
RR3ADX9d1nV8JGHh999QUBHqPF5wl29B7/sey5ef2j3VPX/YoHxTjjTzDZdUBnHI
7nK+HCKl3lDvhlC++IcNQYGcHEkbSE28BjblYfOnogTuGQTCuNRyyicCzS6OpCvr
qPDMote3yUUAasx3oSPnbyv3dSYBFb/5ZnwzP9vyZi6k26HOlkq3C2TY/1yS8xmk
MKR2dy7K+xgKBLv5RmKXy06DXeUNvu+V6Cxh4Y7lNyKnk0PvHdYoBAD0Gizm3Zbf
GfGDfS71sUWYhvLuh7k8azBbK7r+d1Th6iHyl4Zk4Lzoj1dYvLb3n+NcpvS1Xwle
2SPOVEKRrd4aDHQ6+uuy9Nu7lDJ4yllJosx1i9IYyMUHD4EjZX49zqKlaIxIcCjL
M5Srh4+esi6dXJB9FP84YOFNcAMMhN77AQCLzbQ1g5U3/qMEhpv5GMtYrQK//6C1
81vOGaRDCumBHI40URfr1OaaKyxyDn2JYFe6fH8A0+kBK8/NvmY6UHXSMl8Jiaes
YTVwe4aLmGCMT0KSNNEmEAqxDZkGKUDuavEXqpq/GWfCvrt7fbk7wu9xRTMT5b01
90qhBzGvs5ykIUWsLvOvY1PAH/D1Uf8RTLuOeMbLiJZMny/Pr25I0P0SrOg=
-----END CERTIFICATE-----
