Certificate:
    Data:
        Version: 3 (0x2)
        Serial Number: 748 (0x2ec)
    Signature Algorithm: sha1WithRSAEncryption
        Issuer: C=US, ST=CA, L=SanFrancisco, O=Pixglo, Inc., OU=VPN-CIE, CN=tunnel.pixglo.com/name=Bala Chandrasekaran/emailAddress=bala@pixglo.com
        Validity
            Not Before: Feb 14 06:42:15 2018 GMT
            Not After : Feb 12 06:42:15 2028 GMT
        Subject: C=US, ST=CA, L=SanFrancisco, O=Pixglo, Inc., OU=VPN-CIE, CN=cie747/name=Bala Chandrasekaran/emailAddress=bala@pixglo.com
        Subject Public Key Info:
            Public Key Algorithm: rsaEncryption
                Public-Key: (4096 bit)
                Modulus:
                    00:ad:15:9c:d3:8e:27:3f:9f:8a:6a:6b:5d:29:9a:
                    b1:1b:15:f5:c7:b1:db:36:1d:26:a7:5f:e0:30:aa:
                    27:29:f9:93:30:eb:9c:a9:40:e0:cd:1f:68:da:a5:
                    e1:a1:a6:cc:4b:b0:e8:da:a5:ec:95:cc:16:f8:4e:
                    06:45:43:01:fe:fa:5b:54:ae:8d:5a:d9:ef:41:58:
                    dc:02:04:c4:7e:ce:b0:a1:2d:fa:63:df:82:dd:b2:
                    44:4a:cb:21:69:6f:f2:c7:67:18:93:44:8c:06:df:
                    b0:a8:07:5e:bf:32:81:c9:f0:ea:f0:8d:35:3c:68:
                    e7:71:8f:cd:f9:a1:17:63:b3:39:c9:00:51:35:26:
                    63:cd:3d:f4:bc:60:f0:1b:f1:c9:1a:2a:3b:24:58:
                    e4:a9:5a:11:33:01:98:e1:c0:a3:fb:a5:a5:ec:c9:
                    8c:db:30:08:10:f7:fa:4b:29:e4:b7:83:f3:50:f5:
                    c7:02:59:20:a9:d4:b2:fc:0b:83:05:cf:50:9e:83:
                    20:9e:53:d0:53:62:f6:3d:74:4b:bd:d7:a5:72:0c:
                    ae:6a:14:33:77:bb:3d:16:b3:11:17:51:22:ed:04:
                    e1:48:35:a2:1f:d6:0f:14:ca:b8:f9:17:87:bc:a6:
                    a2:fb:0e:71:f5:07:5c:62:f8:ce:50:2e:5f:f5:d0:
                    80:16:dd:e3:cc:cb:b9:74:38:78:31:6b:88:f8:68:
                    f8:d1:aa:ea:51:71:ff:64:c4:f6:6a:73:96:08:d0:
                    d3:3b:a0:a0:1e:ab:4e:fe:90:e7:aa:f9:e8:39:9e:
                    2f:05:dc:74:b4:da:d1:7c:ce:81:47:77:bc:f1:96:
                    2b:4b:09:f1:d9:f8:08:c1:b5:4f:3e:1e:55:20:69:
                    aa:01:5d:70:0f:d6:9c:ec:84:99:4c:92:05:0f:17:
                    6f:9d:cb:3e:a7:01:d1:ef:78:0c:fd:8a:4c:c4:fa:
                    75:89:16:82:5b:7f:b0:76:1a:1c:b3:0d:04:4c:e5:
                    7e:9c:c8:cb:a6:e8:34:f2:6a:fe:69:58:aa:ca:3a:
                    29:3d:79:86:35:e5:53:9e:eb:0c:d4:f0:53:6a:f0:
                    49:3b:5b:6e:bc:b0:03:69:8b:5b:19:28:22:91:cc:
                    6c:30:3d:6d:c7:f4:66:04:25:1b:ff:7a:dd:0e:ed:
                    db:35:cb:33:1c:3a:61:03:f3:66:c9:af:3f:1c:ff:
                    8e:5b:bd:af:5c:3e:58:d3:ac:76:4a:f7:eb:cd:68:
                    56:a2:1a:71:07:cc:b4:46:2d:ec:f0:19:f3:32:b5:
                    a5:c8:25:e7:1c:93:8f:b3:05:2f:3c:8b:b9:00:f3:
                    64:7b:34:e0:fb:e4:38:b9:0d:25:bd:ca:dc:52:40:
                    b6:ef:9d
                Exponent: 65537 (0x10001)
        X509v3 extensions:
            X509v3 Basic Constraints: 
                CA:FALSE
            Netscape Comment: 
                Easy-RSA Generated Certificate
            X509v3 Subject Key Identifier: 
                01:D6:A6:53:EC:50:42:E7:EA:68:AE:39:11:4A:23:44:58:A8:6C:BF
            X509v3 Authority Key Identifier: 
                keyid:EF:38:8D:14:50:58:A7:5B:4D:9C:17:72:FC:DF:B9:AC:A7:51:B0:10
                DirName:/C=US/ST=CA/L=SanFrancisco/O=Pixglo, Inc./OU=VPN-CIE/CN=tunnel.pixglo.com/name=Bala Chandrasekaran/emailAddress=bala@pixglo.com
                serial:A6:DB:C6:83:80:E6:A0:79

            X509v3 Extended Key Usage: 
                TLS Web Client Authentication
            X509v3 Key Usage: 
                Digital Signature
    Signature Algorithm: sha1WithRSAEncryption
         c5:b8:48:1d:bb:00:34:47:b0:59:36:3c:06:09:aa:40:b7:d9:
         be:92:2c:3b:ad:52:0c:e5:2f:c5:4b:72:1e:9b:9d:da:8c:a5:
         6f:71:95:3d:2c:db:10:d0:a4:78:7d:d1:b6:0e:94:2e:20:32:
         be:63:c9:85:33:b5:cc:b9:4b:23:d2:4f:e7:50:3f:28:b6:ae:
         02:37:9b:fa:d9:02:0c:4f:fc:d2:93:67:95:d8:43:3c:a7:1f:
         49:29:0d:ed:a4:aa:c2:bc:a5:71:26:98:85:ed:ac:13:c5:ec:
         87:54:20:3a:cb:1c:9a:a4:49:b4:4a:69:0c:3e:5c:ec:78:83:
         05:51:d1:a3:ca:8b:f9:bb:06:af:6b:e6:a7:b4:76:c4:e3:05:
         bf:ea:41:69:db:62:21:ca:82:4a:5b:47:a2:3c:31:7c:58:04:
         94:81:f9:db:89:76:23:33:03:9a:31:22:78:c1:5c:3e:6f:db:
         1b:e9:66:49:fc:54:16:a5:49:ee:92:96:0d:c4:ee:27:cd:8a:
         eb:e8:dd:33:3b:a3:d7:c6:49:bc:ac:91:2c:c3:7a:1b:ba:36:
         3c:15:a1:c6:39:be:dd:99:b6:80:af:b0:75:39:db:df:c8:49:
         e2:16:eb:de:55:80:29:2d:81:d0:e1:b3:08:de:1c:6c:7c:a8:
         c6:68:7f:2a:04:d7:01:2e:f4:07:fa:cf:76:9f:d8:31:00:05:
         9d:81:de:1b:27:07:91:62:2e:b9:0b:f5:e4:10:46:69:1d:c0:
         78:ed:3d:b9:80:27:b3:22:a6:76:a2:17:2b:45:92:3e:09:4d:
         fd:6c:46:ef:81:ab:2a:90:f6:79:dd:0e:0f:85:5b:28:7d:cd:
         86:87:40:9b:17:4b:de:ff:33:e9:87:e6:67:4b:39:4f:ba:4c:
         41:49:51:1a:2a:b9:d6:cc:e7:e6:a9:67:15:41:3d:37:7f:70:
         3c:7d:4b:36:e4:ea:80:d6:9b:4b:78:e7:90:04:dd:4b:51:77:
         f6:27:5b:92:73:5d:51:cb:3e:4e:7b:00:09:b5:12:45:77:0a:
         15:f3:18:29:15:79:8f:13:b0:1f:2f:d1:97:74:33:0a:1c:58:
         c5:4f:56:2a:46:62:59:6e:12:cf:9e:00:4e:23:37:16:8f:63:
         4a:03:53:55:5e:12:19:35:19:88:a8:2b:1d:5a:9d:34:04:87:
         58:e7:b7:21:80:bf:44:87:e1:b8:da:c1:8f:8c:36:73:95:bc:
         66:28:00:78:f6:a4:ee:2d:e6:3d:4c:65:c9:b0:17:c9:da:94:
         ec:c2:0b:58:0c:f6:14:ad:69:62:39:f6:ef:c8:b1:90:bb:b0:
         70:3b:e3:78:d8:29:04:fa
-----BEGIN CERTIFICATE-----
MIIHSDCCBTCgAwIBAgICAuwwDQYJKoZIhvcNAQEFBQAwgbQxCzAJBgNVBAYTAlVT
MQswCQYDVQQIEwJDQTEVMBMGA1UEBxMMU2FuRnJhbmNpc2NvMRUwEwYDVQQKEwxQ
aXhnbG8sIEluYy4xEDAOBgNVBAsTB1ZQTi1DSUUxGjAYBgNVBAMTEXR1bm5lbC5w
aXhnbG8uY29tMRwwGgYDVQQpExNCYWxhIENoYW5kcmFzZWthcmFuMR4wHAYJKoZI
hvcNAQkBFg9iYWxhQHBpeGdsby5jb20wHhcNMTgwMjE0MDY0MjE1WhcNMjgwMjEy
MDY0MjE1WjCBqTELMAkGA1UEBhMCVVMxCzAJBgNVBAgTAkNBMRUwEwYDVQQHEwxT
YW5GcmFuY2lzY28xFTATBgNVBAoTDFBpeGdsbywgSW5jLjEQMA4GA1UECxMHVlBO
LUNJRTEPMA0GA1UEAxMGY2llNzQ3MRwwGgYDVQQpExNCYWxhIENoYW5kcmFzZWth
cmFuMR4wHAYJKoZIhvcNAQkBFg9iYWxhQHBpeGdsby5jb20wggIiMA0GCSqGSIb3
DQEBAQUAA4ICDwAwggIKAoICAQCtFZzTjic/n4pqa10pmrEbFfXHsds2HSanX+Aw
qicp+ZMw65ypQODNH2japeGhpsxLsOjapeyVzBb4TgZFQwH++ltUro1a2e9BWNwC
BMR+zrChLfpj34LdskRKyyFpb/LHZxiTRIwG37CoB16/MoHJ8OrwjTU8aOdxj835
oRdjsznJAFE1JmPNPfS8YPAb8ckaKjskWOSpWhEzAZjhwKP7paXsyYzbMAgQ9/pL
KeS3g/NQ9ccCWSCp1LL8C4MFz1CegyCeU9BTYvY9dEu916VyDK5qFDN3uz0WsxEX
USLtBOFINaIf1g8Uyrj5F4e8pqL7DnH1B1xi+M5QLl/10IAW3ePMy7l0OHgxa4j4
aPjRqupRcf9kxPZqc5YI0NM7oKAeq07+kOeq+eg5ni8F3HS02tF8zoFHd7zxlitL
CfHZ+AjBtU8+HlUgaaoBXXAP1pzshJlMkgUPF2+dyz6nAdHveAz9ikzE+nWJFoJb
f7B2GhyzDQRM5X6cyMum6DTyav5pWKrKOik9eYY15VOe6wzU8FNq8Ek7W268sANp
i1sZKCKRzGwwPW3H9GYEJRv/et0O7ds1yzMcOmED82bJrz8c/45bva9cPljTrHZK
9+vNaFaiGnEHzLRGLezwGfMytaXIJecck4+zBS88i7kA82R7NOD75Di5DSW9ytxS
QLbvnQIDAQABo4IBazCCAWcwCQYDVR0TBAIwADAtBglghkgBhvhCAQ0EIBYeRWFz
eS1SU0EgR2VuZXJhdGVkIENlcnRpZmljYXRlMB0GA1UdDgQWBBQB1qZT7FBC5+po
rjkRSiNEWKhsvzCB6QYDVR0jBIHhMIHegBTvOI0UUFinW02cF3L837msp1GwEKGB
uqSBtzCBtDELMAkGA1UEBhMCVVMxCzAJBgNVBAgTAkNBMRUwEwYDVQQHEwxTYW5G
cmFuY2lzY28xFTATBgNVBAoTDFBpeGdsbywgSW5jLjEQMA4GA1UECxMHVlBOLUNJ
RTEaMBgGA1UEAxMRdHVubmVsLnBpeGdsby5jb20xHDAaBgNVBCkTE0JhbGEgQ2hh
bmRyYXNla2FyYW4xHjAcBgkqhkiG9w0BCQEWD2JhbGFAcGl4Z2xvLmNvbYIJAKbb
xoOA5qB5MBMGA1UdJQQMMAoGCCsGAQUFBwMCMAsGA1UdDwQEAwIHgDANBgkqhkiG
9w0BAQUFAAOCAgEAxbhIHbsANEewWTY8BgmqQLfZvpIsO61SDOUvxUtyHpud2oyl
b3GVPSzbENCkeH3Rtg6ULiAyvmPJhTO1zLlLI9JP51A/KLauAjeb+tkCDE/80pNn
ldhDPKcfSSkN7aSqwrylcSaYhe2sE8Xsh1QgOsscmqRJtEppDD5c7HiDBVHRo8qL
+bsGr2vmp7R2xOMFv+pBadtiIcqCSltHojwxfFgElIH524l2IzMDmjEieMFcPm/b
G+lmSfxUFqVJ7pKWDcTuJ82K6+jdMzuj18ZJvKyRLMN6G7o2PBWhxjm+3Zm2gK+w
dTnb38hJ4hbr3lWAKS2B0OGzCN4cbHyoxmh/KgTXAS70B/rPdp/YMQAFnYHeGycH
kWIuuQv15BBGaR3AeO09uYAnsyKmdqIXK0WSPglN/WxG74GrKpD2ed0OD4VbKH3N
hodAmxdL3v8z6YfmZ0s5T7pMQUlRGiq51szn5qlnFUE9N39wPH1LNuTqgNabS3jn
kATdS1F39idbknNdUcs+TnsACbUSRXcKFfMYKRV5jxOwHy/Rl3QzChxYxU9WKkZi
WW4Sz54ATiM3Fo9jSgNTVV4SGTUZiKgrHVqdNASHWOe3IYC/RIfhuNrBj4w2c5W8
ZigAePak7i3mPUxlybAXydqU7MILWAz2FK1pYjn278ixkLuwcDvjeNgpBPo=
-----END CERTIFICATE-----
