Certificate:
    Data:
        Version: 3 (0x2)
        Serial Number: 749 (0x2ed)
    Signature Algorithm: sha1WithRSAEncryption
        Issuer: C=US, ST=CA, L=SanFrancisco, O=Pixglo, Inc., OU=VPN-CIE, CN=tunnel.pixglo.com/name=Bala Chandrasekaran/emailAddress=bala@pixglo.com
        Validity
            Not Before: Feb 14 06:42:17 2018 GMT
            Not After : Feb 12 06:42:17 2028 GMT
        Subject: C=US, ST=CA, L=SanFrancisco, O=Pixglo, Inc., OU=VPN-CIE, CN=cie748/name=Bala Chandrasekaran/emailAddress=bala@pixglo.com
        Subject Public Key Info:
            Public Key Algorithm: rsaEncryption
                Public-Key: (4096 bit)
                Modulus:
                    00:bf:e6:8a:96:89:8c:a4:f0:73:40:2c:28:7a:29:
                    ba:3a:a0:21:5e:6f:dd:f0:c7:b4:86:58:94:7a:6c:
                    e0:35:3a:77:21:d6:b3:87:6d:3c:ff:9f:b6:93:63:
                    f9:ee:d8:f0:8b:6c:42:e1:1d:26:3a:71:4b:eb:db:
                    64:3b:8e:9b:2c:01:e6:be:c3:28:47:69:8d:8e:e8:
                    a5:b0:d1:e1:48:4b:af:47:60:6a:ea:6c:0d:69:da:
                    ad:6c:31:7a:25:d3:0a:18:fa:1b:55:de:4f:6c:b5:
                    7f:d8:aa:13:5f:1a:6a:d1:3d:d4:7c:a2:7e:6c:eb:
                    d3:57:09:f5:af:09:4d:73:9e:0e:31:e8:a3:ee:6d:
                    9f:6e:75:9c:ef:6f:50:dc:04:df:04:a8:f0:0c:92:
                    15:62:bb:27:ee:58:a1:98:4a:93:42:41:d7:b9:95:
                    ed:59:16:b8:e8:cd:bb:67:bc:9a:6d:20:63:b8:d9:
                    ac:b1:c1:01:66:3d:19:21:4b:fe:eb:26:ee:68:b8:
                    58:51:0d:ff:c5:b4:8e:22:4d:dc:33:e7:ab:ea:15:
                    b7:0a:6d:a1:41:15:cc:cd:df:3f:14:56:c0:08:a7:
                    40:9c:de:76:bd:50:d5:a5:45:ac:99:ab:93:20:6b:
                    eb:06:b0:1e:78:f0:0e:04:1a:8a:82:85:d6:70:07:
                    77:a5:df:5f:60:c0:b1:00:64:87:99:4f:5d:46:00:
                    bf:e6:40:3f:e2:81:44:09:43:e5:0f:e2:69:77:37:
                    2a:83:7f:d9:1d:29:c4:fc:07:d6:4a:06:47:fe:c4:
                    1a:ee:f8:2b:c7:3c:c1:c1:87:4c:07:fb:69:5d:0d:
                    34:8b:e9:47:3b:6a:4d:ce:a1:65:20:c6:f8:90:c5:
                    e1:00:cb:e1:57:0c:b0:9e:0b:15:b0:67:5e:d9:3c:
                    16:30:3e:06:a0:59:1e:71:31:08:e5:4a:62:d7:7c:
                    76:66:fe:d7:5c:91:6c:f4:71:3f:2e:3c:d3:da:3c:
                    eb:70:59:45:ee:e8:a0:e3:ca:1c:a9:81:7f:f4:ed:
                    a6:7e:03:80:6b:b6:9b:24:a8:5d:bd:01:e3:96:56:
                    af:c4:1e:fa:ef:ea:5e:ff:b0:66:77:73:82:ea:57:
                    86:df:d1:41:12:e9:ee:be:6d:1a:02:33:4d:63:eb:
                    91:ff:36:e2:cd:95:73:cb:fe:fb:d1:04:c1:8d:b9:
                    cb:7c:19:75:39:85:4d:04:b4:a1:35:7f:e9:35:ff:
                    da:68:93:dd:d7:90:b3:03:a9:19:6e:9e:a7:8b:8c:
                    d5:38:f5:09:e5:6c:32:de:a2:22:d9:e3:be:74:fc:
                    3e:b8:28:bd:77:bc:f4:6c:86:76:d8:c1:4f:67:7b:
                    f4:26:0f
                Exponent: 65537 (0x10001)
        X509v3 extensions:
            X509v3 Basic Constraints: 
                CA:FALSE
            Netscape Comment: 
                Easy-RSA Generated Certificate
            X509v3 Subject Key Identifier: 
                99:AF:48:47:B9:95:72:6B:D8:FF:28:31:78:6D:4C:C7:80:87:54:60
            X509v3 Authority Key Identifier: 
                keyid:EF:38:8D:14:50:58:A7:5B:4D:9C:17:72:FC:DF:B9:AC:A7:51:B0:10
                DirName:/C=US/ST=CA/L=SanFrancisco/O=Pixglo, Inc./OU=VPN-CIE/CN=tunnel.pixglo.com/name=Bala Chandrasekaran/emailAddress=bala@pixglo.com
                serial:A6:DB:C6:83:80:E6:A0:79

            X509v3 Extended Key Usage: 
                TLS Web Client Authentication
            X509v3 Key Usage: 
                Digital Signature
    Signature Algorithm: sha1WithRSAEncryption
         0d:65:cc:fd:8b:2e:c4:cc:df:fe:33:c2:4a:3b:c6:88:09:9a:
         5d:69:0f:96:43:fc:37:df:9a:51:f0:80:17:b0:9b:e5:db:90:
         bb:ee:76:dc:23:cd:3a:65:57:ca:d1:14:c7:62:0b:a8:79:c4:
         e3:90:1e:8c:c5:10:e1:cb:74:ff:03:9e:a7:ee:48:64:1a:8e:
         e0:4c:b7:93:a6:e2:aa:d8:0a:dd:7c:7f:f7:28:28:4b:67:98:
         ac:12:b9:e4:30:37:72:7c:30:3b:00:f6:64:b6:35:87:31:1b:
         63:29:bd:ef:0b:50:e8:35:78:14:fa:94:17:b7:c5:12:be:b4:
         18:6d:4d:be:6a:9a:25:4b:22:08:94:47:04:f7:bf:00:62:7a:
         33:85:96:32:ac:72:f7:69:ee:1e:23:08:98:fc:2f:5a:42:c4:
         73:6f:a5:b3:48:92:20:16:7c:97:45:38:6e:04:67:8a:4e:3b:
         6b:12:fb:62:cc:dd:c7:ab:6d:5c:ba:d3:28:0a:e7:ec:16:ee:
         5e:f4:30:e7:69:7b:26:b5:a5:62:aa:ba:ee:3a:51:19:2e:b4:
         70:c7:32:03:06:9a:50:9f:60:40:3f:99:3b:c1:d5:01:50:53:
         5f:25:9e:b1:33:32:05:68:2d:75:2c:11:05:f3:fa:a4:16:0e:
         32:9f:2c:83:55:79:44:07:b3:28:ba:cd:ca:e6:08:d3:78:c5:
         05:66:86:8c:35:36:9e:a0:b1:46:2e:55:b1:e4:45:cc:3d:d2:
         14:66:2f:23:d9:bf:bd:2d:19:09:4b:e2:33:f3:28:74:63:23:
         9a:39:a2:94:df:34:81:82:2d:3f:f1:6a:16:1e:91:1a:26:23:
         0b:31:ac:17:00:2a:b5:97:87:0d:68:e4:ce:a8:04:6f:7e:10:
         0b:fc:52:45:98:73:a9:4d:24:39:18:d6:f7:39:85:81:6d:98:
         67:07:0f:2a:68:92:02:9b:fb:9e:35:07:e0:ae:d0:c7:df:f0:
         64:2b:d5:eb:a9:60:83:3a:11:b2:81:e5:ce:95:b1:1f:63:2d:
         f6:72:0b:38:dc:58:13:f4:90:d3:9d:b1:52:0b:47:e8:87:dc:
         c7:e0:6b:9e:2a:e8:8f:78:23:c4:e8:14:87:8f:ea:25:60:0f:
         c0:97:11:f1:1e:35:c5:e2:4d:63:4e:54:c7:9f:50:39:46:85:
         b9:df:3f:3d:76:87:b5:db:f8:f0:d2:db:4e:15:e8:e3:59:18:
         54:8c:0f:b7:70:9d:d8:9d:fc:da:0c:5d:6d:51:a7:e1:72:15:
         9e:30:53:bc:a1:e7:a3:86:82:05:76:84:bc:af:80:98:12:b9:
         5e:e5:d1:aa:d3:c5:00:5d
-----BEGIN CERTIFICATE-----
MIIHSDCCBTCgAwIBAgICAu0wDQYJKoZIhvcNAQEFBQAwgbQxCzAJBgNVBAYTAlVT
MQswCQYDVQQIEwJDQTEVMBMGA1UEBxMMU2FuRnJhbmNpc2NvMRUwEwYDVQQKEwxQ
aXhnbG8sIEluYy4xEDAOBgNVBAsTB1ZQTi1DSUUxGjAYBgNVBAMTEXR1bm5lbC5w
aXhnbG8uY29tMRwwGgYDVQQpExNCYWxhIENoYW5kcmFzZWthcmFuMR4wHAYJKoZI
hvcNAQkBFg9iYWxhQHBpeGdsby5jb20wHhcNMTgwMjE0MDY0MjE3WhcNMjgwMjEy
MDY0MjE3WjCBqTELMAkGA1UEBhMCVVMxCzAJBgNVBAgTAkNBMRUwEwYDVQQHEwxT
YW5GcmFuY2lzY28xFTATBgNVBAoTDFBpeGdsbywgSW5jLjEQMA4GA1UECxMHVlBO
LUNJRTEPMA0GA1UEAxMGY2llNzQ4MRwwGgYDVQQpExNCYWxhIENoYW5kcmFzZWth
cmFuMR4wHAYJKoZIhvcNAQkBFg9iYWxhQHBpeGdsby5jb20wggIiMA0GCSqGSIb3
DQEBAQUAA4ICDwAwggIKAoICAQC/5oqWiYyk8HNALCh6Kbo6oCFeb93wx7SGWJR6
bOA1Onch1rOHbTz/n7aTY/nu2PCLbELhHSY6cUvr22Q7jpssAea+wyhHaY2O6KWw
0eFIS69HYGrqbA1p2q1sMXol0woY+htV3k9stX/YqhNfGmrRPdR8on5s69NXCfWv
CU1zng4x6KPubZ9udZzvb1DcBN8EqPAMkhViuyfuWKGYSpNCQde5le1ZFrjozbtn
vJptIGO42ayxwQFmPRkhS/7rJu5ouFhRDf/FtI4iTdwz56vqFbcKbaFBFczN3z8U
VsAIp0Cc3na9UNWlRayZq5Mga+sGsB548A4EGoqChdZwB3el319gwLEAZIeZT11G
AL/mQD/igUQJQ+UP4ml3NyqDf9kdKcT8B9ZKBkf+xBru+CvHPMHBh0wH+2ldDTSL
6Uc7ak3OoWUgxviQxeEAy+FXDLCeCxWwZ17ZPBYwPgagWR5xMQjlSmLXfHZm/tdc
kWz0cT8uPNPaPOtwWUXu6KDjyhypgX/07aZ+A4BrtpskqF29AeOWVq/EHvrv6l7/
sGZ3c4LqV4bf0UES6e6+bRoCM01j65H/NuLNlXPL/vvRBMGNuct8GXU5hU0EtKE1
f+k1/9pok93XkLMDqRlunqeLjNU49QnlbDLeoiLZ4750/D64KL13vPRshnbYwU9n
e/QmDwIDAQABo4IBazCCAWcwCQYDVR0TBAIwADAtBglghkgBhvhCAQ0EIBYeRWFz
eS1SU0EgR2VuZXJhdGVkIENlcnRpZmljYXRlMB0GA1UdDgQWBBSZr0hHuZVya9j/
KDF4bUzHgIdUYDCB6QYDVR0jBIHhMIHegBTvOI0UUFinW02cF3L837msp1GwEKGB
uqSBtzCBtDELMAkGA1UEBhMCVVMxCzAJBgNVBAgTAkNBMRUwEwYDVQQHEwxTYW5G
cmFuY2lzY28xFTATBgNVBAoTDFBpeGdsbywgSW5jLjEQMA4GA1UECxMHVlBOLUNJ
RTEaMBgGA1UEAxMRdHVubmVsLnBpeGdsby5jb20xHDAaBgNVBCkTE0JhbGEgQ2hh
bmRyYXNla2FyYW4xHjAcBgkqhkiG9w0BCQEWD2JhbGFAcGl4Z2xvLmNvbYIJAKbb
xoOA5qB5MBMGA1UdJQQMMAoGCCsGAQUFBwMCMAsGA1UdDwQEAwIHgDANBgkqhkiG
9w0BAQUFAAOCAgEADWXM/YsuxMzf/jPCSjvGiAmaXWkPlkP8N9+aUfCAF7Cb5duQ
u+523CPNOmVXytEUx2ILqHnE45AejMUQ4ct0/wOep+5IZBqO4Ey3k6biqtgK3Xx/
9ygoS2eYrBK55DA3cnwwOwD2ZLY1hzEbYym97wtQ6DV4FPqUF7fFEr60GG1Nvmqa
JUsiCJRHBPe/AGJ6M4WWMqxy92nuHiMImPwvWkLEc2+ls0iSIBZ8l0U4bgRnik47
axL7Yszdx6ttXLrTKArn7BbuXvQw52l7JrWlYqq67jpRGS60cMcyAwaaUJ9gQD+Z
O8HVAVBTXyWesTMyBWgtdSwRBfP6pBYOMp8sg1V5RAezKLrNyuYI03jFBWaGjDU2
nqCxRi5VseRFzD3SFGYvI9m/vS0ZCUviM/ModGMjmjmilN80gYItP/FqFh6RGiYj
CzGsFwAqtZeHDWjkzqgEb34QC/xSRZhzqU0kORjW9zmFgW2YZwcPKmiSApv7njUH
4K7Qx9/wZCvV66lggzoRsoHlzpWxH2Mt9nILONxYE/SQ052xUgtH6Ifcx+Brniro
j3gjxOgUh4/qJWAPwJcR8R41xeJNY05Ux59QOUaFud8/PXaHtdv48NLbThXo41kY
VIwPt3Cd2J382gxdbVGn4XIVnjBTvKHno4aCBXaEvK+AmBK5XuXRqtPFAF0=
-----END CERTIFICATE-----
