Certificate:
    Data:
        Version: 3 (0x2)
        Serial Number: 753 (0x2f1)
    Signature Algorithm: sha1WithRSAEncryption
        Issuer: C=US, ST=CA, L=SanFrancisco, O=Pixglo, Inc., OU=VPN-CIE, CN=tunnel.pixglo.com/name=Bala Chandrasekaran/emailAddress=bala@pixglo.com
        Validity
            Not Before: Feb 14 06:42:26 2018 GMT
            Not After : Feb 12 06:42:26 2028 GMT
        Subject: C=US, ST=CA, L=SanFrancisco, O=Pixglo, Inc., OU=VPN-CIE, CN=cie752/name=Bala Chandrasekaran/emailAddress=bala@pixglo.com
        Subject Public Key Info:
            Public Key Algorithm: rsaEncryption
                Public-Key: (4096 bit)
                Modulus:
                    00:f3:14:3f:61:ec:ff:79:8d:af:79:f9:be:8d:cb:
                    b0:4d:63:cb:ca:4a:5f:fc:49:3d:ad:53:9a:cc:d7:
                    62:9d:f4:c9:89:a7:67:69:b7:22:c5:0d:57:9a:0c:
                    05:c4:52:0e:d5:61:38:37:89:3b:74:67:53:33:71:
                    00:c4:58:a3:b8:2b:26:4b:9c:c4:33:06:e3:ee:88:
                    4c:e6:bb:3a:71:4a:a8:2a:a8:a9:0c:82:f8:2c:db:
                    67:67:0b:51:0c:ec:ba:31:bb:db:1f:2e:93:7a:c0:
                    79:06:1d:e1:ee:98:87:d7:a6:a7:eb:26:a4:ba:6a:
                    f4:71:cc:51:51:a4:b7:bc:b9:1b:e6:57:ef:22:9c:
                    66:c4:04:66:11:49:66:dd:f9:f2:12:0c:4c:ec:e3:
                    9f:80:62:64:0b:f2:5b:54:6d:cb:32:34:29:7a:25:
                    c3:8f:ae:90:8a:3c:4c:40:b2:90:8c:18:b0:c9:95:
                    55:1f:90:74:54:9f:76:38:bf:f1:41:f8:98:1b:36:
                    7e:9a:f6:76:64:b9:7d:b0:6d:5f:c4:04:b0:af:ac:
                    f1:ca:27:3c:fd:8f:61:7b:c6:83:d5:b2:0c:d1:43:
                    eb:fa:94:ab:bd:86:8a:f2:ee:a3:22:9a:06:54:9b:
                    79:23:17:85:47:2c:ff:3f:84:16:1e:45:f1:ac:ae:
                    c2:d2:18:26:e6:73:22:8b:5e:f1:21:e4:0f:7f:65:
                    d8:21:ab:f7:e7:5c:aa:ba:0b:d3:58:fe:20:fa:33:
                    63:9a:73:20:2c:b7:86:cc:ed:14:53:1a:5e:47:cb:
                    70:14:96:ec:47:7f:4e:22:10:71:00:07:b7:be:6d:
                    44:e4:36:03:47:68:74:2a:74:ee:6f:59:f7:f6:3d:
                    3c:36:91:3a:72:43:be:75:3a:17:b1:06:7b:49:de:
                    af:bb:5d:94:a0:d2:b0:56:6f:d6:71:2a:2d:87:af:
                    e4:8d:96:b4:d3:1e:d2:25:68:a2:62:92:85:75:88:
                    98:9f:90:98:87:fc:92:f2:cb:53:6c:b5:bc:3f:c9:
                    07:d6:dd:2b:1c:47:72:76:af:74:e3:56:d9:d0:22:
                    55:4a:1b:5e:a6:d3:6c:03:fc:df:b0:ac:6c:0c:07:
                    c1:ab:ef:4a:f1:00:73:f0:d2:01:2d:dc:c3:87:d1:
                    eb:c3:5c:ce:56:6c:80:20:41:e5:19:4c:c8:fe:08:
                    c6:e6:d8:d7:7b:ba:3f:f6:3c:04:56:99:65:50:34:
                    19:4e:4f:cb:0d:32:30:94:99:bc:83:0c:e4:52:6f:
                    60:33:81:3d:0d:5e:ae:22:68:f4:06:6d:71:a3:85:
                    8b:22:f1:78:3c:d4:13:57:36:ad:35:d3:39:98:97:
                    b1:99:b1
                Exponent: 65537 (0x10001)
        X509v3 extensions:
            X509v3 Basic Constraints: 
                CA:FALSE
            Netscape Comment: 
                Easy-RSA Generated Certificate
            X509v3 Subject Key Identifier: 
                DE:78:C4:93:20:C5:97:66:D5:CF:BC:C5:84:24:8B:1D:FB:42:FE:AA
            X509v3 Authority Key Identifier: 
                keyid:EF:38:8D:14:50:58:A7:5B:4D:9C:17:72:FC:DF:B9:AC:A7:51:B0:10
                DirName:/C=US/ST=CA/L=SanFrancisco/O=Pixglo, Inc./OU=VPN-CIE/CN=tunnel.pixglo.com/name=Bala Chandrasekaran/emailAddress=bala@pixglo.com
                serial:A6:DB:C6:83:80:E6:A0:79

            X509v3 Extended Key Usage: 
                TLS Web Client Authentication
            X509v3 Key Usage: 
                Digital Signature
    Signature Algorithm: sha1WithRSAEncryption
         11:77:08:5c:16:fb:48:4c:e6:05:37:2e:75:a7:97:aa:6e:f9:
         11:db:fe:0a:2a:9b:3e:77:75:cc:ac:b0:c3:12:7f:f6:8c:0c:
         74:a3:63:e6:59:67:56:d2:68:4f:3e:71:ee:00:f4:48:22:e6:
         f0:8c:4d:9b:a1:8a:f3:8e:7b:a6:2e:e4:cc:30:d8:02:66:38:
         4d:8d:82:45:9f:cc:08:55:de:21:96:88:6f:34:b4:00:e5:b0:
         e1:15:0f:ee:f0:05:1d:b7:be:44:b7:81:d5:8e:86:b2:9e:13:
         1d:48:d3:21:cc:23:4e:aa:18:ff:d0:f6:93:59:f0:c4:b3:72:
         f4:38:75:6a:2e:bf:88:52:a1:8c:7b:b6:50:37:c0:03:44:6c:
         40:2f:7d:a1:b7:9d:ca:f3:5d:f5:b1:fc:e1:29:7b:61:0e:a5:
         04:20:17:f3:24:b8:68:2f:dc:b0:f5:19:80:d6:b3:39:52:ce:
         ba:c1:c2:79:3d:1c:cd:2a:dd:95:37:31:d4:cd:97:8a:7f:40:
         ca:f5:52:e5:83:fd:8f:31:3e:da:cc:db:d9:ad:03:67:b2:5f:
         63:20:07:6d:34:9a:15:88:a3:a3:c7:cc:1f:8e:6e:58:5d:a5:
         03:9e:46:32:a4:88:dd:c5:94:bd:06:9f:4c:48:9b:b9:a3:a4:
         ee:29:8b:ec:7c:8c:ea:5e:f0:eb:1b:93:9f:86:a7:ff:8a:9f:
         d7:ea:99:5f:e5:52:4c:c8:6d:74:a3:ba:5f:33:a0:03:c6:a6:
         d2:fa:30:e5:18:18:16:03:c7:c2:61:cd:30:91:a0:a9:ba:18:
         61:55:29:e8:27:8e:f7:a3:4d:f8:37:0b:a6:f1:4a:c0:97:8f:
         2f:fd:8d:7b:ec:c1:05:c9:2f:c2:fd:e4:82:e9:bd:55:58:6d:
         3f:95:fc:42:55:43:0e:23:d6:53:2c:80:7e:61:16:31:30:37:
         b5:8e:65:29:4e:7f:73:1a:03:d2:99:2e:2f:35:41:c1:c0:b0:
         32:96:e7:8e:04:ed:7c:4c:24:22:f8:6d:95:6d:d9:34:2b:95:
         5e:10:27:c1:86:ab:00:e4:45:3f:54:28:93:87:db:86:1f:1c:
         67:34:12:36:ef:fe:7a:ee:db:55:de:ce:98:a7:9c:4f:f9:65:
         9a:80:d2:7f:97:83:f8:c7:15:ba:37:30:f7:f8:20:e9:cf:3b:
         90:89:41:ec:bb:81:ea:11:e3:ab:24:e1:38:60:61:35:c0:4e:
         58:19:d4:27:f5:e3:b4:b2:39:01:9f:3d:56:1e:a3:8d:10:b2:
         57:4c:85:ba:76:cb:9b:02:85:71:79:dc:38:40:63:63:97:0d:
         1f:31:52:34:19:20:3e:93
-----BEGIN CERTIFICATE-----
MIIHSDCCBTCgAwIBAgICAvEwDQYJKoZIhvcNAQEFBQAwgbQxCzAJBgNVBAYTAlVT
MQswCQYDVQQIEwJDQTEVMBMGA1UEBxMMU2FuRnJhbmNpc2NvMRUwEwYDVQQKEwxQ
aXhnbG8sIEluYy4xEDAOBgNVBAsTB1ZQTi1DSUUxGjAYBgNVBAMTEXR1bm5lbC5w
aXhnbG8uY29tMRwwGgYDVQQpExNCYWxhIENoYW5kcmFzZWthcmFuMR4wHAYJKoZI
hvcNAQkBFg9iYWxhQHBpeGdsby5jb20wHhcNMTgwMjE0MDY0MjI2WhcNMjgwMjEy
MDY0MjI2WjCBqTELMAkGA1UEBhMCVVMxCzAJBgNVBAgTAkNBMRUwEwYDVQQHEwxT
YW5GcmFuY2lzY28xFTATBgNVBAoTDFBpeGdsbywgSW5jLjEQMA4GA1UECxMHVlBO
LUNJRTEPMA0GA1UEAxMGY2llNzUyMRwwGgYDVQQpExNCYWxhIENoYW5kcmFzZWth
cmFuMR4wHAYJKoZIhvcNAQkBFg9iYWxhQHBpeGdsby5jb20wggIiMA0GCSqGSIb3
DQEBAQUAA4ICDwAwggIKAoICAQDzFD9h7P95ja95+b6Ny7BNY8vKSl/8ST2tU5rM
12Kd9MmJp2dptyLFDVeaDAXEUg7VYTg3iTt0Z1MzcQDEWKO4KyZLnMQzBuPuiEzm
uzpxSqgqqKkMgvgs22dnC1EM7Loxu9sfLpN6wHkGHeHumIfXpqfrJqS6avRxzFFR
pLe8uRvmV+8inGbEBGYRSWbd+fISDEzs45+AYmQL8ltUbcsyNCl6JcOPrpCKPExA
spCMGLDJlVUfkHRUn3Y4v/FB+JgbNn6a9nZkuX2wbV/EBLCvrPHKJzz9j2F7xoPV
sgzRQ+v6lKu9hory7qMimgZUm3kjF4VHLP8/hBYeRfGsrsLSGCbmcyKLXvEh5A9/
Zdghq/fnXKq6C9NY/iD6M2OacyAst4bM7RRTGl5Hy3AUluxHf04iEHEAB7e+bUTk
NgNHaHQqdO5vWff2PTw2kTpyQ751OhexBntJ3q+7XZSg0rBWb9ZxKi2Hr+SNlrTT
HtIlaKJikoV1iJifkJiH/JLyy1Nstbw/yQfW3SscR3J2r3TjVtnQIlVKG16m02wD
/N+wrGwMB8Gr70rxAHPw0gEt3MOH0evDXM5WbIAgQeUZTMj+CMbm2Nd7uj/2PARW
mWVQNBlOT8sNMjCUmbyDDORSb2AzgT0NXq4iaPQGbXGjhYsi8Xg81BNXNq010zmY
l7GZsQIDAQABo4IBazCCAWcwCQYDVR0TBAIwADAtBglghkgBhvhCAQ0EIBYeRWFz
eS1SU0EgR2VuZXJhdGVkIENlcnRpZmljYXRlMB0GA1UdDgQWBBTeeMSTIMWXZtXP
vMWEJIsd+0L+qjCB6QYDVR0jBIHhMIHegBTvOI0UUFinW02cF3L837msp1GwEKGB
uqSBtzCBtDELMAkGA1UEBhMCVVMxCzAJBgNVBAgTAkNBMRUwEwYDVQQHEwxTYW5G
cmFuY2lzY28xFTATBgNVBAoTDFBpeGdsbywgSW5jLjEQMA4GA1UECxMHVlBOLUNJ
RTEaMBgGA1UEAxMRdHVubmVsLnBpeGdsby5jb20xHDAaBgNVBCkTE0JhbGEgQ2hh
bmRyYXNla2FyYW4xHjAcBgkqhkiG9w0BCQEWD2JhbGFAcGl4Z2xvLmNvbYIJAKbb
xoOA5qB5MBMGA1UdJQQMMAoGCCsGAQUFBwMCMAsGA1UdDwQEAwIHgDANBgkqhkiG
9w0BAQUFAAOCAgEAEXcIXBb7SEzmBTcudaeXqm75Edv+CiqbPnd1zKywwxJ/9owM
dKNj5llnVtJoTz5x7gD0SCLm8IxNm6GK8457pi7kzDDYAmY4TY2CRZ/MCFXeIZaI
bzS0AOWw4RUP7vAFHbe+RLeB1Y6Gsp4THUjTIcwjTqoY/9D2k1nwxLNy9Dh1ai6/
iFKhjHu2UDfAA0RsQC99obedyvNd9bH84Sl7YQ6lBCAX8yS4aC/csPUZgNazOVLO
usHCeT0czSrdlTcx1M2Xin9AyvVS5YP9jzE+2szb2a0DZ7JfYyAHbTSaFYijo8fM
H45uWF2lA55GMqSI3cWUvQafTEibuaOk7imL7HyM6l7w6xuTn4an/4qf1+qZX+VS
TMhtdKO6XzOgA8am0vow5RgYFgPHwmHNMJGgqboYYVUp6CeO96NN+DcLpvFKwJeP
L/2Ne+zBBckvwv3kgum9VVhtP5X8QlVDDiPWUyyAfmEWMTA3tY5lKU5/cxoD0pku
LzVBwcCwMpbnjgTtfEwkIvhtlW3ZNCuVXhAnwYarAORFP1Qok4fbhh8cZzQSNu/+
eu7bVd7OmKecT/llmoDSf5eD+McVujcw9/gg6c87kIlB7LuB6hHjqyThOGBhNcBO
WBnUJ/XjtLI5AZ89Vh6jjRCyV0yFunbLmwKFcXncOEBjY5cNHzFSNBkgPpM=
-----END CERTIFICATE-----
