Certificate:
    Data:
        Version: 3 (0x2)
        Serial Number: 754 (0x2f2)
    Signature Algorithm: sha1WithRSAEncryption
        Issuer: C=US, ST=CA, L=SanFrancisco, O=Pixglo, Inc., OU=VPN-CIE, CN=tunnel.pixglo.com/name=Bala Chandrasekaran/emailAddress=bala@pixglo.com
        Validity
            Not Before: Feb 14 06:42:26 2018 GMT
            Not After : Feb 12 06:42:26 2028 GMT
        Subject: C=US, ST=CA, L=SanFrancisco, O=Pixglo, Inc., OU=VPN-CIE, CN=cie753/name=Bala Chandrasekaran/emailAddress=bala@pixglo.com
        Subject Public Key Info:
            Public Key Algorithm: rsaEncryption
                Public-Key: (4096 bit)
                Modulus:
                    00:e7:6e:78:11:5c:41:f5:51:1a:37:ba:9d:bb:de:
                    cc:7f:3b:d9:82:12:96:ac:1e:7c:43:d3:97:0b:fd:
                    d2:51:9a:7b:7c:b6:ea:9f:b9:09:bc:67:a5:47:fb:
                    e5:89:af:9e:e3:31:c7:0c:85:44:8a:4e:f9:08:e6:
                    fa:cf:c6:7d:9f:a2:1f:1a:24:b0:e9:f9:a6:53:26:
                    80:cc:c7:b0:b6:96:23:26:56:76:19:d6:46:ad:1b:
                    52:44:15:b8:a5:7d:c1:73:b6:73:2c:77:c8:7d:09:
                    96:d4:f5:08:53:b6:f2:8d:6e:4f:bb:7c:ee:bc:a0:
                    f7:83:d6:fc:0e:93:e2:6b:9d:62:37:83:16:bd:18:
                    8c:5a:90:76:7b:35:af:1d:2c:d6:19:96:df:37:6c:
                    f1:5d:da:86:d6:85:d4:7f:9f:9a:97:28:64:c4:79:
                    cc:3d:40:ce:61:00:b7:0d:bd:91:ad:57:2f:2b:aa:
                    06:c1:b2:a4:75:6f:97:8a:6a:ef:56:7e:98:7c:6d:
                    0d:e2:b2:b1:a8:de:16:1c:10:d2:71:4f:81:cc:44:
                    94:8f:ca:53:39:94:85:17:ef:be:f8:60:48:8e:57:
                    dc:ec:e1:ae:a2:de:f4:42:ca:f2:dd:77:bf:de:60:
                    ee:15:0b:91:74:74:3e:53:4f:39:e6:4b:43:cc:b8:
                    a6:c8:07:8a:5a:f0:98:f4:f7:40:94:77:1a:6f:cb:
                    59:1c:28:3d:db:a7:e4:0f:e1:df:66:35:25:3e:62:
                    73:47:ee:d8:97:f9:2b:17:53:0d:45:bf:d2:78:37:
                    fe:44:c4:cd:2f:53:62:39:ea:c4:92:e3:1b:89:2c:
                    3d:5e:9b:17:e6:7c:8d:bf:07:e9:18:42:0c:1d:c0:
                    72:fd:0f:32:68:35:b4:22:23:f4:a3:c2:80:c5:12:
                    6d:29:ba:8a:3f:88:94:72:22:bd:36:a1:3f:66:46:
                    08:65:81:2e:33:9f:b2:d0:2b:f1:47:7e:85:05:82:
                    ae:93:d5:4b:a4:25:12:0a:0c:94:24:50:94:4b:f2:
                    b4:81:ef:7d:ca:46:8f:e6:46:53:8c:bb:23:12:b1:
                    d4:51:84:95:3f:f0:61:82:5d:84:a1:59:88:cd:15:
                    f8:85:80:77:e1:c1:0d:cf:55:60:d7:e4:52:ea:02:
                    3c:b4:76:91:96:69:25:3d:79:e8:d8:15:68:56:76:
                    de:c1:62:ab:3c:28:df:b6:30:84:85:5d:a5:6c:5f:
                    fe:dc:93:32:81:dc:d8:fe:eb:f5:25:8c:a3:2d:93:
                    3c:34:9b:26:bd:26:20:85:b8:61:5f:00:93:0b:2e:
                    41:b2:91:0c:38:21:2f:82:6e:bf:e4:7f:be:f0:b3:
                    e8:16:63
                Exponent: 65537 (0x10001)
        X509v3 extensions:
            X509v3 Basic Constraints: 
                CA:FALSE
            Netscape Comment: 
                Easy-RSA Generated Certificate
            X509v3 Subject Key Identifier: 
                A8:DC:4A:CD:DC:5A:2F:0A:81:F3:30:28:89:14:40:1A:0A:45:41:23
            X509v3 Authority Key Identifier: 
                keyid:EF:38:8D:14:50:58:A7:5B:4D:9C:17:72:FC:DF:B9:AC:A7:51:B0:10
                DirName:/C=US/ST=CA/L=SanFrancisco/O=Pixglo, Inc./OU=VPN-CIE/CN=tunnel.pixglo.com/name=Bala Chandrasekaran/emailAddress=bala@pixglo.com
                serial:A6:DB:C6:83:80:E6:A0:79

            X509v3 Extended Key Usage: 
                TLS Web Client Authentication
            X509v3 Key Usage: 
                Digital Signature
    Signature Algorithm: sha1WithRSAEncryption
         be:71:6f:38:5a:a2:4f:ce:ea:e8:c3:80:0c:06:13:4c:de:aa:
         6a:69:1a:10:a9:ab:ed:d2:ef:c2:76:99:62:63:5e:ba:ed:17:
         62:0f:61:a6:c5:1e:fe:a4:a5:e5:f1:5f:a9:04:e5:c1:0a:7c:
         a9:26:1e:e3:54:d1:aa:36:25:ab:7b:67:56:de:1d:f9:97:46:
         17:5e:ae:fb:52:9c:93:4f:2d:a4:96:53:90:da:c0:8a:81:d1:
         bf:6e:14:27:9e:a0:e5:c1:97:8f:99:d9:76:43:07:8e:f5:e5:
         d8:9b:40:72:d8:6b:5b:cc:8d:44:01:d1:e9:13:5e:ec:68:c6:
         24:1d:11:a4:84:8f:4e:12:ad:a6:54:c7:88:4d:ba:b9:3a:87:
         f4:67:58:0a:c5:0b:7c:54:61:ee:64:5d:64:ae:cb:e6:34:6f:
         91:f7:60:f2:34:0c:4c:59:81:b6:cd:50:19:c9:d3:85:86:0a:
         61:72:e8:02:cd:4b:65:7d:6b:a0:e3:e8:97:bb:13:75:a1:4d:
         ed:3a:59:a6:7e:98:6a:4f:b6:04:9b:d6:bd:72:e7:2a:78:b4:
         0b:6d:b4:07:ae:9c:40:a0:08:18:57:16:6a:05:30:10:1d:16:
         a0:69:9b:2b:c4:43:7d:8c:07:b2:74:cc:ba:69:0a:ad:2d:9b:
         14:e7:88:9b:57:c5:81:61:a0:43:1b:df:c9:86:59:52:20:e7:
         f8:13:08:d5:46:d7:72:fe:3c:43:5b:19:d3:d9:7d:5b:17:fa:
         34:f3:57:21:7d:81:ed:90:59:02:ae:ce:56:1e:c2:0b:9b:f5:
         c9:45:d5:5a:e7:09:79:14:f4:af:32:7c:d6:c8:c4:ee:03:7c:
         7c:20:94:b6:8a:74:90:84:55:d3:a0:21:66:05:66:0d:c8:76:
         b6:e5:95:8c:12:09:bf:98:4e:f5:91:cb:17:65:99:54:79:69:
         a3:92:ae:48:bf:94:07:cc:33:d9:da:b3:13:df:6a:a1:f6:cd:
         0c:a7:90:cf:a8:ac:5a:df:a7:b5:96:81:f3:c3:9b:92:24:cc:
         a4:27:1d:52:56:0b:fd:9d:70:88:7b:54:ca:3c:3d:4a:8f:a4:
         74:60:08:a9:c7:b0:ce:6c:37:d3:73:b7:6e:5d:7e:e3:30:97:
         86:34:b8:3b:30:a9:14:07:fb:a6:67:f5:8f:72:54:69:c1:44:
         9b:6c:84:10:88:cf:51:8f:84:59:dc:17:52:c2:b6:81:48:48:
         47:84:7b:37:f5:eb:7f:98:5d:85:5f:d8:8b:ac:ec:02:f7:37:
         dd:a4:03:72:ec:19:10:ae:05:5d:f5:09:3f:2a:62:34:ef:2b:
         10:61:0a:25:aa:70:1b:6c
-----BEGIN CERTIFICATE-----
MIIHSDCCBTCgAwIBAgICAvIwDQYJKoZIhvcNAQEFBQAwgbQxCzAJBgNVBAYTAlVT
MQswCQYDVQQIEwJDQTEVMBMGA1UEBxMMU2FuRnJhbmNpc2NvMRUwEwYDVQQKEwxQ
aXhnbG8sIEluYy4xEDAOBgNVBAsTB1ZQTi1DSUUxGjAYBgNVBAMTEXR1bm5lbC5w
aXhnbG8uY29tMRwwGgYDVQQpExNCYWxhIENoYW5kcmFzZWthcmFuMR4wHAYJKoZI
hvcNAQkBFg9iYWxhQHBpeGdsby5jb20wHhcNMTgwMjE0MDY0MjI2WhcNMjgwMjEy
MDY0MjI2WjCBqTELMAkGA1UEBhMCVVMxCzAJBgNVBAgTAkNBMRUwEwYDVQQHEwxT
YW5GcmFuY2lzY28xFTATBgNVBAoTDFBpeGdsbywgSW5jLjEQMA4GA1UECxMHVlBO
LUNJRTEPMA0GA1UEAxMGY2llNzUzMRwwGgYDVQQpExNCYWxhIENoYW5kcmFzZWth
cmFuMR4wHAYJKoZIhvcNAQkBFg9iYWxhQHBpeGdsby5jb20wggIiMA0GCSqGSIb3
DQEBAQUAA4ICDwAwggIKAoICAQDnbngRXEH1URo3up273sx/O9mCEpasHnxD05cL
/dJRmnt8tuqfuQm8Z6VH++WJr57jMccMhUSKTvkI5vrPxn2foh8aJLDp+aZTJoDM
x7C2liMmVnYZ1katG1JEFbilfcFztnMsd8h9CZbU9QhTtvKNbk+7fO68oPeD1vwO
k+JrnWI3gxa9GIxakHZ7Na8dLNYZlt83bPFd2obWhdR/n5qXKGTEecw9QM5hALcN
vZGtVy8rqgbBsqR1b5eKau9Wfph8bQ3isrGo3hYcENJxT4HMRJSPylM5lIUX7774
YEiOV9zs4a6i3vRCyvLdd7/eYO4VC5F0dD5TTznmS0PMuKbIB4pa8Jj090CUdxpv
y1kcKD3bp+QP4d9mNSU+YnNH7tiX+SsXUw1Fv9J4N/5ExM0vU2I56sSS4xuJLD1e
mxfmfI2/B+kYQgwdwHL9DzJoNbQiI/SjwoDFEm0puoo/iJRyIr02oT9mRghlgS4z
n7LQK/FHfoUFgq6T1UukJRIKDJQkUJRL8rSB733KRo/mRlOMuyMSsdRRhJU/8GGC
XYShWYjNFfiFgHfhwQ3PVWDX5FLqAjy0dpGWaSU9eejYFWhWdt7BYqs8KN+2MISF
XaVsX/7ckzKB3Nj+6/UljKMtkzw0mya9JiCFuGFfAJMLLkGykQw4IS+Cbr/kf77w
s+gWYwIDAQABo4IBazCCAWcwCQYDVR0TBAIwADAtBglghkgBhvhCAQ0EIBYeRWFz
eS1SU0EgR2VuZXJhdGVkIENlcnRpZmljYXRlMB0GA1UdDgQWBBSo3ErN3FovCoHz
MCiJFEAaCkVBIzCB6QYDVR0jBIHhMIHegBTvOI0UUFinW02cF3L837msp1GwEKGB
uqSBtzCBtDELMAkGA1UEBhMCVVMxCzAJBgNVBAgTAkNBMRUwEwYDVQQHEwxTYW5G
cmFuY2lzY28xFTATBgNVBAoTDFBpeGdsbywgSW5jLjEQMA4GA1UECxMHVlBOLUNJ
RTEaMBgGA1UEAxMRdHVubmVsLnBpeGdsby5jb20xHDAaBgNVBCkTE0JhbGEgQ2hh
bmRyYXNla2FyYW4xHjAcBgkqhkiG9w0BCQEWD2JhbGFAcGl4Z2xvLmNvbYIJAKbb
xoOA5qB5MBMGA1UdJQQMMAoGCCsGAQUFBwMCMAsGA1UdDwQEAwIHgDANBgkqhkiG
9w0BAQUFAAOCAgEAvnFvOFqiT87q6MOADAYTTN6qamkaEKmr7dLvwnaZYmNeuu0X
Yg9hpsUe/qSl5fFfqQTlwQp8qSYe41TRqjYlq3tnVt4d+ZdGF16u+1Kck08tpJZT
kNrAioHRv24UJ56g5cGXj5nZdkMHjvXl2JtActhrW8yNRAHR6RNe7GjGJB0RpISP
ThKtplTHiE26uTqH9GdYCsULfFRh7mRdZK7L5jRvkfdg8jQMTFmBts1QGcnThYYK
YXLoAs1LZX1roOPol7sTdaFN7TpZpn6Yak+2BJvWvXLnKni0C220B66cQKAIGFcW
agUwEB0WoGmbK8RDfYwHsnTMumkKrS2bFOeIm1fFgWGgQxvfyYZZUiDn+BMI1UbX
cv48Q1sZ09l9Wxf6NPNXIX2B7ZBZAq7OVh7CC5v1yUXVWucJeRT0rzJ81sjE7gN8
fCCUtop0kIRV06AhZgVmDch2tuWVjBIJv5hO9ZHLF2WZVHlpo5KuSL+UB8wz2dqz
E99qofbNDKeQz6isWt+ntZaB88ObkiTMpCcdUlYL/Z1wiHtUyjw9So+kdGAIqcew
zmw303O3bl1+4zCXhjS4OzCpFAf7pmf1j3JUacFEm2yEEIjPUY+EWdwXUsK2gUhI
R4R7N/Xrf5hdhV/Yi6zsAvc33aQDcuwZEK4FXfUJPypiNO8rEGEKJapwG2w=
-----END CERTIFICATE-----
