Certificate:
    Data:
        Version: 3 (0x2)
        Serial Number: 755 (0x2f3)
    Signature Algorithm: sha1WithRSAEncryption
        Issuer: C=US, ST=CA, L=SanFrancisco, O=Pixglo, Inc., OU=VPN-CIE, CN=tunnel.pixglo.com/name=Bala Chandrasekaran/emailAddress=bala@pixglo.com
        Validity
            Not Before: Feb 14 06:42:27 2018 GMT
            Not After : Feb 12 06:42:27 2028 GMT
        Subject: C=US, ST=CA, L=SanFrancisco, O=Pixglo, Inc., OU=VPN-CIE, CN=cie754/name=Bala Chandrasekaran/emailAddress=bala@pixglo.com
        Subject Public Key Info:
            Public Key Algorithm: rsaEncryption
                Public-Key: (4096 bit)
                Modulus:
                    00:e6:bc:cf:cc:9e:e3:06:ed:fa:e5:b8:c1:11:4a:
                    6a:fd:b4:dc:83:28:14:38:9a:cb:bc:88:3e:24:a3:
                    26:54:ea:4d:85:c4:3a:db:49:a5:86:c9:d4:07:83:
                    14:12:b4:75:f2:53:b6:c0:9f:ac:3d:af:bc:80:09:
                    49:36:34:91:b1:67:04:df:f4:b0:99:2d:ab:8e:1f:
                    91:f6:5d:0d:bf:e0:32:d3:ab:b3:3d:3b:b4:75:01:
                    55:3c:27:8f:f1:d3:9d:e6:b4:77:11:90:09:bb:f5:
                    9f:64:1e:9e:d6:14:63:91:81:64:a3:02:f8:df:63:
                    84:f1:d8:54:97:02:b0:2b:7f:d9:c6:65:46:6f:28:
                    48:90:9a:1b:06:62:83:c7:47:05:99:a4:b2:3b:64:
                    33:66:a0:74:53:f0:31:a8:1d:2d:30:8a:f2:7b:50:
                    d0:61:87:52:84:a6:b4:6a:4d:d2:3c:25:e0:2e:7f:
                    b4:b2:80:f0:c4:56:9a:9d:b4:1b:18:14:ff:f4:2d:
                    d0:9b:8d:47:70:b7:5b:4f:cd:d8:e2:31:bf:78:e3:
                    32:9b:39:31:f7:c8:17:ed:ac:14:70:3a:74:f5:0e:
                    30:56:d9:3f:c9:86:4d:ac:e0:bd:ab:45:f4:81:6c:
                    b6:ce:f3:8f:1a:11:80:4b:33:5e:ad:f9:a1:9b:c3:
                    e0:d9:02:d9:10:eb:ed:11:0d:9d:1b:cc:0b:9c:af:
                    b7:a4:91:9a:63:c1:d4:93:cc:89:6b:5e:dc:75:07:
                    49:15:a2:43:a0:98:d9:3b:7d:e7:ae:eb:97:8f:b6:
                    a9:32:e9:d7:2c:6b:7c:eb:a0:79:a2:92:00:a3:8e:
                    73:4b:d8:c8:0e:3e:aa:b7:08:da:58:6e:0d:5a:16:
                    14:f7:ad:dc:84:16:67:2a:a1:e4:57:e0:d7:08:8a:
                    be:d5:69:3e:cb:d6:bc:d7:11:21:1c:2f:34:e5:88:
                    60:5e:3a:ed:49:f7:1e:d8:d3:e8:11:79:ea:a3:a0:
                    10:03:91:7f:7e:43:e4:94:8f:8a:73:b0:4f:57:00:
                    29:6e:82:ef:e7:7a:2a:02:e0:40:ae:12:8a:3f:e8:
                    5f:2f:18:3f:c0:59:03:09:1e:c6:fe:77:2a:3d:9b:
                    c3:bd:7a:9b:1e:0a:d6:a1:82:ce:70:56:ec:90:d0:
                    75:83:40:a6:76:ae:8c:e8:95:6f:70:ef:e7:4f:26:
                    8a:ac:04:8a:09:e4:da:12:d7:88:c6:71:1e:e7:b4:
                    d0:a4:73:d0:a6:7b:ce:e8:30:c0:1a:e1:70:1c:2e:
                    15:df:34:c3:23:5c:bb:ac:c0:a6:9d:d0:40:63:2b:
                    0f:94:cc:f3:ce:73:6a:bc:09:ba:22:66:95:7b:27:
                    ed:ca:03
                Exponent: 65537 (0x10001)
        X509v3 extensions:
            X509v3 Basic Constraints: 
                CA:FALSE
            Netscape Comment: 
                Easy-RSA Generated Certificate
            X509v3 Subject Key Identifier: 
                FD:47:E8:D6:9E:3E:AF:C0:58:13:19:0B:37:79:D6:4F:0D:D6:84:B8
            X509v3 Authority Key Identifier: 
                keyid:EF:38:8D:14:50:58:A7:5B:4D:9C:17:72:FC:DF:B9:AC:A7:51:B0:10
                DirName:/C=US/ST=CA/L=SanFrancisco/O=Pixglo, Inc./OU=VPN-CIE/CN=tunnel.pixglo.com/name=Bala Chandrasekaran/emailAddress=bala@pixglo.com
                serial:A6:DB:C6:83:80:E6:A0:79

            X509v3 Extended Key Usage: 
                TLS Web Client Authentication
            X509v3 Key Usage: 
                Digital Signature
    Signature Algorithm: sha1WithRSAEncryption
         6e:5b:fa:6b:79:75:e5:6f:bd:6f:74:03:6c:db:0d:e4:7b:46:
         71:94:5d:bd:bb:15:d3:73:57:88:a1:a7:1b:20:e3:65:2e:ed:
         8e:6e:05:34:27:f4:cd:b0:f5:29:ac:0b:dc:b7:fe:54:c6:95:
         95:06:02:02:b8:5a:0e:a6:df:71:ab:43:89:1f:88:d7:2d:f0:
         28:d3:23:98:19:c3:93:75:5a:01:94:59:4d:61:e3:61:d2:8e:
         2d:b4:6a:f2:de:96:ab:7c:84:e4:b3:ee:36:7b:bc:60:a9:bf:
         fd:18:be:d4:39:d0:8b:ab:ba:4a:46:44:74:57:a5:61:9d:1a:
         b8:01:86:0f:f1:a1:49:78:c8:bd:c1:dd:14:94:0e:2a:e9:bb:
         a6:93:73:f2:6b:04:ad:60:22:62:8c:24:f9:55:12:ca:0a:15:
         d8:50:61:d3:78:88:bf:16:bf:13:e5:34:6f:01:f1:b4:18:cb:
         95:2f:80:ba:6c:57:8b:01:fc:5e:49:b4:cc:da:fb:ca:3e:b3:
         37:6f:39:e7:90:8a:b0:78:70:60:86:ab:80:51:e5:ae:d0:1b:
         7b:3d:08:9f:fe:0c:c1:e5:8c:68:3e:4d:dc:23:3f:a2:53:c4:
         22:df:bf:15:0c:79:f2:c6:d3:4f:eb:4d:0b:4b:56:20:d1:b8:
         86:38:32:45:31:0b:2d:2e:55:48:c0:16:2f:a6:d9:68:66:f0:
         5d:34:2d:2d:56:87:c6:4e:8f:7d:90:63:69:34:fb:2d:ce:3f:
         10:46:c9:3e:42:4b:f7:8f:36:96:c2:0f:bc:71:e8:97:f1:19:
         1b:5a:25:60:af:1b:28:02:b1:5c:d5:8a:e3:72:91:73:5b:5a:
         93:89:16:61:42:48:41:f9:8d:22:e0:87:56:1d:19:b2:4e:cd:
         b2:27:fe:66:9f:2d:8c:05:5d:7b:d4:6c:36:ef:22:7c:36:20:
         b4:87:1d:19:f3:bd:aa:08:fa:e7:77:cd:7d:ce:cc:4b:ed:6c:
         84:94:0a:cc:31:ea:2a:79:4c:3d:f4:55:ec:d4:0a:b2:2e:01:
         c7:31:7a:93:d2:55:66:a6:f2:a2:97:9f:3c:3d:71:ad:d6:e0:
         f9:bf:ab:bf:0b:90:09:0f:5c:ab:10:29:c7:c4:e2:74:9e:ee:
         67:d9:5a:9d:c3:4c:bc:ef:9d:06:0d:42:e9:39:1d:69:e4:ea:
         3b:91:f3:39:74:1e:5a:23:24:43:73:f6:b8:92:5c:a2:a8:66:
         79:ac:61:92:1b:ec:58:d2:55:50:fe:9b:75:e7:a3:ed:1d:3f:
         58:4d:5d:69:6c:cd:22:40:d0:ef:fd:30:62:20:e9:6b:19:9e:
         8a:dd:e5:1a:83:0a:e3:cf
-----BEGIN CERTIFICATE-----
MIIHSDCCBTCgAwIBAgICAvMwDQYJKoZIhvcNAQEFBQAwgbQxCzAJBgNVBAYTAlVT
MQswCQYDVQQIEwJDQTEVMBMGA1UEBxMMU2FuRnJhbmNpc2NvMRUwEwYDVQQKEwxQ
aXhnbG8sIEluYy4xEDAOBgNVBAsTB1ZQTi1DSUUxGjAYBgNVBAMTEXR1bm5lbC5w
aXhnbG8uY29tMRwwGgYDVQQpExNCYWxhIENoYW5kcmFzZWthcmFuMR4wHAYJKoZI
hvcNAQkBFg9iYWxhQHBpeGdsby5jb20wHhcNMTgwMjE0MDY0MjI3WhcNMjgwMjEy
MDY0MjI3WjCBqTELMAkGA1UEBhMCVVMxCzAJBgNVBAgTAkNBMRUwEwYDVQQHEwxT
YW5GcmFuY2lzY28xFTATBgNVBAoTDFBpeGdsbywgSW5jLjEQMA4GA1UECxMHVlBO
LUNJRTEPMA0GA1UEAxMGY2llNzU0MRwwGgYDVQQpExNCYWxhIENoYW5kcmFzZWth
cmFuMR4wHAYJKoZIhvcNAQkBFg9iYWxhQHBpeGdsby5jb20wggIiMA0GCSqGSIb3
DQEBAQUAA4ICDwAwggIKAoICAQDmvM/MnuMG7frluMERSmr9tNyDKBQ4msu8iD4k
oyZU6k2FxDrbSaWGydQHgxQStHXyU7bAn6w9r7yACUk2NJGxZwTf9LCZLauOH5H2
XQ2/4DLTq7M9O7R1AVU8J4/x053mtHcRkAm79Z9kHp7WFGORgWSjAvjfY4Tx2FSX
ArArf9nGZUZvKEiQmhsGYoPHRwWZpLI7ZDNmoHRT8DGoHS0wivJ7UNBhh1KEprRq
TdI8JeAuf7SygPDEVpqdtBsYFP/0LdCbjUdwt1tPzdjiMb944zKbOTH3yBftrBRw
OnT1DjBW2T/Jhk2s4L2rRfSBbLbO848aEYBLM16t+aGbw+DZAtkQ6+0RDZ0bzAuc
r7ekkZpjwdSTzIlrXtx1B0kVokOgmNk7feeu65ePtqky6dcsa3zroHmikgCjjnNL
2MgOPqq3CNpYbg1aFhT3rdyEFmcqoeRX4NcIir7VaT7L1rzXESEcLzTliGBeOu1J
9x7Y0+gReeqjoBADkX9+Q+SUj4pzsE9XAClugu/neioC4ECuEoo/6F8vGD/AWQMJ
Hsb+dyo9m8O9epseCtahgs5wVuyQ0HWDQKZ2rozolW9w7+dPJoqsBIoJ5NoS14jG
cR7ntNCkc9Cme87oMMAa4XAcLhXfNMMjXLuswKad0EBjKw+UzPPOc2q8CboiZpV7
J+3KAwIDAQABo4IBazCCAWcwCQYDVR0TBAIwADAtBglghkgBhvhCAQ0EIBYeRWFz
eS1SU0EgR2VuZXJhdGVkIENlcnRpZmljYXRlMB0GA1UdDgQWBBT9R+jWnj6vwFgT
GQs3edZPDdaEuDCB6QYDVR0jBIHhMIHegBTvOI0UUFinW02cF3L837msp1GwEKGB
uqSBtzCBtDELMAkGA1UEBhMCVVMxCzAJBgNVBAgTAkNBMRUwEwYDVQQHEwxTYW5G
cmFuY2lzY28xFTATBgNVBAoTDFBpeGdsbywgSW5jLjEQMA4GA1UECxMHVlBOLUNJ
RTEaMBgGA1UEAxMRdHVubmVsLnBpeGdsby5jb20xHDAaBgNVBCkTE0JhbGEgQ2hh
bmRyYXNla2FyYW4xHjAcBgkqhkiG9w0BCQEWD2JhbGFAcGl4Z2xvLmNvbYIJAKbb
xoOA5qB5MBMGA1UdJQQMMAoGCCsGAQUFBwMCMAsGA1UdDwQEAwIHgDANBgkqhkiG
9w0BAQUFAAOCAgEAblv6a3l15W+9b3QDbNsN5HtGcZRdvbsV03NXiKGnGyDjZS7t
jm4FNCf0zbD1KawL3Lf+VMaVlQYCArhaDqbfcatDiR+I1y3wKNMjmBnDk3VaAZRZ
TWHjYdKOLbRq8t6Wq3yE5LPuNnu8YKm//Ri+1DnQi6u6SkZEdFelYZ0auAGGD/Gh
SXjIvcHdFJQOKum7ppNz8msErWAiYowk+VUSygoV2FBh03iIvxa/E+U0bwHxtBjL
lS+AumxXiwH8Xkm0zNr7yj6zN28555CKsHhwYIargFHlrtAbez0In/4MweWMaD5N
3CM/olPEIt+/FQx58sbTT+tNC0tWING4hjgyRTELLS5VSMAWL6bZaGbwXTQtLVaH
xk6PfZBjaTT7Lc4/EEbJPkJL9482lsIPvHHol/EZG1olYK8bKAKxXNWK43KRc1ta
k4kWYUJIQfmNIuCHVh0Zsk7Nsif+Zp8tjAVde9RsNu8ifDYgtIcdGfO9qgj653fN
fc7MS+1shJQKzDHqKnlMPfRV7NQKsi4BxzF6k9JVZqbyopefPD1xrdbg+b+rvwuQ
CQ9cqxApx8TidJ7uZ9lancNMvO+dBg1C6TkdaeTqO5HzOXQeWiMkQ3P2uJJcoqhm
eaxhkhvsWNJVUP6bdeej7R0/WE1daWzNIkDQ7/0wYiDpaxmeit3lGoMK488=
-----END CERTIFICATE-----
