Certificate:
    Data:
        Version: 3 (0x2)
        Serial Number: 756 (0x2f4)
    Signature Algorithm: sha1WithRSAEncryption
        Issuer: C=US, ST=CA, L=SanFrancisco, O=Pixglo, Inc., OU=VPN-CIE, CN=tunnel.pixglo.com/name=Bala Chandrasekaran/emailAddress=bala@pixglo.com
        Validity
            Not Before: Feb 14 06:42:32 2018 GMT
            Not After : Feb 12 06:42:32 2028 GMT
        Subject: C=US, ST=CA, L=SanFrancisco, O=Pixglo, Inc., OU=VPN-CIE, CN=cie755/name=Bala Chandrasekaran/emailAddress=bala@pixglo.com
        Subject Public Key Info:
            Public Key Algorithm: rsaEncryption
                Public-Key: (4096 bit)
                Modulus:
                    00:d8:65:3a:4e:79:f5:58:c1:6f:30:6b:79:0b:2e:
                    d7:90:0c:9d:3d:e5:4e:98:f0:b9:d3:24:22:d8:e9:
                    17:95:3e:5e:1b:43:a5:bb:b5:09:48:a3:10:78:56:
                    4e:27:36:9e:cd:97:1a:28:6d:9e:3c:a2:36:38:8a:
                    7b:49:b8:96:ad:7a:fa:28:16:3f:e8:7a:e5:54:70:
                    00:71:9e:2f:51:a9:c6:f2:a8:a4:42:f4:f5:c9:df:
                    4b:38:7c:03:b0:19:c1:6b:9d:5b:1d:16:12:7a:d6:
                    b7:af:be:d8:21:ec:6a:cf:1f:65:b4:b7:ec:e4:fb:
                    61:86:3b:67:2e:43:f8:c1:ff:3c:7f:60:21:11:a6:
                    ea:0e:80:a5:94:98:28:2a:d0:4c:1d:04:eb:14:0a:
                    98:09:2c:3c:71:b2:15:01:6e:b7:9d:7f:1f:4b:7e:
                    01:c1:b2:4f:a8:81:2f:35:ba:2b:84:f0:3a:bf:53:
                    02:e9:c3:de:4d:43:c0:4e:47:45:80:c1:bd:d5:b3:
                    46:51:bd:c7:3f:ba:6c:95:00:52:9c:04:81:48:70:
                    04:d3:04:66:79:73:82:f9:be:17:52:27:c0:ec:cc:
                    06:37:2c:89:c2:f7:5f:0f:d0:af:31:fb:e1:28:e1:
                    d8:21:13:39:e5:ff:b8:82:a5:e1:38:4d:77:4c:94:
                    96:15:3b:a1:99:20:24:94:24:6b:a6:09:ea:26:b2:
                    e2:d8:6c:70:03:2d:a3:2a:28:6e:ff:61:d1:c8:06:
                    02:f0:17:90:f2:81:d0:09:65:b0:3c:c3:02:6a:2d:
                    17:99:4f:7b:4e:e2:3a:73:27:8b:fd:0d:3d:c4:43:
                    bc:12:e8:2d:3d:6b:cb:e4:ba:bf:e7:79:0e:6e:4f:
                    a3:ae:c3:f2:84:48:10:31:dc:22:a7:11:f9:b0:ee:
                    6a:04:df:19:6b:cc:4f:49:7b:6e:5a:40:e7:20:92:
                    91:db:32:90:82:cf:6d:c9:c0:d7:ff:df:01:fe:35:
                    58:fb:b3:0e:c2:36:f5:c3:3d:13:7c:95:8d:b9:e2:
                    6a:60:c9:41:37:ea:89:1d:56:0f:9f:00:0a:db:98:
                    af:87:1a:2b:51:0d:7f:4f:3e:13:64:87:d4:34:f8:
                    89:be:8b:00:1b:1f:bc:77:9e:97:ed:ab:82:8c:04:
                    2d:1a:44:6d:8f:1a:78:0b:db:38:08:86:da:b1:97:
                    d3:b6:97:c0:6a:97:76:01:19:76:85:e8:34:c5:cc:
                    b7:cc:6e:35:2e:30:6c:1e:46:a4:ec:92:b6:64:f5:
                    da:f7:f9:9e:d0:7c:2c:37:52:b6:ed:83:1b:13:ca:
                    03:88:b7:38:77:1e:47:5f:58:96:52:31:b8:72:c5:
                    ea:61:f5
                Exponent: 65537 (0x10001)
        X509v3 extensions:
            X509v3 Basic Constraints: 
                CA:FALSE
            Netscape Comment: 
                Easy-RSA Generated Certificate
            X509v3 Subject Key Identifier: 
                FF:74:2F:6C:A0:F2:D0:0D:C6:86:B7:B6:2C:3A:AF:62:E5:12:0F:B3
            X509v3 Authority Key Identifier: 
                keyid:EF:38:8D:14:50:58:A7:5B:4D:9C:17:72:FC:DF:B9:AC:A7:51:B0:10
                DirName:/C=US/ST=CA/L=SanFrancisco/O=Pixglo, Inc./OU=VPN-CIE/CN=tunnel.pixglo.com/name=Bala Chandrasekaran/emailAddress=bala@pixglo.com
                serial:A6:DB:C6:83:80:E6:A0:79

            X509v3 Extended Key Usage: 
                TLS Web Client Authentication
            X509v3 Key Usage: 
                Digital Signature
    Signature Algorithm: sha1WithRSAEncryption
         3e:f0:a5:2c:be:fa:65:17:9f:61:13:f3:3d:ff:e2:ba:7d:e5:
         c4:d3:54:23:a2:30:6d:59:56:1f:46:98:94:2a:42:d9:23:9b:
         39:57:88:e0:07:fd:68:0e:8f:12:7d:ff:0e:e1:1a:6e:6f:2f:
         5c:68:59:87:96:9d:8d:b8:a2:7e:49:6c:a9:fb:41:5d:c1:a7:
         62:ed:14:e2:bf:9d:f0:85:55:29:31:7e:a2:84:e1:4f:60:9a:
         3d:e2:55:cc:d0:09:bb:fe:55:b3:86:5f:09:fc:38:a8:8c:9b:
         2e:e2:0f:c9:7e:25:bf:1f:a3:d0:82:2a:f3:55:71:e4:f8:33:
         2d:cc:36:cb:6c:17:30:2a:50:30:9f:22:59:55:41:c8:12:a0:
         dd:2e:e8:98:fe:a2:a2:dc:98:3c:4c:31:c9:0e:4c:6f:dd:d9:
         ae:f4:ee:5c:78:6c:10:8e:13:c0:6a:c8:df:32:a1:cd:b6:7f:
         8e:76:f5:68:bb:95:c0:ea:3d:ad:b8:06:55:5c:00:3f:fd:cc:
         a0:9c:d5:15:f5:d4:bf:c4:40:4b:45:c7:ea:ee:a2:40:69:e5:
         d5:57:53:29:9a:cc:d8:b1:1e:25:24:9f:fb:5c:9d:bd:44:5b:
         52:ae:27:2a:ff:f4:06:01:97:f9:e8:f3:3a:7e:b2:c9:b9:49:
         a6:9a:ac:03:8b:64:b0:d3:ed:6e:12:81:4a:dc:ba:09:f0:2b:
         e8:a4:ca:27:ec:83:cd:1c:0c:26:f1:06:a4:c6:be:a8:e6:4c:
         c5:51:64:c1:78:83:40:7a:e8:ef:2a:2c:4b:b2:f1:a4:1f:36:
         09:10:37:6d:13:05:aa:39:ff:02:39:aa:d5:89:d7:a7:72:c4:
         83:dc:42:88:98:16:36:70:52:9e:fb:bb:55:68:e7:80:0f:0d:
         7a:41:ab:1a:30:64:a9:e3:54:a0:27:f8:53:f8:c5:c9:16:a7:
         07:29:4a:f8:80:d8:fd:33:22:c2:e3:2b:ba:98:80:0e:60:de:
         5b:b8:ba:75:25:e5:1f:34:13:bc:04:79:7b:5c:f8:e6:ac:54:
         f8:f7:09:b8:cc:e1:f2:35:db:a7:d8:56:e5:16:26:ae:c0:de:
         96:78:72:6b:6d:fe:21:10:79:9b:36:bb:16:54:c3:07:be:e1:
         29:3f:f5:2f:f5:c5:4d:a9:73:81:fd:8c:2d:dd:3d:d4:0c:ba:
         14:b2:2a:af:91:42:1d:6f:e0:de:8e:f9:15:20:af:ee:3a:1e:
         95:c8:48:95:bb:ae:9c:9e:de:8d:fb:eb:88:9a:a2:e7:c4:89:
         ca:8d:8a:ac:2f:78:ac:73:97:07:de:00:89:72:0e:7f:9d:ff:
         3a:11:39:30:e7:45:ec:e4
-----BEGIN CERTIFICATE-----
MIIHSDCCBTCgAwIBAgICAvQwDQYJKoZIhvcNAQEFBQAwgbQxCzAJBgNVBAYTAlVT
MQswCQYDVQQIEwJDQTEVMBMGA1UEBxMMU2FuRnJhbmNpc2NvMRUwEwYDVQQKEwxQ
aXhnbG8sIEluYy4xEDAOBgNVBAsTB1ZQTi1DSUUxGjAYBgNVBAMTEXR1bm5lbC5w
aXhnbG8uY29tMRwwGgYDVQQpExNCYWxhIENoYW5kcmFzZWthcmFuMR4wHAYJKoZI
hvcNAQkBFg9iYWxhQHBpeGdsby5jb20wHhcNMTgwMjE0MDY0MjMyWhcNMjgwMjEy
MDY0MjMyWjCBqTELMAkGA1UEBhMCVVMxCzAJBgNVBAgTAkNBMRUwEwYDVQQHEwxT
YW5GcmFuY2lzY28xFTATBgNVBAoTDFBpeGdsbywgSW5jLjEQMA4GA1UECxMHVlBO
LUNJRTEPMA0GA1UEAxMGY2llNzU1MRwwGgYDVQQpExNCYWxhIENoYW5kcmFzZWth
cmFuMR4wHAYJKoZIhvcNAQkBFg9iYWxhQHBpeGdsby5jb20wggIiMA0GCSqGSIb3
DQEBAQUAA4ICDwAwggIKAoICAQDYZTpOefVYwW8wa3kLLteQDJ095U6Y8LnTJCLY
6ReVPl4bQ6W7tQlIoxB4Vk4nNp7NlxoobZ48ojY4intJuJatevooFj/oeuVUcABx
ni9RqcbyqKRC9PXJ30s4fAOwGcFrnVsdFhJ61revvtgh7GrPH2W0t+zk+2GGO2cu
Q/jB/zx/YCERpuoOgKWUmCgq0EwdBOsUCpgJLDxxshUBbredfx9LfgHBsk+ogS81
uiuE8Dq/UwLpw95NQ8BOR0WAwb3Vs0ZRvcc/umyVAFKcBIFIcATTBGZ5c4L5vhdS
J8DszAY3LInC918P0K8x++Eo4dghEznl/7iCpeE4TXdMlJYVO6GZICSUJGumCeom
suLYbHADLaMqKG7/YdHIBgLwF5DygdAJZbA8wwJqLReZT3tO4jpzJ4v9DT3EQ7wS
6C09a8vkur/neQ5uT6Ouw/KESBAx3CKnEfmw7moE3xlrzE9Je25aQOcgkpHbMpCC
z23JwNf/3wH+NVj7sw7CNvXDPRN8lY254mpgyUE36okdVg+fAArbmK+HGitRDX9P
PhNkh9Q0+Im+iwAbH7x3npftq4KMBC0aRG2PGngL2zgIhtqxl9O2l8Bql3YBGXaF
6DTFzLfMbjUuMGweRqTskrZk9dr3+Z7QfCw3UrbtgxsTygOItzh3HkdfWJZSMbhy
xeph9QIDAQABo4IBazCCAWcwCQYDVR0TBAIwADAtBglghkgBhvhCAQ0EIBYeRWFz
eS1SU0EgR2VuZXJhdGVkIENlcnRpZmljYXRlMB0GA1UdDgQWBBT/dC9soPLQDcaG
t7YsOq9i5RIPszCB6QYDVR0jBIHhMIHegBTvOI0UUFinW02cF3L837msp1GwEKGB
uqSBtzCBtDELMAkGA1UEBhMCVVMxCzAJBgNVBAgTAkNBMRUwEwYDVQQHEwxTYW5G
cmFuY2lzY28xFTATBgNVBAoTDFBpeGdsbywgSW5jLjEQMA4GA1UECxMHVlBOLUNJ
RTEaMBgGA1UEAxMRdHVubmVsLnBpeGdsby5jb20xHDAaBgNVBCkTE0JhbGEgQ2hh
bmRyYXNla2FyYW4xHjAcBgkqhkiG9w0BCQEWD2JhbGFAcGl4Z2xvLmNvbYIJAKbb
xoOA5qB5MBMGA1UdJQQMMAoGCCsGAQUFBwMCMAsGA1UdDwQEAwIHgDANBgkqhkiG
9w0BAQUFAAOCAgEAPvClLL76ZRefYRPzPf/iun3lxNNUI6IwbVlWH0aYlCpC2SOb
OVeI4Af9aA6PEn3/DuEabm8vXGhZh5adjbiifklsqftBXcGnYu0U4r+d8IVVKTF+
ooThT2CaPeJVzNAJu/5Vs4ZfCfw4qIybLuIPyX4lvx+j0IIq81Vx5PgzLcw2y2wX
MCpQMJ8iWVVByBKg3S7omP6iotyYPEwxyQ5Mb93ZrvTuXHhsEI4TwGrI3zKhzbZ/
jnb1aLuVwOo9rbgGVVwAP/3MoJzVFfXUv8RAS0XH6u6iQGnl1VdTKZrM2LEeJSSf
+1ydvURbUq4nKv/0BgGX+ejzOn6yyblJppqsA4tksNPtbhKBSty6CfAr6KTKJ+yD
zRwMJvEGpMa+qOZMxVFkwXiDQHro7yosS7LxpB82CRA3bRMFqjn/Ajmq1YnXp3LE
g9xCiJgWNnBSnvu7VWjngA8NekGrGjBkqeNUoCf4U/jFyRanBylK+IDY/TMiwuMr
upiADmDeW7i6dSXlHzQTvAR5e1z45qxU+PcJuMzh8jXbp9hW5RYmrsDelnhya23+
IRB5mza7FlTDB77hKT/1L/XFTalzgf2MLd091Ay6FLIqr5FCHW/g3o75FSCv7joe
lchIlbuunJ7ejfvriJqi58SJyo2KrC94rHOXB94AiXIOf53/OhE5MOdF7OQ=
-----END CERTIFICATE-----
