Certificate:
    Data:
        Version: 3 (0x2)
        Serial Number: 757 (0x2f5)
    Signature Algorithm: sha1WithRSAEncryption
        Issuer: C=US, ST=CA, L=SanFrancisco, O=Pixglo, Inc., OU=VPN-CIE, CN=tunnel.pixglo.com/name=Bala Chandrasekaran/emailAddress=bala@pixglo.com
        Validity
            Not Before: Feb 14 06:42:36 2018 GMT
            Not After : Feb 12 06:42:36 2028 GMT
        Subject: C=US, ST=CA, L=SanFrancisco, O=Pixglo, Inc., OU=VPN-CIE, CN=cie756/name=Bala Chandrasekaran/emailAddress=bala@pixglo.com
        Subject Public Key Info:
            Public Key Algorithm: rsaEncryption
                Public-Key: (4096 bit)
                Modulus:
                    00:ba:b1:e4:79:b8:ae:df:e6:f2:5a:56:e7:52:32:
                    41:0d:8e:25:05:02:a9:fd:d7:33:1a:2e:05:99:cb:
                    09:00:88:ec:4e:20:c3:34:c7:91:49:47:00:66:3f:
                    16:e4:6c:4d:18:41:21:db:be:f9:b7:f1:2e:c6:1c:
                    3e:22:e1:30:05:ff:52:a3:50:57:1d:01:ae:4a:52:
                    24:25:f3:4b:99:06:0b:88:6e:e0:8d:f1:f0:c1:7b:
                    be:f9:3b:8d:02:6f:67:16:0d:5d:09:21:12:78:16:
                    1b:30:37:87:fc:94:fd:50:a3:1d:7a:39:0d:0b:27:
                    58:da:48:54:21:8d:a5:0a:85:d6:76:4d:78:d4:18:
                    4c:d1:80:13:99:b0:73:51:9b:ea:a3:af:fa:c1:a8:
                    f1:50:1a:76:fa:2a:21:27:5d:20:73:e8:b4:6f:44:
                    b8:b3:fd:0b:b5:05:1b:96:82:7d:b5:ee:ce:2a:44:
                    2e:a9:6c:6f:9b:73:66:1e:01:39:ca:4e:6e:6f:fd:
                    f2:0c:4c:75:09:6c:f2:32:e8:b4:59:57:a9:35:32:
                    01:5c:b3:98:7c:df:6f:f7:45:80:b7:e8:c2:4e:de:
                    d6:cd:44:92:30:55:0e:e5:ec:d2:0a:6e:7a:a6:aa:
                    c3:5c:c4:fa:00:59:a1:97:0f:e1:c2:ec:82:ef:43:
                    5e:3a:d4:0c:8e:1b:80:f9:50:c8:c5:df:4e:00:b3:
                    92:a8:dd:90:d0:db:e5:32:e7:80:e6:ec:80:43:ed:
                    62:90:28:92:4d:04:a2:c3:28:12:6e:e1:a4:84:29:
                    79:d8:6f:83:ee:8e:11:a0:40:96:4e:4f:55:17:d6:
                    c2:b9:67:7c:35:c4:3a:ef:2d:0d:45:ff:e7:a4:e5:
                    65:ba:26:b8:40:07:16:cf:41:3f:a0:23:08:e4:ef:
                    43:58:d9:c2:dd:ec:2f:38:60:e4:9f:77:02:5b:1e:
                    84:ae:e5:cc:7b:a1:ae:25:7e:4e:cc:2d:b0:19:e0:
                    e7:cb:e1:57:3c:9e:ae:8d:5b:c5:f6:86:8e:0e:18:
                    28:e3:7d:46:5e:1f:db:72:a0:26:eb:c1:94:bb:b7:
                    11:80:e8:69:b6:be:61:23:4c:e3:91:64:cc:9b:00:
                    63:69:0f:30:73:35:4b:51:97:91:21:1a:2a:e6:1d:
                    a5:e4:f9:b8:c1:1b:a6:d9:fc:cb:f5:04:be:38:24:
                    af:2e:7b:4f:1b:5e:b5:3e:61:a2:21:41:46:5d:91:
                    2e:48:62:e0:a7:ca:cf:6e:61:aa:46:33:ef:2a:37:
                    97:a2:14:d0:4f:d6:d6:f4:65:b8:82:bd:0c:9b:39:
                    99:d8:1e:fe:66:c9:c5:d9:e6:53:72:0d:e4:e6:4e:
                    05:85:9f
                Exponent: 65537 (0x10001)
        X509v3 extensions:
            X509v3 Basic Constraints: 
                CA:FALSE
            Netscape Comment: 
                Easy-RSA Generated Certificate
            X509v3 Subject Key Identifier: 
                DE:5F:2A:D0:65:29:D0:39:8C:50:8E:BA:30:13:B3:89:FF:27:0B:B7
            X509v3 Authority Key Identifier: 
                keyid:EF:38:8D:14:50:58:A7:5B:4D:9C:17:72:FC:DF:B9:AC:A7:51:B0:10
                DirName:/C=US/ST=CA/L=SanFrancisco/O=Pixglo, Inc./OU=VPN-CIE/CN=tunnel.pixglo.com/name=Bala Chandrasekaran/emailAddress=bala@pixglo.com
                serial:A6:DB:C6:83:80:E6:A0:79

            X509v3 Extended Key Usage: 
                TLS Web Client Authentication
            X509v3 Key Usage: 
                Digital Signature
    Signature Algorithm: sha1WithRSAEncryption
         9a:4d:2e:35:dd:15:c7:39:6c:26:5f:e1:85:38:33:9c:58:e6:
         e0:a9:52:76:8b:74:6c:a0:fd:c2:24:e3:8a:87:7e:ba:74:5e:
         af:1c:24:7b:3f:31:81:d4:d1:e1:7f:da:20:a9:8f:58:c3:4c:
         09:6e:b6:59:11:1e:a3:3d:0f:4c:c2:0f:90:70:a6:b6:ec:6e:
         16:fa:ad:7f:9d:74:73:66:62:3f:e3:bf:de:f2:51:f5:96:9b:
         19:db:31:0c:87:d1:68:75:da:40:c6:79:0b:20:9e:b3:9a:8e:
         cb:c3:78:6b:df:e7:6f:d9:9e:d4:1f:6e:83:55:60:ec:c4:41:
         55:cd:e7:0d:01:fd:31:ee:f9:cf:64:14:1a:b5:d5:ed:18:ea:
         ea:be:9a:f5:bd:93:d2:3c:f6:e4:90:d6:9f:e4:7b:13:c6:82:
         78:ca:bc:b8:07:fd:a1:81:db:73:aa:7c:b4:1a:45:b7:cd:f0:
         f7:88:57:b7:67:5c:2c:e1:65:1a:28:fc:17:e4:1b:1e:56:37:
         72:d1:50:c8:5c:eb:fe:3e:1c:30:61:d9:f6:70:de:f8:07:fb:
         79:68:08:32:04:a7:04:c4:42:1c:b1:9e:b3:b4:c0:75:ed:7c:
         76:c3:0c:d3:f9:6a:c2:a8:1f:65:44:0f:98:de:b0:04:1d:f0:
         53:b5:cd:45:c4:73:74:70:b1:7a:a6:bf:4d:17:f9:ce:37:51:
         21:5d:1f:eb:7a:2e:7a:ea:ce:96:19:34:26:37:a3:cd:61:9f:
         7f:c2:63:45:55:a8:a5:40:69:03:2d:0f:21:c3:fc:de:52:4b:
         2f:53:6b:34:4c:bd:b0:64:b8:fa:87:03:26:94:8e:91:f8:75:
         1f:66:2b:20:db:98:24:55:c9:f6:86:80:53:0c:3a:a4:5e:0f:
         d3:b5:28:a8:96:0d:b3:99:52:af:a7:01:43:7f:c2:73:c1:8f:
         94:ce:cb:e1:f9:0c:aa:7d:bc:76:4d:b5:27:da:9a:42:2a:a1:
         99:fa:36:0e:88:05:ea:0c:9b:ae:5e:1b:bb:68:1a:dc:fa:e7:
         3d:8c:c4:52:5d:f1:f7:57:8f:2c:4e:b0:b6:54:40:57:23:5b:
         9d:9a:1e:9a:c8:86:cb:d4:96:c3:6d:86:b4:49:1a:ec:54:e9:
         45:61:57:0b:c1:b0:da:91:17:ce:1e:e2:76:cc:ba:ea:86:cc:
         53:16:67:95:ed:98:af:88:e7:3f:fe:e7:ec:3f:ff:fa:6f:69:
         e7:8f:6b:da:e9:6b:c3:c9:70:4a:63:9f:c3:2c:f9:58:ea:dd:
         6a:09:6c:d8:c4:d8:e3:0b:c6:91:41:1b:b7:ed:dd:e2:5c:71:
         de:16:ca:d7:04:34:02:e6
-----BEGIN CERTIFICATE-----
MIIHSDCCBTCgAwIBAgICAvUwDQYJKoZIhvcNAQEFBQAwgbQxCzAJBgNVBAYTAlVT
MQswCQYDVQQIEwJDQTEVMBMGA1UEBxMMU2FuRnJhbmNpc2NvMRUwEwYDVQQKEwxQ
aXhnbG8sIEluYy4xEDAOBgNVBAsTB1ZQTi1DSUUxGjAYBgNVBAMTEXR1bm5lbC5w
aXhnbG8uY29tMRwwGgYDVQQpExNCYWxhIENoYW5kcmFzZWthcmFuMR4wHAYJKoZI
hvcNAQkBFg9iYWxhQHBpeGdsby5jb20wHhcNMTgwMjE0MDY0MjM2WhcNMjgwMjEy
MDY0MjM2WjCBqTELMAkGA1UEBhMCVVMxCzAJBgNVBAgTAkNBMRUwEwYDVQQHEwxT
YW5GcmFuY2lzY28xFTATBgNVBAoTDFBpeGdsbywgSW5jLjEQMA4GA1UECxMHVlBO
LUNJRTEPMA0GA1UEAxMGY2llNzU2MRwwGgYDVQQpExNCYWxhIENoYW5kcmFzZWth
cmFuMR4wHAYJKoZIhvcNAQkBFg9iYWxhQHBpeGdsby5jb20wggIiMA0GCSqGSIb3
DQEBAQUAA4ICDwAwggIKAoICAQC6seR5uK7f5vJaVudSMkENjiUFAqn91zMaLgWZ
ywkAiOxOIMM0x5FJRwBmPxbkbE0YQSHbvvm38S7GHD4i4TAF/1KjUFcdAa5KUiQl
80uZBguIbuCN8fDBe775O40Cb2cWDV0JIRJ4FhswN4f8lP1Qox16OQ0LJ1jaSFQh
jaUKhdZ2TXjUGEzRgBOZsHNRm+qjr/rBqPFQGnb6KiEnXSBz6LRvRLiz/Qu1BRuW
gn217s4qRC6pbG+bc2YeATnKTm5v/fIMTHUJbPIy6LRZV6k1MgFcs5h832/3RYC3
6MJO3tbNRJIwVQ7l7NIKbnqmqsNcxPoAWaGXD+HC7ILvQ1461AyOG4D5UMjF304A
s5Ko3ZDQ2+Uy54Dm7IBD7WKQKJJNBKLDKBJu4aSEKXnYb4PujhGgQJZOT1UX1sK5
Z3w1xDrvLQ1F/+ek5WW6JrhABxbPQT+gIwjk70NY2cLd7C84YOSfdwJbHoSu5cx7
oa4lfk7MLbAZ4OfL4Vc8nq6NW8X2ho4OGCjjfUZeH9tyoCbrwZS7txGA6Gm2vmEj
TOORZMybAGNpDzBzNUtRl5EhGirmHaXk+bjBG6bZ/Mv1BL44JK8ue08bXrU+YaIh
QUZdkS5IYuCnys9uYapGM+8qN5eiFNBP1tb0ZbiCvQybOZnYHv5mycXZ5lNyDeTm
TgWFnwIDAQABo4IBazCCAWcwCQYDVR0TBAIwADAtBglghkgBhvhCAQ0EIBYeRWFz
eS1SU0EgR2VuZXJhdGVkIENlcnRpZmljYXRlMB0GA1UdDgQWBBTeXyrQZSnQOYxQ
jrowE7OJ/ycLtzCB6QYDVR0jBIHhMIHegBTvOI0UUFinW02cF3L837msp1GwEKGB
uqSBtzCBtDELMAkGA1UEBhMCVVMxCzAJBgNVBAgTAkNBMRUwEwYDVQQHEwxTYW5G
cmFuY2lzY28xFTATBgNVBAoTDFBpeGdsbywgSW5jLjEQMA4GA1UECxMHVlBOLUNJ
RTEaMBgGA1UEAxMRdHVubmVsLnBpeGdsby5jb20xHDAaBgNVBCkTE0JhbGEgQ2hh
bmRyYXNla2FyYW4xHjAcBgkqhkiG9w0BCQEWD2JhbGFAcGl4Z2xvLmNvbYIJAKbb
xoOA5qB5MBMGA1UdJQQMMAoGCCsGAQUFBwMCMAsGA1UdDwQEAwIHgDANBgkqhkiG
9w0BAQUFAAOCAgEAmk0uNd0VxzlsJl/hhTgznFjm4KlSdot0bKD9wiTjiod+unRe
rxwkez8xgdTR4X/aIKmPWMNMCW62WREeoz0PTMIPkHCmtuxuFvqtf510c2ZiP+O/
3vJR9ZabGdsxDIfRaHXaQMZ5CyCes5qOy8N4a9/nb9me1B9ug1Vg7MRBVc3nDQH9
Me75z2QUGrXV7Rjq6r6a9b2T0jz25JDWn+R7E8aCeMq8uAf9oYHbc6p8tBpFt83w
94hXt2dcLOFlGij8F+QbHlY3ctFQyFzr/j4cMGHZ9nDe+Af7eWgIMgSnBMRCHLGe
s7TAde18dsMM0/lqwqgfZUQPmN6wBB3wU7XNRcRzdHCxeqa/TRf5zjdRIV0f63ou
eurOlhk0JjejzWGff8JjRVWopUBpAy0PIcP83lJLL1NrNEy9sGS4+ocDJpSOkfh1
H2YrINuYJFXJ9oaAUww6pF4P07UoqJYNs5lSr6cBQ3/Cc8GPlM7L4fkMqn28dk21
J9qaQiqhmfo2DogF6gybrl4bu2ga3PrnPYzEUl3x91ePLE6wtlRAVyNbnZoemsiG
y9SWw22GtEka7FTpRWFXC8Gw2pEXzh7idsy66obMUxZnle2Yr4jnP/7n7D//+m9p
549r2ulrw8lwSmOfwyz5WOrdagls2MTY4wvGkUEbt+3d4lxx3hbK1wQ0AuY=
-----END CERTIFICATE-----
