Certificate:
    Data:
        Version: 3 (0x2)
        Serial Number: 758 (0x2f6)
    Signature Algorithm: sha1WithRSAEncryption
        Issuer: C=US, ST=CA, L=SanFrancisco, O=Pixglo, Inc., OU=VPN-CIE, CN=tunnel.pixglo.com/name=Bala Chandrasekaran/emailAddress=bala@pixglo.com
        Validity
            Not Before: Feb 14 06:42:38 2018 GMT
            Not After : Feb 12 06:42:38 2028 GMT
        Subject: C=US, ST=CA, L=SanFrancisco, O=Pixglo, Inc., OU=VPN-CIE, CN=cie757/name=Bala Chandrasekaran/emailAddress=bala@pixglo.com
        Subject Public Key Info:
            Public Key Algorithm: rsaEncryption
                Public-Key: (4096 bit)
                Modulus:
                    00:c2:df:4d:07:f5:e8:92:41:74:cf:33:d1:bf:f6:
                    7d:f8:cb:d3:8d:88:e3:94:b8:29:3a:c8:f9:96:78:
                    aa:9e:7d:5a:d3:00:fa:82:4a:9c:b2:f1:d7:cd:e3:
                    b9:24:5a:fb:a9:54:90:f1:fd:c5:b2:16:f8:c2:85:
                    01:0c:6a:57:10:79:69:3a:f3:d1:39:d2:22:78:9c:
                    9b:5a:de:83:89:2a:60:36:ba:d5:16:02:86:64:d4:
                    64:d9:00:3c:29:5c:de:39:27:d5:12:db:f9:6f:e5:
                    23:42:7f:e3:29:8e:3b:68:ce:2e:58:2f:b7:d5:3b:
                    c7:c3:f3:06:2b:ab:38:b4:e3:69:4c:14:a4:98:ce:
                    86:e9:48:85:87:42:1f:11:9b:bc:3a:3d:6e:2a:53:
                    4c:71:34:b5:dd:c4:2b:22:fc:5b:ed:60:d1:5e:26:
                    c6:4e:86:43:d3:50:f5:b6:40:bd:70:f5:cc:21:dd:
                    df:76:01:da:09:5f:88:3d:e9:3a:34:e8:b0:33:93:
                    38:7d:d0:9e:0f:65:c8:39:3a:1f:31:65:8f:07:9d:
                    30:25:92:d3:7f:e4:57:7a:a4:44:fa:78:f1:68:ee:
                    35:27:02:02:7d:0e:ee:b1:85:28:db:5b:51:f9:bd:
                    ee:10:ea:b8:5a:47:58:1a:52:3a:10:43:42:19:3d:
                    a7:6b:e7:aa:1c:22:82:77:9e:25:aa:8b:70:64:b8:
                    db:cd:91:53:0f:89:4d:d6:f9:15:b9:16:00:a8:5a:
                    3a:e0:3c:b8:7f:f3:66:f2:27:ae:8c:eb:a3:dd:46:
                    54:e8:c4:ee:b6:02:47:cf:9e:c9:94:a6:26:46:f6:
                    b3:2b:83:d1:f1:86:df:36:2c:47:4e:8a:83:83:32:
                    17:3c:22:47:74:a8:f2:ba:1a:d6:f2:4b:d7:82:07:
                    cf:99:80:a5:9f:94:23:30:0a:0d:7c:3c:bb:7c:7f:
                    28:59:fd:b4:af:f7:f2:3a:13:6a:31:5b:41:a5:b8:
                    52:4e:b6:88:2c:9b:05:19:ed:d1:9f:cf:95:b5:c9:
                    3c:a0:93:8f:96:ee:24:a4:d0:6c:1b:58:9c:03:69:
                    10:94:23:9f:f2:e5:f7:d5:48:c1:80:5d:b3:04:47:
                    9d:90:3f:3e:cf:8b:84:2c:a1:70:c2:08:cb:82:ed:
                    11:0d:49:3f:c9:1b:ab:10:27:34:21:da:03:13:7c:
                    98:9a:9f:30:7d:be:10:b7:98:c6:81:5d:0b:d6:b3:
                    1c:49:7a:8e:a8:ed:b9:3b:4d:40:c2:55:3b:00:6c:
                    bc:76:df:b7:3a:53:9d:20:62:05:13:51:a6:83:83:
                    b8:da:1c:0d:45:ae:fc:75:c9:7e:d3:c9:89:6d:3b:
                    ef:71:89
                Exponent: 65537 (0x10001)
        X509v3 extensions:
            X509v3 Basic Constraints: 
                CA:FALSE
            Netscape Comment: 
                Easy-RSA Generated Certificate
            X509v3 Subject Key Identifier: 
                36:C0:E9:D9:24:E6:1C:37:B8:DA:93:AA:0E:63:8C:65:DC:7D:63:CF
            X509v3 Authority Key Identifier: 
                keyid:EF:38:8D:14:50:58:A7:5B:4D:9C:17:72:FC:DF:B9:AC:A7:51:B0:10
                DirName:/C=US/ST=CA/L=SanFrancisco/O=Pixglo, Inc./OU=VPN-CIE/CN=tunnel.pixglo.com/name=Bala Chandrasekaran/emailAddress=bala@pixglo.com
                serial:A6:DB:C6:83:80:E6:A0:79

            X509v3 Extended Key Usage: 
                TLS Web Client Authentication
            X509v3 Key Usage: 
                Digital Signature
    Signature Algorithm: sha1WithRSAEncryption
         94:6e:04:82:c2:5c:40:08:ba:6a:56:d0:b5:92:71:b7:5a:7c:
         02:d9:93:74:3d:ec:c8:39:a0:e5:ec:90:e2:5e:3a:a5:2b:26:
         47:c3:43:c1:1a:7d:f9:0c:d2:e6:71:b2:49:f9:14:bd:b4:37:
         56:17:b1:e6:16:3d:fb:6e:cc:96:d6:15:59:16:5c:7b:3b:d6:
         c3:66:25:c7:d7:79:13:53:dd:4f:f4:43:f2:bb:c0:b8:d1:f6:
         c4:99:a6:e4:55:b8:61:e7:db:2a:67:a5:a6:e1:fb:e5:c8:aa:
         6d:a1:87:52:53:d9:2b:15:23:66:93:c2:d6:de:ba:10:ed:30:
         9f:f8:da:31:81:48:b2:08:f0:68:cb:73:74:17:51:83:12:d7:
         3b:38:f7:a3:83:ca:37:94:b8:60:54:ac:b5:49:c5:f5:69:60:
         30:e3:ac:2a:52:13:a7:6c:08:c2:7f:da:9c:29:4c:5c:1d:3f:
         97:cb:70:ce:33:4e:8a:6b:18:71:f0:fd:6b:cf:4b:38:7a:c3:
         55:db:88:4e:06:ed:47:e7:ce:f0:cd:33:d3:ad:4f:f1:40:52:
         01:fa:19:d2:23:38:40:80:a7:97:67:cc:5d:24:f1:be:2b:17:
         3d:94:42:76:03:74:f2:74:e5:a4:bf:8b:5d:1d:cf:43:27:e8:
         4d:5a:5f:ba:a5:65:6d:0f:70:77:90:a3:b0:7e:75:b6:a6:6f:
         66:98:ba:58:70:41:7b:9f:9d:c9:dc:47:a1:54:ce:cd:f7:06:
         0f:f4:3c:bf:e1:91:93:08:5f:86:54:df:0f:ba:a7:cb:f1:d7:
         61:c7:b2:7d:f6:ef:f1:b2:53:ed:4b:a7:b9:c3:4a:f5:ca:c6:
         23:86:cf:6a:b4:b5:a9:7a:71:8a:1c:34:85:01:e6:44:68:28:
         03:14:d0:90:4b:0a:c4:51:c0:df:e7:6d:ce:b8:5c:5b:0d:83:
         0c:60:9b:fa:8e:98:a2:ef:7f:47:71:75:28:ce:a5:7c:33:e4:
         27:1a:b4:b4:b5:a7:40:e0:95:2d:b4:a3:1c:43:5b:2e:94:b4:
         6a:fc:2f:f1:45:c5:3d:00:81:ab:07:94:50:df:05:d0:3b:35:
         74:5f:06:60:8c:b3:43:0b:28:15:5f:58:85:a0:83:51:52:25:
         12:7a:de:35:7e:e1:06:c4:de:bc:5b:a3:ee:d5:bf:4b:ab:a4:
         32:ed:e5:75:1f:a6:4e:34:c0:ff:2a:d4:5e:c7:32:db:8a:69:
         0b:94:63:34:2f:d7:ce:22:e6:b2:ee:69:74:31:2e:fd:60:28:
         c5:f8:79:27:78:68:b0:c1:f3:15:e5:a6:bc:01:08:f7:bf:e8:
         b8:86:35:3a:f9:aa:57:9f
-----BEGIN CERTIFICATE-----
MIIHSDCCBTCgAwIBAgICAvYwDQYJKoZIhvcNAQEFBQAwgbQxCzAJBgNVBAYTAlVT
MQswCQYDVQQIEwJDQTEVMBMGA1UEBxMMU2FuRnJhbmNpc2NvMRUwEwYDVQQKEwxQ
aXhnbG8sIEluYy4xEDAOBgNVBAsTB1ZQTi1DSUUxGjAYBgNVBAMTEXR1bm5lbC5w
aXhnbG8uY29tMRwwGgYDVQQpExNCYWxhIENoYW5kcmFzZWthcmFuMR4wHAYJKoZI
hvcNAQkBFg9iYWxhQHBpeGdsby5jb20wHhcNMTgwMjE0MDY0MjM4WhcNMjgwMjEy
MDY0MjM4WjCBqTELMAkGA1UEBhMCVVMxCzAJBgNVBAgTAkNBMRUwEwYDVQQHEwxT
YW5GcmFuY2lzY28xFTATBgNVBAoTDFBpeGdsbywgSW5jLjEQMA4GA1UECxMHVlBO
LUNJRTEPMA0GA1UEAxMGY2llNzU3MRwwGgYDVQQpExNCYWxhIENoYW5kcmFzZWth
cmFuMR4wHAYJKoZIhvcNAQkBFg9iYWxhQHBpeGdsby5jb20wggIiMA0GCSqGSIb3
DQEBAQUAA4ICDwAwggIKAoICAQDC300H9eiSQXTPM9G/9n34y9ONiOOUuCk6yPmW
eKqefVrTAPqCSpyy8dfN47kkWvupVJDx/cWyFvjChQEMalcQeWk689E50iJ4nJta
3oOJKmA2utUWAoZk1GTZADwpXN45J9US2/lv5SNCf+Mpjjtozi5YL7fVO8fD8wYr
qzi042lMFKSYzobpSIWHQh8Rm7w6PW4qU0xxNLXdxCsi/FvtYNFeJsZOhkPTUPW2
QL1w9cwh3d92AdoJX4g96To06LAzkzh90J4PZcg5Oh8xZY8HnTAlktN/5Fd6pET6
ePFo7jUnAgJ9Du6xhSjbW1H5ve4Q6rhaR1gaUjoQQ0IZPadr56ocIoJ3niWqi3Bk
uNvNkVMPiU3W+RW5FgCoWjrgPLh/82byJ66M66PdRlToxO62AkfPnsmUpiZG9rMr
g9Hxht82LEdOioODMhc8Ikd0qPK6GtbyS9eCB8+ZgKWflCMwCg18PLt8fyhZ/bSv
9/I6E2oxW0GluFJOtogsmwUZ7dGfz5W1yTygk4+W7iSk0GwbWJwDaRCUI5/y5ffV
SMGAXbMER52QPz7Pi4QsoXDCCMuC7RENST/JG6sQJzQh2gMTfJianzB9vhC3mMaB
XQvWsxxJeo6o7bk7TUDCVTsAbLx237c6U50gYgUTUaaDg7jaHA1Frvx1yX7TyYlt
O+9xiQIDAQABo4IBazCCAWcwCQYDVR0TBAIwADAtBglghkgBhvhCAQ0EIBYeRWFz
eS1SU0EgR2VuZXJhdGVkIENlcnRpZmljYXRlMB0GA1UdDgQWBBQ2wOnZJOYcN7ja
k6oOY4xl3H1jzzCB6QYDVR0jBIHhMIHegBTvOI0UUFinW02cF3L837msp1GwEKGB
uqSBtzCBtDELMAkGA1UEBhMCVVMxCzAJBgNVBAgTAkNBMRUwEwYDVQQHEwxTYW5G
cmFuY2lzY28xFTATBgNVBAoTDFBpeGdsbywgSW5jLjEQMA4GA1UECxMHVlBOLUNJ
RTEaMBgGA1UEAxMRdHVubmVsLnBpeGdsby5jb20xHDAaBgNVBCkTE0JhbGEgQ2hh
bmRyYXNla2FyYW4xHjAcBgkqhkiG9w0BCQEWD2JhbGFAcGl4Z2xvLmNvbYIJAKbb
xoOA5qB5MBMGA1UdJQQMMAoGCCsGAQUFBwMCMAsGA1UdDwQEAwIHgDANBgkqhkiG
9w0BAQUFAAOCAgEAlG4EgsJcQAi6albQtZJxt1p8AtmTdD3syDmg5eyQ4l46pSsm
R8NDwRp9+QzS5nGySfkUvbQ3Vhex5hY9+27MltYVWRZcezvWw2Ylx9d5E1PdT/RD
8rvAuNH2xJmm5FW4YefbKmelpuH75ciqbaGHUlPZKxUjZpPC1t66EO0wn/jaMYFI
sgjwaMtzdBdRgxLXOzj3o4PKN5S4YFSstUnF9WlgMOOsKlITp2wIwn/anClMXB0/
l8twzjNOimsYcfD9a89LOHrDVduITgbtR+fO8M0z061P8UBSAfoZ0iM4QICnl2fM
XSTxvisXPZRCdgN08nTlpL+LXR3PQyfoTVpfuqVlbQ9wd5CjsH51tqZvZpi6WHBB
e5+dydxHoVTOzfcGD/Q8v+GRkwhfhlTfD7qny/HXYceyffbv8bJT7UunucNK9crG
I4bParS1qXpxihw0hQHmRGgoAxTQkEsKxFHA3+dtzrhcWw2DDGCb+o6You9/R3F1
KM6lfDPkJxq0tLWnQOCVLbSjHENbLpS0avwv8UXFPQCBqweUUN8F0Ds1dF8GYIyz
QwsoFV9YhaCDUVIlEnreNX7hBsTevFuj7tW/S6ukMu3ldR+mTjTA/yrUXscy24pp
C5RjNC/XziLmsu5pdDEu/WAoxfh5J3hosMHzFeWmvAEI97/ouIY1OvmqV58=
-----END CERTIFICATE-----
