Certificate:
    Data:
        Version: 3 (0x2)
        Serial Number: 760 (0x2f8)
    Signature Algorithm: sha1WithRSAEncryption
        Issuer: C=US, ST=CA, L=SanFrancisco, O=Pixglo, Inc., OU=VPN-CIE, CN=tunnel.pixglo.com/name=Bala Chandrasekaran/emailAddress=bala@pixglo.com
        Validity
            Not Before: Feb 14 06:42:44 2018 GMT
            Not After : Feb 12 06:42:44 2028 GMT
        Subject: C=US, ST=CA, L=SanFrancisco, O=Pixglo, Inc., OU=VPN-CIE, CN=cie759/name=Bala Chandrasekaran/emailAddress=bala@pixglo.com
        Subject Public Key Info:
            Public Key Algorithm: rsaEncryption
                Public-Key: (4096 bit)
                Modulus:
                    00:9f:c0:7e:d4:9b:14:e9:87:e5:e3:13:f1:71:ab:
                    a3:00:c8:d7:aa:95:ec:97:4c:72:61:4a:88:1c:d8:
                    21:f0:60:f6:57:18:33:d9:7b:8f:a6:9c:74:7d:36:
                    6a:1b:ec:20:4c:4c:47:aa:04:77:f3:78:88:68:f0:
                    21:91:97:96:de:f6:1b:14:bb:e0:68:2f:76:9c:08:
                    74:68:b0:97:a2:65:94:23:67:be:bf:72:66:6f:df:
                    1c:51:ed:76:9f:4b:6d:f2:c4:ec:5b:df:84:7b:4a:
                    27:47:c9:a1:b3:02:dc:c9:1c:54:65:61:07:8a:1a:
                    76:dc:5c:b4:0d:c8:e7:2d:e5:37:dd:60:0a:b4:38:
                    64:45:ae:2c:6b:d9:ef:6e:af:7b:06:da:59:80:60:
                    ee:6f:57:03:92:3d:4d:ff:b1:21:2c:89:c4:ff:f6:
                    03:63:04:7d:13:d7:7f:4d:1e:4e:1b:9a:17:4b:01:
                    32:d4:15:d3:58:7f:2e:c6:67:15:ee:87:7a:96:61:
                    36:92:2f:7b:1a:dd:44:29:48:5a:2b:c6:eb:25:a6:
                    56:09:bd:50:4d:23:6a:ad:fd:28:14:57:11:d8:e8:
                    df:a9:11:0b:97:5a:07:74:47:e0:51:be:18:e5:a8:
                    a8:b4:cc:fb:6b:25:60:c8:69:00:f1:6a:b7:de:6b:
                    43:a0:2b:88:18:83:e3:28:e7:6a:be:9f:f9:20:4e:
                    fd:bf:38:cf:e9:86:5f:5c:78:2c:54:37:c5:c4:26:
                    dd:a2:0e:ce:fb:6b:2a:b1:25:11:67:4c:99:42:fa:
                    4a:bc:69:85:56:0f:82:f8:ee:b3:d3:f6:a0:ad:5f:
                    07:13:98:03:50:be:1b:58:59:7e:b0:2e:08:d9:a4:
                    3c:43:5c:48:ac:b4:68:99:4c:72:cf:1c:5c:f0:92:
                    26:18:0e:a0:fc:30:b4:a7:33:7d:39:61:de:3b:e3:
                    cb:a9:5c:21:69:2e:81:33:a5:b1:9c:24:ce:07:55:
                    20:4c:f5:37:b4:f4:d5:12:5a:1f:e0:52:c4:b1:0c:
                    cf:fd:6e:e8:4f:37:27:46:fe:89:00:15:aa:a4:98:
                    75:16:b0:af:29:c5:02:0b:60:91:3c:fb:39:8b:3b:
                    ca:b6:b9:b5:75:e0:0d:a5:4c:db:a3:be:0f:d3:40:
                    ea:d5:17:d7:7f:db:d3:8f:cd:ee:dd:83:cd:e2:57:
                    62:66:21:0a:d3:f2:08:be:d6:4b:51:0b:78:ad:85:
                    36:26:8a:69:80:40:23:fd:8a:fb:e9:8c:96:44:79:
                    75:9b:f7:2b:fe:c4:bf:60:78:3b:59:03:bd:42:42:
                    53:64:8f:ef:fe:d9:0a:ca:62:c5:fe:36:54:be:5d:
                    37:f8:91
                Exponent: 65537 (0x10001)
        X509v3 extensions:
            X509v3 Basic Constraints: 
                CA:FALSE
            Netscape Comment: 
                Easy-RSA Generated Certificate
            X509v3 Subject Key Identifier: 
                A9:8E:05:EA:1D:D1:3A:E6:29:9D:82:C6:59:A1:F4:F2:FD:B0:ED:BF
            X509v3 Authority Key Identifier: 
                keyid:EF:38:8D:14:50:58:A7:5B:4D:9C:17:72:FC:DF:B9:AC:A7:51:B0:10
                DirName:/C=US/ST=CA/L=SanFrancisco/O=Pixglo, Inc./OU=VPN-CIE/CN=tunnel.pixglo.com/name=Bala Chandrasekaran/emailAddress=bala@pixglo.com
                serial:A6:DB:C6:83:80:E6:A0:79

            X509v3 Extended Key Usage: 
                TLS Web Client Authentication
            X509v3 Key Usage: 
                Digital Signature
    Signature Algorithm: sha1WithRSAEncryption
         71:66:15:b5:4f:36:7d:dd:f6:b2:99:89:42:18:e5:2f:b4:d2:
         8e:c6:86:86:07:9f:8b:48:03:14:c8:99:a6:53:22:45:54:d6:
         34:e8:9c:fc:a2:38:6d:c0:bc:14:71:83:16:30:46:33:fe:22:
         0f:bf:6c:af:b7:1d:d7:f4:5d:a3:26:fe:97:65:12:6e:06:4e:
         94:c4:e4:73:30:e4:f4:4f:65:da:c8:9e:04:95:86:64:6f:cc:
         31:95:91:4a:90:32:de:aa:e3:f2:05:83:c6:3b:5f:50:77:af:
         24:c4:63:54:d3:c9:35:f4:7e:57:0d:6a:a1:45:19:a0:4b:06:
         40:36:a2:27:f1:13:1c:d6:43:56:ff:14:0d:f3:a5:e0:a7:76:
         89:b7:d9:f0:07:d5:74:f8:fa:f4:ee:31:6b:c2:ec:26:59:b6:
         dd:dd:53:30:d1:b9:39:af:14:7f:92:b4:09:1f:63:f4:ca:99:
         09:de:7e:11:8a:8e:33:04:da:ce:20:c1:83:0f:a3:79:5e:53:
         a4:86:21:98:9a:fa:78:12:f5:8e:a8:fd:34:5d:fa:82:dc:ca:
         42:28:8a:fd:b8:94:c1:00:5d:09:c4:e1:79:30:d3:82:b2:97:
         c4:3b:68:62:8c:35:f1:8f:a1:d1:0f:fa:c1:18:72:4a:f5:05:
         59:3b:9e:d7:c6:19:43:54:da:8f:71:26:db:5e:0a:bd:d8:a9:
         68:c0:aa:4c:47:e1:50:50:0f:07:35:5d:16:00:29:12:e2:4d:
         30:8c:74:6d:d9:33:ed:87:40:cb:dd:83:66:b1:3b:cb:5c:b0:
         ae:85:eb:79:97:a3:18:b5:51:b4:ec:8d:a5:7a:f2:12:5d:d2:
         b0:a9:b2:ab:31:d4:aa:22:e2:c5:16:99:f3:82:42:2f:6c:66:
         83:af:47:69:70:9e:f0:20:d1:75:5e:7d:5e:35:e7:fa:ae:c7:
         25:54:4b:43:58:5f:62:64:f3:5c:21:9f:54:67:69:34:11:a0:
         fd:f5:66:2d:fc:ed:58:94:db:26:8d:79:83:cb:15:64:cd:5e:
         94:49:06:4f:f6:c5:87:5e:d7:8d:3c:c4:1b:62:65:80:79:af:
         77:fb:d1:81:04:88:91:c7:bf:ff:96:2b:ed:73:3a:e6:8b:f3:
         00:b2:00:4d:48:f2:d8:33:c2:b1:b0:4b:81:19:ac:be:cb:8e:
         98:1d:e1:90:c8:8a:bd:46:5a:a3:04:00:f9:0a:0d:c3:82:6d:
         78:17:5b:b9:79:8a:d2:14:45:d0:7a:a9:21:2b:4d:d0:10:6e:
         97:d1:f6:0d:cf:39:8f:0a:35:5b:36:f1:f9:b0:ba:cc:4f:18:
         c5:b2:7c:49:97:43:bd:7c
-----BEGIN CERTIFICATE-----
MIIHSDCCBTCgAwIBAgICAvgwDQYJKoZIhvcNAQEFBQAwgbQxCzAJBgNVBAYTAlVT
MQswCQYDVQQIEwJDQTEVMBMGA1UEBxMMU2FuRnJhbmNpc2NvMRUwEwYDVQQKEwxQ
aXhnbG8sIEluYy4xEDAOBgNVBAsTB1ZQTi1DSUUxGjAYBgNVBAMTEXR1bm5lbC5w
aXhnbG8uY29tMRwwGgYDVQQpExNCYWxhIENoYW5kcmFzZWthcmFuMR4wHAYJKoZI
hvcNAQkBFg9iYWxhQHBpeGdsby5jb20wHhcNMTgwMjE0MDY0MjQ0WhcNMjgwMjEy
MDY0MjQ0WjCBqTELMAkGA1UEBhMCVVMxCzAJBgNVBAgTAkNBMRUwEwYDVQQHEwxT
YW5GcmFuY2lzY28xFTATBgNVBAoTDFBpeGdsbywgSW5jLjEQMA4GA1UECxMHVlBO
LUNJRTEPMA0GA1UEAxMGY2llNzU5MRwwGgYDVQQpExNCYWxhIENoYW5kcmFzZWth
cmFuMR4wHAYJKoZIhvcNAQkBFg9iYWxhQHBpeGdsby5jb20wggIiMA0GCSqGSIb3
DQEBAQUAA4ICDwAwggIKAoICAQCfwH7UmxTph+XjE/Fxq6MAyNeqleyXTHJhSogc
2CHwYPZXGDPZe4+mnHR9Nmob7CBMTEeqBHfzeIho8CGRl5be9hsUu+BoL3acCHRo
sJeiZZQjZ76/cmZv3xxR7XafS23yxOxb34R7SidHyaGzAtzJHFRlYQeKGnbcXLQN
yOct5TfdYAq0OGRFrixr2e9ur3sG2lmAYO5vVwOSPU3/sSEsicT/9gNjBH0T139N
Hk4bmhdLATLUFdNYfy7GZxXuh3qWYTaSL3sa3UQpSForxuslplYJvVBNI2qt/SgU
VxHY6N+pEQuXWgd0R+BRvhjlqKi0zPtrJWDIaQDxarfea0OgK4gYg+Mo52q+n/kg
Tv2/OM/phl9ceCxUN8XEJt2iDs77ayqxJRFnTJlC+kq8aYVWD4L47rPT9qCtXwcT
mANQvhtYWX6wLgjZpDxDXEistGiZTHLPHFzwkiYYDqD8MLSnM305Yd4748upXCFp
LoEzpbGcJM4HVSBM9Te09NUSWh/gUsSxDM/9buhPNydG/okAFaqkmHUWsK8pxQIL
YJE8+zmLO8q2ubV14A2lTNujvg/TQOrVF9d/29OPze7dg83iV2JmIQrT8gi+1ktR
C3ithTYmimmAQCP9ivvpjJZEeXWb9yv+xL9geDtZA71CQlNkj+/+2QrKYsX+NlS+
XTf4kQIDAQABo4IBazCCAWcwCQYDVR0TBAIwADAtBglghkgBhvhCAQ0EIBYeRWFz
eS1SU0EgR2VuZXJhdGVkIENlcnRpZmljYXRlMB0GA1UdDgQWBBSpjgXqHdE65imd
gsZZofTy/bDtvzCB6QYDVR0jBIHhMIHegBTvOI0UUFinW02cF3L837msp1GwEKGB
uqSBtzCBtDELMAkGA1UEBhMCVVMxCzAJBgNVBAgTAkNBMRUwEwYDVQQHEwxTYW5G
cmFuY2lzY28xFTATBgNVBAoTDFBpeGdsbywgSW5jLjEQMA4GA1UECxMHVlBOLUNJ
RTEaMBgGA1UEAxMRdHVubmVsLnBpeGdsby5jb20xHDAaBgNVBCkTE0JhbGEgQ2hh
bmRyYXNla2FyYW4xHjAcBgkqhkiG9w0BCQEWD2JhbGFAcGl4Z2xvLmNvbYIJAKbb
xoOA5qB5MBMGA1UdJQQMMAoGCCsGAQUFBwMCMAsGA1UdDwQEAwIHgDANBgkqhkiG
9w0BAQUFAAOCAgEAcWYVtU82fd32spmJQhjlL7TSjsaGhgefi0gDFMiZplMiRVTW
NOic/KI4bcC8FHGDFjBGM/4iD79sr7cd1/Rdoyb+l2USbgZOlMTkczDk9E9l2sie
BJWGZG/MMZWRSpAy3qrj8gWDxjtfUHevJMRjVNPJNfR+Vw1qoUUZoEsGQDaiJ/ET
HNZDVv8UDfOl4Kd2ibfZ8AfVdPj69O4xa8LsJlm23d1TMNG5Oa8Uf5K0CR9j9MqZ
Cd5+EYqOMwTaziDBgw+jeV5TpIYhmJr6eBL1jqj9NF36gtzKQiiK/biUwQBdCcTh
eTDTgrKXxDtoYow18Y+h0Q/6wRhySvUFWTue18YZQ1Taj3Em214KvdipaMCqTEfh
UFAPBzVdFgApEuJNMIx0bdkz7YdAy92DZrE7y1ywroXreZejGLVRtOyNpXryEl3S
sKmyqzHUqiLixRaZ84JCL2xmg69HaXCe8CDRdV59XjXn+q7HJVRLQ1hfYmTzXCGf
VGdpNBGg/fVmLfztWJTbJo15g8sVZM1elEkGT/bFh17XjTzEG2JlgHmvd/vRgQSI
kce//5Yr7XM65ovzALIATUjy2DPCsbBLgRmsvsuOmB3hkMiKvUZaowQA+QoNw4Jt
eBdbuXmK0hRF0HqpIStN0BBul9H2Dc85jwo1Wzbx+bC6zE8YxbJ8SZdDvXw=
-----END CERTIFICATE-----
