Certificate:
    Data:
        Version: 3 (0x2)
        Serial Number: 761 (0x2f9)
    Signature Algorithm: sha1WithRSAEncryption
        Issuer: C=US, ST=CA, L=SanFrancisco, O=Pixglo, Inc., OU=VPN-CIE, CN=tunnel.pixglo.com/name=Bala Chandrasekaran/emailAddress=bala@pixglo.com
        Validity
            Not Before: Feb 14 06:42:45 2018 GMT
            Not After : Feb 12 06:42:45 2028 GMT
        Subject: C=US, ST=CA, L=SanFrancisco, O=Pixglo, Inc., OU=VPN-CIE, CN=cie760/name=Bala Chandrasekaran/emailAddress=bala@pixglo.com
        Subject Public Key Info:
            Public Key Algorithm: rsaEncryption
                Public-Key: (4096 bit)
                Modulus:
                    00:bf:74:0b:5b:0a:ac:b0:43:bf:fa:45:c0:e5:8a:
                    b1:7e:16:88:e6:40:ec:ef:c8:6e:1b:77:57:d0:1e:
                    94:77:49:04:aa:38:64:fb:77:c1:fa:35:36:7e:0f:
                    9a:a4:93:84:a8:76:bb:68:c1:2b:30:14:66:43:fb:
                    02:28:2b:22:8a:76:65:16:6f:0f:62:cf:17:f4:1c:
                    06:7e:08:46:74:65:55:40:3a:79:19:fd:64:20:e1:
                    17:b5:a9:de:b4:3f:2e:08:09:35:9a:d5:80:2b:4d:
                    56:28:e5:66:c6:fd:1b:df:14:59:a4:f7:d0:be:74:
                    16:6f:bc:2c:4e:15:c5:dc:4f:43:58:9c:aa:69:66:
                    a5:fb:79:4f:b4:21:09:df:fa:62:a4:50:59:e8:25:
                    1d:54:53:33:a4:f0:9c:74:f5:a8:62:21:73:35:ce:
                    7d:f2:a3:ed:4c:70:a1:80:d2:47:a0:55:ca:22:4c:
                    2e:5c:9f:00:b9:8b:f8:b6:b4:fd:53:8d:4d:03:b9:
                    b8:23:01:54:23:16:65:01:27:91:b6:ea:b9:b9:61:
                    07:a5:b8:13:8c:ac:db:ab:09:74:d6:81:f9:d0:6b:
                    80:6a:f9:39:ec:5d:7b:7e:dc:19:48:40:3f:88:4e:
                    11:ac:ae:0d:02:7f:6e:92:83:81:93:bc:99:d0:00:
                    db:b8:13:44:88:a7:23:51:a6:29:1a:52:6a:e7:70:
                    03:ff:14:81:16:40:69:c4:b9:62:c3:af:4e:f6:be:
                    2d:63:b6:13:2b:9b:29:a3:4b:0e:b9:71:79:fb:70:
                    b1:95:d7:ce:ef:74:b8:ab:c6:67:d4:b1:3d:c0:6b:
                    06:0e:7e:ca:ad:29:f4:18:9d:e7:89:02:27:69:9e:
                    cc:f9:e5:64:78:fe:44:e9:e4:5c:1c:2b:e9:d5:57:
                    8b:99:f0:2d:7a:6c:4d:0b:b5:e6:d1:d3:5f:e3:31:
                    9a:3d:73:16:51:5b:83:bc:30:2b:8f:2d:6e:a4:30:
                    c6:5c:a0:d8:3e:be:78:f3:73:aa:cb:e9:b9:b4:9d:
                    1c:70:6f:de:9c:e5:d4:62:9b:ab:f5:b9:a1:54:60:
                    b1:7a:4f:97:f4:e1:57:f1:36:45:0c:88:b1:ca:dd:
                    3e:1d:13:73:a3:3c:bc:bf:c2:9f:80:44:66:67:b3:
                    32:ce:bb:e1:4b:56:e0:e7:52:14:2d:22:f4:38:a8:
                    99:ed:6d:9a:76:78:eb:a8:96:3c:76:4b:1d:67:99:
                    91:25:6f:91:a9:28:ee:9c:c7:1f:fb:08:c2:81:19:
                    17:e7:85:8c:a7:ad:1b:7f:d0:f8:01:29:3a:62:c1:
                    19:92:4d:62:3b:67:95:01:13:fd:87:11:61:d1:18:
                    34:66:b5
                Exponent: 65537 (0x10001)
        X509v3 extensions:
            X509v3 Basic Constraints: 
                CA:FALSE
            Netscape Comment: 
                Easy-RSA Generated Certificate
            X509v3 Subject Key Identifier: 
                A4:08:35:FE:15:1D:16:B5:61:60:37:74:2A:55:A3:31:F3:3D:28:96
            X509v3 Authority Key Identifier: 
                keyid:EF:38:8D:14:50:58:A7:5B:4D:9C:17:72:FC:DF:B9:AC:A7:51:B0:10
                DirName:/C=US/ST=CA/L=SanFrancisco/O=Pixglo, Inc./OU=VPN-CIE/CN=tunnel.pixglo.com/name=Bala Chandrasekaran/emailAddress=bala@pixglo.com
                serial:A6:DB:C6:83:80:E6:A0:79

            X509v3 Extended Key Usage: 
                TLS Web Client Authentication
            X509v3 Key Usage: 
                Digital Signature
    Signature Algorithm: sha1WithRSAEncryption
         35:69:6b:49:ac:0c:64:fd:a9:18:84:ee:a1:11:0d:31:6c:47:
         23:1a:bf:d1:4b:ac:7a:07:56:d1:13:38:ff:0d:8d:82:70:cb:
         80:22:bf:55:0e:67:72:4d:01:ea:b7:e1:cf:44:05:fa:81:dc:
         ff:f8:ac:91:5f:0b:c3:5d:82:76:c3:ee:83:11:b3:f9:50:7d:
         ab:da:59:f6:c9:2e:c8:e0:65:89:79:74:0e:0f:a4:48:19:14:
         29:26:9c:43:85:35:50:05:c2:f0:45:0c:35:13:e2:87:8e:54:
         35:20:6f:f6:9e:37:d6:e3:35:93:ff:a9:d4:e9:09:7d:e7:5b:
         a5:30:30:58:78:f5:11:2b:aa:ba:5d:75:0f:e1:19:e0:08:34:
         2d:7f:ca:7c:46:05:1c:7e:76:e6:d2:dd:30:f9:68:02:a9:0b:
         5b:3e:aa:e3:af:0e:de:50:0d:bc:6f:40:6e:07:71:5a:78:f2:
         23:2d:fc:25:27:4f:12:f4:45:61:08:25:73:12:64:0d:63:eb:
         57:fa:6d:47:a7:89:af:ee:32:78:93:09:4c:95:9e:d6:0c:00:
         1b:72:ea:db:6f:aa:06:a5:7d:bd:99:ae:62:74:87:1f:60:11:
         44:26:87:eb:67:31:05:6f:cd:89:97:fb:a9:0f:14:c6:5d:e6:
         db:ea:0b:d2:64:e9:1c:7f:6b:bc:dd:b8:50:95:d7:10:b3:51:
         eb:79:92:64:4a:de:6b:2d:3b:27:d0:20:43:12:13:b5:80:85:
         7d:a2:0f:f1:3f:ec:3b:f8:dd:f1:41:eb:40:19:87:ee:6a:01:
         3d:b5:09:e6:c9:e4:34:1b:38:7d:24:6a:86:f6:10:a0:75:ed:
         da:84:af:ff:24:8f:3a:01:25:19:77:0a:bf:c1:5d:b4:f3:73:
         09:15:ed:9d:f7:41:15:d7:1f:7c:bb:7d:df:02:e0:2a:eb:19:
         ab:0d:7e:43:bf:2f:6d:44:0f:11:88:5f:19:bc:62:2a:9d:0f:
         5d:7c:b1:2c:6f:e4:69:d0:1f:dd:df:b0:0b:96:c2:a5:4f:b8:
         97:0a:04:04:ce:dd:bc:a3:01:31:15:77:ce:cd:e0:13:97:1f:
         52:1b:c6:22:09:03:d8:f0:4d:25:2a:24:a9:c0:85:35:04:b6:
         ae:0a:99:e4:a4:03:c2:92:c6:5f:4e:f5:94:a3:6f:27:5d:f2:
         d9:cd:c4:79:f1:89:f3:f0:d7:38:57:d9:91:f6:ec:02:31:f5:
         fb:2d:6d:f4:6f:51:c7:b0:61:c1:9c:ed:61:ea:1a:fd:10:58:
         8c:c3:d7:01:5d:38:ac:e0:de:d4:ea:e9:f2:a2:bb:89:18:d1:
         db:53:67:ac:12:36:cf:7f
-----BEGIN CERTIFICATE-----
MIIHSDCCBTCgAwIBAgICAvkwDQYJKoZIhvcNAQEFBQAwgbQxCzAJBgNVBAYTAlVT
MQswCQYDVQQIEwJDQTEVMBMGA1UEBxMMU2FuRnJhbmNpc2NvMRUwEwYDVQQKEwxQ
aXhnbG8sIEluYy4xEDAOBgNVBAsTB1ZQTi1DSUUxGjAYBgNVBAMTEXR1bm5lbC5w
aXhnbG8uY29tMRwwGgYDVQQpExNCYWxhIENoYW5kcmFzZWthcmFuMR4wHAYJKoZI
hvcNAQkBFg9iYWxhQHBpeGdsby5jb20wHhcNMTgwMjE0MDY0MjQ1WhcNMjgwMjEy
MDY0MjQ1WjCBqTELMAkGA1UEBhMCVVMxCzAJBgNVBAgTAkNBMRUwEwYDVQQHEwxT
YW5GcmFuY2lzY28xFTATBgNVBAoTDFBpeGdsbywgSW5jLjEQMA4GA1UECxMHVlBO
LUNJRTEPMA0GA1UEAxMGY2llNzYwMRwwGgYDVQQpExNCYWxhIENoYW5kcmFzZWth
cmFuMR4wHAYJKoZIhvcNAQkBFg9iYWxhQHBpeGdsby5jb20wggIiMA0GCSqGSIb3
DQEBAQUAA4ICDwAwggIKAoICAQC/dAtbCqywQ7/6RcDlirF+FojmQOzvyG4bd1fQ
HpR3SQSqOGT7d8H6NTZ+D5qkk4SodrtowSswFGZD+wIoKyKKdmUWbw9izxf0HAZ+
CEZ0ZVVAOnkZ/WQg4Re1qd60Py4ICTWa1YArTVYo5WbG/RvfFFmk99C+dBZvvCxO
FcXcT0NYnKppZqX7eU+0IQnf+mKkUFnoJR1UUzOk8Jx09ahiIXM1zn3yo+1McKGA
0kegVcoiTC5cnwC5i/i2tP1TjU0DubgjAVQjFmUBJ5G26rm5YQeluBOMrNurCXTW
gfnQa4Bq+TnsXXt+3BlIQD+IThGsrg0Cf26Sg4GTvJnQANu4E0SIpyNRpikaUmrn
cAP/FIEWQGnEuWLDr072vi1jthMrmymjSw65cXn7cLGV187vdLirxmfUsT3AawYO
fsqtKfQYneeJAidpnsz55WR4/kTp5FwcK+nVV4uZ8C16bE0LtebR01/jMZo9cxZR
W4O8MCuPLW6kMMZcoNg+vnjzc6rL6bm0nRxwb96c5dRim6v1uaFUYLF6T5f04Vfx
NkUMiLHK3T4dE3OjPLy/wp+ARGZnszLOu+FLVuDnUhQtIvQ4qJntbZp2eOuoljx2
Sx1nmZElb5GpKO6cxx/7CMKBGRfnhYynrRt/0PgBKTpiwRmSTWI7Z5UBE/2HEWHR
GDRmtQIDAQABo4IBazCCAWcwCQYDVR0TBAIwADAtBglghkgBhvhCAQ0EIBYeRWFz
eS1SU0EgR2VuZXJhdGVkIENlcnRpZmljYXRlMB0GA1UdDgQWBBSkCDX+FR0WtWFg
N3QqVaMx8z0oljCB6QYDVR0jBIHhMIHegBTvOI0UUFinW02cF3L837msp1GwEKGB
uqSBtzCBtDELMAkGA1UEBhMCVVMxCzAJBgNVBAgTAkNBMRUwEwYDVQQHEwxTYW5G
cmFuY2lzY28xFTATBgNVBAoTDFBpeGdsbywgSW5jLjEQMA4GA1UECxMHVlBOLUNJ
RTEaMBgGA1UEAxMRdHVubmVsLnBpeGdsby5jb20xHDAaBgNVBCkTE0JhbGEgQ2hh
bmRyYXNla2FyYW4xHjAcBgkqhkiG9w0BCQEWD2JhbGFAcGl4Z2xvLmNvbYIJAKbb
xoOA5qB5MBMGA1UdJQQMMAoGCCsGAQUFBwMCMAsGA1UdDwQEAwIHgDANBgkqhkiG
9w0BAQUFAAOCAgEANWlrSawMZP2pGITuoRENMWxHIxq/0UusegdW0RM4/w2NgnDL
gCK/VQ5nck0B6rfhz0QF+oHc//iskV8Lw12CdsPugxGz+VB9q9pZ9skuyOBliXl0
Dg+kSBkUKSacQ4U1UAXC8EUMNRPih45UNSBv9p431uM1k/+p1OkJfedbpTAwWHj1
ESuqul11D+EZ4Ag0LX/KfEYFHH525tLdMPloAqkLWz6q468O3lANvG9AbgdxWnjy
Iy38JSdPEvRFYQglcxJkDWPrV/ptR6eJr+4yeJMJTJWe1gwAG3Lq22+qBqV9vZmu
YnSHH2ARRCaH62cxBW/NiZf7qQ8Uxl3m2+oL0mTpHH9rvN24UJXXELNR63mSZEre
ay07J9AgQxITtYCFfaIP8T/sO/jd8UHrQBmH7moBPbUJ5snkNBs4fSRqhvYQoHXt
2oSv/ySPOgElGXcKv8FdtPNzCRXtnfdBFdcffLt93wLgKusZqw1+Q78vbUQPEYhf
GbxiKp0PXXyxLG/kadAf3d+wC5bCpU+4lwoEBM7dvKMBMRV3zs3gE5cfUhvGIgkD
2PBNJSokqcCFNQS2rgqZ5KQDwpLGX071lKNvJ13y2c3EefGJ8/DXOFfZkfbsAjH1
+y1t9G9Rx7BhwZztYeoa/RBYjMPXAV04rODe1Orp8qK7iRjR21NnrBI2z38=
-----END CERTIFICATE-----
