Certificate:
    Data:
        Version: 3 (0x2)
        Serial Number: 763 (0x2fb)
    Signature Algorithm: sha1WithRSAEncryption
        Issuer: C=US, ST=CA, L=SanFrancisco, O=Pixglo, Inc., OU=VPN-CIE, CN=tunnel.pixglo.com/name=Bala Chandrasekaran/emailAddress=bala@pixglo.com
        Validity
            Not Before: Feb 14 06:42:48 2018 GMT
            Not After : Feb 12 06:42:48 2028 GMT
        Subject: C=US, ST=CA, L=SanFrancisco, O=Pixglo, Inc., OU=VPN-CIE, CN=cie762/name=Bala Chandrasekaran/emailAddress=bala@pixglo.com
        Subject Public Key Info:
            Public Key Algorithm: rsaEncryption
                Public-Key: (4096 bit)
                Modulus:
                    00:b5:ee:5d:10:85:ac:3a:9a:23:fe:5e:89:7c:07:
                    5f:04:3a:d1:1d:99:4c:16:81:02:af:2f:de:7f:7e:
                    2e:f0:ac:53:e0:35:12:fa:41:c8:18:06:ee:d3:b8:
                    b3:1b:3e:d1:67:91:44:2c:8d:ce:29:96:2f:06:cf:
                    4a:6e:80:87:7d:4c:ea:1f:aa:b6:a3:12:f1:e0:4c:
                    c8:0c:8a:da:3f:0b:da:a0:8d:3a:6f:80:1b:48:fa:
                    0b:7c:a6:76:81:d6:40:44:14:3e:cb:42:40:54:0b:
                    5b:52:5b:55:a9:aa:35:f6:56:b1:33:ac:02:1a:66:
                    44:14:b1:34:94:a0:a1:78:d8:87:cf:f4:b8:03:f8:
                    1c:6d:8f:11:54:20:59:96:03:b6:f7:30:da:bb:5a:
                    4d:6b:5e:de:7f:bb:e2:ff:f6:00:be:1b:56:f3:d9:
                    7a:d7:bc:64:46:d6:c9:b3:b9:a1:dd:9e:50:e1:a0:
                    33:94:68:20:86:6d:dc:c0:24:18:12:3b:02:70:e2:
                    ac:e3:ab:92:12:fc:98:47:54:03:41:3d:cb:51:b6:
                    04:0c:39:20:a7:92:bb:2e:7f:ef:10:20:18:3b:7f:
                    96:8f:d2:ee:8a:62:be:c6:bf:c6:3c:6f:ff:0e:7d:
                    30:3b:6e:a9:71:71:c4:bf:69:64:45:f9:9c:16:8a:
                    7f:7f:31:ab:db:fc:d4:21:56:80:2a:7a:d6:9b:cd:
                    b5:10:5b:f8:64:18:be:7e:16:e4:b6:53:f9:e3:91:
                    29:08:73:35:9f:e8:68:36:eb:e5:a1:6b:e6:29:dd:
                    fd:a1:7a:94:16:80:71:ba:de:57:d0:32:3d:99:02:
                    82:18:23:ca:fb:2f:0a:36:6b:ef:02:4e:26:4a:f7:
                    11:a2:4e:ec:c3:df:e9:9c:91:4a:6b:f4:63:04:f6:
                    96:5d:a2:52:bf:4a:0b:2b:66:01:fe:47:f8:0d:f6:
                    a7:a8:92:24:e0:a0:85:33:c3:6b:e8:01:b0:a0:cd:
                    4e:80:7f:3d:29:b7:04:17:46:42:6c:87:e0:1c:56:
                    ee:f8:8e:04:46:c6:d8:28:e9:69:1d:f5:cf:05:4b:
                    6a:d0:fc:5b:25:fb:cb:d9:19:92:4e:69:7f:1d:42:
                    57:78:c1:f9:ee:e7:52:50:72:64:64:d4:83:d2:58:
                    2c:12:76:88:88:60:ea:51:2a:df:f9:54:70:4b:b8:
                    38:f0:f0:34:4b:62:94:76:db:1d:85:8d:25:34:33:
                    65:0d:f3:6e:a7:0c:2d:7d:d9:0b:e0:c2:0a:d0:ce:
                    f1:84:52:60:2b:ea:e8:75:0e:18:c3:26:1f:95:af:
                    87:fb:ed:fb:0f:f5:40:52:2f:51:5a:e9:c7:48:3e:
                    53:95:71
                Exponent: 65537 (0x10001)
        X509v3 extensions:
            X509v3 Basic Constraints: 
                CA:FALSE
            Netscape Comment: 
                Easy-RSA Generated Certificate
            X509v3 Subject Key Identifier: 
                12:FA:1F:4F:CF:6D:DE:FD:59:D2:B9:0F:F6:52:61:DA:28:A0:CB:40
            X509v3 Authority Key Identifier: 
                keyid:EF:38:8D:14:50:58:A7:5B:4D:9C:17:72:FC:DF:B9:AC:A7:51:B0:10
                DirName:/C=US/ST=CA/L=SanFrancisco/O=Pixglo, Inc./OU=VPN-CIE/CN=tunnel.pixglo.com/name=Bala Chandrasekaran/emailAddress=bala@pixglo.com
                serial:A6:DB:C6:83:80:E6:A0:79

            X509v3 Extended Key Usage: 
                TLS Web Client Authentication
            X509v3 Key Usage: 
                Digital Signature
    Signature Algorithm: sha1WithRSAEncryption
         a6:46:f7:a8:d9:25:5a:08:b4:29:de:20:f4:58:47:bf:d9:b8:
         14:5e:ff:1f:0c:0d:e2:38:c0:d7:82:e3:3c:14:ab:ae:8a:a1:
         dd:d8:2d:d6:8d:7c:7c:97:5f:ce:4b:69:e1:7d:a3:ce:3e:22:
         51:db:fc:29:7b:5d:91:05:0c:04:9a:63:f1:a9:0a:f5:63:8a:
         3b:52:07:35:72:cf:07:0c:e4:53:a2:13:c7:b2:03:6d:5a:5e:
         27:42:47:15:fc:db:92:33:f7:21:ac:d3:3a:fb:d2:33:e0:17:
         0c:18:49:d3:cc:de:70:e1:55:d0:46:ec:23:2f:a6:12:81:c6:
         00:2b:68:ed:a9:30:10:d4:72:81:eb:c9:90:ce:d8:a4:55:e1:
         80:0c:0f:5e:1a:0e:08:15:3c:2c:81:12:24:b8:ce:61:fe:70:
         b8:2b:c8:29:d7:a5:5b:ab:2f:2b:18:68:fd:8b:e4:95:be:8a:
         d3:54:4d:cb:31:12:42:2c:44:b8:ba:5b:01:2c:e2:5c:31:18:
         f0:c7:36:2b:2d:43:14:9f:48:42:76:11:b8:6f:22:03:a8:fa:
         97:d6:82:7e:e6:e5:c6:dc:44:65:fa:fb:c5:10:96:92:a2:41:
         70:4d:9e:95:bf:81:d3:a0:07:92:ab:37:91:63:b8:f3:75:fa:
         b4:89:ba:42:5f:ae:c4:01:ba:cb:4b:82:86:c3:d1:b1:53:78:
         be:ec:f9:ab:73:8d:14:b0:36:2e:87:e0:b1:b1:14:22:71:48:
         8e:41:56:8d:04:47:36:81:0a:38:af:bc:a7:c7:a5:f1:89:af:
         ca:d6:36:9d:1e:16:20:99:17:7b:3f:16:6f:7f:0e:10:4a:5a:
         88:f3:f7:92:f0:43:4c:c9:a1:d5:11:14:76:f8:51:c8:11:f5:
         45:76:65:0a:db:25:2e:53:47:06:f6:ee:a9:04:f1:28:ef:1f:
         2e:2c:c3:27:4c:27:88:64:82:20:d8:fa:a3:9f:be:de:71:27:
         52:3a:81:85:04:3b:f9:f3:1e:e1:d1:ae:cc:3f:50:79:c4:a2:
         ce:af:80:20:12:09:75:5c:e6:97:b7:d1:a2:37:7e:02:06:07:
         ac:eb:d0:a1:65:81:3a:23:74:ac:80:f3:57:4c:7f:5d:df:b6:
         81:be:33:c5:ef:0a:92:f8:af:7b:46:5b:3a:81:59:81:9c:5a:
         44:c3:20:3f:78:7f:c4:b7:17:80:ed:89:ad:e0:d5:06:ef:11:
         26:cc:2d:f0:d5:74:23:77:cd:d3:53:4a:aa:e1:c7:39:c9:62:
         20:71:18:4b:43:92:4b:57:72:f7:38:6d:25:34:1e:d4:73:dc:
         7c:92:95:d1:2f:75:a3:4a
-----BEGIN CERTIFICATE-----
MIIHSDCCBTCgAwIBAgICAvswDQYJKoZIhvcNAQEFBQAwgbQxCzAJBgNVBAYTAlVT
MQswCQYDVQQIEwJDQTEVMBMGA1UEBxMMU2FuRnJhbmNpc2NvMRUwEwYDVQQKEwxQ
aXhnbG8sIEluYy4xEDAOBgNVBAsTB1ZQTi1DSUUxGjAYBgNVBAMTEXR1bm5lbC5w
aXhnbG8uY29tMRwwGgYDVQQpExNCYWxhIENoYW5kcmFzZWthcmFuMR4wHAYJKoZI
hvcNAQkBFg9iYWxhQHBpeGdsby5jb20wHhcNMTgwMjE0MDY0MjQ4WhcNMjgwMjEy
MDY0MjQ4WjCBqTELMAkGA1UEBhMCVVMxCzAJBgNVBAgTAkNBMRUwEwYDVQQHEwxT
YW5GcmFuY2lzY28xFTATBgNVBAoTDFBpeGdsbywgSW5jLjEQMA4GA1UECxMHVlBO
LUNJRTEPMA0GA1UEAxMGY2llNzYyMRwwGgYDVQQpExNCYWxhIENoYW5kcmFzZWth
cmFuMR4wHAYJKoZIhvcNAQkBFg9iYWxhQHBpeGdsby5jb20wggIiMA0GCSqGSIb3
DQEBAQUAA4ICDwAwggIKAoICAQC17l0Qhaw6miP+Xol8B18EOtEdmUwWgQKvL95/
fi7wrFPgNRL6QcgYBu7TuLMbPtFnkUQsjc4pli8Gz0pugId9TOofqrajEvHgTMgM
ito/C9qgjTpvgBtI+gt8pnaB1kBEFD7LQkBUC1tSW1WpqjX2VrEzrAIaZkQUsTSU
oKF42IfP9LgD+BxtjxFUIFmWA7b3MNq7Wk1rXt5/u+L/9gC+G1bz2XrXvGRG1smz
uaHdnlDhoDOUaCCGbdzAJBgSOwJw4qzjq5IS/JhHVANBPctRtgQMOSCnkrsuf+8Q
IBg7f5aP0u6KYr7Gv8Y8b/8OfTA7bqlxccS/aWRF+ZwWin9/Mavb/NQhVoAqetab
zbUQW/hkGL5+FuS2U/njkSkIczWf6Gg26+Wha+Yp3f2hepQWgHG63lfQMj2ZAoIY
I8r7Lwo2a+8CTiZK9xGiTuzD3+mckUpr9GME9pZdolK/SgsrZgH+R/gN9qeokiTg
oIUzw2voAbCgzU6Afz0ptwQXRkJsh+AcVu74jgRGxtgo6Wkd9c8FS2rQ/Fsl+8vZ
GZJOaX8dQld4wfnu51JQcmRk1IPSWCwSdoiIYOpRKt/5VHBLuDjw8DRLYpR22x2F
jSU0M2UN826nDC192QvgwgrQzvGEUmAr6uh1DhjDJh+Vr4f77fsP9UBSL1Fa6cdI
PlOVcQIDAQABo4IBazCCAWcwCQYDVR0TBAIwADAtBglghkgBhvhCAQ0EIBYeRWFz
eS1SU0EgR2VuZXJhdGVkIENlcnRpZmljYXRlMB0GA1UdDgQWBBQS+h9Pz23e/VnS
uQ/2UmHaKKDLQDCB6QYDVR0jBIHhMIHegBTvOI0UUFinW02cF3L837msp1GwEKGB
uqSBtzCBtDELMAkGA1UEBhMCVVMxCzAJBgNVBAgTAkNBMRUwEwYDVQQHEwxTYW5G
cmFuY2lzY28xFTATBgNVBAoTDFBpeGdsbywgSW5jLjEQMA4GA1UECxMHVlBOLUNJ
RTEaMBgGA1UEAxMRdHVubmVsLnBpeGdsby5jb20xHDAaBgNVBCkTE0JhbGEgQ2hh
bmRyYXNla2FyYW4xHjAcBgkqhkiG9w0BCQEWD2JhbGFAcGl4Z2xvLmNvbYIJAKbb
xoOA5qB5MBMGA1UdJQQMMAoGCCsGAQUFBwMCMAsGA1UdDwQEAwIHgDANBgkqhkiG
9w0BAQUFAAOCAgEApkb3qNklWgi0Kd4g9FhHv9m4FF7/HwwN4jjA14LjPBSrroqh
3dgt1o18fJdfzktp4X2jzj4iUdv8KXtdkQUMBJpj8akK9WOKO1IHNXLPBwzkU6IT
x7IDbVpeJ0JHFfzbkjP3IazTOvvSM+AXDBhJ08zecOFV0EbsIy+mEoHGACto7akw
ENRygevJkM7YpFXhgAwPXhoOCBU8LIESJLjOYf5wuCvIKdelW6svKxho/Yvklb6K
01RNyzESQixEuLpbASziXDEY8Mc2Ky1DFJ9IQnYRuG8iA6j6l9aCfublxtxEZfr7
xRCWkqJBcE2elb+B06AHkqs3kWO483X6tIm6Ql+uxAG6y0uChsPRsVN4vuz5q3ON
FLA2LofgsbEUInFIjkFWjQRHNoEKOK+8p8el8YmvytY2nR4WIJkXez8Wb38OEEpa
iPP3kvBDTMmh1REUdvhRyBH1RXZlCtslLlNHBvbuqQTxKO8fLizDJ0wniGSCINj6
o5++3nEnUjqBhQQ7+fMe4dGuzD9QecSizq+AIBIJdVzml7fRojd+AgYHrOvQoWWB
OiN0rIDzV0x/Xd+2gb4zxe8Kkvive0ZbOoFZgZxaRMMgP3h/xLcXgO2JreDVBu8R
Jswt8NV0I3fN01NKquHHOcliIHEYS0OSS1dy9zhtJTQe1HPcfJKV0S91o0o=
-----END CERTIFICATE-----
