Certificate:
    Data:
        Version: 3 (0x2)
        Serial Number: 764 (0x2fc)
    Signature Algorithm: sha1WithRSAEncryption
        Issuer: C=US, ST=CA, L=SanFrancisco, O=Pixglo, Inc., OU=VPN-CIE, CN=tunnel.pixglo.com/name=Bala Chandrasekaran/emailAddress=bala@pixglo.com
        Validity
            Not Before: Feb 14 06:42:50 2018 GMT
            Not After : Feb 12 06:42:50 2028 GMT
        Subject: C=US, ST=CA, L=SanFrancisco, O=Pixglo, Inc., OU=VPN-CIE, CN=cie763/name=Bala Chandrasekaran/emailAddress=bala@pixglo.com
        Subject Public Key Info:
            Public Key Algorithm: rsaEncryption
                Public-Key: (4096 bit)
                Modulus:
                    00:c8:c6:e1:fb:9f:e7:96:12:5f:a3:16:72:7c:8d:
                    3c:11:69:71:b9:41:27:d0:04:44:55:49:0b:f8:87:
                    7a:92:6c:02:e7:2d:e8:99:c9:4a:4a:27:73:fa:36:
                    e1:9a:f3:2d:e9:54:df:76:c1:7e:7c:fa:89:73:14:
                    ed:5f:04:3b:ac:a6:69:20:98:2c:8a:ff:f9:e2:21:
                    83:bb:4e:33:b3:4d:06:91:dd:4e:9c:7e:c4:ff:c6:
                    88:34:c5:7f:06:2d:b6:b2:f2:8e:5d:8c:6d:52:18:
                    5c:d3:03:5c:56:9f:b9:a1:15:b7:77:b4:e2:8d:8d:
                    cc:49:2a:e7:c3:a4:de:ce:93:92:6c:7e:0b:d9:d8:
                    e9:0b:3e:94:db:9d:6a:fb:49:04:c4:7f:0a:58:17:
                    ba:42:06:8c:42:e7:bd:59:2e:04:5a:c6:de:62:26:
                    a7:8b:96:73:a1:a4:fe:9b:d4:d4:66:b2:ed:fa:95:
                    89:ae:60:7c:4e:a3:07:30:62:a8:36:ac:bd:af:e4:
                    24:ef:44:05:9b:6e:02:57:84:78:8c:bb:53:62:4b:
                    19:c3:98:da:db:af:18:d7:5a:5e:19:fa:22:0d:12:
                    d5:fb:41:26:cf:da:ee:6d:38:fd:94:47:6b:09:6a:
                    c6:31:f2:aa:a5:a3:e1:00:4e:8a:00:13:85:3e:c5:
                    14:25:6e:16:0b:92:52:66:87:fa:ce:c7:29:06:e0:
                    3d:4b:46:79:97:b0:ca:94:c0:bd:62:87:88:a9:5a:
                    b7:30:dc:1f:93:ee:33:f0:79:f3:58:01:5d:13:9c:
                    46:0b:82:88:0a:c2:f1:f9:ad:e3:5f:df:fd:52:91:
                    b5:a4:d2:55:46:2b:e8:d5:3f:cc:5b:3c:8a:c5:27:
                    f1:c0:2b:50:9f:a2:e9:34:a6:66:7d:ae:f8:21:13:
                    79:6e:65:a3:91:6b:a1:23:ca:7f:81:9e:6b:5f:4d:
                    d1:24:1a:bb:85:ba:7b:91:66:0c:a4:63:7b:c0:18:
                    12:1d:52:62:d5:67:fc:02:d8:f3:b5:60:26:62:0a:
                    5c:13:68:ea:6e:bc:cc:59:aa:c9:ec:24:ed:db:d7:
                    9f:f8:9e:34:9e:41:22:57:86:68:13:9b:c2:c4:fc:
                    7c:c2:d6:57:35:a9:d1:8c:02:c0:d4:c7:0a:b0:74:
                    7d:8e:31:09:cb:70:0f:89:a7:5b:d5:d7:61:ec:96:
                    9a:a5:3a:c7:7f:a6:81:d7:c3:d3:c3:c4:1d:67:8c:
                    f1:8c:7e:58:f6:e1:ed:30:19:1f:87:9c:c5:66:ad:
                    5f:2b:e6:6e:d2:8e:15:8a:7d:b8:a4:df:54:48:b1:
                    7c:44:aa:51:ef:31:43:9e:6d:30:f7:47:ef:42:c4:
                    cf:96:4f
                Exponent: 65537 (0x10001)
        X509v3 extensions:
            X509v3 Basic Constraints: 
                CA:FALSE
            Netscape Comment: 
                Easy-RSA Generated Certificate
            X509v3 Subject Key Identifier: 
                DF:CF:FA:87:74:4C:18:EE:78:52:26:FD:F3:AE:2C:52:F6:33:61:76
            X509v3 Authority Key Identifier: 
                keyid:EF:38:8D:14:50:58:A7:5B:4D:9C:17:72:FC:DF:B9:AC:A7:51:B0:10
                DirName:/C=US/ST=CA/L=SanFrancisco/O=Pixglo, Inc./OU=VPN-CIE/CN=tunnel.pixglo.com/name=Bala Chandrasekaran/emailAddress=bala@pixglo.com
                serial:A6:DB:C6:83:80:E6:A0:79

            X509v3 Extended Key Usage: 
                TLS Web Client Authentication
            X509v3 Key Usage: 
                Digital Signature
    Signature Algorithm: sha1WithRSAEncryption
         d9:d6:2c:3a:f0:7f:1e:0a:29:a8:56:29:6c:19:4b:71:0a:e3:
         2b:fb:db:99:b5:94:65:39:39:50:1a:7f:7b:84:4a:58:d4:b5:
         3d:db:a8:e2:99:b3:f1:3e:a4:93:db:8c:da:9a:08:3f:49:09:
         55:b6:16:ba:ee:f2:42:81:b6:49:ae:84:1e:d6:2e:5c:19:48:
         9b:6e:fc:81:51:1e:af:53:83:22:c3:e9:ff:29:1e:5e:19:f3:
         e4:0d:3f:1b:00:a4:13:0b:63:10:25:63:b2:52:5a:51:dc:ab:
         12:2d:81:73:2d:e0:bc:6e:05:d7:e0:24:70:99:64:61:cc:5d:
         6d:9f:b4:1d:8d:d7:23:f9:6f:bf:1b:7c:e7:cb:32:42:17:49:
         f4:3d:c8:21:ac:d7:59:95:58:e3:3e:59:e0:49:33:bb:b0:1f:
         db:7c:ad:08:73:43:19:15:cf:5a:e8:aa:d2:44:b0:ec:39:18:
         68:5f:ee:0d:fb:14:a3:5f:46:2a:69:63:64:7a:79:02:9c:66:
         47:60:6d:a2:b7:7a:b3:47:ba:2b:22:c4:27:39:e3:2f:0e:8e:
         5f:f9:c4:61:b7:9d:64:f1:51:f0:9c:98:af:41:d9:5d:30:22:
         e1:ed:98:4c:60:2d:02:38:e5:63:e4:8d:73:54:b1:99:9a:8d:
         18:00:7a:f7:42:86:d9:da:cb:68:b2:81:c1:18:93:e6:bc:1d:
         b9:02:fc:15:01:c3:6e:11:7f:5d:55:3e:0a:ab:81:82:14:28:
         ba:6f:ba:df:a7:3f:26:c3:a8:df:f2:4f:56:5c:8e:10:a2:57:
         16:e3:70:6c:1c:c5:a6:91:50:8f:16:db:0a:62:0c:98:c1:5c:
         6a:ef:64:0c:e9:57:ff:43:fd:53:06:8b:c4:eb:55:1b:75:bf:
         68:c3:8e:a3:6e:09:58:30:2b:f0:d6:48:90:98:2d:a3:1e:0f:
         7c:ff:ca:4f:88:5e:99:11:82:16:56:66:3f:ec:7b:55:96:bb:
         19:f2:1e:e3:1b:15:df:19:47:44:e2:96:c4:5d:9d:72:9b:26:
         1c:35:ad:28:57:a5:93:91:10:cf:7e:68:26:8f:f1:cf:cb:85:
         c3:1a:7c:68:63:03:a4:a6:74:71:00:13:42:09:f0:24:94:44:
         7f:c7:05:5f:91:46:2b:cc:33:68:f2:90:b8:6c:0f:92:3f:ed:
         08:d0:71:c7:28:83:42:93:75:62:75:6c:9b:d6:9d:68:dd:fb:
         ff:7d:61:32:a4:9d:24:3b:b1:ae:f7:08:b3:35:e6:0b:2b:a8:
         8b:f6:56:3c:92:e7:50:30:18:08:3f:ed:80:db:a6:ca:2f:d3:
         e5:e3:c4:a8:d7:79:b3:94
-----BEGIN CERTIFICATE-----
MIIHSDCCBTCgAwIBAgICAvwwDQYJKoZIhvcNAQEFBQAwgbQxCzAJBgNVBAYTAlVT
MQswCQYDVQQIEwJDQTEVMBMGA1UEBxMMU2FuRnJhbmNpc2NvMRUwEwYDVQQKEwxQ
aXhnbG8sIEluYy4xEDAOBgNVBAsTB1ZQTi1DSUUxGjAYBgNVBAMTEXR1bm5lbC5w
aXhnbG8uY29tMRwwGgYDVQQpExNCYWxhIENoYW5kcmFzZWthcmFuMR4wHAYJKoZI
hvcNAQkBFg9iYWxhQHBpeGdsby5jb20wHhcNMTgwMjE0MDY0MjUwWhcNMjgwMjEy
MDY0MjUwWjCBqTELMAkGA1UEBhMCVVMxCzAJBgNVBAgTAkNBMRUwEwYDVQQHEwxT
YW5GcmFuY2lzY28xFTATBgNVBAoTDFBpeGdsbywgSW5jLjEQMA4GA1UECxMHVlBO
LUNJRTEPMA0GA1UEAxMGY2llNzYzMRwwGgYDVQQpExNCYWxhIENoYW5kcmFzZWth
cmFuMR4wHAYJKoZIhvcNAQkBFg9iYWxhQHBpeGdsby5jb20wggIiMA0GCSqGSIb3
DQEBAQUAA4ICDwAwggIKAoICAQDIxuH7n+eWEl+jFnJ8jTwRaXG5QSfQBERVSQv4
h3qSbALnLeiZyUpKJ3P6NuGa8y3pVN92wX58+olzFO1fBDuspmkgmCyK//niIYO7
TjOzTQaR3U6cfsT/xog0xX8GLbay8o5djG1SGFzTA1xWn7mhFbd3tOKNjcxJKufD
pN7Ok5JsfgvZ2OkLPpTbnWr7SQTEfwpYF7pCBoxC571ZLgRaxt5iJqeLlnOhpP6b
1NRmsu36lYmuYHxOowcwYqg2rL2v5CTvRAWbbgJXhHiMu1NiSxnDmNrbrxjXWl4Z
+iINEtX7QSbP2u5tOP2UR2sJasYx8qqlo+EATooAE4U+xRQlbhYLklJmh/rOxykG
4D1LRnmXsMqUwL1ih4ipWrcw3B+T7jPwefNYAV0TnEYLgogKwvH5reNf3/1SkbWk
0lVGK+jVP8xbPIrFJ/HAK1Cfouk0pmZ9rvghE3luZaORa6Ejyn+BnmtfTdEkGruF
unuRZgykY3vAGBIdUmLVZ/wC2PO1YCZiClwTaOpuvMxZqsnsJO3b15/4njSeQSJX
hmgTm8LE/HzC1lc1qdGMAsDUxwqwdH2OMQnLcA+Jp1vV12HslpqlOsd/poHXw9PD
xB1njPGMflj24e0wGR+HnMVmrV8r5m7SjhWKfbik31RIsXxEqlHvMUOebTD3R+9C
xM+WTwIDAQABo4IBazCCAWcwCQYDVR0TBAIwADAtBglghkgBhvhCAQ0EIBYeRWFz
eS1SU0EgR2VuZXJhdGVkIENlcnRpZmljYXRlMB0GA1UdDgQWBBTfz/qHdEwY7nhS
Jv3zrixS9jNhdjCB6QYDVR0jBIHhMIHegBTvOI0UUFinW02cF3L837msp1GwEKGB
uqSBtzCBtDELMAkGA1UEBhMCVVMxCzAJBgNVBAgTAkNBMRUwEwYDVQQHEwxTYW5G
cmFuY2lzY28xFTATBgNVBAoTDFBpeGdsbywgSW5jLjEQMA4GA1UECxMHVlBOLUNJ
RTEaMBgGA1UEAxMRdHVubmVsLnBpeGdsby5jb20xHDAaBgNVBCkTE0JhbGEgQ2hh
bmRyYXNla2FyYW4xHjAcBgkqhkiG9w0BCQEWD2JhbGFAcGl4Z2xvLmNvbYIJAKbb
xoOA5qB5MBMGA1UdJQQMMAoGCCsGAQUFBwMCMAsGA1UdDwQEAwIHgDANBgkqhkiG
9w0BAQUFAAOCAgEA2dYsOvB/HgopqFYpbBlLcQrjK/vbmbWUZTk5UBp/e4RKWNS1
Pduo4pmz8T6kk9uM2poIP0kJVbYWuu7yQoG2Sa6EHtYuXBlIm278gVEer1ODIsPp
/ykeXhnz5A0/GwCkEwtjECVjslJaUdyrEi2Bcy3gvG4F1+AkcJlkYcxdbZ+0HY3X
I/lvvxt858syQhdJ9D3IIazXWZVY4z5Z4Ekzu7Af23ytCHNDGRXPWuiq0kSw7DkY
aF/uDfsUo19GKmljZHp5ApxmR2Btord6s0e6KyLEJznjLw6OX/nEYbedZPFR8JyY
r0HZXTAi4e2YTGAtAjjlY+SNc1SxmZqNGAB690KG2drLaLKBwRiT5rwduQL8FQHD
bhF/XVU+CquBghQoum+636c/JsOo3/JPVlyOEKJXFuNwbBzFppFQjxbbCmIMmMFc
au9kDOlX/0P9UwaLxOtVG3W/aMOOo24JWDAr8NZIkJgtox4PfP/KT4hemRGCFlZm
P+x7VZa7GfIe4xsV3xlHROKWxF2dcpsmHDWtKFelk5EQz35oJo/xz8uFwxp8aGMD
pKZ0cQATQgnwJJREf8cFX5FGK8wzaPKQuGwPkj/tCNBxxyiDQpN1YnVsm9adaN37
/31hMqSdJDuxrvcIszXmCyuoi/ZWPJLnUDAYCD/tgNumyi/T5ePEqNd5s5Q=
-----END CERTIFICATE-----
