Certificate:
    Data:
        Version: 3 (0x2)
        Serial Number: 765 (0x2fd)
    Signature Algorithm: sha1WithRSAEncryption
        Issuer: C=US, ST=CA, L=SanFrancisco, O=Pixglo, Inc., OU=VPN-CIE, CN=tunnel.pixglo.com/name=Bala Chandrasekaran/emailAddress=bala@pixglo.com
        Validity
            Not Before: Feb 14 06:42:53 2018 GMT
            Not After : Feb 12 06:42:53 2028 GMT
        Subject: C=US, ST=CA, L=SanFrancisco, O=Pixglo, Inc., OU=VPN-CIE, CN=cie764/name=Bala Chandrasekaran/emailAddress=bala@pixglo.com
        Subject Public Key Info:
            Public Key Algorithm: rsaEncryption
                Public-Key: (4096 bit)
                Modulus:
                    00:ce:19:cb:7c:99:8b:c9:21:f7:5e:e7:46:d0:bc:
                    93:f4:17:27:c8:0a:2c:89:48:dd:36:70:8f:45:39:
                    f8:35:ad:8a:48:54:4e:05:2a:06:32:ac:0b:75:48:
                    27:37:30:f0:19:39:57:9d:cd:76:58:f9:26:9c:f7:
                    c3:f7:01:4c:56:8a:ec:52:ca:61:69:96:ec:80:70:
                    ac:0d:0c:73:32:f4:50:90:1c:85:e0:13:ca:09:2c:
                    cc:b9:56:26:51:f3:6f:3d:df:2b:8d:64:6d:48:8e:
                    50:34:19:ec:e2:f8:12:89:eb:be:f2:39:f2:f5:6b:
                    b9:ca:6f:df:ee:15:d0:66:f2:c8:cb:9a:8c:bf:62:
                    58:46:97:a1:43:1f:e1:a4:20:24:56:a6:88:11:01:
                    c0:a1:61:9a:0a:5e:67:70:94:61:8c:16:25:75:cc:
                    37:30:52:3d:f8:f2:a6:8d:2f:a3:03:dc:99:28:35:
                    ba:4e:f7:17:d7:a8:02:80:e1:c8:6a:52:10:31:08:
                    e4:32:5d:6e:45:f6:79:e2:e7:d0:bc:51:e9:06:96:
                    76:e4:32:cc:10:99:32:91:1b:d2:83:94:92:49:25:
                    af:b2:b3:c8:01:43:fb:fe:7b:22:ec:20:80:6e:f3:
                    d0:b5:5e:4a:d5:5a:dd:2b:80:f4:cc:69:c8:dd:37:
                    e6:7b:f5:cc:8c:4f:bb:a5:eb:53:83:14:cf:24:8c:
                    ed:0a:d3:de:cc:36:d0:43:30:e5:db:7b:67:fe:f3:
                    40:11:2c:19:ea:e4:58:92:97:13:90:8e:c0:96:7a:
                    24:ec:eb:67:35:a7:23:78:8b:33:3f:06:b1:20:4e:
                    a2:45:cc:9d:67:af:d9:20:67:77:60:96:e4:27:14:
                    38:03:99:d1:20:8b:bc:0f:5d:dd:9e:48:4c:12:92:
                    dd:41:ee:40:30:4e:05:03:63:8f:4d:34:68:32:c5:
                    cb:b5:68:62:8a:fb:dc:77:f2:66:57:bb:6f:ec:2f:
                    66:ef:c6:e6:e7:b8:64:41:61:5c:12:f1:cb:12:95:
                    a2:2a:7e:20:7d:55:b6:02:88:5a:35:72:c3:4d:6e:
                    0a:a7:09:83:0b:c7:bf:d1:6c:59:81:91:33:24:08:
                    d1:65:c9:d9:92:fe:18:ce:b3:1a:03:bd:41:80:6d:
                    c8:46:68:d3:d9:eb:ef:e3:7c:cc:7d:98:c4:e5:a0:
                    2d:f7:25:38:cf:e0:4a:5a:68:3a:5c:c6:00:36:4d:
                    f4:1a:69:68:1e:cc:3a:d5:47:23:27:ae:98:45:95:
                    39:55:da:29:e5:17:45:b1:e8:98:9c:be:f7:e4:75:
                    4f:a1:df:5f:9c:7e:b2:57:73:47:4c:b1:d7:39:c9:
                    52:19:4f
                Exponent: 65537 (0x10001)
        X509v3 extensions:
            X509v3 Basic Constraints: 
                CA:FALSE
            Netscape Comment: 
                Easy-RSA Generated Certificate
            X509v3 Subject Key Identifier: 
                7B:FC:22:52:8B:84:12:DC:0F:88:EE:E9:9F:8B:70:69:11:A4:0E:A2
            X509v3 Authority Key Identifier: 
                keyid:EF:38:8D:14:50:58:A7:5B:4D:9C:17:72:FC:DF:B9:AC:A7:51:B0:10
                DirName:/C=US/ST=CA/L=SanFrancisco/O=Pixglo, Inc./OU=VPN-CIE/CN=tunnel.pixglo.com/name=Bala Chandrasekaran/emailAddress=bala@pixglo.com
                serial:A6:DB:C6:83:80:E6:A0:79

            X509v3 Extended Key Usage: 
                TLS Web Client Authentication
            X509v3 Key Usage: 
                Digital Signature
    Signature Algorithm: sha1WithRSAEncryption
         88:e4:a7:a5:b2:8c:99:03:7b:08:d1:17:57:53:fc:f1:c4:71:
         ac:2b:06:98:7e:c1:11:bd:ad:d9:7b:cc:ad:59:d0:2c:9a:9c:
         16:93:f9:bc:48:7f:cc:7f:34:12:b5:ed:17:05:6b:8f:99:4c:
         4f:b2:7c:45:ef:b1:6e:9e:65:f0:da:15:81:04:ec:90:74:4a:
         80:09:ff:00:7c:68:2b:ed:f2:fe:76:e7:44:0a:24:b0:c9:32:
         a8:a9:9a:7f:09:85:75:a9:65:73:39:04:d9:ff:ba:a5:cf:cd:
         87:6e:b2:71:59:4a:15:21:17:ad:7d:a8:9b:7c:eb:fe:42:0b:
         29:1f:08:8d:19:2f:e2:98:bc:c4:8c:93:55:f0:d1:59:4e:2d:
         8b:cb:54:a9:2b:d2:c8:a6:a3:9f:3d:c9:a2:26:c5:2d:83:1d:
         42:22:33:a2:a3:aa:a9:d0:ad:78:04:17:ba:67:dc:14:1f:fa:
         f8:ee:11:5d:61:17:4b:60:e7:10:b3:0f:cd:e9:20:ea:47:dc:
         36:b3:54:5a:a3:19:02:ee:e8:e0:74:62:67:2b:1d:ad:d6:48:
         9e:16:98:00:e3:3a:b4:ef:59:5b:03:e6:ec:7e:fe:e9:56:26:
         78:b0:89:c2:ae:5a:5d:ad:d3:21:5f:77:42:55:31:a2:03:52:
         c7:5c:e1:a2:09:67:4f:bf:12:62:76:12:1a:b8:cc:b3:fc:1d:
         83:62:ac:20:c6:64:a8:62:23:3d:89:69:ff:88:a0:fb:a8:c7:
         97:19:e4:26:16:5b:33:a5:fc:7b:db:d5:e8:f8:d3:76:56:61:
         7f:a3:f5:8d:38:8d:43:c8:33:0b:68:b3:64:34:a9:a9:c2:e0:
         4f:95:fa:91:13:76:c4:2c:0e:e8:aa:ad:b3:1c:83:1a:cd:47:
         cc:31:de:ae:eb:e4:30:73:99:17:4d:c0:9d:a7:37:27:3f:73:
         51:95:92:20:e7:a2:1f:a6:df:d3:fa:8f:12:f6:f6:e1:30:74:
         2d:84:49:22:b0:70:90:9f:2d:6b:f1:19:76:69:4f:57:fc:2a:
         d7:1a:54:54:ae:fc:f9:d3:5d:86:2e:db:d9:96:bc:28:ed:cc:
         23:e5:34:0e:b3:dd:51:10:ed:d2:62:4c:56:d2:17:5b:f7:9b:
         ee:b1:99:6f:b3:4d:54:fb:ec:28:74:77:ac:3d:1e:52:58:84:
         dd:4f:fd:2d:20:d1:a4:c5:20:40:95:fd:fe:fc:b1:03:85:5d:
         d3:10:35:c5:b4:fe:4a:01:f2:5c:15:b9:ed:85:b6:79:30:62:
         41:fd:08:34:70:40:9e:03:74:20:44:34:db:73:f9:de:f8:91:
         1f:ff:36:ad:c6:7e:4c:8a
-----BEGIN CERTIFICATE-----
MIIHSDCCBTCgAwIBAgICAv0wDQYJKoZIhvcNAQEFBQAwgbQxCzAJBgNVBAYTAlVT
MQswCQYDVQQIEwJDQTEVMBMGA1UEBxMMU2FuRnJhbmNpc2NvMRUwEwYDVQQKEwxQ
aXhnbG8sIEluYy4xEDAOBgNVBAsTB1ZQTi1DSUUxGjAYBgNVBAMTEXR1bm5lbC5w
aXhnbG8uY29tMRwwGgYDVQQpExNCYWxhIENoYW5kcmFzZWthcmFuMR4wHAYJKoZI
hvcNAQkBFg9iYWxhQHBpeGdsby5jb20wHhcNMTgwMjE0MDY0MjUzWhcNMjgwMjEy
MDY0MjUzWjCBqTELMAkGA1UEBhMCVVMxCzAJBgNVBAgTAkNBMRUwEwYDVQQHEwxT
YW5GcmFuY2lzY28xFTATBgNVBAoTDFBpeGdsbywgSW5jLjEQMA4GA1UECxMHVlBO
LUNJRTEPMA0GA1UEAxMGY2llNzY0MRwwGgYDVQQpExNCYWxhIENoYW5kcmFzZWth
cmFuMR4wHAYJKoZIhvcNAQkBFg9iYWxhQHBpeGdsby5jb20wggIiMA0GCSqGSIb3
DQEBAQUAA4ICDwAwggIKAoICAQDOGct8mYvJIfde50bQvJP0FyfICiyJSN02cI9F
Ofg1rYpIVE4FKgYyrAt1SCc3MPAZOVedzXZY+Sac98P3AUxWiuxSymFpluyAcKwN
DHMy9FCQHIXgE8oJLMy5ViZR82893yuNZG1IjlA0Gezi+BKJ677yOfL1a7nKb9/u
FdBm8sjLmoy/YlhGl6FDH+GkICRWpogRAcChYZoKXmdwlGGMFiV1zDcwUj348qaN
L6MD3JkoNbpO9xfXqAKA4chqUhAxCOQyXW5F9nni59C8UekGlnbkMswQmTKRG9KD
lJJJJa+ys8gBQ/v+eyLsIIBu89C1XkrVWt0rgPTMacjdN+Z79cyMT7ul61ODFM8k
jO0K097MNtBDMOXbe2f+80ARLBnq5FiSlxOQjsCWeiTs62c1pyN4izM/BrEgTqJF
zJ1nr9kgZ3dgluQnFDgDmdEgi7wPXd2eSEwSkt1B7kAwTgUDY49NNGgyxcu1aGKK
+9x38mZXu2/sL2bvxubnuGRBYVwS8csSlaIqfiB9VbYCiFo1csNNbgqnCYMLx7/R
bFmBkTMkCNFlydmS/hjOsxoDvUGAbchGaNPZ6+/jfMx9mMTloC33JTjP4EpaaDpc
xgA2TfQaaWgezDrVRyMnrphFlTlV2inlF0Wx6JicvvfkdU+h31+cfrJXc0dMsdc5
yVIZTwIDAQABo4IBazCCAWcwCQYDVR0TBAIwADAtBglghkgBhvhCAQ0EIBYeRWFz
eS1SU0EgR2VuZXJhdGVkIENlcnRpZmljYXRlMB0GA1UdDgQWBBR7/CJSi4QS3A+I
7umfi3BpEaQOojCB6QYDVR0jBIHhMIHegBTvOI0UUFinW02cF3L837msp1GwEKGB
uqSBtzCBtDELMAkGA1UEBhMCVVMxCzAJBgNVBAgTAkNBMRUwEwYDVQQHEwxTYW5G
cmFuY2lzY28xFTATBgNVBAoTDFBpeGdsbywgSW5jLjEQMA4GA1UECxMHVlBOLUNJ
RTEaMBgGA1UEAxMRdHVubmVsLnBpeGdsby5jb20xHDAaBgNVBCkTE0JhbGEgQ2hh
bmRyYXNla2FyYW4xHjAcBgkqhkiG9w0BCQEWD2JhbGFAcGl4Z2xvLmNvbYIJAKbb
xoOA5qB5MBMGA1UdJQQMMAoGCCsGAQUFBwMCMAsGA1UdDwQEAwIHgDANBgkqhkiG
9w0BAQUFAAOCAgEAiOSnpbKMmQN7CNEXV1P88cRxrCsGmH7BEb2t2XvMrVnQLJqc
FpP5vEh/zH80ErXtFwVrj5lMT7J8Re+xbp5l8NoVgQTskHRKgAn/AHxoK+3y/nbn
RAoksMkyqKmafwmFdallczkE2f+6pc/Nh26ycVlKFSEXrX2om3zr/kILKR8IjRkv
4pi8xIyTVfDRWU4ti8tUqSvSyKajnz3JoibFLYMdQiIzoqOqqdCteAQXumfcFB/6
+O4RXWEXS2DnELMPzekg6kfcNrNUWqMZAu7o4HRiZysdrdZInhaYAOM6tO9ZWwPm
7H7+6VYmeLCJwq5aXa3TIV93QlUxogNSx1zhoglnT78SYnYSGrjMs/wdg2KsIMZk
qGIjPYlp/4ig+6jHlxnkJhZbM6X8e9vV6PjTdlZhf6P1jTiNQ8gzC2izZDSpqcLg
T5X6kRN2xCwO6KqtsxyDGs1HzDHeruvkMHOZF03Anac3Jz9zUZWSIOeiH6bf0/qP
Evb24TB0LYRJIrBwkJ8ta/EZdmlPV/wq1xpUVK78+dNdhi7b2Za8KO3MI+U0DrPd
URDt0mJMVtIXW/eb7rGZb7NNVPvsKHR3rD0eUliE3U/9LSDRpMUgQJX9/vyxA4Vd
0xA1xbT+SgHyXBW57YW2eTBiQf0INHBAngN0IEQ023P53viRH/82rcZ+TIo=
-----END CERTIFICATE-----
