Certificate:
    Data:
        Version: 3 (0x2)
        Serial Number: 766 (0x2fe)
    Signature Algorithm: sha1WithRSAEncryption
        Issuer: C=US, ST=CA, L=SanFrancisco, O=Pixglo, Inc., OU=VPN-CIE, CN=tunnel.pixglo.com/name=Bala Chandrasekaran/emailAddress=bala@pixglo.com
        Validity
            Not Before: Feb 14 06:42:55 2018 GMT
            Not After : Feb 12 06:42:55 2028 GMT
        Subject: C=US, ST=CA, L=SanFrancisco, O=Pixglo, Inc., OU=VPN-CIE, CN=cie765/name=Bala Chandrasekaran/emailAddress=bala@pixglo.com
        Subject Public Key Info:
            Public Key Algorithm: rsaEncryption
                Public-Key: (4096 bit)
                Modulus:
                    00:de:3f:59:cc:0a:18:1d:ad:97:9c:59:a1:68:a8:
                    6e:c3:3b:b4:6d:cf:68:eb:32:bb:62:9d:ca:b6:d3:
                    a5:17:46:9a:0b:5a:e3:a3:6f:d4:25:4e:1e:f4:77:
                    a6:be:bd:73:a7:47:4e:c0:14:31:bb:82:01:e6:46:
                    71:e2:f2:16:bc:1a:31:e1:52:08:41:53:e0:ca:02:
                    43:98:3e:d0:dc:18:1e:3b:bc:5d:a5:69:6c:7f:56:
                    f6:b2:75:7b:eb:01:1b:6e:47:f1:9c:c5:39:91:b1:
                    bc:7a:04:83:6a:c2:11:c3:05:01:40:7c:0f:fb:b7:
                    39:6f:d6:23:54:72:c4:79:3b:55:72:c5:31:30:7a:
                    60:ba:a2:63:3d:e5:19:ca:04:8c:e0:e4:d2:26:05:
                    4f:46:0d:61:d7:38:85:c7:7b:db:b3:2d:2f:9e:04:
                    b1:16:e9:52:a7:5f:49:97:30:85:22:77:d5:50:82:
                    21:9b:71:31:e4:3b:e2:9d:4c:ca:14:1b:6c:81:06:
                    4c:45:19:56:91:3c:92:20:31:c5:39:24:13:7c:f8:
                    c0:43:11:b4:b5:d3:08:d9:7f:a0:00:ee:79:13:45:
                    d7:59:83:52:61:25:34:5b:70:ed:89:ac:27:c1:72:
                    b9:55:83:24:00:87:ee:39:ac:e8:5f:7b:47:35:67:
                    bd:ef:0f:9a:6c:b8:51:c0:2d:4f:33:1c:df:4a:29:
                    a7:79:f3:b0:7d:3f:9e:5a:29:0e:1d:4c:8a:11:f1:
                    06:98:59:f4:10:45:54:48:64:59:0a:ea:be:f1:d6:
                    be:91:10:31:41:6a:d1:f4:59:bc:a8:ff:3f:8c:1d:
                    b8:e2:78:a6:ed:24:d0:43:4b:17:ee:e4:20:88:4e:
                    73:8f:88:93:b2:68:4c:7f:23:8e:2c:c8:86:d7:89:
                    68:c2:e0:23:f5:61:2d:fc:49:e2:c6:3a:cd:df:66:
                    db:58:ca:04:65:bc:70:76:09:fb:af:54:48:d1:f0:
                    a6:b1:a8:0f:2f:c3:b0:ad:9c:80:ef:43:b3:99:8b:
                    87:58:17:2f:ac:ae:8b:eb:7d:29:6f:e9:c7:88:89:
                    04:b0:31:7b:a6:85:59:17:22:2c:63:72:0f:2d:81:
                    09:ce:3e:26:fa:3a:ce:bf:cb:0c:d1:9e:5d:ef:f9:
                    60:f6:99:ef:ae:00:95:47:91:f9:99:76:68:b8:c9:
                    d8:ca:ff:4b:19:42:89:48:8b:fb:c7:6a:67:08:5d:
                    14:a8:af:94:04:d9:88:ab:3f:7b:48:3e:92:a3:be:
                    21:8b:a1:68:e8:e4:96:a1:a4:1a:39:84:52:6b:5f:
                    86:a6:7b:85:4d:ee:d8:58:55:f8:31:95:90:94:56:
                    66:bc:d9
                Exponent: 65537 (0x10001)
        X509v3 extensions:
            X509v3 Basic Constraints: 
                CA:FALSE
            Netscape Comment: 
                Easy-RSA Generated Certificate
            X509v3 Subject Key Identifier: 
                45:E9:8A:15:38:CB:26:9A:6F:4B:4F:90:8B:7D:8F:27:E4:A3:9F:68
            X509v3 Authority Key Identifier: 
                keyid:EF:38:8D:14:50:58:A7:5B:4D:9C:17:72:FC:DF:B9:AC:A7:51:B0:10
                DirName:/C=US/ST=CA/L=SanFrancisco/O=Pixglo, Inc./OU=VPN-CIE/CN=tunnel.pixglo.com/name=Bala Chandrasekaran/emailAddress=bala@pixglo.com
                serial:A6:DB:C6:83:80:E6:A0:79

            X509v3 Extended Key Usage: 
                TLS Web Client Authentication
            X509v3 Key Usage: 
                Digital Signature
    Signature Algorithm: sha1WithRSAEncryption
         2a:89:65:18:01:d0:6f:44:b0:38:7b:e1:0c:51:16:3d:f1:5f:
         c2:cc:25:ad:ef:c6:31:05:cd:6c:b6:81:86:64:1b:cc:78:81:
         6b:49:bd:5d:35:7e:95:aa:02:84:d1:d5:fa:54:18:28:75:c2:
         ea:56:67:d7:72:65:f6:29:d0:52:e8:9f:2c:25:a8:5c:d8:47:
         c9:15:39:48:2d:86:5d:8f:8c:4d:6b:e0:a1:03:ab:86:59:d3:
         91:3e:4e:51:cf:da:60:b0:97:e5:c1:af:dd:ca:4e:cf:0b:fc:
         e6:6a:ca:07:db:3f:88:c9:f0:31:6d:90:e6:91:c4:7a:6a:96:
         b7:50:e1:fc:dc:b2:7b:5e:9a:ca:23:c8:1d:7c:11:8b:1d:59:
         78:2d:af:da:de:1f:56:c5:3c:b1:53:5f:3a:b1:25:6a:97:7e:
         22:30:ed:d1:f7:3b:c9:46:b2:af:58:89:20:3e:bf:d2:15:26:
         05:5f:a9:da:38:e2:28:33:f1:6c:0f:58:29:74:5a:7e:61:2f:
         32:25:e2:70:ea:9c:bb:8f:e8:5e:17:3f:47:b4:4a:b1:17:77:
         45:e2:1c:16:cd:0b:0e:54:00:49:4e:ed:3f:77:89:97:3e:91:
         c4:f7:06:7c:84:77:92:46:87:97:c8:0d:fb:e9:8f:92:cb:aa:
         d6:99:ea:5e:5e:f6:98:23:a3:fb:08:c5:b4:4a:c8:71:16:82:
         d7:54:19:b4:34:29:a1:75:26:37:04:68:b9:80:26:7d:72:a2:
         b2:ce:0a:46:5e:59:08:27:67:47:66:cc:1b:46:e7:eb:0c:1e:
         ee:da:37:f7:59:51:14:73:46:28:b2:cf:e3:a0:c0:37:f3:fd:
         1a:f6:73:da:ec:43:a4:74:c6:10:d6:09:b8:8b:4a:62:57:d8:
         62:27:1a:da:08:e1:82:77:02:64:f1:74:30:00:b1:66:b0:bb:
         98:20:02:de:37:5b:37:8a:be:c3:55:9f:92:2f:d7:b0:0d:cf:
         b5:db:5b:8f:be:b9:64:83:fa:b9:3c:e5:5b:cd:e0:1a:73:6c:
         7e:cc:a8:c4:7a:e9:66:6f:f5:46:6b:d9:49:00:ca:fb:68:2b:
         bc:a6:ac:3e:44:92:9b:ee:63:71:86:ba:50:b0:27:65:ee:8a:
         7e:d4:a5:e8:df:35:1f:e1:e1:ff:04:68:b2:b4:5c:32:6f:30:
         5b:a4:7b:de:34:7c:9e:10:9f:58:fd:65:d0:3d:28:7d:d4:bc:
         b3:fd:89:dc:5a:54:1c:a7:cd:3b:23:2e:18:fe:a4:d8:c1:5e:
         49:b6:ec:2e:e2:ed:98:f5:12:73:74:e3:1d:3e:cb:98:f2:0c:
         a6:14:5a:e0:4f:8f:38:8d
-----BEGIN CERTIFICATE-----
MIIHSDCCBTCgAwIBAgICAv4wDQYJKoZIhvcNAQEFBQAwgbQxCzAJBgNVBAYTAlVT
MQswCQYDVQQIEwJDQTEVMBMGA1UEBxMMU2FuRnJhbmNpc2NvMRUwEwYDVQQKEwxQ
aXhnbG8sIEluYy4xEDAOBgNVBAsTB1ZQTi1DSUUxGjAYBgNVBAMTEXR1bm5lbC5w
aXhnbG8uY29tMRwwGgYDVQQpExNCYWxhIENoYW5kcmFzZWthcmFuMR4wHAYJKoZI
hvcNAQkBFg9iYWxhQHBpeGdsby5jb20wHhcNMTgwMjE0MDY0MjU1WhcNMjgwMjEy
MDY0MjU1WjCBqTELMAkGA1UEBhMCVVMxCzAJBgNVBAgTAkNBMRUwEwYDVQQHEwxT
YW5GcmFuY2lzY28xFTATBgNVBAoTDFBpeGdsbywgSW5jLjEQMA4GA1UECxMHVlBO
LUNJRTEPMA0GA1UEAxMGY2llNzY1MRwwGgYDVQQpExNCYWxhIENoYW5kcmFzZWth
cmFuMR4wHAYJKoZIhvcNAQkBFg9iYWxhQHBpeGdsby5jb20wggIiMA0GCSqGSIb3
DQEBAQUAA4ICDwAwggIKAoICAQDeP1nMChgdrZecWaFoqG7DO7Rtz2jrMrtincq2
06UXRpoLWuOjb9QlTh70d6a+vXOnR07AFDG7ggHmRnHi8ha8GjHhUghBU+DKAkOY
PtDcGB47vF2laWx/VvaydXvrARtuR/GcxTmRsbx6BINqwhHDBQFAfA/7tzlv1iNU
csR5O1VyxTEwemC6omM95RnKBIzg5NImBU9GDWHXOIXHe9uzLS+eBLEW6VKnX0mX
MIUid9VQgiGbcTHkO+KdTMoUG2yBBkxFGVaRPJIgMcU5JBN8+MBDEbS10wjZf6AA
7nkTRddZg1JhJTRbcO2JrCfBcrlVgyQAh+45rOhfe0c1Z73vD5psuFHALU8zHN9K
Kad587B9P55aKQ4dTIoR8QaYWfQQRVRIZFkK6r7x1r6REDFBatH0Wbyo/z+MHbji
eKbtJNBDSxfu5CCITnOPiJOyaEx/I44syIbXiWjC4CP1YS38SeLGOs3fZttYygRl
vHB2CfuvVEjR8KaxqA8vw7CtnIDvQ7OZi4dYFy+srovrfSlv6ceIiQSwMXumhVkX
Iixjcg8tgQnOPib6Os6/ywzRnl3v+WD2me+uAJVHkfmZdmi4ydjK/0sZQolIi/vH
amcIXRSor5QE2YirP3tIPpKjviGLoWjo5JahpBo5hFJrX4ame4VN7thYVfgxlZCU
Vma82QIDAQABo4IBazCCAWcwCQYDVR0TBAIwADAtBglghkgBhvhCAQ0EIBYeRWFz
eS1SU0EgR2VuZXJhdGVkIENlcnRpZmljYXRlMB0GA1UdDgQWBBRF6YoVOMsmmm9L
T5CLfY8n5KOfaDCB6QYDVR0jBIHhMIHegBTvOI0UUFinW02cF3L837msp1GwEKGB
uqSBtzCBtDELMAkGA1UEBhMCVVMxCzAJBgNVBAgTAkNBMRUwEwYDVQQHEwxTYW5G
cmFuY2lzY28xFTATBgNVBAoTDFBpeGdsbywgSW5jLjEQMA4GA1UECxMHVlBOLUNJ
RTEaMBgGA1UEAxMRdHVubmVsLnBpeGdsby5jb20xHDAaBgNVBCkTE0JhbGEgQ2hh
bmRyYXNla2FyYW4xHjAcBgkqhkiG9w0BCQEWD2JhbGFAcGl4Z2xvLmNvbYIJAKbb
xoOA5qB5MBMGA1UdJQQMMAoGCCsGAQUFBwMCMAsGA1UdDwQEAwIHgDANBgkqhkiG
9w0BAQUFAAOCAgEAKollGAHQb0SwOHvhDFEWPfFfwswlre/GMQXNbLaBhmQbzHiB
a0m9XTV+laoChNHV+lQYKHXC6lZn13Jl9inQUuifLCWoXNhHyRU5SC2GXY+MTWvg
oQOrhlnTkT5OUc/aYLCX5cGv3cpOzwv85mrKB9s/iMnwMW2Q5pHEemqWt1Dh/Nyy
e16ayiPIHXwRix1ZeC2v2t4fVsU8sVNfOrElapd+IjDt0fc7yUayr1iJID6/0hUm
BV+p2jjiKDPxbA9YKXRafmEvMiXicOqcu4/oXhc/R7RKsRd3ReIcFs0LDlQASU7t
P3eJlz6RxPcGfIR3kkaHl8gN++mPksuq1pnqXl72mCOj+wjFtErIcRaC11QZtDQp
oXUmNwRouYAmfXKiss4KRl5ZCCdnR2bMG0bn6wwe7to391lRFHNGKLLP46DAN/P9
GvZz2uxDpHTGENYJuItKYlfYYica2gjhgncCZPF0MACxZrC7mCAC3jdbN4q+w1Wf
ki/XsA3Ptdtbj765ZIP6uTzlW83gGnNsfsyoxHrpZm/1RmvZSQDK+2grvKasPkSS
m+5jcYa6ULAnZe6KftSl6N81H+Hh/wRosrRcMm8wW6R73jR8nhCfWP1l0D0ofdS8
s/2J3FpUHKfNOyMuGP6k2MFeSbbsLuLtmPUSc3TjHT7LmPIMphRa4E+POI0=
-----END CERTIFICATE-----
