Certificate:
    Data:
        Version: 3 (0x2)
        Serial Number: 767 (0x2ff)
    Signature Algorithm: sha1WithRSAEncryption
        Issuer: C=US, ST=CA, L=SanFrancisco, O=Pixglo, Inc., OU=VPN-CIE, CN=tunnel.pixglo.com/name=Bala Chandrasekaran/emailAddress=bala@pixglo.com
        Validity
            Not Before: Feb 14 06:42:58 2018 GMT
            Not After : Feb 12 06:42:58 2028 GMT
        Subject: C=US, ST=CA, L=SanFrancisco, O=Pixglo, Inc., OU=VPN-CIE, CN=cie766/name=Bala Chandrasekaran/emailAddress=bala@pixglo.com
        Subject Public Key Info:
            Public Key Algorithm: rsaEncryption
                Public-Key: (4096 bit)
                Modulus:
                    00:d5:74:e3:17:ad:12:15:f7:81:4d:14:59:bd:99:
                    5a:9e:84:c6:fd:da:92:eb:ea:de:02:23:c7:46:2a:
                    44:83:e0:ad:88:f9:e2:e9:a3:87:2e:39:79:14:56:
                    38:06:b0:d3:60:13:33:54:03:39:c7:4d:d6:ee:84:
                    5d:d1:26:b8:2a:d9:38:bb:49:9a:2d:a3:1f:c6:30:
                    f1:08:a2:be:97:3b:c4:57:29:12:39:f6:02:2b:3d:
                    dc:06:cf:18:a4:ca:3a:a5:55:90:08:67:52:e4:af:
                    70:89:b5:8d:21:bb:c7:29:01:0f:e7:db:7a:c1:c7:
                    f9:d1:d3:7a:ab:c1:83:f1:62:76:e7:e7:13:6d:a1:
                    93:49:f2:c8:49:9f:f9:ce:5d:69:ff:4d:9b:17:83:
                    59:56:f3:d2:5b:bf:9f:c0:fe:37:70:c0:be:6d:4e:
                    fc:17:f9:6f:b7:1f:c2:5c:b6:0d:0d:a8:e3:a5:09:
                    bf:c4:ec:35:34:0b:33:24:5d:3f:45:9b:5a:89:7e:
                    2d:49:5a:75:cb:b0:b3:74:8d:fd:f1:ee:ba:a0:65:
                    0c:06:c0:86:b4:8e:30:73:b9:e8:91:b7:96:3f:21:
                    a5:71:f5:bb:6a:e2:47:34:c8:4f:70:3e:34:5d:13:
                    a7:a0:5e:1e:5c:47:7c:01:69:e0:81:2d:bd:06:e9:
                    75:48:2a:f8:3e:78:da:ac:ee:d4:be:ee:ae:ec:3b:
                    90:41:29:26:1d:1d:18:50:75:56:f2:92:72:52:17:
                    ce:c5:13:43:49:74:b0:c0:03:2b:50:22:69:a8:c5:
                    b7:4e:67:1c:9f:48:85:93:32:21:89:a8:29:26:68:
                    95:c4:55:86:5c:b0:dc:01:1f:c6:07:33:60:a3:bc:
                    b9:18:3a:49:80:3b:4c:ce:60:d4:6a:08:cf:d2:a6:
                    16:c0:3d:f5:ed:d8:4d:bf:a4:59:62:40:94:f3:be:
                    e2:ef:5d:47:7e:f1:ef:55:2f:df:3c:55:34:5f:b5:
                    ae:ee:c5:f8:7f:48:dc:3e:02:da:fb:6b:c5:e5:4a:
                    ef:fc:05:e1:7c:ca:6e:1f:cd:9a:6c:2c:46:ae:d1:
                    36:04:25:73:84:47:c0:14:f0:fa:14:9c:19:bc:9b:
                    07:a8:ad:56:ac:16:2c:12:65:df:77:4b:56:c0:44:
                    99:25:0b:6d:42:7f:d5:66:2a:fd:e9:b3:ad:4d:7f:
                    47:ca:95:59:a1:67:e9:2d:74:69:83:3f:3b:40:e5:
                    e8:79:4f:05:37:eb:50:4d:e3:04:95:e1:84:62:b7:
                    a5:f1:2e:e5:b9:f4:f1:80:59:46:30:d0:54:1c:88:
                    99:e9:93:05:8c:6a:61:ad:4c:bd:8a:16:94:7a:87:
                    65:f6:a9
                Exponent: 65537 (0x10001)
        X509v3 extensions:
            X509v3 Basic Constraints: 
                CA:FALSE
            Netscape Comment: 
                Easy-RSA Generated Certificate
            X509v3 Subject Key Identifier: 
                1C:41:93:A9:BF:C9:15:F5:BE:DD:4A:11:31:0E:AD:56:4A:B6:09:6C
            X509v3 Authority Key Identifier: 
                keyid:EF:38:8D:14:50:58:A7:5B:4D:9C:17:72:FC:DF:B9:AC:A7:51:B0:10
                DirName:/C=US/ST=CA/L=SanFrancisco/O=Pixglo, Inc./OU=VPN-CIE/CN=tunnel.pixglo.com/name=Bala Chandrasekaran/emailAddress=bala@pixglo.com
                serial:A6:DB:C6:83:80:E6:A0:79

            X509v3 Extended Key Usage: 
                TLS Web Client Authentication
            X509v3 Key Usage: 
                Digital Signature
    Signature Algorithm: sha1WithRSAEncryption
         0a:cf:9b:a2:47:67:39:99:39:6b:7e:2f:78:56:a4:b7:12:89:
         c9:84:d7:57:12:45:9e:11:d2:8c:3d:7a:4e:e7:fd:cc:46:ab:
         76:e5:25:18:71:f4:be:da:b7:f1:2f:8a:1b:86:c0:9c:ce:7e:
         27:9d:7d:f1:03:fe:c3:57:7c:58:0c:27:6a:f7:17:e9:20:a5:
         9d:72:8a:a8:19:c9:3d:08:aa:f3:58:6d:a0:3c:1f:5e:49:19:
         e3:8e:c9:6b:5b:51:08:7f:41:54:bd:66:02:51:b5:53:71:cb:
         5c:51:dc:35:61:2b:47:1c:26:2e:58:e8:5d:98:b3:11:7f:29:
         f9:0f:e5:c4:cf:4d:fa:36:9a:0d:d6:4d:f9:2c:27:a6:98:0c:
         04:5c:c7:31:68:66:fd:9f:72:fa:0c:e0:1c:0a:34:26:68:80:
         ab:3e:1a:2f:2c:c3:a8:a1:2b:24:14:87:48:06:b0:64:af:77:
         33:78:8d:a7:46:d4:47:2f:5a:8d:8f:ff:34:77:0b:f7:32:8b:
         aa:16:9b:af:a5:6f:42:3f:17:a4:28:50:e2:9c:08:53:5d:a7:
         41:91:78:8a:32:74:a8:82:62:88:b4:ad:54:e0:87:e2:6a:68:
         b1:d0:6b:ab:c4:6e:72:93:9f:95:9b:f5:fc:1d:65:ef:36:45:
         55:de:e3:8d:97:02:63:5a:e9:2c:50:83:98:d3:3b:c0:83:58:
         4e:3a:77:43:85:0e:31:04:67:63:a2:90:fd:07:8c:39:c8:f3:
         f7:45:a3:fc:65:59:3e:1f:5a:e5:57:0a:b7:fb:10:0e:20:25:
         d6:7e:4d:fa:af:83:0e:97:47:6d:2b:50:a6:4c:87:aa:78:fa:
         56:62:b3:42:a9:18:a3:2a:25:de:e8:8c:76:a9:6a:52:b5:09:
         a7:9d:c9:c6:75:03:b6:cb:3b:45:ab:bf:10:41:af:3d:78:c1:
         79:4e:25:c2:0a:9d:27:a5:c3:00:84:51:8c:e7:25:75:39:5a:
         95:d4:f3:cc:34:a3:87:24:02:46:b7:8b:91:39:51:6e:af:0c:
         2f:4e:4f:f8:b8:47:11:2a:65:47:64:06:5a:33:3a:0b:c0:8b:
         95:e2:7a:c1:fc:76:04:1d:2f:72:78:0b:75:fd:2e:fa:93:33:
         21:c1:2b:a9:d8:e8:3e:18:a2:16:42:b0:7f:9d:20:78:4b:dc:
         26:30:d9:23:cf:7b:4e:df:5f:25:01:40:ff:6d:72:ca:df:64:
         08:fe:ec:a0:95:9e:ea:3a:67:8a:7e:12:95:c3:21:93:34:a2:
         8c:b9:53:81:f6:cb:96:e3:4f:0b:bb:eb:e6:68:1a:d5:a6:69:
         6f:c5:b9:85:70:c5:1a:17
-----BEGIN CERTIFICATE-----
MIIHSDCCBTCgAwIBAgICAv8wDQYJKoZIhvcNAQEFBQAwgbQxCzAJBgNVBAYTAlVT
MQswCQYDVQQIEwJDQTEVMBMGA1UEBxMMU2FuRnJhbmNpc2NvMRUwEwYDVQQKEwxQ
aXhnbG8sIEluYy4xEDAOBgNVBAsTB1ZQTi1DSUUxGjAYBgNVBAMTEXR1bm5lbC5w
aXhnbG8uY29tMRwwGgYDVQQpExNCYWxhIENoYW5kcmFzZWthcmFuMR4wHAYJKoZI
hvcNAQkBFg9iYWxhQHBpeGdsby5jb20wHhcNMTgwMjE0MDY0MjU4WhcNMjgwMjEy
MDY0MjU4WjCBqTELMAkGA1UEBhMCVVMxCzAJBgNVBAgTAkNBMRUwEwYDVQQHEwxT
YW5GcmFuY2lzY28xFTATBgNVBAoTDFBpeGdsbywgSW5jLjEQMA4GA1UECxMHVlBO
LUNJRTEPMA0GA1UEAxMGY2llNzY2MRwwGgYDVQQpExNCYWxhIENoYW5kcmFzZWth
cmFuMR4wHAYJKoZIhvcNAQkBFg9iYWxhQHBpeGdsby5jb20wggIiMA0GCSqGSIb3
DQEBAQUAA4ICDwAwggIKAoICAQDVdOMXrRIV94FNFFm9mVqehMb92pLr6t4CI8dG
KkSD4K2I+eLpo4cuOXkUVjgGsNNgEzNUAznHTdbuhF3RJrgq2Ti7SZotox/GMPEI
or6XO8RXKRI59gIrPdwGzxikyjqlVZAIZ1Lkr3CJtY0hu8cpAQ/n23rBx/nR03qr
wYPxYnbn5xNtoZNJ8shJn/nOXWn/TZsXg1lW89Jbv5/A/jdwwL5tTvwX+W+3H8Jc
tg0NqOOlCb/E7DU0CzMkXT9Fm1qJfi1JWnXLsLN0jf3x7rqgZQwGwIa0jjBzueiR
t5Y/IaVx9btq4kc0yE9wPjRdE6egXh5cR3wBaeCBLb0G6XVIKvg+eNqs7tS+7q7s
O5BBKSYdHRhQdVbyknJSF87FE0NJdLDAAytQImmoxbdOZxyfSIWTMiGJqCkmaJXE
VYZcsNwBH8YHM2CjvLkYOkmAO0zOYNRqCM/SphbAPfXt2E2/pFliQJTzvuLvXUd+
8e9VL988VTRfta7uxfh/SNw+Atr7a8XlSu/8BeF8ym4fzZpsLEau0TYEJXOER8AU
8PoUnBm8mweorVasFiwSZd93S1bARJklC21Cf9VmKv3ps61Nf0fKlVmhZ+ktdGmD
PztA5eh5TwU361BN4wSV4YRit6XxLuW59PGAWUYw0FQciJnpkwWMamGtTL2KFpR6
h2X2qQIDAQABo4IBazCCAWcwCQYDVR0TBAIwADAtBglghkgBhvhCAQ0EIBYeRWFz
eS1SU0EgR2VuZXJhdGVkIENlcnRpZmljYXRlMB0GA1UdDgQWBBQcQZOpv8kV9b7d
ShExDq1WSrYJbDCB6QYDVR0jBIHhMIHegBTvOI0UUFinW02cF3L837msp1GwEKGB
uqSBtzCBtDELMAkGA1UEBhMCVVMxCzAJBgNVBAgTAkNBMRUwEwYDVQQHEwxTYW5G
cmFuY2lzY28xFTATBgNVBAoTDFBpeGdsbywgSW5jLjEQMA4GA1UECxMHVlBOLUNJ
RTEaMBgGA1UEAxMRdHVubmVsLnBpeGdsby5jb20xHDAaBgNVBCkTE0JhbGEgQ2hh
bmRyYXNla2FyYW4xHjAcBgkqhkiG9w0BCQEWD2JhbGFAcGl4Z2xvLmNvbYIJAKbb
xoOA5qB5MBMGA1UdJQQMMAoGCCsGAQUFBwMCMAsGA1UdDwQEAwIHgDANBgkqhkiG
9w0BAQUFAAOCAgEACs+bokdnOZk5a34veFaktxKJyYTXVxJFnhHSjD16Tuf9zEar
duUlGHH0vtq38S+KG4bAnM5+J5198QP+w1d8WAwnavcX6SClnXKKqBnJPQiq81ht
oDwfXkkZ447Ja1tRCH9BVL1mAlG1U3HLXFHcNWErRxwmLljoXZizEX8p+Q/lxM9N
+jaaDdZN+SwnppgMBFzHMWhm/Z9y+gzgHAo0JmiAqz4aLyzDqKErJBSHSAawZK93
M3iNp0bURy9ajY//NHcL9zKLqhabr6VvQj8XpChQ4pwIU12nQZF4ijJ0qIJiiLSt
VOCH4mposdBrq8RucpOflZv1/B1l7zZFVd7jjZcCY1rpLFCDmNM7wINYTjp3Q4UO
MQRnY6KQ/QeMOcjz90Wj/GVZPh9a5VcKt/sQDiAl1n5N+q+DDpdHbStQpkyHqnj6
VmKzQqkYoyol3uiMdqlqUrUJp53JxnUDtss7Rau/EEGvPXjBeU4lwgqdJ6XDAIRR
jOcldTlaldTzzDSjhyQCRreLkTlRbq8ML05P+LhHESplR2QGWjM6C8CLleJ6wfx2
BB0vcngLdf0u+pMzIcErqdjoPhiiFkKwf50geEvcJjDZI897Tt9fJQFA/21yyt9k
CP7soJWe6jpnin4SlcMhkzSijLlTgfbLluNPC7vr5mga1aZpb8W5hXDFGhc=
-----END CERTIFICATE-----
