Certificate:
    Data:
        Version: 3 (0x2)
        Serial Number: 3 (0x3)
    Signature Algorithm: sha1WithRSAEncryption
        Issuer: C=US, ST=CA, L=SanFrancisco, O=Pixglo, Inc., OU=VPN-CIE, CN=tunnel.pixglo.com/name=Bala Chandrasekaran/emailAddress=bala@pixglo.com
        Validity
            Not Before: Feb 14 06:24:11 2018 GMT
            Not After : Feb 12 06:24:11 2028 GMT
        Subject: C=US, ST=CA, L=SanFrancisco, O=Pixglo, Inc., OU=VPN-CIE, CN=cie2/name=Bala Chandrasekaran/emailAddress=bala@pixglo.com
        Subject Public Key Info:
            Public Key Algorithm: rsaEncryption
                Public-Key: (4096 bit)
                Modulus:
                    00:cc:7f:e8:1b:a8:f0:8a:03:7b:dd:01:86:fb:57:
                    85:1d:a1:ec:70:52:3b:b8:dc:88:b0:89:d9:27:75:
                    79:58:94:64:e3:cd:d8:3e:f6:17:6f:e9:66:5d:46:
                    1d:19:10:4f:f5:79:c9:78:2a:de:c6:87:c6:13:d0:
                    b9:8d:94:4d:d9:98:40:e4:86:9a:41:f0:bc:77:8e:
                    9c:f7:f5:6e:14:15:68:61:ce:eb:3d:ba:1c:ac:50:
                    b9:a7:42:c0:a9:b6:af:63:ed:30:09:25:b3:7d:82:
                    ce:27:b2:56:25:e4:a0:5f:2e:4b:f1:21:c9:ac:ba:
                    32:f2:0e:fb:1d:41:63:63:14:e9:a8:d0:ac:3a:86:
                    4a:4e:f8:d9:f8:7b:de:9f:9b:68:73:98:78:d3:cb:
                    c3:7f:0a:82:29:f1:df:10:cb:90:78:a4:79:18:b9:
                    1a:07:f1:d7:fb:fa:0c:5d:eb:cb:5d:4c:d4:2c:e1:
                    de:2b:9e:41:bd:4b:6d:0b:8a:06:e5:78:39:35:0b:
                    a1:f1:2f:23:ca:37:2d:bc:85:da:5e:a2:1b:7f:5b:
                    19:e2:57:29:fa:60:4f:62:1b:aa:58:53:f9:e9:91:
                    a5:5e:e3:9c:82:87:26:33:21:5b:f4:fa:ea:72:23:
                    f5:6d:dd:32:8c:64:96:27:29:1b:ed:82:b3:f9:bf:
                    e4:e4:08:cb:69:55:95:58:96:6b:b4:b3:0b:46:f7:
                    b2:99:b5:24:58:9f:47:4d:87:a4:16:51:2e:84:d8:
                    18:7c:31:52:e7:be:9c:a7:a5:f4:19:2c:47:86:40:
                    92:5b:15:32:ed:84:40:f5:2c:6d:84:3e:5d:da:39:
                    c3:2d:dc:58:b1:d3:b2:f9:9e:91:f3:fd:76:36:66:
                    18:a1:18:02:bd:ff:72:9b:47:74:53:7f:b8:0c:36:
                    28:9d:53:31:b8:5b:59:e8:7a:98:99:47:a8:cd:65:
                    e8:cf:7f:09:bc:fb:8f:e0:69:4f:af:26:86:0a:c5:
                    8e:c6:70:68:d3:8d:7b:a0:6d:00:4a:0c:79:a5:a4:
                    0c:f7:7c:4f:49:f5:ce:b0:4d:fd:87:ec:36:f3:c5:
                    c0:6e:0f:96:db:a7:56:1f:d8:ad:41:45:d7:83:18:
                    c0:a7:1a:c0:0d:e0:b6:e0:86:cf:36:71:72:86:df:
                    ee:ae:4d:c5:be:5d:17:47:b4:d4:4f:98:ea:c5:04:
                    78:bd:64:12:e9:07:29:ad:c3:be:ea:3d:ef:0e:83:
                    49:4e:b3:9d:4d:41:46:e0:3c:fc:bc:d6:ab:f9:59:
                    08:9c:b4:3f:da:21:64:9e:1f:36:13:f2:e5:01:27:
                    a5:75:c4:ec:62:e9:e0:55:6e:d0:d8:01:c7:70:93:
                    9a:b1:fd
                Exponent: 65537 (0x10001)
        X509v3 extensions:
            X509v3 Basic Constraints: 
                CA:FALSE
            Netscape Comment: 
                Easy-RSA Generated Certificate
            X509v3 Subject Key Identifier: 
                05:F0:D0:3C:7D:34:F2:E0:E5:33:5B:BC:B9:72:F1:DF:18:D2:B4:7D
            X509v3 Authority Key Identifier: 
                keyid:EF:38:8D:14:50:58:A7:5B:4D:9C:17:72:FC:DF:B9:AC:A7:51:B0:10
                DirName:/C=US/ST=CA/L=SanFrancisco/O=Pixglo, Inc./OU=VPN-CIE/CN=tunnel.pixglo.com/name=Bala Chandrasekaran/emailAddress=bala@pixglo.com
                serial:A6:DB:C6:83:80:E6:A0:79

            X509v3 Extended Key Usage: 
                TLS Web Client Authentication
            X509v3 Key Usage: 
                Digital Signature
    Signature Algorithm: sha1WithRSAEncryption
         90:0b:4f:85:e1:70:8e:06:25:99:35:f5:3b:7e:9c:1d:45:8e:
         64:64:e1:ad:1f:aa:51:69:79:6c:26:37:1e:51:50:69:51:0c:
         76:be:51:56:a0:36:ee:e9:ec:d4:4a:08:01:2b:0b:e1:80:c2:
         56:d2:96:d0:6b:5f:fd:bb:b8:94:c3:be:24:06:b2:f0:d0:d8:
         f2:2b:9a:00:51:d8:80:3e:6a:4c:a1:ea:49:82:9c:3a:d0:bf:
         9b:eb:44:13:f9:d4:6c:cd:0a:c3:c1:4f:a1:04:a1:4c:7d:6e:
         a2:e5:08:bc:e7:55:ea:20:21:1d:06:42:9e:cf:74:6e:52:27:
         f8:17:0e:0a:64:88:93:4c:a0:77:c1:df:32:03:55:47:4d:41:
         d0:77:fa:8a:f8:34:eb:c1:4f:72:23:e3:41:d9:64:7e:05:db:
         1f:10:7e:77:f4:14:09:17:23:dd:0d:5f:65:5d:32:79:90:ff:
         c0:e1:03:79:45:6e:89:f9:b4:25:c6:48:2b:6c:4f:85:6f:35:
         b1:6c:b9:5f:b1:cf:b5:9a:20:bd:1b:3a:4c:4a:9d:bd:96:74:
         0d:2f:48:c1:87:4e:38:93:80:6d:1f:e5:46:47:eb:32:91:b5:
         f1:3b:e4:42:d2:f9:e6:70:34:39:ef:84:7d:d6:5c:a0:72:86:
         0b:4f:3f:23:86:d6:3f:30:53:3a:2a:1c:9b:e5:c9:5b:01:d2:
         bf:3e:07:6b:b7:c1:fd:b0:0d:7d:55:9d:5f:dd:92:d3:07:d9:
         3e:9d:f9:35:ee:3c:b7:6c:1f:d0:6b:55:1d:07:23:35:19:f3:
         c5:c2:b0:00:7d:bd:8b:5e:47:f3:84:06:04:c1:db:3c:e0:6c:
         8d:00:b6:6d:16:34:88:d6:5d:c9:5e:30:e3:b1:4c:8f:a5:4c:
         85:ef:d3:25:b5:6e:78:9e:bc:1e:c5:f9:be:8b:9c:c5:2a:b4:
         d6:e4:cc:02:ac:da:76:cc:12:71:22:8e:36:5c:ba:aa:a4:ea:
         4e:59:6d:e2:32:ea:49:b9:6b:29:f4:37:35:c6:5e:48:09:b7:
         3a:6f:cc:be:d1:5d:e1:50:e3:7f:e4:2a:31:41:cf:1e:94:2e:
         90:6c:89:7a:13:cc:c2:c1:d6:c9:2c:17:a4:48:ce:bd:d3:cb:
         fb:fe:07:ee:3a:fa:ac:98:53:66:92:96:be:e7:f4:ae:15:91:
         d2:51:bf:44:90:62:d6:37:db:a6:19:ba:15:77:bd:73:15:2c:
         2a:ae:af:36:38:f2:fe:3f:42:b2:c7:d8:49:97:47:50:1c:04:
         c2:33:5c:ea:36:f5:b3:c0:6f:40:26:81:bc:fb:b6:d1:97:e9:
         75:da:8f:72:7f:e2:72:e1
-----BEGIN CERTIFICATE-----
MIIHRTCCBS2gAwIBAgIBAzANBgkqhkiG9w0BAQUFADCBtDELMAkGA1UEBhMCVVMx
CzAJBgNVBAgTAkNBMRUwEwYDVQQHEwxTYW5GcmFuY2lzY28xFTATBgNVBAoTDFBp
eGdsbywgSW5jLjEQMA4GA1UECxMHVlBOLUNJRTEaMBgGA1UEAxMRdHVubmVsLnBp
eGdsby5jb20xHDAaBgNVBCkTE0JhbGEgQ2hhbmRyYXNla2FyYW4xHjAcBgkqhkiG
9w0BCQEWD2JhbGFAcGl4Z2xvLmNvbTAeFw0xODAyMTQwNjI0MTFaFw0yODAyMTIw
NjI0MTFaMIGnMQswCQYDVQQGEwJVUzELMAkGA1UECBMCQ0ExFTATBgNVBAcTDFNh
bkZyYW5jaXNjbzEVMBMGA1UEChMMUGl4Z2xvLCBJbmMuMRAwDgYDVQQLEwdWUE4t
Q0lFMQ0wCwYDVQQDEwRjaWUyMRwwGgYDVQQpExNCYWxhIENoYW5kcmFzZWthcmFu
MR4wHAYJKoZIhvcNAQkBFg9iYWxhQHBpeGdsby5jb20wggIiMA0GCSqGSIb3DQEB
AQUAA4ICDwAwggIKAoICAQDMf+gbqPCKA3vdAYb7V4UdoexwUju43IiwidkndXlY
lGTjzdg+9hdv6WZdRh0ZEE/1ecl4Kt7Gh8YT0LmNlE3ZmEDkhppB8Lx3jpz39W4U
FWhhzus9uhysULmnQsCptq9j7TAJJbN9gs4nslYl5KBfLkvxIcmsujLyDvsdQWNj
FOmo0Kw6hkpO+Nn4e96fm2hzmHjTy8N/CoIp8d8Qy5B4pHkYuRoH8df7+gxd68td
TNQs4d4rnkG9S20LigbleDk1C6HxLyPKNy28hdpeoht/WxniVyn6YE9iG6pYU/np
kaVe45yChyYzIVv0+upyI/Vt3TKMZJYnKRvtgrP5v+TkCMtpVZVYlmu0swtG97KZ
tSRYn0dNh6QWUS6E2Bh8MVLnvpynpfQZLEeGQJJbFTLthED1LG2EPl3aOcMt3Fix
07L5npHz/XY2ZhihGAK9/3KbR3RTf7gMNiidUzG4W1noepiZR6jNZejPfwm8+4/g
aU+vJoYKxY7GcGjTjXugbQBKDHmlpAz3fE9J9c6wTf2H7DbzxcBuD5bbp1Yf2K1B
RdeDGMCnGsAN4Lbghs82cXKG3+6uTcW+XRdHtNRPmOrFBHi9ZBLpBymtw77qPe8O
g0lOs51NQUbgPPy81qv5WQictD/aIWSeHzYT8uUBJ6V1xOxi6eBVbtDYAcdwk5qx
/QIDAQABo4IBazCCAWcwCQYDVR0TBAIwADAtBglghkgBhvhCAQ0EIBYeRWFzeS1S
U0EgR2VuZXJhdGVkIENlcnRpZmljYXRlMB0GA1UdDgQWBBQF8NA8fTTy4OUzW7y5
cvHfGNK0fTCB6QYDVR0jBIHhMIHegBTvOI0UUFinW02cF3L837msp1GwEKGBuqSB
tzCBtDELMAkGA1UEBhMCVVMxCzAJBgNVBAgTAkNBMRUwEwYDVQQHEwxTYW5GcmFu
Y2lzY28xFTATBgNVBAoTDFBpeGdsbywgSW5jLjEQMA4GA1UECxMHVlBOLUNJRTEa
MBgGA1UEAxMRdHVubmVsLnBpeGdsby5jb20xHDAaBgNVBCkTE0JhbGEgQ2hhbmRy
YXNla2FyYW4xHjAcBgkqhkiG9w0BCQEWD2JhbGFAcGl4Z2xvLmNvbYIJAKbbxoOA
5qB5MBMGA1UdJQQMMAoGCCsGAQUFBwMCMAsGA1UdDwQEAwIHgDANBgkqhkiG9w0B
AQUFAAOCAgEAkAtPheFwjgYlmTX1O36cHUWOZGThrR+qUWl5bCY3HlFQaVEMdr5R
VqA27uns1EoIASsL4YDCVtKW0Gtf/bu4lMO+JAay8NDY8iuaAFHYgD5qTKHqSYKc
OtC/m+tEE/nUbM0Kw8FPoQShTH1uouUIvOdV6iAhHQZCns90blIn+BcOCmSIk0yg
d8HfMgNVR01B0Hf6ivg068FPciPjQdlkfgXbHxB+d/QUCRcj3Q1fZV0yeZD/wOED
eUVuifm0JcZIK2xPhW81sWy5X7HPtZogvRs6TEqdvZZ0DS9IwYdOOJOAbR/lRkfr
MpG18TvkQtL55nA0Oe+EfdZcoHKGC08/I4bWPzBTOiocm+XJWwHSvz4Ha7fB/bAN
fVWdX92S0wfZPp35Ne48t2wf0GtVHQcjNRnzxcKwAH29i15H84QGBMHbPOBsjQC2
bRY0iNZdyV4w47FMj6VMhe/TJbVueJ68HsX5voucxSq01uTMAqzadswScSKONly6
qqTqTllt4jLqSblrKfQ3NcZeSAm3Om/MvtFd4VDjf+QqMUHPHpQukGyJehPMwsHW
ySwXpEjOvdPL+/4H7jr6rJhTZpKWvuf0rhWR0lG/RJBi1jfbphm6FXe9cxUsKq6v
Njjy/j9CssfYSZdHUBwEwjNc6jb1s8BvQCaBvPu20ZfpddqPcn/icuE=
-----END CERTIFICATE-----
