Certificate:
    Data:
        Version: 3 (0x2)
        Serial Number: 769 (0x301)
    Signature Algorithm: sha1WithRSAEncryption
        Issuer: C=US, ST=CA, L=SanFrancisco, O=Pixglo, Inc., OU=VPN-CIE, CN=tunnel.pixglo.com/name=Bala Chandrasekaran/emailAddress=bala@pixglo.com
        Validity
            Not Before: Feb 14 06:43:03 2018 GMT
            Not After : Feb 12 06:43:03 2028 GMT
        Subject: C=US, ST=CA, L=SanFrancisco, O=Pixglo, Inc., OU=VPN-CIE, CN=cie768/name=Bala Chandrasekaran/emailAddress=bala@pixglo.com
        Subject Public Key Info:
            Public Key Algorithm: rsaEncryption
                Public-Key: (4096 bit)
                Modulus:
                    00:ad:8c:5e:bf:e6:a3:5a:e4:e5:bf:a4:86:69:b2:
                    5f:8b:a9:7e:d5:69:f3:89:af:7e:94:f8:62:4b:26:
                    cc:96:ca:73:6a:e4:a6:c0:34:46:33:52:c7:a7:23:
                    f3:81:35:0a:90:be:35:a6:85:80:ab:30:83:f8:1e:
                    8b:87:60:18:08:58:c7:10:17:f8:88:73:68:dd:0c:
                    bb:b1:f1:42:49:2c:c6:f8:f5:84:6e:4d:d8:c9:82:
                    63:a7:86:74:ed:1c:78:ba:fc:d9:d5:f0:88:e2:d4:
                    a4:15:d2:69:18:cc:7d:79:26:d9:fa:99:4d:9b:30:
                    d4:78:34:4e:dd:15:ca:8c:56:76:17:5b:41:b0:eb:
                    9f:aa:af:1a:51:42:6c:48:c2:76:07:d9:6d:74:3a:
                    2c:0a:6d:4a:4c:30:f5:3f:50:92:86:fb:7d:24:4c:
                    7a:62:26:68:2e:ca:fc:bb:da:4c:75:ec:fa:c1:2d:
                    a3:c3:ee:c0:64:0d:fc:09:45:cf:b3:a5:69:86:d9:
                    fe:53:03:0a:db:1f:b2:e6:23:9b:a0:7b:8b:09:0b:
                    7c:0f:bc:4a:6e:6a:f1:7a:dc:08:83:c0:fa:b1:09:
                    f4:64:b9:27:d2:fc:0d:09:7a:65:17:15:62:e1:ec:
                    87:5b:8b:83:ec:5f:8b:e9:af:70:0f:7c:56:20:2f:
                    5e:8d:b6:9b:2d:d7:c2:36:8b:67:ce:f0:8e:dc:56:
                    f2:5b:9e:e0:e7:12:14:3f:cf:0d:66:34:91:03:b4:
                    e0:3d:11:7f:ea:cd:f3:ee:7a:5b:54:a0:9f:89:fc:
                    62:36:b3:4f:13:fe:c9:2c:78:37:74:5f:60:23:40:
                    ea:e8:49:88:a3:f4:5d:49:e4:5b:28:39:a2:53:b4:
                    3a:cd:59:23:42:f8:b7:29:14:a1:bd:48:04:be:ca:
                    a4:51:e5:63:d3:14:af:53:74:03:8e:f8:48:7d:69:
                    9e:f1:c0:ae:2c:70:ec:5b:f3:4d:fc:aa:9d:dc:86:
                    77:8e:ea:9b:23:38:91:b6:9e:dd:77:33:75:3a:54:
                    5b:11:16:32:a2:69:b1:e0:42:5b:b0:d4:d5:00:c5:
                    4a:1a:26:c9:6b:ae:15:66:c6:78:54:f3:f6:0b:a4:
                    75:de:55:0a:09:95:a3:a8:8c:d7:b2:b1:82:f2:11:
                    ae:c2:4a:63:d6:6e:bd:b7:69:07:a2:75:33:c9:9d:
                    b0:90:3b:fb:1f:63:df:9e:b5:2e:83:93:5d:bd:d2:
                    4b:7b:10:94:1a:41:76:03:68:a5:1e:ce:33:9a:73:
                    c7:4d:a5:3e:f1:71:31:f6:87:0d:2d:be:7c:a4:d5:
                    28:fe:c4:4b:f6:57:5f:56:1c:5c:9d:68:56:32:12:
                    78:2a:29
                Exponent: 65537 (0x10001)
        X509v3 extensions:
            X509v3 Basic Constraints: 
                CA:FALSE
            Netscape Comment: 
                Easy-RSA Generated Certificate
            X509v3 Subject Key Identifier: 
                37:62:0B:53:AA:3B:E8:3F:8A:8B:03:00:4A:36:73:D8:63:0F:E1:2C
            X509v3 Authority Key Identifier: 
                keyid:EF:38:8D:14:50:58:A7:5B:4D:9C:17:72:FC:DF:B9:AC:A7:51:B0:10
                DirName:/C=US/ST=CA/L=SanFrancisco/O=Pixglo, Inc./OU=VPN-CIE/CN=tunnel.pixglo.com/name=Bala Chandrasekaran/emailAddress=bala@pixglo.com
                serial:A6:DB:C6:83:80:E6:A0:79

            X509v3 Extended Key Usage: 
                TLS Web Client Authentication
            X509v3 Key Usage: 
                Digital Signature
    Signature Algorithm: sha1WithRSAEncryption
         c9:1a:ff:a7:79:a5:b9:b7:ea:45:f9:ee:f3:c8:57:79:1d:93:
         ea:1d:0c:83:f9:07:0b:ef:41:4b:0c:f7:48:65:c2:45:9b:ad:
         71:fc:2d:7a:4a:8c:47:de:2a:21:cc:ca:7e:b3:93:ca:94:69:
         01:c5:4f:d4:b1:42:a6:5d:a2:c7:3d:f8:e5:f7:e3:fe:7f:13:
         07:a1:8e:f2:12:72:cb:8a:ce:26:ea:db:20:3f:77:9b:20:03:
         b6:7d:be:ad:16:3d:e6:b4:81:12:12:84:b1:b1:dd:51:e8:4a:
         27:9d:f0:23:33:14:f3:3e:d6:7b:e5:4b:18:b5:ba:17:e9:d4:
         2a:c0:78:63:2e:e6:57:2b:91:17:ba:e7:96:91:c5:30:2f:a0:
         79:aa:95:69:05:13:09:b3:4b:a4:68:fa:12:08:ea:c4:e5:c2:
         c7:ea:7d:19:ae:86:e2:75:21:5f:65:63:28:d7:b4:d5:17:36:
         d7:1a:e4:17:1a:7b:e0:b4:1e:a3:7c:fc:9d:73:27:83:7a:eb:
         d8:4f:81:74:01:fb:d0:78:bf:58:85:0d:f4:91:25:3c:a6:e9:
         ae:8a:93:4f:51:68:d3:2a:c3:ce:cf:8a:32:fc:a3:ab:83:a7:
         2b:39:cb:e9:d5:fb:c4:6b:a7:de:1e:63:d5:52:45:e5:51:0c:
         45:23:e8:80:73:08:29:34:14:f2:74:44:63:cb:ec:cf:ca:0d:
         6d:f8:bb:e9:65:b5:4e:f8:c3:de:9a:dd:51:31:f0:c6:0f:b2:
         06:1d:85:3b:d4:31:81:a8:c2:b0:2e:4b:ae:7a:cf:0d:ba:fa:
         c1:30:be:61:20:91:53:5b:67:89:a5:60:10:13:9c:0f:a0:c8:
         a2:15:26:9a:82:73:a3:47:26:d4:64:e9:16:d4:5e:01:39:56:
         cc:65:65:95:1e:3f:b0:9e:4a:56:c3:73:3b:55:28:9f:16:ce:
         85:b0:6c:14:7e:a9:d8:4e:9f:f5:45:5a:68:1e:5d:ac:ee:f2:
         ec:e6:f3:f7:ec:5a:cf:c4:2f:0a:8c:df:f1:81:d5:f1:8f:63:
         96:be:2b:0d:6d:6d:90:5b:a9:17:18:1c:eb:92:25:55:7c:20:
         79:51:f2:2b:2c:9f:d3:e1:44:b5:e1:3a:06:ea:30:90:2f:fd:
         c0:b6:e5:ed:af:3b:ad:b0:a0:c3:48:8b:8e:81:2c:09:5b:72:
         4c:b6:8a:ba:31:66:48:7c:6a:77:ba:20:fb:63:8d:d3:ba:a2:
         a7:74:b3:34:8a:d7:d7:7e:bc:80:6f:17:2d:ac:3c:39:e0:14:
         f8:b4:ea:28:70:75:2f:34:67:a9:0c:4a:50:83:c2:20:81:db:
         0c:ed:96:cc:1c:91:93:9d
-----BEGIN CERTIFICATE-----
MIIHSDCCBTCgAwIBAgICAwEwDQYJKoZIhvcNAQEFBQAwgbQxCzAJBgNVBAYTAlVT
MQswCQYDVQQIEwJDQTEVMBMGA1UEBxMMU2FuRnJhbmNpc2NvMRUwEwYDVQQKEwxQ
aXhnbG8sIEluYy4xEDAOBgNVBAsTB1ZQTi1DSUUxGjAYBgNVBAMTEXR1bm5lbC5w
aXhnbG8uY29tMRwwGgYDVQQpExNCYWxhIENoYW5kcmFzZWthcmFuMR4wHAYJKoZI
hvcNAQkBFg9iYWxhQHBpeGdsby5jb20wHhcNMTgwMjE0MDY0MzAzWhcNMjgwMjEy
MDY0MzAzWjCBqTELMAkGA1UEBhMCVVMxCzAJBgNVBAgTAkNBMRUwEwYDVQQHEwxT
YW5GcmFuY2lzY28xFTATBgNVBAoTDFBpeGdsbywgSW5jLjEQMA4GA1UECxMHVlBO
LUNJRTEPMA0GA1UEAxMGY2llNzY4MRwwGgYDVQQpExNCYWxhIENoYW5kcmFzZWth
cmFuMR4wHAYJKoZIhvcNAQkBFg9iYWxhQHBpeGdsby5jb20wggIiMA0GCSqGSIb3
DQEBAQUAA4ICDwAwggIKAoICAQCtjF6/5qNa5OW/pIZpsl+LqX7VafOJr36U+GJL
JsyWynNq5KbANEYzUsenI/OBNQqQvjWmhYCrMIP4HouHYBgIWMcQF/iIc2jdDLux
8UJJLMb49YRuTdjJgmOnhnTtHHi6/NnV8Iji1KQV0mkYzH15Jtn6mU2bMNR4NE7d
FcqMVnYXW0Gw65+qrxpRQmxIwnYH2W10OiwKbUpMMPU/UJKG+30kTHpiJmguyvy7
2kx17PrBLaPD7sBkDfwJRc+zpWmG2f5TAwrbH7LmI5uge4sJC3wPvEpuavF63AiD
wPqxCfRkuSfS/A0JemUXFWLh7Idbi4PsX4vpr3APfFYgL16Ntpst18I2i2fO8I7c
VvJbnuDnEhQ/zw1mNJEDtOA9EX/qzfPueltUoJ+J/GI2s08T/skseDd0X2AjQOro
SYij9F1J5FsoOaJTtDrNWSNC+LcpFKG9SAS+yqRR5WPTFK9TdAOO+Eh9aZ7xwK4s
cOxb8038qp3chneO6psjOJG2nt13M3U6VFsRFjKiabHgQluw1NUAxUoaJslrrhVm
xnhU8/YLpHXeVQoJlaOojNeysYLyEa7CSmPWbr23aQeidTPJnbCQO/sfY9+etS6D
k1290kt7EJQaQXYDaKUezjOac8dNpT7xcTH2hw0tvnyk1Sj+xEv2V19WHFydaFYy
EngqKQIDAQABo4IBazCCAWcwCQYDVR0TBAIwADAtBglghkgBhvhCAQ0EIBYeRWFz
eS1SU0EgR2VuZXJhdGVkIENlcnRpZmljYXRlMB0GA1UdDgQWBBQ3YgtTqjvoP4qL
AwBKNnPYYw/hLDCB6QYDVR0jBIHhMIHegBTvOI0UUFinW02cF3L837msp1GwEKGB
uqSBtzCBtDELMAkGA1UEBhMCVVMxCzAJBgNVBAgTAkNBMRUwEwYDVQQHEwxTYW5G
cmFuY2lzY28xFTATBgNVBAoTDFBpeGdsbywgSW5jLjEQMA4GA1UECxMHVlBOLUNJ
RTEaMBgGA1UEAxMRdHVubmVsLnBpeGdsby5jb20xHDAaBgNVBCkTE0JhbGEgQ2hh
bmRyYXNla2FyYW4xHjAcBgkqhkiG9w0BCQEWD2JhbGFAcGl4Z2xvLmNvbYIJAKbb
xoOA5qB5MBMGA1UdJQQMMAoGCCsGAQUFBwMCMAsGA1UdDwQEAwIHgDANBgkqhkiG
9w0BAQUFAAOCAgEAyRr/p3mlubfqRfnu88hXeR2T6h0Mg/kHC+9BSwz3SGXCRZut
cfwtekqMR94qIczKfrOTypRpAcVP1LFCpl2ixz345ffj/n8TB6GO8hJyy4rOJurb
ID93myADtn2+rRY95rSBEhKEsbHdUehKJ53wIzMU8z7We+VLGLW6F+nUKsB4Yy7m
VyuRF7rnlpHFMC+geaqVaQUTCbNLpGj6EgjqxOXCx+p9Ga6G4nUhX2VjKNe01Rc2
1xrkFxp74LQeo3z8nXMng3rr2E+BdAH70Hi/WIUN9JElPKbproqTT1Fo0yrDzs+K
Mvyjq4OnKznL6dX7xGun3h5j1VJF5VEMRSPogHMIKTQU8nREY8vsz8oNbfi76WW1
TvjD3prdUTHwxg+yBh2FO9QxgajCsC5LrnrPDbr6wTC+YSCRU1tniaVgEBOcD6DI
ohUmmoJzo0cm1GTpFtReATlWzGVllR4/sJ5KVsNzO1UonxbOhbBsFH6p2E6f9UVa
aB5drO7y7Obz9+xaz8QvCozf8YHV8Y9jlr4rDW1tkFupFxgc65IlVXwgeVHyKyyf
0+FEteE6BuowkC/9wLbl7a87rbCgw0iLjoEsCVtyTLaKujFmSHxqd7og+2ON07qi
p3SzNIrX1368gG8XLaw8OeAU+LTqKHB1LzRnqQxKUIPCIIHbDO2WzByRk50=
-----END CERTIFICATE-----
