Certificate:
    Data:
        Version: 3 (0x2)
        Serial Number: 770 (0x302)
    Signature Algorithm: sha1WithRSAEncryption
        Issuer: C=US, ST=CA, L=SanFrancisco, O=Pixglo, Inc., OU=VPN-CIE, CN=tunnel.pixglo.com/name=Bala Chandrasekaran/emailAddress=bala@pixglo.com
        Validity
            Not Before: Feb 14 06:43:06 2018 GMT
            Not After : Feb 12 06:43:06 2028 GMT
        Subject: C=US, ST=CA, L=SanFrancisco, O=Pixglo, Inc., OU=VPN-CIE, CN=cie769/name=Bala Chandrasekaran/emailAddress=bala@pixglo.com
        Subject Public Key Info:
            Public Key Algorithm: rsaEncryption
                Public-Key: (4096 bit)
                Modulus:
                    00:c8:c6:95:ca:3e:17:4c:dc:c9:32:5e:ce:9c:79:
                    b1:e9:6c:1a:24:2d:ee:ce:60:a8:87:68:02:13:15:
                    cd:ea:cf:cd:de:ec:de:d8:a1:9b:e5:1f:37:2f:bf:
                    d3:5e:91:6f:29:4b:9a:dc:4e:0c:fc:32:ba:5c:d3:
                    36:3a:62:51:2f:48:da:35:d6:73:c6:c3:0b:86:c2:
                    21:c0:25:d0:06:03:dc:8c:3a:87:ac:55:ea:95:c5:
                    ed:58:4b:c8:6d:9c:c1:81:a9:52:97:b9:7f:54:d1:
                    c2:5b:19:f5:42:04:c2:83:a1:48:03:9e:9e:62:51:
                    d2:d9:a3:cb:b6:47:90:96:8f:ed:5f:65:49:64:df:
                    36:81:12:3d:be:9f:c2:72:52:bb:a1:f6:3b:02:5b:
                    ca:0a:01:80:b5:8a:d9:b9:2a:99:5c:85:85:7d:84:
                    3c:9f:dd:a5:75:ea:8e:ff:f4:c7:6d:e0:19:ab:77:
                    23:db:1e:b9:8b:6f:23:b1:22:66:ef:66:6a:13:93:
                    00:ff:59:ad:93:d1:cc:d2:42:71:de:27:d1:13:e0:
                    69:74:95:aa:83:2d:d6:d4:3b:c4:f9:52:a0:6a:fd:
                    58:96:7f:cc:30:dd:34:55:d7:05:50:f1:83:75:86:
                    65:8f:ee:6d:4f:a7:1e:6f:f6:e5:dc:f9:94:97:4f:
                    77:42:12:48:a2:ad:84:c9:60:5b:74:b1:dd:6f:b6:
                    2c:e9:3b:c0:ed:aa:ab:b7:59:a4:3e:86:d5:ae:19:
                    53:2e:65:02:d2:57:dd:38:f9:5d:e4:81:26:d6:66:
                    6d:ea:11:63:e5:cc:bb:e5:91:72:8b:93:8f:28:e9:
                    b5:96:3c:31:1e:c5:dc:fc:18:b6:c7:f8:c3:d8:36:
                    36:3e:1d:2a:02:d6:01:c9:48:fe:2b:77:db:15:91:
                    1c:a0:f8:84:d3:3c:39:15:c7:cb:a1:3f:d3:b1:b0:
                    07:c3:59:93:fd:be:b4:b4:4c:0c:2f:d8:c0:0a:38:
                    78:b9:a6:ce:f6:a4:d0:41:88:e8:41:1e:22:35:0a:
                    1f:ee:8a:29:5f:a7:31:af:1e:5c:0c:33:ae:5f:0e:
                    bd:87:a3:8e:fa:b8:f8:1a:6a:d0:0b:26:54:9e:71:
                    4e:20:b8:ef:3b:fe:ce:5b:f9:65:29:f0:6b:e0:11:
                    1e:83:4a:bb:72:14:0b:59:22:24:0f:a6:ef:d4:c9:
                    f7:13:e9:eb:74:fc:37:15:5b:fd:31:6a:57:73:35:
                    3d:de:42:5c:3a:02:53:fe:cb:bb:6e:6a:97:01:98:
                    18:d0:43:aa:45:2e:69:22:30:52:cc:2b:3f:21:78:
                    e8:77:88:23:80:ce:4d:38:02:53:10:48:ad:0d:9e:
                    1b:0a:9b
                Exponent: 65537 (0x10001)
        X509v3 extensions:
            X509v3 Basic Constraints: 
                CA:FALSE
            Netscape Comment: 
                Easy-RSA Generated Certificate
            X509v3 Subject Key Identifier: 
                1B:AF:95:34:20:D5:FA:6D:31:33:37:5C:6E:F7:63:76:15:45:ED:E7
            X509v3 Authority Key Identifier: 
                keyid:EF:38:8D:14:50:58:A7:5B:4D:9C:17:72:FC:DF:B9:AC:A7:51:B0:10
                DirName:/C=US/ST=CA/L=SanFrancisco/O=Pixglo, Inc./OU=VPN-CIE/CN=tunnel.pixglo.com/name=Bala Chandrasekaran/emailAddress=bala@pixglo.com
                serial:A6:DB:C6:83:80:E6:A0:79

            X509v3 Extended Key Usage: 
                TLS Web Client Authentication
            X509v3 Key Usage: 
                Digital Signature
    Signature Algorithm: sha1WithRSAEncryption
         7f:49:1f:b0:a3:7b:44:b2:10:02:15:b7:64:6a:14:10:a6:89:
         b9:47:ce:ce:fa:6d:4e:88:95:60:72:ea:b2:00:e6:52:65:c0:
         1d:1f:7d:e8:0c:fd:04:f6:ca:7b:62:15:cd:4c:1a:6d:9d:98:
         78:20:f4:c6:dd:f0:e5:aa:84:c1:68:60:93:b2:b4:f7:c7:c5:
         1d:ac:d3:65:4a:a4:15:68:03:a7:17:c0:5a:82:79:4f:f5:77:
         9b:f9:e2:51:76:d4:5f:d7:d3:cb:fe:33:18:eb:7c:99:2f:2d:
         c8:56:99:7c:0f:8e:08:bb:d3:97:7a:3d:e3:6e:b0:fb:50:5a:
         9e:51:ff:00:4e:3d:2e:0c:e7:63:a3:15:47:f0:6e:0c:6e:f9:
         f4:bb:75:9b:0e:e6:43:bd:bb:05:76:df:4b:5d:4d:77:18:db:
         d1:41:b7:52:86:01:88:ab:1a:cd:6a:5b:bc:f3:04:65:9c:e1:
         a0:1c:ed:c5:34:a8:7c:a8:02:05:35:79:ec:7e:27:ef:b0:35:
         c8:07:14:a8:dc:5e:81:41:20:f4:d3:6e:ac:60:25:61:d7:f1:
         b4:36:20:ac:91:da:aa:17:a0:6b:91:91:c4:10:93:af:21:44:
         7d:4d:0f:59:04:14:6f:9b:7c:ac:81:b3:77:89:ce:a5:23:ff:
         34:09:35:c5:d9:18:25:bc:ef:a7:42:d2:44:05:cf:7d:9d:58:
         2e:bb:82:4d:f3:a5:9d:fb:87:e5:a6:53:58:88:da:99:07:ad:
         2b:66:df:a9:5f:d6:7e:6a:68:f1:03:b0:3c:a0:23:93:4f:09:
         69:f3:01:05:7d:e4:47:96:0a:86:7a:cb:f9:13:b4:db:45:3b:
         08:c9:0a:c6:af:ee:0e:7c:99:72:01:2c:d9:74:34:28:dd:54:
         13:bb:82:ec:73:d6:35:53:9b:c4:5b:dc:e2:f9:60:8c:14:b8:
         67:b9:6e:e9:2b:22:8e:49:ef:75:3d:98:52:4d:4b:1b:c1:dc:
         2e:63:ff:2a:42:b4:3b:bc:5f:8d:49:99:6c:01:9d:59:a4:6e:
         2a:7c:98:07:6b:9c:6a:f4:f5:4a:73:39:c8:35:e8:6c:d2:10:
         73:6c:c3:ac:13:26:23:c1:be:30:af:02:af:c1:b0:49:26:4c:
         69:b8:a9:f4:75:eb:b8:02:72:25:a6:1f:f2:90:73:0f:a6:28:
         2c:84:e2:1a:eb:88:a3:34:fe:35:89:94:29:1d:83:b5:ff:10:
         95:8a:43:d8:2e:5c:f8:da:cc:7f:72:97:4b:7a:35:46:3e:32:
         e6:45:f3:54:44:ef:6d:95:6a:b2:56:e5:b4:11:98:a8:c3:03:
         2f:5a:d3:c7:ee:cc:ca:46
-----BEGIN CERTIFICATE-----
MIIHSDCCBTCgAwIBAgICAwIwDQYJKoZIhvcNAQEFBQAwgbQxCzAJBgNVBAYTAlVT
MQswCQYDVQQIEwJDQTEVMBMGA1UEBxMMU2FuRnJhbmNpc2NvMRUwEwYDVQQKEwxQ
aXhnbG8sIEluYy4xEDAOBgNVBAsTB1ZQTi1DSUUxGjAYBgNVBAMTEXR1bm5lbC5w
aXhnbG8uY29tMRwwGgYDVQQpExNCYWxhIENoYW5kcmFzZWthcmFuMR4wHAYJKoZI
hvcNAQkBFg9iYWxhQHBpeGdsby5jb20wHhcNMTgwMjE0MDY0MzA2WhcNMjgwMjEy
MDY0MzA2WjCBqTELMAkGA1UEBhMCVVMxCzAJBgNVBAgTAkNBMRUwEwYDVQQHEwxT
YW5GcmFuY2lzY28xFTATBgNVBAoTDFBpeGdsbywgSW5jLjEQMA4GA1UECxMHVlBO
LUNJRTEPMA0GA1UEAxMGY2llNzY5MRwwGgYDVQQpExNCYWxhIENoYW5kcmFzZWth
cmFuMR4wHAYJKoZIhvcNAQkBFg9iYWxhQHBpeGdsby5jb20wggIiMA0GCSqGSIb3
DQEBAQUAA4ICDwAwggIKAoICAQDIxpXKPhdM3MkyXs6cebHpbBokLe7OYKiHaAIT
Fc3qz83e7N7YoZvlHzcvv9NekW8pS5rcTgz8Mrpc0zY6YlEvSNo11nPGwwuGwiHA
JdAGA9yMOoesVeqVxe1YS8htnMGBqVKXuX9U0cJbGfVCBMKDoUgDnp5iUdLZo8u2
R5CWj+1fZUlk3zaBEj2+n8JyUruh9jsCW8oKAYC1itm5KplchYV9hDyf3aV16o7/
9Mdt4BmrdyPbHrmLbyOxImbvZmoTkwD/Wa2T0czSQnHeJ9ET4Gl0laqDLdbUO8T5
UqBq/ViWf8ww3TRV1wVQ8YN1hmWP7m1Ppx5v9uXc+ZSXT3dCEkiirYTJYFt0sd1v
tizpO8Dtqqu3WaQ+htWuGVMuZQLSV904+V3kgSbWZm3qEWPlzLvlkXKLk48o6bWW
PDEexdz8GLbH+MPYNjY+HSoC1gHJSP4rd9sVkRyg+ITTPDkVx8uhP9OxsAfDWZP9
vrS0TAwv2MAKOHi5ps72pNBBiOhBHiI1Ch/uiilfpzGvHlwMM65fDr2Ho476uPga
atALJlSecU4guO87/s5b+WUp8GvgER6DSrtyFAtZIiQPpu/UyfcT6et0/DcVW/0x
aldzNT3eQlw6AlP+y7tuapcBmBjQQ6pFLmkiMFLMKz8heOh3iCOAzk04AlMQSK0N
nhsKmwIDAQABo4IBazCCAWcwCQYDVR0TBAIwADAtBglghkgBhvhCAQ0EIBYeRWFz
eS1SU0EgR2VuZXJhdGVkIENlcnRpZmljYXRlMB0GA1UdDgQWBBQbr5U0INX6bTEz
N1xu92N2FUXt5zCB6QYDVR0jBIHhMIHegBTvOI0UUFinW02cF3L837msp1GwEKGB
uqSBtzCBtDELMAkGA1UEBhMCVVMxCzAJBgNVBAgTAkNBMRUwEwYDVQQHEwxTYW5G
cmFuY2lzY28xFTATBgNVBAoTDFBpeGdsbywgSW5jLjEQMA4GA1UECxMHVlBOLUNJ
RTEaMBgGA1UEAxMRdHVubmVsLnBpeGdsby5jb20xHDAaBgNVBCkTE0JhbGEgQ2hh
bmRyYXNla2FyYW4xHjAcBgkqhkiG9w0BCQEWD2JhbGFAcGl4Z2xvLmNvbYIJAKbb
xoOA5qB5MBMGA1UdJQQMMAoGCCsGAQUFBwMCMAsGA1UdDwQEAwIHgDANBgkqhkiG
9w0BAQUFAAOCAgEAf0kfsKN7RLIQAhW3ZGoUEKaJuUfOzvptToiVYHLqsgDmUmXA
HR996Az9BPbKe2IVzUwabZ2YeCD0xt3w5aqEwWhgk7K098fFHazTZUqkFWgDpxfA
WoJ5T/V3m/niUXbUX9fTy/4zGOt8mS8tyFaZfA+OCLvTl3o9426w+1BanlH/AE49
LgznY6MVR/BuDG759Lt1mw7mQ727BXbfS11Ndxjb0UG3UoYBiKsazWpbvPMEZZzh
oBztxTSofKgCBTV57H4n77A1yAcUqNxegUEg9NNurGAlYdfxtDYgrJHaqhega5GR
xBCTryFEfU0PWQQUb5t8rIGzd4nOpSP/NAk1xdkYJbzvp0LSRAXPfZ1YLruCTfOl
nfuH5aZTWIjamQetK2bfqV/Wfmpo8QOwPKAjk08JafMBBX3kR5YKhnrL+RO020U7
CMkKxq/uDnyZcgEs2XQ0KN1UE7uC7HPWNVObxFvc4vlgjBS4Z7lu6SsijknvdT2Y
Uk1LG8HcLmP/KkK0O7xfjUmZbAGdWaRuKnyYB2ucavT1SnM5yDXobNIQc2zDrBMm
I8G+MK8Cr8GwSSZMabip9HXruAJyJaYf8pBzD6YoLITiGuuIozT+NYmUKR2Dtf8Q
lYpD2C5c+NrMf3KXS3o1Rj4y5kXzVETvbZVqslbltBGYqMMDL1rTx+7MykY=
-----END CERTIFICATE-----
