Certificate:
    Data:
        Version: 3 (0x2)
        Serial Number: 773 (0x305)
    Signature Algorithm: sha1WithRSAEncryption
        Issuer: C=US, ST=CA, L=SanFrancisco, O=Pixglo, Inc., OU=VPN-CIE, CN=tunnel.pixglo.com/name=Bala Chandrasekaran/emailAddress=bala@pixglo.com
        Validity
            Not Before: Feb 14 06:43:13 2018 GMT
            Not After : Feb 12 06:43:13 2028 GMT
        Subject: C=US, ST=CA, L=SanFrancisco, O=Pixglo, Inc., OU=VPN-CIE, CN=cie772/name=Bala Chandrasekaran/emailAddress=bala@pixglo.com
        Subject Public Key Info:
            Public Key Algorithm: rsaEncryption
                Public-Key: (4096 bit)
                Modulus:
                    00:e6:5a:4c:90:ec:60:90:dd:80:68:72:9c:c5:3a:
                    7a:5d:11:7c:d6:0f:d5:8e:21:92:85:b1:bd:da:62:
                    18:ce:60:be:6b:6d:34:6d:de:2a:1f:28:1b:18:f7:
                    44:60:24:1c:a1:eb:7c:b2:a9:42:79:b6:80:60:ed:
                    ad:4c:34:dc:dd:12:d3:b1:d8:88:8c:d4:82:c5:8e:
                    da:74:cc:c7:0c:56:fa:43:34:1c:b8:8b:9e:db:33:
                    6b:49:14:1f:2d:40:46:08:b5:f2:92:1c:d5:17:48:
                    18:cd:57:f4:de:b4:e3:2b:a0:b2:8e:71:64:c4:b8:
                    1f:de:11:e3:9b:51:e7:81:03:bc:ee:fa:0c:7f:a1:
                    ab:bb:c0:40:92:06:59:a9:38:32:bc:0f:2e:dc:8f:
                    03:02:20:dd:fe:5a:bb:7e:41:58:10:00:d7:d9:c7:
                    40:93:db:86:4b:4b:b4:b1:fa:be:52:55:0d:bb:ce:
                    a4:6f:ae:a4:ad:21:80:df:f0:61:62:08:9f:c4:32:
                    de:4f:f9:41:a6:f8:29:1d:29:83:83:43:52:13:f6:
                    7d:1f:68:1f:b6:c5:b9:a6:9d:8b:2e:31:e7:3f:78:
                    7b:b3:3c:1c:1b:89:dd:70:12:19:81:79:28:e9:ac:
                    01:ed:cd:43:28:12:4a:b7:03:3c:0b:27:cc:0f:e1:
                    6a:f5:28:bc:30:cf:6d:81:55:ea:a0:1e:f7:cc:b4:
                    34:7a:56:f7:2a:26:77:78:0d:11:58:57:af:77:64:
                    49:a5:be:a0:80:b6:53:c6:5b:35:c3:fe:3d:90:a2:
                    bd:3b:d6:bd:f5:80:de:1c:ad:88:fc:55:67:4e:7b:
                    04:52:b5:0b:5a:e2:12:b1:0f:59:04:6a:9e:6d:55:
                    90:3e:27:e7:f6:1b:1c:66:60:ec:48:c6:7f:53:bc:
                    c6:af:52:a2:ed:a1:59:9d:ba:db:3f:0f:7e:ad:28:
                    da:da:f7:22:2d:87:5c:41:95:43:3f:3c:67:1f:f1:
                    3d:f1:a1:fa:7e:c4:bc:c5:66:1c:03:87:ba:83:4a:
                    64:d5:e5:c4:5c:fb:24:4c:2b:a7:00:99:1c:c6:26:
                    8e:35:11:05:36:4a:ab:5c:1f:ba:d1:64:51:b6:46:
                    c5:52:ab:76:4d:7e:5e:30:2c:f9:13:96:46:1e:c2:
                    00:a7:7e:7c:c6:1c:73:26:b9:35:e6:73:85:ab:34:
                    e6:36:7b:2b:aa:50:2e:3a:c4:5c:f2:9b:bc:6f:86:
                    15:e6:17:d0:7e:60:e7:e6:ff:d3:6c:d4:5f:71:70:
                    7d:77:d8:29:e1:5e:5a:9d:4d:8e:e7:11:cf:61:ba:
                    f7:53:8d:da:fd:fd:58:fa:dd:04:b4:ce:ff:f2:5c:
                    e6:92:95
                Exponent: 65537 (0x10001)
        X509v3 extensions:
            X509v3 Basic Constraints: 
                CA:FALSE
            Netscape Comment: 
                Easy-RSA Generated Certificate
            X509v3 Subject Key Identifier: 
                67:26:1D:D2:37:C6:05:8E:4D:F1:23:69:37:94:66:0F:66:8E:B6:D5
            X509v3 Authority Key Identifier: 
                keyid:EF:38:8D:14:50:58:A7:5B:4D:9C:17:72:FC:DF:B9:AC:A7:51:B0:10
                DirName:/C=US/ST=CA/L=SanFrancisco/O=Pixglo, Inc./OU=VPN-CIE/CN=tunnel.pixglo.com/name=Bala Chandrasekaran/emailAddress=bala@pixglo.com
                serial:A6:DB:C6:83:80:E6:A0:79

            X509v3 Extended Key Usage: 
                TLS Web Client Authentication
            X509v3 Key Usage: 
                Digital Signature
    Signature Algorithm: sha1WithRSAEncryption
         c4:11:3d:3b:85:0d:60:bb:8b:19:25:30:1f:89:42:5f:e1:4f:
         b5:d5:71:dc:e9:18:13:37:85:6b:81:31:e0:b3:46:5b:6e:dd:
         14:e1:8c:b8:ad:3e:57:96:f4:82:93:cc:30:0e:ca:38:57:85:
         1e:ae:cf:a0:20:36:63:7b:91:24:0e:96:15:87:d9:d3:cd:62:
         dd:19:7c:2b:80:23:52:a8:dc:39:68:b3:0b:4d:ef:4d:37:55:
         c8:01:51:b9:bf:33:b0:16:16:28:8d:4e:bf:95:d8:54:ba:ef:
         8f:0a:9a:76:cf:90:1a:a7:76:e7:09:bf:38:6a:98:df:f8:a5:
         f6:9a:d1:14:00:91:ee:fd:84:79:45:1a:43:15:02:57:c8:57:
         e8:86:f3:a8:5c:81:62:6d:b6:35:4c:17:4a:10:ef:06:c2:c1:
         fd:e2:ac:4d:59:f7:fc:c8:82:01:68:f2:41:32:56:99:b3:96:
         40:84:8a:a9:42:26:cb:c8:6e:2c:5a:25:a9:07:f0:c0:cd:07:
         04:51:cb:f8:41:7b:56:97:1a:e9:ec:4f:40:d8:93:59:96:0b:
         32:3f:4e:e0:e2:ae:ec:c4:6e:d2:fc:bf:c7:3b:38:6f:92:ce:
         88:b8:92:08:82:dc:a0:a7:f7:96:41:af:00:42:13:20:b1:e8:
         f2:86:b2:22:ef:80:9c:b8:d1:f6:8b:51:cb:61:88:61:25:28:
         c0:93:c5:6e:56:60:bd:28:44:90:80:a9:00:d6:c9:6f:99:62:
         56:3c:32:f3:8e:76:b5:42:08:d6:39:c6:34:fa:5e:f9:c4:8e:
         00:eb:13:71:58:0c:f2:f3:15:3c:77:a9:5e:fd:aa:3a:11:19:
         71:6f:a9:e5:04:7f:5d:9b:77:65:b1:aa:17:b7:f2:eb:b3:ae:
         1f:af:9a:8f:b1:99:67:9c:84:8f:bb:81:f8:34:bb:e8:93:5a:
         e5:66:ea:39:07:7d:dc:83:65:25:64:ec:2e:03:22:d6:2a:db:
         b5:18:6c:07:00:ea:6a:25:7b:21:ce:97:d7:06:54:f9:e5:91:
         8d:89:85:e5:0d:74:fc:2e:7c:00:df:75:b9:41:8c:c1:95:67:
         b8:83:70:d4:ee:01:94:b2:31:1d:6f:a0:ff:91:fd:4e:b5:56:
         99:04:4d:82:38:57:c2:41:a4:9e:ad:cf:28:29:65:1a:09:46:
         ba:46:7a:dc:37:4c:18:1f:c1:ee:61:c6:a0:fc:19:50:fa:be:
         0d:e5:bb:68:88:65:6b:c5:61:19:2c:96:6b:5a:67:67:80:01:
         b4:b6:b8:29:90:f2:93:c3:e3:a0:5b:29:43:07:c7:6c:6a:5c:
         9e:5c:6b:c0:ba:68:91:7a
-----BEGIN CERTIFICATE-----
MIIHSDCCBTCgAwIBAgICAwUwDQYJKoZIhvcNAQEFBQAwgbQxCzAJBgNVBAYTAlVT
MQswCQYDVQQIEwJDQTEVMBMGA1UEBxMMU2FuRnJhbmNpc2NvMRUwEwYDVQQKEwxQ
aXhnbG8sIEluYy4xEDAOBgNVBAsTB1ZQTi1DSUUxGjAYBgNVBAMTEXR1bm5lbC5w
aXhnbG8uY29tMRwwGgYDVQQpExNCYWxhIENoYW5kcmFzZWthcmFuMR4wHAYJKoZI
hvcNAQkBFg9iYWxhQHBpeGdsby5jb20wHhcNMTgwMjE0MDY0MzEzWhcNMjgwMjEy
MDY0MzEzWjCBqTELMAkGA1UEBhMCVVMxCzAJBgNVBAgTAkNBMRUwEwYDVQQHEwxT
YW5GcmFuY2lzY28xFTATBgNVBAoTDFBpeGdsbywgSW5jLjEQMA4GA1UECxMHVlBO
LUNJRTEPMA0GA1UEAxMGY2llNzcyMRwwGgYDVQQpExNCYWxhIENoYW5kcmFzZWth
cmFuMR4wHAYJKoZIhvcNAQkBFg9iYWxhQHBpeGdsby5jb20wggIiMA0GCSqGSIb3
DQEBAQUAA4ICDwAwggIKAoICAQDmWkyQ7GCQ3YBocpzFOnpdEXzWD9WOIZKFsb3a
YhjOYL5rbTRt3iofKBsY90RgJByh63yyqUJ5toBg7a1MNNzdEtOx2IiM1ILFjtp0
zMcMVvpDNBy4i57bM2tJFB8tQEYItfKSHNUXSBjNV/TetOMroLKOcWTEuB/eEeOb
UeeBA7zu+gx/oau7wECSBlmpODK8Dy7cjwMCIN3+Wrt+QVgQANfZx0CT24ZLS7Sx
+r5SVQ27zqRvrqStIYDf8GFiCJ/EMt5P+UGm+CkdKYODQ1IT9n0faB+2xbmmnYsu
Mec/eHuzPBwbid1wEhmBeSjprAHtzUMoEkq3AzwLJ8wP4Wr1KLwwz22BVeqgHvfM
tDR6VvcqJnd4DRFYV693ZEmlvqCAtlPGWzXD/j2Qor071r31gN4crYj8VWdOewRS
tQta4hKxD1kEap5tVZA+J+f2GxxmYOxIxn9TvMavUqLtoVmduts/D36tKNra9yIt
h1xBlUM/PGcf8T3xofp+xLzFZhwDh7qDSmTV5cRc+yRMK6cAmRzGJo41EQU2Sqtc
H7rRZFG2RsVSq3ZNfl4wLPkTlkYewgCnfnzGHHMmuTXmc4WrNOY2eyuqUC46xFzy
m7xvhhXmF9B+YOfm/9Ns1F9xcH132CnhXlqdTY7nEc9huvdTjdr9/Vj63QS0zv/y
XOaSlQIDAQABo4IBazCCAWcwCQYDVR0TBAIwADAtBglghkgBhvhCAQ0EIBYeRWFz
eS1SU0EgR2VuZXJhdGVkIENlcnRpZmljYXRlMB0GA1UdDgQWBBRnJh3SN8YFjk3x
I2k3lGYPZo621TCB6QYDVR0jBIHhMIHegBTvOI0UUFinW02cF3L837msp1GwEKGB
uqSBtzCBtDELMAkGA1UEBhMCVVMxCzAJBgNVBAgTAkNBMRUwEwYDVQQHEwxTYW5G
cmFuY2lzY28xFTATBgNVBAoTDFBpeGdsbywgSW5jLjEQMA4GA1UECxMHVlBOLUNJ
RTEaMBgGA1UEAxMRdHVubmVsLnBpeGdsby5jb20xHDAaBgNVBCkTE0JhbGEgQ2hh
bmRyYXNla2FyYW4xHjAcBgkqhkiG9w0BCQEWD2JhbGFAcGl4Z2xvLmNvbYIJAKbb
xoOA5qB5MBMGA1UdJQQMMAoGCCsGAQUFBwMCMAsGA1UdDwQEAwIHgDANBgkqhkiG
9w0BAQUFAAOCAgEAxBE9O4UNYLuLGSUwH4lCX+FPtdVx3OkYEzeFa4Ex4LNGW27d
FOGMuK0+V5b0gpPMMA7KOFeFHq7PoCA2Y3uRJA6WFYfZ081i3Rl8K4AjUqjcOWiz
C03vTTdVyAFRub8zsBYWKI1Ov5XYVLrvjwqads+QGqd25wm/OGqY3/il9prRFACR
7v2EeUUaQxUCV8hX6IbzqFyBYm22NUwXShDvBsLB/eKsTVn3/MiCAWjyQTJWmbOW
QISKqUImy8huLFolqQfwwM0HBFHL+EF7Vpca6exPQNiTWZYLMj9O4OKu7MRu0vy/
xzs4b5LOiLiSCILcoKf3lkGvAEITILHo8oayIu+AnLjR9otRy2GIYSUowJPFblZg
vShEkICpANbJb5liVjwy8452tUII1jnGNPpe+cSOAOsTcVgM8vMVPHepXv2qOhEZ
cW+p5QR/XZt3ZbGqF7fy67OuH6+aj7GZZ5yEj7uB+DS76JNa5WbqOQd93INlJWTs
LgMi1irbtRhsBwDqaiV7Ic6X1wZU+eWRjYmF5Q10/C58AN91uUGMwZVnuINw1O4B
lLIxHW+g/5H9TrVWmQRNgjhXwkGknq3PKCllGglGukZ63DdMGB/B7mHGoPwZUPq+
DeW7aIhla8VhGSyWa1pnZ4ABtLa4KZDyk8PjoFspQwfHbGpcnlxrwLpokXo=
-----END CERTIFICATE-----
