Certificate:
    Data:
        Version: 3 (0x2)
        Serial Number: 776 (0x308)
    Signature Algorithm: sha1WithRSAEncryption
        Issuer: C=US, ST=CA, L=SanFrancisco, O=Pixglo, Inc., OU=VPN-CIE, CN=tunnel.pixglo.com/name=Bala Chandrasekaran/emailAddress=bala@pixglo.com
        Validity
            Not Before: Feb 14 06:43:16 2018 GMT
            Not After : Feb 12 06:43:16 2028 GMT
        Subject: C=US, ST=CA, L=SanFrancisco, O=Pixglo, Inc., OU=VPN-CIE, CN=cie775/name=Bala Chandrasekaran/emailAddress=bala@pixglo.com
        Subject Public Key Info:
            Public Key Algorithm: rsaEncryption
                Public-Key: (4096 bit)
                Modulus:
                    00:98:25:2c:7d:67:51:a9:73:a2:70:c1:fa:4f:5e:
                    78:4b:d9:35:87:10:75:7d:44:44:a0:e6:a1:ca:3c:
                    19:22:cb:c7:f9:51:ee:6b:6c:48:b0:b6:ba:4d:39:
                    ed:ac:a0:43:5e:54:a8:93:8b:ab:86:e7:22:9e:dc:
                    69:a9:d0:b4:36:0d:d8:34:fb:d2:58:a9:73:7c:6c:
                    41:68:20:1b:7c:d5:3e:3a:75:55:35:e7:8a:fd:97:
                    75:65:30:5a:ed:93:4e:eb:b3:67:05:7c:86:43:ca:
                    d8:a2:68:6d:e4:a2:5b:03:5b:7b:51:c3:e5:fb:46:
                    eb:95:64:f6:f1:96:d5:ed:ec:99:1e:c2:df:30:ab:
                    3b:48:e5:5e:2d:a7:93:57:bb:02:6d:43:9e:cf:a9:
                    1a:77:cf:55:39:0e:a0:5d:26:f1:2d:3d:e5:7d:84:
                    77:dc:eb:9d:3c:28:35:ee:5d:5e:05:0b:d8:36:a8:
                    4f:0c:37:3b:28:1c:2a:00:ca:bb:07:cf:29:29:ed:
                    d2:d2:85:e2:5d:89:81:e3:d8:04:43:62:36:ad:d1:
                    10:c3:c5:f4:fc:1a:56:30:bd:f0:a3:dd:29:a5:c3:
                    a1:01:40:49:54:49:db:39:be:a9:87:82:af:60:2a:
                    bb:f5:5b:bd:73:96:bc:e8:12:83:82:6b:c4:33:e5:
                    0e:4e:f4:4f:34:00:32:24:6e:61:a8:f4:3a:1f:60:
                    30:76:e3:fe:1d:e0:a8:f3:d4:7e:7c:c0:6a:1c:39:
                    bb:bb:6a:3d:16:7d:87:16:2a:35:c0:ff:c4:f4:2a:
                    58:38:3a:38:ba:42:e8:59:df:9d:bb:4f:b3:ce:3b:
                    ae:da:88:96:04:48:d1:ec:73:c2:42:e4:27:02:cd:
                    6e:a8:30:3d:b4:bb:da:ce:16:3e:79:41:35:c6:1d:
                    fb:25:12:63:de:40:2f:f4:3f:3f:7f:5a:af:42:43:
                    34:7d:e1:c0:b8:2c:db:fa:ed:a4:bf:06:3a:ac:1b:
                    54:ab:e0:88:79:43:7d:15:fd:6e:f9:63:b8:2a:55:
                    38:f7:a1:56:2c:cb:b9:fb:1e:d7:a2:97:ec:a3:c8:
                    65:77:f7:d3:81:a6:07:2f:35:4a:0d:e0:57:b4:4c:
                    50:cd:0f:d7:14:51:00:4e:67:20:10:f0:72:2d:e3:
                    08:99:86:6a:5b:ac:38:7b:cb:c3:ff:82:a7:16:a7:
                    44:f7:09:51:80:dc:21:63:bc:f7:50:f6:41:71:57:
                    50:d1:7c:ee:52:20:e0:64:c8:b8:47:21:c1:eb:d0:
                    5e:93:51:7c:2b:39:c4:eb:e8:92:fa:8b:84:88:8e:
                    b9:2e:7c:a3:ba:3e:66:8b:a3:90:3f:2b:53:75:4b:
                    2f:b0:07
                Exponent: 65537 (0x10001)
        X509v3 extensions:
            X509v3 Basic Constraints: 
                CA:FALSE
            Netscape Comment: 
                Easy-RSA Generated Certificate
            X509v3 Subject Key Identifier: 
                B7:7B:30:FC:46:4E:41:1D:C1:B6:C0:B9:0E:FC:63:71:23:01:5A:3B
            X509v3 Authority Key Identifier: 
                keyid:EF:38:8D:14:50:58:A7:5B:4D:9C:17:72:FC:DF:B9:AC:A7:51:B0:10
                DirName:/C=US/ST=CA/L=SanFrancisco/O=Pixglo, Inc./OU=VPN-CIE/CN=tunnel.pixglo.com/name=Bala Chandrasekaran/emailAddress=bala@pixglo.com
                serial:A6:DB:C6:83:80:E6:A0:79

            X509v3 Extended Key Usage: 
                TLS Web Client Authentication
            X509v3 Key Usage: 
                Digital Signature
    Signature Algorithm: sha1WithRSAEncryption
         33:f1:2b:b1:6c:a2:fe:37:19:3d:1d:8a:8f:d7:9e:3d:18:45:
         37:c8:d6:1d:66:7c:8f:be:ce:06:30:22:91:d8:36:fa:c5:e2:
         3f:2f:d9:d3:d8:21:e6:4d:43:3c:33:e8:22:66:0e:bb:65:d1:
         0f:1e:aa:ce:9e:64:f8:53:24:76:61:e4:2a:06:eb:35:25:0a:
         67:6d:1a:c6:46:71:33:5b:a4:f7:88:1a:a9:0d:93:0b:5f:5a:
         1a:be:7a:b2:cd:1c:6f:a1:b1:b0:1b:df:7d:7c:3b:0c:c7:32:
         20:ca:09:18:d3:23:c6:a4:73:38:9e:39:0d:20:df:63:07:f1:
         a5:98:b9:14:c3:2f:f4:ab:34:fb:e6:4f:10:2d:3d:bb:98:a3:
         fa:1c:9d:77:d2:24:7a:3f:c1:a8:6d:66:5e:b0:67:8f:71:83:
         b9:9d:13:ab:6a:0a:07:fb:0d:7b:6a:b3:36:27:e9:0b:d8:c0:
         d9:cc:2a:1c:cb:41:93:e8:ce:5f:9d:98:ce:ad:56:a3:17:67:
         c3:e0:93:b2:1f:e9:d3:83:27:09:d0:c7:77:ec:4b:fc:57:91:
         cc:d8:4e:95:a4:d0:63:d8:fc:0e:c6:a6:41:e2:d3:e6:4b:fe:
         09:fa:98:92:7c:a4:b2:bc:c8:6c:10:ef:6e:26:90:6a:6f:5a:
         ba:64:6c:9e:60:3e:33:d4:7f:58:33:3a:30:1f:a0:5f:30:3d:
         a3:4d:ed:44:f8:51:f4:65:64:3d:90:8b:66:37:5b:90:12:7d:
         d6:6e:0d:98:38:a0:60:a9:a7:74:ab:ef:18:b2:a5:b9:e0:d1:
         74:02:51:dc:51:83:ef:2a:a8:6b:e9:ca:0f:54:08:93:0e:14:
         09:df:67:9e:0f:95:a8:a1:df:6b:31:bd:26:c6:b4:24:3c:e3:
         c7:1a:07:d1:4d:05:a0:49:97:e9:b2:e5:4c:08:43:49:7d:bf:
         f1:40:e5:9c:db:48:4c:37:a2:48:3c:6b:cb:ff:06:1d:47:15:
         af:ff:62:5c:6a:b0:c4:e2:af:cf:a7:3e:57:13:85:24:51:c4:
         d4:b4:b4:0e:19:d8:79:c5:0e:1d:f3:6d:83:d1:38:9c:d7:69:
         e4:fa:49:59:6e:fc:88:05:15:03:b4:6f:5b:7a:da:0d:dc:f5:
         07:67:fd:1d:d6:d0:2b:e2:c8:66:99:7b:94:b8:9c:57:ce:af:
         5a:97:50:fd:43:7e:f6:2e:6c:69:23:9a:ae:87:2a:a4:ba:7e:
         11:ea:67:90:f3:86:56:9a:10:46:df:5b:83:6a:a0:bb:08:c9:
         0a:d0:40:1d:f7:f7:3e:67:12:2e:7a:68:b5:dd:74:43:2b:64:
         2d:c6:f4:da:f4:86:95:c6
-----BEGIN CERTIFICATE-----
MIIHSDCCBTCgAwIBAgICAwgwDQYJKoZIhvcNAQEFBQAwgbQxCzAJBgNVBAYTAlVT
MQswCQYDVQQIEwJDQTEVMBMGA1UEBxMMU2FuRnJhbmNpc2NvMRUwEwYDVQQKEwxQ
aXhnbG8sIEluYy4xEDAOBgNVBAsTB1ZQTi1DSUUxGjAYBgNVBAMTEXR1bm5lbC5w
aXhnbG8uY29tMRwwGgYDVQQpExNCYWxhIENoYW5kcmFzZWthcmFuMR4wHAYJKoZI
hvcNAQkBFg9iYWxhQHBpeGdsby5jb20wHhcNMTgwMjE0MDY0MzE2WhcNMjgwMjEy
MDY0MzE2WjCBqTELMAkGA1UEBhMCVVMxCzAJBgNVBAgTAkNBMRUwEwYDVQQHEwxT
YW5GcmFuY2lzY28xFTATBgNVBAoTDFBpeGdsbywgSW5jLjEQMA4GA1UECxMHVlBO
LUNJRTEPMA0GA1UEAxMGY2llNzc1MRwwGgYDVQQpExNCYWxhIENoYW5kcmFzZWth
cmFuMR4wHAYJKoZIhvcNAQkBFg9iYWxhQHBpeGdsby5jb20wggIiMA0GCSqGSIb3
DQEBAQUAA4ICDwAwggIKAoICAQCYJSx9Z1Gpc6JwwfpPXnhL2TWHEHV9RESg5qHK
PBkiy8f5Ue5rbEiwtrpNOe2soENeVKiTi6uG5yKe3Gmp0LQ2Ddg0+9JYqXN8bEFo
IBt81T46dVU154r9l3VlMFrtk07rs2cFfIZDytiiaG3kolsDW3tRw+X7RuuVZPbx
ltXt7Jkewt8wqztI5V4tp5NXuwJtQ57PqRp3z1U5DqBdJvEtPeV9hHfc6508KDXu
XV4FC9g2qE8MNzsoHCoAyrsHzykp7dLSheJdiYHj2ARDYjat0RDDxfT8GlYwvfCj
3Smlw6EBQElUSds5vqmHgq9gKrv1W71zlrzoEoOCa8Qz5Q5O9E80ADIkbmGo9Dof
YDB24/4d4Kjz1H58wGocObu7aj0WfYcWKjXA/8T0Klg4Oji6QuhZ3527T7POO67a
iJYESNHsc8JC5CcCzW6oMD20u9rOFj55QTXGHfslEmPeQC/0Pz9/Wq9CQzR94cC4
LNv67aS/BjqsG1Sr4Ih5Q30V/W75Y7gqVTj3oVYsy7n7Hteil+yjyGV399OBpgcv
NUoN4Fe0TFDND9cUUQBOZyAQ8HIt4wiZhmpbrDh7y8P/gqcWp0T3CVGA3CFjvPdQ
9kFxV1DRfO5SIOBkyLhHIcHr0F6TUXwrOcTr6JL6i4SIjrkufKO6PmaLo5A/K1N1
Sy+wBwIDAQABo4IBazCCAWcwCQYDVR0TBAIwADAtBglghkgBhvhCAQ0EIBYeRWFz
eS1SU0EgR2VuZXJhdGVkIENlcnRpZmljYXRlMB0GA1UdDgQWBBS3ezD8Rk5BHcG2
wLkO/GNxIwFaOzCB6QYDVR0jBIHhMIHegBTvOI0UUFinW02cF3L837msp1GwEKGB
uqSBtzCBtDELMAkGA1UEBhMCVVMxCzAJBgNVBAgTAkNBMRUwEwYDVQQHEwxTYW5G
cmFuY2lzY28xFTATBgNVBAoTDFBpeGdsbywgSW5jLjEQMA4GA1UECxMHVlBOLUNJ
RTEaMBgGA1UEAxMRdHVubmVsLnBpeGdsby5jb20xHDAaBgNVBCkTE0JhbGEgQ2hh
bmRyYXNla2FyYW4xHjAcBgkqhkiG9w0BCQEWD2JhbGFAcGl4Z2xvLmNvbYIJAKbb
xoOA5qB5MBMGA1UdJQQMMAoGCCsGAQUFBwMCMAsGA1UdDwQEAwIHgDANBgkqhkiG
9w0BAQUFAAOCAgEAM/ErsWyi/jcZPR2Kj9eePRhFN8jWHWZ8j77OBjAikdg2+sXi
Py/Z09gh5k1DPDPoImYOu2XRDx6qzp5k+FMkdmHkKgbrNSUKZ20axkZxM1uk94ga
qQ2TC19aGr56ss0cb6GxsBvffXw7DMcyIMoJGNMjxqRzOJ45DSDfYwfxpZi5FMMv
9Ks0++ZPEC09u5ij+hydd9Ikej/BqG1mXrBnj3GDuZ0Tq2oKB/sNe2qzNifpC9jA
2cwqHMtBk+jOX52Yzq1Woxdnw+CTsh/p04MnCdDHd+xL/FeRzNhOlaTQY9j8Dsam
QeLT5kv+CfqYknyksrzIbBDvbiaQam9aumRsnmA+M9R/WDM6MB+gXzA9o03tRPhR
9GVkPZCLZjdbkBJ91m4NmDigYKmndKvvGLKlueDRdAJR3FGD7yqoa+nKD1QIkw4U
Cd9nng+VqKHfazG9Jsa0JDzjxxoH0U0FoEmX6bLlTAhDSX2/8UDlnNtITDeiSDxr
y/8GHUcVr/9iXGqwxOKvz6c+VxOFJFHE1LS0DhnYecUOHfNtg9E4nNdp5PpJWW78
iAUVA7RvW3raDdz1B2f9HdbQK+LIZpl7lLicV86vWpdQ/UN+9i5saSOarocqpLp+
EepnkPOGVpoQRt9bg2qguwjJCtBAHff3PmcSLnpotd10QytkLcb02vSGlcY=
-----END CERTIFICATE-----
