Certificate:
    Data:
        Version: 3 (0x2)
        Serial Number: 780 (0x30c)
    Signature Algorithm: sha1WithRSAEncryption
        Issuer: C=US, ST=CA, L=SanFrancisco, O=Pixglo, Inc., OU=VPN-CIE, CN=tunnel.pixglo.com/name=Bala Chandrasekaran/emailAddress=bala@pixglo.com
        Validity
            Not Before: Feb 14 06:43:24 2018 GMT
            Not After : Feb 12 06:43:24 2028 GMT
        Subject: C=US, ST=CA, L=SanFrancisco, O=Pixglo, Inc., OU=VPN-CIE, CN=cie779/name=Bala Chandrasekaran/emailAddress=bala@pixglo.com
        Subject Public Key Info:
            Public Key Algorithm: rsaEncryption
                Public-Key: (4096 bit)
                Modulus:
                    00:ef:a2:b9:3b:9e:8d:e2:98:d8:c8:8a:93:fc:3a:
                    a0:07:5d:70:bc:89:ef:6c:4b:84:fd:2b:27:50:74:
                    25:06:1f:a6:00:b2:ac:96:32:0c:a6:f0:0c:29:28:
                    c1:c5:df:36:a8:36:0e:fc:cb:1b:d4:65:b8:14:2a:
                    e7:e5:93:3d:4a:b7:b6:3e:a8:a6:62:0c:ae:81:af:
                    2e:bd:28:fa:22:be:df:68:c1:84:92:d9:c0:0f:af:
                    bb:b3:d7:92:c5:56:3a:ab:a6:e5:d0:58:50:c3:3a:
                    5d:9f:b3:f4:67:89:3f:3c:5f:89:76:f8:d7:81:9f:
                    32:3b:66:2f:7d:5e:06:11:44:f6:e5:9e:56:5b:4e:
                    a7:43:95:2b:6e:4b:8f:a9:17:2f:65:d3:be:67:4d:
                    f7:7c:ca:eb:85:eb:9a:a7:f3:b2:c3:34:a8:53:b5:
                    a9:61:55:05:2d:09:d3:97:34:e6:7e:ea:8a:f7:a9:
                    98:f3:5e:00:05:74:35:e4:35:cf:58:8f:1a:64:89:
                    96:fd:e0:bb:a0:bc:a2:34:1f:9b:b6:f5:c9:99:d5:
                    03:49:1b:cb:67:02:dc:a6:60:db:c8:f5:6c:25:11:
                    eb:3d:63:cf:7c:ba:5f:30:61:5d:6c:7d:de:0d:13:
                    a6:e6:23:c4:e4:c1:86:7f:08:57:81:43:47:90:09:
                    b7:fd:64:d6:d3:9a:ac:a1:ae:90:17:0f:42:ba:c9:
                    0e:7b:5f:55:74:89:a8:d3:e5:67:8e:b3:ff:e9:c1:
                    2e:76:d0:8c:ec:dd:44:7f:44:4c:d2:3f:55:01:c5:
                    c4:3d:da:57:41:da:9b:34:15:3f:58:55:07:b8:14:
                    d3:fa:7d:3d:9a:e1:12:ff:95:3f:0a:51:72:2f:50:
                    ab:6e:67:fe:b5:46:f3:89:14:1d:ef:96:93:2c:b5:
                    78:01:23:90:90:0b:b1:d9:ed:7b:2f:51:36:41:84:
                    0f:e0:31:97:bd:55:42:b9:65:8e:82:08:a2:73:0e:
                    71:67:82:4c:fb:5a:89:40:67:aa:78:9a:7e:57:20:
                    da:c6:0b:2f:4a:ba:c7:6a:0c:c0:6b:ce:ca:1d:7a:
                    2b:96:eb:e6:4c:8a:85:38:5e:10:be:48:79:14:25:
                    8e:a6:ed:3c:03:23:da:47:e8:c4:7a:be:48:c2:ab:
                    05:23:c4:39:4f:f4:7f:d3:4c:75:1e:99:80:48:c5:
                    77:d6:42:62:73:ee:6b:51:64:88:9c:6d:d0:06:f5:
                    74:fd:e9:3d:48:56:ee:49:ce:ab:2a:0e:1b:da:36:
                    00:fe:33:3e:f9:65:cc:5b:e5:7b:06:69:be:9a:fe:
                    a7:ac:c5:53:22:c3:fd:a2:88:4e:84:ae:2c:35:d3:
                    e0:a8:47
                Exponent: 65537 (0x10001)
        X509v3 extensions:
            X509v3 Basic Constraints: 
                CA:FALSE
            Netscape Comment: 
                Easy-RSA Generated Certificate
            X509v3 Subject Key Identifier: 
                0D:FF:F8:F2:01:CF:E9:F0:15:20:39:A6:1A:06:3D:BB:ED:87:7B:D0
            X509v3 Authority Key Identifier: 
                keyid:EF:38:8D:14:50:58:A7:5B:4D:9C:17:72:FC:DF:B9:AC:A7:51:B0:10
                DirName:/C=US/ST=CA/L=SanFrancisco/O=Pixglo, Inc./OU=VPN-CIE/CN=tunnel.pixglo.com/name=Bala Chandrasekaran/emailAddress=bala@pixglo.com
                serial:A6:DB:C6:83:80:E6:A0:79

            X509v3 Extended Key Usage: 
                TLS Web Client Authentication
            X509v3 Key Usage: 
                Digital Signature
    Signature Algorithm: sha1WithRSAEncryption
         84:60:40:cc:49:2e:b0:8f:34:b5:5f:c6:31:82:4b:32:a1:88:
         a9:c6:73:b5:c0:92:fa:a3:cb:4e:52:ff:34:2a:7d:cc:71:9c:
         1b:d5:2e:58:7c:81:a9:66:38:18:cd:da:f6:0d:4a:47:3f:ad:
         39:95:7a:41:4c:95:77:c4:45:fa:04:35:cd:ef:8e:9a:51:49:
         7b:37:c9:63:5a:3c:85:71:f4:41:ef:91:b4:dc:51:c5:d8:42:
         26:33:40:3e:2e:e0:f3:5d:68:62:e4:5e:ed:c6:10:3f:7e:70:
         9c:55:2d:18:d8:26:98:19:a6:3f:22:3a:a4:dc:3e:31:75:a4:
         05:bd:ca:3a:0b:36:7f:47:ad:d2:19:8b:e1:bb:23:a2:7a:f3:
         c4:36:d8:82:ec:9e:51:58:14:df:46:b2:7b:fa:56:90:03:41:
         46:8e:4e:11:c3:18:55:ac:2f:5c:38:4e:20:6d:f1:5f:f0:b6:
         11:c3:11:5b:7e:1d:a6:c1:38:89:d1:79:36:64:d7:57:eb:fe:
         9d:bf:50:01:da:3c:09:5f:b8:5e:14:7e:2c:b2:05:f5:13:dc:
         b9:00:0f:aa:b2:fb:44:e4:64:e6:c1:80:fa:9c:50:fd:a7:55:
         f2:8e:e8:c3:2f:fc:76:46:f6:b1:24:fd:fb:58:bd:66:27:6b:
         d2:1b:31:1d:03:ef:09:a3:7e:e1:34:31:14:7d:e1:80:e3:fb:
         3c:74:c0:01:1a:70:44:46:5f:36:49:49:2c:ec:e4:03:19:d5:
         0d:04:94:c2:06:c8:31:f9:d6:04:3d:4f:b0:b4:88:96:cd:77:
         a7:8a:f0:a1:e3:a9:4c:80:69:3e:06:8d:fa:cc:4f:93:4c:56:
         bc:c9:2c:c9:b2:66:13:8c:ca:36:1a:84:1d:8e:35:b8:bd:65:
         4c:f1:18:76:0f:0d:2a:2e:2e:58:e3:f0:e7:8e:c2:36:9e:4e:
         cc:94:64:a5:35:74:9e:b6:ee:ca:73:95:72:60:8c:a9:6e:4e:
         9f:66:35:21:93:bd:be:76:55:7e:8c:e9:ee:dd:35:27:98:76:
         8f:88:8f:97:31:d8:a9:ef:4c:e3:93:83:b3:ed:a6:b8:bf:e9:
         7a:12:48:15:e1:28:ed:74:02:e5:e6:21:50:94:b7:2f:12:8b:
         b5:78:a3:4c:63:fd:e5:e8:5c:dc:5b:89:a2:ab:b7:1e:2e:ad:
         d7:07:09:93:0b:07:f9:f0:86:19:b0:11:90:ed:5e:ab:22:f1:
         80:6c:b0:ff:2b:94:61:3b:2c:46:1f:68:2a:e3:23:3d:ce:8a:
         50:54:75:b0:38:51:8e:10:b7:ba:89:13:30:cb:88:45:f2:61:
         c7:b2:96:93:38:9c:a8:c3
-----BEGIN CERTIFICATE-----
MIIHSDCCBTCgAwIBAgICAwwwDQYJKoZIhvcNAQEFBQAwgbQxCzAJBgNVBAYTAlVT
MQswCQYDVQQIEwJDQTEVMBMGA1UEBxMMU2FuRnJhbmNpc2NvMRUwEwYDVQQKEwxQ
aXhnbG8sIEluYy4xEDAOBgNVBAsTB1ZQTi1DSUUxGjAYBgNVBAMTEXR1bm5lbC5w
aXhnbG8uY29tMRwwGgYDVQQpExNCYWxhIENoYW5kcmFzZWthcmFuMR4wHAYJKoZI
hvcNAQkBFg9iYWxhQHBpeGdsby5jb20wHhcNMTgwMjE0MDY0MzI0WhcNMjgwMjEy
MDY0MzI0WjCBqTELMAkGA1UEBhMCVVMxCzAJBgNVBAgTAkNBMRUwEwYDVQQHEwxT
YW5GcmFuY2lzY28xFTATBgNVBAoTDFBpeGdsbywgSW5jLjEQMA4GA1UECxMHVlBO
LUNJRTEPMA0GA1UEAxMGY2llNzc5MRwwGgYDVQQpExNCYWxhIENoYW5kcmFzZWth
cmFuMR4wHAYJKoZIhvcNAQkBFg9iYWxhQHBpeGdsby5jb20wggIiMA0GCSqGSIb3
DQEBAQUAA4ICDwAwggIKAoICAQDvork7no3imNjIipP8OqAHXXC8ie9sS4T9KydQ
dCUGH6YAsqyWMgym8AwpKMHF3zaoNg78yxvUZbgUKuflkz1Kt7Y+qKZiDK6Bry69
KPoivt9owYSS2cAPr7uz15LFVjqrpuXQWFDDOl2fs/RniT88X4l2+NeBnzI7Zi99
XgYRRPblnlZbTqdDlStuS4+pFy9l075nTfd8yuuF65qn87LDNKhTtalhVQUtCdOX
NOZ+6or3qZjzXgAFdDXkNc9YjxpkiZb94LugvKI0H5u29cmZ1QNJG8tnAtymYNvI
9WwlEes9Y898ul8wYV1sfd4NE6bmI8TkwYZ/CFeBQ0eQCbf9ZNbTmqyhrpAXD0K6
yQ57X1V0iajT5WeOs//pwS520Izs3UR/REzSP1UBxcQ92ldB2ps0FT9YVQe4FNP6
fT2a4RL/lT8KUXIvUKtuZ/61RvOJFB3vlpMstXgBI5CQC7HZ7XsvUTZBhA/gMZe9
VUK5ZY6CCKJzDnFngkz7WolAZ6p4mn5XINrGCy9KusdqDMBrzsodeiuW6+ZMioU4
XhC+SHkUJY6m7TwDI9pH6MR6vkjCqwUjxDlP9H/TTHUemYBIxXfWQmJz7mtRZIic
bdAG9XT96T1IVu5JzqsqDhvaNgD+Mz75Zcxb5XsGab6a/qesxVMiw/2iiE6Eriw1
0+CoRwIDAQABo4IBazCCAWcwCQYDVR0TBAIwADAtBglghkgBhvhCAQ0EIBYeRWFz
eS1SU0EgR2VuZXJhdGVkIENlcnRpZmljYXRlMB0GA1UdDgQWBBQN//jyAc/p8BUg
OaYaBj277Yd70DCB6QYDVR0jBIHhMIHegBTvOI0UUFinW02cF3L837msp1GwEKGB
uqSBtzCBtDELMAkGA1UEBhMCVVMxCzAJBgNVBAgTAkNBMRUwEwYDVQQHEwxTYW5G
cmFuY2lzY28xFTATBgNVBAoTDFBpeGdsbywgSW5jLjEQMA4GA1UECxMHVlBOLUNJ
RTEaMBgGA1UEAxMRdHVubmVsLnBpeGdsby5jb20xHDAaBgNVBCkTE0JhbGEgQ2hh
bmRyYXNla2FyYW4xHjAcBgkqhkiG9w0BCQEWD2JhbGFAcGl4Z2xvLmNvbYIJAKbb
xoOA5qB5MBMGA1UdJQQMMAoGCCsGAQUFBwMCMAsGA1UdDwQEAwIHgDANBgkqhkiG
9w0BAQUFAAOCAgEAhGBAzEkusI80tV/GMYJLMqGIqcZztcCS+qPLTlL/NCp9zHGc
G9UuWHyBqWY4GM3a9g1KRz+tOZV6QUyVd8RF+gQ1ze+OmlFJezfJY1o8hXH0Qe+R
tNxRxdhCJjNAPi7g811oYuRe7cYQP35wnFUtGNgmmBmmPyI6pNw+MXWkBb3KOgs2
f0et0hmL4bsjonrzxDbYguyeUVgU30aye/pWkANBRo5OEcMYVawvXDhOIG3xX/C2
EcMRW34dpsE4idF5NmTXV+v+nb9QAdo8CV+4XhR+LLIF9RPcuQAPqrL7RORk5sGA
+pxQ/adV8o7owy/8dkb2sST9+1i9Zidr0hsxHQPvCaN+4TQxFH3hgOP7PHTAARpw
REZfNklJLOzkAxnVDQSUwgbIMfnWBD1PsLSIls13p4rwoeOpTIBpPgaN+sxPk0xW
vMksybJmE4zKNhqEHY41uL1lTPEYdg8NKi4uWOPw547CNp5OzJRkpTV0nrbuynOV
cmCMqW5On2Y1IZO9vnZVfozp7t01J5h2j4iPlzHYqe9M45ODs+2muL/pehJIFeEo
7XQC5eYhUJS3LxKLtXijTGP95ehc3FuJoqu3Hi6t1wcJkwsH+fCGGbARkO1eqyLx
gGyw/yuUYTssRh9oKuMjPc6KUFR1sDhRjhC3uokTMMuIRfJhx7KWkzicqMM=
-----END CERTIFICATE-----
