Certificate:
    Data:
        Version: 3 (0x2)
        Serial Number: 781 (0x30d)
    Signature Algorithm: sha1WithRSAEncryption
        Issuer: C=US, ST=CA, L=SanFrancisco, O=Pixglo, Inc., OU=VPN-CIE, CN=tunnel.pixglo.com/name=Bala Chandrasekaran/emailAddress=bala@pixglo.com
        Validity
            Not Before: Feb 14 06:43:26 2018 GMT
            Not After : Feb 12 06:43:26 2028 GMT
        Subject: C=US, ST=CA, L=SanFrancisco, O=Pixglo, Inc., OU=VPN-CIE, CN=cie780/name=Bala Chandrasekaran/emailAddress=bala@pixglo.com
        Subject Public Key Info:
            Public Key Algorithm: rsaEncryption
                Public-Key: (4096 bit)
                Modulus:
                    00:bf:cf:b4:23:c4:47:f6:27:2d:95:f4:f6:34:86:
                    13:e3:1b:8f:82:d5:ca:e1:dc:02:c6:77:d2:f0:8a:
                    5f:ef:fb:21:54:86:44:25:e8:4e:24:3a:81:53:bc:
                    11:ab:fa:86:32:29:c6:50:09:35:3c:a5:50:e7:eb:
                    59:7b:5a:e3:57:2b:f6:1a:bc:95:44:82:46:88:59:
                    e6:5b:e7:5e:31:18:18:e1:80:9e:d6:03:52:21:42:
                    5a:05:aa:e3:57:5e:a3:2d:eb:2b:f5:0c:95:ff:e2:
                    5c:b7:c9:2a:7b:9f:07:6b:36:b9:e9:06:dd:9f:f1:
                    4e:f4:f8:63:2a:35:e1:c5:ce:b3:7f:e3:41:70:12:
                    49:e4:ae:cc:d4:2b:d8:fd:11:f9:e8:fc:b2:78:3b:
                    6e:34:2a:6a:af:9d:7a:0b:e6:a5:df:5a:e6:57:08:
                    d6:e3:8f:1e:9f:69:44:92:89:6f:61:d2:6b:7a:d4:
                    1f:b5:7b:ee:3a:ca:79:f8:e1:62:0d:f1:42:4e:ee:
                    1e:f8:ec:8f:ae:77:c6:dd:18:b9:31:1c:4a:0d:b2:
                    4c:aa:71:cf:16:b5:73:d1:a7:19:89:f2:72:08:47:
                    0c:1e:07:81:00:4c:f7:e5:de:2f:fa:92:cf:85:11:
                    ea:65:2c:38:c1:d8:36:b6:40:bd:c5:e4:d2:ff:bd:
                    ac:8e:e8:a0:ea:5f:03:2d:1f:d8:2e:68:e4:63:80:
                    c4:b2:96:0b:bf:a4:57:19:47:87:3d:63:0a:61:fe:
                    c8:e9:81:24:cb:91:5c:cd:e8:51:99:d5:7f:e1:76:
                    39:60:94:ec:21:19:9a:64:95:0f:c4:b9:9d:08:7c:
                    c2:37:fa:65:19:35:2b:cb:1d:3c:3f:39:c2:90:48:
                    e3:4b:45:1f:1e:0b:e7:33:2e:b4:bb:3b:71:0f:07:
                    18:18:ab:1d:2b:40:f6:96:07:6f:bb:32:55:19:b2:
                    e8:2e:9f:6e:5c:4a:ef:d5:52:10:40:c0:80:86:db:
                    f1:25:9d:91:37:de:d4:dc:fc:41:33:60:73:f3:ff:
                    17:1f:55:e6:59:66:58:c1:8d:bd:c5:d0:b9:bc:98:
                    f5:a8:c7:76:03:8f:ed:ac:85:fe:12:0f:60:75:41:
                    b2:5a:44:d2:1e:0d:a2:51:9f:85:80:13:03:fb:26:
                    57:3f:c0:5d:54:12:37:84:28:2f:bd:a3:b1:03:f3:
                    4d:d7:18:98:a8:1d:8b:d9:6d:e3:64:99:de:29:a9:
                    cb:fa:53:38:73:94:1a:d0:db:81:5c:dc:d0:34:c7:
                    a8:9d:6d:f7:c2:b6:bf:6a:78:ff:06:a3:a7:60:ac:
                    c3:7c:69:09:26:38:cb:41:93:5e:31:c1:13:5e:7d:
                    88:b5:89
                Exponent: 65537 (0x10001)
        X509v3 extensions:
            X509v3 Basic Constraints: 
                CA:FALSE
            Netscape Comment: 
                Easy-RSA Generated Certificate
            X509v3 Subject Key Identifier: 
                A3:90:27:9B:F1:EC:E6:44:6A:9B:40:79:5B:C2:EA:3F:C5:0E:5D:50
            X509v3 Authority Key Identifier: 
                keyid:EF:38:8D:14:50:58:A7:5B:4D:9C:17:72:FC:DF:B9:AC:A7:51:B0:10
                DirName:/C=US/ST=CA/L=SanFrancisco/O=Pixglo, Inc./OU=VPN-CIE/CN=tunnel.pixglo.com/name=Bala Chandrasekaran/emailAddress=bala@pixglo.com
                serial:A6:DB:C6:83:80:E6:A0:79

            X509v3 Extended Key Usage: 
                TLS Web Client Authentication
            X509v3 Key Usage: 
                Digital Signature
    Signature Algorithm: sha1WithRSAEncryption
         38:fc:80:18:76:72:7d:d1:2a:f9:b4:be:97:40:cf:c5:4d:0e:
         2c:cb:b7:b4:0c:d0:98:62:8c:6d:b8:65:b9:bf:fc:8d:f3:60:
         e8:ce:00:26:cf:be:9f:ac:71:be:40:49:ea:07:58:a7:94:3a:
         0b:32:fd:d5:e7:62:6e:9c:fb:57:8f:10:d4:c8:0a:aa:3d:9f:
         75:e4:15:39:bb:17:2c:09:83:6c:6c:75:72:a7:e2:88:32:42:
         bd:f6:62:21:ef:a6:6d:ba:c6:75:58:ed:1c:db:3d:e5:8e:43:
         8d:1c:bf:42:c1:40:35:52:07:ac:f6:e5:ae:00:0b:b1:fa:26:
         25:02:3a:47:f6:74:91:bd:1b:01:6d:f2:6f:56:5f:e4:ed:07:
         e3:c9:22:c3:ad:c8:c9:e1:b0:42:96:c8:ae:d4:50:9f:46:e9:
         3c:36:9a:43:1e:e9:a5:d4:b5:db:4b:8d:ed:f9:c7:79:a4:62:
         25:99:8e:99:c6:22:7c:18:9c:53:63:92:29:86:8c:a1:4c:66:
         46:4c:c5:a0:64:bc:69:19:e7:94:9d:61:77:ed:f7:c7:da:f5:
         6f:4a:c2:ed:18:37:14:33:78:91:bb:cd:cd:3b:94:e4:1a:3e:
         27:e3:76:af:01:6e:6f:79:89:b8:64:0d:f8:18:60:54:0d:4a:
         16:31:58:eb:65:5f:e0:92:e2:c7:89:25:46:f3:28:6b:b7:32:
         22:5e:d5:46:96:71:82:9e:63:25:2d:e6:85:e4:3c:29:69:f9:
         a6:41:ce:41:28:0a:25:1d:0f:a3:05:6a:91:12:9d:81:bf:3d:
         b4:5f:a5:39:5e:5c:8e:e8:23:f4:5f:23:6c:8f:32:fd:66:90:
         e3:a8:16:04:32:57:93:8e:b9:2b:e7:ee:af:cc:5f:e8:a1:17:
         af:25:2d:b5:73:fe:e2:04:72:b7:c7:a1:3c:53:5b:4a:1d:75:
         b6:8a:43:b7:48:2a:28:cb:5c:56:f4:52:c4:ff:27:04:59:a6:
         68:4a:35:9f:4b:a4:b4:b9:79:e4:6f:d6:bf:06:98:34:c9:fd:
         38:23:05:2a:98:c3:15:eb:9b:64:b3:1b:1a:65:31:05:f0:ca:
         bc:41:2d:45:56:3f:59:cf:cc:0b:40:27:26:ad:7f:86:8d:da:
         fb:32:0a:b6:df:fe:c6:39:a1:b3:9a:82:a5:8c:01:37:bf:84:
         a9:93:92:09:1a:ab:f2:d3:d5:0a:e3:07:dc:29:3b:24:e7:78:
         b3:5e:ab:bb:b3:51:c1:20:18:1a:e4:52:71:86:c4:66:82:d3:
         0a:00:14:10:fe:85:5b:07:ef:71:2c:bb:38:5b:97:95:62:39:
         e3:ff:38:67:81:2e:e1:8f
-----BEGIN CERTIFICATE-----
MIIHSDCCBTCgAwIBAgICAw0wDQYJKoZIhvcNAQEFBQAwgbQxCzAJBgNVBAYTAlVT
MQswCQYDVQQIEwJDQTEVMBMGA1UEBxMMU2FuRnJhbmNpc2NvMRUwEwYDVQQKEwxQ
aXhnbG8sIEluYy4xEDAOBgNVBAsTB1ZQTi1DSUUxGjAYBgNVBAMTEXR1bm5lbC5w
aXhnbG8uY29tMRwwGgYDVQQpExNCYWxhIENoYW5kcmFzZWthcmFuMR4wHAYJKoZI
hvcNAQkBFg9iYWxhQHBpeGdsby5jb20wHhcNMTgwMjE0MDY0MzI2WhcNMjgwMjEy
MDY0MzI2WjCBqTELMAkGA1UEBhMCVVMxCzAJBgNVBAgTAkNBMRUwEwYDVQQHEwxT
YW5GcmFuY2lzY28xFTATBgNVBAoTDFBpeGdsbywgSW5jLjEQMA4GA1UECxMHVlBO
LUNJRTEPMA0GA1UEAxMGY2llNzgwMRwwGgYDVQQpExNCYWxhIENoYW5kcmFzZWth
cmFuMR4wHAYJKoZIhvcNAQkBFg9iYWxhQHBpeGdsby5jb20wggIiMA0GCSqGSIb3
DQEBAQUAA4ICDwAwggIKAoICAQC/z7QjxEf2Jy2V9PY0hhPjG4+C1crh3ALGd9Lw
il/v+yFUhkQl6E4kOoFTvBGr+oYyKcZQCTU8pVDn61l7WuNXK/YavJVEgkaIWeZb
514xGBjhgJ7WA1IhQloFquNXXqMt6yv1DJX/4ly3ySp7nwdrNrnpBt2f8U70+GMq
NeHFzrN/40FwEknkrszUK9j9Efno/LJ4O240KmqvnXoL5qXfWuZXCNbjjx6faUSS
iW9h0mt61B+1e+46ynn44WIN8UJO7h747I+ud8bdGLkxHEoNskyqcc8WtXPRpxmJ
8nIIRwweB4EATPfl3i/6ks+FEeplLDjB2Da2QL3F5NL/vayO6KDqXwMtH9guaORj
gMSylgu/pFcZR4c9Ywph/sjpgSTLkVzN6FGZ1X/hdjlglOwhGZpklQ/EuZ0IfMI3
+mUZNSvLHTw/OcKQSONLRR8eC+czLrS7O3EPBxgYqx0rQPaWB2+7MlUZsugun25c
Su/VUhBAwICG2/ElnZE33tTc/EEzYHPz/xcfVeZZZljBjb3F0Lm8mPWox3YDj+2s
hf4SD2B1QbJaRNIeDaJRn4WAEwP7Jlc/wF1UEjeEKC+9o7ED803XGJioHYvZbeNk
md4pqcv6UzhzlBrQ24Fc3NA0x6idbffCtr9qeP8Go6dgrMN8aQkmOMtBk14xwRNe
fYi1iQIDAQABo4IBazCCAWcwCQYDVR0TBAIwADAtBglghkgBhvhCAQ0EIBYeRWFz
eS1SU0EgR2VuZXJhdGVkIENlcnRpZmljYXRlMB0GA1UdDgQWBBSjkCeb8ezmRGqb
QHlbwuo/xQ5dUDCB6QYDVR0jBIHhMIHegBTvOI0UUFinW02cF3L837msp1GwEKGB
uqSBtzCBtDELMAkGA1UEBhMCVVMxCzAJBgNVBAgTAkNBMRUwEwYDVQQHEwxTYW5G
cmFuY2lzY28xFTATBgNVBAoTDFBpeGdsbywgSW5jLjEQMA4GA1UECxMHVlBOLUNJ
RTEaMBgGA1UEAxMRdHVubmVsLnBpeGdsby5jb20xHDAaBgNVBCkTE0JhbGEgQ2hh
bmRyYXNla2FyYW4xHjAcBgkqhkiG9w0BCQEWD2JhbGFAcGl4Z2xvLmNvbYIJAKbb
xoOA5qB5MBMGA1UdJQQMMAoGCCsGAQUFBwMCMAsGA1UdDwQEAwIHgDANBgkqhkiG
9w0BAQUFAAOCAgEAOPyAGHZyfdEq+bS+l0DPxU0OLMu3tAzQmGKMbbhlub/8jfNg
6M4AJs++n6xxvkBJ6gdYp5Q6CzL91edibpz7V48Q1MgKqj2fdeQVObsXLAmDbGx1
cqfiiDJCvfZiIe+mbbrGdVjtHNs95Y5DjRy/QsFANVIHrPblrgALsfomJQI6R/Z0
kb0bAW3yb1Zf5O0H48kiw63IyeGwQpbIrtRQn0bpPDaaQx7ppdS120uN7fnHeaRi
JZmOmcYifBicU2OSKYaMoUxmRkzFoGS8aRnnlJ1hd+33x9r1b0rC7Rg3FDN4kbvN
zTuU5Bo+J+N2rwFub3mJuGQN+BhgVA1KFjFY62Vf4JLix4klRvMoa7cyIl7VRpZx
gp5jJS3mheQ8KWn5pkHOQSgKJR0PowVqkRKdgb89tF+lOV5cjugj9F8jbI8y/WaQ
46gWBDJXk465K+fur8xf6KEXryUttXP+4gRyt8ehPFNbSh11topDt0gqKMtcVvRS
xP8nBFmmaEo1n0uktLl55G/WvwaYNMn9OCMFKpjDFeubZLMbGmUxBfDKvEEtRVY/
Wc/MC0AnJq1/ho3a+zIKtt/+xjmhs5qCpYwBN7+EqZOSCRqr8tPVCuMH3Ck7JOd4
s16ru7NRwSAYGuRScYbEZoLTCgAUEP6FWwfvcSy7OFuXlWI54/84Z4Eu4Y8=
-----END CERTIFICATE-----
