Certificate:
    Data:
        Version: 3 (0x2)
        Serial Number: 782 (0x30e)
    Signature Algorithm: sha1WithRSAEncryption
        Issuer: C=US, ST=CA, L=SanFrancisco, O=Pixglo, Inc., OU=VPN-CIE, CN=tunnel.pixglo.com/name=Bala Chandrasekaran/emailAddress=bala@pixglo.com
        Validity
            Not Before: Feb 14 06:43:27 2018 GMT
            Not After : Feb 12 06:43:27 2028 GMT
        Subject: C=US, ST=CA, L=SanFrancisco, O=Pixglo, Inc., OU=VPN-CIE, CN=cie781/name=Bala Chandrasekaran/emailAddress=bala@pixglo.com
        Subject Public Key Info:
            Public Key Algorithm: rsaEncryption
                Public-Key: (4096 bit)
                Modulus:
                    00:94:00:b1:bc:e7:f7:2a:22:8e:ca:24:19:fe:47:
                    70:7d:a6:69:b8:f4:77:2c:01:ee:ba:ba:b8:6e:ca:
                    10:09:9b:e8:ed:d2:31:18:29:4d:0c:6e:07:fa:57:
                    7e:77:a1:eb:da:95:d2:eb:e2:a7:03:a0:02:04:05:
                    27:99:fc:b3:f2:07:7f:41:2c:3d:3d:fe:7d:33:ac:
                    21:bb:03:85:79:d3:aa:3b:7d:72:a6:04:f4:0b:c3:
                    5b:e1:9a:28:24:29:c4:a9:2a:58:59:c9:fc:06:75:
                    9b:35:12:7b:cd:58:82:cb:13:fb:cf:27:c5:6e:93:
                    93:87:53:3d:d1:7c:96:03:01:8c:60:60:1c:f2:3d:
                    2a:d6:51:91:7b:38:0b:29:ad:39:a6:cf:fe:06:e2:
                    ea:db:9f:05:d8:2a:8d:00:a9:50:07:59:44:c8:f3:
                    13:26:cd:4e:58:9b:40:bf:0a:bd:12:45:e7:c0:33:
                    ae:bf:8d:62:56:41:1c:25:9b:1f:61:01:f2:b1:b6:
                    d9:3a:ea:11:b9:6f:2f:6e:a2:59:24:ba:56:62:66:
                    a5:b0:cf:e3:cb:c6:d5:c0:f7:bc:e3:0a:9e:7b:5a:
                    8a:8a:68:2d:03:27:26:07:bf:41:7a:33:e6:5a:5f:
                    31:a3:6d:27:ff:6c:b5:68:e3:5b:50:92:15:ed:33:
                    82:22:2c:7e:16:26:fa:f7:63:48:c7:92:75:5f:e9:
                    17:74:b1:e0:d1:17:5a:01:b3:71:71:16:dd:8d:da:
                    87:b5:cd:6a:30:59:2c:97:32:a7:2b:34:d7:9b:36:
                    62:27:74:13:89:60:d0:ad:09:06:ad:5b:09:e8:11:
                    54:6c:94:2c:d4:1f:0a:20:cf:45:a4:e6:85:51:40:
                    9b:5e:e7:35:f5:71:7c:bb:60:22:f0:f4:b9:4d:0c:
                    ac:ac:b9:3a:dc:1f:65:5c:79:04:56:de:09:0b:93:
                    83:28:cd:9e:8d:2a:b5:d1:46:73:29:49:a4:23:df:
                    89:10:6f:d0:7c:cd:e2:56:d9:78:d0:70:c6:eb:c1:
                    ca:22:2d:d5:87:69:2c:4e:2a:42:9a:86:08:76:71:
                    37:67:47:ca:c3:63:1b:92:59:99:c7:bd:a5:6e:4d:
                    6b:b0:30:76:87:44:e8:c2:e7:42:c5:2f:47:39:02:
                    00:7b:29:f1:eb:e3:8d:e9:57:c7:ad:d8:6b:5b:5e:
                    f7:74:2e:50:47:d0:df:16:fd:cb:c1:02:09:2e:59:
                    05:3c:59:71:df:c8:06:7b:9f:d8:4b:4f:7e:86:10:
                    b5:3a:b4:3d:c3:0e:5a:a7:a4:6a:3b:99:a0:46:73:
                    b4:99:ce:13:95:0e:bb:ec:18:79:a3:c1:85:8a:29:
                    85:3a:ef
                Exponent: 65537 (0x10001)
        X509v3 extensions:
            X509v3 Basic Constraints: 
                CA:FALSE
            Netscape Comment: 
                Easy-RSA Generated Certificate
            X509v3 Subject Key Identifier: 
                83:87:61:62:C5:4F:90:8F:3F:F9:1C:50:EA:FC:FB:CC:32:D6:AE:79
            X509v3 Authority Key Identifier: 
                keyid:EF:38:8D:14:50:58:A7:5B:4D:9C:17:72:FC:DF:B9:AC:A7:51:B0:10
                DirName:/C=US/ST=CA/L=SanFrancisco/O=Pixglo, Inc./OU=VPN-CIE/CN=tunnel.pixglo.com/name=Bala Chandrasekaran/emailAddress=bala@pixglo.com
                serial:A6:DB:C6:83:80:E6:A0:79

            X509v3 Extended Key Usage: 
                TLS Web Client Authentication
            X509v3 Key Usage: 
                Digital Signature
    Signature Algorithm: sha1WithRSAEncryption
         15:c3:e3:ad:eb:cb:c2:8c:4e:86:32:f4:14:59:87:cc:6a:94:
         87:86:e6:d6:61:96:f7:64:21:63:f1:3b:b5:83:74:aa:f2:4b:
         af:05:31:d9:f5:1d:4f:48:aa:1c:b3:d2:08:e9:a2:8f:ef:ba:
         f9:db:2a:16:8f:15:fa:97:a7:e5:66:ee:14:e9:1e:2d:7e:20:
         66:b2:3b:3f:8c:07:a8:5b:a4:71:0b:9e:50:5e:0e:1d:38:c3:
         00:b9:86:a7:32:38:45:7f:b6:ba:0a:21:30:bf:d6:17:6a:3b:
         cd:51:08:70:01:fe:7a:68:37:ee:39:b0:6b:40:3e:de:cd:03:
         75:8a:e0:e7:df:a6:b2:0f:56:01:c5:18:2f:fb:24:7c:81:54:
         b5:51:21:78:aa:47:45:2e:9c:0a:ae:ea:42:27:47:e8:02:79:
         95:75:8f:c2:c5:e6:5b:d4:a5:5e:59:bf:58:41:5a:e2:44:77:
         01:d3:30:1d:0b:28:fd:06:bd:7b:6e:38:69:16:4e:d8:a6:4f:
         a0:4b:ed:6b:03:03:a4:90:8c:31:ae:2b:29:c1:55:93:18:6e:
         2f:c1:b6:94:01:0c:77:58:dc:14:5a:37:3d:62:d7:94:81:2d:
         bd:1b:c5:40:b2:cb:42:ab:02:47:60:2a:75:2c:5c:7f:19:a2:
         17:e2:9e:61:7e:a2:36:58:77:46:c9:47:dd:e2:db:91:89:a8:
         e4:40:7e:c1:b6:07:0d:49:64:06:57:2c:25:3a:72:37:58:95:
         35:da:52:1e:6b:06:d4:f0:c7:bd:30:4e:b6:6c:57:99:2a:89:
         69:06:4a:3a:1d:13:dc:33:f7:ec:a1:f7:fb:2f:30:fd:b6:18:
         61:21:d1:29:e8:ae:88:02:95:fb:5a:7b:dc:f0:f9:a4:60:50:
         6b:11:74:eb:2c:2d:ae:4d:63:f6:94:be:bc:37:f9:d3:af:b1:
         d2:a6:98:62:1a:4a:e1:e0:93:66:85:d3:f7:2d:64:99:3d:c7:
         af:35:0a:c7:cf:aa:f1:ff:22:3f:32:22:d9:49:a7:1e:7f:ae:
         6a:e9:8a:31:ec:6c:fb:04:8e:61:88:a9:69:2a:34:d4:cf:f4:
         97:84:8c:dd:a3:92:23:13:a1:ac:37:4a:4f:29:bc:b6:33:a9:
         01:8c:65:e8:72:ad:af:20:dc:21:b8:78:0c:59:14:5b:10:b5:
         ae:76:c0:f2:9f:93:f4:b0:7d:87:52:ee:14:5d:11:ef:41:8e:
         50:ad:d8:ed:bf:1a:f2:d8:dd:a3:03:cc:7e:31:d7:0f:a3:dc:
         af:ee:c1:8e:45:db:76:c7:e7:d9:a7:44:e2:25:a7:2c:41:87:
         34:51:b5:3b:6e:60:d1:09
-----BEGIN CERTIFICATE-----
MIIHSDCCBTCgAwIBAgICAw4wDQYJKoZIhvcNAQEFBQAwgbQxCzAJBgNVBAYTAlVT
MQswCQYDVQQIEwJDQTEVMBMGA1UEBxMMU2FuRnJhbmNpc2NvMRUwEwYDVQQKEwxQ
aXhnbG8sIEluYy4xEDAOBgNVBAsTB1ZQTi1DSUUxGjAYBgNVBAMTEXR1bm5lbC5w
aXhnbG8uY29tMRwwGgYDVQQpExNCYWxhIENoYW5kcmFzZWthcmFuMR4wHAYJKoZI
hvcNAQkBFg9iYWxhQHBpeGdsby5jb20wHhcNMTgwMjE0MDY0MzI3WhcNMjgwMjEy
MDY0MzI3WjCBqTELMAkGA1UEBhMCVVMxCzAJBgNVBAgTAkNBMRUwEwYDVQQHEwxT
YW5GcmFuY2lzY28xFTATBgNVBAoTDFBpeGdsbywgSW5jLjEQMA4GA1UECxMHVlBO
LUNJRTEPMA0GA1UEAxMGY2llNzgxMRwwGgYDVQQpExNCYWxhIENoYW5kcmFzZWth
cmFuMR4wHAYJKoZIhvcNAQkBFg9iYWxhQHBpeGdsby5jb20wggIiMA0GCSqGSIb3
DQEBAQUAA4ICDwAwggIKAoICAQCUALG85/cqIo7KJBn+R3B9pmm49HcsAe66urhu
yhAJm+jt0jEYKU0Mbgf6V353oevaldLr4qcDoAIEBSeZ/LPyB39BLD09/n0zrCG7
A4V506o7fXKmBPQLw1vhmigkKcSpKlhZyfwGdZs1EnvNWILLE/vPJ8Vuk5OHUz3R
fJYDAYxgYBzyPSrWUZF7OAsprTmmz/4G4urbnwXYKo0AqVAHWUTI8xMmzU5Ym0C/
Cr0SRefAM66/jWJWQRwlmx9hAfKxttk66hG5by9uolkkulZiZqWwz+PLxtXA97zj
Cp57WoqKaC0DJyYHv0F6M+ZaXzGjbSf/bLVo41tQkhXtM4IiLH4WJvr3Y0jHknVf
6Rd0seDRF1oBs3FxFt2N2oe1zWowWSyXMqcrNNebNmIndBOJYNCtCQatWwnoEVRs
lCzUHwogz0Wk5oVRQJte5zX1cXy7YCLw9LlNDKysuTrcH2VceQRW3gkLk4MozZ6N
KrXRRnMpSaQj34kQb9B8zeJW2XjQcMbrwcoiLdWHaSxOKkKahgh2cTdnR8rDYxuS
WZnHvaVuTWuwMHaHROjC50LFL0c5AgB7KfHr443pV8et2GtbXvd0LlBH0N8W/cvB
AgkuWQU8WXHfyAZ7n9hLT36GELU6tD3DDlqnpGo7maBGc7SZzhOVDrvsGHmjwYWK
KYU67wIDAQABo4IBazCCAWcwCQYDVR0TBAIwADAtBglghkgBhvhCAQ0EIBYeRWFz
eS1SU0EgR2VuZXJhdGVkIENlcnRpZmljYXRlMB0GA1UdDgQWBBSDh2FixU+Qjz/5
HFDq/PvMMtaueTCB6QYDVR0jBIHhMIHegBTvOI0UUFinW02cF3L837msp1GwEKGB
uqSBtzCBtDELMAkGA1UEBhMCVVMxCzAJBgNVBAgTAkNBMRUwEwYDVQQHEwxTYW5G
cmFuY2lzY28xFTATBgNVBAoTDFBpeGdsbywgSW5jLjEQMA4GA1UECxMHVlBOLUNJ
RTEaMBgGA1UEAxMRdHVubmVsLnBpeGdsby5jb20xHDAaBgNVBCkTE0JhbGEgQ2hh
bmRyYXNla2FyYW4xHjAcBgkqhkiG9w0BCQEWD2JhbGFAcGl4Z2xvLmNvbYIJAKbb
xoOA5qB5MBMGA1UdJQQMMAoGCCsGAQUFBwMCMAsGA1UdDwQEAwIHgDANBgkqhkiG
9w0BAQUFAAOCAgEAFcPjrevLwoxOhjL0FFmHzGqUh4bm1mGW92QhY/E7tYN0qvJL
rwUx2fUdT0iqHLPSCOmij++6+dsqFo8V+pen5WbuFOkeLX4gZrI7P4wHqFukcQue
UF4OHTjDALmGpzI4RX+2ugohML/WF2o7zVEIcAH+emg37jmwa0A+3s0DdYrg59+m
sg9WAcUYL/skfIFUtVEheKpHRS6cCq7qQidH6AJ5lXWPwsXmW9SlXlm/WEFa4kR3
AdMwHQso/Qa9e244aRZO2KZPoEvtawMDpJCMMa4rKcFVkxhuL8G2lAEMd1jcFFo3
PWLXlIEtvRvFQLLLQqsCR2AqdSxcfxmiF+KeYX6iNlh3RslH3eLbkYmo5EB+wbYH
DUlkBlcsJTpyN1iVNdpSHmsG1PDHvTBOtmxXmSqJaQZKOh0T3DP37KH3+y8w/bYY
YSHRKeiuiAKV+1p73PD5pGBQaxF06ywtrk1j9pS+vDf506+x0qaYYhpK4eCTZoXT
9y1kmT3HrzUKx8+q8f8iPzIi2UmnHn+uaumKMexs+wSOYYipaSo01M/0l4SM3aOS
IxOhrDdKTym8tjOpAYxl6HKtryDcIbh4DFkUWxC1rnbA8p+T9LB9h1LuFF0R70GO
UK3Y7b8a8tjdowPMfjHXD6Pcr+7BjkXbdsfn2adE4iWnLEGHNFG1O25g0Qk=
-----END CERTIFICATE-----
