Certificate:
    Data:
        Version: 3 (0x2)
        Serial Number: 783 (0x30f)
    Signature Algorithm: sha1WithRSAEncryption
        Issuer: C=US, ST=CA, L=SanFrancisco, O=Pixglo, Inc., OU=VPN-CIE, CN=tunnel.pixglo.com/name=Bala Chandrasekaran/emailAddress=bala@pixglo.com
        Validity
            Not Before: Feb 14 06:43:28 2018 GMT
            Not After : Feb 12 06:43:28 2028 GMT
        Subject: C=US, ST=CA, L=SanFrancisco, O=Pixglo, Inc., OU=VPN-CIE, CN=cie782/name=Bala Chandrasekaran/emailAddress=bala@pixglo.com
        Subject Public Key Info:
            Public Key Algorithm: rsaEncryption
                Public-Key: (4096 bit)
                Modulus:
                    00:95:d2:9b:d2:63:bd:68:04:3c:ad:44:7e:5a:63:
                    bc:4b:19:9d:cd:7f:bc:60:a6:f0:5f:c6:f4:3b:0e:
                    23:d5:6c:7e:7b:b6:53:36:06:10:86:ee:bf:54:c9:
                    d0:c4:b1:29:d7:4e:fb:ea:90:6f:3f:1e:a7:a8:f8:
                    8d:81:c9:aa:29:b1:94:0c:db:07:e5:2d:fb:87:c9:
                    8d:60:42:80:7f:83:bd:f6:73:42:03:f0:e9:71:ab:
                    dc:54:eb:d5:e8:1a:80:12:d9:2a:01:b6:a4:4a:66:
                    cc:ae:01:8d:ab:93:73:14:52:4e:e7:d0:1c:52:fa:
                    be:94:cf:9c:59:db:d1:e4:f7:1b:e3:09:66:e6:cd:
                    1e:05:3c:c7:aa:34:dd:a7:61:ad:ae:f2:6e:b6:1e:
                    72:51:58:c3:31:ec:95:13:1a:8a:5b:53:9f:12:de:
                    6f:b7:ae:da:e8:9f:ee:03:ea:db:3d:1c:72:ec:ca:
                    94:17:a3:03:7d:a0:5f:f9:b6:a8:dd:91:32:c4:1d:
                    d5:86:91:a6:9a:ab:88:70:6d:3b:d3:be:30:f2:21:
                    9d:cb:e8:84:1b:c8:ac:ba:0b:73:3c:22:d6:b9:ad:
                    92:9f:9c:bd:10:43:8e:1b:45:2f:f8:8e:d5:2e:f1:
                    03:24:1a:9b:ce:6e:33:7a:09:1f:27:17:f7:f0:4c:
                    2f:5c:94:78:12:45:a6:61:6a:12:93:4b:fc:9a:07:
                    b3:07:3c:3c:8b:17:e8:8e:c5:ec:23:4d:95:d5:c2:
                    a1:c2:0a:ef:15:da:d2:5a:fe:cc:21:a7:49:8e:2a:
                    b5:be:e2:ee:3e:49:45:cb:ef:a4:da:7e:2d:9a:ca:
                    55:3b:25:d5:ce:e6:5b:c3:dd:11:35:8c:08:c4:b9:
                    df:96:bd:86:59:b5:0a:f9:05:e3:39:cc:d2:c4:0d:
                    21:36:8b:ff:36:16:21:84:6a:b6:c4:3f:31:20:f7:
                    e1:11:02:0d:aa:56:3e:03:b7:c8:e5:49:1b:ac:7f:
                    5a:ec:c2:60:64:12:b5:70:58:a6:22:fe:92:c3:8c:
                    c1:6b:fe:00:a8:e9:cf:f1:a9:55:e3:d5:71:a8:c9:
                    1c:2d:54:4c:fa:08:15:ab:7e:c4:2f:48:66:46:ff:
                    6b:ef:dc:f7:c8:f6:dd:cf:3a:20:b1:39:23:f7:ac:
                    47:c2:8c:7d:7e:99:8a:da:17:5f:ad:26:fe:df:a8:
                    aa:46:f9:17:0f:85:9a:7f:a0:2e:75:89:3e:84:4c:
                    d0:ca:59:af:e6:66:43:70:1c:e7:bf:85:9d:60:96:
                    b8:65:9c:51:cd:d5:75:37:f1:6c:a2:dc:f8:0f:d5:
                    c9:59:4c:fc:ba:11:db:93:c3:f5:50:ec:0f:d7:cd:
                    b5:d3:a3
                Exponent: 65537 (0x10001)
        X509v3 extensions:
            X509v3 Basic Constraints: 
                CA:FALSE
            Netscape Comment: 
                Easy-RSA Generated Certificate
            X509v3 Subject Key Identifier: 
                5F:73:DC:1F:4F:60:ED:5F:82:79:55:2E:37:D4:9E:FC:F4:4A:6C:45
            X509v3 Authority Key Identifier: 
                keyid:EF:38:8D:14:50:58:A7:5B:4D:9C:17:72:FC:DF:B9:AC:A7:51:B0:10
                DirName:/C=US/ST=CA/L=SanFrancisco/O=Pixglo, Inc./OU=VPN-CIE/CN=tunnel.pixglo.com/name=Bala Chandrasekaran/emailAddress=bala@pixglo.com
                serial:A6:DB:C6:83:80:E6:A0:79

            X509v3 Extended Key Usage: 
                TLS Web Client Authentication
            X509v3 Key Usage: 
                Digital Signature
    Signature Algorithm: sha1WithRSAEncryption
         3f:f5:b7:63:8c:93:f0:09:f0:7d:cd:5f:04:db:7e:34:f2:4d:
         c4:4e:58:cd:32:dd:1d:2b:35:e3:59:7f:07:6d:c1:a5:fa:33:
         b4:33:9a:f8:5d:77:0d:05:9e:57:1b:61:0f:bc:19:3c:fc:30:
         23:22:b9:cc:7d:93:1a:55:40:7e:e7:09:e3:af:5c:3d:a4:c4:
         d3:db:39:b8:70:ee:6d:8e:31:34:81:05:d8:8f:75:b1:51:56:
         66:05:4f:a4:85:73:6e:ff:df:d8:46:e0:2e:77:4c:d6:59:f8:
         b8:e2:48:73:1f:e9:0a:77:aa:ef:7e:e1:fb:0c:22:76:1c:e4:
         dc:bd:00:8a:d3:f6:09:36:97:f2:a0:66:3f:2b:9f:ae:de:17:
         2f:94:4a:2c:02:a6:a8:95:f1:8b:35:38:67:bc:4d:1a:44:6e:
         ed:22:0d:42:78:7b:b1:eb:f6:32:40:d6:68:38:a5:33:dc:e0:
         b7:a8:56:b2:2a:72:9f:cb:de:27:64:4d:ea:60:92:d5:d1:2a:
         fd:0d:28:ab:89:35:e6:70:b0:e5:a5:d8:64:ce:fc:45:94:ae:
         7a:7b:60:7f:7d:31:0b:5f:9a:50:fd:8f:ea:56:09:11:19:96:
         a9:e8:fc:2f:68:f8:af:c4:e7:9b:55:0b:d8:9a:7c:aa:48:fb:
         ae:bc:05:20:4d:26:27:a7:5f:47:28:7c:28:90:b2:50:c8:01:
         a0:0b:1e:b4:7f:27:ad:e4:9e:b9:98:c3:af:3d:7d:9c:16:ff:
         a9:58:22:35:43:4c:17:ab:ef:52:81:45:c5:7f:63:ca:9a:a0:
         aa:30:e3:fe:e9:05:da:73:f1:8b:8e:8f:b6:d2:cb:5c:10:55:
         25:92:28:f6:27:31:15:5d:60:8f:5c:75:eb:a8:4d:0a:c9:87:
         65:ee:c4:4d:0f:ff:0c:0d:4f:91:bc:e4:0d:c6:55:93:c3:66:
         7e:ef:c7:01:b7:51:3e:e1:3b:f5:9b:8f:0d:45:96:bc:91:3c:
         5e:e6:6f:44:aa:a6:56:29:02:0e:9b:5b:df:60:92:af:59:f5:
         8b:05:c6:e8:6b:e6:bf:b3:15:3e:70:64:1d:ea:87:55:0b:56:
         43:4a:92:79:c2:8c:76:ea:c4:36:85:3f:69:cb:fb:68:ec:80:
         d5:37:c7:5d:b7:ee:2c:a5:86:8c:7a:16:14:bc:51:da:1d:6f:
         93:40:09:dc:7f:72:b5:2a:c8:db:50:52:c1:b6:e3:8c:ed:43:
         e6:d4:a4:37:c1:03:c8:47:bf:d2:23:a3:e1:8b:41:02:db:99:
         a5:41:da:2f:d0:70:6a:73:28:6f:26:dd:c5:eb:33:8d:12:af:
         29:03:40:36:93:15:88:b8
-----BEGIN CERTIFICATE-----
MIIHSDCCBTCgAwIBAgICAw8wDQYJKoZIhvcNAQEFBQAwgbQxCzAJBgNVBAYTAlVT
MQswCQYDVQQIEwJDQTEVMBMGA1UEBxMMU2FuRnJhbmNpc2NvMRUwEwYDVQQKEwxQ
aXhnbG8sIEluYy4xEDAOBgNVBAsTB1ZQTi1DSUUxGjAYBgNVBAMTEXR1bm5lbC5w
aXhnbG8uY29tMRwwGgYDVQQpExNCYWxhIENoYW5kcmFzZWthcmFuMR4wHAYJKoZI
hvcNAQkBFg9iYWxhQHBpeGdsby5jb20wHhcNMTgwMjE0MDY0MzI4WhcNMjgwMjEy
MDY0MzI4WjCBqTELMAkGA1UEBhMCVVMxCzAJBgNVBAgTAkNBMRUwEwYDVQQHEwxT
YW5GcmFuY2lzY28xFTATBgNVBAoTDFBpeGdsbywgSW5jLjEQMA4GA1UECxMHVlBO
LUNJRTEPMA0GA1UEAxMGY2llNzgyMRwwGgYDVQQpExNCYWxhIENoYW5kcmFzZWth
cmFuMR4wHAYJKoZIhvcNAQkBFg9iYWxhQHBpeGdsby5jb20wggIiMA0GCSqGSIb3
DQEBAQUAA4ICDwAwggIKAoICAQCV0pvSY71oBDytRH5aY7xLGZ3Nf7xgpvBfxvQ7
DiPVbH57tlM2BhCG7r9UydDEsSnXTvvqkG8/Hqeo+I2ByaopsZQM2wflLfuHyY1g
QoB/g732c0ID8Olxq9xU69XoGoAS2SoBtqRKZsyuAY2rk3MUUk7n0BxS+r6Uz5xZ
29Hk9xvjCWbmzR4FPMeqNN2nYa2u8m62HnJRWMMx7JUTGopbU58S3m+3rtron+4D
6ts9HHLsypQXowN9oF/5tqjdkTLEHdWGkaaaq4hwbTvTvjDyIZ3L6IQbyKy6C3M8
Ita5rZKfnL0QQ44bRS/4jtUu8QMkGpvObjN6CR8nF/fwTC9clHgSRaZhahKTS/ya
B7MHPDyLF+iOxewjTZXVwqHCCu8V2tJa/swhp0mOKrW+4u4+SUXL76Tafi2aylU7
JdXO5lvD3RE1jAjEud+WvYZZtQr5BeM5zNLEDSE2i/82FiGEarbEPzEg9+ERAg2q
Vj4Dt8jlSRusf1rswmBkErVwWKYi/pLDjMFr/gCo6c/xqVXj1XGoyRwtVEz6CBWr
fsQvSGZG/2vv3PfI9t3POiCxOSP3rEfCjH1+mYraF1+tJv7fqKpG+RcPhZp/oC51
iT6ETNDKWa/mZkNwHOe/hZ1glrhlnFHN1XU38Wyi3PgP1clZTPy6EduTw/VQ7A/X
zbXTowIDAQABo4IBazCCAWcwCQYDVR0TBAIwADAtBglghkgBhvhCAQ0EIBYeRWFz
eS1SU0EgR2VuZXJhdGVkIENlcnRpZmljYXRlMB0GA1UdDgQWBBRfc9wfT2DtX4J5
VS431J789EpsRTCB6QYDVR0jBIHhMIHegBTvOI0UUFinW02cF3L837msp1GwEKGB
uqSBtzCBtDELMAkGA1UEBhMCVVMxCzAJBgNVBAgTAkNBMRUwEwYDVQQHEwxTYW5G
cmFuY2lzY28xFTATBgNVBAoTDFBpeGdsbywgSW5jLjEQMA4GA1UECxMHVlBOLUNJ
RTEaMBgGA1UEAxMRdHVubmVsLnBpeGdsby5jb20xHDAaBgNVBCkTE0JhbGEgQ2hh
bmRyYXNla2FyYW4xHjAcBgkqhkiG9w0BCQEWD2JhbGFAcGl4Z2xvLmNvbYIJAKbb
xoOA5qB5MBMGA1UdJQQMMAoGCCsGAQUFBwMCMAsGA1UdDwQEAwIHgDANBgkqhkiG
9w0BAQUFAAOCAgEAP/W3Y4yT8Anwfc1fBNt+NPJNxE5YzTLdHSs141l/B23Bpfoz
tDOa+F13DQWeVxthD7wZPPwwIyK5zH2TGlVAfucJ469cPaTE09s5uHDubY4xNIEF
2I91sVFWZgVPpIVzbv/f2EbgLndM1ln4uOJIcx/pCneq737h+wwidhzk3L0AitP2
CTaX8qBmPyufrt4XL5RKLAKmqJXxizU4Z7xNGkRu7SINQnh7sev2MkDWaDilM9zg
t6hWsipyn8veJ2RN6mCS1dEq/Q0oq4k15nCw5aXYZM78RZSuentgf30xC1+aUP2P
6lYJERmWqej8L2j4r8Tnm1UL2Jp8qkj7rrwFIE0mJ6dfRyh8KJCyUMgBoAsetH8n
reSeuZjDrz19nBb/qVgiNUNMF6vvUoFFxX9jypqgqjDj/ukF2nPxi46PttLLXBBV
JZIo9icxFV1gj1x166hNCsmHZe7ETQ//DA1PkbzkDcZVk8Nmfu/HAbdRPuE79ZuP
DUWWvJE8XuZvRKqmVikCDptb32CSr1n1iwXG6Gvmv7MVPnBkHeqHVQtWQ0qSecKM
durENoU/acv7aOyA1TfHXbfuLKWGjHoWFLxR2h1vk0AJ3H9ytSrI21BSwbbjjO1D
5tSkN8EDyEe/0iOj4YtBAtuZpUHaL9BwanMobybdxeszjRKvKQNANpMViLg=
-----END CERTIFICATE-----
