Certificate:
    Data:
        Version: 3 (0x2)
        Serial Number: 785 (0x311)
    Signature Algorithm: sha1WithRSAEncryption
        Issuer: C=US, ST=CA, L=SanFrancisco, O=Pixglo, Inc., OU=VPN-CIE, CN=tunnel.pixglo.com/name=Bala Chandrasekaran/emailAddress=bala@pixglo.com
        Validity
            Not Before: Feb 14 06:43:32 2018 GMT
            Not After : Feb 12 06:43:32 2028 GMT
        Subject: C=US, ST=CA, L=SanFrancisco, O=Pixglo, Inc., OU=VPN-CIE, CN=cie784/name=Bala Chandrasekaran/emailAddress=bala@pixglo.com
        Subject Public Key Info:
            Public Key Algorithm: rsaEncryption
                Public-Key: (4096 bit)
                Modulus:
                    00:dc:03:47:d5:51:e7:c4:e7:9f:3b:f9:a3:d3:d9:
                    ae:cc:03:55:44:2e:1d:9f:37:f0:b4:fd:db:de:bf:
                    12:3e:05:80:f1:8f:51:2e:4d:82:1d:17:69:2c:f8:
                    99:12:7e:02:61:5f:a0:3e:a5:6c:b3:5f:52:c4:d7:
                    c0:d6:b3:4c:37:af:e2:d4:2c:fa:b0:a6:9a:bb:14:
                    64:a6:b3:8b:5f:c7:23:1d:2c:80:cf:de:bd:97:da:
                    cf:81:8d:ed:5e:46:57:8a:7d:0c:41:a0:0a:d2:43:
                    27:3c:62:44:37:0b:ca:48:93:69:22:de:2b:da:87:
                    09:96:d2:51:cd:80:79:06:fe:99:64:4a:1a:09:b5:
                    22:04:13:36:98:41:b2:f8:1f:57:05:68:8d:e0:09:
                    a7:3c:54:d7:ce:95:c9:24:d8:be:01:20:4c:bc:dd:
                    ea:f7:23:05:66:1b:8b:77:7d:1a:b4:7c:06:0d:6a:
                    98:cc:ef:39:51:0a:9d:cf:9f:c1:e1:f3:c4:5b:80:
                    8f:66:5b:7c:94:4f:84:a2:c5:2a:36:f4:8b:37:70:
                    52:c4:8b:0b:f1:63:46:4f:30:b7:84:c5:51:cf:99:
                    e7:1d:6a:a7:b6:0d:b1:f6:7b:3f:50:49:17:9c:8b:
                    63:fd:ee:16:94:ed:e2:9d:29:99:c9:62:5a:1b:63:
                    5f:56:19:44:2a:1b:b4:58:7d:51:44:31:17:9e:e3:
                    38:a2:b9:cf:80:d9:a9:16:ab:f1:8b:a4:38:ea:cd:
                    49:d7:2c:93:46:91:c6:eb:dc:23:a0:0c:ca:bb:fc:
                    b0:20:5b:79:b9:76:f3:9e:4e:3e:93:88:6b:51:90:
                    7d:81:f1:19:3f:90:33:cf:ae:92:75:40:14:53:09:
                    62:ff:0c:c7:3a:55:4e:55:ac:06:63:01:1f:82:30:
                    42:8b:53:da:d5:4e:09:18:c6:a1:14:a6:6b:a0:b5:
                    8d:b5:ff:7b:41:5e:78:67:0c:11:3b:31:f0:ce:32:
                    e8:75:51:f8:27:3f:73:3e:18:9f:86:66:e9:f3:90:
                    b2:cb:25:8b:62:83:33:f8:ff:49:1d:4d:04:c5:7d:
                    49:5d:79:7d:d1:1a:d6:34:4f:7a:82:b4:a5:45:ac:
                    3f:1c:54:83:78:bf:52:06:c6:e9:48:9d:c4:ad:8a:
                    44:04:46:d9:8e:6d:bc:83:a7:92:cf:62:31:e7:17:
                    7c:1e:4f:3e:b2:d9:25:6f:60:cc:7f:6d:2f:4b:92:
                    20:e0:d9:e3:0e:50:04:33:db:5e:f5:30:bb:16:8f:
                    64:0d:d6:17:53:c9:46:80:9d:f8:33:11:80:f1:eb:
                    0b:fb:d3:28:c9:05:10:49:d8:45:7d:78:f9:34:cc:
                    ac:3a:8f
                Exponent: 65537 (0x10001)
        X509v3 extensions:
            X509v3 Basic Constraints: 
                CA:FALSE
            Netscape Comment: 
                Easy-RSA Generated Certificate
            X509v3 Subject Key Identifier: 
                65:28:D1:AA:29:10:84:C2:78:4D:D3:2F:F7:FE:F5:E0:16:58:E9:74
            X509v3 Authority Key Identifier: 
                keyid:EF:38:8D:14:50:58:A7:5B:4D:9C:17:72:FC:DF:B9:AC:A7:51:B0:10
                DirName:/C=US/ST=CA/L=SanFrancisco/O=Pixglo, Inc./OU=VPN-CIE/CN=tunnel.pixglo.com/name=Bala Chandrasekaran/emailAddress=bala@pixglo.com
                serial:A6:DB:C6:83:80:E6:A0:79

            X509v3 Extended Key Usage: 
                TLS Web Client Authentication
            X509v3 Key Usage: 
                Digital Signature
    Signature Algorithm: sha1WithRSAEncryption
         49:9e:af:36:4c:ac:a7:d1:60:32:6c:1f:f1:d9:e7:32:c5:5e:
         12:25:0f:0f:f2:ce:8b:27:8e:b2:25:53:28:35:7b:94:3d:e7:
         8f:45:8e:f5:0d:70:ef:87:c4:f1:79:35:96:87:b6:a8:1f:0a:
         61:4e:c4:52:c3:df:04:f0:41:1c:18:0e:b7:86:b3:5a:b7:64:
         ef:c1:0b:79:a9:67:23:8a:66:1e:f8:81:f2:d9:35:82:7a:d8:
         e9:61:7c:1a:fb:a9:f8:08:0a:db:55:8d:fd:c6:11:3b:71:d5:
         b4:24:e0:45:c2:d7:7c:d1:a9:01:91:0f:dd:40:d8:60:d6:49:
         91:89:7b:79:1f:aa:30:c4:9c:b2:6f:5e:65:48:83:24:9c:38:
         8c:52:cc:b2:36:a2:bd:09:46:70:31:6a:8e:f2:9a:a0:f2:6a:
         f4:26:b5:ad:18:c2:9a:e1:bd:bc:33:c5:12:07:24:5e:b6:b6:
         71:0a:2d:6b:f7:af:ab:ed:0e:b2:82:18:ff:28:18:91:63:01:
         45:a0:23:fd:b3:a7:75:1d:52:7a:95:7e:02:eb:94:3f:4c:99:
         4d:15:10:cf:bd:a2:9e:2f:02:55:50:8c:e4:e6:d0:74:6f:5d:
         25:28:a4:53:2e:7e:f4:d4:87:41:7a:aa:e3:b5:c5:e7:59:fa:
         cb:d7:4b:72:e2:be:6f:bc:a9:fd:fa:9d:d7:3b:07:f5:86:72:
         5e:cc:58:9f:84:cc:5d:34:de:77:d7:24:6f:a9:50:e1:3d:db:
         6b:4d:ac:62:9b:b0:59:7b:ba:a1:08:f0:41:86:96:db:12:68:
         b6:0b:64:72:51:e5:e9:1e:ec:bb:fd:5c:5f:a4:8d:70:97:10:
         8c:b1:8a:2a:cb:06:87:6f:6a:10:54:a5:28:34:60:df:54:a9:
         03:d4:05:01:1c:ba:89:7e:d9:82:c2:ff:d6:18:50:24:aa:f8:
         c7:2d:ac:91:e5:7c:a3:cc:50:fb:c9:ef:88:e0:00:15:b0:c1:
         11:78:bd:7c:3a:67:4f:08:21:3d:f3:6a:97:65:2a:87:39:8b:
         1b:fc:b9:6d:83:57:90:0e:ce:9c:e5:fb:22:a2:18:8f:28:cb:
         ef:f6:15:bf:1d:7a:30:29:cc:4a:2d:17:f6:54:d5:cb:39:45:
         9f:e8:3b:e1:11:a2:a0:79:16:af:ff:32:75:ef:f0:87:63:00:
         dc:5a:c5:f9:1f:63:6c:3a:a9:98:26:cf:da:86:a2:14:7e:2e:
         34:07:b0:bb:c5:76:af:29:17:ca:81:48:99:05:7d:f1:f3:7b:
         a1:f4:f5:24:53:35:28:aa:ab:1a:87:b8:eb:49:98:d8:5b:11:
         a2:25:13:e0:0c:3f:2e:c1
-----BEGIN CERTIFICATE-----
MIIHSDCCBTCgAwIBAgICAxEwDQYJKoZIhvcNAQEFBQAwgbQxCzAJBgNVBAYTAlVT
MQswCQYDVQQIEwJDQTEVMBMGA1UEBxMMU2FuRnJhbmNpc2NvMRUwEwYDVQQKEwxQ
aXhnbG8sIEluYy4xEDAOBgNVBAsTB1ZQTi1DSUUxGjAYBgNVBAMTEXR1bm5lbC5w
aXhnbG8uY29tMRwwGgYDVQQpExNCYWxhIENoYW5kcmFzZWthcmFuMR4wHAYJKoZI
hvcNAQkBFg9iYWxhQHBpeGdsby5jb20wHhcNMTgwMjE0MDY0MzMyWhcNMjgwMjEy
MDY0MzMyWjCBqTELMAkGA1UEBhMCVVMxCzAJBgNVBAgTAkNBMRUwEwYDVQQHEwxT
YW5GcmFuY2lzY28xFTATBgNVBAoTDFBpeGdsbywgSW5jLjEQMA4GA1UECxMHVlBO
LUNJRTEPMA0GA1UEAxMGY2llNzg0MRwwGgYDVQQpExNCYWxhIENoYW5kcmFzZWth
cmFuMR4wHAYJKoZIhvcNAQkBFg9iYWxhQHBpeGdsby5jb20wggIiMA0GCSqGSIb3
DQEBAQUAA4ICDwAwggIKAoICAQDcA0fVUefE5587+aPT2a7MA1VELh2fN/C0/dve
vxI+BYDxj1EuTYIdF2ks+JkSfgJhX6A+pWyzX1LE18DWs0w3r+LULPqwppq7FGSm
s4tfxyMdLIDP3r2X2s+Bje1eRleKfQxBoArSQyc8YkQ3C8pIk2ki3ivahwmW0lHN
gHkG/plkShoJtSIEEzaYQbL4H1cFaI3gCac8VNfOlckk2L4BIEy83er3IwVmG4t3
fRq0fAYNapjM7zlRCp3Pn8Hh88RbgI9mW3yUT4SixSo29Is3cFLEiwvxY0ZPMLeE
xVHPmecdaqe2DbH2ez9QSReci2P97haU7eKdKZnJYlobY19WGUQqG7RYfVFEMRee
4ziiuc+A2akWq/GLpDjqzUnXLJNGkcbr3COgDMq7/LAgW3m5dvOeTj6TiGtRkH2B
8Rk/kDPPrpJ1QBRTCWL/DMc6VU5VrAZjAR+CMEKLU9rVTgkYxqEUpmugtY21/3tB
XnhnDBE7MfDOMuh1UfgnP3M+GJ+GZunzkLLLJYtigzP4/0kdTQTFfUldeX3RGtY0
T3qCtKVFrD8cVIN4v1IGxulIncStikQERtmObbyDp5LPYjHnF3weTz6y2SVvYMx/
bS9LkiDg2eMOUAQz2171MLsWj2QN1hdTyUaAnfgzEYDx6wv70yjJBRBJ2EV9ePk0
zKw6jwIDAQABo4IBazCCAWcwCQYDVR0TBAIwADAtBglghkgBhvhCAQ0EIBYeRWFz
eS1SU0EgR2VuZXJhdGVkIENlcnRpZmljYXRlMB0GA1UdDgQWBBRlKNGqKRCEwnhN
0y/3/vXgFljpdDCB6QYDVR0jBIHhMIHegBTvOI0UUFinW02cF3L837msp1GwEKGB
uqSBtzCBtDELMAkGA1UEBhMCVVMxCzAJBgNVBAgTAkNBMRUwEwYDVQQHEwxTYW5G
cmFuY2lzY28xFTATBgNVBAoTDFBpeGdsbywgSW5jLjEQMA4GA1UECxMHVlBOLUNJ
RTEaMBgGA1UEAxMRdHVubmVsLnBpeGdsby5jb20xHDAaBgNVBCkTE0JhbGEgQ2hh
bmRyYXNla2FyYW4xHjAcBgkqhkiG9w0BCQEWD2JhbGFAcGl4Z2xvLmNvbYIJAKbb
xoOA5qB5MBMGA1UdJQQMMAoGCCsGAQUFBwMCMAsGA1UdDwQEAwIHgDANBgkqhkiG
9w0BAQUFAAOCAgEASZ6vNkysp9FgMmwf8dnnMsVeEiUPD/LOiyeOsiVTKDV7lD3n
j0WO9Q1w74fE8Xk1loe2qB8KYU7EUsPfBPBBHBgOt4azWrdk78ELealnI4pmHviB
8tk1gnrY6WF8Gvup+AgK21WN/cYRO3HVtCTgRcLXfNGpAZEP3UDYYNZJkYl7eR+q
MMScsm9eZUiDJJw4jFLMsjaivQlGcDFqjvKaoPJq9Ca1rRjCmuG9vDPFEgckXra2
cQota/evq+0OsoIY/ygYkWMBRaAj/bOndR1SepV+AuuUP0yZTRUQz72ini8CVVCM
5ObQdG9dJSikUy5+9NSHQXqq47XF51n6y9dLcuK+b7yp/fqd1zsH9YZyXsxYn4TM
XTTed9ckb6lQ4T3ba02sYpuwWXu6oQjwQYaW2xJotgtkclHl6R7su/1cX6SNcJcQ
jLGKKssGh29qEFSlKDRg31SpA9QFARy6iX7ZgsL/1hhQJKr4xy2skeV8o8xQ+8nv
iOAAFbDBEXi9fDpnTwghPfNql2UqhzmLG/y5bYNXkA7OnOX7IqIYjyjL7/YVvx16
MCnMSi0X9lTVyzlFn+g74RGioHkWr/8yde/wh2MA3FrF+R9jbDqpmCbP2oaiFH4u
NAewu8V2rykXyoFImQV98fN7ofT1JFM1KKqrGoe460mY2FsRoiUT4Aw/LsE=
-----END CERTIFICATE-----
