Certificate:
    Data:
        Version: 3 (0x2)
        Serial Number: 786 (0x312)
    Signature Algorithm: sha1WithRSAEncryption
        Issuer: C=US, ST=CA, L=SanFrancisco, O=Pixglo, Inc., OU=VPN-CIE, CN=tunnel.pixglo.com/name=Bala Chandrasekaran/emailAddress=bala@pixglo.com
        Validity
            Not Before: Feb 14 06:43:33 2018 GMT
            Not After : Feb 12 06:43:33 2028 GMT
        Subject: C=US, ST=CA, L=SanFrancisco, O=Pixglo, Inc., OU=VPN-CIE, CN=cie785/name=Bala Chandrasekaran/emailAddress=bala@pixglo.com
        Subject Public Key Info:
            Public Key Algorithm: rsaEncryption
                Public-Key: (4096 bit)
                Modulus:
                    00:d2:e4:2a:b7:92:c1:81:2c:68:2e:25:5a:d7:8c:
                    8a:5e:3e:05:90:71:7c:8b:f6:c5:f1:13:ff:47:7c:
                    99:42:b6:d0:08:49:22:b8:63:d7:0d:98:de:51:0d:
                    85:1f:26:7f:8a:74:90:6d:99:a3:a8:f1:ca:75:e1:
                    ac:d8:0f:ea:4e:74:99:d8:ec:3a:08:98:55:14:60:
                    50:6c:2e:cf:39:2d:f9:7f:27:e4:84:34:f1:98:d7:
                    d5:ac:cd:aa:44:9b:9c:30:79:90:d0:b0:b1:f5:dd:
                    b6:d5:0a:c8:0d:7c:8d:7f:ef:9f:d7:69:a9:4f:f3:
                    f1:03:fe:d7:07:bf:83:c0:48:37:67:58:68:c6:b4:
                    1b:8c:d4:32:f8:fe:1e:bf:e5:5b:e5:1b:4f:19:6a:
                    ee:04:c5:a8:c7:2c:79:f4:be:13:fa:40:fe:c8:8a:
                    11:4a:24:b7:0b:f5:d8:1e:f9:cb:51:de:3f:d7:44:
                    b9:a1:c2:fd:47:46:46:84:0b:5b:32:ef:d2:f4:a3:
                    63:8f:0e:24:a1:b7:d3:29:35:d4:2f:76:e9:7f:37:
                    c7:cf:56:15:c3:9a:f8:d0:7b:27:61:6b:76:31:9f:
                    8c:e4:58:08:c9:d5:d4:d6:9a:2b:67:92:7f:60:a8:
                    02:94:70:53:6b:4d:4a:58:f3:9f:36:67:57:ff:b6:
                    54:5c:72:d2:4d:78:99:fc:b9:4d:af:d2:e1:19:48:
                    fc:9b:b1:05:0b:2c:e5:62:5e:36:50:4a:51:07:dc:
                    8d:cb:73:3c:d2:b9:c8:94:a6:52:e9:0c:09:1d:ec:
                    be:29:ee:a4:91:80:c5:bd:71:18:ab:07:ef:f0:be:
                    81:22:b7:9e:ab:76:8f:40:10:c2:47:bb:46:b9:52:
                    e1:73:e1:47:62:3d:b7:e4:57:35:c7:8c:25:c0:b4:
                    ba:7d:53:44:c3:c7:d5:8e:40:99:6e:ef:43:40:c3:
                    a1:3e:99:bb:fc:fd:c1:9c:b9:72:fb:72:5d:86:24:
                    62:86:6b:24:94:5c:e8:19:fd:2b:a7:24:9e:6f:ab:
                    93:ca:97:44:c5:27:0f:aa:12:35:ec:a5:08:20:75:
                    c3:e6:04:1e:06:6f:1e:d2:db:2b:6b:40:95:3a:ac:
                    aa:19:63:4c:6f:a3:34:36:1f:de:e9:c4:23:9a:20:
                    cc:ac:98:9d:d2:a1:96:7b:b5:ec:52:c5:a7:0c:47:
                    6c:76:56:52:a7:38:ae:78:a5:5c:26:86:dd:54:6b:
                    5c:63:36:f8:47:88:f6:5c:7f:a4:61:e6:e8:0a:ba:
                    72:64:ce:41:99:99:f4:b8:2f:65:72:e6:22:ee:01:
                    38:59:4c:a3:95:a8:7c:67:fb:0a:17:da:33:41:e0:
                    6d:64:45
                Exponent: 65537 (0x10001)
        X509v3 extensions:
            X509v3 Basic Constraints: 
                CA:FALSE
            Netscape Comment: 
                Easy-RSA Generated Certificate
            X509v3 Subject Key Identifier: 
                7B:67:87:74:9D:7F:D3:69:E2:5F:B7:C8:4D:DD:5F:52:13:E5:13:05
            X509v3 Authority Key Identifier: 
                keyid:EF:38:8D:14:50:58:A7:5B:4D:9C:17:72:FC:DF:B9:AC:A7:51:B0:10
                DirName:/C=US/ST=CA/L=SanFrancisco/O=Pixglo, Inc./OU=VPN-CIE/CN=tunnel.pixglo.com/name=Bala Chandrasekaran/emailAddress=bala@pixglo.com
                serial:A6:DB:C6:83:80:E6:A0:79

            X509v3 Extended Key Usage: 
                TLS Web Client Authentication
            X509v3 Key Usage: 
                Digital Signature
    Signature Algorithm: sha1WithRSAEncryption
         19:91:ea:51:ec:7c:7e:79:bf:1d:2d:ab:e3:c3:b3:61:29:c9:
         f3:d5:25:68:dd:d8:bc:b2:3a:1a:85:8f:3a:81:1e:60:c0:48:
         24:fd:4b:71:b6:48:9a:18:93:a9:05:a7:ba:6f:6c:72:cd:21:
         74:00:06:cb:70:01:79:c2:18:9c:f8:8b:36:f2:97:ce:b5:ee:
         85:bb:dd:1a:0e:af:67:c9:e2:51:7a:5f:d3:3f:30:01:24:45:
         0b:f8:6b:68:7c:6f:dd:04:94:75:16:05:ce:5e:db:68:3d:1c:
         a5:9b:06:97:70:74:a0:0a:1a:c6:6b:47:37:ee:ad:40:bb:7e:
         5a:fb:cd:a4:3f:36:db:78:96:f4:cd:dc:66:84:0c:e0:c2:e6:
         d3:ec:60:4d:a8:2d:9d:57:20:68:a1:54:67:73:49:e8:90:d5:
         29:3a:45:42:09:77:11:a9:13:43:1b:19:01:7e:dd:a1:6e:1e:
         98:64:15:6b:96:58:48:aa:4b:eb:bf:1e:4b:c1:c9:d2:c2:dd:
         29:e4:7d:9b:e9:fa:6d:99:36:4b:68:07:00:a2:60:ef:16:f8:
         4c:b6:b4:bf:10:5f:02:65:28:2d:57:d7:cf:65:21:42:b3:7a:
         53:ac:57:d6:56:94:3d:e0:3a:3f:35:43:d5:15:59:04:58:0b:
         e9:f0:b6:d7:34:ee:c4:46:e7:48:3a:13:13:27:03:3d:da:26:
         b3:55:4b:6e:1d:8b:d4:a2:25:d5:9d:11:dd:19:12:65:d1:16:
         55:80:d4:8e:76:af:c6:58:4d:59:ce:7e:fb:67:18:6b:67:e8:
         2e:1c:7e:95:e2:9b:fc:1f:66:23:c3:54:5d:36:d3:b2:d2:2b:
         8a:9e:df:23:d8:63:ab:82:6b:ea:ea:50:9a:c6:9d:a9:46:ca:
         62:cb:4c:4d:1c:70:df:e9:cd:3f:dc:97:10:ab:ed:e2:0c:55:
         31:80:21:8d:e9:51:64:00:3d:37:47:12:fb:1e:30:6a:fb:19:
         d8:b8:64:51:62:85:71:c1:72:de:2e:84:38:19:11:60:9b:08:
         22:5b:6a:e9:99:ec:95:7a:69:0a:84:c3:a7:3e:55:be:c6:f3:
         d6:30:b4:ea:f2:64:06:a2:aa:ef:e6:6f:9e:1e:86:33:6a:bc:
         8f:f0:d7:21:45:77:ef:1f:31:45:d8:c4:3b:9a:25:da:3b:b5:
         d0:ff:9d:16:d9:1f:f5:8e:84:47:38:73:97:6d:54:df:2c:42:
         a7:52:69:f9:df:7d:88:ab:25:2d:0a:a1:98:bc:f3:12:be:56:
         04:bc:20:11:46:0d:30:01:80:a0:d7:66:ce:ca:fa:b7:f7:7c:
         79:89:a9:f6:6f:95:32:c9
-----BEGIN CERTIFICATE-----
MIIHSDCCBTCgAwIBAgICAxIwDQYJKoZIhvcNAQEFBQAwgbQxCzAJBgNVBAYTAlVT
MQswCQYDVQQIEwJDQTEVMBMGA1UEBxMMU2FuRnJhbmNpc2NvMRUwEwYDVQQKEwxQ
aXhnbG8sIEluYy4xEDAOBgNVBAsTB1ZQTi1DSUUxGjAYBgNVBAMTEXR1bm5lbC5w
aXhnbG8uY29tMRwwGgYDVQQpExNCYWxhIENoYW5kcmFzZWthcmFuMR4wHAYJKoZI
hvcNAQkBFg9iYWxhQHBpeGdsby5jb20wHhcNMTgwMjE0MDY0MzMzWhcNMjgwMjEy
MDY0MzMzWjCBqTELMAkGA1UEBhMCVVMxCzAJBgNVBAgTAkNBMRUwEwYDVQQHEwxT
YW5GcmFuY2lzY28xFTATBgNVBAoTDFBpeGdsbywgSW5jLjEQMA4GA1UECxMHVlBO
LUNJRTEPMA0GA1UEAxMGY2llNzg1MRwwGgYDVQQpExNCYWxhIENoYW5kcmFzZWth
cmFuMR4wHAYJKoZIhvcNAQkBFg9iYWxhQHBpeGdsby5jb20wggIiMA0GCSqGSIb3
DQEBAQUAA4ICDwAwggIKAoICAQDS5Cq3ksGBLGguJVrXjIpePgWQcXyL9sXxE/9H
fJlCttAISSK4Y9cNmN5RDYUfJn+KdJBtmaOo8cp14azYD+pOdJnY7DoImFUUYFBs
Ls85Lfl/J+SENPGY19WszapEm5wweZDQsLH13bbVCsgNfI1/75/XaalP8/ED/tcH
v4PASDdnWGjGtBuM1DL4/h6/5VvlG08Zau4ExajHLHn0vhP6QP7IihFKJLcL9dge
+ctR3j/XRLmhwv1HRkaEC1sy79L0o2OPDiSht9MpNdQvdul/N8fPVhXDmvjQeydh
a3Yxn4zkWAjJ1dTWmitnkn9gqAKUcFNrTUpY8582Z1f/tlRcctJNeJn8uU2v0uEZ
SPybsQULLOViXjZQSlEH3I3LczzSuciUplLpDAkd7L4p7qSRgMW9cRirB+/wvoEi
t56rdo9AEMJHu0a5UuFz4UdiPbfkVzXHjCXAtLp9U0TDx9WOQJlu70NAw6E+mbv8
/cGcuXL7cl2GJGKGaySUXOgZ/SunJJ5vq5PKl0TFJw+qEjXspQggdcPmBB4Gbx7S
2ytrQJU6rKoZY0xvozQ2H97pxCOaIMysmJ3SoZZ7texSxacMR2x2VlKnOK54pVwm
ht1Ua1xjNvhHiPZcf6Rh5ugKunJkzkGZmfS4L2Vy5iLuAThZTKOVqHxn+woX2jNB
4G1kRQIDAQABo4IBazCCAWcwCQYDVR0TBAIwADAtBglghkgBhvhCAQ0EIBYeRWFz
eS1SU0EgR2VuZXJhdGVkIENlcnRpZmljYXRlMB0GA1UdDgQWBBR7Z4d0nX/TaeJf
t8hN3V9SE+UTBTCB6QYDVR0jBIHhMIHegBTvOI0UUFinW02cF3L837msp1GwEKGB
uqSBtzCBtDELMAkGA1UEBhMCVVMxCzAJBgNVBAgTAkNBMRUwEwYDVQQHEwxTYW5G
cmFuY2lzY28xFTATBgNVBAoTDFBpeGdsbywgSW5jLjEQMA4GA1UECxMHVlBOLUNJ
RTEaMBgGA1UEAxMRdHVubmVsLnBpeGdsby5jb20xHDAaBgNVBCkTE0JhbGEgQ2hh
bmRyYXNla2FyYW4xHjAcBgkqhkiG9w0BCQEWD2JhbGFAcGl4Z2xvLmNvbYIJAKbb
xoOA5qB5MBMGA1UdJQQMMAoGCCsGAQUFBwMCMAsGA1UdDwQEAwIHgDANBgkqhkiG
9w0BAQUFAAOCAgEAGZHqUex8fnm/HS2r48OzYSnJ89UlaN3YvLI6GoWPOoEeYMBI
JP1LcbZImhiTqQWnum9scs0hdAAGy3ABecIYnPiLNvKXzrXuhbvdGg6vZ8niUXpf
0z8wASRFC/hraHxv3QSUdRYFzl7baD0cpZsGl3B0oAoaxmtHN+6tQLt+WvvNpD82
23iW9M3cZoQM4MLm0+xgTagtnVcgaKFUZ3NJ6JDVKTpFQgl3EakTQxsZAX7doW4e
mGQVa5ZYSKpL678eS8HJ0sLdKeR9m+n6bZk2S2gHAKJg7xb4TLa0vxBfAmUoLVfX
z2UhQrN6U6xX1laUPeA6PzVD1RVZBFgL6fC21zTuxEbnSDoTEycDPdoms1VLbh2L
1KIl1Z0R3RkSZdEWVYDUjnavxlhNWc5++2cYa2foLhx+leKb/B9mI8NUXTbTstIr
ip7fI9hjq4Jr6upQmsadqUbKYstMTRxw3+nNP9yXEKvt4gxVMYAhjelRZAA9N0cS
+x4wavsZ2LhkUWKFccFy3i6EOBkRYJsIIltq6ZnslXppCoTDpz5Vvsbz1jC06vJk
BqKq7+Zvnh6GM2q8j/DXIUV37x8xRdjEO5ol2ju10P+dFtkf9Y6ERzhzl21U3yxC
p1Jp+d99iKslLQqhmLzzEr5WBLwgEUYNMAGAoNdmzsr6t/d8eYmp9m+VMsk=
-----END CERTIFICATE-----
