Certificate:
    Data:
        Version: 3 (0x2)
        Serial Number: 793 (0x319)
    Signature Algorithm: sha1WithRSAEncryption
        Issuer: C=US, ST=CA, L=SanFrancisco, O=Pixglo, Inc., OU=VPN-CIE, CN=tunnel.pixglo.com/name=Bala Chandrasekaran/emailAddress=bala@pixglo.com
        Validity
            Not Before: Feb 14 06:43:46 2018 GMT
            Not After : Feb 12 06:43:46 2028 GMT
        Subject: C=US, ST=CA, L=SanFrancisco, O=Pixglo, Inc., OU=VPN-CIE, CN=cie792/name=Bala Chandrasekaran/emailAddress=bala@pixglo.com
        Subject Public Key Info:
            Public Key Algorithm: rsaEncryption
                Public-Key: (4096 bit)
                Modulus:
                    00:c6:e7:09:cd:14:03:46:d6:53:c8:27:d6:9a:b0:
                    b9:4c:23:7f:53:e4:66:95:21:dd:c4:9f:93:9d:45:
                    ef:b8:ea:d2:d6:8e:f6:b2:f1:7e:52:05:66:b2:e7:
                    d4:ca:ff:cd:3e:a5:c8:db:72:72:23:dc:81:cf:0b:
                    15:9a:dd:c0:44:f9:32:b5:29:7f:c7:ca:6e:d5:78:
                    cc:ae:34:4d:a8:37:9a:8f:34:43:eb:86:04:cc:3a:
                    37:ab:4c:cb:3e:a3:8d:bb:17:25:be:9e:b3:42:41:
                    d3:01:e5:a1:e1:db:ca:54:e2:0a:60:6e:0e:bb:e0:
                    2f:31:f1:68:2c:6f:c7:ee:79:eb:00:00:6d:14:cb:
                    fc:ae:dd:a5:25:6d:66:ec:0a:6d:ed:49:05:81:e5:
                    95:30:50:4d:40:3b:8a:08:48:17:6a:ab:7e:8c:0e:
                    78:98:ea:c5:b6:47:e3:31:33:14:f8:84:be:95:18:
                    b0:4c:d8:c2:29:67:44:50:6c:b6:e4:90:69:cc:d6:
                    e2:5c:cd:19:81:d2:36:f8:0f:c9:74:10:c1:ef:37:
                    0a:53:b1:13:74:80:5c:0c:e7:73:61:82:a7:cc:0a:
                    ea:ae:da:d4:ef:5a:9b:d0:e3:fa:a6:02:b4:32:50:
                    29:2b:8d:86:a2:53:05:8a:2e:cf:73:22:35:52:2b:
                    3c:6b:44:fc:9c:b9:d7:4c:24:54:79:8b:49:5c:2f:
                    5e:64:89:81:ff:c1:4f:32:66:7c:8b:25:d4:f5:63:
                    4d:fc:56:42:0a:6d:54:7c:6f:03:a2:04:9f:de:86:
                    5b:e3:55:4f:bb:10:1a:34:2a:12:9d:ee:c9:26:aa:
                    4e:ee:10:95:6e:d4:df:0b:b4:d7:ec:72:b4:92:79:
                    6c:cc:e3:07:41:9e:2b:09:2a:45:43:c3:23:3d:8d:
                    cc:47:cd:7f:0b:f5:32:a7:42:f2:80:20:35:b0:d5:
                    4e:8e:9e:71:42:7c:ba:b3:4a:50:22:6d:8d:88:46:
                    a7:cb:d2:41:7b:45:0b:73:4c:f4:33:e1:cf:c1:8f:
                    20:ae:3e:7e:cf:8d:35:cc:22:79:b6:94:9e:29:5c:
                    25:28:90:35:73:7f:c5:ad:1a:6c:11:69:18:ea:21:
                    c9:c7:51:ad:09:4b:9c:50:dc:64:2b:08:70:bb:5b:
                    c6:cb:90:b6:78:80:db:33:c2:7a:ea:06:85:91:a7:
                    a9:2c:75:71:4f:db:5c:b7:ca:dd:d0:11:74:08:07:
                    f4:c0:ea:98:4e:8c:21:41:e0:4d:a9:43:11:fa:53:
                    42:90:e6:2a:d9:f8:32:ad:f6:9e:cb:de:c8:b9:11:
                    dd:93:3c:a6:79:bd:86:37:75:f0:58:60:6e:a8:45:
                    9a:3e:77
                Exponent: 65537 (0x10001)
        X509v3 extensions:
            X509v3 Basic Constraints: 
                CA:FALSE
            Netscape Comment: 
                Easy-RSA Generated Certificate
            X509v3 Subject Key Identifier: 
                B4:D7:12:08:F7:01:29:19:24:C4:7A:3A:FB:11:39:0E:DE:EB:8A:71
            X509v3 Authority Key Identifier: 
                keyid:EF:38:8D:14:50:58:A7:5B:4D:9C:17:72:FC:DF:B9:AC:A7:51:B0:10
                DirName:/C=US/ST=CA/L=SanFrancisco/O=Pixglo, Inc./OU=VPN-CIE/CN=tunnel.pixglo.com/name=Bala Chandrasekaran/emailAddress=bala@pixglo.com
                serial:A6:DB:C6:83:80:E6:A0:79

            X509v3 Extended Key Usage: 
                TLS Web Client Authentication
            X509v3 Key Usage: 
                Digital Signature
    Signature Algorithm: sha1WithRSAEncryption
         b2:ac:6d:fb:e0:1c:f1:0d:0e:22:c2:1f:a1:df:46:fe:f5:1f:
         32:2d:01:17:df:3f:2c:4a:84:67:d1:ae:ef:80:7f:1c:02:23:
         81:a4:42:75:1b:40:4c:eb:ce:0e:a1:d8:d4:38:af:e5:30:b3:
         23:b8:f2:e9:f5:fe:1b:35:e3:bd:c7:89:93:0c:e4:e2:39:a1:
         0b:ec:6c:e2:cb:eb:87:81:e6:90:e9:80:86:96:08:f8:db:45:
         4e:e1:99:06:e1:e8:bb:5c:9d:34:3c:66:ce:51:05:3a:43:71:
         4c:71:80:3e:2e:97:42:ad:45:e7:a0:cd:1b:b2:04:3e:95:5d:
         af:84:80:d2:f7:d4:cf:d7:a2:7e:0c:35:a9:30:dd:9d:94:87:
         13:14:55:a8:a0:e4:28:9e:43:f1:4c:1b:72:60:c4:c6:dc:24:
         0c:50:02:30:dd:7f:30:d2:17:b5:cf:7c:9d:b3:ae:e6:a2:28:
         4f:56:f9:62:53:1d:d7:3c:63:bc:61:f6:86:bc:3c:41:ad:99:
         91:7f:e6:5e:4d:8a:db:01:3f:ae:91:5e:ab:04:e4:98:d1:dd:
         fe:55:28:e7:34:d9:f1:96:67:17:fe:59:dc:74:31:b1:6f:d5:
         28:2d:b1:52:c4:22:14:c8:fb:07:c1:7f:c9:91:09:ef:e6:1c:
         c3:ec:7d:ae:4f:f7:58:a4:bc:f5:18:d1:42:08:9d:60:e5:89:
         92:7a:47:c5:21:50:fd:77:9f:ad:a0:d5:a0:f0:ee:79:5f:47:
         38:4a:22:11:1e:11:df:85:b5:17:c2:76:ef:0a:be:dd:26:24:
         81:41:12:e3:4f:2a:80:d9:47:9a:3d:de:14:96:c8:87:5c:10:
         9d:30:18:5c:79:2d:60:88:c9:09:e4:be:4d:79:9f:73:b0:5c:
         34:dc:48:4f:14:6f:12:77:3c:b2:91:3f:2a:8d:1f:4b:44:38:
         42:d1:22:4d:d2:34:44:f2:9c:fd:b7:88:04:f1:1d:46:bd:1c:
         1a:f4:31:1f:04:1c:c0:b8:72:10:5b:ae:dc:b3:4b:21:44:8b:
         ce:f1:52:60:94:ea:e7:5e:09:86:36:d2:f9:b4:aa:af:d2:5e:
         46:6b:45:e3:a0:f8:a2:f4:b8:c3:83:0d:b1:72:8f:13:10:59:
         7b:44:6a:3f:fe:5c:99:19:e8:f3:41:40:d1:e6:5a:05:ec:32:
         8d:fe:47:97:1e:1a:31:de:14:80:2d:57:f7:df:ba:21:61:49:
         5b:ca:52:29:02:14:f8:41:63:37:c8:4b:d6:c9:78:65:75:87:
         84:e6:32:80:72:4a:c1:b4:bf:e5:27:7b:3f:56:ed:d1:9c:6d:
         a8:d4:b6:19:5c:13:4b:55
-----BEGIN CERTIFICATE-----
MIIHSDCCBTCgAwIBAgICAxkwDQYJKoZIhvcNAQEFBQAwgbQxCzAJBgNVBAYTAlVT
MQswCQYDVQQIEwJDQTEVMBMGA1UEBxMMU2FuRnJhbmNpc2NvMRUwEwYDVQQKEwxQ
aXhnbG8sIEluYy4xEDAOBgNVBAsTB1ZQTi1DSUUxGjAYBgNVBAMTEXR1bm5lbC5w
aXhnbG8uY29tMRwwGgYDVQQpExNCYWxhIENoYW5kcmFzZWthcmFuMR4wHAYJKoZI
hvcNAQkBFg9iYWxhQHBpeGdsby5jb20wHhcNMTgwMjE0MDY0MzQ2WhcNMjgwMjEy
MDY0MzQ2WjCBqTELMAkGA1UEBhMCVVMxCzAJBgNVBAgTAkNBMRUwEwYDVQQHEwxT
YW5GcmFuY2lzY28xFTATBgNVBAoTDFBpeGdsbywgSW5jLjEQMA4GA1UECxMHVlBO
LUNJRTEPMA0GA1UEAxMGY2llNzkyMRwwGgYDVQQpExNCYWxhIENoYW5kcmFzZWth
cmFuMR4wHAYJKoZIhvcNAQkBFg9iYWxhQHBpeGdsby5jb20wggIiMA0GCSqGSIb3
DQEBAQUAA4ICDwAwggIKAoICAQDG5wnNFANG1lPIJ9aasLlMI39T5GaVId3En5Od
Re+46tLWjvay8X5SBWay59TK/80+pcjbcnIj3IHPCxWa3cBE+TK1KX/Hym7VeMyu
NE2oN5qPNEPrhgTMOjerTMs+o427FyW+nrNCQdMB5aHh28pU4gpgbg674C8x8Wgs
b8fueesAAG0Uy/yu3aUlbWbsCm3tSQWB5ZUwUE1AO4oISBdqq36MDniY6sW2R+Mx
MxT4hL6VGLBM2MIpZ0RQbLbkkGnM1uJczRmB0jb4D8l0EMHvNwpTsRN0gFwM53Nh
gqfMCuqu2tTvWpvQ4/qmArQyUCkrjYaiUwWKLs9zIjVSKzxrRPycuddMJFR5i0lc
L15kiYH/wU8yZnyLJdT1Y038VkIKbVR8bwOiBJ/ehlvjVU+7EBo0KhKd7skmqk7u
EJVu1N8LtNfscrSSeWzM4wdBnisJKkVDwyM9jcxHzX8L9TKnQvKAIDWw1U6OnnFC
fLqzSlAibY2IRqfL0kF7RQtzTPQz4c/BjyCuPn7PjTXMInm2lJ4pXCUokDVzf8Wt
GmwRaRjqIcnHUa0JS5xQ3GQrCHC7W8bLkLZ4gNszwnrqBoWRp6ksdXFP21y3yt3Q
EXQIB/TA6phOjCFB4E2pQxH6U0KQ5irZ+DKt9p7L3si5Ed2TPKZ5vYY3dfBYYG6o
RZo+dwIDAQABo4IBazCCAWcwCQYDVR0TBAIwADAtBglghkgBhvhCAQ0EIBYeRWFz
eS1SU0EgR2VuZXJhdGVkIENlcnRpZmljYXRlMB0GA1UdDgQWBBS01xII9wEpGSTE
ejr7ETkO3uuKcTCB6QYDVR0jBIHhMIHegBTvOI0UUFinW02cF3L837msp1GwEKGB
uqSBtzCBtDELMAkGA1UEBhMCVVMxCzAJBgNVBAgTAkNBMRUwEwYDVQQHEwxTYW5G
cmFuY2lzY28xFTATBgNVBAoTDFBpeGdsbywgSW5jLjEQMA4GA1UECxMHVlBOLUNJ
RTEaMBgGA1UEAxMRdHVubmVsLnBpeGdsby5jb20xHDAaBgNVBCkTE0JhbGEgQ2hh
bmRyYXNla2FyYW4xHjAcBgkqhkiG9w0BCQEWD2JhbGFAcGl4Z2xvLmNvbYIJAKbb
xoOA5qB5MBMGA1UdJQQMMAoGCCsGAQUFBwMCMAsGA1UdDwQEAwIHgDANBgkqhkiG
9w0BAQUFAAOCAgEAsqxt++Ac8Q0OIsIfod9G/vUfMi0BF98/LEqEZ9Gu74B/HAIj
gaRCdRtATOvODqHY1Div5TCzI7jy6fX+GzXjvceJkwzk4jmhC+xs4svrh4HmkOmA
hpYI+NtFTuGZBuHou1ydNDxmzlEFOkNxTHGAPi6XQq1F56DNG7IEPpVdr4SA0vfU
z9eifgw1qTDdnZSHExRVqKDkKJ5D8UwbcmDExtwkDFACMN1/MNIXtc98nbOu5qIo
T1b5YlMd1zxjvGH2hrw8Qa2ZkX/mXk2K2wE/rpFeqwTkmNHd/lUo5zTZ8ZZnF/5Z
3HQxsW/VKC2xUsQiFMj7B8F/yZEJ7+Ycw+x9rk/3WKS89RjRQgidYOWJknpHxSFQ
/XefraDVoPDueV9HOEoiER4R34W1F8J27wq+3SYkgUES408qgNlHmj3eFJbIh1wQ
nTAYXHktYIjJCeS+TXmfc7BcNNxITxRvEnc8spE/Ko0fS0Q4QtEiTdI0RPKc/beI
BPEdRr0cGvQxHwQcwLhyEFuu3LNLIUSLzvFSYJTq514JhjbS+bSqr9JeRmtF46D4
ovS4w4MNsXKPExBZe0RqP/5cmRno80FA0eZaBewyjf5Hlx4aMd4UgC1X99+6IWFJ
W8pSKQIU+EFjN8hL1sl4ZXWHhOYygHJKwbS/5Sd7P1bt0ZxtqNS2GVwTS1U=
-----END CERTIFICATE-----
