Certificate:
    Data:
        Version: 3 (0x2)
        Serial Number: 795 (0x31b)
    Signature Algorithm: sha1WithRSAEncryption
        Issuer: C=US, ST=CA, L=SanFrancisco, O=Pixglo, Inc., OU=VPN-CIE, CN=tunnel.pixglo.com/name=Bala Chandrasekaran/emailAddress=bala@pixglo.com
        Validity
            Not Before: Feb 14 06:43:49 2018 GMT
            Not After : Feb 12 06:43:49 2028 GMT
        Subject: C=US, ST=CA, L=SanFrancisco, O=Pixglo, Inc., OU=VPN-CIE, CN=cie794/name=Bala Chandrasekaran/emailAddress=bala@pixglo.com
        Subject Public Key Info:
            Public Key Algorithm: rsaEncryption
                Public-Key: (4096 bit)
                Modulus:
                    00:b1:97:85:b2:14:1b:02:57:51:20:13:e4:8b:8a:
                    36:27:c6:a7:79:4b:fa:46:81:52:25:a2:a2:ed:81:
                    82:c1:1f:af:62:2e:dd:8f:31:13:c8:32:49:dd:98:
                    98:88:be:56:29:ad:b7:02:05:97:13:ed:d4:8e:d5:
                    d2:8c:84:0e:5f:e9:e6:3a:5c:f2:b9:f6:2b:e1:32:
                    7f:ec:23:2c:0a:01:16:f0:1c:15:4d:e2:a3:2e:b5:
                    3c:fb:3d:23:b4:7b:d8:be:a3:22:03:60:78:69:8f:
                    44:da:43:56:95:27:e0:6e:1f:a4:29:da:e0:8e:fa:
                    b7:a2:8c:f9:3e:cd:4f:ae:78:7c:45:12:d4:a4:3d:
                    3a:3e:2e:82:a1:28:de:f3:d7:66:4a:2d:ca:5f:38:
                    63:df:b2:c5:19:cb:49:67:60:24:df:95:8a:cb:f9:
                    2a:2b:d6:db:9d:0b:f8:2f:66:08:5b:53:7a:46:cd:
                    f0:71:1c:de:2c:02:b3:9b:6a:68:29:a8:e0:9f:c6:
                    b7:7c:d2:a5:d1:17:f7:b5:af:a9:aa:d7:5c:31:29:
                    77:d3:fc:63:f8:1f:e0:41:d0:d2:f1:bd:e3:3e:6a:
                    6b:af:28:9b:30:a5:5c:a8:1b:98:9f:e8:d3:11:86:
                    42:75:47:b3:3b:a2:36:e7:41:70:29:bb:15:60:df:
                    4a:a6:a9:8c:a9:2e:84:c7:d3:47:51:31:bc:83:75:
                    f3:69:c3:f4:d5:34:2a:32:e2:15:9c:25:17:fe:d2:
                    94:54:e6:5b:0d:c4:c6:e9:c8:af:60:24:c6:dc:b0:
                    4d:cd:3c:b5:5e:c6:1d:68:01:e0:7d:42:1e:d9:42:
                    85:11:06:39:ac:2c:80:9d:40:cb:f8:d2:f0:f2:55:
                    88:36:56:75:c3:94:c8:22:63:7b:32:1a:a9:96:db:
                    b4:a9:61:20:1c:5b:41:ea:0e:37:e9:3c:86:02:97:
                    56:6b:5c:fd:ff:56:f5:f2:13:01:87:ae:5d:82:c6:
                    53:1d:30:7c:49:ac:02:96:87:72:50:6a:0e:eb:82:
                    0f:7a:2d:04:cf:f9:8a:3a:24:48:8b:df:24:d2:a2:
                    79:58:be:1b:df:fb:e1:46:a3:ee:56:4e:10:1f:5b:
                    f5:8f:d2:ac:92:ab:90:a4:d4:b4:cd:f7:b2:2a:4f:
                    3f:af:1b:ce:eb:40:f2:e0:51:c1:95:f8:10:75:d3:
                    69:5f:8d:c2:0c:44:30:76:c1:fe:1a:0d:5e:57:2c:
                    ff:41:15:9c:45:71:63:2c:ee:47:d1:9f:23:bd:78:
                    c5:bd:90:67:84:3c:67:a5:76:7b:d8:76:ac:0a:63:
                    0c:7c:3c:0b:a5:03:4f:b2:25:6f:bb:17:0c:43:4a:
                    b6:bc:a7
                Exponent: 65537 (0x10001)
        X509v3 extensions:
            X509v3 Basic Constraints: 
                CA:FALSE
            Netscape Comment: 
                Easy-RSA Generated Certificate
            X509v3 Subject Key Identifier: 
                DC:FB:89:36:F2:1D:75:68:84:89:7F:88:13:18:05:2D:87:32:A5:9A
            X509v3 Authority Key Identifier: 
                keyid:EF:38:8D:14:50:58:A7:5B:4D:9C:17:72:FC:DF:B9:AC:A7:51:B0:10
                DirName:/C=US/ST=CA/L=SanFrancisco/O=Pixglo, Inc./OU=VPN-CIE/CN=tunnel.pixglo.com/name=Bala Chandrasekaran/emailAddress=bala@pixglo.com
                serial:A6:DB:C6:83:80:E6:A0:79

            X509v3 Extended Key Usage: 
                TLS Web Client Authentication
            X509v3 Key Usage: 
                Digital Signature
    Signature Algorithm: sha1WithRSAEncryption
         a2:25:70:be:24:55:8b:f8:1a:c8:b7:c9:9d:0d:a2:f5:68:84:
         27:07:91:d7:59:73:7d:88:0a:87:dc:8c:b5:bf:26:57:23:cf:
         35:bb:06:18:40:ca:8c:ee:bd:13:1c:bc:38:00:a8:43:d2:de:
         e1:5c:19:0d:ae:f7:52:da:10:4e:b1:2d:52:ab:18:54:5e:41:
         55:80:ad:3a:ac:30:79:d1:7a:81:da:f4:7d:41:8b:8d:1a:c7:
         50:e0:c0:af:14:cd:61:6d:95:46:cc:96:25:4e:98:40:df:9c:
         f1:e8:5a:3f:7d:e1:23:42:11:bc:d8:74:08:5e:90:5b:cf:34:
         ae:df:bd:52:17:0c:11:71:81:cc:05:2e:cd:a3:47:f0:88:37:
         4a:8d:cb:69:41:60:98:a6:b8:27:b0:b4:5a:e2:6e:ef:e4:17:
         43:a8:29:a4:ec:bf:ec:8e:d8:a3:f4:53:4b:e7:d1:fc:dc:b3:
         0f:cb:49:00:40:a2:5f:26:bb:9d:0b:ca:fe:f4:cc:70:f5:72:
         3b:a9:34:36:14:fb:bb:cf:f3:74:ef:21:57:66:93:4b:32:fc:
         4e:18:20:f2:e8:0c:d9:43:6d:7e:33:9d:3a:91:c2:13:4a:47:
         c6:a0:5f:80:81:45:7d:1c:63:d4:bf:a3:9f:79:66:dc:95:96:
         90:37:fe:66:d9:b5:e5:22:06:d7:5b:20:66:49:48:3f:77:d2:
         6e:2e:a1:2f:23:ec:9c:49:77:dc:05:e4:63:7a:cb:83:7d:66:
         5c:44:8a:d4:b7:b2:80:93:ca:74:04:27:56:a4:48:13:b2:df:
         b8:7b:8a:04:e4:63:cf:bd:8d:c8:3e:2c:c2:ff:35:2f:54:86:
         9a:7d:12:aa:58:ae:29:01:ca:b7:91:08:6a:ae:97:35:35:8c:
         da:6f:34:90:4d:4b:76:03:37:f0:e8:df:62:cb:60:05:61:d4:
         cc:25:99:2c:2a:27:8a:71:c5:29:0e:a6:ff:10:61:b3:52:71:
         67:9b:33:73:9e:58:37:8c:5b:0d:a4:e7:be:64:a6:32:b7:a1:
         fb:67:66:ff:78:d5:69:16:f3:ce:8c:9d:d1:55:b0:6f:a0:bc:
         6c:e1:2f:de:1e:66:f1:f0:e4:2c:eb:30:42:8c:67:2e:75:09:
         7d:e8:a1:a2:e3:8e:cd:36:0f:35:88:39:19:a8:10:d8:e0:45:
         e9:f4:dc:dc:5b:c2:c4:7c:65:cf:ab:cf:fc:e1:d6:84:d8:e7:
         75:45:df:9a:b2:f0:ea:ab:19:5d:dc:7a:ae:f7:aa:6c:7f:7d:
         85:9d:89:42:80:65:97:9a:48:a1:27:74:8e:0f:8a:f6:48:34:
         6f:f5:d3:e8:2f:8a:59:f7
-----BEGIN CERTIFICATE-----
MIIHSDCCBTCgAwIBAgICAxswDQYJKoZIhvcNAQEFBQAwgbQxCzAJBgNVBAYTAlVT
MQswCQYDVQQIEwJDQTEVMBMGA1UEBxMMU2FuRnJhbmNpc2NvMRUwEwYDVQQKEwxQ
aXhnbG8sIEluYy4xEDAOBgNVBAsTB1ZQTi1DSUUxGjAYBgNVBAMTEXR1bm5lbC5w
aXhnbG8uY29tMRwwGgYDVQQpExNCYWxhIENoYW5kcmFzZWthcmFuMR4wHAYJKoZI
hvcNAQkBFg9iYWxhQHBpeGdsby5jb20wHhcNMTgwMjE0MDY0MzQ5WhcNMjgwMjEy
MDY0MzQ5WjCBqTELMAkGA1UEBhMCVVMxCzAJBgNVBAgTAkNBMRUwEwYDVQQHEwxT
YW5GcmFuY2lzY28xFTATBgNVBAoTDFBpeGdsbywgSW5jLjEQMA4GA1UECxMHVlBO
LUNJRTEPMA0GA1UEAxMGY2llNzk0MRwwGgYDVQQpExNCYWxhIENoYW5kcmFzZWth
cmFuMR4wHAYJKoZIhvcNAQkBFg9iYWxhQHBpeGdsby5jb20wggIiMA0GCSqGSIb3
DQEBAQUAA4ICDwAwggIKAoICAQCxl4WyFBsCV1EgE+SLijYnxqd5S/pGgVIloqLt
gYLBH69iLt2PMRPIMkndmJiIvlYprbcCBZcT7dSO1dKMhA5f6eY6XPK59ivhMn/s
IywKARbwHBVN4qMutTz7PSO0e9i+oyIDYHhpj0TaQ1aVJ+BuH6Qp2uCO+reijPk+
zU+ueHxFEtSkPTo+LoKhKN7z12ZKLcpfOGPfssUZy0lnYCTflYrL+Sor1tudC/gv
ZghbU3pGzfBxHN4sArObamgpqOCfxrd80qXRF/e1r6mq11wxKXfT/GP4H+BB0NLx
veM+amuvKJswpVyoG5if6NMRhkJ1R7M7ojbnQXApuxVg30qmqYypLoTH00dRMbyD
dfNpw/TVNCoy4hWcJRf+0pRU5lsNxMbpyK9gJMbcsE3NPLVexh1oAeB9Qh7ZQoUR
BjmsLICdQMv40vDyVYg2VnXDlMgiY3syGqmW27SpYSAcW0HqDjfpPIYCl1ZrXP3/
VvXyEwGHrl2CxlMdMHxJrAKWh3JQag7rgg96LQTP+Yo6JEiL3yTSonlYvhvf++FG
o+5WThAfW/WP0qySq5Ck1LTN97IqTz+vG87rQPLgUcGV+BB102lfjcIMRDB2wf4a
DV5XLP9BFZxFcWMs7kfRnyO9eMW9kGeEPGeldnvYdqwKYwx8PAulA0+yJW+7FwxD
Sra8pwIDAQABo4IBazCCAWcwCQYDVR0TBAIwADAtBglghkgBhvhCAQ0EIBYeRWFz
eS1SU0EgR2VuZXJhdGVkIENlcnRpZmljYXRlMB0GA1UdDgQWBBTc+4k28h11aISJ
f4gTGAUthzKlmjCB6QYDVR0jBIHhMIHegBTvOI0UUFinW02cF3L837msp1GwEKGB
uqSBtzCBtDELMAkGA1UEBhMCVVMxCzAJBgNVBAgTAkNBMRUwEwYDVQQHEwxTYW5G
cmFuY2lzY28xFTATBgNVBAoTDFBpeGdsbywgSW5jLjEQMA4GA1UECxMHVlBOLUNJ
RTEaMBgGA1UEAxMRdHVubmVsLnBpeGdsby5jb20xHDAaBgNVBCkTE0JhbGEgQ2hh
bmRyYXNla2FyYW4xHjAcBgkqhkiG9w0BCQEWD2JhbGFAcGl4Z2xvLmNvbYIJAKbb
xoOA5qB5MBMGA1UdJQQMMAoGCCsGAQUFBwMCMAsGA1UdDwQEAwIHgDANBgkqhkiG
9w0BAQUFAAOCAgEAoiVwviRVi/gayLfJnQ2i9WiEJweR11lzfYgKh9yMtb8mVyPP
NbsGGEDKjO69Exy8OACoQ9Le4VwZDa73UtoQTrEtUqsYVF5BVYCtOqwwedF6gdr0
fUGLjRrHUODArxTNYW2VRsyWJU6YQN+c8ehaP33hI0IRvNh0CF6QW880rt+9UhcM
EXGBzAUuzaNH8Ig3So3LaUFgmKa4J7C0WuJu7+QXQ6gppOy/7I7Yo/RTS+fR/Nyz
D8tJAECiXya7nQvK/vTMcPVyO6k0NhT7u8/zdO8hV2aTSzL8Thgg8ugM2UNtfjOd
OpHCE0pHxqBfgIFFfRxj1L+jn3lm3JWWkDf+Ztm15SIG11sgZklIP3fSbi6hLyPs
nEl33AXkY3rLg31mXESK1LeygJPKdAQnVqRIE7LfuHuKBORjz72NyD4swv81L1SG
mn0SqliuKQHKt5EIaq6XNTWM2m80kE1LdgM38OjfYstgBWHUzCWZLConinHFKQ6m
/xBhs1JxZ5szc55YN4xbDaTnvmSmMreh+2dm/3jVaRbzzoyd0VWwb6C8bOEv3h5m
8fDkLOswQoxnLnUJfeihouOOzTYPNYg5GagQ2OBF6fTc3FvCxHxlz6vP/OHWhNjn
dUXfmrLw6qsZXdx6rveqbH99hZ2JQoBll5pIoSd0jg+K9kg0b/XT6C+KWfc=
-----END CERTIFICATE-----
