Certificate:
    Data:
        Version: 3 (0x2)
        Serial Number: 799 (0x31f)
    Signature Algorithm: sha1WithRSAEncryption
        Issuer: C=US, ST=CA, L=SanFrancisco, O=Pixglo, Inc., OU=VPN-CIE, CN=tunnel.pixglo.com/name=Bala Chandrasekaran/emailAddress=bala@pixglo.com
        Validity
            Not Before: Feb 14 06:43:53 2018 GMT
            Not After : Feb 12 06:43:53 2028 GMT
        Subject: C=US, ST=CA, L=SanFrancisco, O=Pixglo, Inc., OU=VPN-CIE, CN=cie798/name=Bala Chandrasekaran/emailAddress=bala@pixglo.com
        Subject Public Key Info:
            Public Key Algorithm: rsaEncryption
                Public-Key: (4096 bit)
                Modulus:
                    00:e5:6b:85:fc:61:64:a0:e5:2e:ca:3f:62:a8:c4:
                    f6:fb:76:32:8b:27:c8:f9:5b:a6:84:55:ad:0b:bd:
                    da:66:39:0e:07:cd:b6:45:35:59:de:ab:d3:29:76:
                    e7:33:11:8d:3f:a2:3f:bf:b0:8e:8d:89:8d:11:27:
                    c0:80:b7:3b:b4:7c:25:e7:a3:04:03:f0:72:9b:a6:
                    03:ef:6d:8a:c2:90:72:7e:a8:fc:1b:31:59:e9:ad:
                    5e:f1:d4:7f:4a:fd:90:84:86:4b:17:ab:f7:e2:72:
                    56:b7:a6:30:03:cf:32:eb:0a:a9:2f:65:bf:33:b5:
                    3e:58:c2:83:0a:10:8e:bb:3e:98:dd:22:1f:05:40:
                    5f:af:7b:5d:bd:a5:ed:d9:d2:88:59:a2:ee:06:23:
                    00:62:51:dd:b0:64:4e:87:4f:07:28:ac:7a:98:f2:
                    c7:88:d3:ab:e5:50:6f:98:dd:f3:01:ba:23:32:bb:
                    b8:54:24:03:ad:d9:f2:8a:62:50:53:22:f6:2a:ed:
                    87:0e:1f:f4:19:0b:2a:72:b1:d6:82:b0:b2:93:a4:
                    dc:cc:7d:a4:88:eb:ef:f1:fa:df:6c:a2:3f:19:6d:
                    6e:af:51:4b:7a:f3:67:dd:41:a8:bc:44:b2:22:f5:
                    7b:fe:89:d0:20:54:26:d6:04:f3:a2:03:3e:51:7d:
                    66:a8:a7:65:64:f8:3f:8e:cc:6c:25:5f:9f:27:3e:
                    77:47:cf:c5:42:09:6d:38:a3:5d:e8:1e:25:88:61:
                    c6:04:65:a8:54:30:9b:9f:d4:b2:62:28:84:77:00:
                    66:3e:04:6d:6f:09:74:89:48:5d:2b:52:67:87:1d:
                    8f:3e:5a:d3:41:06:e7:ff:eb:bf:b7:c2:db:2b:eb:
                    49:d4:e1:51:fc:ed:84:eb:10:92:e2:5d:f6:06:81:
                    51:3e:32:a1:1f:ec:80:6a:3d:e8:54:38:71:ac:4f:
                    c3:62:0e:e4:b0:72:e7:a4:da:56:7a:08:5e:dd:a7:
                    7c:1f:c2:04:47:f8:a0:0a:89:22:44:ea:5e:2f:33:
                    f2:68:4c:0a:24:44:6b:35:42:fb:91:8e:68:e8:b7:
                    c4:bd:7f:55:10:97:6a:d9:50:9a:12:38:f0:de:a0:
                    9e:84:1f:c1:67:8e:04:39:fd:a1:af:56:eb:5f:d9:
                    df:7f:a7:76:7d:fe:7d:c3:33:5d:9b:b0:7e:dd:98:
                    fb:84:12:1e:2d:62:27:5b:8e:94:b7:9e:c6:5d:15:
                    e5:e4:ad:fe:d9:f9:41:19:ce:c1:34:b2:fc:c2:ff:
                    50:48:c0:f3:ab:21:d1:b2:39:06:8b:22:21:58:93:
                    9b:13:9c:59:87:0c:bb:98:1c:82:4e:e4:fc:58:ba:
                    eb:29:a5
                Exponent: 65537 (0x10001)
        X509v3 extensions:
            X509v3 Basic Constraints: 
                CA:FALSE
            Netscape Comment: 
                Easy-RSA Generated Certificate
            X509v3 Subject Key Identifier: 
                97:11:E2:C1:25:AF:F7:B7:1E:65:5C:09:93:8E:70:13:25:42:CC:03
            X509v3 Authority Key Identifier: 
                keyid:EF:38:8D:14:50:58:A7:5B:4D:9C:17:72:FC:DF:B9:AC:A7:51:B0:10
                DirName:/C=US/ST=CA/L=SanFrancisco/O=Pixglo, Inc./OU=VPN-CIE/CN=tunnel.pixglo.com/name=Bala Chandrasekaran/emailAddress=bala@pixglo.com
                serial:A6:DB:C6:83:80:E6:A0:79

            X509v3 Extended Key Usage: 
                TLS Web Client Authentication
            X509v3 Key Usage: 
                Digital Signature
    Signature Algorithm: sha1WithRSAEncryption
         b2:e3:b7:94:f4:13:4f:64:86:2b:23:65:96:8b:72:ee:4f:f8:
         a2:76:b2:49:64:28:05:94:0d:3d:18:0b:2d:b7:fb:c0:65:e3:
         c6:a2:24:b9:33:35:c3:45:53:a2:be:73:cf:23:43:de:a2:24:
         57:7f:6f:8f:28:af:04:d1:24:d5:19:58:a9:c8:25:5a:7a:67:
         92:00:bf:d8:ca:49:aa:61:1e:14:fc:e2:51:db:15:56:d3:30:
         91:d2:d1:da:79:a1:d6:47:76:95:53:33:34:76:c3:4f:31:ef:
         cc:7b:d9:c8:42:3c:b3:8c:1b:fb:37:fd:4e:74:2e:d4:f8:4d:
         e8:e1:57:eb:01:21:20:24:55:b2:91:b7:5c:a9:1f:84:f0:b3:
         bb:37:d6:82:6c:55:dc:39:aa:2e:1f:22:47:ca:67:21:9f:58:
         6d:9a:2c:df:ba:b1:75:3c:f6:80:b2:a9:c9:61:29:3d:28:a0:
         5c:13:a9:37:22:20:cd:38:1e:5b:8c:6c:12:9b:cd:1a:fa:6d:
         0d:45:a1:af:f9:8e:f4:cd:ad:eb:20:5b:1f:3c:68:47:0a:cb:
         62:dd:84:0b:e8:87:23:dd:c9:5c:8a:78:f5:53:4c:13:e1:88:
         3f:fd:ef:bb:96:a2:58:9d:d7:89:93:6a:51:88:63:05:6a:54:
         7f:bc:86:41:14:ce:05:78:36:82:36:29:58:a4:96:12:7a:c6:
         14:ad:4b:59:bc:db:b7:98:01:ba:7b:b7:58:b9:54:41:b4:8d:
         d4:13:99:75:16:03:d2:f9:e9:20:e1:ba:4b:e0:dc:2f:bd:84:
         94:54:ae:4b:5c:ea:23:4a:4c:e8:d9:d8:78:8f:20:c4:52:09:
         38:c3:fd:45:84:2b:94:40:09:22:f4:c8:6d:b5:93:3a:59:2f:
         db:9c:82:4c:e8:5b:2d:ab:b9:a2:a8:e6:8f:8d:6c:1c:21:00:
         6c:67:3e:0f:81:cf:cf:37:ce:45:3d:a6:81:3c:4c:c8:8d:42:
         2f:d4:57:ec:9e:3d:96:64:3a:eb:84:05:05:42:7c:50:62:1a:
         10:d8:c9:02:cd:1a:8c:25:ea:06:fc:50:7b:33:74:2c:61:42:
         5e:0e:f1:66:97:3e:ac:3b:f8:f5:74:d7:3f:e6:8b:4e:f5:3a:
         04:4e:5c:f5:f7:ab:e0:7e:01:f5:17:0f:9f:1b:22:0a:65:93:
         b1:9b:a2:54:d2:eb:89:19:db:53:dd:8c:ec:fd:1e:14:ae:aa:
         57:2a:3d:38:0d:e8:64:23:87:e0:5d:3e:82:ca:5b:35:4f:c0:
         63:0b:ca:10:c5:96:3b:35:ae:98:2b:06:ee:e4:8e:e2:c1:bc:
         8c:9c:73:e5:8b:ea:d6:73
-----BEGIN CERTIFICATE-----
MIIHSDCCBTCgAwIBAgICAx8wDQYJKoZIhvcNAQEFBQAwgbQxCzAJBgNVBAYTAlVT
MQswCQYDVQQIEwJDQTEVMBMGA1UEBxMMU2FuRnJhbmNpc2NvMRUwEwYDVQQKEwxQ
aXhnbG8sIEluYy4xEDAOBgNVBAsTB1ZQTi1DSUUxGjAYBgNVBAMTEXR1bm5lbC5w
aXhnbG8uY29tMRwwGgYDVQQpExNCYWxhIENoYW5kcmFzZWthcmFuMR4wHAYJKoZI
hvcNAQkBFg9iYWxhQHBpeGdsby5jb20wHhcNMTgwMjE0MDY0MzUzWhcNMjgwMjEy
MDY0MzUzWjCBqTELMAkGA1UEBhMCVVMxCzAJBgNVBAgTAkNBMRUwEwYDVQQHEwxT
YW5GcmFuY2lzY28xFTATBgNVBAoTDFBpeGdsbywgSW5jLjEQMA4GA1UECxMHVlBO
LUNJRTEPMA0GA1UEAxMGY2llNzk4MRwwGgYDVQQpExNCYWxhIENoYW5kcmFzZWth
cmFuMR4wHAYJKoZIhvcNAQkBFg9iYWxhQHBpeGdsby5jb20wggIiMA0GCSqGSIb3
DQEBAQUAA4ICDwAwggIKAoICAQDla4X8YWSg5S7KP2KoxPb7djKLJ8j5W6aEVa0L
vdpmOQ4HzbZFNVneq9MpduczEY0/oj+/sI6NiY0RJ8CAtzu0fCXnowQD8HKbpgPv
bYrCkHJ+qPwbMVnprV7x1H9K/ZCEhksXq/ficla3pjADzzLrCqkvZb8ztT5YwoMK
EI67PpjdIh8FQF+ve129pe3Z0ohZou4GIwBiUd2wZE6HTwcorHqY8seI06vlUG+Y
3fMBuiMyu7hUJAOt2fKKYlBTIvYq7YcOH/QZCypysdaCsLKTpNzMfaSI6+/x+t9s
oj8ZbW6vUUt682fdQai8RLIi9Xv+idAgVCbWBPOiAz5RfWaop2Vk+D+OzGwlX58n
PndHz8VCCW04o13oHiWIYcYEZahUMJuf1LJiKIR3AGY+BG1vCXSJSF0rUmeHHY8+
WtNBBuf/67+3wtsr60nU4VH87YTrEJLiXfYGgVE+MqEf7IBqPehUOHGsT8NiDuSw
cuek2lZ6CF7dp3wfwgRH+KAKiSJE6l4vM/JoTAokRGs1QvuRjmjot8S9f1UQl2rZ
UJoSOPDeoJ6EH8FnjgQ5/aGvVutf2d9/p3Z9/n3DM12bsH7dmPuEEh4tYidbjpS3
nsZdFeXkrf7Z+UEZzsE0svzC/1BIwPOrIdGyOQaLIiFYk5sTnFmHDLuYHIJO5PxY
uusppQIDAQABo4IBazCCAWcwCQYDVR0TBAIwADAtBglghkgBhvhCAQ0EIBYeRWFz
eS1SU0EgR2VuZXJhdGVkIENlcnRpZmljYXRlMB0GA1UdDgQWBBSXEeLBJa/3tx5l
XAmTjnATJULMAzCB6QYDVR0jBIHhMIHegBTvOI0UUFinW02cF3L837msp1GwEKGB
uqSBtzCBtDELMAkGA1UEBhMCVVMxCzAJBgNVBAgTAkNBMRUwEwYDVQQHEwxTYW5G
cmFuY2lzY28xFTATBgNVBAoTDFBpeGdsbywgSW5jLjEQMA4GA1UECxMHVlBOLUNJ
RTEaMBgGA1UEAxMRdHVubmVsLnBpeGdsby5jb20xHDAaBgNVBCkTE0JhbGEgQ2hh
bmRyYXNla2FyYW4xHjAcBgkqhkiG9w0BCQEWD2JhbGFAcGl4Z2xvLmNvbYIJAKbb
xoOA5qB5MBMGA1UdJQQMMAoGCCsGAQUFBwMCMAsGA1UdDwQEAwIHgDANBgkqhkiG
9w0BAQUFAAOCAgEAsuO3lPQTT2SGKyNlloty7k/4onaySWQoBZQNPRgLLbf7wGXj
xqIkuTM1w0VTor5zzyND3qIkV39vjyivBNEk1RlYqcglWnpnkgC/2MpJqmEeFPzi
UdsVVtMwkdLR2nmh1kd2lVMzNHbDTzHvzHvZyEI8s4wb+zf9TnQu1PhN6OFX6wEh
ICRVspG3XKkfhPCzuzfWgmxV3DmqLh8iR8pnIZ9YbZos37qxdTz2gLKpyWEpPSig
XBOpNyIgzTgeW4xsEpvNGvptDUWhr/mO9M2t6yBbHzxoRwrLYt2EC+iHI93JXIp4
9VNME+GIP/3vu5aiWJ3XiZNqUYhjBWpUf7yGQRTOBXg2gjYpWKSWEnrGFK1LWbzb
t5gBunu3WLlUQbSN1BOZdRYD0vnpIOG6S+DcL72ElFSuS1zqI0pM6NnYeI8gxFIJ
OMP9RYQrlEAJIvTIbbWTOlkv25yCTOhbLau5oqjmj41sHCEAbGc+D4HPzzfORT2m
gTxMyI1CL9RX7J49lmQ664QFBUJ8UGIaENjJAs0ajCXqBvxQezN0LGFCXg7xZpc+
rDv49XTXP+aLTvU6BE5c9fer4H4B9RcPnxsiCmWTsZuiVNLriRnbU92M7P0eFK6q
Vyo9OA3oZCOH4F0+gspbNU/AYwvKEMWWOzWumCsG7uSO4sG8jJxz5Yvq1nM=
-----END CERTIFICATE-----
