Certificate:
    Data:
        Version: 3 (0x2)
        Serial Number: 801 (0x321)
    Signature Algorithm: sha1WithRSAEncryption
        Issuer: C=US, ST=CA, L=SanFrancisco, O=Pixglo, Inc., OU=VPN-CIE, CN=tunnel.pixglo.com/name=Bala Chandrasekaran/emailAddress=bala@pixglo.com
        Validity
            Not Before: Feb 14 06:43:56 2018 GMT
            Not After : Feb 12 06:43:56 2028 GMT
        Subject: C=US, ST=CA, L=SanFrancisco, O=Pixglo, Inc., OU=VPN-CIE, CN=cie800/name=Bala Chandrasekaran/emailAddress=bala@pixglo.com
        Subject Public Key Info:
            Public Key Algorithm: rsaEncryption
                Public-Key: (4096 bit)
                Modulus:
                    00:a9:aa:6c:08:d7:ce:3d:73:76:97:da:e5:fa:eb:
                    39:13:21:40:fc:46:93:e5:22:50:64:d6:5f:c5:88:
                    41:f1:a8:fb:45:0e:0b:96:82:5c:7d:fe:11:a0:76:
                    eb:2d:9b:36:3c:20:e3:b8:52:86:54:2c:e8:5d:a1:
                    e3:98:40:f0:b8:fc:e6:9d:dc:6d:04:18:56:d7:5a:
                    90:20:b6:61:31:e7:22:b1:25:1e:61:aa:cf:26:83:
                    4e:63:6b:5f:d5:0f:0a:69:7e:81:72:53:04:c8:20:
                    2c:30:c4:95:c0:3e:08:6c:1d:63:d2:08:61:3a:1d:
                    3b:a3:97:2a:de:50:b7:e4:e2:99:a1:db:e3:51:9f:
                    54:0a:47:a1:3e:98:5d:74:31:27:3b:37:d3:b4:0e:
                    49:3d:33:05:57:99:6e:f9:28:8d:93:9f:9f:3d:56:
                    65:4b:c1:0b:f2:fd:a0:05:ac:82:c3:84:13:5c:82:
                    2e:08:c0:e7:58:ce:d8:6e:87:73:59:c9:a1:82:85:
                    12:83:54:d5:c8:dd:25:07:fd:1a:56:da:1e:8b:14:
                    e2:0c:6a:52:77:81:af:24:4c:20:cf:67:72:f7:67:
                    68:aa:c6:09:74:fe:91:e5:46:b0:df:84:f1:d3:2d:
                    b6:32:85:81:62:21:85:83:f5:d6:33:e7:a9:90:22:
                    91:5a:6a:ce:e7:86:dd:c2:79:c3:db:c7:96:a6:6a:
                    0f:c9:b3:63:4b:5e:94:9f:a2:c4:e6:ea:34:59:c9:
                    60:48:eb:8d:58:e6:7b:8c:40:c8:6e:47:3f:30:73:
                    38:70:ec:f5:8d:2f:39:fd:ff:e0:5a:0e:02:0f:8b:
                    b2:59:d8:e4:3e:ac:e4:b8:f2:06:80:01:6f:26:ca:
                    4d:9b:2e:52:40:cc:c2:84:66:f4:e4:3a:5a:4b:4c:
                    a0:12:62:7a:0e:b7:fc:87:f9:b8:cb:76:af:28:5f:
                    5b:9f:68:75:ae:d5:a8:de:cb:8e:fc:fb:b4:aa:ae:
                    f7:54:c6:16:72:e0:c3:35:be:1a:41:56:f0:93:65:
                    10:ba:32:32:52:15:9a:02:55:e5:9a:03:c8:88:a4:
                    08:63:d7:5c:1c:2f:cb:7c:45:56:13:22:01:c1:33:
                    0e:f5:37:71:cb:f6:e6:9a:ac:61:2a:f1:65:ae:29:
                    91:37:3b:69:13:6a:ae:b5:82:9a:91:fc:57:41:49:
                    f7:1d:e5:ee:ca:43:77:63:b3:58:07:32:0e:ee:65:
                    28:f0:5c:67:ab:07:52:63:7d:96:37:fe:a1:94:37:
                    d0:b0:3f:f2:56:ea:ea:26:6e:d1:c0:64:0f:83:2b:
                    55:1f:ef:00:3c:6d:58:e5:9e:f4:b3:4c:b7:11:20:
                    1d:2f:79
                Exponent: 65537 (0x10001)
        X509v3 extensions:
            X509v3 Basic Constraints: 
                CA:FALSE
            Netscape Comment: 
                Easy-RSA Generated Certificate
            X509v3 Subject Key Identifier: 
                BA:BF:E9:4A:BD:8A:DB:54:2D:93:FF:70:7B:44:D6:B0:AD:9E:BB:70
            X509v3 Authority Key Identifier: 
                keyid:EF:38:8D:14:50:58:A7:5B:4D:9C:17:72:FC:DF:B9:AC:A7:51:B0:10
                DirName:/C=US/ST=CA/L=SanFrancisco/O=Pixglo, Inc./OU=VPN-CIE/CN=tunnel.pixglo.com/name=Bala Chandrasekaran/emailAddress=bala@pixglo.com
                serial:A6:DB:C6:83:80:E6:A0:79

            X509v3 Extended Key Usage: 
                TLS Web Client Authentication
            X509v3 Key Usage: 
                Digital Signature
    Signature Algorithm: sha1WithRSAEncryption
         49:80:03:96:9f:de:e9:df:eb:38:83:a4:3f:63:ff:02:e7:21:
         df:c3:6c:65:e7:e5:ad:18:ca:bd:a5:e7:0f:2c:ff:25:ad:74:
         b4:da:37:cb:11:9c:90:ff:18:ea:ac:41:6c:b4:6c:8e:da:9d:
         57:88:82:d8:70:67:11:09:e9:27:2c:db:07:fe:0f:2c:ac:d4:
         80:6d:2b:f4:8e:9c:ee:c8:e2:5c:01:24:03:64:c5:f7:38:3b:
         9b:84:c3:31:6d:19:ff:9b:2f:99:ca:3e:03:4c:33:c5:2f:02:
         d8:2f:30:7d:b4:9e:ed:56:ab:58:df:1b:39:d1:9b:9a:0f:14:
         a2:04:1d:11:57:fb:56:7a:49:67:ed:98:89:cb:f6:8b:d0:5d:
         90:b1:2f:64:bc:94:a2:4e:95:dd:29:5a:ab:55:a2:c7:c1:ce:
         06:ba:87:7e:48:fa:ce:0c:7b:47:f2:f5:5d:42:9e:af:f3:06:
         82:ec:50:c4:65:28:28:34:c2:fb:7f:ad:30:76:1b:ea:24:af:
         6b:ac:d9:46:84:ce:4e:5d:8d:b9:3d:20:db:c5:0c:d3:53:04:
         58:cf:83:cc:67:90:a0:93:25:4c:32:22:f9:d5:b5:56:a8:7a:
         a0:19:3a:b0:8b:7c:0b:f3:97:62:08:9a:c2:db:37:96:d0:11:
         61:42:a4:c5:58:95:ea:19:de:ff:6c:b4:fb:a9:a0:6f:8d:ee:
         1e:05:c6:fd:e5:fc:b5:c9:29:eb:6c:0f:30:34:36:60:fe:43:
         f0:48:2d:a3:a4:ae:2a:e4:1e:49:78:bb:3c:14:fc:1d:82:3b:
         b7:d7:ba:df:b8:b4:7d:41:32:c2:b4:d9:4f:85:77:1e:07:64:
         0f:1d:2f:94:91:88:95:2c:27:65:bb:5f:70:7b:44:e9:6f:57:
         c0:bb:5d:80:b0:bc:80:e5:24:6b:b8:50:0e:1b:b6:79:32:21:
         86:f5:09:3b:a0:f3:b7:ed:a1:bd:88:dc:6d:8a:11:89:8a:be:
         cd:ca:a9:54:30:87:ea:e3:f9:e5:ed:c3:46:aa:71:3c:ed:a8:
         3a:80:b6:bf:53:62:b0:3c:c2:4d:5b:c0:72:6f:9a:02:99:a6:
         21:34:94:7b:a7:38:bf:f0:60:61:39:b5:f5:93:d4:78:d1:cb:
         c5:b3:f1:75:63:6e:d8:f7:7a:52:f7:88:75:0f:a2:e1:a1:83:
         58:4a:09:71:7b:69:3f:d4:b8:b8:11:5f:df:3f:64:63:ae:35:
         61:99:9c:5b:db:9b:64:1a:9f:5f:0d:17:43:46:ce:cb:dc:6c:
         e9:54:ef:e1:ca:61:5e:86:79:04:f1:d0:f2:aa:59:56:02:46:
         c1:c4:59:b2:ff:94:27:7b
-----BEGIN CERTIFICATE-----
MIIHSDCCBTCgAwIBAgICAyEwDQYJKoZIhvcNAQEFBQAwgbQxCzAJBgNVBAYTAlVT
MQswCQYDVQQIEwJDQTEVMBMGA1UEBxMMU2FuRnJhbmNpc2NvMRUwEwYDVQQKEwxQ
aXhnbG8sIEluYy4xEDAOBgNVBAsTB1ZQTi1DSUUxGjAYBgNVBAMTEXR1bm5lbC5w
aXhnbG8uY29tMRwwGgYDVQQpExNCYWxhIENoYW5kcmFzZWthcmFuMR4wHAYJKoZI
hvcNAQkBFg9iYWxhQHBpeGdsby5jb20wHhcNMTgwMjE0MDY0MzU2WhcNMjgwMjEy
MDY0MzU2WjCBqTELMAkGA1UEBhMCVVMxCzAJBgNVBAgTAkNBMRUwEwYDVQQHEwxT
YW5GcmFuY2lzY28xFTATBgNVBAoTDFBpeGdsbywgSW5jLjEQMA4GA1UECxMHVlBO
LUNJRTEPMA0GA1UEAxMGY2llODAwMRwwGgYDVQQpExNCYWxhIENoYW5kcmFzZWth
cmFuMR4wHAYJKoZIhvcNAQkBFg9iYWxhQHBpeGdsby5jb20wggIiMA0GCSqGSIb3
DQEBAQUAA4ICDwAwggIKAoICAQCpqmwI1849c3aX2uX66zkTIUD8RpPlIlBk1l/F
iEHxqPtFDguWglx9/hGgdustmzY8IOO4UoZULOhdoeOYQPC4/Oad3G0EGFbXWpAg
tmEx5yKxJR5hqs8mg05ja1/VDwppfoFyUwTIICwwxJXAPghsHWPSCGE6HTujlyre
ULfk4pmh2+NRn1QKR6E+mF10MSc7N9O0Dkk9MwVXmW75KI2Tn589VmVLwQvy/aAF
rILDhBNcgi4IwOdYzthuh3NZyaGChRKDVNXI3SUH/RpW2h6LFOIMalJ3ga8kTCDP
Z3L3Z2iqxgl0/pHlRrDfhPHTLbYyhYFiIYWD9dYz56mQIpFaas7nht3CecPbx5am
ag/Js2NLXpSfosTm6jRZyWBI641Y5nuMQMhuRz8wczhw7PWNLzn9/+BaDgIPi7JZ
2OQ+rOS48gaAAW8myk2bLlJAzMKEZvTkOlpLTKASYnoOt/yH+bjLdq8oX1ufaHWu
1ajey478+7SqrvdUxhZy4MM1vhpBVvCTZRC6MjJSFZoCVeWaA8iIpAhj11wcL8t8
RVYTIgHBMw71N3HL9uaarGEq8WWuKZE3O2kTaq61gpqR/FdBSfcd5e7KQ3djs1gH
Mg7uZSjwXGerB1JjfZY3/qGUN9CwP/JW6uombtHAZA+DK1Uf7wA8bVjlnvSzTLcR
IB0veQIDAQABo4IBazCCAWcwCQYDVR0TBAIwADAtBglghkgBhvhCAQ0EIBYeRWFz
eS1SU0EgR2VuZXJhdGVkIENlcnRpZmljYXRlMB0GA1UdDgQWBBS6v+lKvYrbVC2T
/3B7RNawrZ67cDCB6QYDVR0jBIHhMIHegBTvOI0UUFinW02cF3L837msp1GwEKGB
uqSBtzCBtDELMAkGA1UEBhMCVVMxCzAJBgNVBAgTAkNBMRUwEwYDVQQHEwxTYW5G
cmFuY2lzY28xFTATBgNVBAoTDFBpeGdsbywgSW5jLjEQMA4GA1UECxMHVlBOLUNJ
RTEaMBgGA1UEAxMRdHVubmVsLnBpeGdsby5jb20xHDAaBgNVBCkTE0JhbGEgQ2hh
bmRyYXNla2FyYW4xHjAcBgkqhkiG9w0BCQEWD2JhbGFAcGl4Z2xvLmNvbYIJAKbb
xoOA5qB5MBMGA1UdJQQMMAoGCCsGAQUFBwMCMAsGA1UdDwQEAwIHgDANBgkqhkiG
9w0BAQUFAAOCAgEASYADlp/e6d/rOIOkP2P/Auch38NsZeflrRjKvaXnDyz/Ja10
tNo3yxGckP8Y6qxBbLRsjtqdV4iC2HBnEQnpJyzbB/4PLKzUgG0r9I6c7sjiXAEk
A2TF9zg7m4TDMW0Z/5svmco+A0wzxS8C2C8wfbSe7VarWN8bOdGbmg8UogQdEVf7
VnpJZ+2Yicv2i9BdkLEvZLyUok6V3Slaq1Wix8HOBrqHfkj6zgx7R/L1XUKer/MG
guxQxGUoKDTC+3+tMHYb6iSva6zZRoTOTl2NuT0g28UM01MEWM+DzGeQoJMlTDIi
+dW1Vqh6oBk6sIt8C/OXYgiawts3ltARYUKkxViV6hne/2y0+6mgb43uHgXG/eX8
tckp62wPMDQ2YP5D8Egto6SuKuQeSXi7PBT8HYI7t9e637i0fUEywrTZT4V3Hgdk
Dx0vlJGIlSwnZbtfcHtE6W9XwLtdgLC8gOUka7hQDhu2eTIhhvUJO6Dzt+2hvYjc
bYoRiYq+zcqpVDCH6uP55e3DRqpxPO2oOoC2v1NisDzCTVvAcm+aApmmITSUe6c4
v/BgYTm19ZPUeNHLxbPxdWNu2Pd6UveIdQ+i4aGDWEoJcXtpP9S4uBFf3z9kY641
YZmcW9ubZBqfXw0XQ0bOy9xs6VTv4cphXoZ5BPHQ8qpZVgJGwcRZsv+UJ3s=
-----END CERTIFICATE-----
