Certificate:
    Data:
        Version: 3 (0x2)
        Serial Number: 802 (0x322)
    Signature Algorithm: sha1WithRSAEncryption
        Issuer: C=US, ST=CA, L=SanFrancisco, O=Pixglo, Inc., OU=VPN-CIE, CN=tunnel.pixglo.com/name=Bala Chandrasekaran/emailAddress=bala@pixglo.com
        Validity
            Not Before: Feb 14 06:43:58 2018 GMT
            Not After : Feb 12 06:43:58 2028 GMT
        Subject: C=US, ST=CA, L=SanFrancisco, O=Pixglo, Inc., OU=VPN-CIE, CN=cie801/name=Bala Chandrasekaran/emailAddress=bala@pixglo.com
        Subject Public Key Info:
            Public Key Algorithm: rsaEncryption
                Public-Key: (4096 bit)
                Modulus:
                    00:a0:d0:22:67:f4:b9:65:a0:70:34:3a:1a:9a:bf:
                    9e:98:89:b8:fb:b6:d8:67:8b:d8:f3:30:71:00:41:
                    66:af:6d:19:56:5d:4e:2d:cb:a6:65:94:df:46:b3:
                    b1:fb:4e:eb:0e:38:06:a0:03:30:ec:20:93:ee:27:
                    c2:40:24:63:f7:ab:2e:d9:21:17:69:9b:9a:a9:02:
                    2b:56:42:1c:d7:ca:57:41:d6:4b:4f:bd:39:91:d1:
                    7b:24:d6:a9:f1:22:2c:b1:54:f6:d4:1c:77:2d:08:
                    52:f9:3f:18:35:df:a7:38:eb:f8:da:96:05:0b:85:
                    6a:62:9c:25:9b:d9:62:1b:21:ca:19:65:14:21:b7:
                    7f:6c:bc:de:ba:86:cf:2a:0d:ad:0d:0b:dd:b9:31:
                    4a:41:8a:91:61:7a:6f:c6:56:18:e7:6c:40:c6:ee:
                    c9:25:f1:bb:d3:02:5a:59:6d:49:a7:88:0d:e0:04:
                    76:7f:60:07:61:e5:22:55:8b:33:c9:bf:8d:c1:d5:
                    52:6d:0e:16:5c:c8:7e:0f:49:e5:a2:54:0a:3a:5f:
                    f7:1d:4d:c7:6a:e4:3f:83:f3:9f:5e:0c:49:1b:d2:
                    2e:d0:c2:60:23:93:9c:9d:b6:1a:0d:d2:b7:74:69:
                    4b:a9:e7:0d:3f:13:0c:47:5d:8e:86:d7:8a:07:c0:
                    e7:a5:13:46:62:cf:13:59:63:de:87:f4:1d:be:05:
                    f2:11:34:59:d6:06:b2:4b:21:b8:49:8e:b0:d0:eb:
                    c8:8c:01:56:71:e1:eb:83:4b:60:9b:6c:cb:86:35:
                    c2:df:21:8b:44:ec:ad:9c:de:c3:a2:7d:a7:4b:4b:
                    2c:9e:86:89:79:09:47:4e:63:38:4e:a6:63:d8:df:
                    cc:f7:c2:25:1b:a9:75:07:4e:d4:8b:92:4e:b8:00:
                    f8:27:54:c8:5c:24:ec:7d:df:bc:2e:82:c9:0c:ce:
                    45:31:27:ca:54:8d:47:06:96:1c:4c:bc:ad:97:2a:
                    2e:2a:ad:60:2e:5b:06:12:66:46:39:f8:72:f4:83:
                    7d:b6:1f:18:6f:fc:17:be:f5:0d:d3:7f:1d:35:97:
                    ed:71:51:73:44:a7:42:ad:12:95:d8:b7:f7:b3:56:
                    27:29:36:53:09:e9:e9:06:24:a8:00:03:49:ac:bd:
                    3f:cf:54:1f:2d:28:cd:c3:45:3f:06:71:dc:3a:76:
                    d7:2f:01:d8:e6:f6:8e:7d:d0:94:fb:8f:00:d1:80:
                    8e:c4:ae:b9:f5:1d:80:4b:ec:a2:b7:51:0d:f9:67:
                    eb:9c:89:f3:56:54:58:96:aa:03:fa:df:35:89:41:
                    c7:ac:15:60:74:1d:28:89:f1:45:9a:e7:bd:0e:93:
                    70:66:19
                Exponent: 65537 (0x10001)
        X509v3 extensions:
            X509v3 Basic Constraints: 
                CA:FALSE
            Netscape Comment: 
                Easy-RSA Generated Certificate
            X509v3 Subject Key Identifier: 
                C7:FB:DE:A7:E7:3F:2E:D4:F0:46:6E:BE:86:37:D1:7D:E8:44:B0:F1
            X509v3 Authority Key Identifier: 
                keyid:EF:38:8D:14:50:58:A7:5B:4D:9C:17:72:FC:DF:B9:AC:A7:51:B0:10
                DirName:/C=US/ST=CA/L=SanFrancisco/O=Pixglo, Inc./OU=VPN-CIE/CN=tunnel.pixglo.com/name=Bala Chandrasekaran/emailAddress=bala@pixglo.com
                serial:A6:DB:C6:83:80:E6:A0:79

            X509v3 Extended Key Usage: 
                TLS Web Client Authentication
            X509v3 Key Usage: 
                Digital Signature
    Signature Algorithm: sha1WithRSAEncryption
         14:3a:8a:fc:f4:fe:c3:15:e2:11:6a:56:f4:f0:c5:de:03:5e:
         05:93:e0:53:80:bc:1a:84:8d:23:05:b4:1d:78:cc:1f:8e:e3:
         a5:b0:5c:9b:53:dd:54:7a:dc:72:09:23:a5:bc:79:61:63:24:
         4c:45:e6:d1:9d:ac:db:84:11:83:9d:0a:c6:34:ad:eb:33:96:
         19:9c:10:6d:76:48:a0:78:0c:84:4a:b7:09:13:38:c3:7a:d3:
         9b:ce:0d:98:84:49:35:e5:d6:f5:43:2e:aa:de:9e:82:cf:4d:
         4e:0b:a4:96:db:df:96:86:15:92:7d:b4:68:be:08:31:64:8f:
         62:8b:a9:20:11:f9:00:b0:3d:4b:46:3c:8d:b2:2a:ef:68:4b:
         b6:81:4c:47:88:a4:10:ec:8b:e3:00:86:84:4f:ad:0a:5b:6c:
         52:46:72:2e:d9:b6:90:b9:05:ef:24:01:9b:7a:00:43:6c:4c:
         68:93:85:d1:65:5b:18:2a:9f:b6:5f:85:43:f1:ba:5d:f3:69:
         42:95:05:73:d2:47:08:38:92:a3:fe:55:81:29:08:f3:31:f8:
         ee:22:25:c6:f9:6f:c6:33:ee:a8:bc:d0:22:95:94:8b:1e:74:
         e8:79:a9:4a:a1:c5:d7:3f:1b:c2:c2:01:65:d4:cd:10:9a:67:
         87:a8:01:e2:81:f1:aa:c8:46:f0:17:09:07:dc:a0:4b:fe:27:
         20:9b:e4:43:04:40:b5:4e:89:0d:31:ce:f0:25:0c:3a:e8:a0:
         c2:23:b2:0f:70:b3:4b:6d:24:50:b5:6b:90:82:b6:d1:df:05:
         f5:da:c6:77:9e:bc:22:70:56:35:4c:7a:95:61:dd:2a:d0:4a:
         13:0e:66:69:63:fe:31:8a:d1:fa:16:f2:c0:7b:98:2b:6d:79:
         c3:6a:73:a2:17:2a:2e:28:42:d6:56:94:81:fd:69:a0:68:44:
         27:25:4d:2c:0e:4c:b1:c6:75:e8:97:a3:cd:d9:7b:20:7b:03:
         29:e8:5f:f9:ac:c3:3d:cc:05:85:ad:a3:cc:32:62:0b:b2:79:
         dc:2e:f7:df:f0:5b:01:27:bf:a8:63:40:05:f0:e8:c9:34:d7:
         a0:b9:3b:a3:e6:cd:3e:72:3d:dc:e9:81:0c:25:d8:39:47:a0:
         6d:56:00:86:96:e0:c0:7c:79:09:ef:0f:7b:fc:19:b0:5d:c3:
         f1:90:9f:d6:4c:18:02:42:bc:ef:a2:33:c5:b8:e2:d3:6d:47:
         0e:0a:9e:95:10:27:bc:f5:b4:f2:95:2b:ed:97:73:e6:64:90:
         e2:d3:9b:55:f1:0c:10:f7:eb:45:5c:30:04:e9:ff:14:e6:56:
         53:43:ac:dc:3a:d6:ee:fb
-----BEGIN CERTIFICATE-----
MIIHSDCCBTCgAwIBAgICAyIwDQYJKoZIhvcNAQEFBQAwgbQxCzAJBgNVBAYTAlVT
MQswCQYDVQQIEwJDQTEVMBMGA1UEBxMMU2FuRnJhbmNpc2NvMRUwEwYDVQQKEwxQ
aXhnbG8sIEluYy4xEDAOBgNVBAsTB1ZQTi1DSUUxGjAYBgNVBAMTEXR1bm5lbC5w
aXhnbG8uY29tMRwwGgYDVQQpExNCYWxhIENoYW5kcmFzZWthcmFuMR4wHAYJKoZI
hvcNAQkBFg9iYWxhQHBpeGdsby5jb20wHhcNMTgwMjE0MDY0MzU4WhcNMjgwMjEy
MDY0MzU4WjCBqTELMAkGA1UEBhMCVVMxCzAJBgNVBAgTAkNBMRUwEwYDVQQHEwxT
YW5GcmFuY2lzY28xFTATBgNVBAoTDFBpeGdsbywgSW5jLjEQMA4GA1UECxMHVlBO
LUNJRTEPMA0GA1UEAxMGY2llODAxMRwwGgYDVQQpExNCYWxhIENoYW5kcmFzZWth
cmFuMR4wHAYJKoZIhvcNAQkBFg9iYWxhQHBpeGdsby5jb20wggIiMA0GCSqGSIb3
DQEBAQUAA4ICDwAwggIKAoICAQCg0CJn9LlloHA0Ohqav56Yibj7tthni9jzMHEA
QWavbRlWXU4ty6ZllN9Gs7H7TusOOAagAzDsIJPuJ8JAJGP3qy7ZIRdpm5qpAitW
QhzXyldB1ktPvTmR0Xsk1qnxIiyxVPbUHHctCFL5Pxg136c46/jalgULhWpinCWb
2WIbIcoZZRQht39svN66hs8qDa0NC925MUpBipFhem/GVhjnbEDG7skl8bvTAlpZ
bUmniA3gBHZ/YAdh5SJVizPJv43B1VJtDhZcyH4PSeWiVAo6X/cdTcdq5D+D859e
DEkb0i7QwmAjk5ydthoN0rd0aUup5w0/EwxHXY6G14oHwOelE0ZizxNZY96H9B2+
BfIRNFnWBrJLIbhJjrDQ68iMAVZx4euDS2CbbMuGNcLfIYtE7K2c3sOifadLSyye
hol5CUdOYzhOpmPY38z3wiUbqXUHTtSLkk64APgnVMhcJOx937wugskMzkUxJ8pU
jUcGlhxMvK2XKi4qrWAuWwYSZkY5+HL0g322Hxhv/Be+9Q3Tfx01l+1xUXNEp0Kt
EpXYt/ezVicpNlMJ6ekGJKgAA0msvT/PVB8tKM3DRT8Gcdw6dtcvAdjm9o590JT7
jwDRgI7Errn1HYBL7KK3UQ35Z+ucifNWVFiWqgP63zWJQcesFWB0HSiJ8UWa570O
k3BmGQIDAQABo4IBazCCAWcwCQYDVR0TBAIwADAtBglghkgBhvhCAQ0EIBYeRWFz
eS1SU0EgR2VuZXJhdGVkIENlcnRpZmljYXRlMB0GA1UdDgQWBBTH+96n5z8u1PBG
br6GN9F96ESw8TCB6QYDVR0jBIHhMIHegBTvOI0UUFinW02cF3L837msp1GwEKGB
uqSBtzCBtDELMAkGA1UEBhMCVVMxCzAJBgNVBAgTAkNBMRUwEwYDVQQHEwxTYW5G
cmFuY2lzY28xFTATBgNVBAoTDFBpeGdsbywgSW5jLjEQMA4GA1UECxMHVlBOLUNJ
RTEaMBgGA1UEAxMRdHVubmVsLnBpeGdsby5jb20xHDAaBgNVBCkTE0JhbGEgQ2hh
bmRyYXNla2FyYW4xHjAcBgkqhkiG9w0BCQEWD2JhbGFAcGl4Z2xvLmNvbYIJAKbb
xoOA5qB5MBMGA1UdJQQMMAoGCCsGAQUFBwMCMAsGA1UdDwQEAwIHgDANBgkqhkiG
9w0BAQUFAAOCAgEAFDqK/PT+wxXiEWpW9PDF3gNeBZPgU4C8GoSNIwW0HXjMH47j
pbBcm1PdVHrccgkjpbx5YWMkTEXm0Z2s24QRg50KxjSt6zOWGZwQbXZIoHgMhEq3
CRM4w3rTm84NmIRJNeXW9UMuqt6egs9NTgukltvfloYVkn20aL4IMWSPYoupIBH5
ALA9S0Y8jbIq72hLtoFMR4ikEOyL4wCGhE+tCltsUkZyLtm2kLkF7yQBm3oAQ2xM
aJOF0WVbGCqftl+FQ/G6XfNpQpUFc9JHCDiSo/5VgSkI8zH47iIlxvlvxjPuqLzQ
IpWUix506HmpSqHF1z8bwsIBZdTNEJpnh6gB4oHxqshG8BcJB9ygS/4nIJvkQwRA
tU6JDTHO8CUMOuigwiOyD3CzS20kULVrkIK20d8F9drGd568InBWNUx6lWHdKtBK
Ew5maWP+MYrR+hbywHuYK215w2pzohcqLihC1laUgf1poGhEJyVNLA5MscZ16Jej
zdl7IHsDKehf+azDPcwFha2jzDJiC7J53C733/BbASe/qGNABfDoyTTXoLk7o+bN
PnI93OmBDCXYOUegbVYAhpbgwHx5Ce8Pe/wZsF3D8ZCf1kwYAkK876Izxbji021H
DgqelRAnvPW08pUr7Zdz5mSQ4tObVfEMEPfrRVwwBOn/FOZWU0Os3DrW7vs=
-----END CERTIFICATE-----
