Certificate:
    Data:
        Version: 3 (0x2)
        Serial Number: 803 (0x323)
    Signature Algorithm: sha1WithRSAEncryption
        Issuer: C=US, ST=CA, L=SanFrancisco, O=Pixglo, Inc., OU=VPN-CIE, CN=tunnel.pixglo.com/name=Bala Chandrasekaran/emailAddress=bala@pixglo.com
        Validity
            Not Before: Feb 14 06:44:01 2018 GMT
            Not After : Feb 12 06:44:01 2028 GMT
        Subject: C=US, ST=CA, L=SanFrancisco, O=Pixglo, Inc., OU=VPN-CIE, CN=cie802/name=Bala Chandrasekaran/emailAddress=bala@pixglo.com
        Subject Public Key Info:
            Public Key Algorithm: rsaEncryption
                Public-Key: (4096 bit)
                Modulus:
                    00:d8:3c:37:f8:d1:75:d8:eb:bb:e8:94:63:7f:56:
                    57:9f:e6:92:69:f0:4e:47:25:56:1a:04:45:d5:d2:
                    55:06:2d:78:f0:12:7e:30:f8:cd:b5:38:e5:9a:46:
                    00:9a:bc:29:30:ef:11:7d:b9:ba:f1:e7:1a:42:ff:
                    76:af:7e:3d:9e:77:ec:cf:19:fa:13:5e:e0:c0:e2:
                    91:cd:b1:6b:38:61:f4:1c:3a:06:dd:88:65:2d:92:
                    09:09:cd:99:dc:e7:66:bc:01:98:26:50:1a:9f:5c:
                    b3:d3:91:31:e5:7b:83:99:76:ca:8a:2c:71:b2:46:
                    11:d6:ef:ff:50:b7:5d:7e:58:24:18:c8:24:ea:e1:
                    54:f0:62:a6:9e:03:fa:41:c6:01:0a:2e:e0:2f:b7:
                    44:ae:87:81:3d:ab:b9:32:73:57:c2:8f:11:cc:bf:
                    f8:d6:f8:68:5c:7c:35:c5:84:01:16:91:59:ed:06:
                    9a:4b:74:14:d4:1b:e4:92:e7:dd:df:64:58:45:b9:
                    ff:d4:3e:2e:c5:b9:e9:89:7e:20:62:04:a4:df:e5:
                    6a:18:72:ee:5e:5c:2b:e9:50:c4:7c:a1:92:44:2b:
                    0f:ca:b0:94:35:97:ba:18:0f:05:6f:a6:69:a2:76:
                    5e:0b:87:74:8f:6a:14:3c:aa:ca:0a:a7:5f:6f:ad:
                    d6:e1:35:84:5a:68:18:b0:81:da:bd:06:d2:8d:95:
                    cf:37:8e:f8:b5:27:d9:d8:1d:2e:d9:0b:b5:78:ba:
                    32:f0:a7:26:ed:6c:bc:92:fc:b1:a6:e0:ab:6a:a2:
                    52:55:fc:e8:19:7a:6e:7f:67:86:73:89:0f:db:9c:
                    35:d1:68:ca:a5:8d:e0:43:22:2c:02:9c:59:f5:c3:
                    19:32:c4:e9:3a:e4:95:49:2b:86:0c:13:73:7d:20:
                    c2:fe:b0:d7:55:7d:29:25:ed:5c:22:3a:10:ee:ad:
                    9a:39:6e:1f:da:b2:6e:4f:c2:da:47:2d:9c:57:3b:
                    98:a7:e7:27:b0:08:ff:1a:cd:35:73:ab:db:91:31:
                    16:83:51:55:04:53:2b:ca:e6:54:74:a9:66:4f:70:
                    f3:54:e3:e8:c1:6a:f1:d7:54:a9:73:22:c0:40:e2:
                    fc:8d:66:01:77:a6:07:f4:35:99:73:1b:c9:7e:91:
                    6f:46:f1:22:a4:33:dd:99:f8:37:0d:c0:af:02:ab:
                    1d:b2:c3:c6:69:f3:95:dc:f4:5b:4f:61:5e:76:79:
                    c1:73:e3:dc:fc:a0:31:4d:a5:fb:ce:c5:45:82:2e:
                    28:68:c3:af:1a:af:58:d5:87:b1:25:bc:ba:01:16:
                    86:4a:47:75:14:8e:a0:cd:c2:d2:5a:fe:f5:d9:56:
                    35:5d:dd
                Exponent: 65537 (0x10001)
        X509v3 extensions:
            X509v3 Basic Constraints: 
                CA:FALSE
            Netscape Comment: 
                Easy-RSA Generated Certificate
            X509v3 Subject Key Identifier: 
                7D:56:CA:29:1B:C1:6C:AF:CD:D5:95:E2:6D:9A:01:9B:90:F4:93:5C
            X509v3 Authority Key Identifier: 
                keyid:EF:38:8D:14:50:58:A7:5B:4D:9C:17:72:FC:DF:B9:AC:A7:51:B0:10
                DirName:/C=US/ST=CA/L=SanFrancisco/O=Pixglo, Inc./OU=VPN-CIE/CN=tunnel.pixglo.com/name=Bala Chandrasekaran/emailAddress=bala@pixglo.com
                serial:A6:DB:C6:83:80:E6:A0:79

            X509v3 Extended Key Usage: 
                TLS Web Client Authentication
            X509v3 Key Usage: 
                Digital Signature
    Signature Algorithm: sha1WithRSAEncryption
         c6:e7:8a:41:91:4e:08:3c:50:c2:37:75:c2:98:43:fa:17:fc:
         68:0c:13:a2:87:58:81:f2:d5:ae:d6:bf:10:75:66:10:53:02:
         60:ec:a9:8f:a8:ae:e7:c5:9d:32:49:2f:29:96:2e:ba:36:4c:
         96:d3:0c:6e:b3:52:b3:4a:c7:ac:02:60:4e:a4:d0:59:56:46:
         33:59:8a:25:6b:23:a7:58:c2:7b:83:ad:ba:ba:cb:be:92:81:
         f4:d9:8c:06:55:c4:f9:81:a1:88:2f:10:f6:ce:0d:b7:f6:67:
         96:6b:fd:5e:59:c6:06:f8:72:84:b8:57:25:7c:93:16:f4:56:
         e5:0f:87:d8:d6:f6:6c:51:88:f3:53:07:76:dd:e9:a7:47:dd:
         94:40:c7:f0:3d:56:1a:4a:77:be:68:ee:ec:e8:a0:db:94:1a:
         30:5c:e9:a0:c8:b3:0a:ab:ee:b9:c3:cb:e0:20:49:46:40:b6:
         1e:72:33:4e:69:64:f7:38:42:57:93:2e:ae:1a:35:51:3b:ec:
         9e:c6:f9:ac:f7:7a:5e:cf:29:33:3b:95:c7:f1:41:23:e2:81:
         ef:ee:67:0f:c6:9c:09:df:45:ab:25:a1:27:2e:2e:f7:e3:eb:
         5c:56:c9:c2:82:51:73:41:10:65:5d:53:d5:f6:55:33:c0:b9:
         a2:7d:f4:19:6e:76:fe:9f:ca:06:2f:e3:a5:81:27:aa:5c:d9:
         85:0f:25:29:ec:80:24:7c:48:4e:19:2f:67:6a:8f:0d:76:2a:
         a6:7c:e7:02:2d:a6:10:46:2e:21:de:14:73:7c:93:41:a2:24:
         63:5d:bb:fd:28:4f:44:89:27:73:f5:fd:3a:e5:86:ef:00:16:
         42:24:3d:3b:7e:2e:e7:3f:f5:6b:67:8d:23:6a:a8:62:93:dc:
         6b:0d:08:6e:9f:07:b1:bc:46:aa:5e:60:d4:15:d6:a6:09:ea:
         45:fe:05:26:90:5b:7a:9c:2d:a3:7e:50:6b:6d:eb:7a:3e:68:
         18:d2:00:a5:c9:c5:45:2f:3f:3a:11:51:ee:b9:6b:5f:af:ef:
         d6:18:47:91:18:8b:2a:34:2f:21:a1:66:bb:ce:d2:6e:27:e0:
         a6:f1:28:01:8d:1f:d6:04:96:33:02:e9:6d:36:a2:11:fd:cd:
         f0:a8:b5:e1:bd:a5:33:71:b9:bc:c6:09:79:b1:d7:ce:e3:45:
         f5:85:5f:c7:e9:5f:74:c2:f0:98:f0:80:91:12:13:8e:66:97:
         4e:c7:16:11:b4:96:68:4d:5c:4f:26:1a:97:8c:88:ef:e7:70:
         fb:8c:32:49:2a:e2:05:f7:33:e8:ae:07:a8:50:67:f1:49:49:
         f1:05:80:cb:ca:6d:78:85
-----BEGIN CERTIFICATE-----
MIIHSDCCBTCgAwIBAgICAyMwDQYJKoZIhvcNAQEFBQAwgbQxCzAJBgNVBAYTAlVT
MQswCQYDVQQIEwJDQTEVMBMGA1UEBxMMU2FuRnJhbmNpc2NvMRUwEwYDVQQKEwxQ
aXhnbG8sIEluYy4xEDAOBgNVBAsTB1ZQTi1DSUUxGjAYBgNVBAMTEXR1bm5lbC5w
aXhnbG8uY29tMRwwGgYDVQQpExNCYWxhIENoYW5kcmFzZWthcmFuMR4wHAYJKoZI
hvcNAQkBFg9iYWxhQHBpeGdsby5jb20wHhcNMTgwMjE0MDY0NDAxWhcNMjgwMjEy
MDY0NDAxWjCBqTELMAkGA1UEBhMCVVMxCzAJBgNVBAgTAkNBMRUwEwYDVQQHEwxT
YW5GcmFuY2lzY28xFTATBgNVBAoTDFBpeGdsbywgSW5jLjEQMA4GA1UECxMHVlBO
LUNJRTEPMA0GA1UEAxMGY2llODAyMRwwGgYDVQQpExNCYWxhIENoYW5kcmFzZWth
cmFuMR4wHAYJKoZIhvcNAQkBFg9iYWxhQHBpeGdsby5jb20wggIiMA0GCSqGSIb3
DQEBAQUAA4ICDwAwggIKAoICAQDYPDf40XXY67volGN/Vlef5pJp8E5HJVYaBEXV
0lUGLXjwEn4w+M21OOWaRgCavCkw7xF9ubrx5xpC/3avfj2ed+zPGfoTXuDA4pHN
sWs4YfQcOgbdiGUtkgkJzZnc52a8AZgmUBqfXLPTkTHle4OZdsqKLHGyRhHW7/9Q
t11+WCQYyCTq4VTwYqaeA/pBxgEKLuAvt0Suh4E9q7kyc1fCjxHMv/jW+GhcfDXF
hAEWkVntBppLdBTUG+SS593fZFhFuf/UPi7FuemJfiBiBKTf5WoYcu5eXCvpUMR8
oZJEKw/KsJQ1l7oYDwVvpmmidl4Lh3SPahQ8qsoKp19vrdbhNYRaaBiwgdq9BtKN
lc83jvi1J9nYHS7ZC7V4ujLwpybtbLyS/LGm4KtqolJV/OgZem5/Z4ZziQ/bnDXR
aMqljeBDIiwCnFn1wxkyxOk65JVJK4YME3N9IML+sNdVfSkl7VwiOhDurZo5bh/a
sm5PwtpHLZxXO5in5yewCP8azTVzq9uRMRaDUVUEUyvK5lR0qWZPcPNU4+jBavHX
VKlzIsBA4vyNZgF3pgf0NZlzG8l+kW9G8SKkM92Z+DcNwK8Cqx2yw8Zp85Xc9FtP
YV52ecFz49z8oDFNpfvOxUWCLihow68ar1jVh7ElvLoBFoZKR3UUjqDNwtJa/vXZ
VjVd3QIDAQABo4IBazCCAWcwCQYDVR0TBAIwADAtBglghkgBhvhCAQ0EIBYeRWFz
eS1SU0EgR2VuZXJhdGVkIENlcnRpZmljYXRlMB0GA1UdDgQWBBR9VsopG8Fsr83V
leJtmgGbkPSTXDCB6QYDVR0jBIHhMIHegBTvOI0UUFinW02cF3L837msp1GwEKGB
uqSBtzCBtDELMAkGA1UEBhMCVVMxCzAJBgNVBAgTAkNBMRUwEwYDVQQHEwxTYW5G
cmFuY2lzY28xFTATBgNVBAoTDFBpeGdsbywgSW5jLjEQMA4GA1UECxMHVlBOLUNJ
RTEaMBgGA1UEAxMRdHVubmVsLnBpeGdsby5jb20xHDAaBgNVBCkTE0JhbGEgQ2hh
bmRyYXNla2FyYW4xHjAcBgkqhkiG9w0BCQEWD2JhbGFAcGl4Z2xvLmNvbYIJAKbb
xoOA5qB5MBMGA1UdJQQMMAoGCCsGAQUFBwMCMAsGA1UdDwQEAwIHgDANBgkqhkiG
9w0BAQUFAAOCAgEAxueKQZFOCDxQwjd1wphD+hf8aAwToodYgfLVrta/EHVmEFMC
YOypj6iu58WdMkkvKZYuujZMltMMbrNSs0rHrAJgTqTQWVZGM1mKJWsjp1jCe4Ot
urrLvpKB9NmMBlXE+YGhiC8Q9s4Nt/Znlmv9XlnGBvhyhLhXJXyTFvRW5Q+H2Nb2
bFGI81MHdt3pp0fdlEDH8D1WGkp3vmju7Oig25QaMFzpoMizCqvuucPL4CBJRkC2
HnIzTmlk9zhCV5Murho1UTvsnsb5rPd6Xs8pMzuVx/FBI+KB7+5nD8acCd9FqyWh
Jy4u9+PrXFbJwoJRc0EQZV1T1fZVM8C5on30GW52/p/KBi/jpYEnqlzZhQ8lKeyA
JHxIThkvZ2qPDXYqpnznAi2mEEYuId4Uc3yTQaIkY127/ShPRIknc/X9OuWG7wAW
QiQ9O34u5z/1a2eNI2qoYpPcaw0Ibp8HsbxGql5g1BXWpgnqRf4FJpBbepwto35Q
a23rej5oGNIApcnFRS8/OhFR7rlrX6/v1hhHkRiLKjQvIaFmu87SbifgpvEoAY0f
1gSWMwLpbTaiEf3N8Ki14b2lM3G5vMYJebHXzuNF9YVfx+lfdMLwmPCAkRITjmaX
TscWEbSWaE1cTyYal4yI7+dw+4wySSriBfcz6K4HqFBn8UlJ8QWAy8pteIU=
-----END CERTIFICATE-----
