Certificate:
    Data:
        Version: 3 (0x2)
        Serial Number: 810 (0x32a)
    Signature Algorithm: sha1WithRSAEncryption
        Issuer: C=US, ST=CA, L=SanFrancisco, O=Pixglo, Inc., OU=VPN-CIE, CN=tunnel.pixglo.com/name=Bala Chandrasekaran/emailAddress=bala@pixglo.com
        Validity
            Not Before: Feb 14 06:44:14 2018 GMT
            Not After : Feb 12 06:44:14 2028 GMT
        Subject: C=US, ST=CA, L=SanFrancisco, O=Pixglo, Inc., OU=VPN-CIE, CN=cie809/name=Bala Chandrasekaran/emailAddress=bala@pixglo.com
        Subject Public Key Info:
            Public Key Algorithm: rsaEncryption
                Public-Key: (4096 bit)
                Modulus:
                    00:c1:42:a1:b6:e9:06:ce:40:9d:53:04:d0:1e:30:
                    49:81:ed:5a:00:97:33:cb:52:64:33:6b:02:6f:8b:
                    bf:59:27:98:98:05:8b:e2:8f:90:c2:89:00:19:90:
                    6b:0f:be:64:39:33:ab:32:f3:da:a0:bf:16:95:bc:
                    57:ad:0e:7c:5c:34:86:27:15:db:0e:3a:eb:9f:06:
                    73:d0:67:d4:d2:36:16:bd:c6:cb:3b:9e:8b:4a:ee:
                    27:80:61:81:da:d2:c3:ed:7b:9e:9b:0c:56:55:cb:
                    d7:7c:b7:5e:d8:41:88:07:bd:2d:84:d5:50:e2:ba:
                    dc:f0:d1:78:f8:ca:0c:ce:9a:48:6a:c9:96:12:3e:
                    45:ae:6d:a7:ed:9c:10:9c:58:89:e8:17:f7:e6:a3:
                    cf:1a:b2:9c:e9:e3:50:0d:11:3e:46:b3:e9:d6:74:
                    56:ce:8b:bc:2c:bb:2c:d4:a5:9e:a4:8d:e2:b5:de:
                    72:8b:96:82:9c:4b:e4:9e:bc:85:8d:bc:62:4d:48:
                    b4:aa:52:c2:39:33:39:a5:5a:73:0a:7b:59:ad:c4:
                    b6:e5:df:d0:c7:d2:5d:2f:b2:d8:32:c3:7a:82:39:
                    e7:8b:bb:f5:2b:db:35:20:97:a4:44:ee:2d:11:0b:
                    a2:b3:53:1f:e3:bf:08:fc:bb:29:eb:eb:d4:8a:aa:
                    6d:18:f7:81:cf:93:81:2c:b0:0a:7a:91:e5:6a:f5:
                    91:03:a3:c2:4e:f4:74:02:45:b7:5c:b7:af:12:1a:
                    c8:00:c0:5d:d1:2a:2a:76:46:db:ab:1e:71:81:6c:
                    c5:da:1f:41:f6:a1:52:12:49:bc:58:2a:1e:cd:1b:
                    13:fb:ee:18:fd:89:70:bc:ca:27:24:c4:14:e6:83:
                    98:65:55:ca:35:3a:d1:07:63:22:52:77:be:bc:d0:
                    0f:fc:b2:33:e1:4f:ab:26:5f:d4:ee:05:00:4e:a4:
                    05:5c:ac:f3:45:cd:4f:95:7a:97:81:fa:36:22:5f:
                    1b:7e:37:4d:15:74:42:d2:f7:ef:39:b8:51:84:48:
                    69:29:75:0c:a8:80:e2:1d:2e:2e:a6:5e:35:fa:38:
                    e5:1b:05:8e:6e:af:17:a9:86:f4:4d:02:17:62:08:
                    d2:ae:42:1d:8b:58:0c:0b:e9:1b:25:59:32:47:24:
                    53:0b:42:8c:e1:60:b2:67:85:c9:91:8c:8f:46:30:
                    39:65:86:d7:09:06:1e:fc:20:85:5d:30:22:bc:06:
                    7e:93:96:4c:3f:86:27:bc:52:2f:6c:dc:36:a0:e2:
                    b7:5f:97:a8:15:bc:c4:25:41:15:fe:6d:42:87:35:
                    e1:13:73:bc:e5:00:bd:3e:7f:8c:1f:a4:4c:62:76:
                    61:34:21
                Exponent: 65537 (0x10001)
        X509v3 extensions:
            X509v3 Basic Constraints: 
                CA:FALSE
            Netscape Comment: 
                Easy-RSA Generated Certificate
            X509v3 Subject Key Identifier: 
                4A:CE:D4:20:40:DF:30:B9:CC:65:2C:26:9C:94:DD:6B:18:80:AE:97
            X509v3 Authority Key Identifier: 
                keyid:EF:38:8D:14:50:58:A7:5B:4D:9C:17:72:FC:DF:B9:AC:A7:51:B0:10
                DirName:/C=US/ST=CA/L=SanFrancisco/O=Pixglo, Inc./OU=VPN-CIE/CN=tunnel.pixglo.com/name=Bala Chandrasekaran/emailAddress=bala@pixglo.com
                serial:A6:DB:C6:83:80:E6:A0:79

            X509v3 Extended Key Usage: 
                TLS Web Client Authentication
            X509v3 Key Usage: 
                Digital Signature
    Signature Algorithm: sha1WithRSAEncryption
         cd:f2:3e:c6:93:a9:a0:16:f8:0f:63:6b:8e:ed:d2:9b:04:a5:
         81:5a:bb:e4:59:d2:7a:0e:a6:98:ab:5b:3f:be:63:12:42:65:
         9a:c1:ca:1c:2c:8e:57:50:d7:91:ae:a5:04:aa:f3:95:24:28:
         99:46:61:2f:c4:aa:19:ef:7d:14:7d:8b:f1:0e:b0:2a:8b:bc:
         6b:e8:32:06:13:ea:af:58:39:bd:85:75:70:be:f0:6c:73:31:
         88:b6:a3:d4:ce:4b:b4:76:3e:39:0f:04:8d:f7:38:e6:2b:ad:
         0e:b6:4c:2e:5c:14:98:67:b6:69:6c:e2:4e:ea:8d:2d:a7:04:
         3c:78:7e:d6:dd:53:c1:62:29:b3:b4:74:e4:63:ec:31:49:e4:
         37:24:04:f4:48:dc:91:4c:5c:e3:8f:ea:71:5e:88:ff:58:79:
         dc:b8:87:8d:d7:b4:55:b7:6a:db:2a:69:b6:fa:f7:62:78:4a:
         94:09:65:d2:d0:5e:0d:bd:9f:3b:59:e0:04:93:3e:f8:23:92:
         fb:46:e3:34:ec:58:db:83:e9:bd:1b:e7:19:64:44:be:f1:7c:
         dd:73:e1:f7:c9:b8:83:e5:b1:d5:5d:f2:be:2a:52:c3:a6:78:
         58:44:d1:e0:b0:01:49:4d:93:4e:d3:ee:cc:7c:0f:61:d4:7c:
         33:5c:25:cf:bc:97:a1:ae:57:9c:f2:5b:b9:bb:70:9a:57:6f:
         79:b6:25:a5:f8:d6:86:a2:d4:89:22:89:59:91:35:3c:14:8c:
         bb:80:ce:0e:a1:05:4a:6b:0a:e6:d7:3a:89:b4:31:88:03:68:
         aa:7e:cc:4b:85:f1:ac:6b:e0:85:0e:5d:ca:f7:d2:2a:ff:23:
         38:f6:d2:a4:fb:5b:4f:5f:64:1d:c7:6b:6b:6c:a3:98:e2:26:
         78:ea:a6:48:01:4f:03:41:89:3b:dd:0b:01:f4:ca:ee:56:fe:
         94:8a:2f:82:1a:8a:fd:e8:af:13:32:6c:89:ee:2a:e4:ca:90:
         7e:8e:1a:2a:34:fc:f8:fb:ae:f1:bb:98:eb:36:55:c3:1c:d5:
         cf:d9:6a:8c:93:fc:fe:94:2a:a7:96:fa:d1:da:eb:b8:b1:ab:
         b7:32:91:ea:b4:10:15:75:a0:f9:e3:9d:ab:2d:a6:a6:36:d5:
         ec:ea:e7:79:ef:e2:cf:59:10:13:13:f9:17:15:5e:f1:e1:fa:
         25:38:fb:70:bc:d6:d7:ff:a2:f5:c7:84:31:11:74:83:cf:76:
         1c:3b:45:6a:06:28:fe:94:31:e0:5c:a8:2b:cb:2d:04:5c:64:
         58:20:ce:41:0b:be:2b:ee:6a:c4:45:53:1c:2d:ea:c0:38:60:
         a3:fb:78:3d:c3:2f:87:aa
-----BEGIN CERTIFICATE-----
MIIHSDCCBTCgAwIBAgICAyowDQYJKoZIhvcNAQEFBQAwgbQxCzAJBgNVBAYTAlVT
MQswCQYDVQQIEwJDQTEVMBMGA1UEBxMMU2FuRnJhbmNpc2NvMRUwEwYDVQQKEwxQ
aXhnbG8sIEluYy4xEDAOBgNVBAsTB1ZQTi1DSUUxGjAYBgNVBAMTEXR1bm5lbC5w
aXhnbG8uY29tMRwwGgYDVQQpExNCYWxhIENoYW5kcmFzZWthcmFuMR4wHAYJKoZI
hvcNAQkBFg9iYWxhQHBpeGdsby5jb20wHhcNMTgwMjE0MDY0NDE0WhcNMjgwMjEy
MDY0NDE0WjCBqTELMAkGA1UEBhMCVVMxCzAJBgNVBAgTAkNBMRUwEwYDVQQHEwxT
YW5GcmFuY2lzY28xFTATBgNVBAoTDFBpeGdsbywgSW5jLjEQMA4GA1UECxMHVlBO
LUNJRTEPMA0GA1UEAxMGY2llODA5MRwwGgYDVQQpExNCYWxhIENoYW5kcmFzZWth
cmFuMR4wHAYJKoZIhvcNAQkBFg9iYWxhQHBpeGdsby5jb20wggIiMA0GCSqGSIb3
DQEBAQUAA4ICDwAwggIKAoICAQDBQqG26QbOQJ1TBNAeMEmB7VoAlzPLUmQzawJv
i79ZJ5iYBYvij5DCiQAZkGsPvmQ5M6sy89qgvxaVvFetDnxcNIYnFdsOOuufBnPQ
Z9TSNha9xss7notK7ieAYYHa0sPte56bDFZVy9d8t17YQYgHvS2E1VDiutzw0Xj4
ygzOmkhqyZYSPkWubaftnBCcWInoF/fmo88aspzp41ANET5Gs+nWdFbOi7wsuyzU
pZ6kjeK13nKLloKcS+SevIWNvGJNSLSqUsI5MzmlWnMKe1mtxLbl39DH0l0vstgy
w3qCOeeLu/Ur2zUgl6RE7i0RC6KzUx/jvwj8uynr69SKqm0Y94HPk4EssAp6keVq
9ZEDo8JO9HQCRbdct68SGsgAwF3RKip2RturHnGBbMXaH0H2oVISSbxYKh7NGxP7
7hj9iXC8yickxBTmg5hlVco1OtEHYyJSd7680A/8sjPhT6smX9TuBQBOpAVcrPNF
zU+VepeB+jYiXxt+N00VdELS9+85uFGESGkpdQyogOIdLi6mXjX6OOUbBY5urxep
hvRNAhdiCNKuQh2LWAwL6RslWTJHJFMLQozhYLJnhcmRjI9GMDllhtcJBh78IIVd
MCK8Bn6Tlkw/hie8Ui9s3Dag4rdfl6gVvMQlQRX+bUKHNeETc7zlAL0+f4wfpExi
dmE0IQIDAQABo4IBazCCAWcwCQYDVR0TBAIwADAtBglghkgBhvhCAQ0EIBYeRWFz
eS1SU0EgR2VuZXJhdGVkIENlcnRpZmljYXRlMB0GA1UdDgQWBBRKztQgQN8wucxl
LCaclN1rGICulzCB6QYDVR0jBIHhMIHegBTvOI0UUFinW02cF3L837msp1GwEKGB
uqSBtzCBtDELMAkGA1UEBhMCVVMxCzAJBgNVBAgTAkNBMRUwEwYDVQQHEwxTYW5G
cmFuY2lzY28xFTATBgNVBAoTDFBpeGdsbywgSW5jLjEQMA4GA1UECxMHVlBOLUNJ
RTEaMBgGA1UEAxMRdHVubmVsLnBpeGdsby5jb20xHDAaBgNVBCkTE0JhbGEgQ2hh
bmRyYXNla2FyYW4xHjAcBgkqhkiG9w0BCQEWD2JhbGFAcGl4Z2xvLmNvbYIJAKbb
xoOA5qB5MBMGA1UdJQQMMAoGCCsGAQUFBwMCMAsGA1UdDwQEAwIHgDANBgkqhkiG
9w0BAQUFAAOCAgEAzfI+xpOpoBb4D2Nrju3SmwSlgVq75FnSeg6mmKtbP75jEkJl
msHKHCyOV1DXka6lBKrzlSQomUZhL8SqGe99FH2L8Q6wKou8a+gyBhPqr1g5vYV1
cL7wbHMxiLaj1M5LtHY+OQ8Ejfc45iutDrZMLlwUmGe2aWziTuqNLacEPHh+1t1T
wWIps7R05GPsMUnkNyQE9EjckUxc44/qcV6I/1h53LiHjde0Vbdq2ypptvr3YnhK
lAll0tBeDb2fO1ngBJM++COS+0bjNOxY24PpvRvnGWREvvF83XPh98m4g+Wx1V3y
vipSw6Z4WETR4LABSU2TTtPuzHwPYdR8M1wlz7yXoa5XnPJbubtwmldvebYlpfjW
hqLUiSKJWZE1PBSMu4DODqEFSmsK5tc6ibQxiANoqn7MS4XxrGvghQ5dyvfSKv8j
OPbSpPtbT19kHcdra2yjmOImeOqmSAFPA0GJO90LAfTK7lb+lIovghqK/eivEzJs
ie4q5MqQfo4aKjT8+Puu8buY6zZVwxzVz9lqjJP8/pQqp5b60drruLGrtzKR6rQQ
FXWg+eOdqy2mpjbV7Ornee/iz1kQExP5FxVe8eH6JTj7cLzW1/+i9ceEMRF0g892
HDtFagYo/pQx4FyoK8stBFxkWCDOQQu+K+5qxEVTHC3qwDhgo/t4PcMvh6o=
-----END CERTIFICATE-----
