Certificate:
    Data:
        Version: 3 (0x2)
        Serial Number: 812 (0x32c)
    Signature Algorithm: sha1WithRSAEncryption
        Issuer: C=US, ST=CA, L=SanFrancisco, O=Pixglo, Inc., OU=VPN-CIE, CN=tunnel.pixglo.com/name=Bala Chandrasekaran/emailAddress=bala@pixglo.com
        Validity
            Not Before: Feb 14 06:44:16 2018 GMT
            Not After : Feb 12 06:44:16 2028 GMT
        Subject: C=US, ST=CA, L=SanFrancisco, O=Pixglo, Inc., OU=VPN-CIE, CN=cie811/name=Bala Chandrasekaran/emailAddress=bala@pixglo.com
        Subject Public Key Info:
            Public Key Algorithm: rsaEncryption
                Public-Key: (4096 bit)
                Modulus:
                    00:a3:a7:a3:3b:3e:be:53:f6:b6:bc:02:9e:bd:79:
                    99:28:fa:4f:d0:3f:86:d1:fb:85:9f:5b:99:e3:cc:
                    59:83:d3:a9:04:79:99:7a:e6:37:85:e7:99:59:27:
                    43:9f:ef:f1:ae:1b:fa:a7:8d:cd:51:49:78:03:fa:
                    81:d2:5e:fa:64:c5:be:14:bf:69:88:4a:fe:32:51:
                    30:07:06:14:7b:25:3f:48:00:3a:6f:45:9b:23:31:
                    09:e1:bc:7c:78:37:67:2a:88:89:c0:27:4b:30:d5:
                    52:be:28:88:33:40:af:45:14:21:f4:11:48:d0:86:
                    a3:47:d5:df:0f:1e:8b:ab:97:f5:55:e8:8b:1e:59:
                    d9:af:bc:c7:95:02:fc:34:a0:aa:35:39:64:f2:f1:
                    ab:e9:b3:eb:b7:8e:a2:3f:66:cd:9e:6b:43:70:22:
                    6b:dc:4e:14:09:41:cb:bf:96:d8:d0:d2:ec:ce:56:
                    f6:55:a3:f2:81:a6:5f:f0:bf:e8:f3:14:11:80:4e:
                    46:4b:0a:2f:72:d9:c6:55:4f:ac:45:a0:d5:8f:89:
                    25:85:cb:7c:86:e3:37:1b:d2:25:1d:91:32:86:fe:
                    9e:98:ea:5c:fa:18:13:04:71:73:2a:39:f5:d0:ac:
                    fa:b6:50:58:07:21:03:1d:c5:17:a3:46:15:a5:65:
                    d7:e9:c3:67:25:f5:32:90:7e:02:af:c0:ae:dc:b7:
                    7a:2e:af:00:85:d6:5b:4d:26:a5:ae:24:62:5f:2e:
                    b2:0f:14:c1:fd:17:34:86:32:ce:9e:73:c1:8c:f6:
                    49:a8:21:bf:36:21:f4:54:de:8c:5e:54:7e:32:a3:
                    12:53:cc:cf:cc:da:f7:cf:52:0d:48:64:44:df:18:
                    7f:e5:a4:f8:6b:14:20:b2:24:88:10:74:6b:8a:b2:
                    9f:e9:11:24:e5:6b:0f:c8:d6:5d:4b:7f:22:2e:9e:
                    09:70:41:42:38:68:64:06:ac:9f:bd:ec:d2:7f:4b:
                    27:08:af:0b:f8:79:ac:20:40:52:64:2d:8c:46:47:
                    76:f0:ad:7d:b4:d7:e9:c1:81:f5:35:e3:aa:ed:19:
                    8b:52:00:b8:e2:88:5f:6c:6a:41:8c:8b:46:1b:3c:
                    d0:c7:b7:01:a4:af:a9:bd:55:87:0c:71:a9:ee:21:
                    e6:aa:b9:ae:ed:a8:7b:d7:27:16:40:45:b6:70:93:
                    72:19:94:13:99:3c:60:fa:63:cc:76:42:6e:7d:ec:
                    99:0f:93:26:f4:cc:f0:b2:13:24:04:f9:a8:e5:6b:
                    1e:6e:dd:63:ad:6e:bd:62:49:71:0f:b2:c3:3e:f0:
                    22:b6:e0:a3:f0:3f:c5:71:a9:4b:7f:72:ae:e1:d7:
                    2e:f2:47
                Exponent: 65537 (0x10001)
        X509v3 extensions:
            X509v3 Basic Constraints: 
                CA:FALSE
            Netscape Comment: 
                Easy-RSA Generated Certificate
            X509v3 Subject Key Identifier: 
                12:EF:01:B0:35:01:EF:42:23:33:C0:77:B0:1F:FD:27:72:C4:7D:58
            X509v3 Authority Key Identifier: 
                keyid:EF:38:8D:14:50:58:A7:5B:4D:9C:17:72:FC:DF:B9:AC:A7:51:B0:10
                DirName:/C=US/ST=CA/L=SanFrancisco/O=Pixglo, Inc./OU=VPN-CIE/CN=tunnel.pixglo.com/name=Bala Chandrasekaran/emailAddress=bala@pixglo.com
                serial:A6:DB:C6:83:80:E6:A0:79

            X509v3 Extended Key Usage: 
                TLS Web Client Authentication
            X509v3 Key Usage: 
                Digital Signature
    Signature Algorithm: sha1WithRSAEncryption
         14:a3:19:a3:80:59:1b:d0:ae:35:68:22:07:1d:d0:f0:ae:c6:
         e9:5d:50:b0:8c:de:24:f6:e9:6b:da:0c:00:3e:17:2b:be:04:
         41:5b:d6:91:18:57:56:e6:c4:16:99:10:d0:00:44:a4:11:08:
         3b:36:30:18:19:a7:f1:19:cd:a6:2c:a0:54:68:3a:86:e5:a7:
         e6:84:8f:76:e3:4d:cd:c2:79:61:fb:96:d1:99:c4:4e:27:f9:
         59:34:de:e6:73:07:c3:fb:83:24:5c:2e:f6:9a:62:0b:06:5c:
         c7:c3:28:00:b3:7e:33:cb:d9:1a:58:45:da:e2:d6:df:8e:aa:
         cd:ab:9a:40:2d:cb:77:e2:06:d8:04:15:37:53:e0:eb:e3:7d:
         41:34:22:9f:c5:40:d5:c1:f6:8d:89:45:9d:6b:eb:36:c8:39:
         b4:0a:14:be:f2:1a:1a:b1:46:d3:99:7a:ce:f3:4c:3a:3c:7f:
         8f:5f:cf:99:f4:73:b9:ed:aa:eb:6b:ad:23:47:86:06:47:2c:
         c5:f8:6f:69:b6:c4:e2:92:ed:e7:f6:2b:f2:5d:0e:a9:05:2e:
         1e:ba:18:72:80:34:96:18:e6:10:b7:15:aa:a9:f2:02:ed:42:
         36:81:96:2e:ed:ff:e1:a2:c1:55:06:0e:c2:f7:e7:84:ac:42:
         cd:5d:76:76:69:c5:fc:84:02:08:90:18:6b:5b:c7:b1:bf:e8:
         94:0e:4b:23:e1:3c:62:16:b8:5e:47:33:83:02:38:c7:53:ee:
         15:e7:ab:db:87:6d:38:6b:40:79:ae:82:c0:cc:10:58:61:57:
         49:c9:c9:2b:c9:46:68:e3:53:f1:1f:27:bb:32:44:31:62:08:
         75:8f:d4:bf:94:7e:9e:e7:a9:e3:21:43:7e:db:3a:2a:d5:be:
         7c:89:8d:20:41:81:ac:4c:07:fd:a9:6d:53:32:37:5c:fc:3e:
         47:2f:97:18:35:c2:01:49:77:4b:22:3e:7f:75:d1:b1:2f:8c:
         49:06:e6:bf:66:65:34:ec:02:3b:69:79:11:34:86:46:09:17:
         a5:09:05:56:be:ea:03:2a:6c:1f:ce:39:51:87:28:23:8c:03:
         71:e7:f0:0a:7a:db:9b:4f:57:b4:c9:5a:68:ed:11:98:66:ce:
         f3:01:d0:d9:07:56:13:3a:c9:eb:f5:ad:ce:87:b6:f6:9d:15:
         15:0e:7f:71:b0:cf:7e:b3:b2:a3:5a:89:91:6d:90:b5:01:9c:
         08:38:08:90:0a:1f:6e:ea:02:6d:71:95:0b:4c:58:20:ce:5b:
         9a:54:50:f6:ba:5e:8e:b6:ce:85:3c:d6:03:25:7d:fc:22:8d:
         42:b4:39:63:77:16:2e:f0
-----BEGIN CERTIFICATE-----
MIIHSDCCBTCgAwIBAgICAywwDQYJKoZIhvcNAQEFBQAwgbQxCzAJBgNVBAYTAlVT
MQswCQYDVQQIEwJDQTEVMBMGA1UEBxMMU2FuRnJhbmNpc2NvMRUwEwYDVQQKEwxQ
aXhnbG8sIEluYy4xEDAOBgNVBAsTB1ZQTi1DSUUxGjAYBgNVBAMTEXR1bm5lbC5w
aXhnbG8uY29tMRwwGgYDVQQpExNCYWxhIENoYW5kcmFzZWthcmFuMR4wHAYJKoZI
hvcNAQkBFg9iYWxhQHBpeGdsby5jb20wHhcNMTgwMjE0MDY0NDE2WhcNMjgwMjEy
MDY0NDE2WjCBqTELMAkGA1UEBhMCVVMxCzAJBgNVBAgTAkNBMRUwEwYDVQQHEwxT
YW5GcmFuY2lzY28xFTATBgNVBAoTDFBpeGdsbywgSW5jLjEQMA4GA1UECxMHVlBO
LUNJRTEPMA0GA1UEAxMGY2llODExMRwwGgYDVQQpExNCYWxhIENoYW5kcmFzZWth
cmFuMR4wHAYJKoZIhvcNAQkBFg9iYWxhQHBpeGdsby5jb20wggIiMA0GCSqGSIb3
DQEBAQUAA4ICDwAwggIKAoICAQCjp6M7Pr5T9ra8Ap69eZko+k/QP4bR+4WfW5nj
zFmD06kEeZl65jeF55lZJ0Of7/GuG/qnjc1RSXgD+oHSXvpkxb4Uv2mISv4yUTAH
BhR7JT9IADpvRZsjMQnhvHx4N2cqiInAJ0sw1VK+KIgzQK9FFCH0EUjQhqNH1d8P
Hourl/VV6IseWdmvvMeVAvw0oKo1OWTy8avps+u3jqI/Zs2ea0NwImvcThQJQcu/
ltjQ0uzOVvZVo/KBpl/wv+jzFBGATkZLCi9y2cZVT6xFoNWPiSWFy3yG4zcb0iUd
kTKG/p6Y6lz6GBMEcXMqOfXQrPq2UFgHIQMdxRejRhWlZdfpw2cl9TKQfgKvwK7c
t3ourwCF1ltNJqWuJGJfLrIPFMH9FzSGMs6ec8GM9kmoIb82IfRU3oxeVH4yoxJT
zM/M2vfPUg1IZETfGH/lpPhrFCCyJIgQdGuKsp/pESTlaw/I1l1LfyIunglwQUI4
aGQGrJ+97NJ/SycIrwv4eawgQFJkLYxGR3bwrX201+nBgfU146rtGYtSALjiiF9s
akGMi0YbPNDHtwGkr6m9VYcMcanuIeaqua7tqHvXJxZARbZwk3IZlBOZPGD6Y8x2
Qm597JkPkyb0zPCyEyQE+ajlax5u3WOtbr1iSXEPssM+8CK24KPwP8VxqUt/cq7h
1y7yRwIDAQABo4IBazCCAWcwCQYDVR0TBAIwADAtBglghkgBhvhCAQ0EIBYeRWFz
eS1SU0EgR2VuZXJhdGVkIENlcnRpZmljYXRlMB0GA1UdDgQWBBQS7wGwNQHvQiMz
wHewH/0ncsR9WDCB6QYDVR0jBIHhMIHegBTvOI0UUFinW02cF3L837msp1GwEKGB
uqSBtzCBtDELMAkGA1UEBhMCVVMxCzAJBgNVBAgTAkNBMRUwEwYDVQQHEwxTYW5G
cmFuY2lzY28xFTATBgNVBAoTDFBpeGdsbywgSW5jLjEQMA4GA1UECxMHVlBOLUNJ
RTEaMBgGA1UEAxMRdHVubmVsLnBpeGdsby5jb20xHDAaBgNVBCkTE0JhbGEgQ2hh
bmRyYXNla2FyYW4xHjAcBgkqhkiG9w0BCQEWD2JhbGFAcGl4Z2xvLmNvbYIJAKbb
xoOA5qB5MBMGA1UdJQQMMAoGCCsGAQUFBwMCMAsGA1UdDwQEAwIHgDANBgkqhkiG
9w0BAQUFAAOCAgEAFKMZo4BZG9CuNWgiBx3Q8K7G6V1QsIzeJPbpa9oMAD4XK74E
QVvWkRhXVubEFpkQ0ABEpBEIOzYwGBmn8RnNpiygVGg6huWn5oSPduNNzcJ5YfuW
0ZnETif5WTTe5nMHw/uDJFwu9ppiCwZcx8MoALN+M8vZGlhF2uLW346qzauaQC3L
d+IG2AQVN1Pg6+N9QTQin8VA1cH2jYlFnWvrNsg5tAoUvvIaGrFG05l6zvNMOjx/
j1/PmfRzue2q62utI0eGBkcsxfhvabbE4pLt5/Yr8l0OqQUuHroYcoA0lhjmELcV
qqnyAu1CNoGWLu3/4aLBVQYOwvfnhKxCzV12dmnF/IQCCJAYa1vHsb/olA5LI+E8
Yha4XkczgwI4x1PuFeer24dtOGtAea6CwMwQWGFXScnJK8lGaONT8R8nuzJEMWII
dY/Uv5R+nuep4yFDfts6KtW+fImNIEGBrEwH/altUzI3XPw+Ry+XGDXCAUl3SyI+
f3XRsS+MSQbmv2ZlNOwCO2l5ETSGRgkXpQkFVr7qAypsH845UYcoI4wDcefwCnrb
m09XtMlaaO0RmGbO8wHQ2QdWEzrJ6/Wtzoe29p0VFQ5/cbDPfrOyo1qJkW2QtQGc
CDgIkAofbuoCbXGVC0xYIM5bmlRQ9rpejrbOhTzWAyV9/CKNQrQ5Y3cWLvA=
-----END CERTIFICATE-----
