Certificate:
    Data:
        Version: 3 (0x2)
        Serial Number: 816 (0x330)
    Signature Algorithm: sha1WithRSAEncryption
        Issuer: C=US, ST=CA, L=SanFrancisco, O=Pixglo, Inc., OU=VPN-CIE, CN=tunnel.pixglo.com/name=Bala Chandrasekaran/emailAddress=bala@pixglo.com
        Validity
            Not Before: Feb 14 06:44:26 2018 GMT
            Not After : Feb 12 06:44:26 2028 GMT
        Subject: C=US, ST=CA, L=SanFrancisco, O=Pixglo, Inc., OU=VPN-CIE, CN=cie815/name=Bala Chandrasekaran/emailAddress=bala@pixglo.com
        Subject Public Key Info:
            Public Key Algorithm: rsaEncryption
                Public-Key: (4096 bit)
                Modulus:
                    00:c2:f7:17:56:7a:fa:b0:23:a9:62:c0:cd:78:93:
                    de:e7:27:fa:f4:08:73:5c:79:aa:06:2f:c2:12:eb:
                    a2:32:8d:42:02:79:a9:d9:33:30:dd:3f:a7:22:9f:
                    d4:99:89:da:1c:43:2a:22:64:ca:ca:03:58:b4:e7:
                    3a:27:fe:bb:58:37:1f:7e:07:07:c5:ba:0a:ff:cf:
                    41:48:ac:ff:c6:47:8b:1e:c4:3c:2f:f5:64:75:a8:
                    b4:05:d8:12:48:58:a9:6a:c6:22:42:fc:ad:67:af:
                    9d:78:66:00:ef:99:c4:ea:e7:71:52:9a:c9:c7:69:
                    3a:e2:51:33:18:bc:5a:b5:2c:c8:ad:5e:06:9e:c1:
                    4e:21:93:a4:ad:e2:ae:89:f5:18:ca:90:18:f3:cd:
                    51:43:f4:b2:c8:c0:86:d2:12:12:e5:de:da:70:00:
                    79:d6:e0:e1:76:05:5a:5c:3d:52:e2:70:57:c5:5b:
                    4d:8a:f6:69:b0:70:c8:a3:8f:6c:7b:10:83:72:30:
                    19:ea:82:51:df:34:47:b2:84:f7:3a:d3:8a:28:75:
                    76:e2:d7:65:4f:5a:63:44:d7:ec:a7:d9:56:3b:60:
                    8a:c3:51:3b:59:7a:42:5f:ab:10:78:a1:82:23:59:
                    fe:7b:04:f0:70:93:04:48:d9:ad:9e:0e:19:1e:e1:
                    b8:dc:1f:5c:65:b0:84:f0:8e:42:7e:86:3c:41:e9:
                    ae:b0:6c:67:0c:77:ba:f8:15:85:0a:a7:ba:43:f8:
                    b5:13:c5:df:c3:f3:e0:6e:dc:db:96:36:fb:5c:eb:
                    5e:9b:f8:20:59:5f:9f:6a:bc:8b:8e:cd:d7:04:df:
                    16:d2:fa:ea:06:68:db:07:22:4b:af:e3:a0:01:42:
                    7f:b3:0f:d0:92:fc:c9:dd:89:78:b3:aa:b4:fd:b0:
                    6c:e8:45:ae:7d:e1:d1:82:6d:a6:41:3b:bd:73:ad:
                    ff:c6:ff:37:e0:0a:bc:95:59:65:5b:67:41:aa:90:
                    1e:28:92:c8:83:d4:58:e1:21:a5:4c:2a:8d:1b:2c:
                    40:01:12:ac:ce:81:04:5b:44:59:b5:00:b5:6f:75:
                    4f:30:1f:5a:fc:9c:cf:d3:c2:41:cb:52:1e:da:ad:
                    b6:17:86:2a:98:4d:0a:16:72:ab:fe:5b:08:2a:97:
                    86:2a:21:87:73:4c:c6:16:5b:b2:65:d6:ef:c2:4b:
                    59:0d:f8:51:ae:90:33:74:f5:92:35:02:6f:14:f9:
                    57:40:5b:3d:12:d1:02:10:d4:e1:5a:cd:f2:6c:f6:
                    3c:2e:53:2b:33:73:77:3d:6b:fb:84:55:41:c1:51:
                    5e:0a:59:d5:d4:c4:2f:93:95:9d:5c:23:9b:d3:f5:
                    1d:f8:41
                Exponent: 65537 (0x10001)
        X509v3 extensions:
            X509v3 Basic Constraints: 
                CA:FALSE
            Netscape Comment: 
                Easy-RSA Generated Certificate
            X509v3 Subject Key Identifier: 
                04:E5:8D:96:DB:11:31:64:E6:5C:DA:3D:76:6F:B2:26:A5:8F:9C:E5
            X509v3 Authority Key Identifier: 
                keyid:EF:38:8D:14:50:58:A7:5B:4D:9C:17:72:FC:DF:B9:AC:A7:51:B0:10
                DirName:/C=US/ST=CA/L=SanFrancisco/O=Pixglo, Inc./OU=VPN-CIE/CN=tunnel.pixglo.com/name=Bala Chandrasekaran/emailAddress=bala@pixglo.com
                serial:A6:DB:C6:83:80:E6:A0:79

            X509v3 Extended Key Usage: 
                TLS Web Client Authentication
            X509v3 Key Usage: 
                Digital Signature
    Signature Algorithm: sha1WithRSAEncryption
         85:49:cb:c8:b2:d9:1c:b2:94:51:9c:19:a7:a8:d3:6f:53:7b:
         d8:2b:f9:f2:d3:d5:d2:ec:fe:45:3d:38:6a:0a:c5:67:33:d4:
         be:b2:81:0d:62:7e:64:28:ed:cc:97:8e:cf:9e:f1:6a:69:d5:
         12:81:26:90:db:62:f9:70:14:52:3d:22:62:90:64:7f:33:de:
         de:81:77:bd:c8:3e:8b:70:ba:a5:5d:54:b1:84:5e:c1:5d:63:
         86:a4:77:8a:02:7b:7e:e4:07:8a:5f:af:da:14:d3:37:44:e8:
         83:4e:f2:c1:01:97:fb:e7:5b:ae:e7:a5:80:fe:1a:dd:55:08:
         81:d1:ac:45:fc:8e:d9:c6:ae:ba:7a:91:66:f3:21:b1:f9:90:
         91:fa:c0:aa:9a:dd:4d:4d:30:70:9b:bb:65:dd:ca:a4:54:bd:
         15:de:8a:2d:f8:77:37:99:15:a3:82:b0:17:58:87:e5:61:34:
         0d:5a:77:fb:fc:a3:07:c2:ce:1a:56:dd:39:38:fb:34:5c:d6:
         8d:41:a4:02:af:a0:74:b7:13:97:0d:82:2a:a9:1d:03:a8:f0:
         ab:0e:81:e1:bd:aa:f1:09:e8:d6:79:f6:6c:ff:1f:71:5b:82:
         58:0b:75:72:a8:e6:90:77:71:62:f7:52:5a:a9:87:a3:f6:e9:
         2e:6e:55:37:f1:bc:42:b7:fb:b0:bd:69:43:f5:6c:c6:41:25:
         e0:7e:f5:4d:dd:b6:5d:5c:22:af:c7:53:54:09:3a:6e:30:74:
         95:68:7a:d5:b2:27:14:90:85:97:54:4e:c8:d4:e0:e2:a2:8d:
         e2:0d:25:22:22:07:21:b9:a2:25:8f:6a:ee:c5:02:2e:6c:4a:
         aa:9c:ff:8b:d7:29:08:e2:cc:96:b6:e5:bf:5b:a4:72:44:0d:
         bb:d1:07:04:52:37:85:f9:72:b1:75:71:13:26:10:76:b6:01:
         f4:a3:37:11:75:d4:ee:0d:f5:7f:38:04:30:68:74:ae:51:2f:
         db:7c:ea:4c:3b:6b:04:14:51:e1:85:36:8b:93:5c:4a:86:fd:
         4c:31:49:cd:b4:24:bb:f7:07:57:c1:0e:89:fa:ba:42:e8:9a:
         e3:0c:b8:7c:93:b5:eb:eb:50:65:1b:ad:c4:2e:21:6e:89:2f:
         96:87:c0:0d:1c:25:c7:e6:c8:5b:3d:22:20:df:e3:23:77:d3:
         c9:8b:a6:a5:e4:75:a7:e9:88:e5:e6:7b:82:56:75:6b:f9:55:
         84:4e:f3:1c:5e:0a:99:f2:f9:33:a8:46:78:7a:86:15:1c:b9:
         b2:24:f8:c3:26:43:e6:4e:1a:26:87:5d:99:d7:f9:6b:f5:e8:
         a6:ce:1f:60:a9:2f:60:f0
-----BEGIN CERTIFICATE-----
MIIHSDCCBTCgAwIBAgICAzAwDQYJKoZIhvcNAQEFBQAwgbQxCzAJBgNVBAYTAlVT
MQswCQYDVQQIEwJDQTEVMBMGA1UEBxMMU2FuRnJhbmNpc2NvMRUwEwYDVQQKEwxQ
aXhnbG8sIEluYy4xEDAOBgNVBAsTB1ZQTi1DSUUxGjAYBgNVBAMTEXR1bm5lbC5w
aXhnbG8uY29tMRwwGgYDVQQpExNCYWxhIENoYW5kcmFzZWthcmFuMR4wHAYJKoZI
hvcNAQkBFg9iYWxhQHBpeGdsby5jb20wHhcNMTgwMjE0MDY0NDI2WhcNMjgwMjEy
MDY0NDI2WjCBqTELMAkGA1UEBhMCVVMxCzAJBgNVBAgTAkNBMRUwEwYDVQQHEwxT
YW5GcmFuY2lzY28xFTATBgNVBAoTDFBpeGdsbywgSW5jLjEQMA4GA1UECxMHVlBO
LUNJRTEPMA0GA1UEAxMGY2llODE1MRwwGgYDVQQpExNCYWxhIENoYW5kcmFzZWth
cmFuMR4wHAYJKoZIhvcNAQkBFg9iYWxhQHBpeGdsby5jb20wggIiMA0GCSqGSIb3
DQEBAQUAA4ICDwAwggIKAoICAQDC9xdWevqwI6liwM14k97nJ/r0CHNceaoGL8IS
66IyjUICeanZMzDdP6cin9SZidocQyoiZMrKA1i05zon/rtYNx9+BwfFugr/z0FI
rP/GR4sexDwv9WR1qLQF2BJIWKlqxiJC/K1nr514ZgDvmcTq53FSmsnHaTriUTMY
vFq1LMitXgaewU4hk6St4q6J9RjKkBjzzVFD9LLIwIbSEhLl3tpwAHnW4OF2BVpc
PVLicFfFW02K9mmwcMijj2x7EINyMBnqglHfNEeyhPc604oodXbi12VPWmNE1+yn
2VY7YIrDUTtZekJfqxB4oYIjWf57BPBwkwRI2a2eDhke4bjcH1xlsITwjkJ+hjxB
6a6wbGcMd7r4FYUKp7pD+LUTxd/D8+Bu3NuWNvtc616b+CBZX59qvIuOzdcE3xbS
+uoGaNsHIkuv46ABQn+zD9CS/MndiXizqrT9sGzoRa594dGCbaZBO71zrf/G/zfg
CryVWWVbZ0GqkB4oksiD1FjhIaVMKo0bLEABEqzOgQRbRFm1ALVvdU8wH1r8nM/T
wkHLUh7arbYXhiqYTQoWcqv+Wwgql4YqIYdzTMYWW7Jl1u/CS1kN+FGukDN09ZI1
Am8U+VdAWz0S0QIQ1OFazfJs9jwuUyszc3c9a/uEVUHBUV4KWdXUxC+TlZ1cI5vT
9R34QQIDAQABo4IBazCCAWcwCQYDVR0TBAIwADAtBglghkgBhvhCAQ0EIBYeRWFz
eS1SU0EgR2VuZXJhdGVkIENlcnRpZmljYXRlMB0GA1UdDgQWBBQE5Y2W2xExZOZc
2j12b7ImpY+c5TCB6QYDVR0jBIHhMIHegBTvOI0UUFinW02cF3L837msp1GwEKGB
uqSBtzCBtDELMAkGA1UEBhMCVVMxCzAJBgNVBAgTAkNBMRUwEwYDVQQHEwxTYW5G
cmFuY2lzY28xFTATBgNVBAoTDFBpeGdsbywgSW5jLjEQMA4GA1UECxMHVlBOLUNJ
RTEaMBgGA1UEAxMRdHVubmVsLnBpeGdsby5jb20xHDAaBgNVBCkTE0JhbGEgQ2hh
bmRyYXNla2FyYW4xHjAcBgkqhkiG9w0BCQEWD2JhbGFAcGl4Z2xvLmNvbYIJAKbb
xoOA5qB5MBMGA1UdJQQMMAoGCCsGAQUFBwMCMAsGA1UdDwQEAwIHgDANBgkqhkiG
9w0BAQUFAAOCAgEAhUnLyLLZHLKUUZwZp6jTb1N72Cv58tPV0uz+RT04agrFZzPU
vrKBDWJ+ZCjtzJeOz57xamnVEoEmkNti+XAUUj0iYpBkfzPe3oF3vcg+i3C6pV1U
sYRewV1jhqR3igJ7fuQHil+v2hTTN0Tog07ywQGX++dbruelgP4a3VUIgdGsRfyO
2cauunqRZvMhsfmQkfrAqprdTU0wcJu7Zd3KpFS9Fd6KLfh3N5kVo4KwF1iH5WE0
DVp3+/yjB8LOGlbdOTj7NFzWjUGkAq+gdLcTlw2CKqkdA6jwqw6B4b2q8Qno1nn2
bP8fcVuCWAt1cqjmkHdxYvdSWqmHo/bpLm5VN/G8Qrf7sL1pQ/VsxkEl4H71Td22
XVwir8dTVAk6bjB0lWh61bInFJCFl1ROyNTg4qKN4g0lIiIHIbmiJY9q7sUCLmxK
qpz/i9cpCOLMlrblv1ukckQNu9EHBFI3hflysXVxEyYQdrYB9KM3EXXU7g31fzgE
MGh0rlEv23zqTDtrBBRR4YU2i5NcSob9TDFJzbQku/cHV8EOifq6Quia4wy4fJO1
6+tQZRutxC4hbokvlofADRwlx+bIWz0iIN/jI3fTyYumpeR1p+mI5eZ7glZ1a/lV
hE7zHF4KmfL5M6hGeHqGFRy5siT4wyZD5k4aJoddmdf5a/Xops4fYKkvYPA=
-----END CERTIFICATE-----
