Certificate:
    Data:
        Version: 3 (0x2)
        Serial Number: 818 (0x332)
    Signature Algorithm: sha1WithRSAEncryption
        Issuer: C=US, ST=CA, L=SanFrancisco, O=Pixglo, Inc., OU=VPN-CIE, CN=tunnel.pixglo.com/name=Bala Chandrasekaran/emailAddress=bala@pixglo.com
        Validity
            Not Before: Feb 14 06:44:33 2018 GMT
            Not After : Feb 12 06:44:33 2028 GMT
        Subject: C=US, ST=CA, L=SanFrancisco, O=Pixglo, Inc., OU=VPN-CIE, CN=cie817/name=Bala Chandrasekaran/emailAddress=bala@pixglo.com
        Subject Public Key Info:
            Public Key Algorithm: rsaEncryption
                Public-Key: (4096 bit)
                Modulus:
                    00:ce:cf:ec:99:27:63:68:bb:90:da:57:e5:b3:b3:
                    a6:35:67:d8:4c:4c:e3:15:2f:a7:26:cc:6d:09:ea:
                    9e:02:b3:83:2e:d9:65:31:ad:b9:24:8f:79:50:1e:
                    82:d7:2a:32:fc:72:0a:c4:dc:73:c4:3c:e6:93:ce:
                    7e:b3:5c:ca:63:e2:f7:37:a3:f9:9b:50:cc:db:51:
                    df:bc:37:5a:82:7f:d1:02:0b:8f:c9:17:5f:83:38:
                    a1:24:b9:20:ec:2b:e6:03:22:52:04:0b:56:e3:4c:
                    70:85:16:f9:86:cb:ac:2e:4c:81:26:f4:fa:ad:fd:
                    c0:27:e5:68:38:e3:4e:98:a6:d2:9b:75:3b:fe:81:
                    9b:6d:02:89:1d:69:0c:b4:b9:04:a1:00:3d:d7:8f:
                    a0:f4:cc:32:65:44:c2:1f:49:bd:44:8a:dd:b1:d3:
                    7e:b5:11:8f:8c:09:27:9f:2e:97:ce:db:12:31:8b:
                    ef:0b:10:41:5b:3d:c3:71:b6:83:cb:e5:90:a3:a4:
                    7e:56:a1:3d:36:da:65:10:c5:77:64:76:8f:fb:85:
                    fc:96:cc:a9:1e:fb:06:38:f2:79:c8:c9:2a:cd:cd:
                    bf:ee:27:33:8a:74:8d:fa:88:00:ff:0b:3d:89:b7:
                    f5:5f:ae:16:46:a2:f1:a8:10:53:3c:14:19:76:35:
                    72:fb:1a:19:bb:e9:0c:d2:20:8b:8b:d7:a6:fa:51:
                    41:e7:45:3c:fc:42:5e:ad:a9:5a:20:0e:f0:45:64:
                    a2:85:fb:e7:0a:eb:98:0a:ff:77:58:c7:23:ee:d2:
                    7d:df:bc:53:23:a6:cb:57:ae:86:dc:27:df:81:fb:
                    2f:4f:5b:41:1f:33:8d:dc:43:be:7a:66:eb:3f:69:
                    81:57:c0:6b:3e:50:ad:d4:aa:33:e8:60:b1:4c:53:
                    25:9d:14:e1:74:3b:41:80:8b:3e:34:0f:2c:0d:de:
                    fe:01:3e:1b:b5:f5:91:75:13:12:a1:c5:39:06:fc:
                    48:1e:d4:a0:35:54:4d:79:a6:57:7e:34:60:f0:68:
                    50:1f:31:51:20:5b:79:03:54:86:73:42:e7:cf:67:
                    5d:49:33:d8:32:19:46:8b:b4:72:0d:98:b6:30:b1:
                    e0:cd:3b:c6:72:a7:c9:4b:70:94:b0:da:37:c6:64:
                    6d:8e:f1:83:15:9a:28:e9:c7:dd:c8:3b:f1:6c:e3:
                    ca:ad:e3:ed:30:42:1e:75:48:b3:a7:b0:92:b5:de:
                    75:2f:0b:ab:91:36:14:92:c8:40:11:f8:6e:cc:df:
                    a4:54:1b:32:79:c5:91:88:5c:27:3d:74:20:cd:90:
                    13:e9:fa:1a:3d:1e:f7:f6:86:31:b5:97:f6:66:4b:
                    66:e0:8d
                Exponent: 65537 (0x10001)
        X509v3 extensions:
            X509v3 Basic Constraints: 
                CA:FALSE
            Netscape Comment: 
                Easy-RSA Generated Certificate
            X509v3 Subject Key Identifier: 
                A6:FC:C4:EB:17:F0:18:91:F0:F6:93:6A:46:EB:51:13:5F:F6:BC:D3
            X509v3 Authority Key Identifier: 
                keyid:EF:38:8D:14:50:58:A7:5B:4D:9C:17:72:FC:DF:B9:AC:A7:51:B0:10
                DirName:/C=US/ST=CA/L=SanFrancisco/O=Pixglo, Inc./OU=VPN-CIE/CN=tunnel.pixglo.com/name=Bala Chandrasekaran/emailAddress=bala@pixglo.com
                serial:A6:DB:C6:83:80:E6:A0:79

            X509v3 Extended Key Usage: 
                TLS Web Client Authentication
            X509v3 Key Usage: 
                Digital Signature
    Signature Algorithm: sha1WithRSAEncryption
         b2:fe:b5:f5:6f:c5:59:23:5f:f7:9b:3a:d2:86:bf:96:32:df:
         d0:54:85:84:7c:d1:3b:e7:23:b8:a5:c8:37:59:8d:68:65:29:
         4b:b4:bf:e6:cf:e1:53:41:bc:78:f6:f3:17:b9:72:db:ec:7d:
         4d:60:2a:d7:76:52:11:1a:f9:9f:e3:32:aa:83:d6:1b:78:c3:
         86:01:c1:ca:98:60:26:83:45:06:7c:37:92:e7:27:f0:e9:50:
         c6:92:1e:75:b3:8a:81:ba:c7:db:97:57:18:66:4d:5d:dc:ec:
         a4:48:f3:2b:8c:45:e7:ea:30:c9:b4:19:3e:70:95:73:0b:80:
         c4:14:32:24:3d:78:8a:dd:01:bc:16:a8:66:39:b5:7e:4b:86:
         a0:02:b1:42:5c:fa:8d:91:66:e1:42:0a:c5:ed:fd:3b:81:65:
         08:7d:e4:9d:25:67:32:0c:51:6d:d7:6d:49:16:92:20:0a:be:
         9c:d4:8e:03:40:45:72:0a:31:4f:e0:49:8b:f4:c9:ef:5e:01:
         c5:20:71:95:fd:13:43:29:df:e9:50:13:a3:99:40:23:66:42:
         51:0e:bd:31:20:bb:4f:ae:24:d1:39:a4:82:2e:59:db:46:04:
         a3:f2:2f:9b:35:c1:7c:5c:e3:6b:f6:33:d3:58:59:6c:d9:d5:
         72:b4:2b:04:56:d4:6b:cd:fd:bb:af:50:49:f8:2c:56:11:76:
         3e:91:aa:dc:a1:59:b2:33:96:f5:dc:a8:1c:45:e8:82:9f:46:
         ef:cc:75:57:49:09:86:b3:36:a0:de:32:36:1c:ba:5a:50:52:
         a4:54:f4:c7:35:93:73:8a:50:19:64:77:17:e3:0b:22:ea:ce:
         bb:a5:c7:1c:db:4b:87:37:2c:2a:1a:a0:28:a9:c0:0e:2c:50:
         49:52:19:48:aa:e5:47:c9:d3:16:8b:ad:2a:ba:df:4d:76:5b:
         f1:70:0c:3a:6a:fe:24:fe:0a:ec:5a:89:0a:7a:d7:8b:6c:0f:
         43:19:22:ed:32:e8:1b:8a:f1:3b:5a:a3:8f:a5:3b:e7:b7:07:
         b0:ab:7b:f7:3b:b3:a1:95:ed:06:59:a1:55:8e:d2:44:27:77:
         99:1a:5c:38:49:8c:0e:fd:45:a1:7f:61:09:4b:f0:ce:36:14:
         24:fb:c7:66:1f:b7:45:6c:b1:6b:bc:da:59:9e:62:a7:59:de:
         9a:54:0f:ca:1a:cc:e3:f3:3c:20:6f:e1:67:59:23:31:17:ae:
         36:32:31:10:f4:5e:6f:c6:f2:ea:f9:dc:dc:5e:d6:5e:ff:68:
         bd:b0:26:da:2e:47:c7:82:42:6f:7b:07:e5:bd:c6:c3:91:31:
         f9:da:63:e5:d0:bc:23:7a
-----BEGIN CERTIFICATE-----
MIIHSDCCBTCgAwIBAgICAzIwDQYJKoZIhvcNAQEFBQAwgbQxCzAJBgNVBAYTAlVT
MQswCQYDVQQIEwJDQTEVMBMGA1UEBxMMU2FuRnJhbmNpc2NvMRUwEwYDVQQKEwxQ
aXhnbG8sIEluYy4xEDAOBgNVBAsTB1ZQTi1DSUUxGjAYBgNVBAMTEXR1bm5lbC5w
aXhnbG8uY29tMRwwGgYDVQQpExNCYWxhIENoYW5kcmFzZWthcmFuMR4wHAYJKoZI
hvcNAQkBFg9iYWxhQHBpeGdsby5jb20wHhcNMTgwMjE0MDY0NDMzWhcNMjgwMjEy
MDY0NDMzWjCBqTELMAkGA1UEBhMCVVMxCzAJBgNVBAgTAkNBMRUwEwYDVQQHEwxT
YW5GcmFuY2lzY28xFTATBgNVBAoTDFBpeGdsbywgSW5jLjEQMA4GA1UECxMHVlBO
LUNJRTEPMA0GA1UEAxMGY2llODE3MRwwGgYDVQQpExNCYWxhIENoYW5kcmFzZWth
cmFuMR4wHAYJKoZIhvcNAQkBFg9iYWxhQHBpeGdsby5jb20wggIiMA0GCSqGSIb3
DQEBAQUAA4ICDwAwggIKAoICAQDOz+yZJ2Nou5DaV+Wzs6Y1Z9hMTOMVL6cmzG0J
6p4Cs4Mu2WUxrbkkj3lQHoLXKjL8cgrE3HPEPOaTzn6zXMpj4vc3o/mbUMzbUd+8
N1qCf9ECC4/JF1+DOKEkuSDsK+YDIlIEC1bjTHCFFvmGy6wuTIEm9Pqt/cAn5Wg4
406YptKbdTv+gZttAokdaQy0uQShAD3Xj6D0zDJlRMIfSb1Eit2x0361EY+MCSef
LpfO2xIxi+8LEEFbPcNxtoPL5ZCjpH5WoT022mUQxXdkdo/7hfyWzKke+wY48nnI
ySrNzb/uJzOKdI36iAD/Cz2Jt/VfrhZGovGoEFM8FBl2NXL7Ghm76QzSIIuL16b6
UUHnRTz8Ql6tqVogDvBFZKKF++cK65gK/3dYxyPu0n3fvFMjpstXrobcJ9+B+y9P
W0EfM43cQ756Zus/aYFXwGs+UK3UqjPoYLFMUyWdFOF0O0GAiz40DywN3v4BPhu1
9ZF1ExKhxTkG/Ege1KA1VE15pld+NGDwaFAfMVEgW3kDVIZzQufPZ11JM9gyGUaL
tHINmLYwseDNO8Zyp8lLcJSw2jfGZG2O8YMVmijpx93IO/Fs48qt4+0wQh51SLOn
sJK13nUvC6uRNhSSyEAR+G7M36RUGzJ5xZGIXCc9dCDNkBPp+ho9Hvf2hjG1l/Zm
S2bgjQIDAQABo4IBazCCAWcwCQYDVR0TBAIwADAtBglghkgBhvhCAQ0EIBYeRWFz
eS1SU0EgR2VuZXJhdGVkIENlcnRpZmljYXRlMB0GA1UdDgQWBBSm/MTrF/AYkfD2
k2pG61ETX/a80zCB6QYDVR0jBIHhMIHegBTvOI0UUFinW02cF3L837msp1GwEKGB
uqSBtzCBtDELMAkGA1UEBhMCVVMxCzAJBgNVBAgTAkNBMRUwEwYDVQQHEwxTYW5G
cmFuY2lzY28xFTATBgNVBAoTDFBpeGdsbywgSW5jLjEQMA4GA1UECxMHVlBOLUNJ
RTEaMBgGA1UEAxMRdHVubmVsLnBpeGdsby5jb20xHDAaBgNVBCkTE0JhbGEgQ2hh
bmRyYXNla2FyYW4xHjAcBgkqhkiG9w0BCQEWD2JhbGFAcGl4Z2xvLmNvbYIJAKbb
xoOA5qB5MBMGA1UdJQQMMAoGCCsGAQUFBwMCMAsGA1UdDwQEAwIHgDANBgkqhkiG
9w0BAQUFAAOCAgEAsv619W/FWSNf95s60oa/ljLf0FSFhHzRO+cjuKXIN1mNaGUp
S7S/5s/hU0G8ePbzF7ly2+x9TWAq13ZSERr5n+MyqoPWG3jDhgHByphgJoNFBnw3
kucn8OlQxpIedbOKgbrH25dXGGZNXdzspEjzK4xF5+owybQZPnCVcwuAxBQyJD14
it0BvBaoZjm1fkuGoAKxQlz6jZFm4UIKxe39O4FlCH3knSVnMgxRbddtSRaSIAq+
nNSOA0BFcgoxT+BJi/TJ714BxSBxlf0TQynf6VATo5lAI2ZCUQ69MSC7T64k0Tmk
gi5Z20YEo/IvmzXBfFzja/Yz01hZbNnVcrQrBFbUa839u69QSfgsVhF2PpGq3KFZ
sjOW9dyoHEXogp9G78x1V0kJhrM2oN4yNhy6WlBSpFT0xzWTc4pQGWR3F+MLIurO
u6XHHNtLhzcsKhqgKKnADixQSVIZSKrlR8nTFoutKrrfTXZb8XAMOmr+JP4K7FqJ
CnrXi2wPQxki7TLoG4rxO1qjj6U757cHsKt79zuzoZXtBlmhVY7SRCd3mRpcOEmM
Dv1FoX9hCUvwzjYUJPvHZh+3RWyxa7zaWZ5ip1nemlQPyhrM4/M8IG/hZ1kjMReu
NjIxEPReb8by6vnc3F7WXv9ovbAm2i5Hx4JCb3sH5b3Gw5Ex+dpj5dC8I3o=
-----END CERTIFICATE-----
