Certificate:
    Data:
        Version: 3 (0x2)
        Serial Number: 820 (0x334)
    Signature Algorithm: sha1WithRSAEncryption
        Issuer: C=US, ST=CA, L=SanFrancisco, O=Pixglo, Inc., OU=VPN-CIE, CN=tunnel.pixglo.com/name=Bala Chandrasekaran/emailAddress=bala@pixglo.com
        Validity
            Not Before: Feb 14 06:44:37 2018 GMT
            Not After : Feb 12 06:44:37 2028 GMT
        Subject: C=US, ST=CA, L=SanFrancisco, O=Pixglo, Inc., OU=VPN-CIE, CN=cie819/name=Bala Chandrasekaran/emailAddress=bala@pixglo.com
        Subject Public Key Info:
            Public Key Algorithm: rsaEncryption
                Public-Key: (4096 bit)
                Modulus:
                    00:b2:69:16:b5:c5:a1:65:8b:33:24:65:8a:ac:be:
                    d5:4f:eb:96:d3:4d:95:3f:30:fa:e9:c5:65:d3:9c:
                    19:cc:d5:8b:51:08:74:e3:1c:bd:46:37:82:1a:c7:
                    89:38:d4:4c:22:3e:ae:0e:9d:cf:dd:47:6c:e3:1b:
                    db:15:0a:3c:0c:e2:c0:96:7f:ba:0f:8c:1b:77:2b:
                    aa:7d:47:5e:4b:1d:25:bc:ad:12:ff:a4:36:25:db:
                    67:ba:64:cc:34:50:67:ff:d4:7a:2a:6b:47:1c:b8:
                    5a:d6:26:5b:29:e8:3d:d8:ff:cc:40:89:35:c9:b5:
                    bb:55:64:d6:83:3b:01:ae:bb:3c:3c:58:9f:d6:13:
                    a0:0f:81:27:30:62:e9:4c:b7:07:af:bf:d4:17:81:
                    b9:0f:55:87:73:bf:93:c0:2c:6b:73:29:9e:56:19:
                    f8:1a:ea:02:98:14:7d:74:67:64:b7:d3:4b:7c:dc:
                    36:db:2e:a7:00:02:5e:43:82:fa:1e:79:37:b7:4b:
                    fb:6f:5b:2b:c4:b3:64:37:8d:19:e4:61:e9:ed:1c:
                    df:1f:fe:20:6d:eb:48:34:0a:45:13:29:79:46:e0:
                    f9:44:00:a3:43:3a:be:f4:da:40:5e:c1:1e:7c:0e:
                    64:0a:bd:f8:8a:5a:21:ac:33:c4:d7:5e:7c:68:33:
                    dc:09:a6:d9:bf:65:75:26:aa:7b:a0:ee:f9:3c:7a:
                    10:24:ea:a8:e2:d7:12:5d:db:c7:8a:55:f3:3e:f9:
                    87:c8:39:29:c7:82:d6:ed:88:83:b7:a8:ca:c9:76:
                    1e:b3:3f:4d:3e:66:56:da:3a:f0:83:db:c0:0f:10:
                    7d:49:36:c0:a5:05:12:2d:57:8a:b2:f1:a8:d8:8c:
                    0f:5b:be:9c:7f:3e:f0:9d:66:97:9e:0f:ce:f1:1f:
                    c9:1e:7a:70:83:1f:3b:0f:13:55:66:0d:0e:01:25:
                    31:81:50:e7:b1:1e:de:7d:ee:09:e2:48:11:81:30:
                    24:ca:9a:c9:7b:f7:c9:cc:b4:e5:a7:ea:c4:7b:74:
                    c5:f1:3b:e5:e9:d8:7a:aa:fe:15:72:c7:59:37:dc:
                    37:38:30:39:85:5f:a1:32:1b:32:88:69:b1:75:56:
                    3c:b6:e5:6a:f9:e5:bb:ac:f6:a6:4c:94:e0:1d:ff:
                    89:dc:1d:78:8c:08:73:c8:d1:51:ef:42:a3:89:11:
                    ec:4d:b9:a5:ee:0b:41:9f:b3:0f:ff:3f:d7:dc:80:
                    2d:42:18:24:e5:ad:db:36:fe:87:e8:fe:d8:c1:af:
                    bf:91:b4:94:68:4e:d6:e8:97:f8:25:d6:05:64:19:
                    05:e0:d9:3c:4d:f4:05:41:44:ba:06:ec:5d:ba:4d:
                    78:e9:79
                Exponent: 65537 (0x10001)
        X509v3 extensions:
            X509v3 Basic Constraints: 
                CA:FALSE
            Netscape Comment: 
                Easy-RSA Generated Certificate
            X509v3 Subject Key Identifier: 
                5E:14:81:EE:1D:F5:6B:59:26:A4:7C:26:45:F2:72:1D:60:23:4B:E4
            X509v3 Authority Key Identifier: 
                keyid:EF:38:8D:14:50:58:A7:5B:4D:9C:17:72:FC:DF:B9:AC:A7:51:B0:10
                DirName:/C=US/ST=CA/L=SanFrancisco/O=Pixglo, Inc./OU=VPN-CIE/CN=tunnel.pixglo.com/name=Bala Chandrasekaran/emailAddress=bala@pixglo.com
                serial:A6:DB:C6:83:80:E6:A0:79

            X509v3 Extended Key Usage: 
                TLS Web Client Authentication
            X509v3 Key Usage: 
                Digital Signature
    Signature Algorithm: sha1WithRSAEncryption
         69:57:10:3e:93:d0:d8:3b:c3:1a:1e:02:f0:55:bc:95:d3:54:
         5c:ff:cb:f4:ee:cb:97:a5:a5:45:e5:f1:cf:9e:82:9d:3f:6c:
         d6:de:f1:7c:2b:23:81:14:d8:18:3b:c2:1f:62:67:f4:4c:1d:
         cb:0d:b3:ef:ef:2d:8d:2c:75:51:e4:7c:ad:21:6f:a8:fe:79:
         95:05:1d:e0:6f:1d:12:5f:c4:d3:1f:cf:e4:23:78:a2:80:df:
         11:fa:4b:67:b5:53:27:ef:94:dc:0f:56:0a:a0:c9:d8:3f:be:
         ca:a3:e4:74:bd:21:e4:0f:63:a7:d2:e4:12:cd:f1:8b:01:65:
         18:9c:95:19:e1:02:57:b1:47:e0:79:25:87:6f:3b:1b:a2:08:
         da:13:89:aa:38:81:5a:18:45:e4:b7:92:42:9a:20:08:32:06:
         bd:23:c8:e0:78:18:59:dc:9d:f3:e4:5c:e0:e0:8a:8c:50:b7:
         57:1b:bc:03:05:95:6b:1f:d5:00:ba:58:87:2d:b9:fd:10:91:
         cb:0a:58:44:19:84:5a:cf:64:2a:5f:98:ee:0a:e8:ab:bb:d4:
         c9:7d:b2:db:fd:94:e8:e3:44:9f:19:e9:f1:36:e0:d0:22:3e:
         2c:e0:53:79:e4:ee:30:b5:db:ce:8e:ad:e6:b3:ab:a9:56:76:
         d4:4a:19:4f:e3:a9:10:4b:03:80:8e:7e:fb:eb:cb:03:9a:c0:
         5c:59:65:29:64:c3:bb:26:e0:99:d4:61:d4:86:fe:b9:44:30:
         18:d1:45:82:47:ed:b7:fe:78:50:03:a6:77:11:53:6a:a0:60:
         f6:6d:1c:d1:36:58:59:b9:f2:fc:b6:7d:12:a8:59:88:c7:bf:
         09:c8:44:78:cf:2d:7f:4b:c7:be:8c:54:f8:ec:2f:ee:7b:8b:
         bf:40:a8:af:75:53:10:5e:a0:97:0f:52:b9:9f:0e:63:83:19:
         2a:ed:9d:c8:d6:e8:d2:56:5a:85:29:c6:d3:85:f5:f8:39:27:
         d8:74:3d:9b:23:60:52:39:fc:15:30:be:c7:8a:46:5b:d5:c0:
         13:40:a5:e4:23:2c:95:f0:97:4e:c1:5f:94:df:fe:b2:f4:7a:
         02:cc:07:3a:44:63:ff:d1:9e:c8:e8:4e:79:a5:27:0c:b1:8a:
         7d:f6:cc:25:d1:86:b7:24:f3:cb:5f:4d:c9:13:cb:29:73:d2:
         15:b5:e5:88:9c:9f:b5:cf:5c:9c:75:d9:0b:da:89:d0:5b:63:
         49:b1:29:80:86:a3:05:2c:8d:fe:0d:cf:d3:cf:1f:6b:f2:51:
         08:13:aa:fb:fd:4a:b3:f4:2a:71:07:72:38:18:b7:a8:83:fb:
         32:be:36:9e:96:53:6e:55
-----BEGIN CERTIFICATE-----
MIIHSDCCBTCgAwIBAgICAzQwDQYJKoZIhvcNAQEFBQAwgbQxCzAJBgNVBAYTAlVT
MQswCQYDVQQIEwJDQTEVMBMGA1UEBxMMU2FuRnJhbmNpc2NvMRUwEwYDVQQKEwxQ
aXhnbG8sIEluYy4xEDAOBgNVBAsTB1ZQTi1DSUUxGjAYBgNVBAMTEXR1bm5lbC5w
aXhnbG8uY29tMRwwGgYDVQQpExNCYWxhIENoYW5kcmFzZWthcmFuMR4wHAYJKoZI
hvcNAQkBFg9iYWxhQHBpeGdsby5jb20wHhcNMTgwMjE0MDY0NDM3WhcNMjgwMjEy
MDY0NDM3WjCBqTELMAkGA1UEBhMCVVMxCzAJBgNVBAgTAkNBMRUwEwYDVQQHEwxT
YW5GcmFuY2lzY28xFTATBgNVBAoTDFBpeGdsbywgSW5jLjEQMA4GA1UECxMHVlBO
LUNJRTEPMA0GA1UEAxMGY2llODE5MRwwGgYDVQQpExNCYWxhIENoYW5kcmFzZWth
cmFuMR4wHAYJKoZIhvcNAQkBFg9iYWxhQHBpeGdsby5jb20wggIiMA0GCSqGSIb3
DQEBAQUAA4ICDwAwggIKAoICAQCyaRa1xaFlizMkZYqsvtVP65bTTZU/MPrpxWXT
nBnM1YtRCHTjHL1GN4Iax4k41EwiPq4Onc/dR2zjG9sVCjwM4sCWf7oPjBt3K6p9
R15LHSW8rRL/pDYl22e6ZMw0UGf/1Hoqa0ccuFrWJlsp6D3Y/8xAiTXJtbtVZNaD
OwGuuzw8WJ/WE6APgScwYulMtwevv9QXgbkPVYdzv5PALGtzKZ5WGfga6gKYFH10
Z2S300t83DbbLqcAAl5DgvoeeTe3S/tvWyvEs2Q3jRnkYentHN8f/iBt60g0CkUT
KXlG4PlEAKNDOr702kBewR58DmQKvfiKWiGsM8TXXnxoM9wJptm/ZXUmqnug7vk8
ehAk6qji1xJd28eKVfM++YfIOSnHgtbtiIO3qMrJdh6zP00+ZlbaOvCD28APEH1J
NsClBRItV4qy8ajYjA9bvpx/PvCdZpeeD87xH8keenCDHzsPE1VmDQ4BJTGBUOex
Ht597gniSBGBMCTKmsl798nMtOWn6sR7dMXxO+Xp2Hqq/hVyx1k33Dc4MDmFX6Ey
GzKIabF1Vjy25Wr55bus9qZMlOAd/4ncHXiMCHPI0VHvQqOJEexNuaXuC0Gfsw//
P9fcgC1CGCTlrds2/ofo/tjBr7+RtJRoTtbol/gl1gVkGQXg2TxN9AVBRLoG7F26
TXjpeQIDAQABo4IBazCCAWcwCQYDVR0TBAIwADAtBglghkgBhvhCAQ0EIBYeRWFz
eS1SU0EgR2VuZXJhdGVkIENlcnRpZmljYXRlMB0GA1UdDgQWBBReFIHuHfVrWSak
fCZF8nIdYCNL5DCB6QYDVR0jBIHhMIHegBTvOI0UUFinW02cF3L837msp1GwEKGB
uqSBtzCBtDELMAkGA1UEBhMCVVMxCzAJBgNVBAgTAkNBMRUwEwYDVQQHEwxTYW5G
cmFuY2lzY28xFTATBgNVBAoTDFBpeGdsbywgSW5jLjEQMA4GA1UECxMHVlBOLUNJ
RTEaMBgGA1UEAxMRdHVubmVsLnBpeGdsby5jb20xHDAaBgNVBCkTE0JhbGEgQ2hh
bmRyYXNla2FyYW4xHjAcBgkqhkiG9w0BCQEWD2JhbGFAcGl4Z2xvLmNvbYIJAKbb
xoOA5qB5MBMGA1UdJQQMMAoGCCsGAQUFBwMCMAsGA1UdDwQEAwIHgDANBgkqhkiG
9w0BAQUFAAOCAgEAaVcQPpPQ2DvDGh4C8FW8ldNUXP/L9O7Ll6WlReXxz56CnT9s
1t7xfCsjgRTYGDvCH2Jn9Ewdyw2z7+8tjSx1UeR8rSFvqP55lQUd4G8dEl/E0x/P
5CN4ooDfEfpLZ7VTJ++U3A9WCqDJ2D++yqPkdL0h5A9jp9LkEs3xiwFlGJyVGeEC
V7FH4Hklh287G6II2hOJqjiBWhhF5LeSQpogCDIGvSPI4HgYWdyd8+Rc4OCKjFC3
Vxu8AwWVax/VALpYhy25/RCRywpYRBmEWs9kKl+Y7groq7vUyX2y2/2U6ONEnxnp
8Tbg0CI+LOBTeeTuMLXbzo6t5rOrqVZ21EoZT+OpEEsDgI5+++vLA5rAXFllKWTD
uybgmdRh1Ib+uUQwGNFFgkftt/54UAOmdxFTaqBg9m0c0TZYWbny/LZ9EqhZiMe/
CchEeM8tf0vHvoxU+Owv7nuLv0Cor3VTEF6glw9SuZ8OY4MZKu2dyNbo0lZahSnG
04X1+Dkn2HQ9myNgUjn8FTC+x4pGW9XAE0Cl5CMslfCXTsFflN/+svR6AswHOkRj
/9GeyOhOeaUnDLGKffbMJdGGtyTzy19NyRPLKXPSFbXliJyftc9cnHXZC9qJ0Ftj
SbEpgIajBSyN/g3P088fa/JRCBOq+/1Ks/QqcQdyOBi3qIP7Mr42npZTblU=
-----END CERTIFICATE-----
