Certificate:
    Data:
        Version: 3 (0x2)
        Serial Number: 822 (0x336)
    Signature Algorithm: sha1WithRSAEncryption
        Issuer: C=US, ST=CA, L=SanFrancisco, O=Pixglo, Inc., OU=VPN-CIE, CN=tunnel.pixglo.com/name=Bala Chandrasekaran/emailAddress=bala@pixglo.com
        Validity
            Not Before: Feb 14 06:44:40 2018 GMT
            Not After : Feb 12 06:44:40 2028 GMT
        Subject: C=US, ST=CA, L=SanFrancisco, O=Pixglo, Inc., OU=VPN-CIE, CN=cie821/name=Bala Chandrasekaran/emailAddress=bala@pixglo.com
        Subject Public Key Info:
            Public Key Algorithm: rsaEncryption
                Public-Key: (4096 bit)
                Modulus:
                    00:d7:d0:2e:9b:f3:8d:5c:b1:19:88:b2:df:8a:3c:
                    b5:c9:dd:ac:3f:a6:92:41:ce:27:17:5a:20:8a:e4:
                    b0:9b:e2:ee:d9:51:70:13:c9:09:ca:ec:ba:fe:b6:
                    87:61:53:39:97:46:d7:24:6a:36:0d:27:ea:64:27:
                    b3:53:71:bb:d1:20:2d:a0:11:2b:ce:f2:a6:7a:fe:
                    e8:a6:cc:46:81:53:de:10:5d:03:64:90:f4:54:5a:
                    ff:7d:62:78:0c:75:7e:de:32:e0:c1:30:4b:42:33:
                    21:b0:4c:16:ae:c3:ac:f0:fb:10:e5:a5:65:6f:08:
                    a2:db:7b:86:e9:d4:5f:22:bf:23:a9:94:f6:8e:5b:
                    30:bb:f0:6e:e2:18:f9:5c:78:c0:af:39:40:76:b4:
                    ed:cc:67:a4:52:d6:15:e8:52:f6:3b:e4:7d:7d:47:
                    71:dc:fd:70:12:76:33:cb:6c:b2:10:72:f1:4d:6c:
                    ea:d8:d8:68:65:3c:5a:81:e1:86:33:90:79:23:de:
                    55:0e:a2:ea:ac:9d:9d:c8:bd:f3:59:57:b2:81:47:
                    83:ea:6e:c5:e8:60:a5:f4:33:fe:2e:1a:d2:2d:a7:
                    08:ef:8a:91:ff:31:b3:97:48:80:12:ee:e2:ea:52:
                    59:22:7b:45:73:36:9f:b0:73:d8:f1:ca:43:6f:02:
                    79:f4:31:a2:4b:46:23:6b:bf:72:5e:78:68:8e:47:
                    46:73:d9:a1:26:02:93:30:26:f2:ce:9c:83:43:b3:
                    e7:03:c1:09:b7:53:56:79:27:9c:37:2c:ed:4c:62:
                    63:f8:e2:65:ac:5e:1b:0c:20:3d:26:d4:05:9e:be:
                    2b:ab:13:24:fa:f0:99:51:35:c9:48:a2:9b:13:42:
                    78:3d:9a:e4:5c:91:e1:d6:be:0d:24:c6:88:a1:df:
                    08:1e:4f:72:13:db:19:cf:4e:91:ef:81:6c:d4:7f:
                    04:5b:f5:05:1e:7b:99:79:0b:01:08:af:9b:fd:ff:
                    8f:dc:8d:b3:2e:f3:23:a7:20:ec:83:4f:e0:d6:d2:
                    e2:c0:1c:76:16:27:b9:a4:38:97:7e:c4:af:e4:96:
                    4f:da:8e:9f:b2:d2:9c:37:eb:ed:a2:9d:bf:1a:36:
                    26:40:39:03:dd:29:f0:71:2a:2f:c8:59:98:12:50:
                    e1:39:1e:7a:51:11:37:27:60:be:5e:93:73:57:96:
                    78:5e:6d:b5:33:3b:a5:7e:f6:a0:53:73:74:5a:f8:
                    6d:e2:d9:9b:55:8c:dc:bb:ae:bc:c5:e9:af:b6:30:
                    05:81:b5:84:83:58:22:5c:cd:89:3a:19:1c:38:64:
                    aa:13:18:9d:3d:75:15:d5:07:2c:36:65:bf:3f:1a:
                    12:5a:97
                Exponent: 65537 (0x10001)
        X509v3 extensions:
            X509v3 Basic Constraints: 
                CA:FALSE
            Netscape Comment: 
                Easy-RSA Generated Certificate
            X509v3 Subject Key Identifier: 
                68:85:48:B7:B4:A2:D0:D1:39:24:26:C5:88:D6:C7:31:62:80:0B:F3
            X509v3 Authority Key Identifier: 
                keyid:EF:38:8D:14:50:58:A7:5B:4D:9C:17:72:FC:DF:B9:AC:A7:51:B0:10
                DirName:/C=US/ST=CA/L=SanFrancisco/O=Pixglo, Inc./OU=VPN-CIE/CN=tunnel.pixglo.com/name=Bala Chandrasekaran/emailAddress=bala@pixglo.com
                serial:A6:DB:C6:83:80:E6:A0:79

            X509v3 Extended Key Usage: 
                TLS Web Client Authentication
            X509v3 Key Usage: 
                Digital Signature
    Signature Algorithm: sha1WithRSAEncryption
         bb:d3:80:14:7e:8d:9d:0a:39:c5:25:c4:93:2f:f3:8e:69:c3:
         d4:c1:d7:ce:ff:23:fb:dd:87:01:ce:66:e0:f7:e8:f7:81:2f:
         84:6c:e8:9b:0d:28:98:f3:3c:dc:46:3b:a6:fc:f4:57:ed:44:
         23:d4:f4:2a:21:ea:8c:5c:3c:16:44:41:88:5b:d3:83:59:93:
         fc:10:57:eb:83:c1:8f:6f:64:4b:55:c3:78:eb:43:d0:2f:b4:
         31:34:b2:88:14:bf:9e:12:69:5b:b8:53:76:a2:5c:8c:58:d2:
         37:0c:83:a8:b3:b9:a9:dd:e8:7e:80:d9:47:a6:d6:12:40:8f:
         08:9f:47:82:20:be:70:0f:65:43:4a:5f:ea:a8:e3:42:3b:2f:
         bb:86:b0:6f:d8:b6:68:76:99:3a:07:56:c7:80:1d:ca:57:3a:
         8a:16:a7:18:a9:59:54:71:14:2b:51:fb:0e:b7:5b:03:07:c9:
         e1:db:a6:ff:82:d0:0a:56:f4:85:c2:fb:2b:b9:57:af:b9:8c:
         b0:9a:78:82:23:f0:18:60:9d:5e:ad:e7:ae:76:3e:35:35:ff:
         a4:2c:4f:1c:0c:d4:1c:f1:9e:91:6b:98:27:83:9d:ee:5c:5e:
         6f:59:08:2c:a7:b3:c8:48:da:f6:a7:49:8e:39:5c:60:ae:1a:
         a6:9a:0d:29:fb:cf:af:cc:54:af:52:ab:13:3a:3b:53:59:fd:
         f2:1c:6c:75:a3:67:9e:b6:05:53:0f:4d:62:4e:44:d1:e9:9e:
         60:cd:78:23:49:63:22:48:d1:95:83:38:30:e6:bd:9b:60:96:
         2d:f2:a1:81:35:ba:a8:fa:e1:36:aa:57:89:d9:19:3e:56:21:
         a6:e4:38:82:ee:b8:6b:9d:9d:c5:51:72:76:d3:a5:03:20:f3:
         6b:3a:f1:1c:a0:1c:97:a9:ea:70:10:04:bd:ef:b9:1d:87:f2:
         d4:80:be:f6:67:b2:1f:0b:8b:e7:98:7a:df:9a:51:3e:9a:8b:
         52:62:24:15:cc:f3:fd:f0:f0:de:ac:30:ba:f3:ce:a4:a3:0c:
         67:a6:6c:d3:7b:28:5e:1b:35:1d:b1:e9:4e:63:85:dd:a7:9a:
         79:b7:cd:dd:56:b4:4e:b5:1b:49:c4:50:89:b8:51:f4:09:38:
         04:2f:a7:11:a2:8b:9f:05:d4:50:b3:db:f8:d5:1b:d0:00:2b:
         53:2b:bc:23:40:40:c2:d0:03:b9:14:3a:07:85:73:0e:f7:d9:
         ec:66:87:d2:d3:1a:a0:04:41:9b:17:51:58:3b:98:13:d2:19:
         81:de:77:8a:03:83:25:8b:96:81:47:6d:50:25:fb:fe:e2:aa:
         c1:e1:5d:0f:a3:41:cb:ef
-----BEGIN CERTIFICATE-----
MIIHSDCCBTCgAwIBAgICAzYwDQYJKoZIhvcNAQEFBQAwgbQxCzAJBgNVBAYTAlVT
MQswCQYDVQQIEwJDQTEVMBMGA1UEBxMMU2FuRnJhbmNpc2NvMRUwEwYDVQQKEwxQ
aXhnbG8sIEluYy4xEDAOBgNVBAsTB1ZQTi1DSUUxGjAYBgNVBAMTEXR1bm5lbC5w
aXhnbG8uY29tMRwwGgYDVQQpExNCYWxhIENoYW5kcmFzZWthcmFuMR4wHAYJKoZI
hvcNAQkBFg9iYWxhQHBpeGdsby5jb20wHhcNMTgwMjE0MDY0NDQwWhcNMjgwMjEy
MDY0NDQwWjCBqTELMAkGA1UEBhMCVVMxCzAJBgNVBAgTAkNBMRUwEwYDVQQHEwxT
YW5GcmFuY2lzY28xFTATBgNVBAoTDFBpeGdsbywgSW5jLjEQMA4GA1UECxMHVlBO
LUNJRTEPMA0GA1UEAxMGY2llODIxMRwwGgYDVQQpExNCYWxhIENoYW5kcmFzZWth
cmFuMR4wHAYJKoZIhvcNAQkBFg9iYWxhQHBpeGdsby5jb20wggIiMA0GCSqGSIb3
DQEBAQUAA4ICDwAwggIKAoICAQDX0C6b841csRmIst+KPLXJ3aw/ppJBzicXWiCK
5LCb4u7ZUXATyQnK7Lr+todhUzmXRtckajYNJ+pkJ7NTcbvRIC2gESvO8qZ6/uim
zEaBU94QXQNkkPRUWv99YngMdX7eMuDBMEtCMyGwTBauw6zw+xDlpWVvCKLbe4bp
1F8ivyOplPaOWzC78G7iGPlceMCvOUB2tO3MZ6RS1hXoUvY75H19R3Hc/XASdjPL
bLIQcvFNbOrY2GhlPFqB4YYzkHkj3lUOouqsnZ3IvfNZV7KBR4PqbsXoYKX0M/4u
GtItpwjvipH/MbOXSIAS7uLqUlkie0VzNp+wc9jxykNvAnn0MaJLRiNrv3JeeGiO
R0Zz2aEmApMwJvLOnINDs+cDwQm3U1Z5J5w3LO1MYmP44mWsXhsMID0m1AWeviur
EyT68JlRNclIopsTQng9muRckeHWvg0kxoih3wgeT3IT2xnPTpHvgWzUfwRb9QUe
e5l5CwEIr5v9/4/cjbMu8yOnIOyDT+DW0uLAHHYWJ7mkOJd+xK/klk/ajp+y0pw3
6+2inb8aNiZAOQPdKfBxKi/IWZgSUOE5HnpRETcnYL5ek3NXlnhebbUzO6V+9qBT
c3Ra+G3i2ZtVjNy7rrzF6a+2MAWBtYSDWCJczYk6GRw4ZKoTGJ09dRXVByw2Zb8/
GhJalwIDAQABo4IBazCCAWcwCQYDVR0TBAIwADAtBglghkgBhvhCAQ0EIBYeRWFz
eS1SU0EgR2VuZXJhdGVkIENlcnRpZmljYXRlMB0GA1UdDgQWBBRohUi3tKLQ0Tkk
JsWI1scxYoAL8zCB6QYDVR0jBIHhMIHegBTvOI0UUFinW02cF3L837msp1GwEKGB
uqSBtzCBtDELMAkGA1UEBhMCVVMxCzAJBgNVBAgTAkNBMRUwEwYDVQQHEwxTYW5G
cmFuY2lzY28xFTATBgNVBAoTDFBpeGdsbywgSW5jLjEQMA4GA1UECxMHVlBOLUNJ
RTEaMBgGA1UEAxMRdHVubmVsLnBpeGdsby5jb20xHDAaBgNVBCkTE0JhbGEgQ2hh
bmRyYXNla2FyYW4xHjAcBgkqhkiG9w0BCQEWD2JhbGFAcGl4Z2xvLmNvbYIJAKbb
xoOA5qB5MBMGA1UdJQQMMAoGCCsGAQUFBwMCMAsGA1UdDwQEAwIHgDANBgkqhkiG
9w0BAQUFAAOCAgEAu9OAFH6NnQo5xSXEky/zjmnD1MHXzv8j+92HAc5m4Pfo94Ev
hGzomw0omPM83EY7pvz0V+1EI9T0KiHqjFw8FkRBiFvTg1mT/BBX64PBj29kS1XD
eOtD0C+0MTSyiBS/nhJpW7hTdqJcjFjSNwyDqLO5qd3ofoDZR6bWEkCPCJ9HgiC+
cA9lQ0pf6qjjQjsvu4awb9i2aHaZOgdWx4Adylc6ihanGKlZVHEUK1H7DrdbAwfJ
4dum/4LQClb0hcL7K7lXr7mMsJp4giPwGGCdXq3nrnY+NTX/pCxPHAzUHPGekWuY
J4Od7lxeb1kILKezyEja9qdJjjlcYK4appoNKfvPr8xUr1KrEzo7U1n98hxsdaNn
nrYFUw9NYk5E0emeYM14I0ljIkjRlYM4MOa9m2CWLfKhgTW6qPrhNqpXidkZPlYh
puQ4gu64a52dxVFydtOlAyDzazrxHKAcl6nqcBAEve+5HYfy1IC+9meyHwuL55h6
35pRPpqLUmIkFczz/fDw3qwwuvPOpKMMZ6Zs03soXhs1HbHpTmOF3aeaebfN3Va0
TrUbScRQibhR9Ak4BC+nEaKLnwXUULPb+NUb0AArUyu8I0BAwtADuRQ6B4VzDvfZ
7GaH0tMaoARBmxdRWDuYE9IZgd53igODJYuWgUdtUCX7/uKqweFdD6NBy+8=
-----END CERTIFICATE-----
