Certificate:
    Data:
        Version: 3 (0x2)
        Serial Number: 823 (0x337)
    Signature Algorithm: sha1WithRSAEncryption
        Issuer: C=US, ST=CA, L=SanFrancisco, O=Pixglo, Inc., OU=VPN-CIE, CN=tunnel.pixglo.com/name=Bala Chandrasekaran/emailAddress=bala@pixglo.com
        Validity
            Not Before: Feb 14 06:44:41 2018 GMT
            Not After : Feb 12 06:44:41 2028 GMT
        Subject: C=US, ST=CA, L=SanFrancisco, O=Pixglo, Inc., OU=VPN-CIE, CN=cie822/name=Bala Chandrasekaran/emailAddress=bala@pixglo.com
        Subject Public Key Info:
            Public Key Algorithm: rsaEncryption
                Public-Key: (4096 bit)
                Modulus:
                    00:c2:c8:46:9a:b0:28:b2:51:60:9f:91:0b:b3:ef:
                    38:46:c7:84:fc:94:ca:4f:15:bf:cf:c5:80:53:1d:
                    17:53:51:d2:a8:26:15:4a:58:ca:6d:d1:e0:36:e6:
                    c8:b6:08:30:d8:28:75:38:68:f1:a3:d2:e5:26:16:
                    f3:6f:bf:46:6c:66:e2:7e:b9:5c:39:96:2b:ca:bc:
                    fd:06:2d:6a:0d:8c:9f:f0:a5:eb:2f:b8:f6:f2:cf:
                    1f:d8:43:c1:8a:b3:11:a0:e8:5f:65:60:4a:e5:1a:
                    95:5e:b4:14:73:b4:b1:20:d8:d6:57:69:46:c5:d8:
                    58:81:63:c1:cb:e6:2e:6d:06:a3:ab:db:6f:86:83:
                    e2:91:57:ed:93:11:21:62:5f:36:20:7d:99:71:2a:
                    1f:39:3b:95:27:2c:0f:d8:7d:07:fe:63:80:8c:76:
                    86:24:d9:80:cb:5b:ed:c6:a9:e8:97:b4:07:25:0f:
                    21:1b:a9:a4:5f:dc:2e:9c:1f:54:ec:0c:72:be:90:
                    83:37:ed:fb:00:cb:54:e3:0b:93:62:85:0e:9f:66:
                    61:41:99:cc:de:b3:72:3a:af:81:0d:22:ef:76:a5:
                    c7:4f:62:bd:10:1c:3a:6f:9c:0c:7c:c8:be:3b:0d:
                    57:c5:3e:a9:7e:c3:6c:a9:99:b6:33:a5:e5:07:1d:
                    1e:18:84:48:d8:99:30:58:c5:dd:75:47:77:06:4b:
                    53:02:74:27:45:f3:d5:50:4a:71:a4:4f:1a:df:4a:
                    20:1e:4c:2c:a6:70:6e:c5:cd:75:e7:b8:05:d0:b7:
                    ce:50:8a:33:35:cb:37:bd:83:a4:cd:aa:47:08:0b:
                    6e:ea:5b:1e:93:9c:e7:2f:87:11:de:6d:c0:66:43:
                    43:00:be:58:61:c6:c6:eb:23:15:9d:ba:cd:27:94:
                    99:b5:34:fd:3b:ee:0b:0e:1f:98:a9:ed:9d:77:00:
                    4d:fa:ad:6a:4f:be:89:27:26:de:06:f4:45:f2:eb:
                    52:36:b5:e2:6f:cf:cd:31:af:2e:50:4c:38:31:ad:
                    7f:63:72:77:8e:4b:1e:59:2f:3e:2d:2c:6e:13:66:
                    72:6b:02:91:b7:0e:0e:aa:48:49:dc:bf:13:00:31:
                    08:d1:ed:3c:30:85:ab:a8:9f:97:1f:1c:22:e8:90:
                    6a:f3:44:49:96:13:21:9a:d5:01:50:fa:74:97:6c:
                    d5:35:2b:52:93:da:0b:b4:b0:07:0f:ed:44:8c:0a:
                    54:0a:9e:0a:78:b0:f7:5d:53:db:aa:60:2f:47:ad:
                    45:55:f4:5a:8b:9f:00:48:61:34:52:5a:00:ec:20:
                    42:f9:46:6f:b3:5b:a1:5c:8f:61:73:c2:c1:56:93:
                    5d:60:bb
                Exponent: 65537 (0x10001)
        X509v3 extensions:
            X509v3 Basic Constraints: 
                CA:FALSE
            Netscape Comment: 
                Easy-RSA Generated Certificate
            X509v3 Subject Key Identifier: 
                72:1B:9F:5B:79:13:B6:04:9D:94:AC:54:F8:54:1A:E3:9A:19:EC:D3
            X509v3 Authority Key Identifier: 
                keyid:EF:38:8D:14:50:58:A7:5B:4D:9C:17:72:FC:DF:B9:AC:A7:51:B0:10
                DirName:/C=US/ST=CA/L=SanFrancisco/O=Pixglo, Inc./OU=VPN-CIE/CN=tunnel.pixglo.com/name=Bala Chandrasekaran/emailAddress=bala@pixglo.com
                serial:A6:DB:C6:83:80:E6:A0:79

            X509v3 Extended Key Usage: 
                TLS Web Client Authentication
            X509v3 Key Usage: 
                Digital Signature
    Signature Algorithm: sha1WithRSAEncryption
         c3:fe:c1:8a:e3:29:a1:28:c3:fa:dc:10:6e:b5:71:7e:9a:ee:
         4f:37:0c:3d:ee:90:71:e5:02:75:a5:c5:2a:10:ae:53:79:0b:
         62:a6:06:5a:ba:44:cb:82:71:f7:e2:46:73:aa:c1:9b:de:07:
         80:4f:27:59:d9:3a:52:c7:db:af:52:cd:a9:8a:90:6e:d2:70:
         9c:93:34:77:31:e1:cd:ee:e4:e5:20:6f:ae:4f:b0:e5:83:8b:
         fc:e6:3f:70:f6:40:42:38:e2:3a:b0:11:07:52:9f:c6:99:da:
         b4:de:53:51:5a:1a:a3:9e:ae:a5:0c:d0:a4:b3:b6:1a:0e:18:
         36:4a:41:30:b1:0a:04:bb:64:8f:29:49:09:fa:38:66:bc:38:
         89:44:bd:b4:9e:fc:a6:82:40:16:fe:cf:e5:82:67:a4:c1:ce:
         d3:4d:97:81:75:ad:21:10:42:90:ed:9d:0e:ae:31:94:e7:8c:
         1c:e8:f9:5c:1f:85:fb:08:00:d0:e3:a6:ed:39:89:bf:23:8f:
         a9:ed:3d:87:66:00:6a:2e:34:f8:01:f0:00:6e:50:a1:6a:c5:
         df:34:35:59:f4:06:3f:55:2f:cd:e0:1b:e2:c8:eb:46:b0:b4:
         d4:9b:eb:eb:a0:19:ca:11:d3:9d:34:71:26:45:f9:a7:ca:de:
         77:79:37:8b:a3:dd:c0:1f:d7:34:8c:be:47:90:2d:72:f0:dd:
         db:0f:86:9d:8a:10:e9:f7:2b:1f:5a:b4:6e:4a:8f:0a:58:c8:
         6b:0e:c2:2b:d0:a5:a8:ce:9f:7f:83:1e:ec:f3:e0:32:a1:2d:
         19:c8:6d:94:ac:ef:19:74:0c:a9:2b:bf:4f:84:aa:42:20:d6:
         f5:94:bd:c2:db:69:48:72:d3:4b:b8:1e:25:f0:28:b7:45:14:
         dc:0b:70:bf:8b:70:85:bd:67:bb:36:3b:e0:e1:a0:ff:35:1b:
         c5:29:6d:7b:e8:ad:cf:c5:25:fe:7a:45:61:5a:d3:a8:e5:99:
         de:80:9d:ca:58:d0:55:12:cf:ba:50:b8:6a:d1:fb:4b:ba:e4:
         9f:ca:e3:ec:68:da:3b:f6:77:39:6e:74:40:8f:d8:47:4a:ca:
         cb:28:6d:a1:a4:26:0e:fc:39:e6:db:9d:b1:78:93:c5:d0:70:
         f8:64:5f:05:18:74:91:05:07:13:1e:4b:3c:75:a7:ca:80:f7:
         9c:0f:b9:90:c7:c6:93:d5:f3:8a:ac:db:0d:d7:3b:ae:61:88:
         04:ca:2a:64:5c:c6:84:e2:c7:32:3c:2d:93:f3:c5:12:98:1a:
         dd:d3:47:e3:67:5b:05:5a:12:32:82:62:db:ff:14:3f:c9:25:
         20:92:c4:a7:ef:14:25:a5
-----BEGIN CERTIFICATE-----
MIIHSDCCBTCgAwIBAgICAzcwDQYJKoZIhvcNAQEFBQAwgbQxCzAJBgNVBAYTAlVT
MQswCQYDVQQIEwJDQTEVMBMGA1UEBxMMU2FuRnJhbmNpc2NvMRUwEwYDVQQKEwxQ
aXhnbG8sIEluYy4xEDAOBgNVBAsTB1ZQTi1DSUUxGjAYBgNVBAMTEXR1bm5lbC5w
aXhnbG8uY29tMRwwGgYDVQQpExNCYWxhIENoYW5kcmFzZWthcmFuMR4wHAYJKoZI
hvcNAQkBFg9iYWxhQHBpeGdsby5jb20wHhcNMTgwMjE0MDY0NDQxWhcNMjgwMjEy
MDY0NDQxWjCBqTELMAkGA1UEBhMCVVMxCzAJBgNVBAgTAkNBMRUwEwYDVQQHEwxT
YW5GcmFuY2lzY28xFTATBgNVBAoTDFBpeGdsbywgSW5jLjEQMA4GA1UECxMHVlBO
LUNJRTEPMA0GA1UEAxMGY2llODIyMRwwGgYDVQQpExNCYWxhIENoYW5kcmFzZWth
cmFuMR4wHAYJKoZIhvcNAQkBFg9iYWxhQHBpeGdsby5jb20wggIiMA0GCSqGSIb3
DQEBAQUAA4ICDwAwggIKAoICAQDCyEaasCiyUWCfkQuz7zhGx4T8lMpPFb/PxYBT
HRdTUdKoJhVKWMpt0eA25si2CDDYKHU4aPGj0uUmFvNvv0ZsZuJ+uVw5livKvP0G
LWoNjJ/wpesvuPbyzx/YQ8GKsxGg6F9lYErlGpVetBRztLEg2NZXaUbF2FiBY8HL
5i5tBqOr22+Gg+KRV+2TESFiXzYgfZlxKh85O5UnLA/YfQf+Y4CMdoYk2YDLW+3G
qeiXtAclDyEbqaRf3C6cH1TsDHK+kIM37fsAy1TjC5NihQ6fZmFBmczes3I6r4EN
Iu92pcdPYr0QHDpvnAx8yL47DVfFPql+w2ypmbYzpeUHHR4YhEjYmTBYxd11R3cG
S1MCdCdF89VQSnGkTxrfSiAeTCymcG7FzXXnuAXQt85QijM1yze9g6TNqkcIC27q
Wx6TnOcvhxHebcBmQ0MAvlhhxsbrIxWdus0nlJm1NP077gsOH5ip7Z13AE36rWpP
voknJt4G9EXy61I2teJvz80xry5QTDgxrX9jcneOSx5ZLz4tLG4TZnJrApG3Dg6q
SEncvxMAMQjR7Twwhauon5cfHCLokGrzREmWEyGa1QFQ+nSXbNU1K1KT2gu0sAcP
7USMClQKngp4sPddU9uqYC9HrUVV9FqLnwBIYTRSWgDsIEL5Rm+zW6Fcj2FzwsFW
k11guwIDAQABo4IBazCCAWcwCQYDVR0TBAIwADAtBglghkgBhvhCAQ0EIBYeRWFz
eS1SU0EgR2VuZXJhdGVkIENlcnRpZmljYXRlMB0GA1UdDgQWBBRyG59beRO2BJ2U
rFT4VBrjmhns0zCB6QYDVR0jBIHhMIHegBTvOI0UUFinW02cF3L837msp1GwEKGB
uqSBtzCBtDELMAkGA1UEBhMCVVMxCzAJBgNVBAgTAkNBMRUwEwYDVQQHEwxTYW5G
cmFuY2lzY28xFTATBgNVBAoTDFBpeGdsbywgSW5jLjEQMA4GA1UECxMHVlBOLUNJ
RTEaMBgGA1UEAxMRdHVubmVsLnBpeGdsby5jb20xHDAaBgNVBCkTE0JhbGEgQ2hh
bmRyYXNla2FyYW4xHjAcBgkqhkiG9w0BCQEWD2JhbGFAcGl4Z2xvLmNvbYIJAKbb
xoOA5qB5MBMGA1UdJQQMMAoGCCsGAQUFBwMCMAsGA1UdDwQEAwIHgDANBgkqhkiG
9w0BAQUFAAOCAgEAw/7BiuMpoSjD+twQbrVxfpruTzcMPe6QceUCdaXFKhCuU3kL
YqYGWrpEy4Jx9+JGc6rBm94HgE8nWdk6Usfbr1LNqYqQbtJwnJM0dzHhze7k5SBv
rk+w5YOL/OY/cPZAQjjiOrARB1KfxpnatN5TUVoao56upQzQpLO2Gg4YNkpBMLEK
BLtkjylJCfo4Zrw4iUS9tJ78poJAFv7P5YJnpMHO002XgXWtIRBCkO2dDq4xlOeM
HOj5XB+F+wgA0OOm7TmJvyOPqe09h2YAai40+AHwAG5QoWrF3zQ1WfQGP1UvzeAb
4sjrRrC01Jvr66AZyhHTnTRxJkX5p8red3k3i6PdwB/XNIy+R5AtcvDd2w+GnYoQ
6fcrH1q0bkqPCljIaw7CK9ClqM6ff4Me7PPgMqEtGchtlKzvGXQMqSu/T4SqQiDW
9ZS9wttpSHLTS7geJfAot0UU3Atwv4twhb1nuzY74OGg/zUbxSlte+itz8Ul/npF
YVrTqOWZ3oCdyljQVRLPulC4atH7S7rkn8rj7GjaO/Z3OW50QI/YR0rKyyhtoaQm
Dvw55tudsXiTxdBw+GRfBRh0kQUHEx5LPHWnyoD3nA+5kMfGk9XziqzbDdc7rmGI
BMoqZFzGhOLHMjwtk/PFEpga3dNH42dbBVoSMoJi2/8UP8klIJLEp+8UJaU=
-----END CERTIFICATE-----
