Certificate:
    Data:
        Version: 3 (0x2)
        Serial Number: 825 (0x339)
    Signature Algorithm: sha1WithRSAEncryption
        Issuer: C=US, ST=CA, L=SanFrancisco, O=Pixglo, Inc., OU=VPN-CIE, CN=tunnel.pixglo.com/name=Bala Chandrasekaran/emailAddress=bala@pixglo.com
        Validity
            Not Before: Feb 14 06:44:42 2018 GMT
            Not After : Feb 12 06:44:42 2028 GMT
        Subject: C=US, ST=CA, L=SanFrancisco, O=Pixglo, Inc., OU=VPN-CIE, CN=cie824/name=Bala Chandrasekaran/emailAddress=bala@pixglo.com
        Subject Public Key Info:
            Public Key Algorithm: rsaEncryption
                Public-Key: (4096 bit)
                Modulus:
                    00:e7:46:ff:93:a3:c2:c7:74:1f:ca:76:8e:cc:ff:
                    06:b0:c7:34:d2:6c:ae:7e:46:80:81:b5:7f:48:56:
                    cd:c6:c0:bd:c1:38:aa:fb:50:24:d1:ab:a0:7c:a0:
                    22:86:68:ca:d1:40:04:7f:1e:de:ee:a6:2a:03:a6:
                    b1:fd:ee:75:69:e9:f3:92:09:fb:1c:68:1d:53:a8:
                    a1:c9:a8:ae:54:b0:90:d2:9b:f9:ba:d1:c5:76:1b:
                    bc:05:b9:ec:ed:e6:aa:05:49:db:df:6a:6d:37:22:
                    a0:21:d1:4d:34:07:96:89:f4:a8:85:2f:57:42:c9:
                    f6:f1:10:2f:9e:6b:ed:ec:61:c0:ac:7d:7c:4c:c5:
                    0e:12:41:86:79:c5:7c:02:52:92:43:69:e8:c9:9c:
                    2a:86:20:08:34:d5:fc:9a:d9:60:14:94:9c:81:bb:
                    e6:63:97:4c:07:b3:60:71:a7:30:a6:7c:59:e3:68:
                    e4:62:bc:73:49:66:5e:9b:29:92:bf:40:04:0e:1c:
                    60:c6:88:ac:dc:05:c9:7e:95:b4:9f:4c:b3:8f:24:
                    89:ad:02:0f:7f:75:77:af:90:84:8f:4f:97:c3:30:
                    06:0e:aa:8a:59:77:30:3d:7a:50:87:17:0b:bd:9d:
                    1a:d3:b6:71:52:29:42:03:6c:d0:40:13:31:c0:5f:
                    1d:a5:f9:2d:8d:6a:58:25:fb:d5:9b:f9:95:94:87:
                    de:22:95:12:3a:d7:4c:b0:75:ff:76:7d:45:50:86:
                    27:1b:4e:b9:94:7f:81:b8:5f:b0:2c:4e:c8:24:c8:
                    4d:6b:af:0d:f2:3b:af:14:9d:83:33:ef:3e:0d:f8:
                    6e:f0:ef:37:8e:2e:2e:44:aa:9a:c2:bc:f7:c2:a0:
                    1c:f8:96:d6:26:da:2c:96:a6:0b:15:81:98:fb:93:
                    9e:7d:20:22:2d:e3:80:bd:e5:60:1b:cc:55:de:eb:
                    b9:97:94:ba:cd:6d:7b:85:e4:91:85:07:2a:af:ab:
                    8f:12:7f:0c:0c:a4:ed:e2:e3:58:74:f0:bb:ac:bf:
                    92:fe:fa:9c:2b:6f:08:4a:bd:84:50:61:b6:f4:dc:
                    92:a0:b4:36:7c:9a:a6:b0:01:07:5f:db:c5:aa:ab:
                    9f:9a:cd:8f:28:6a:38:b2:01:54:bd:66:61:24:6a:
                    b6:e5:0a:bf:7e:ce:a8:98:9e:12:1a:2f:88:cc:58:
                    b6:c2:95:04:cd:29:f5:a2:c8:8e:2c:63:68:87:2f:
                    5c:ae:6a:07:c3:79:ce:f9:45:78:d5:f8:f2:94:fa:
                    dd:ad:42:24:da:63:e1:1c:71:31:92:31:48:b8:35:
                    47:4d:25:45:af:22:8d:f4:29:6a:f3:2c:d1:bc:48:
                    b7:be:39
                Exponent: 65537 (0x10001)
        X509v3 extensions:
            X509v3 Basic Constraints: 
                CA:FALSE
            Netscape Comment: 
                Easy-RSA Generated Certificate
            X509v3 Subject Key Identifier: 
                80:02:85:41:8E:38:84:71:7E:B7:3C:DC:11:D4:25:AA:AA:CC:3B:CC
            X509v3 Authority Key Identifier: 
                keyid:EF:38:8D:14:50:58:A7:5B:4D:9C:17:72:FC:DF:B9:AC:A7:51:B0:10
                DirName:/C=US/ST=CA/L=SanFrancisco/O=Pixglo, Inc./OU=VPN-CIE/CN=tunnel.pixglo.com/name=Bala Chandrasekaran/emailAddress=bala@pixglo.com
                serial:A6:DB:C6:83:80:E6:A0:79

            X509v3 Extended Key Usage: 
                TLS Web Client Authentication
            X509v3 Key Usage: 
                Digital Signature
    Signature Algorithm: sha1WithRSAEncryption
         d3:9a:80:a0:02:e1:01:67:39:99:3e:5e:d2:62:6d:ea:96:07:
         85:6a:a8:21:40:8f:1f:85:12:28:f4:38:52:47:fb:17:7c:ca:
         0d:0b:02:dc:54:e2:a3:8d:85:1e:3b:c5:2b:c4:2f:cf:70:ac:
         1f:31:ec:6a:6f:5f:10:69:d6:c7:18:0a:05:d5:16:b7:e2:66:
         c5:e6:41:af:6a:3e:c6:03:8d:07:de:84:9c:c3:ce:32:f5:a0:
         b2:4a:28:ae:94:db:03:93:46:46:8d:07:16:15:8f:f6:aa:43:
         d5:e7:5a:08:8e:dc:b9:6e:50:61:71:f3:36:37:dc:31:d3:a5:
         b4:79:49:f1:fb:6c:4f:17:f8:a5:15:ad:b0:b5:9b:c1:a3:e9:
         c4:cd:88:2f:ad:8b:00:25:f3:9b:1f:3f:ae:c9:1e:d8:e0:f6:
         56:0c:4e:32:b0:7b:c0:d3:83:e2:03:57:91:0f:7b:cd:7f:38:
         43:09:f2:88:46:50:f9:c8:ea:bd:ea:6e:8c:17:55:7a:25:1f:
         2e:06:5b:19:4a:b2:a9:51:af:f6:b2:7f:43:12:36:37:3f:54:
         fc:1e:4b:74:f4:7a:11:d4:91:24:15:03:81:ad:ae:74:62:47:
         80:79:8e:4b:68:1d:13:13:55:f2:ed:5f:10:ec:6f:8c:11:5e:
         1d:cc:21:f0:d2:36:d8:74:0d:3b:75:2d:cb:69:ea:bf:6b:53:
         60:23:9f:f7:b5:c5:96:25:5b:84:a5:3f:3a:10:46:59:bc:e5:
         0d:7f:82:18:76:d2:50:a2:cb:21:63:a7:d7:ed:c8:92:ac:10:
         2a:ce:8f:06:97:fa:d5:8c:5a:53:17:96:26:4c:d1:e7:45:29:
         f6:a5:1a:d7:68:84:06:70:6f:8e:06:f1:2b:f3:80:d9:f1:c0:
         3a:3c:2d:f3:74:2a:ed:ba:f8:cc:19:87:7d:b3:91:cc:eb:4b:
         57:51:bd:35:53:1f:f6:7f:6c:6a:80:40:a4:e2:53:e6:b0:6c:
         58:1e:47:c7:33:60:fc:f4:4a:53:ec:91:70:af:0c:da:f6:2b:
         a1:41:e2:97:fc:7b:6c:b7:aa:fd:38:e1:98:ed:11:25:c6:f9:
         26:0c:f5:95:e1:04:d2:7c:10:0b:06:c3:20:b1:dc:5d:5c:28:
         25:50:ac:f7:52:ed:3a:2c:da:af:77:77:34:57:97:dd:c8:da:
         95:77:29:ff:c4:da:eb:13:d1:61:22:aa:47:68:b2:37:18:c8:
         90:d0:70:fd:63:b0:47:5b:d5:45:a4:55:71:15:7f:7c:65:07:
         ba:09:8c:db:ef:6c:b1:ec:eb:06:53:c1:33:d1:61:6f:8c:ff:
         f7:01:42:59:da:6d:47:d7
-----BEGIN CERTIFICATE-----
MIIHSDCCBTCgAwIBAgICAzkwDQYJKoZIhvcNAQEFBQAwgbQxCzAJBgNVBAYTAlVT
MQswCQYDVQQIEwJDQTEVMBMGA1UEBxMMU2FuRnJhbmNpc2NvMRUwEwYDVQQKEwxQ
aXhnbG8sIEluYy4xEDAOBgNVBAsTB1ZQTi1DSUUxGjAYBgNVBAMTEXR1bm5lbC5w
aXhnbG8uY29tMRwwGgYDVQQpExNCYWxhIENoYW5kcmFzZWthcmFuMR4wHAYJKoZI
hvcNAQkBFg9iYWxhQHBpeGdsby5jb20wHhcNMTgwMjE0MDY0NDQyWhcNMjgwMjEy
MDY0NDQyWjCBqTELMAkGA1UEBhMCVVMxCzAJBgNVBAgTAkNBMRUwEwYDVQQHEwxT
YW5GcmFuY2lzY28xFTATBgNVBAoTDFBpeGdsbywgSW5jLjEQMA4GA1UECxMHVlBO
LUNJRTEPMA0GA1UEAxMGY2llODI0MRwwGgYDVQQpExNCYWxhIENoYW5kcmFzZWth
cmFuMR4wHAYJKoZIhvcNAQkBFg9iYWxhQHBpeGdsby5jb20wggIiMA0GCSqGSIb3
DQEBAQUAA4ICDwAwggIKAoICAQDnRv+To8LHdB/Kdo7M/wawxzTSbK5+RoCBtX9I
Vs3GwL3BOKr7UCTRq6B8oCKGaMrRQAR/Ht7upioDprH97nVp6fOSCfscaB1TqKHJ
qK5UsJDSm/m60cV2G7wFuezt5qoFSdvfam03IqAh0U00B5aJ9KiFL1dCyfbxEC+e
a+3sYcCsfXxMxQ4SQYZ5xXwCUpJDaejJnCqGIAg01fya2WAUlJyBu+Zjl0wHs2Bx
pzCmfFnjaORivHNJZl6bKZK/QAQOHGDGiKzcBcl+lbSfTLOPJImtAg9/dXevkISP
T5fDMAYOqopZdzA9elCHFwu9nRrTtnFSKUIDbNBAEzHAXx2l+S2Nalgl+9Wb+ZWU
h94ilRI610ywdf92fUVQhicbTrmUf4G4X7AsTsgkyE1rrw3yO68UnYMz7z4N+G7w
7zeOLi5EqprCvPfCoBz4ltYm2iyWpgsVgZj7k559ICIt44C95WAbzFXe67mXlLrN
bXuF5JGFByqvq48SfwwMpO3i41h08Lusv5L++pwrbwhKvYRQYbb03JKgtDZ8mqaw
AQdf28Wqq5+azY8oajiyAVS9ZmEkarblCr9+zqiYnhIaL4jMWLbClQTNKfWiyI4s
Y2iHL1yuagfDec75RXjV+PKU+t2tQiTaY+EccTGSMUi4NUdNJUWvIo30KWrzLNG8
SLe+OQIDAQABo4IBazCCAWcwCQYDVR0TBAIwADAtBglghkgBhvhCAQ0EIBYeRWFz
eS1SU0EgR2VuZXJhdGVkIENlcnRpZmljYXRlMB0GA1UdDgQWBBSAAoVBjjiEcX63
PNwR1CWqqsw7zDCB6QYDVR0jBIHhMIHegBTvOI0UUFinW02cF3L837msp1GwEKGB
uqSBtzCBtDELMAkGA1UEBhMCVVMxCzAJBgNVBAgTAkNBMRUwEwYDVQQHEwxTYW5G
cmFuY2lzY28xFTATBgNVBAoTDFBpeGdsbywgSW5jLjEQMA4GA1UECxMHVlBOLUNJ
RTEaMBgGA1UEAxMRdHVubmVsLnBpeGdsby5jb20xHDAaBgNVBCkTE0JhbGEgQ2hh
bmRyYXNla2FyYW4xHjAcBgkqhkiG9w0BCQEWD2JhbGFAcGl4Z2xvLmNvbYIJAKbb
xoOA5qB5MBMGA1UdJQQMMAoGCCsGAQUFBwMCMAsGA1UdDwQEAwIHgDANBgkqhkiG
9w0BAQUFAAOCAgEA05qAoALhAWc5mT5e0mJt6pYHhWqoIUCPH4USKPQ4Ukf7F3zK
DQsC3FTio42FHjvFK8Qvz3CsHzHsam9fEGnWxxgKBdUWt+JmxeZBr2o+xgONB96E
nMPOMvWgskoorpTbA5NGRo0HFhWP9qpD1edaCI7cuW5QYXHzNjfcMdOltHlJ8fts
Txf4pRWtsLWbwaPpxM2IL62LACXzmx8/rske2OD2VgxOMrB7wNOD4gNXkQ97zX84
QwnyiEZQ+cjqvepujBdVeiUfLgZbGUqyqVGv9rJ/QxI2Nz9U/B5LdPR6EdSRJBUD
ga2udGJHgHmOS2gdExNV8u1fEOxvjBFeHcwh8NI22HQNO3Uty2nqv2tTYCOf97XF
liVbhKU/OhBGWbzlDX+CGHbSUKLLIWOn1+3IkqwQKs6PBpf61YxaUxeWJkzR50Up
9qUa12iEBnBvjgbxK/OA2fHAOjwt83Qq7br4zBmHfbORzOtLV1G9NVMf9n9saoBA
pOJT5rBsWB5HxzNg/PRKU+yRcK8M2vYroUHil/x7bLeq/TjhmO0RJcb5Jgz1leEE
0nwQCwbDILHcXVwoJVCs91LtOizar3d3NFeX3cjalXcp/8Ta6xPRYSKqR2iyNxjI
kNBw/WOwR1vVRaRVcRV/fGUHugmM2+9ssezrBlPBM9Fhb4z/9wFCWdptR9c=
-----END CERTIFICATE-----
