Certificate:
    Data:
        Version: 3 (0x2)
        Serial Number: 828 (0x33c)
    Signature Algorithm: sha1WithRSAEncryption
        Issuer: C=US, ST=CA, L=SanFrancisco, O=Pixglo, Inc., OU=VPN-CIE, CN=tunnel.pixglo.com/name=Bala Chandrasekaran/emailAddress=bala@pixglo.com
        Validity
            Not Before: Feb 14 06:44:47 2018 GMT
            Not After : Feb 12 06:44:47 2028 GMT
        Subject: C=US, ST=CA, L=SanFrancisco, O=Pixglo, Inc., OU=VPN-CIE, CN=cie827/name=Bala Chandrasekaran/emailAddress=bala@pixglo.com
        Subject Public Key Info:
            Public Key Algorithm: rsaEncryption
                Public-Key: (4096 bit)
                Modulus:
                    00:c8:bc:7f:90:bc:ce:03:f9:4c:1a:1d:33:1c:53:
                    73:8c:b1:4e:b4:b1:2f:33:0a:b6:be:c4:bc:b9:20:
                    94:df:41:5a:e1:88:9b:97:78:f0:15:51:79:0d:c4:
                    79:d1:00:84:5f:b8:05:08:f0:93:98:0b:6c:d9:22:
                    c9:dd:c5:9c:f2:0f:ad:92:42:fd:cd:1d:35:c3:86:
                    ef:ec:63:c4:cf:fa:57:89:73:f4:fe:ce:98:7f:5b:
                    c0:2a:c9:83:6f:34:ab:a9:c4:3a:e3:f8:06:aa:89:
                    25:27:ba:58:80:6d:9a:7f:2e:5e:4d:e3:d2:f2:9c:
                    07:c1:d2:d6:b7:e6:31:80:01:0a:d4:f0:1b:9a:d8:
                    2f:6b:e6:6e:5f:c5:35:83:af:0b:17:13:6b:b0:2c:
                    46:16:b4:4e:3c:fe:fb:fe:32:d3:8c:e2:99:1c:a5:
                    e3:ab:bf:67:57:63:c2:5f:0e:28:68:dc:ce:2b:72:
                    fe:fe:17:7f:bf:ce:49:3d:51:ad:b3:fb:50:8b:11:
                    52:23:5a:2b:44:19:a3:de:40:74:dc:7e:ec:a7:b3:
                    21:16:15:af:e6:69:b0:b8:2d:a3:b7:f1:50:85:39:
                    05:54:8c:42:18:51:99:81:a8:48:c0:bc:eb:6c:e7:
                    0c:08:9b:f8:d5:86:3d:c3:a2:ad:d9:19:4c:8a:ce:
                    4d:87:37:36:8a:a0:bc:0a:5e:47:d5:2c:01:1a:fc:
                    34:ef:d1:e7:40:24:5e:35:99:ea:ae:40:09:6d:47:
                    29:95:cf:7c:24:08:98:46:cd:f2:db:ac:9e:b6:97:
                    cf:25:f6:67:ee:8b:aa:01:02:be:29:51:51:5b:79:
                    ad:42:bb:2c:2d:5f:9a:3c:8c:4b:a3:73:f4:8a:80:
                    7a:75:6a:a9:40:a4:82:e4:d0:b5:84:69:39:fa:90:
                    1c:a5:9b:72:09:c4:b7:ca:7c:42:93:3a:87:94:c4:
                    25:9b:28:53:ff:10:e6:99:0c:67:bf:26:1e:98:69:
                    e7:6d:31:97:5a:e2:1f:b4:95:d3:09:11:33:b3:6e:
                    b2:08:aa:f7:64:b1:13:a1:f7:5c:3b:5a:28:21:ee:
                    99:5d:b5:3c:8f:ad:d0:7d:f6:f1:2c:3e:33:4f:36:
                    1e:f5:a6:fc:3b:56:ad:a8:3a:60:dd:7f:6a:e6:49:
                    0a:a3:8c:3a:87:41:59:4a:b0:d8:79:5f:52:9c:e1:
                    84:eb:fc:55:ac:63:c8:d5:2c:84:a4:27:c7:c7:dd:
                    8b:41:a9:ba:4a:34:bb:f0:9f:0a:94:05:82:1f:1d:
                    d7:3a:b7:1a:a0:73:1f:03:32:e1:36:71:25:95:ff:
                    d2:be:81:7b:2f:5a:93:11:be:af:ad:15:8c:6c:37:
                    71:b9:f5
                Exponent: 65537 (0x10001)
        X509v3 extensions:
            X509v3 Basic Constraints: 
                CA:FALSE
            Netscape Comment: 
                Easy-RSA Generated Certificate
            X509v3 Subject Key Identifier: 
                DC:06:0E:30:52:06:82:D4:1A:77:9A:C5:26:C7:42:BB:EC:7B:BC:65
            X509v3 Authority Key Identifier: 
                keyid:EF:38:8D:14:50:58:A7:5B:4D:9C:17:72:FC:DF:B9:AC:A7:51:B0:10
                DirName:/C=US/ST=CA/L=SanFrancisco/O=Pixglo, Inc./OU=VPN-CIE/CN=tunnel.pixglo.com/name=Bala Chandrasekaran/emailAddress=bala@pixglo.com
                serial:A6:DB:C6:83:80:E6:A0:79

            X509v3 Extended Key Usage: 
                TLS Web Client Authentication
            X509v3 Key Usage: 
                Digital Signature
    Signature Algorithm: sha1WithRSAEncryption
         ce:d8:f4:9c:a8:f2:9d:3b:4a:cc:c5:ca:bb:ee:10:ea:a7:76:
         5c:99:a4:58:e1:76:59:89:8f:2a:0b:2c:35:23:fb:b2:7a:f4:
         9c:5c:6c:12:de:96:3b:ca:de:14:84:73:27:dc:b9:8d:0d:42:
         b7:86:14:a1:1d:f3:af:17:08:9c:c0:b4:f7:df:6f:17:fc:eb:
         be:93:67:23:da:e9:fc:0e:55:87:08:a3:ab:e2:5d:5a:22:4a:
         50:21:32:0a:6a:8f:54:e8:da:dd:ba:12:4f:05:6e:f5:06:89:
         8d:97:36:0b:1d:c8:67:9e:79:4e:3d:9b:c5:fa:05:a3:55:6c:
         18:2d:91:bd:6c:71:0a:34:fe:16:fb:7c:5c:c9:d0:03:90:27:
         17:df:f3:11:da:91:cc:85:53:cd:1f:6b:f4:01:e8:c7:2a:98:
         a9:dc:b0:06:b5:af:92:39:79:3b:b4:a6:f7:49:67:16:1e:61:
         21:15:0f:47:ef:3b:a1:bf:cf:81:72:19:68:d1:80:8d:2c:d5:
         7f:e6:b5:9f:f5:63:ff:45:3e:5d:5a:56:4a:3c:f1:8e:83:4b:
         16:2e:ad:41:8a:8a:e8:3c:2d:8a:6b:90:15:5a:21:b1:05:ee:
         d7:36:12:a1:90:d2:2f:6e:e6:84:e9:7f:cd:d2:12:dd:1a:41:
         85:aa:22:fd:9a:27:15:ee:60:54:5f:63:94:9f:df:7d:b2:4c:
         91:91:34:17:00:49:4b:0f:10:82:98:bd:28:0e:27:d9:25:ee:
         d7:cf:02:a2:ba:d0:b7:b6:6b:60:83:8b:12:af:ef:7a:4a:df:
         b6:84:44:22:d3:1b:b6:3b:e3:03:c1:3d:d8:4e:02:1a:d3:0b:
         42:b8:37:c0:f6:1e:40:5d:ab:d8:e1:ec:b1:ba:31:80:46:7b:
         66:1d:cd:5d:5e:99:ba:6f:68:99:53:4e:e1:d8:5b:fc:0d:d7:
         7f:df:e3:57:95:b6:3a:58:3d:d8:69:8c:1f:1d:87:8e:7f:47:
         9c:e8:d7:50:fc:0c:ad:bb:d3:a6:25:22:63:16:eb:71:7a:4d:
         6c:67:5b:f8:b4:1f:0a:84:ad:01:fa:a5:2f:33:f7:5a:a4:fd:
         81:aa:8a:9c:da:61:a4:05:02:72:12:67:e2:32:c6:74:46:79:
         d9:6b:6c:65:0b:81:92:73:30:f8:f4:74:ae:13:d4:21:ef:1f:
         4f:69:1b:07:c3:64:78:aa:b2:8d:4d:56:99:5e:13:0d:7a:39:
         c9:ca:0a:31:d6:be:b0:b5:e5:22:b1:de:a4:77:29:a8:5d:7b:
         fd:76:40:90:1a:5f:6a:a4:b2:97:21:4c:a9:ba:49:4e:9a:cb:
         5f:79:3d:ef:d5:4b:23:fe
-----BEGIN CERTIFICATE-----
MIIHSDCCBTCgAwIBAgICAzwwDQYJKoZIhvcNAQEFBQAwgbQxCzAJBgNVBAYTAlVT
MQswCQYDVQQIEwJDQTEVMBMGA1UEBxMMU2FuRnJhbmNpc2NvMRUwEwYDVQQKEwxQ
aXhnbG8sIEluYy4xEDAOBgNVBAsTB1ZQTi1DSUUxGjAYBgNVBAMTEXR1bm5lbC5w
aXhnbG8uY29tMRwwGgYDVQQpExNCYWxhIENoYW5kcmFzZWthcmFuMR4wHAYJKoZI
hvcNAQkBFg9iYWxhQHBpeGdsby5jb20wHhcNMTgwMjE0MDY0NDQ3WhcNMjgwMjEy
MDY0NDQ3WjCBqTELMAkGA1UEBhMCVVMxCzAJBgNVBAgTAkNBMRUwEwYDVQQHEwxT
YW5GcmFuY2lzY28xFTATBgNVBAoTDFBpeGdsbywgSW5jLjEQMA4GA1UECxMHVlBO
LUNJRTEPMA0GA1UEAxMGY2llODI3MRwwGgYDVQQpExNCYWxhIENoYW5kcmFzZWth
cmFuMR4wHAYJKoZIhvcNAQkBFg9iYWxhQHBpeGdsby5jb20wggIiMA0GCSqGSIb3
DQEBAQUAA4ICDwAwggIKAoICAQDIvH+QvM4D+UwaHTMcU3OMsU60sS8zCra+xLy5
IJTfQVrhiJuXePAVUXkNxHnRAIRfuAUI8JOYC2zZIsndxZzyD62SQv3NHTXDhu/s
Y8TP+leJc/T+zph/W8AqyYNvNKupxDrj+AaqiSUnuliAbZp/Ll5N49LynAfB0ta3
5jGAAQrU8Bua2C9r5m5fxTWDrwsXE2uwLEYWtE48/vv+MtOM4pkcpeOrv2dXY8Jf
Diho3M4rcv7+F3+/zkk9Ua2z+1CLEVIjWitEGaPeQHTcfuynsyEWFa/mabC4LaO3
8VCFOQVUjEIYUZmBqEjAvOts5wwIm/jVhj3Doq3ZGUyKzk2HNzaKoLwKXkfVLAEa
/DTv0edAJF41mequQAltRymVz3wkCJhGzfLbrJ62l88l9mfui6oBAr4pUVFbea1C
uywtX5o8jEujc/SKgHp1aqlApILk0LWEaTn6kBylm3IJxLfKfEKTOoeUxCWbKFP/
EOaZDGe/Jh6YaedtMZda4h+0ldMJETOzbrIIqvdksROh91w7Wigh7pldtTyPrdB9
9vEsPjNPNh71pvw7Vq2oOmDdf2rmSQqjjDqHQVlKsNh5X1Kc4YTr/FWsY8jVLISk
J8fH3YtBqbpKNLvwnwqUBYIfHdc6txqgcx8DMuE2cSWV/9K+gXsvWpMRvq+tFYxs
N3G59QIDAQABo4IBazCCAWcwCQYDVR0TBAIwADAtBglghkgBhvhCAQ0EIBYeRWFz
eS1SU0EgR2VuZXJhdGVkIENlcnRpZmljYXRlMB0GA1UdDgQWBBTcBg4wUgaC1Bp3
msUmx0K77Hu8ZTCB6QYDVR0jBIHhMIHegBTvOI0UUFinW02cF3L837msp1GwEKGB
uqSBtzCBtDELMAkGA1UEBhMCVVMxCzAJBgNVBAgTAkNBMRUwEwYDVQQHEwxTYW5G
cmFuY2lzY28xFTATBgNVBAoTDFBpeGdsbywgSW5jLjEQMA4GA1UECxMHVlBOLUNJ
RTEaMBgGA1UEAxMRdHVubmVsLnBpeGdsby5jb20xHDAaBgNVBCkTE0JhbGEgQ2hh
bmRyYXNla2FyYW4xHjAcBgkqhkiG9w0BCQEWD2JhbGFAcGl4Z2xvLmNvbYIJAKbb
xoOA5qB5MBMGA1UdJQQMMAoGCCsGAQUFBwMCMAsGA1UdDwQEAwIHgDANBgkqhkiG
9w0BAQUFAAOCAgEAztj0nKjynTtKzMXKu+4Q6qd2XJmkWOF2WYmPKgssNSP7snr0
nFxsEt6WO8reFIRzJ9y5jQ1Ct4YUoR3zrxcInMC0999vF/zrvpNnI9rp/A5Vhwij
q+JdWiJKUCEyCmqPVOja3boSTwVu9QaJjZc2Cx3IZ555Tj2bxfoFo1VsGC2RvWxx
CjT+Fvt8XMnQA5AnF9/zEdqRzIVTzR9r9AHoxyqYqdywBrWvkjl5O7Sm90lnFh5h
IRUPR+87ob/PgXIZaNGAjSzVf+a1n/Vj/0U+XVpWSjzxjoNLFi6tQYqK6DwtimuQ
FVohsQXu1zYSoZDSL27mhOl/zdIS3RpBhaoi/ZonFe5gVF9jlJ/ffbJMkZE0FwBJ
Sw8Qgpi9KA4n2SXu188CorrQt7ZrYIOLEq/vekrftoREItMbtjvjA8E92E4CGtML
Qrg3wPYeQF2r2OHssboxgEZ7Zh3NXV6Zum9omVNO4dhb/A3Xf9/jV5W2Olg92GmM
Hx2Hjn9HnOjXUPwMrbvTpiUiYxbrcXpNbGdb+LQfCoStAfqlLzP3WqT9gaqKnNph
pAUCchJn4jLGdEZ52WtsZQuBknMw+PR0rhPUIe8fT2kbB8NkeKqyjU1WmV4TDXo5
ycoKMda+sLXlIrHepHcpqF17/XZAkBpfaqSylyFMqbpJTprLX3k979VLI/4=
-----END CERTIFICATE-----
