Certificate:
    Data:
        Version: 3 (0x2)
        Serial Number: 829 (0x33d)
    Signature Algorithm: sha1WithRSAEncryption
        Issuer: C=US, ST=CA, L=SanFrancisco, O=Pixglo, Inc., OU=VPN-CIE, CN=tunnel.pixglo.com/name=Bala Chandrasekaran/emailAddress=bala@pixglo.com
        Validity
            Not Before: Feb 14 06:44:49 2018 GMT
            Not After : Feb 12 06:44:49 2028 GMT
        Subject: C=US, ST=CA, L=SanFrancisco, O=Pixglo, Inc., OU=VPN-CIE, CN=cie828/name=Bala Chandrasekaran/emailAddress=bala@pixglo.com
        Subject Public Key Info:
            Public Key Algorithm: rsaEncryption
                Public-Key: (4096 bit)
                Modulus:
                    00:ad:fb:64:9a:ea:89:ba:68:08:c7:ed:28:e4:60:
                    d0:18:0d:0e:36:8c:19:e6:dc:32:40:09:a8:9e:e8:
                    30:a1:a1:c5:74:e8:21:10:bb:83:b9:53:98:f0:c6:
                    c3:0c:f5:3b:1a:74:c1:95:12:26:10:31:59:e3:2f:
                    9d:a3:70:2f:80:af:01:98:38:b2:c2:8f:4d:ff:3b:
                    cb:64:5f:1b:34:ac:59:64:3f:27:a7:c0:f9:5a:fe:
                    fe:b5:09:99:14:88:43:80:7c:33:2f:37:8e:a7:cc:
                    48:1e:ae:1c:f7:82:b2:7e:82:5f:43:35:fc:18:c5:
                    32:dd:21:62:82:f6:b4:a0:da:df:41:67:1e:44:25:
                    c0:d7:3d:99:a5:95:17:4e:dd:2f:28:e8:81:82:db:
                    76:d6:b1:0c:e6:8e:61:fd:fc:e5:cd:d6:53:e6:84:
                    eb:39:e4:6d:cc:fc:4d:e9:ed:d5:71:7d:20:74:f2:
                    5a:c6:37:a5:fb:7d:d2:70:d9:c6:69:43:3a:11:dd:
                    df:b1:c8:dd:fb:eb:50:49:5b:d6:48:2f:b0:4a:3b:
                    e5:08:d6:85:0d:76:c3:0a:d1:91:ea:47:04:39:15:
                    15:ed:5d:40:6e:60:2f:fc:4f:69:a9:b7:b9:07:a1:
                    70:80:31:79:93:b8:05:f3:6b:bc:55:28:38:bc:f9:
                    c5:db:5f:d8:e7:06:76:7e:4e:05:d5:53:42:cc:0e:
                    98:df:eb:00:e2:bb:9e:0a:ce:ba:49:2e:83:d4:7a:
                    f6:cd:4b:84:d3:0f:0d:c2:32:b3:2d:67:c4:74:98:
                    24:f4:08:cf:ac:67:df:e0:e2:c5:96:53:ac:3a:b3:
                    8b:59:7c:18:55:76:e2:d7:68:dd:71:b2:2f:35:39:
                    c0:f5:e9:23:fa:c3:31:04:50:a2:a1:88:bd:7b:b0:
                    18:ba:fe:dc:48:63:40:b2:4c:8e:b4:66:58:6d:cc:
                    e0:9e:67:3f:65:1a:ed:fc:b0:54:95:f4:69:99:64:
                    fc:31:10:fc:a5:a6:ca:2b:76:66:82:de:19:5b:c3:
                    7f:2f:cc:38:3a:f7:ff:12:9c:5d:22:32:74:37:b9:
                    27:ec:5a:6e:05:06:13:6c:aa:94:2a:b4:07:76:c5:
                    36:34:b4:6d:21:9b:27:b5:8b:83:30:5f:82:65:eb:
                    f7:97:47:c1:e3:cd:db:2d:ac:62:dd:90:fa:77:d4:
                    53:60:4e:83:3d:fb:13:7b:e7:02:56:11:b3:6b:19:
                    48:a2:98:09:1c:2a:98:f4:13:cd:55:a1:78:53:d4:
                    9b:02:0f:2b:5f:d7:28:cc:67:0d:0d:26:3c:54:28:
                    71:a9:6b:a6:52:dd:4c:d1:72:59:08:c8:35:bb:41:
                    94:6b:45
                Exponent: 65537 (0x10001)
        X509v3 extensions:
            X509v3 Basic Constraints: 
                CA:FALSE
            Netscape Comment: 
                Easy-RSA Generated Certificate
            X509v3 Subject Key Identifier: 
                05:64:EE:FF:7D:CA:7E:2E:9B:F7:AC:63:DD:51:03:E4:6A:00:2A:83
            X509v3 Authority Key Identifier: 
                keyid:EF:38:8D:14:50:58:A7:5B:4D:9C:17:72:FC:DF:B9:AC:A7:51:B0:10
                DirName:/C=US/ST=CA/L=SanFrancisco/O=Pixglo, Inc./OU=VPN-CIE/CN=tunnel.pixglo.com/name=Bala Chandrasekaran/emailAddress=bala@pixglo.com
                serial:A6:DB:C6:83:80:E6:A0:79

            X509v3 Extended Key Usage: 
                TLS Web Client Authentication
            X509v3 Key Usage: 
                Digital Signature
    Signature Algorithm: sha1WithRSAEncryption
         11:e0:19:11:bd:d2:25:fd:d5:18:4d:9e:58:fb:9e:1c:b3:55:
         41:e4:5c:f8:28:6b:71:df:1e:78:9c:15:3f:1a:53:0c:31:28:
         68:29:9a:4f:59:ef:fd:1f:f1:37:7b:1f:57:f2:8b:53:b5:db:
         56:51:38:e9:db:82:be:a2:ec:7a:61:0b:91:8a:52:a0:da:4a:
         69:12:26:40:ba:6e:a3:e8:b6:57:68:25:cf:6d:56:2f:7b:b4:
         a2:f3:97:4e:13:d5:05:d8:d2:f1:62:fc:f7:6d:28:e1:7d:6c:
         85:85:f7:da:fe:c1:a4:36:95:ec:4d:b0:fb:11:81:44:c3:70:
         b2:11:67:67:fb:a2:d3:03:16:45:5f:f6:b2:40:9d:b2:25:a1:
         3d:2b:f6:28:7b:43:e2:3f:39:10:06:d4:7b:87:6b:89:3e:23:
         21:4c:11:0c:ec:89:ed:db:7c:ef:2d:b7:fb:a7:ce:d8:53:a8:
         bb:25:b0:f4:9c:7d:21:53:da:07:b8:e0:1d:61:9b:ea:f9:31:
         f7:66:29:b1:de:5f:9d:50:57:a8:23:b3:51:31:eb:a0:ad:d1:
         55:02:eb:52:5f:a8:7b:b0:ae:7a:3b:27:22:cd:96:e7:c8:58:
         87:2d:ca:ad:3c:9e:6c:a5:a1:cf:64:73:18:89:1a:da:91:9a:
         ae:f6:9b:8a:41:7f:7e:a3:bb:53:fb:1a:68:f9:8f:c7:ed:b5:
         25:52:05:86:11:c7:4a:c2:18:ac:35:06:09:fd:32:67:fd:63:
         0b:80:fb:39:bd:72:ee:1b:3a:43:b7:d8:8b:3f:b4:17:2c:27:
         eb:f5:d9:d2:09:61:37:58:74:e7:57:d1:86:aa:9b:62:73:86:
         69:12:33:54:36:7b:70:ca:ee:b1:ff:1b:7c:30:bf:90:87:d8:
         0b:1a:5a:5b:73:64:85:b5:dd:e4:6d:22:c6:be:3b:71:fd:14:
         53:09:e8:e9:0f:17:20:2c:12:17:8a:f9:94:58:d5:89:35:ee:
         e6:ae:e9:63:fc:f8:29:47:e0:c0:85:1c:f6:ed:56:36:44:60:
         53:5e:27:3f:58:7d:bd:cc:f4:55:98:76:f2:be:84:19:64:8e:
         15:a2:56:77:c6:39:89:53:37:bd:03:fb:38:94:49:6e:30:7f:
         f2:e1:6a:c1:7e:05:24:4b:5d:fc:f6:93:33:73:cb:2c:31:10:
         42:dd:12:90:aa:d6:11:96:e4:95:2d:ed:e3:8d:6b:36:cd:be:
         f7:e0:7d:56:aa:d9:37:8e:88:c9:f3:2c:09:cc:a7:1f:06:61:
         56:4a:53:89:4a:6a:51:c2:1b:d6:14:35:38:48:6c:1b:94:fe:
         2a:bc:61:92:dd:a4:7d:36
-----BEGIN CERTIFICATE-----
MIIHSDCCBTCgAwIBAgICAz0wDQYJKoZIhvcNAQEFBQAwgbQxCzAJBgNVBAYTAlVT
MQswCQYDVQQIEwJDQTEVMBMGA1UEBxMMU2FuRnJhbmNpc2NvMRUwEwYDVQQKEwxQ
aXhnbG8sIEluYy4xEDAOBgNVBAsTB1ZQTi1DSUUxGjAYBgNVBAMTEXR1bm5lbC5w
aXhnbG8uY29tMRwwGgYDVQQpExNCYWxhIENoYW5kcmFzZWthcmFuMR4wHAYJKoZI
hvcNAQkBFg9iYWxhQHBpeGdsby5jb20wHhcNMTgwMjE0MDY0NDQ5WhcNMjgwMjEy
MDY0NDQ5WjCBqTELMAkGA1UEBhMCVVMxCzAJBgNVBAgTAkNBMRUwEwYDVQQHEwxT
YW5GcmFuY2lzY28xFTATBgNVBAoTDFBpeGdsbywgSW5jLjEQMA4GA1UECxMHVlBO
LUNJRTEPMA0GA1UEAxMGY2llODI4MRwwGgYDVQQpExNCYWxhIENoYW5kcmFzZWth
cmFuMR4wHAYJKoZIhvcNAQkBFg9iYWxhQHBpeGdsby5jb20wggIiMA0GCSqGSIb3
DQEBAQUAA4ICDwAwggIKAoICAQCt+2Sa6om6aAjH7SjkYNAYDQ42jBnm3DJACaie
6DChocV06CEQu4O5U5jwxsMM9TsadMGVEiYQMVnjL52jcC+ArwGYOLLCj03/O8tk
Xxs0rFlkPyenwPla/v61CZkUiEOAfDMvN46nzEgerhz3grJ+gl9DNfwYxTLdIWKC
9rSg2t9BZx5EJcDXPZmllRdO3S8o6IGC23bWsQzmjmH9/OXN1lPmhOs55G3M/E3p
7dVxfSB08lrGN6X7fdJw2cZpQzoR3d+xyN3761BJW9ZIL7BKO+UI1oUNdsMK0ZHq
RwQ5FRXtXUBuYC/8T2mpt7kHoXCAMXmTuAXza7xVKDi8+cXbX9jnBnZ+TgXVU0LM
Dpjf6wDiu54KzrpJLoPUevbNS4TTDw3CMrMtZ8R0mCT0CM+sZ9/g4sWWU6w6s4tZ
fBhVduLXaN1xsi81OcD16SP6wzEEUKKhiL17sBi6/txIY0CyTI60ZlhtzOCeZz9l
Gu38sFSV9GmZZPwxEPylpsordmaC3hlbw38vzDg69/8SnF0iMnQ3uSfsWm4FBhNs
qpQqtAd2xTY0tG0hmye1i4MwX4Jl6/eXR8HjzdstrGLdkPp31FNgToM9+xN75wJW
EbNrGUiimAkcKpj0E81VoXhT1JsCDytf1yjMZw0NJjxUKHGpa6ZS3UzRclkIyDW7
QZRrRQIDAQABo4IBazCCAWcwCQYDVR0TBAIwADAtBglghkgBhvhCAQ0EIBYeRWFz
eS1SU0EgR2VuZXJhdGVkIENlcnRpZmljYXRlMB0GA1UdDgQWBBQFZO7/fcp+Lpv3
rGPdUQPkagAqgzCB6QYDVR0jBIHhMIHegBTvOI0UUFinW02cF3L837msp1GwEKGB
uqSBtzCBtDELMAkGA1UEBhMCVVMxCzAJBgNVBAgTAkNBMRUwEwYDVQQHEwxTYW5G
cmFuY2lzY28xFTATBgNVBAoTDFBpeGdsbywgSW5jLjEQMA4GA1UECxMHVlBOLUNJ
RTEaMBgGA1UEAxMRdHVubmVsLnBpeGdsby5jb20xHDAaBgNVBCkTE0JhbGEgQ2hh
bmRyYXNla2FyYW4xHjAcBgkqhkiG9w0BCQEWD2JhbGFAcGl4Z2xvLmNvbYIJAKbb
xoOA5qB5MBMGA1UdJQQMMAoGCCsGAQUFBwMCMAsGA1UdDwQEAwIHgDANBgkqhkiG
9w0BAQUFAAOCAgEAEeAZEb3SJf3VGE2eWPueHLNVQeRc+Chrcd8eeJwVPxpTDDEo
aCmaT1nv/R/xN3sfV/KLU7XbVlE46duCvqLsemELkYpSoNpKaRImQLpuo+i2V2gl
z21WL3u0ovOXThPVBdjS8WL8920o4X1shYX32v7BpDaV7E2w+xGBRMNwshFnZ/ui
0wMWRV/2skCdsiWhPSv2KHtD4j85EAbUe4driT4jIUwRDOyJ7dt87y23+6fO2FOo
uyWw9Jx9IVPaB7jgHWGb6vkx92Ypsd5fnVBXqCOzUTHroK3RVQLrUl+oe7Cuejsn
Is2W58hYhy3KrTyebKWhz2RzGIka2pGarvabikF/fqO7U/saaPmPx+21JVIFhhHH
SsIYrDUGCf0yZ/1jC4D7Ob1y7hs6Q7fYiz+0Fywn6/XZ0glhN1h051fRhqqbYnOG
aRIzVDZ7cMrusf8bfDC/kIfYCxpaW3NkhbXd5G0ixr47cf0UUwno6Q8XICwSF4r5
lFjViTXu5q7pY/z4KUfgwIUc9u1WNkRgU14nP1h9vcz0VZh28r6EGWSOFaJWd8Y5
iVM3vQP7OJRJbjB/8uFqwX4FJEtd/PaTM3PLLDEQQt0SkKrWEZbklS3t441rNs2+
9+B9VqrZN46IyfMsCcynHwZhVkpTiUpqUcIb1hQ1OEhsG5T+Krxhkt2kfTY=
-----END CERTIFICATE-----
