Certificate:
    Data:
        Version: 3 (0x2)
        Serial Number: 831 (0x33f)
    Signature Algorithm: sha1WithRSAEncryption
        Issuer: C=US, ST=CA, L=SanFrancisco, O=Pixglo, Inc., OU=VPN-CIE, CN=tunnel.pixglo.com/name=Bala Chandrasekaran/emailAddress=bala@pixglo.com
        Validity
            Not Before: Feb 14 06:44:51 2018 GMT
            Not After : Feb 12 06:44:51 2028 GMT
        Subject: C=US, ST=CA, L=SanFrancisco, O=Pixglo, Inc., OU=VPN-CIE, CN=cie830/name=Bala Chandrasekaran/emailAddress=bala@pixglo.com
        Subject Public Key Info:
            Public Key Algorithm: rsaEncryption
                Public-Key: (4096 bit)
                Modulus:
                    00:c3:13:28:7f:48:47:50:34:6f:b8:c6:6a:b1:d4:
                    60:14:13:a2:10:e3:f7:0b:a5:20:15:9a:3e:da:d2:
                    a8:d9:74:1e:eb:49:a4:0b:46:c4:8d:e0:70:b6:21:
                    55:45:d1:21:3c:d3:83:45:94:9d:64:2e:ed:82:9d:
                    24:16:77:04:5a:cd:07:09:8c:dd:a1:96:f4:e9:46:
                    d9:15:05:52:86:bc:8d:4f:10:7c:35:7a:50:2e:cf:
                    3c:e9:4b:56:42:3b:f8:78:14:06:b9:f0:38:ae:ee:
                    68:33:4d:86:31:91:98:eb:29:37:ce:f2:31:77:a5:
                    3a:69:22:02:ed:c0:c0:27:30:f9:6f:0e:67:24:5e:
                    91:04:98:be:78:6e:f1:ef:b8:c1:bd:c3:0f:eb:10:
                    ba:9a:8b:c9:80:b6:ff:41:1e:b7:81:37:84:b3:34:
                    3b:62:7f:ef:5a:99:c6:77:1a:e7:bc:4b:e7:dd:60:
                    8e:13:ff:3c:ee:66:0f:2a:14:6c:4c:8f:53:2c:84:
                    f8:45:c0:96:f7:a8:ec:8f:0d:c9:2c:c1:9b:2c:68:
                    6d:19:48:51:aa:ca:7d:5a:18:a8:3c:af:1a:24:a9:
                    55:5b:a3:3f:7a:da:02:b8:20:0d:c5:1b:15:23:48:
                    d9:1a:ad:6a:39:13:eb:0e:bd:3d:0c:2b:b2:9b:02:
                    f7:0a:e1:01:81:f5:b9:7d:0a:9e:e2:8c:9d:85:f7:
                    31:78:59:03:e2:2a:7c:82:78:88:8a:c1:2a:31:4a:
                    ab:2a:31:57:cd:cd:f6:ee:09:16:c4:f2:6b:27:a2:
                    43:8a:74:29:67:34:5c:ca:0f:bf:3e:a5:04:5e:73:
                    15:c3:7f:1a:d3:be:e6:13:93:7a:43:e6:4c:78:fc:
                    a4:02:9d:da:2d:94:a2:07:b7:0e:d8:94:cf:ee:c9:
                    da:05:7d:25:d2:c3:88:9e:47:92:69:8f:60:7e:94:
                    8b:19:8b:3d:1f:fd:e8:fd:86:c3:60:cf:fc:b7:35:
                    2a:b6:e9:d5:e4:80:37:f5:af:70:33:f1:28:40:16:
                    2e:7d:5a:e9:8e:1b:c3:49:3b:40:08:77:70:41:43:
                    27:7d:1f:44:32:ec:56:2e:a9:0d:56:ee:df:ed:d3:
                    68:8c:f4:e5:37:a8:31:32:76:a4:16:30:9c:f2:e2:
                    1b:ee:0d:2f:22:c8:94:a4:87:4f:54:9e:4a:ef:99:
                    a8:34:21:19:51:4a:7c:ff:e5:b8:d6:f5:5d:ff:3c:
                    77:da:50:69:dc:19:fc:be:4e:37:19:0d:f9:93:2d:
                    39:89:34:29:17:3f:a5:26:9d:90:98:dd:11:e9:49:
                    8f:cf:ab:a6:55:46:19:37:cb:20:06:e7:52:4a:a0:
                    44:ee:7d
                Exponent: 65537 (0x10001)
        X509v3 extensions:
            X509v3 Basic Constraints: 
                CA:FALSE
            Netscape Comment: 
                Easy-RSA Generated Certificate
            X509v3 Subject Key Identifier: 
                83:2D:28:7C:63:B1:28:C2:12:4A:3D:B4:F7:1C:55:53:D4:19:A2:9E
            X509v3 Authority Key Identifier: 
                keyid:EF:38:8D:14:50:58:A7:5B:4D:9C:17:72:FC:DF:B9:AC:A7:51:B0:10
                DirName:/C=US/ST=CA/L=SanFrancisco/O=Pixglo, Inc./OU=VPN-CIE/CN=tunnel.pixglo.com/name=Bala Chandrasekaran/emailAddress=bala@pixglo.com
                serial:A6:DB:C6:83:80:E6:A0:79

            X509v3 Extended Key Usage: 
                TLS Web Client Authentication
            X509v3 Key Usage: 
                Digital Signature
    Signature Algorithm: sha1WithRSAEncryption
         cd:f9:a2:8b:a2:77:52:e1:4f:c3:e2:54:79:61:f4:30:30:d6:
         e9:a8:e5:bf:02:26:51:a3:db:62:ae:84:f2:98:dd:5e:08:3c:
         54:01:ea:cb:f5:f3:67:87:cd:a5:6d:4f:c7:18:c9:34:72:e4:
         7a:ce:c2:f2:b0:49:c8:e9:09:9e:8e:ee:4f:f2:77:ff:bd:4c:
         b7:f3:19:e5:8b:3b:af:e0:de:c0:50:b5:b8:86:15:f6:bf:5d:
         c7:14:7e:b5:dd:47:d7:11:1c:77:d9:77:39:7d:cd:d7:ad:66:
         cd:57:bb:be:58:d0:c0:8b:7f:0a:21:a9:de:bc:34:8d:bc:e2:
         b7:30:e5:21:e3:f2:56:f6:a0:20:85:c7:1d:88:4d:80:12:df:
         d5:ad:b8:15:27:9c:1f:e4:d6:63:9e:44:76:70:27:1d:95:f6:
         ca:f4:0c:83:e5:ea:fa:6d:4d:e5:c5:33:c8:c2:7f:c4:5c:fd:
         64:e6:96:eb:18:ce:f5:2b:95:fd:96:35:52:36:4b:ef:3c:7b:
         71:9d:a4:c4:64:3d:2c:65:a8:c1:c4:e9:27:2d:eb:e0:ef:4e:
         04:81:b8:64:a1:b3:27:bc:b2:58:8c:79:31:b8:e2:d8:98:e8:
         76:c4:9a:f4:88:96:ff:b4:01:e3:38:3f:6e:fa:90:ab:96:fe:
         e1:bd:40:a5:a0:cd:2d:78:79:75:17:91:8b:7e:c8:5e:5b:f6:
         1d:2f:48:4f:7b:d6:75:a0:40:03:a8:b7:cf:a7:08:61:04:d7:
         99:22:ee:4a:ea:8f:99:9a:2d:e7:f0:02:e6:5c:26:25:7d:9c:
         7e:09:78:94:ac:31:df:82:c3:7f:00:92:61:5e:ff:4e:32:15:
         eb:b9:b0:38:2a:ea:5c:70:0e:e3:2e:46:58:64:15:d6:9d:36:
         cc:86:91:c1:fc:79:0b:cd:6f:24:5b:14:74:d6:51:48:13:50:
         96:1a:ba:12:6e:6a:b0:e6:90:e1:51:6c:ef:d2:63:d1:42:c4:
         4a:a7:5f:21:5f:59:82:5c:eb:8f:29:45:d9:9b:28:1a:8e:dd:
         c2:82:96:a9:35:d9:5c:e2:d9:fc:1a:c2:5c:e3:a7:37:b7:b6:
         19:61:06:12:00:81:1a:82:23:68:13:ef:26:ee:e1:d3:40:5a:
         a7:60:2f:05:56:9c:96:8e:3d:f8:95:23:71:43:51:38:04:c6:
         17:68:80:00:4d:b7:02:bb:d5:79:95:6e:ae:bb:3a:a2:56:18:
         e2:dd:ea:4a:6b:76:1a:58:7d:b1:47:6e:88:fa:8b:fa:83:bb:
         b0:c3:4d:b7:38:a2:5e:12:8f:f7:7b:1e:d6:b6:76:8c:9b:b0:
         e7:0d:03:51:e9:7b:d9:93
-----BEGIN CERTIFICATE-----
MIIHSDCCBTCgAwIBAgICAz8wDQYJKoZIhvcNAQEFBQAwgbQxCzAJBgNVBAYTAlVT
MQswCQYDVQQIEwJDQTEVMBMGA1UEBxMMU2FuRnJhbmNpc2NvMRUwEwYDVQQKEwxQ
aXhnbG8sIEluYy4xEDAOBgNVBAsTB1ZQTi1DSUUxGjAYBgNVBAMTEXR1bm5lbC5w
aXhnbG8uY29tMRwwGgYDVQQpExNCYWxhIENoYW5kcmFzZWthcmFuMR4wHAYJKoZI
hvcNAQkBFg9iYWxhQHBpeGdsby5jb20wHhcNMTgwMjE0MDY0NDUxWhcNMjgwMjEy
MDY0NDUxWjCBqTELMAkGA1UEBhMCVVMxCzAJBgNVBAgTAkNBMRUwEwYDVQQHEwxT
YW5GcmFuY2lzY28xFTATBgNVBAoTDFBpeGdsbywgSW5jLjEQMA4GA1UECxMHVlBO
LUNJRTEPMA0GA1UEAxMGY2llODMwMRwwGgYDVQQpExNCYWxhIENoYW5kcmFzZWth
cmFuMR4wHAYJKoZIhvcNAQkBFg9iYWxhQHBpeGdsby5jb20wggIiMA0GCSqGSIb3
DQEBAQUAA4ICDwAwggIKAoICAQDDEyh/SEdQNG+4xmqx1GAUE6IQ4/cLpSAVmj7a
0qjZdB7rSaQLRsSN4HC2IVVF0SE804NFlJ1kLu2CnSQWdwRazQcJjN2hlvTpRtkV
BVKGvI1PEHw1elAuzzzpS1ZCO/h4FAa58Diu7mgzTYYxkZjrKTfO8jF3pTppIgLt
wMAnMPlvDmckXpEEmL54bvHvuMG9ww/rELqai8mAtv9BHreBN4SzNDtif+9amcZ3
Gue8S+fdYI4T/zzuZg8qFGxMj1MshPhFwJb3qOyPDckswZssaG0ZSFGqyn1aGKg8
rxokqVVboz962gK4IA3FGxUjSNkarWo5E+sOvT0MK7KbAvcK4QGB9bl9Cp7ijJ2F
9zF4WQPiKnyCeIiKwSoxSqsqMVfNzfbuCRbE8msnokOKdClnNFzKD78+pQRecxXD
fxrTvuYTk3pD5kx4/KQCndotlKIHtw7YlM/uydoFfSXSw4ieR5Jpj2B+lIsZiz0f
/ej9hsNgz/y3NSq26dXkgDf1r3Az8ShAFi59WumOG8NJO0AId3BBQyd9H0Qy7FYu
qQ1W7t/t02iM9OU3qDEydqQWMJzy4hvuDS8iyJSkh09Unkrvmag0IRlRSnz/5bjW
9V3/PHfaUGncGfy+TjcZDfmTLTmJNCkXP6UmnZCY3RHpSY/Pq6ZVRhk3yyAG51JK
oETufQIDAQABo4IBazCCAWcwCQYDVR0TBAIwADAtBglghkgBhvhCAQ0EIBYeRWFz
eS1SU0EgR2VuZXJhdGVkIENlcnRpZmljYXRlMB0GA1UdDgQWBBSDLSh8Y7EowhJK
PbT3HFVT1BminjCB6QYDVR0jBIHhMIHegBTvOI0UUFinW02cF3L837msp1GwEKGB
uqSBtzCBtDELMAkGA1UEBhMCVVMxCzAJBgNVBAgTAkNBMRUwEwYDVQQHEwxTYW5G
cmFuY2lzY28xFTATBgNVBAoTDFBpeGdsbywgSW5jLjEQMA4GA1UECxMHVlBOLUNJ
RTEaMBgGA1UEAxMRdHVubmVsLnBpeGdsby5jb20xHDAaBgNVBCkTE0JhbGEgQ2hh
bmRyYXNla2FyYW4xHjAcBgkqhkiG9w0BCQEWD2JhbGFAcGl4Z2xvLmNvbYIJAKbb
xoOA5qB5MBMGA1UdJQQMMAoGCCsGAQUFBwMCMAsGA1UdDwQEAwIHgDANBgkqhkiG
9w0BAQUFAAOCAgEAzfmii6J3UuFPw+JUeWH0MDDW6ajlvwImUaPbYq6E8pjdXgg8
VAHqy/XzZ4fNpW1PxxjJNHLkes7C8rBJyOkJno7uT/J3/71Mt/MZ5Ys7r+DewFC1
uIYV9r9dxxR+td1H1xEcd9l3OX3N161mzVe7vljQwIt/CiGp3rw0jbzitzDlIePy
VvagIIXHHYhNgBLf1a24FSecH+TWY55EdnAnHZX2yvQMg+Xq+m1N5cUzyMJ/xFz9
ZOaW6xjO9SuV/ZY1UjZL7zx7cZ2kxGQ9LGWowcTpJy3r4O9OBIG4ZKGzJ7yyWIx5
Mbji2JjodsSa9IiW/7QB4zg/bvqQq5b+4b1ApaDNLXh5dReRi37IXlv2HS9IT3vW
daBAA6i3z6cIYQTXmSLuSuqPmZot5/AC5lwmJX2cfgl4lKwx34LDfwCSYV7/TjIV
67mwOCrqXHAO4y5GWGQV1p02zIaRwfx5C81vJFsUdNZRSBNQlhq6Em5qsOaQ4VFs
79Jj0ULESqdfIV9ZglzrjylF2ZsoGo7dwoKWqTXZXOLZ/BrCXOOnN7e2GWEGEgCB
GoIjaBPvJu7h00Bap2AvBVaclo49+JUjcUNROATGF2iAAE23ArvVeZVurrs6olYY
4t3qSmt2Glh9sUduiPqL+oO7sMNNtziiXhKP93se1rZ2jJuw5w0DUel72ZM=
-----END CERTIFICATE-----
