Certificate:
    Data:
        Version: 3 (0x2)
        Serial Number: 834 (0x342)
    Signature Algorithm: sha1WithRSAEncryption
        Issuer: C=US, ST=CA, L=SanFrancisco, O=Pixglo, Inc., OU=VPN-CIE, CN=tunnel.pixglo.com/name=Bala Chandrasekaran/emailAddress=bala@pixglo.com
        Validity
            Not Before: Feb 14 06:44:56 2018 GMT
            Not After : Feb 12 06:44:56 2028 GMT
        Subject: C=US, ST=CA, L=SanFrancisco, O=Pixglo, Inc., OU=VPN-CIE, CN=cie833/name=Bala Chandrasekaran/emailAddress=bala@pixglo.com
        Subject Public Key Info:
            Public Key Algorithm: rsaEncryption
                Public-Key: (4096 bit)
                Modulus:
                    00:c7:c7:ce:0f:67:1c:6f:33:81:cc:17:46:f9:b3:
                    46:10:5c:12:89:99:50:b4:a1:5a:3b:85:5c:0d:4e:
                    4a:74:28:d3:6b:87:ef:e7:dc:ce:91:42:b1:20:62:
                    10:79:db:17:4a:33:a7:14:4a:58:52:18:35:62:bb:
                    b5:16:91:64:40:3b:3b:04:e4:85:7b:ba:38:1d:6f:
                    1c:46:ef:4d:ea:9a:6a:60:45:8b:47:67:cf:80:e5:
                    f8:4b:c3:b8:eb:49:67:18:1a:c5:fd:15:c4:ca:73:
                    b0:1d:5a:1d:a8:b0:b1:4d:d4:6c:5c:f5:30:58:b0:
                    fa:e0:18:aa:d5:f1:47:a0:c5:a4:14:27:d9:93:29:
                    90:16:21:13:ef:9a:6f:83:0b:f5:d4:76:28:8b:e8:
                    56:b9:49:7a:75:46:3e:84:b9:d9:50:2d:25:46:90:
                    8e:dc:f3:84:d9:4d:d3:18:ea:91:b2:05:fe:58:05:
                    5b:4f:e9:1b:bf:8c:b7:70:9c:b8:ef:83:b2:7e:f0:
                    44:0e:5e:b3:d3:47:7f:1e:d2:04:93:7e:63:8b:7d:
                    3f:d0:22:2e:75:82:ca:67:3f:56:f6:e0:68:df:86:
                    d2:df:d3:57:f5:a4:be:10:98:e8:43:af:63:1b:99:
                    9e:b5:69:33:a1:33:ca:6b:9c:42:be:21:fb:fa:d6:
                    69:a5:3f:e8:a3:79:de:db:7c:1b:03:0d:ec:98:3e:
                    5c:03:98:d6:ec:2b:60:c0:bf:de:cb:ef:fb:fc:a0:
                    93:c2:b7:83:0f:c7:41:96:85:19:03:4a:34:9d:d9:
                    34:34:a6:43:b4:f4:ab:d1:dc:47:f1:c9:8e:7d:97:
                    84:28:0e:86:e0:73:94:f5:10:b7:37:c8:0b:0f:77:
                    a9:11:37:38:82:11:f6:14:82:2e:0e:d6:c9:3e:96:
                    86:44:fc:fa:4d:68:8b:af:1c:3b:51:66:23:ff:a0:
                    5c:38:28:e8:03:08:7c:db:21:e4:6b:0c:56:21:70:
                    18:cb:24:b5:09:50:ac:b0:65:ee:3d:b8:4f:54:c0:
                    20:79:72:6c:f7:7a:f0:e6:ee:8f:b4:40:46:d8:c8:
                    0c:2d:b4:18:f2:32:a5:9c:bf:af:90:0b:7d:16:2e:
                    43:ae:d0:68:8f:62:de:8e:d0:d1:86:1e:50:cd:90:
                    9d:d4:cc:4b:a6:bc:97:53:6f:0d:13:71:6d:11:69:
                    c8:67:ae:96:ce:c0:ed:44:43:9d:fa:8a:f9:83:a2:
                    43:0c:e0:1c:c3:d9:4e:04:3d:a0:8f:51:d7:7d:be:
                    af:ec:aa:90:04:66:fe:a8:98:46:99:e9:2b:0e:df:
                    f9:e2:71:55:90:35:02:5b:da:99:5f:87:30:0d:ec:
                    14:0e:c9
                Exponent: 65537 (0x10001)
        X509v3 extensions:
            X509v3 Basic Constraints: 
                CA:FALSE
            Netscape Comment: 
                Easy-RSA Generated Certificate
            X509v3 Subject Key Identifier: 
                3C:FD:6F:8E:9F:F4:BB:EF:2C:8E:FF:BE:B6:F6:35:5A:A2:84:72:A1
            X509v3 Authority Key Identifier: 
                keyid:EF:38:8D:14:50:58:A7:5B:4D:9C:17:72:FC:DF:B9:AC:A7:51:B0:10
                DirName:/C=US/ST=CA/L=SanFrancisco/O=Pixglo, Inc./OU=VPN-CIE/CN=tunnel.pixglo.com/name=Bala Chandrasekaran/emailAddress=bala@pixglo.com
                serial:A6:DB:C6:83:80:E6:A0:79

            X509v3 Extended Key Usage: 
                TLS Web Client Authentication
            X509v3 Key Usage: 
                Digital Signature
    Signature Algorithm: sha1WithRSAEncryption
         12:17:aa:46:fe:10:68:bb:d2:7f:2b:86:14:e6:39:4e:60:e2:
         53:ce:ad:bc:ea:f5:76:46:c4:98:69:b1:2f:17:3d:4c:74:e9:
         c7:e0:ec:a4:93:38:7b:7a:27:6d:5e:cd:9e:0d:d1:22:2f:4c:
         a4:0f:db:b3:db:49:66:91:1a:20:01:f0:0f:17:42:ac:40:4d:
         e4:cd:05:14:c5:54:47:86:a3:9a:0d:68:ec:c6:ea:90:00:5c:
         31:2f:38:3a:c7:5b:49:48:77:59:64:44:93:0f:63:d0:2a:d4:
         07:80:05:b3:a9:ad:c1:18:09:2a:6c:fa:12:46:4a:ff:47:e3:
         0b:65:cf:f7:5a:f0:53:ae:8e:e4:92:54:e3:5e:87:b4:4d:df:
         49:94:77:75:b1:5f:09:52:07:59:73:c1:b0:5d:71:de:be:34:
         f5:2e:5b:c1:8f:b7:b4:4a:4e:5d:c3:7e:88:63:15:8a:65:19:
         d3:46:c7:02:b5:d6:a0:2b:db:ca:ab:c0:6c:e4:3b:c8:d8:7d:
         91:ed:a0:d2:ac:16:8c:d6:4a:9e:f2:7f:90:7e:24:98:06:b5:
         09:f6:14:0d:b8:e9:33:14:8b:e4:b5:ed:84:cd:07:d4:d6:77:
         26:c0:6f:7a:9d:a2:9e:0a:57:ae:6b:34:0c:88:3c:76:20:df:
         45:c7:66:41:38:76:a1:a4:33:34:b5:c3:e2:7d:32:f8:4e:ba:
         bf:ca:fd:a1:10:6c:59:bd:65:75:ca:6c:bb:51:24:c3:46:e2:
         71:d8:51:cd:a0:15:d5:af:30:3e:d7:79:0a:5a:40:82:70:5b:
         d2:84:85:74:74:8b:d2:d0:f5:50:0c:be:ed:89:42:18:db:c1:
         2a:14:6a:7f:d7:1b:2f:83:f5:54:bd:64:ca:cd:cf:16:35:23:
         ff:5a:c6:03:ad:59:76:85:d4:f5:98:c5:4a:57:12:28:a3:1a:
         d5:56:c2:29:86:67:9c:bc:d1:de:df:19:c5:98:88:76:b7:21:
         b5:c0:4b:fa:41:2b:81:be:83:92:91:67:17:5b:41:d5:c2:4d:
         34:16:45:a6:0e:63:4d:1b:91:7a:8e:c1:9c:8d:10:e1:c8:a0:
         5f:7d:b0:2d:6f:9a:07:45:a6:44:7c:c8:ca:2e:44:7b:6c:a7:
         6d:a5:8a:6a:cd:c6:5c:9e:dc:b4:90:92:44:46:fe:cb:fd:5c:
         d2:b8:20:5f:82:a1:0d:55:55:a5:56:db:c5:30:94:eb:97:5d:
         a9:a7:45:41:3c:3a:3e:d3:6f:09:db:61:a6:8d:98:86:10:28:
         71:c4:48:da:01:8b:0f:82:54:d6:69:2a:d7:5f:88:3d:1b:b2:
         77:61:e2:8e:25:2c:d9:15
-----BEGIN CERTIFICATE-----
MIIHSDCCBTCgAwIBAgICA0IwDQYJKoZIhvcNAQEFBQAwgbQxCzAJBgNVBAYTAlVT
MQswCQYDVQQIEwJDQTEVMBMGA1UEBxMMU2FuRnJhbmNpc2NvMRUwEwYDVQQKEwxQ
aXhnbG8sIEluYy4xEDAOBgNVBAsTB1ZQTi1DSUUxGjAYBgNVBAMTEXR1bm5lbC5w
aXhnbG8uY29tMRwwGgYDVQQpExNCYWxhIENoYW5kcmFzZWthcmFuMR4wHAYJKoZI
hvcNAQkBFg9iYWxhQHBpeGdsby5jb20wHhcNMTgwMjE0MDY0NDU2WhcNMjgwMjEy
MDY0NDU2WjCBqTELMAkGA1UEBhMCVVMxCzAJBgNVBAgTAkNBMRUwEwYDVQQHEwxT
YW5GcmFuY2lzY28xFTATBgNVBAoTDFBpeGdsbywgSW5jLjEQMA4GA1UECxMHVlBO
LUNJRTEPMA0GA1UEAxMGY2llODMzMRwwGgYDVQQpExNCYWxhIENoYW5kcmFzZWth
cmFuMR4wHAYJKoZIhvcNAQkBFg9iYWxhQHBpeGdsby5jb20wggIiMA0GCSqGSIb3
DQEBAQUAA4ICDwAwggIKAoICAQDHx84PZxxvM4HMF0b5s0YQXBKJmVC0oVo7hVwN
Tkp0KNNrh+/n3M6RQrEgYhB52xdKM6cUSlhSGDViu7UWkWRAOzsE5IV7ujgdbxxG
703qmmpgRYtHZ8+A5fhLw7jrSWcYGsX9FcTKc7AdWh2osLFN1Gxc9TBYsPrgGKrV
8UegxaQUJ9mTKZAWIRPvmm+DC/XUdiiL6Fa5SXp1Rj6EudlQLSVGkI7c84TZTdMY
6pGyBf5YBVtP6Ru/jLdwnLjvg7J+8EQOXrPTR38e0gSTfmOLfT/QIi51gspnP1b2
4GjfhtLf01f1pL4QmOhDr2MbmZ61aTOhM8prnEK+Ifv61mmlP+ijed7bfBsDDeyY
PlwDmNbsK2DAv97L7/v8oJPCt4MPx0GWhRkDSjSd2TQ0pkO09KvR3EfxyY59l4Qo
Dobgc5T1ELc3yAsPd6kRNziCEfYUgi4O1sk+loZE/PpNaIuvHDtRZiP/oFw4KOgD
CHzbIeRrDFYhcBjLJLUJUKywZe49uE9UwCB5cmz3evDm7o+0QEbYyAwttBjyMqWc
v6+QC30WLkOu0GiPYt6O0NGGHlDNkJ3UzEumvJdTbw0TcW0RachnrpbOwO1EQ536
ivmDokMM4BzD2U4EPaCPUdd9vq/sqpAEZv6omEaZ6SsO3/nicVWQNQJb2plfhzAN
7BQOyQIDAQABo4IBazCCAWcwCQYDVR0TBAIwADAtBglghkgBhvhCAQ0EIBYeRWFz
eS1SU0EgR2VuZXJhdGVkIENlcnRpZmljYXRlMB0GA1UdDgQWBBQ8/W+On/S77yyO
/7629jVaooRyoTCB6QYDVR0jBIHhMIHegBTvOI0UUFinW02cF3L837msp1GwEKGB
uqSBtzCBtDELMAkGA1UEBhMCVVMxCzAJBgNVBAgTAkNBMRUwEwYDVQQHEwxTYW5G
cmFuY2lzY28xFTATBgNVBAoTDFBpeGdsbywgSW5jLjEQMA4GA1UECxMHVlBOLUNJ
RTEaMBgGA1UEAxMRdHVubmVsLnBpeGdsby5jb20xHDAaBgNVBCkTE0JhbGEgQ2hh
bmRyYXNla2FyYW4xHjAcBgkqhkiG9w0BCQEWD2JhbGFAcGl4Z2xvLmNvbYIJAKbb
xoOA5qB5MBMGA1UdJQQMMAoGCCsGAQUFBwMCMAsGA1UdDwQEAwIHgDANBgkqhkiG
9w0BAQUFAAOCAgEAEheqRv4QaLvSfyuGFOY5TmDiU86tvOr1dkbEmGmxLxc9THTp
x+DspJM4e3onbV7Nng3RIi9MpA/bs9tJZpEaIAHwDxdCrEBN5M0FFMVUR4ajmg1o
7MbqkABcMS84OsdbSUh3WWREkw9j0CrUB4AFs6mtwRgJKmz6EkZK/0fjC2XP91rw
U66O5JJU416HtE3fSZR3dbFfCVIHWXPBsF1x3r409S5bwY+3tEpOXcN+iGMVimUZ
00bHArXWoCvbyqvAbOQ7yNh9ke2g0qwWjNZKnvJ/kH4kmAa1CfYUDbjpMxSL5LXt
hM0H1NZ3JsBvep2ingpXrms0DIg8diDfRcdmQTh2oaQzNLXD4n0y+E66v8r9oRBs
Wb1ldcpsu1Ekw0bicdhRzaAV1a8wPtd5ClpAgnBb0oSFdHSL0tD1UAy+7YlCGNvB
KhRqf9cbL4P1VL1kys3PFjUj/1rGA61ZdoXU9ZjFSlcSKKMa1VbCKYZnnLzR3t8Z
xZiIdrchtcBL+kErgb6DkpFnF1tB1cJNNBZFpg5jTRuReo7BnI0Q4cigX32wLW+a
B0WmRHzIyi5Ee2ynbaWKas3GXJ7ctJCSREb+y/1c0rggX4KhDVVVpVbbxTCU65dd
qadFQTw6PtNvCdthpo2YhhAoccRI2gGLD4JU1mkq11+IPRuyd2HijiUs2RU=
-----END CERTIFICATE-----
