Certificate:
    Data:
        Version: 3 (0x2)
        Serial Number: 839 (0x347)
    Signature Algorithm: sha1WithRSAEncryption
        Issuer: C=US, ST=CA, L=SanFrancisco, O=Pixglo, Inc., OU=VPN-CIE, CN=tunnel.pixglo.com/name=Bala Chandrasekaran/emailAddress=bala@pixglo.com
        Validity
            Not Before: Feb 14 06:45:07 2018 GMT
            Not After : Feb 12 06:45:07 2028 GMT
        Subject: C=US, ST=CA, L=SanFrancisco, O=Pixglo, Inc., OU=VPN-CIE, CN=cie838/name=Bala Chandrasekaran/emailAddress=bala@pixglo.com
        Subject Public Key Info:
            Public Key Algorithm: rsaEncryption
                Public-Key: (4096 bit)
                Modulus:
                    00:ba:5e:ae:48:c4:50:43:05:bb:4c:4d:e4:36:64:
                    98:1a:a0:31:e3:87:2e:6a:8b:68:cb:7b:3b:26:98:
                    6c:a4:4a:c1:27:1a:53:08:fc:62:db:5c:e9:cf:e5:
                    b5:9b:e5:ff:03:ba:89:16:05:ca:b2:d7:13:d1:88:
                    ac:3e:95:ef:ba:11:5c:d5:af:03:30:71:d1:78:ca:
                    ec:93:56:de:4b:6c:5e:ce:37:04:43:13:3e:24:fe:
                    69:cd:1b:d1:30:79:37:bc:dd:a7:65:78:93:d2:06:
                    ea:45:84:df:12:9f:25:74:43:43:30:70:68:55:07:
                    7a:e0:34:23:4d:99:40:6a:ac:73:7a:85:55:b3:5e:
                    96:15:48:1e:89:47:b9:2a:a0:d8:2e:ff:4b:d1:6e:
                    84:0e:89:35:18:14:ad:fc:b7:12:a7:c5:51:d3:d7:
                    85:dc:be:6a:52:d3:f6:c3:ac:59:78:c0:06:4f:60:
                    8b:c2:8c:f2:a0:03:d9:32:72:64:60:05:50:ae:e4:
                    e8:ec:18:b3:f2:80:c9:46:72:92:26:15:2c:33:4e:
                    de:e3:0c:6d:6f:69:0e:df:31:16:11:d2:87:f0:38:
                    70:f8:67:74:18:ab:16:1f:c7:1e:9d:70:1c:35:e4:
                    71:4c:8e:35:6f:04:b9:75:04:e2:7d:d4:23:28:7f:
                    0a:78:0a:e4:ab:ea:ba:72:98:b4:d6:b7:93:83:48:
                    df:83:5c:bc:79:56:93:49:77:41:9f:68:01:03:dc:
                    50:d2:4c:e1:db:d0:3e:93:bf:94:f8:1f:e9:e2:51:
                    43:da:3d:3b:ce:a0:67:3c:d7:84:be:fa:cf:58:ba:
                    5c:f2:f1:a4:2f:74:12:a3:28:2f:e2:6a:bd:c9:f7:
                    5a:9d:d6:3b:c1:87:86:14:c9:c6:62:a2:00:6d:4a:
                    71:f8:bd:e5:be:62:f9:0c:3a:47:9e:41:bb:5e:b4:
                    2a:87:d3:c1:9f:44:77:7b:68:a7:1c:46:73:05:04:
                    4c:10:4d:38:ba:8e:96:2d:40:b7:1a:03:67:9b:38:
                    a3:22:82:1d:7f:61:c1:f9:71:fc:90:b7:f5:a4:9c:
                    6b:b3:d7:0f:22:36:f4:5b:a1:18:77:9c:da:44:2f:
                    0e:95:73:09:46:61:bd:02:07:26:3d:b0:2d:18:7a:
                    4a:51:26:c4:17:38:d1:1f:96:94:7c:40:29:5a:47:
                    33:5b:28:a3:33:d0:a5:1d:8b:31:84:c2:71:06:98:
                    1a:7b:15:0f:5e:21:c8:1a:9e:47:00:d8:1b:e2:e8:
                    27:b3:2e:22:80:ba:2c:57:4b:45:ef:bf:af:0b:f4:
                    a6:ac:b3:1c:3e:1d:ef:d1:c1:0f:0b:b0:4c:21:b4:
                    23:cb:13
                Exponent: 65537 (0x10001)
        X509v3 extensions:
            X509v3 Basic Constraints: 
                CA:FALSE
            Netscape Comment: 
                Easy-RSA Generated Certificate
            X509v3 Subject Key Identifier: 
                C7:9E:78:32:22:6F:01:91:26:AE:26:65:22:4F:50:EC:9E:5A:39:7F
            X509v3 Authority Key Identifier: 
                keyid:EF:38:8D:14:50:58:A7:5B:4D:9C:17:72:FC:DF:B9:AC:A7:51:B0:10
                DirName:/C=US/ST=CA/L=SanFrancisco/O=Pixglo, Inc./OU=VPN-CIE/CN=tunnel.pixglo.com/name=Bala Chandrasekaran/emailAddress=bala@pixglo.com
                serial:A6:DB:C6:83:80:E6:A0:79

            X509v3 Extended Key Usage: 
                TLS Web Client Authentication
            X509v3 Key Usage: 
                Digital Signature
    Signature Algorithm: sha1WithRSAEncryption
         4d:4b:21:c4:c9:69:8e:33:8e:34:71:d7:85:71:58:74:e1:9f:
         70:c1:e3:0a:f1:ef:95:34:cc:b2:99:d7:29:d6:65:88:02:8b:
         0d:6f:03:6a:ab:2c:57:c6:e4:8b:f5:08:e1:b6:48:e8:cb:16:
         51:53:03:c6:c6:69:16:82:2f:e7:1e:a8:16:2d:91:d0:47:a0:
         a6:56:1d:b8:10:92:d3:63:29:7e:4a:4c:e6:57:0f:60:8a:f9:
         72:ab:c5:7f:b8:49:f1:55:a7:90:a2:6d:58:da:20:93:c2:3c:
         39:32:e1:ef:d4:65:55:d2:50:67:32:46:22:59:3a:18:c1:dd:
         46:74:2e:ec:af:65:29:78:39:64:5f:07:c3:69:21:b1:77:00:
         3b:1e:78:85:05:98:dd:88:cc:94:ac:62:ca:05:cc:47:12:40:
         ad:92:4b:4e:3e:f4:9e:cb:28:7e:5f:d8:05:fe:9c:c4:b9:72:
         8c:ea:f0:a6:dc:cd:c4:f9:94:2b:03:a6:28:5c:2b:ef:23:2d:
         49:da:6c:ea:b2:79:15:09:cc:56:06:b7:dd:96:9e:94:9e:a7:
         9d:5e:82:3b:af:aa:c8:9b:d9:14:14:22:71:a6:ec:c9:c1:10:
         7b:21:6a:ae:d3:9a:9b:5f:c9:a6:6f:1e:00:4d:dd:95:66:1a:
         76:fd:3d:29:68:45:ee:fc:71:21:e6:c4:95:d8:3e:ce:0c:8d:
         35:22:1f:ef:27:d2:a1:5a:d6:fe:ba:f0:5a:7e:a5:17:d7:e6:
         c7:fc:c0:a6:b9:88:e2:a2:b5:84:97:22:0e:da:66:3f:35:26:
         23:83:90:da:97:b3:5d:97:c9:02:fa:98:01:4e:17:26:01:97:
         2c:93:1d:55:46:ec:37:f4:2c:90:83:69:5c:4c:04:e1:34:a1:
         ba:05:06:35:6c:16:11:bb:2f:86:5a:51:3a:e7:1e:e4:97:11:
         2e:8e:b0:58:e6:40:7e:7a:51:94:ce:20:a6:e6:a1:f3:81:16:
         13:65:91:fd:7e:3b:1d:e5:c1:8e:f4:17:92:af:23:12:02:83:
         51:af:13:25:dd:84:8e:e9:1c:bb:b0:8c:5d:2c:7e:3b:8c:58:
         5e:eb:b1:0c:aa:0a:35:8f:76:e9:01:63:b2:bc:c5:49:15:4c:
         3c:aa:a0:3b:13:17:c9:a8:e5:07:43:fb:87:11:99:46:9d:fc:
         c9:f9:79:fa:29:1f:d7:47:fa:d2:df:95:82:0f:57:ab:d4:87:
         02:77:6e:ff:bb:52:4e:ae:ef:96:fe:a9:87:d0:50:03:7c:fa:
         9a:e7:a7:21:c3:48:df:d5:8b:89:e6:fa:aa:1a:68:ac:bd:00:
         a3:77:92:76:7d:bd:a7:e9
-----BEGIN CERTIFICATE-----
MIIHSDCCBTCgAwIBAgICA0cwDQYJKoZIhvcNAQEFBQAwgbQxCzAJBgNVBAYTAlVT
MQswCQYDVQQIEwJDQTEVMBMGA1UEBxMMU2FuRnJhbmNpc2NvMRUwEwYDVQQKEwxQ
aXhnbG8sIEluYy4xEDAOBgNVBAsTB1ZQTi1DSUUxGjAYBgNVBAMTEXR1bm5lbC5w
aXhnbG8uY29tMRwwGgYDVQQpExNCYWxhIENoYW5kcmFzZWthcmFuMR4wHAYJKoZI
hvcNAQkBFg9iYWxhQHBpeGdsby5jb20wHhcNMTgwMjE0MDY0NTA3WhcNMjgwMjEy
MDY0NTA3WjCBqTELMAkGA1UEBhMCVVMxCzAJBgNVBAgTAkNBMRUwEwYDVQQHEwxT
YW5GcmFuY2lzY28xFTATBgNVBAoTDFBpeGdsbywgSW5jLjEQMA4GA1UECxMHVlBO
LUNJRTEPMA0GA1UEAxMGY2llODM4MRwwGgYDVQQpExNCYWxhIENoYW5kcmFzZWth
cmFuMR4wHAYJKoZIhvcNAQkBFg9iYWxhQHBpeGdsby5jb20wggIiMA0GCSqGSIb3
DQEBAQUAA4ICDwAwggIKAoICAQC6Xq5IxFBDBbtMTeQ2ZJgaoDHjhy5qi2jLezsm
mGykSsEnGlMI/GLbXOnP5bWb5f8DuokWBcqy1xPRiKw+le+6EVzVrwMwcdF4yuyT
Vt5LbF7ONwRDEz4k/mnNG9EweTe83adleJPSBupFhN8SnyV0Q0MwcGhVB3rgNCNN
mUBqrHN6hVWzXpYVSB6JR7kqoNgu/0vRboQOiTUYFK38txKnxVHT14XcvmpS0/bD
rFl4wAZPYIvCjPKgA9kycmRgBVCu5OjsGLPygMlGcpImFSwzTt7jDG1vaQ7fMRYR
0ofwOHD4Z3QYqxYfxx6dcBw15HFMjjVvBLl1BOJ91CMofwp4CuSr6rpymLTWt5OD
SN+DXLx5VpNJd0GfaAED3FDSTOHb0D6Tv5T4H+niUUPaPTvOoGc814S++s9Yulzy
8aQvdBKjKC/iar3J91qd1jvBh4YUycZiogBtSnH4veW+YvkMOkeeQbtetCqH08Gf
RHd7aKccRnMFBEwQTTi6jpYtQLcaA2ebOKMigh1/YcH5cfyQt/WknGuz1w8iNvRb
oRh3nNpELw6VcwlGYb0CByY9sC0YekpRJsQXONEflpR8QClaRzNbKKMz0KUdizGE
wnEGmBp7FQ9eIcgankcA2Bvi6CezLiKAuixXS0Xvv68L9Kassxw+He/RwQ8LsEwh
tCPLEwIDAQABo4IBazCCAWcwCQYDVR0TBAIwADAtBglghkgBhvhCAQ0EIBYeRWFz
eS1SU0EgR2VuZXJhdGVkIENlcnRpZmljYXRlMB0GA1UdDgQWBBTHnngyIm8BkSau
JmUiT1Dsnlo5fzCB6QYDVR0jBIHhMIHegBTvOI0UUFinW02cF3L837msp1GwEKGB
uqSBtzCBtDELMAkGA1UEBhMCVVMxCzAJBgNVBAgTAkNBMRUwEwYDVQQHEwxTYW5G
cmFuY2lzY28xFTATBgNVBAoTDFBpeGdsbywgSW5jLjEQMA4GA1UECxMHVlBOLUNJ
RTEaMBgGA1UEAxMRdHVubmVsLnBpeGdsby5jb20xHDAaBgNVBCkTE0JhbGEgQ2hh
bmRyYXNla2FyYW4xHjAcBgkqhkiG9w0BCQEWD2JhbGFAcGl4Z2xvLmNvbYIJAKbb
xoOA5qB5MBMGA1UdJQQMMAoGCCsGAQUFBwMCMAsGA1UdDwQEAwIHgDANBgkqhkiG
9w0BAQUFAAOCAgEATUshxMlpjjOONHHXhXFYdOGfcMHjCvHvlTTMspnXKdZliAKL
DW8DaqssV8bki/UI4bZI6MsWUVMDxsZpFoIv5x6oFi2R0EegplYduBCS02MpfkpM
5lcPYIr5cqvFf7hJ8VWnkKJtWNogk8I8OTLh79RlVdJQZzJGIlk6GMHdRnQu7K9l
KXg5ZF8Hw2khsXcAOx54hQWY3YjMlKxiygXMRxJArZJLTj70nssofl/YBf6cxLly
jOrwptzNxPmUKwOmKFwr7yMtSdps6rJ5FQnMVga33ZaelJ6nnV6CO6+qyJvZFBQi
cabsycEQeyFqrtOam1/Jpm8eAE3dlWYadv09KWhF7vxxIebEldg+zgyNNSIf7yfS
oVrW/rrwWn6lF9fmx/zAprmI4qK1hJciDtpmPzUmI4OQ2pezXZfJAvqYAU4XJgGX
LJMdVUbsN/QskINpXEwE4TShugUGNWwWEbsvhlpROuce5JcRLo6wWOZAfnpRlM4g
puah84EWE2WR/X47HeXBjvQXkq8jEgKDUa8TJd2Ejukcu7CMXSx+O4xYXuuxDKoK
NY926QFjsrzFSRVMPKqgOxMXyajlB0P7hxGZRp38yfl5+ikf10f60t+Vgg9Xq9SH
Andu/7tSTq7vlv6ph9BQA3z6muenIcNI39WLieb6qhporL0Ao3eSdn29p+k=
-----END CERTIFICATE-----
