Certificate:
    Data:
        Version: 3 (0x2)
        Serial Number: 842 (0x34a)
    Signature Algorithm: sha1WithRSAEncryption
        Issuer: C=US, ST=CA, L=SanFrancisco, O=Pixglo, Inc., OU=VPN-CIE, CN=tunnel.pixglo.com/name=Bala Chandrasekaran/emailAddress=bala@pixglo.com
        Validity
            Not Before: Feb 14 06:45:14 2018 GMT
            Not After : Feb 12 06:45:14 2028 GMT
        Subject: C=US, ST=CA, L=SanFrancisco, O=Pixglo, Inc., OU=VPN-CIE, CN=cie841/name=Bala Chandrasekaran/emailAddress=bala@pixglo.com
        Subject Public Key Info:
            Public Key Algorithm: rsaEncryption
                Public-Key: (4096 bit)
                Modulus:
                    00:c2:e1:21:e3:5b:c9:5f:e1:b0:a9:da:99:63:d9:
                    52:ca:55:9c:a4:c7:36:b4:9c:6e:09:39:9f:07:4c:
                    47:6f:19:8f:8e:e8:d2:4f:e6:52:54:d7:49:c9:7d:
                    4c:9d:e8:0d:66:2d:67:ae:39:e9:99:bc:86:07:51:
                    53:29:7b:e3:72:a6:79:45:67:4e:cf:06:16:d2:e2:
                    96:ad:fd:b6:f7:fa:91:70:27:72:9e:cd:44:c6:a2:
                    77:27:83:97:05:cf:61:91:81:2a:94:ff:9d:c8:00:
                    54:0a:d3:f6:41:d2:01:37:d4:8c:dd:19:43:05:d5:
                    6f:70:1c:54:e7:19:f7:38:48:17:d6:1c:2b:c5:94:
                    ec:0c:69:92:df:c7:31:78:b0:fa:fb:c9:8a:e5:7c:
                    ec:48:cf:4c:f8:0b:94:5c:c5:77:be:5a:7e:49:67:
                    68:45:a0:58:68:41:d8:aa:3d:1c:5a:67:2f:8d:36:
                    c1:48:4d:c8:32:a7:67:cc:c0:59:69:e2:b5:78:5b:
                    76:42:22:0f:fd:bc:e4:c0:34:55:c2:05:52:52:9b:
                    37:c7:35:fb:8f:b1:12:5b:26:30:e0:be:4a:47:64:
                    35:17:6f:af:5b:04:52:e1:32:1c:51:e1:f8:6e:50:
                    b0:cf:89:85:d4:67:2d:12:b9:85:98:ad:7f:4e:73:
                    dc:f6:a2:c0:b8:74:cf:7d:03:1c:f3:8f:f8:00:73:
                    55:e8:0e:17:fb:0a:98:3f:e1:e2:6c:e9:2b:b1:9a:
                    76:38:02:bb:f0:ff:ab:ab:e9:b6:e7:02:61:ae:02:
                    8c:df:6d:f4:b4:84:e6:6c:05:3a:fe:7d:94:db:d4:
                    6a:13:81:30:9d:28:11:4d:23:3f:93:19:90:26:c2:
                    0f:93:61:4a:3c:d5:a6:fc:8e:eb:81:36:41:2b:42:
                    6e:58:d1:11:e7:67:52:9f:81:0d:5b:6f:8e:1f:6a:
                    1e:60:3d:9f:7b:86:a4:f4:50:d0:dd:75:11:1d:1c:
                    59:f4:81:37:06:45:43:68:a7:e7:77:99:93:8b:21:
                    ab:5f:c1:ae:97:c2:f6:40:9b:97:62:70:da:34:c2:
                    a7:e1:e3:e3:1f:2e:2c:7c:79:08:68:61:a5:24:a3:
                    b4:60:d2:93:9b:f1:87:b9:f0:55:8e:88:4b:af:aa:
                    06:58:54:eb:3b:df:c6:01:f3:49:f7:0f:2d:ce:a5:
                    25:d1:ce:48:ec:0a:35:d4:f9:f3:f9:13:60:76:e9:
                    e4:c4:74:a9:28:ab:ce:75:1f:0b:73:85:a5:a2:6d:
                    ba:c6:55:dd:39:2b:cc:68:f6:3d:bd:8d:0d:29:8c:
                    4e:d6:8e:e5:77:85:cf:2c:09:05:f9:50:bb:a8:1d:
                    ac:43:d9
                Exponent: 65537 (0x10001)
        X509v3 extensions:
            X509v3 Basic Constraints: 
                CA:FALSE
            Netscape Comment: 
                Easy-RSA Generated Certificate
            X509v3 Subject Key Identifier: 
                40:2E:9E:DA:9D:92:70:7E:0C:10:16:2E:89:D8:F6:52:D1:42:5A:75
            X509v3 Authority Key Identifier: 
                keyid:EF:38:8D:14:50:58:A7:5B:4D:9C:17:72:FC:DF:B9:AC:A7:51:B0:10
                DirName:/C=US/ST=CA/L=SanFrancisco/O=Pixglo, Inc./OU=VPN-CIE/CN=tunnel.pixglo.com/name=Bala Chandrasekaran/emailAddress=bala@pixglo.com
                serial:A6:DB:C6:83:80:E6:A0:79

            X509v3 Extended Key Usage: 
                TLS Web Client Authentication
            X509v3 Key Usage: 
                Digital Signature
    Signature Algorithm: sha1WithRSAEncryption
         c8:0b:53:42:56:ab:89:f3:20:48:d4:36:40:58:d2:43:66:4a:
         bc:25:e5:78:11:6b:47:ef:91:25:92:fc:f0:ca:5f:d3:af:70:
         cb:e6:28:94:67:98:ea:19:fb:52:b2:fa:1a:b5:32:f4:fd:36:
         84:bc:40:9e:da:ba:09:16:3a:1e:3e:b3:8f:21:1d:71:82:d4:
         cd:0d:cc:f7:80:d6:ac:8a:06:da:3d:39:1c:bd:9f:c7:9a:cb:
         78:5d:3d:20:b0:b6:25:1e:ea:65:3e:01:e0:8a:51:a4:d4:65:
         78:a5:a6:3b:51:62:64:1e:14:6f:0c:a2:b2:69:d1:94:38:a1:
         ba:f1:38:5d:46:88:1b:ce:69:33:f7:b1:98:15:eb:e9:2b:d9:
         d4:34:99:4d:83:c2:64:80:98:23:89:66:b9:6e:43:58:ba:df:
         57:97:3f:84:46:d7:84:f2:a2:49:4a:f9:e6:d0:b5:fc:cd:8a:
         6c:c7:98:6d:92:f7:d9:e2:e7:bf:27:12:b0:ee:cd:33:0c:10:
         6f:83:db:45:94:8f:e7:5c:6a:87:d5:e3:24:ef:97:27:cb:d4:
         9a:dd:aa:58:4e:33:4f:9d:d9:75:69:4b:d0:e8:7d:e5:92:61:
         0a:ad:96:ce:a8:5a:f5:ea:56:53:15:94:a6:6a:c4:39:54:eb:
         72:f3:23:e0:8d:57:5c:3a:97:9a:ca:f9:f2:3f:57:bc:d7:42:
         3b:c6:00:ad:55:e4:25:7e:b3:fd:ea:dc:3f:a3:29:88:97:43:
         59:8a:cc:f2:dc:5d:d4:9a:25:91:0a:06:f1:1b:d4:f9:cc:29:
         33:11:35:48:81:64:b1:97:f3:2f:90:d5:10:a8:4c:af:b8:01:
         df:85:95:37:c6:f4:af:b0:88:e7:60:dc:8f:54:81:9d:5c:cc:
         59:09:81:0e:23:ac:5c:8f:dd:ea:cc:7c:d0:a9:88:1c:62:95:
         8c:e7:75:38:29:4a:da:3a:8d:8c:57:17:01:12:78:39:d1:6a:
         d7:e4:0e:88:b5:33:97:32:f5:d2:93:36:f7:0d:03:c4:a8:00:
         96:43:e5:35:22:ea:35:65:bd:d8:0d:4b:1e:7f:4a:5f:61:59:
         27:12:23:2f:d4:9c:6a:c4:ee:5f:69:15:c7:5d:21:87:aa:4b:
         6c:9c:a1:f5:0a:da:7a:7f:6c:0c:83:e9:84:9f:2a:fc:10:09:
         e8:1d:7a:eb:ba:7f:c3:08:05:ff:42:87:b0:30:a2:33:fe:c0:
         d2:c5:d9:55:19:f9:ff:a9:18:5c:19:76:94:52:ea:ba:a1:7b:
         e6:fc:e0:22:51:eb:2a:8d:bc:17:85:b6:75:e0:9d:0d:a4:ce:
         48:9c:55:bf:f1:71:2e:fa
-----BEGIN CERTIFICATE-----
MIIHSDCCBTCgAwIBAgICA0owDQYJKoZIhvcNAQEFBQAwgbQxCzAJBgNVBAYTAlVT
MQswCQYDVQQIEwJDQTEVMBMGA1UEBxMMU2FuRnJhbmNpc2NvMRUwEwYDVQQKEwxQ
aXhnbG8sIEluYy4xEDAOBgNVBAsTB1ZQTi1DSUUxGjAYBgNVBAMTEXR1bm5lbC5w
aXhnbG8uY29tMRwwGgYDVQQpExNCYWxhIENoYW5kcmFzZWthcmFuMR4wHAYJKoZI
hvcNAQkBFg9iYWxhQHBpeGdsby5jb20wHhcNMTgwMjE0MDY0NTE0WhcNMjgwMjEy
MDY0NTE0WjCBqTELMAkGA1UEBhMCVVMxCzAJBgNVBAgTAkNBMRUwEwYDVQQHEwxT
YW5GcmFuY2lzY28xFTATBgNVBAoTDFBpeGdsbywgSW5jLjEQMA4GA1UECxMHVlBO
LUNJRTEPMA0GA1UEAxMGY2llODQxMRwwGgYDVQQpExNCYWxhIENoYW5kcmFzZWth
cmFuMR4wHAYJKoZIhvcNAQkBFg9iYWxhQHBpeGdsby5jb20wggIiMA0GCSqGSIb3
DQEBAQUAA4ICDwAwggIKAoICAQDC4SHjW8lf4bCp2plj2VLKVZykxza0nG4JOZ8H
TEdvGY+O6NJP5lJU10nJfUyd6A1mLWeuOemZvIYHUVMpe+NypnlFZ07PBhbS4pat
/bb3+pFwJ3KezUTGoncng5cFz2GRgSqU/53IAFQK0/ZB0gE31IzdGUMF1W9wHFTn
Gfc4SBfWHCvFlOwMaZLfxzF4sPr7yYrlfOxIz0z4C5RcxXe+Wn5JZ2hFoFhoQdiq
PRxaZy+NNsFITcgyp2fMwFlp4rV4W3ZCIg/9vOTANFXCBVJSmzfHNfuPsRJbJjDg
vkpHZDUXb69bBFLhMhxR4fhuULDPiYXUZy0SuYWYrX9Oc9z2osC4dM99Axzzj/gA
c1XoDhf7Cpg/4eJs6SuxmnY4Arvw/6ur6bbnAmGuAozfbfS0hOZsBTr+fZTb1GoT
gTCdKBFNIz+TGZAmwg+TYUo81ab8juuBNkErQm5Y0RHnZ1KfgQ1bb44fah5gPZ97
hqT0UNDddREdHFn0gTcGRUNop+d3mZOLIatfwa6XwvZAm5dicNo0wqfh4+MfLix8
eQhoYaUko7Rg0pOb8Ye58FWOiEuvqgZYVOs738YB80n3Dy3OpSXRzkjsCjXU+fP5
E2B26eTEdKkoq851HwtzhaWibbrGVd05K8xo9j29jQ0pjE7WjuV3hc8sCQX5ULuo
HaxD2QIDAQABo4IBazCCAWcwCQYDVR0TBAIwADAtBglghkgBhvhCAQ0EIBYeRWFz
eS1SU0EgR2VuZXJhdGVkIENlcnRpZmljYXRlMB0GA1UdDgQWBBRALp7anZJwfgwQ
Fi6J2PZS0UJadTCB6QYDVR0jBIHhMIHegBTvOI0UUFinW02cF3L837msp1GwEKGB
uqSBtzCBtDELMAkGA1UEBhMCVVMxCzAJBgNVBAgTAkNBMRUwEwYDVQQHEwxTYW5G
cmFuY2lzY28xFTATBgNVBAoTDFBpeGdsbywgSW5jLjEQMA4GA1UECxMHVlBOLUNJ
RTEaMBgGA1UEAxMRdHVubmVsLnBpeGdsby5jb20xHDAaBgNVBCkTE0JhbGEgQ2hh
bmRyYXNla2FyYW4xHjAcBgkqhkiG9w0BCQEWD2JhbGFAcGl4Z2xvLmNvbYIJAKbb
xoOA5qB5MBMGA1UdJQQMMAoGCCsGAQUFBwMCMAsGA1UdDwQEAwIHgDANBgkqhkiG
9w0BAQUFAAOCAgEAyAtTQlarifMgSNQ2QFjSQ2ZKvCXleBFrR++RJZL88Mpf069w
y+YolGeY6hn7UrL6GrUy9P02hLxAntq6CRY6Hj6zjyEdcYLUzQ3M94DWrIoG2j05
HL2fx5rLeF09ILC2JR7qZT4B4IpRpNRleKWmO1FiZB4UbwyismnRlDihuvE4XUaI
G85pM/exmBXr6SvZ1DSZTYPCZICYI4lmuW5DWLrfV5c/hEbXhPKiSUr55tC1/M2K
bMeYbZL32eLnvycSsO7NMwwQb4PbRZSP51xqh9XjJO+XJ8vUmt2qWE4zT53ZdWlL
0Oh95ZJhCq2Wzqha9epWUxWUpmrEOVTrcvMj4I1XXDqXmsr58j9XvNdCO8YArVXk
JX6z/ercP6MpiJdDWYrM8txd1JolkQoG8RvU+cwpMxE1SIFksZfzL5DVEKhMr7gB
34WVN8b0r7CI52Dcj1SBnVzMWQmBDiOsXI/d6sx80KmIHGKVjOd1OClK2jqNjFcX
ARJ4OdFq1+QOiLUzlzL10pM29w0DxKgAlkPlNSLqNWW92A1LHn9KX2FZJxIjL9Sc
asTuX2kVx10hh6pLbJyh9Qraen9sDIPphJ8q/BAJ6B1667p/wwgF/0KHsDCiM/7A
0sXZVRn5/6kYXBl2lFLquqF75vzgIlHrKo28F4W2deCdDaTOSJxVv/FxLvo=
-----END CERTIFICATE-----
