Certificate:
    Data:
        Version: 3 (0x2)
        Serial Number: 844 (0x34c)
    Signature Algorithm: sha1WithRSAEncryption
        Issuer: C=US, ST=CA, L=SanFrancisco, O=Pixglo, Inc., OU=VPN-CIE, CN=tunnel.pixglo.com/name=Bala Chandrasekaran/emailAddress=bala@pixglo.com
        Validity
            Not Before: Feb 14 06:45:17 2018 GMT
            Not After : Feb 12 06:45:17 2028 GMT
        Subject: C=US, ST=CA, L=SanFrancisco, O=Pixglo, Inc., OU=VPN-CIE, CN=cie843/name=Bala Chandrasekaran/emailAddress=bala@pixglo.com
        Subject Public Key Info:
            Public Key Algorithm: rsaEncryption
                Public-Key: (4096 bit)
                Modulus:
                    00:d1:04:0c:61:bb:56:cd:25:e9:26:32:36:e9:eb:
                    6a:ce:b7:db:7c:3c:91:42:49:98:73:2e:8f:82:91:
                    08:ef:80:09:29:19:52:c3:64:62:6b:de:67:fe:64:
                    49:ea:97:ff:9c:28:c8:68:63:b6:04:d1:14:b6:89:
                    43:9a:53:7d:de:05:75:fc:bb:a9:87:ff:89:52:a0:
                    6a:5b:6b:fc:4f:04:80:ac:06:ca:d4:51:a5:c9:f4:
                    4c:6b:7c:a9:81:b2:d9:4a:aa:19:88:c6:a7:f9:3c:
                    1c:60:c0:e4:d4:73:73:13:fb:59:ec:72:81:3e:a7:
                    be:55:ec:63:f6:c3:f9:58:cb:55:a0:f9:3c:14:29:
                    eb:ba:6c:46:c4:8f:b3:71:8e:23:d1:34:36:bd:9a:
                    5e:04:92:42:52:d0:66:de:7e:64:67:ba:4b:6f:17:
                    76:0b:1e:b5:57:22:dc:c2:ad:96:d7:8c:a9:06:2f:
                    86:fe:da:be:f2:7f:67:0a:80:e6:79:20:85:bf:d7:
                    91:92:23:83:0e:fe:f0:36:ad:37:7d:44:70:b6:e0:
                    50:05:0e:bb:ed:03:ab:a5:e3:19:f8:81:9c:c3:a1:
                    31:1a:86:3f:5f:50:20:b3:40:67:92:c8:4b:9d:80:
                    90:84:8e:dc:11:8e:2c:f7:62:c5:b2:af:48:b3:d1:
                    25:6e:1d:1c:62:85:4f:f8:86:de:e0:9e:33:97:34:
                    e5:66:14:c5:67:e1:a8:dc:fc:44:31:3f:94:e4:8e:
                    6a:5f:98:d2:dc:4d:ab:2e:65:95:6d:ca:08:a2:ef:
                    17:e0:83:48:d1:dd:d8:0c:ce:f1:64:81:8f:57:72:
                    5d:65:36:eb:36:e3:3b:38:9d:a9:1c:82:c6:53:c6:
                    95:a1:1f:2e:e6:33:73:2e:55:e1:95:3b:55:65:92:
                    e6:c8:24:85:6f:30:e6:9c:b5:ad:fa:8e:ec:47:61:
                    57:f1:0d:1a:ae:30:72:e0:50:52:5c:e5:ff:fe:5b:
                    a2:d0:60:26:16:5b:34:f1:17:f4:f3:4d:f5:76:45:
                    6a:ac:6c:45:7b:ec:41:80:97:56:e8:f8:2c:af:37:
                    bf:6f:6e:af:a9:83:65:db:6b:0a:dc:e0:84:60:13:
                    9a:15:3e:d4:5d:13:63:31:3e:d1:35:eb:46:39:1c:
                    06:bf:b2:b8:0d:33:c4:c6:d5:31:9c:e2:7b:ac:14:
                    76:fe:f4:a7:03:fc:50:e2:a9:be:0e:2b:a7:f1:74:
                    a7:ac:79:d6:1d:c5:9c:97:01:85:d6:bc:b7:cd:a2:
                    4c:8e:08:19:67:6c:eb:8a:2a:97:45:07:48:d7:01:
                    3e:64:c8:c5:53:38:8b:93:09:ad:c6:c0:84:13:07:
                    7e:81:37
                Exponent: 65537 (0x10001)
        X509v3 extensions:
            X509v3 Basic Constraints: 
                CA:FALSE
            Netscape Comment: 
                Easy-RSA Generated Certificate
            X509v3 Subject Key Identifier: 
                9D:6B:64:0E:07:15:B0:24:B3:0B:39:D1:17:AD:CA:52:16:13:29:9C
            X509v3 Authority Key Identifier: 
                keyid:EF:38:8D:14:50:58:A7:5B:4D:9C:17:72:FC:DF:B9:AC:A7:51:B0:10
                DirName:/C=US/ST=CA/L=SanFrancisco/O=Pixglo, Inc./OU=VPN-CIE/CN=tunnel.pixglo.com/name=Bala Chandrasekaran/emailAddress=bala@pixglo.com
                serial:A6:DB:C6:83:80:E6:A0:79

            X509v3 Extended Key Usage: 
                TLS Web Client Authentication
            X509v3 Key Usage: 
                Digital Signature
    Signature Algorithm: sha1WithRSAEncryption
         30:53:d1:9a:14:b6:1a:b6:9e:ce:de:5f:cd:20:ed:7f:dd:c0:
         28:95:46:5b:65:da:e8:8c:1e:fa:de:01:f6:f2:bb:6b:d7:3f:
         5f:8e:7d:a9:99:88:b0:a2:7b:66:d5:bd:29:2d:41:c7:0d:c9:
         22:f7:c3:c5:ec:9f:6b:aa:58:5d:da:f4:5b:1b:f6:63:07:55:
         56:12:ff:44:57:a9:cc:a8:81:3c:c2:b4:f0:9f:e7:02:0e:62:
         71:09:0c:1b:4a:53:c2:99:e5:fb:fd:ff:9d:92:3f:db:bb:32:
         c1:ba:2a:d9:54:e9:94:84:1f:de:e2:b6:e9:29:dc:92:b9:41:
         b6:b1:ba:71:bf:b7:5b:8f:c0:e7:ab:0a:43:66:e6:e1:ba:7c:
         e4:6e:f6:9e:2b:63:b1:fc:9d:63:c1:eb:7a:16:73:79:d3:5b:
         ce:eb:65:e9:17:14:20:46:53:29:b0:31:0d:4b:72:0c:a4:f6:
         5c:a0:52:2d:e5:29:df:d3:0b:1d:3f:f7:51:ff:96:4d:af:23:
         3c:1e:c2:a3:0b:b1:0f:09:98:1d:31:c1:46:57:d9:e1:49:72:
         84:9a:04:17:ae:8b:21:05:a7:37:e2:5a:a0:ff:72:be:95:9c:
         e9:e1:96:50:1b:82:92:b9:69:a6:e0:96:4c:63:9a:8a:28:02:
         b2:0b:ec:89:05:e3:73:d2:22:50:40:31:b2:21:56:97:af:aa:
         06:4d:0e:1d:4b:12:23:44:9e:0e:36:24:8c:10:05:21:85:e0:
         7b:b0:44:c2:17:2b:fe:e9:07:35:2f:0d:c2:36:bd:29:1d:2f:
         86:15:ce:a1:8f:2a:dc:d1:ba:a2:46:89:1b:07:bc:89:54:30:
         dc:2a:ed:6b:65:b5:09:56:37:24:36:a3:a1:b0:bd:25:30:a0:
         ff:c8:bb:f5:ff:75:f9:c5:c3:2e:98:bb:92:92:1d:ee:91:06:
         10:79:c6:95:54:39:7a:78:37:9a:a9:b6:71:36:00:0a:f0:46:
         be:18:e6:c2:d6:11:64:df:ae:80:d4:df:ea:d6:7d:4d:79:76:
         f8:59:d3:fe:0b:91:7f:ec:86:c3:83:f4:87:e8:64:4f:e3:83:
         9c:a8:d2:ef:60:bd:55:6b:ca:2b:9f:2d:de:26:63:41:94:c8:
         5e:72:a5:b5:a3:6f:b6:6e:ed:de:36:02:ae:5e:3e:f3:b6:6a:
         53:a0:da:b0:ed:e2:d0:0e:20:93:9b:c0:1e:79:f6:13:4b:3c:
         70:d8:af:ec:5c:b1:2a:cb:2f:5b:92:0a:42:a1:a1:1c:c0:66:
         33:cc:b9:8b:e5:f0:71:b4:a4:45:d1:6e:c3:53:1e:5c:bc:95:
         5a:44:43:49:b8:5b:14:82
-----BEGIN CERTIFICATE-----
MIIHSDCCBTCgAwIBAgICA0wwDQYJKoZIhvcNAQEFBQAwgbQxCzAJBgNVBAYTAlVT
MQswCQYDVQQIEwJDQTEVMBMGA1UEBxMMU2FuRnJhbmNpc2NvMRUwEwYDVQQKEwxQ
aXhnbG8sIEluYy4xEDAOBgNVBAsTB1ZQTi1DSUUxGjAYBgNVBAMTEXR1bm5lbC5w
aXhnbG8uY29tMRwwGgYDVQQpExNCYWxhIENoYW5kcmFzZWthcmFuMR4wHAYJKoZI
hvcNAQkBFg9iYWxhQHBpeGdsby5jb20wHhcNMTgwMjE0MDY0NTE3WhcNMjgwMjEy
MDY0NTE3WjCBqTELMAkGA1UEBhMCVVMxCzAJBgNVBAgTAkNBMRUwEwYDVQQHEwxT
YW5GcmFuY2lzY28xFTATBgNVBAoTDFBpeGdsbywgSW5jLjEQMA4GA1UECxMHVlBO
LUNJRTEPMA0GA1UEAxMGY2llODQzMRwwGgYDVQQpExNCYWxhIENoYW5kcmFzZWth
cmFuMR4wHAYJKoZIhvcNAQkBFg9iYWxhQHBpeGdsby5jb20wggIiMA0GCSqGSIb3
DQEBAQUAA4ICDwAwggIKAoICAQDRBAxhu1bNJekmMjbp62rOt9t8PJFCSZhzLo+C
kQjvgAkpGVLDZGJr3mf+ZEnql/+cKMhoY7YE0RS2iUOaU33eBXX8u6mH/4lSoGpb
a/xPBICsBsrUUaXJ9ExrfKmBstlKqhmIxqf5PBxgwOTUc3MT+1nscoE+p75V7GP2
w/lYy1Wg+TwUKeu6bEbEj7NxjiPRNDa9ml4EkkJS0GbefmRnuktvF3YLHrVXItzC
rZbXjKkGL4b+2r7yf2cKgOZ5IIW/15GSI4MO/vA2rTd9RHC24FAFDrvtA6ul4xn4
gZzDoTEahj9fUCCzQGeSyEudgJCEjtwRjiz3YsWyr0iz0SVuHRxihU/4ht7gnjOX
NOVmFMVn4ajc/EQxP5TkjmpfmNLcTasuZZVtygii7xfgg0jR3dgMzvFkgY9Xcl1l
Nus24zs4nakcgsZTxpWhHy7mM3MuVeGVO1VlkubIJIVvMOacta36juxHYVfxDRqu
MHLgUFJc5f/+W6LQYCYWWzTxF/TzTfV2RWqsbEV77EGAl1bo+CyvN79vbq+pg2Xb
awrc4IRgE5oVPtRdE2MxPtE160Y5HAa/srgNM8TG1TGc4nusFHb+9KcD/FDiqb4O
K6fxdKesedYdxZyXAYXWvLfNokyOCBlnbOuKKpdFB0jXAT5kyMVTOIuTCa3GwIQT
B36BNwIDAQABo4IBazCCAWcwCQYDVR0TBAIwADAtBglghkgBhvhCAQ0EIBYeRWFz
eS1SU0EgR2VuZXJhdGVkIENlcnRpZmljYXRlMB0GA1UdDgQWBBSda2QOBxWwJLML
OdEXrcpSFhMpnDCB6QYDVR0jBIHhMIHegBTvOI0UUFinW02cF3L837msp1GwEKGB
uqSBtzCBtDELMAkGA1UEBhMCVVMxCzAJBgNVBAgTAkNBMRUwEwYDVQQHEwxTYW5G
cmFuY2lzY28xFTATBgNVBAoTDFBpeGdsbywgSW5jLjEQMA4GA1UECxMHVlBOLUNJ
RTEaMBgGA1UEAxMRdHVubmVsLnBpeGdsby5jb20xHDAaBgNVBCkTE0JhbGEgQ2hh
bmRyYXNla2FyYW4xHjAcBgkqhkiG9w0BCQEWD2JhbGFAcGl4Z2xvLmNvbYIJAKbb
xoOA5qB5MBMGA1UdJQQMMAoGCCsGAQUFBwMCMAsGA1UdDwQEAwIHgDANBgkqhkiG
9w0BAQUFAAOCAgEAMFPRmhS2Graezt5fzSDtf93AKJVGW2Xa6Iwe+t4B9vK7a9c/
X459qZmIsKJ7ZtW9KS1Bxw3JIvfDxeyfa6pYXdr0Wxv2YwdVVhL/RFepzKiBPMK0
8J/nAg5icQkMG0pTwpnl+/3/nZI/27sywboq2VTplIQf3uK26SnckrlBtrG6cb+3
W4/A56sKQ2bm4bp85G72nitjsfydY8HrehZzedNbzutl6RcUIEZTKbAxDUtyDKT2
XKBSLeUp39MLHT/3Uf+WTa8jPB7CowuxDwmYHTHBRlfZ4UlyhJoEF66LIQWnN+Ja
oP9yvpWc6eGWUBuCkrlppuCWTGOaiigCsgvsiQXjc9IiUEAxsiFWl6+qBk0OHUsS
I0SeDjYkjBAFIYXge7BEwhcr/ukHNS8Nwja9KR0vhhXOoY8q3NG6okaJGwe8iVQw
3Crta2W1CVY3JDajobC9JTCg/8i79f91+cXDLpi7kpId7pEGEHnGlVQ5eng3mqm2
cTYACvBGvhjmwtYRZN+ugNTf6tZ9TXl2+FnT/guRf+yGw4P0h+hkT+ODnKjS72C9
VWvKK58t3iZjQZTIXnKltaNvtm7t3jYCrl4+87ZqU6DasO3i0A4gk5vAHnn2E0s8
cNiv7FyxKssvW5IKQqGhHMBmM8y5i+XwcbSkRdFuw1MeXLyVWkRDSbhbFII=
-----END CERTIFICATE-----
