Certificate:
    Data:
        Version: 3 (0x2)
        Serial Number: 845 (0x34d)
    Signature Algorithm: sha1WithRSAEncryption
        Issuer: C=US, ST=CA, L=SanFrancisco, O=Pixglo, Inc., OU=VPN-CIE, CN=tunnel.pixglo.com/name=Bala Chandrasekaran/emailAddress=bala@pixglo.com
        Validity
            Not Before: Feb 14 06:45:19 2018 GMT
            Not After : Feb 12 06:45:19 2028 GMT
        Subject: C=US, ST=CA, L=SanFrancisco, O=Pixglo, Inc., OU=VPN-CIE, CN=cie844/name=Bala Chandrasekaran/emailAddress=bala@pixglo.com
        Subject Public Key Info:
            Public Key Algorithm: rsaEncryption
                Public-Key: (4096 bit)
                Modulus:
                    00:ba:d7:66:46:41:05:bf:ff:ea:2a:6a:ce:4d:7f:
                    18:1c:52:04:cf:ae:0a:aa:39:19:49:63:b4:1a:ae:
                    fb:0b:ba:25:82:1b:9c:82:8d:ba:93:10:c1:d3:a0:
                    4c:1b:3e:75:03:97:17:b7:4b:b6:30:f9:d7:47:7f:
                    9c:41:0c:2f:3f:c6:14:45:86:b6:93:b2:4d:1d:81:
                    35:ae:87:08:5b:e4:9b:84:a1:d8:47:8a:cc:56:a6:
                    79:48:02:d1:dd:ed:5e:dc:88:fe:9b:3d:38:bc:29:
                    27:2a:92:a7:bd:70:e3:6c:59:5d:eb:67:a8:f7:de:
                    37:b4:a2:64:40:e8:8e:c0:7a:47:8b:e7:6f:08:33:
                    fd:03:2d:94:46:f8:a0:40:12:3d:1c:89:b4:68:5e:
                    c2:aa:2f:0a:94:02:84:a8:f4:1d:7d:d8:b0:a5:55:
                    7b:86:42:f9:f6:2d:26:96:ab:34:75:ae:87:ac:97:
                    06:02:d9:ff:e4:8d:10:61:fd:52:b7:a9:2f:60:2b:
                    6b:cb:e0:b4:dc:43:9a:1f:d2:68:d3:2c:85:b7:cf:
                    76:2e:ef:d5:f0:84:fa:f1:33:6d:99:56:c7:fa:94:
                    d8:e3:8c:97:27:3f:b2:f0:c9:85:e4:75:15:28:f8:
                    be:83:e6:02:e5:de:a6:0a:0f:d1:2a:58:3d:73:7d:
                    81:c0:0b:e7:da:59:0e:33:8a:03:d1:ce:90:ed:2f:
                    05:08:27:f2:39:fb:cd:37:03:8c:fc:21:a9:8a:c0:
                    bc:bd:91:0b:07:c0:5c:0b:29:08:91:af:6f:19:bd:
                    9b:a8:1d:6c:0d:d0:66:0e:4e:c4:72:06:5d:1d:22:
                    d7:27:ad:57:73:88:00:13:08:f4:d0:7b:8b:8f:a4:
                    6d:9d:03:40:86:4a:3e:f0:8c:dd:83:16:45:c9:94:
                    ab:f9:05:54:39:f6:94:76:75:de:14:f9:e7:ef:53:
                    e5:9d:4e:0d:13:ea:36:cc:98:ab:00:e9:15:07:7c:
                    8b:f8:5e:14:55:d9:06:19:85:d1:b2:37:e7:80:b3:
                    c2:15:a6:8f:e1:4c:95:e7:06:6a:9f:39:5f:ae:b3:
                    e9:39:f4:ae:5f:13:d6:ee:29:07:fa:96:bc:d8:1b:
                    33:a5:55:c1:bf:49:0f:a1:69:fc:5f:34:14:b2:78:
                    21:1a:5a:da:bb:00:e4:89:3d:12:b1:5c:aa:3e:17:
                    00:7d:3d:86:cf:9a:39:75:af:76:14:a6:a6:27:c4:
                    3e:bf:3c:56:82:b4:d5:61:50:fd:86:c8:f7:32:6a:
                    80:3a:ca:c9:5a:3f:48:05:e5:79:3b:45:4f:10:d9:
                    9a:78:20:8d:c3:e3:f5:3a:d0:ff:16:b0:77:48:9b:
                    20:57:1f
                Exponent: 65537 (0x10001)
        X509v3 extensions:
            X509v3 Basic Constraints: 
                CA:FALSE
            Netscape Comment: 
                Easy-RSA Generated Certificate
            X509v3 Subject Key Identifier: 
                1D:33:18:1E:EA:13:E9:66:28:1E:AF:73:8E:F2:E5:22:6F:66:6D:3B
            X509v3 Authority Key Identifier: 
                keyid:EF:38:8D:14:50:58:A7:5B:4D:9C:17:72:FC:DF:B9:AC:A7:51:B0:10
                DirName:/C=US/ST=CA/L=SanFrancisco/O=Pixglo, Inc./OU=VPN-CIE/CN=tunnel.pixglo.com/name=Bala Chandrasekaran/emailAddress=bala@pixglo.com
                serial:A6:DB:C6:83:80:E6:A0:79

            X509v3 Extended Key Usage: 
                TLS Web Client Authentication
            X509v3 Key Usage: 
                Digital Signature
    Signature Algorithm: sha1WithRSAEncryption
         b1:20:13:f0:f6:40:53:c4:94:8a:0f:16:08:c9:ca:4a:38:f6:
         ad:21:92:c0:36:b3:2c:f6:39:f3:5d:c1:05:5e:63:09:67:a1:
         4e:d7:24:1b:96:8b:79:4a:f1:cf:32:e7:7b:d7:b0:8e:50:de:
         06:02:1e:e6:4d:7c:42:09:32:58:99:19:53:86:83:39:1e:78:
         7d:c7:f6:a2:c7:32:4a:d8:b7:bb:02:d1:ed:b4:ac:14:f1:0e:
         7b:78:ea:61:2d:5a:5a:f4:88:4f:bd:d6:39:a7:60:93:88:c7:
         61:ff:c3:e1:ec:fb:63:25:fe:17:0f:33:19:85:5d:34:36:f9:
         2b:fb:87:19:06:64:83:00:19:93:b5:75:d6:88:d4:06:c0:60:
         f3:73:1a:cc:b1:f4:59:a9:09:96:62:9b:21:4e:28:09:3a:a1:
         ad:f3:7e:9c:93:13:e6:b9:c2:b4:15:d7:d0:b4:4b:5e:89:3b:
         6f:d3:a8:48:4f:bd:27:db:00:3e:df:27:96:ec:49:33:b2:34:
         3f:2c:83:59:fb:f3:08:1f:21:ae:c9:32:ec:54:21:6c:9c:a0:
         01:f2:24:5a:b5:d9:20:d8:24:86:b1:60:aa:4e:07:7e:ee:36:
         1b:0b:a0:63:12:83:07:ce:a4:5a:db:c2:e1:7f:e1:8d:b8:19:
         18:40:80:00:4d:5d:af:82:90:b5:c0:d8:02:73:e5:dc:ba:86:
         7e:f2:06:a7:7f:0c:67:22:e0:d7:b2:6c:c6:4f:5d:b9:9d:37:
         51:2e:b4:9b:41:2d:bc:65:15:64:bc:0f:1b:48:ce:f0:ec:85:
         06:f0:ad:a5:c0:19:d5:d6:a3:08:42:8d:d4:1e:74:2a:54:96:
         86:a5:77:0b:74:2f:95:88:1c:14:10:a1:54:f1:b7:d9:97:15:
         02:72:73:11:41:c7:0f:a4:33:bd:3d:16:ed:8e:2d:d3:74:38:
         47:b9:1a:0b:19:9b:c5:f6:be:19:39:89:fe:fd:0f:24:f1:b7:
         ba:d6:e9:87:23:a0:d9:50:c1:3b:5a:15:7f:cb:77:b0:01:a6:
         53:b6:e2:02:ba:fc:07:25:52:53:f7:6d:ee:14:89:d6:26:da:
         7a:6d:06:d4:b7:be:72:b2:6d:8d:5e:69:f7:0a:a2:b1:ba:d5:
         c7:c1:db:a4:4a:7f:69:44:d9:88:c3:e0:2e:95:94:37:87:9b:
         db:cf:0b:e6:86:2b:ec:40:56:e8:f6:e8:c6:fc:5d:44:31:d4:
         b5:16:de:cd:82:40:17:67:70:69:69:7b:97:41:b1:18:49:57:
         e5:82:d9:1e:34:33:46:1c:78:e9:e4:f4:12:2d:61:cb:77:23:
         af:48:39:15:06:33:2c:b7
-----BEGIN CERTIFICATE-----
MIIHSDCCBTCgAwIBAgICA00wDQYJKoZIhvcNAQEFBQAwgbQxCzAJBgNVBAYTAlVT
MQswCQYDVQQIEwJDQTEVMBMGA1UEBxMMU2FuRnJhbmNpc2NvMRUwEwYDVQQKEwxQ
aXhnbG8sIEluYy4xEDAOBgNVBAsTB1ZQTi1DSUUxGjAYBgNVBAMTEXR1bm5lbC5w
aXhnbG8uY29tMRwwGgYDVQQpExNCYWxhIENoYW5kcmFzZWthcmFuMR4wHAYJKoZI
hvcNAQkBFg9iYWxhQHBpeGdsby5jb20wHhcNMTgwMjE0MDY0NTE5WhcNMjgwMjEy
MDY0NTE5WjCBqTELMAkGA1UEBhMCVVMxCzAJBgNVBAgTAkNBMRUwEwYDVQQHEwxT
YW5GcmFuY2lzY28xFTATBgNVBAoTDFBpeGdsbywgSW5jLjEQMA4GA1UECxMHVlBO
LUNJRTEPMA0GA1UEAxMGY2llODQ0MRwwGgYDVQQpExNCYWxhIENoYW5kcmFzZWth
cmFuMR4wHAYJKoZIhvcNAQkBFg9iYWxhQHBpeGdsby5jb20wggIiMA0GCSqGSIb3
DQEBAQUAA4ICDwAwggIKAoICAQC612ZGQQW//+oqas5NfxgcUgTPrgqqORlJY7Qa
rvsLuiWCG5yCjbqTEMHToEwbPnUDlxe3S7Yw+ddHf5xBDC8/xhRFhraTsk0dgTWu
hwhb5JuEodhHisxWpnlIAtHd7V7ciP6bPTi8KScqkqe9cONsWV3rZ6j33je0omRA
6I7AekeL528IM/0DLZRG+KBAEj0cibRoXsKqLwqUAoSo9B192LClVXuGQvn2LSaW
qzR1roeslwYC2f/kjRBh/VK3qS9gK2vL4LTcQ5of0mjTLIW3z3Yu79XwhPrxM22Z
Vsf6lNjjjJcnP7LwyYXkdRUo+L6D5gLl3qYKD9EqWD1zfYHAC+faWQ4zigPRzpDt
LwUIJ/I5+803A4z8IamKwLy9kQsHwFwLKQiRr28ZvZuoHWwN0GYOTsRyBl0dItcn
rVdziAATCPTQe4uPpG2dA0CGSj7wjN2DFkXJlKv5BVQ59pR2dd4U+efvU+WdTg0T
6jbMmKsA6RUHfIv4XhRV2QYZhdGyN+eAs8IVpo/hTJXnBmqfOV+us+k59K5fE9bu
KQf6lrzYGzOlVcG/SQ+hafxfNBSyeCEaWtq7AOSJPRKxXKo+FwB9PYbPmjl1r3YU
pqYnxD6/PFaCtNVhUP2GyPcyaoA6yslaP0gF5Xk7RU8Q2Zp4II3D4/U60P8WsHdI
myBXHwIDAQABo4IBazCCAWcwCQYDVR0TBAIwADAtBglghkgBhvhCAQ0EIBYeRWFz
eS1SU0EgR2VuZXJhdGVkIENlcnRpZmljYXRlMB0GA1UdDgQWBBQdMxge6hPpZige
r3OO8uUib2ZtOzCB6QYDVR0jBIHhMIHegBTvOI0UUFinW02cF3L837msp1GwEKGB
uqSBtzCBtDELMAkGA1UEBhMCVVMxCzAJBgNVBAgTAkNBMRUwEwYDVQQHEwxTYW5G
cmFuY2lzY28xFTATBgNVBAoTDFBpeGdsbywgSW5jLjEQMA4GA1UECxMHVlBOLUNJ
RTEaMBgGA1UEAxMRdHVubmVsLnBpeGdsby5jb20xHDAaBgNVBCkTE0JhbGEgQ2hh
bmRyYXNla2FyYW4xHjAcBgkqhkiG9w0BCQEWD2JhbGFAcGl4Z2xvLmNvbYIJAKbb
xoOA5qB5MBMGA1UdJQQMMAoGCCsGAQUFBwMCMAsGA1UdDwQEAwIHgDANBgkqhkiG
9w0BAQUFAAOCAgEAsSAT8PZAU8SUig8WCMnKSjj2rSGSwDazLPY5813BBV5jCWeh
TtckG5aLeUrxzzLne9ewjlDeBgIe5k18QgkyWJkZU4aDOR54fcf2oscySti3uwLR
7bSsFPEOe3jqYS1aWvSIT73WOadgk4jHYf/D4ez7YyX+Fw8zGYVdNDb5K/uHGQZk
gwAZk7V11ojUBsBg83MazLH0WakJlmKbIU4oCTqhrfN+nJMT5rnCtBXX0LRLXok7
b9OoSE+9J9sAPt8nluxJM7I0PyyDWfvzCB8hrsky7FQhbJygAfIkWrXZINgkhrFg
qk4Hfu42GwugYxKDB86kWtvC4X/hjbgZGECAAE1dr4KQtcDYAnPl3LqGfvIGp38M
ZyLg17Jsxk9duZ03US60m0EtvGUVZLwPG0jO8OyFBvCtpcAZ1dajCEKN1B50KlSW
hqV3C3QvlYgcFBChVPG32ZcVAnJzEUHHD6QzvT0W7Y4t03Q4R7kaCxmbxfa+GTmJ
/v0PJPG3utbphyOg2VDBO1oVf8t3sAGmU7biArr8ByVSU/dt7hSJ1ibaem0G1Le+
crJtjV5p9wqisbrVx8HbpEp/aUTZiMPgLpWUN4eb288L5oYr7EBW6PboxvxdRDHU
tRbezYJAF2dwaWl7l0GxGElX5YLZHjQzRhx46eT0Ei1hy3cjr0g5FQYzLLc=
-----END CERTIFICATE-----
