Certificate:
    Data:
        Version: 3 (0x2)
        Serial Number: 848 (0x350)
    Signature Algorithm: sha1WithRSAEncryption
        Issuer: C=US, ST=CA, L=SanFrancisco, O=Pixglo, Inc., OU=VPN-CIE, CN=tunnel.pixglo.com/name=Bala Chandrasekaran/emailAddress=bala@pixglo.com
        Validity
            Not Before: Feb 14 06:45:24 2018 GMT
            Not After : Feb 12 06:45:24 2028 GMT
        Subject: C=US, ST=CA, L=SanFrancisco, O=Pixglo, Inc., OU=VPN-CIE, CN=cie847/name=Bala Chandrasekaran/emailAddress=bala@pixglo.com
        Subject Public Key Info:
            Public Key Algorithm: rsaEncryption
                Public-Key: (4096 bit)
                Modulus:
                    00:f1:a2:c9:5d:1a:57:5f:74:27:94:80:d7:e1:b6:
                    71:d1:2e:89:66:52:20:dc:ab:7c:45:9b:27:10:6a:
                    7e:03:d3:82:89:16:2b:33:98:b2:82:00:56:88:23:
                    4d:6e:c0:52:c0:cd:24:56:22:85:82:5e:86:b7:38:
                    ec:0c:30:92:2b:21:80:d6:54:1a:36:93:8c:24:23:
                    06:10:a9:70:dc:f5:8e:68:6a:52:91:12:22:79:b8:
                    6b:f7:5c:4e:c3:35:c0:a2:c0:d2:1f:c4:40:a3:38:
                    63:51:f3:c6:6d:e5:a6:16:bf:0e:a2:92:22:bc:fc:
                    05:ff:4b:54:a3:74:59:df:f2:aa:53:88:ea:f8:25:
                    92:2e:c0:1d:31:33:26:95:4f:75:b9:0d:a7:47:5c:
                    c0:0e:4b:62:17:3e:27:22:35:d7:9a:b6:bc:d1:3e:
                    0e:19:7a:15:aa:30:f7:cd:4c:0d:98:7e:c1:d5:81:
                    ae:e9:ee:1f:f3:38:f6:d3:ba:0a:00:14:43:b6:c2:
                    00:4b:9b:06:f9:e5:3c:52:f9:44:ef:cc:bb:96:ce:
                    36:4d:4d:c9:75:94:d3:d6:27:e8:3f:5c:10:fd:24:
                    d9:5e:ff:fa:1b:44:94:db:b5:71:52:29:21:75:ef:
                    4a:d3:14:e8:90:60:14:a4:cc:84:ee:d0:8a:0b:ef:
                    0d:12:50:e0:28:9f:41:e7:0f:fb:1f:52:48:0f:46:
                    90:5d:7d:f4:7c:62:76:67:5b:0e:01:8b:f2:50:ae:
                    ef:03:40:8a:63:c4:cb:8e:dd:3a:5e:7f:41:18:83:
                    e6:dc:71:01:7f:74:d9:42:6e:10:29:ba:2f:da:ec:
                    0c:c7:4c:61:41:93:6c:10:68:dc:73:40:b3:ca:11:
                    38:92:b1:36:3e:7a:60:e7:0c:2b:d6:05:19:fc:88:
                    d4:1a:d1:7e:94:b9:3b:07:c8:1c:91:89:99:c0:b2:
                    09:16:fe:f7:d3:bd:8c:4c:87:af:77:56:f3:ae:09:
                    de:49:4d:ae:92:b7:89:07:92:69:39:75:f5:4e:43:
                    30:2d:6b:7f:50:82:1e:c5:e0:b1:57:ad:bc:58:96:
                    a1:80:53:33:63:d8:b9:26:be:cf:76:12:e1:cc:0b:
                    7e:47:82:8b:68:38:22:92:5e:15:08:23:9f:f6:90:
                    99:ed:d2:69:27:7a:9b:6e:ec:95:10:3b:8d:4e:25:
                    17:47:f9:bc:b9:48:c1:bc:12:40:7e:1c:be:24:a6:
                    93:47:59:2d:3e:49:90:ee:4d:09:ad:c2:48:d0:a6:
                    05:f8:9a:85:49:4b:cb:c9:46:70:9d:f0:15:66:98:
                    20:b7:08:15:1c:f1:06:21:51:b4:fe:ce:e0:d1:74:
                    d5:07:bf
                Exponent: 65537 (0x10001)
        X509v3 extensions:
            X509v3 Basic Constraints: 
                CA:FALSE
            Netscape Comment: 
                Easy-RSA Generated Certificate
            X509v3 Subject Key Identifier: 
                FF:CA:B2:C9:FF:98:8F:54:74:EE:D7:52:E2:7D:D4:E7:46:52:3C:8D
            X509v3 Authority Key Identifier: 
                keyid:EF:38:8D:14:50:58:A7:5B:4D:9C:17:72:FC:DF:B9:AC:A7:51:B0:10
                DirName:/C=US/ST=CA/L=SanFrancisco/O=Pixglo, Inc./OU=VPN-CIE/CN=tunnel.pixglo.com/name=Bala Chandrasekaran/emailAddress=bala@pixglo.com
                serial:A6:DB:C6:83:80:E6:A0:79

            X509v3 Extended Key Usage: 
                TLS Web Client Authentication
            X509v3 Key Usage: 
                Digital Signature
    Signature Algorithm: sha1WithRSAEncryption
         75:28:48:38:3e:81:b0:c4:1d:4e:e5:60:50:3b:4f:ba:c3:f3:
         c6:de:82:45:44:a2:5e:79:d1:59:66:e6:94:55:51:9b:3f:10:
         e7:1a:a7:26:ac:45:e9:88:10:ee:da:f6:02:65:18:ac:09:a7:
         64:3e:07:7d:e4:f4:eb:20:4f:1a:c6:bc:60:23:76:ee:eb:93:
         07:d5:26:c2:75:5b:8b:06:2a:34:62:17:c0:46:bc:41:c9:da:
         08:57:31:4d:e2:99:17:da:f5:d0:b9:ec:7b:d8:85:3f:db:41:
         90:49:78:73:4c:9d:17:16:33:8e:cc:a3:af:33:bb:7d:9d:d6:
         de:b4:bc:35:1e:de:de:81:4e:09:93:18:25:62:c4:70:6c:7d:
         75:ae:94:6e:bd:2b:b1:36:43:c8:e4:aa:94:40:8f:a9:a6:74:
         a2:ab:df:4b:c2:14:22:7c:27:ed:42:d1:67:7c:f7:d8:0a:a0:
         79:67:88:e0:6f:99:69:2d:3d:dc:14:7c:81:56:e6:4c:b9:cb:
         38:bc:3b:f1:0e:05:a1:6a:1c:7a:b4:1c:ab:8b:33:ec:c4:80:
         65:03:10:fb:3f:0c:50:30:03:3c:2a:c0:20:3a:2c:41:39:4a:
         a0:a0:80:e0:87:c4:9a:bd:00:ce:51:56:c5:90:cf:bd:fa:de:
         71:86:81:6c:f6:0f:c0:9c:59:83:f6:84:5a:97:ac:2b:44:63:
         49:8a:92:eb:51:82:27:78:8b:41:d3:f3:71:ed:6e:c2:c9:1b:
         60:d7:ea:b8:71:22:12:95:96:ba:82:d6:e4:aa:dd:e4:2e:47:
         4e:d3:e8:57:99:63:83:4b:4f:fc:66:81:e8:dd:7e:3c:10:00:
         6a:02:d9:44:62:f2:30:7c:e8:09:43:46:9f:4b:5e:00:dd:24:
         95:12:b2:b7:34:fb:f7:83:cf:7e:5c:13:77:56:d8:2d:d6:75:
         d4:94:ee:ed:59:ca:32:e5:38:67:2d:d4:78:2e:c1:02:de:60:
         2e:32:9e:87:cf:f6:2e:ff:e8:58:31:58:b5:a9:16:45:22:87:
         87:df:17:ed:8f:a4:6c:33:8e:00:2f:34:0f:a7:b9:d2:6f:9b:
         13:f8:a8:39:d9:6f:38:15:54:39:ef:c0:87:0a:69:44:ca:11:
         f9:d6:02:5d:81:ed:67:ee:bc:79:b9:9d:11:78:4f:46:c2:29:
         f0:71:7a:fe:ad:77:a9:89:dc:c5:98:13:f3:92:d5:8c:1d:ba:
         46:74:43:b7:49:70:c2:da:ca:8c:0c:43:6c:0b:2c:77:3c:14:
         52:4f:d1:49:f2:9c:f6:8c:af:f4:e7:e1:75:e2:37:f6:77:e5:
         69:11:37:d3:6c:99:a6:52
-----BEGIN CERTIFICATE-----
MIIHSDCCBTCgAwIBAgICA1AwDQYJKoZIhvcNAQEFBQAwgbQxCzAJBgNVBAYTAlVT
MQswCQYDVQQIEwJDQTEVMBMGA1UEBxMMU2FuRnJhbmNpc2NvMRUwEwYDVQQKEwxQ
aXhnbG8sIEluYy4xEDAOBgNVBAsTB1ZQTi1DSUUxGjAYBgNVBAMTEXR1bm5lbC5w
aXhnbG8uY29tMRwwGgYDVQQpExNCYWxhIENoYW5kcmFzZWthcmFuMR4wHAYJKoZI
hvcNAQkBFg9iYWxhQHBpeGdsby5jb20wHhcNMTgwMjE0MDY0NTI0WhcNMjgwMjEy
MDY0NTI0WjCBqTELMAkGA1UEBhMCVVMxCzAJBgNVBAgTAkNBMRUwEwYDVQQHEwxT
YW5GcmFuY2lzY28xFTATBgNVBAoTDFBpeGdsbywgSW5jLjEQMA4GA1UECxMHVlBO
LUNJRTEPMA0GA1UEAxMGY2llODQ3MRwwGgYDVQQpExNCYWxhIENoYW5kcmFzZWth
cmFuMR4wHAYJKoZIhvcNAQkBFg9iYWxhQHBpeGdsby5jb20wggIiMA0GCSqGSIb3
DQEBAQUAA4ICDwAwggIKAoICAQDxosldGldfdCeUgNfhtnHRLolmUiDcq3xFmycQ
an4D04KJFiszmLKCAFaII01uwFLAzSRWIoWCXoa3OOwMMJIrIYDWVBo2k4wkIwYQ
qXDc9Y5oalKREiJ5uGv3XE7DNcCiwNIfxECjOGNR88Zt5aYWvw6ikiK8/AX/S1Sj
dFnf8qpTiOr4JZIuwB0xMyaVT3W5DadHXMAOS2IXPiciNdeatrzRPg4ZehWqMPfN
TA2YfsHVga7p7h/zOPbTugoAFEO2wgBLmwb55TxS+UTvzLuWzjZNTcl1lNPWJ+g/
XBD9JNle//obRJTbtXFSKSF170rTFOiQYBSkzITu0IoL7w0SUOAon0HnD/sfUkgP
RpBdffR8YnZnWw4Bi/JQru8DQIpjxMuO3Tpef0EYg+bccQF/dNlCbhApui/a7AzH
TGFBk2wQaNxzQLPKETiSsTY+emDnDCvWBRn8iNQa0X6UuTsHyByRiZnAsgkW/vfT
vYxMh693VvOuCd5JTa6St4kHkmk5dfVOQzAta39Qgh7F4LFXrbxYlqGAUzNj2Lkm
vs92EuHMC35HgotoOCKSXhUII5/2kJnt0mkneptu7JUQO41OJRdH+by5SMG8EkB+
HL4kppNHWS0+SZDuTQmtwkjQpgX4moVJS8vJRnCd8BVmmCC3CBUc8QYhUbT+zuDR
dNUHvwIDAQABo4IBazCCAWcwCQYDVR0TBAIwADAtBglghkgBhvhCAQ0EIBYeRWFz
eS1SU0EgR2VuZXJhdGVkIENlcnRpZmljYXRlMB0GA1UdDgQWBBT/yrLJ/5iPVHTu
11LifdTnRlI8jTCB6QYDVR0jBIHhMIHegBTvOI0UUFinW02cF3L837msp1GwEKGB
uqSBtzCBtDELMAkGA1UEBhMCVVMxCzAJBgNVBAgTAkNBMRUwEwYDVQQHEwxTYW5G
cmFuY2lzY28xFTATBgNVBAoTDFBpeGdsbywgSW5jLjEQMA4GA1UECxMHVlBOLUNJ
RTEaMBgGA1UEAxMRdHVubmVsLnBpeGdsby5jb20xHDAaBgNVBCkTE0JhbGEgQ2hh
bmRyYXNla2FyYW4xHjAcBgkqhkiG9w0BCQEWD2JhbGFAcGl4Z2xvLmNvbYIJAKbb
xoOA5qB5MBMGA1UdJQQMMAoGCCsGAQUFBwMCMAsGA1UdDwQEAwIHgDANBgkqhkiG
9w0BAQUFAAOCAgEAdShIOD6BsMQdTuVgUDtPusPzxt6CRUSiXnnRWWbmlFVRmz8Q
5xqnJqxF6YgQ7tr2AmUYrAmnZD4HfeT06yBPGsa8YCN27uuTB9UmwnVbiwYqNGIX
wEa8QcnaCFcxTeKZF9r10Lnse9iFP9tBkEl4c0ydFxYzjsyjrzO7fZ3W3rS8NR7e
3oFOCZMYJWLEcGx9da6Ubr0rsTZDyOSqlECPqaZ0oqvfS8IUInwn7ULRZ3z32Aqg
eWeI4G+ZaS093BR8gVbmTLnLOLw78Q4FoWocerQcq4sz7MSAZQMQ+z8MUDADPCrA
IDosQTlKoKCA4IfEmr0AzlFWxZDPvfrecYaBbPYPwJxZg/aEWpesK0RjSYqS61GC
J3iLQdPzce1uwskbYNfquHEiEpWWuoLW5Krd5C5HTtPoV5ljg0tP/GaB6N1+PBAA
agLZRGLyMHzoCUNGn0teAN0klRKytzT794PPflwTd1bYLdZ11JTu7VnKMuU4Zy3U
eC7BAt5gLjKeh8/2Lv/oWDFYtakWRSKHh98X7Y+kbDOOAC80D6e50m+bE/ioOdlv
OBVUOe/AhwppRMoR+dYCXYHtZ+68ebmdEXhPRsIp8HF6/q13qYncxZgT85LVjB26
RnRDt0lwwtrKjAxDbAssdzwUUk/RSfKc9oyv9OfhdeI39nflaRE302yZplI=
-----END CERTIFICATE-----
