Certificate:
    Data:
        Version: 3 (0x2)
        Serial Number: 849 (0x351)
    Signature Algorithm: sha1WithRSAEncryption
        Issuer: C=US, ST=CA, L=SanFrancisco, O=Pixglo, Inc., OU=VPN-CIE, CN=tunnel.pixglo.com/name=Bala Chandrasekaran/emailAddress=bala@pixglo.com
        Validity
            Not Before: Feb 14 06:45:25 2018 GMT
            Not After : Feb 12 06:45:25 2028 GMT
        Subject: C=US, ST=CA, L=SanFrancisco, O=Pixglo, Inc., OU=VPN-CIE, CN=cie848/name=Bala Chandrasekaran/emailAddress=bala@pixglo.com
        Subject Public Key Info:
            Public Key Algorithm: rsaEncryption
                Public-Key: (4096 bit)
                Modulus:
                    00:e3:28:b7:c4:2c:67:84:a9:2a:4b:5c:82:75:2f:
                    45:8b:7b:42:19:4e:10:0a:8d:53:22:38:fb:4c:c1:
                    e3:4e:0d:67:dd:32:7f:4d:77:af:8f:18:80:8d:e1:
                    f7:2b:33:6b:94:ee:de:76:fc:46:13:12:8f:1f:92:
                    2a:b3:19:5d:fb:21:96:29:b1:41:ac:7d:11:3b:ab:
                    5b:44:47:3b:4e:67:15:78:8b:8f:a3:c5:fe:55:09:
                    fa:bf:f0:a5:8d:e3:f4:df:61:b1:ae:68:63:89:e8:
                    ee:6d:9d:3e:6a:54:f3:c8:f3:c9:94:4c:93:cc:62:
                    00:28:77:24:30:0e:d0:85:2c:7b:1a:6f:49:33:8b:
                    4e:d6:fb:e9:0e:18:3a:61:37:ad:b1:d1:84:d5:61:
                    a9:1b:eb:8b:f1:81:6d:4a:24:5f:a9:4a:b6:4c:ee:
                    ff:53:41:17:6b:36:af:4a:ac:4b:cd:51:de:d7:be:
                    60:12:eb:02:08:1c:cd:26:74:c7:e9:d2:98:f7:e2:
                    08:24:0c:fc:4f:08:09:32:7d:dd:0f:4e:93:36:7f:
                    d1:fc:3f:25:d4:d0:2c:a6:8c:d1:84:8b:a0:43:8e:
                    be:bc:bf:c9:b5:20:a9:b5:8d:fd:77:8b:39:64:a0:
                    7c:9a:ea:6b:3e:a6:8f:73:86:d8:0e:72:b9:22:3e:
                    f9:a4:dc:af:4a:2e:43:e4:bf:bc:c8:51:79:1b:37:
                    79:a4:1b:03:8a:44:01:37:bb:7a:43:b1:70:76:a7:
                    46:4a:81:9d:11:29:41:e0:74:26:04:17:41:b5:1a:
                    9f:c6:db:a2:62:44:c3:98:62:6f:05:fb:8d:08:2f:
                    18:ee:fa:50:91:e7:46:cb:52:3f:04:42:93:5b:84:
                    2f:ed:d3:3f:bb:0f:c7:90:1f:09:38:2a:e7:29:57:
                    a6:36:d8:51:74:74:36:26:b2:7a:79:0f:1f:2a:d9:
                    c7:25:da:f8:d2:86:96:7e:6f:45:e8:ad:e4:a7:0f:
                    be:07:d3:a6:1b:b8:7b:f3:42:59:5a:89:a7:cd:31:
                    29:39:dd:eb:f9:86:94:cc:7b:65:58:79:ca:da:07:
                    16:36:dc:53:e5:2a:20:58:ad:8b:1f:c6:27:98:d0:
                    9a:4f:9e:b2:9f:08:0f:d5:7a:0e:ee:77:5d:a6:f0:
                    2f:34:df:47:07:64:72:e6:f2:d2:46:97:39:25:6a:
                    bb:32:57:0d:70:5f:72:e1:34:2a:32:24:c3:1a:1e:
                    f2:39:fa:da:a9:4e:89:ff:81:f7:08:88:c4:42:07:
                    ef:1f:6a:43:6e:9d:52:d7:5b:33:ee:af:d1:22:8d:
                    94:20:dd:4f:ef:b6:e7:9c:b8:fc:e0:53:06:cb:da:
                    6e:b4:6b
                Exponent: 65537 (0x10001)
        X509v3 extensions:
            X509v3 Basic Constraints: 
                CA:FALSE
            Netscape Comment: 
                Easy-RSA Generated Certificate
            X509v3 Subject Key Identifier: 
                84:21:74:05:DB:6C:A9:FB:BA:DD:05:0C:7A:53:8E:B4:DE:80:30:3F
            X509v3 Authority Key Identifier: 
                keyid:EF:38:8D:14:50:58:A7:5B:4D:9C:17:72:FC:DF:B9:AC:A7:51:B0:10
                DirName:/C=US/ST=CA/L=SanFrancisco/O=Pixglo, Inc./OU=VPN-CIE/CN=tunnel.pixglo.com/name=Bala Chandrasekaran/emailAddress=bala@pixglo.com
                serial:A6:DB:C6:83:80:E6:A0:79

            X509v3 Extended Key Usage: 
                TLS Web Client Authentication
            X509v3 Key Usage: 
                Digital Signature
    Signature Algorithm: sha1WithRSAEncryption
         5a:ce:89:2c:94:e9:d9:46:5a:ab:62:2f:de:81:89:a8:f5:1e:
         83:a1:18:fa:e3:cd:97:41:9b:a6:d0:3b:e5:1e:bd:04:24:f6:
         00:80:dc:2b:40:6e:53:8f:a0:3c:92:54:13:5b:f8:9f:21:03:
         77:92:7e:26:00:97:50:3c:08:08:33:84:af:b9:b6:cf:64:62:
         9e:b7:d4:b2:18:67:1b:b2:98:cf:2d:55:ea:ad:f7:31:8a:62:
         06:88:53:9f:f6:e1:6f:f6:6f:53:c7:51:d6:9a:61:b4:d1:48:
         67:25:b0:0b:7e:69:82:d5:d4:fb:55:bb:7b:64:b9:f7:07:f5:
         8d:30:1b:e4:4c:93:8a:13:83:11:e3:a1:60:5e:82:1d:01:f9:
         99:5b:97:3d:91:93:a2:7b:d9:ba:ce:44:2c:aa:d6:fd:23:54:
         d7:c9:a2:0e:1d:d0:4c:79:cc:d1:ad:e2:a1:aa:67:15:86:66:
         92:81:35:61:27:de:b9:a2:47:cd:6e:0b:b3:3f:75:0b:f2:fc:
         94:24:18:37:50:da:3e:f9:7c:6d:62:9f:97:a9:b6:b1:9a:d8:
         1e:fc:46:d6:13:0a:ef:47:68:9e:2c:08:a4:9b:e1:b2:3e:d3:
         d7:79:bb:37:4f:ed:55:da:6a:b9:93:77:ba:72:15:31:07:c5:
         04:31:a8:9e:00:e1:c1:4d:60:e4:01:2c:36:50:e9:93:a5:fa:
         7c:3f:06:d7:0b:29:3a:e4:6f:f4:9e:e6:e1:9e:ff:ed:e5:12:
         d7:8a:ef:be:08:da:cc:82:74:4b:e6:b1:9f:b4:45:cf:67:71:
         db:67:6f:8e:ed:92:22:a9:3e:98:b1:ae:c0:cc:8a:20:f4:45:
         ab:6a:67:90:7a:d4:f7:85:d7:c9:de:2d:e2:5a:00:bf:cb:91:
         17:55:a0:b2:c0:35:50:5c:1b:58:5c:cd:43:14:ba:94:70:3f:
         59:96:f8:ef:72:af:24:9b:d8:f9:89:18:f9:60:97:e4:80:78:
         17:aa:14:c3:0d:0d:b6:ea:23:b4:58:bb:35:a0:06:40:7e:39:
         be:fd:66:8f:e1:46:ea:b7:ff:9a:d4:c3:6c:46:54:1a:21:c9:
         9d:ac:8f:d3:63:f3:b6:1a:c9:7b:91:02:3f:59:69:bc:68:35:
         e3:cd:1a:42:ee:38:62:ed:49:d8:15:9c:00:98:c3:e3:d3:d9:
         36:b8:e1:da:ca:97:56:69:be:71:41:53:8f:31:c2:22:dc:b1:
         39:e2:92:48:fd:09:b9:e8:3b:47:53:43:ec:e4:bf:7f:f3:f7:
         14:05:4d:dc:04:0e:32:86:49:18:05:bf:ab:d7:47:ee:b6:da:
         8c:4a:c2:b8:ca:73:cd:79
-----BEGIN CERTIFICATE-----
MIIHSDCCBTCgAwIBAgICA1EwDQYJKoZIhvcNAQEFBQAwgbQxCzAJBgNVBAYTAlVT
MQswCQYDVQQIEwJDQTEVMBMGA1UEBxMMU2FuRnJhbmNpc2NvMRUwEwYDVQQKEwxQ
aXhnbG8sIEluYy4xEDAOBgNVBAsTB1ZQTi1DSUUxGjAYBgNVBAMTEXR1bm5lbC5w
aXhnbG8uY29tMRwwGgYDVQQpExNCYWxhIENoYW5kcmFzZWthcmFuMR4wHAYJKoZI
hvcNAQkBFg9iYWxhQHBpeGdsby5jb20wHhcNMTgwMjE0MDY0NTI1WhcNMjgwMjEy
MDY0NTI1WjCBqTELMAkGA1UEBhMCVVMxCzAJBgNVBAgTAkNBMRUwEwYDVQQHEwxT
YW5GcmFuY2lzY28xFTATBgNVBAoTDFBpeGdsbywgSW5jLjEQMA4GA1UECxMHVlBO
LUNJRTEPMA0GA1UEAxMGY2llODQ4MRwwGgYDVQQpExNCYWxhIENoYW5kcmFzZWth
cmFuMR4wHAYJKoZIhvcNAQkBFg9iYWxhQHBpeGdsby5jb20wggIiMA0GCSqGSIb3
DQEBAQUAA4ICDwAwggIKAoICAQDjKLfELGeEqSpLXIJ1L0WLe0IZThAKjVMiOPtM
weNODWfdMn9Nd6+PGICN4fcrM2uU7t52/EYTEo8fkiqzGV37IZYpsUGsfRE7q1tE
RztOZxV4i4+jxf5VCfq/8KWN4/TfYbGuaGOJ6O5tnT5qVPPI88mUTJPMYgAodyQw
DtCFLHsab0kzi07W++kOGDphN62x0YTVYakb64vxgW1KJF+pSrZM7v9TQRdrNq9K
rEvNUd7XvmAS6wIIHM0mdMfp0pj34ggkDPxPCAkyfd0PTpM2f9H8PyXU0CymjNGE
i6BDjr68v8m1IKm1jf13izlkoHya6ms+po9zhtgOcrkiPvmk3K9KLkPkv7zIUXkb
N3mkGwOKRAE3u3pDsXB2p0ZKgZ0RKUHgdCYEF0G1Gp/G26JiRMOYYm8F+40ILxju
+lCR50bLUj8EQpNbhC/t0z+7D8eQHwk4KucpV6Y22FF0dDYmsnp5Dx8q2ccl2vjS
hpZ+b0XoreSnD74H06YbuHvzQllaiafNMSk53ev5hpTMe2VYecraBxY23FPlKiBY
rYsfxieY0JpPnrKfCA/Veg7ud12m8C8030cHZHLm8tJGlzklarsyVw1wX3LhNCoy
JMMaHvI5+tqpTon/gfcIiMRCB+8fakNunVLXWzPur9EijZQg3U/vtuecuPzgUwbL
2m60awIDAQABo4IBazCCAWcwCQYDVR0TBAIwADAtBglghkgBhvhCAQ0EIBYeRWFz
eS1SU0EgR2VuZXJhdGVkIENlcnRpZmljYXRlMB0GA1UdDgQWBBSEIXQF22yp+7rd
BQx6U4603oAwPzCB6QYDVR0jBIHhMIHegBTvOI0UUFinW02cF3L837msp1GwEKGB
uqSBtzCBtDELMAkGA1UEBhMCVVMxCzAJBgNVBAgTAkNBMRUwEwYDVQQHEwxTYW5G
cmFuY2lzY28xFTATBgNVBAoTDFBpeGdsbywgSW5jLjEQMA4GA1UECxMHVlBOLUNJ
RTEaMBgGA1UEAxMRdHVubmVsLnBpeGdsby5jb20xHDAaBgNVBCkTE0JhbGEgQ2hh
bmRyYXNla2FyYW4xHjAcBgkqhkiG9w0BCQEWD2JhbGFAcGl4Z2xvLmNvbYIJAKbb
xoOA5qB5MBMGA1UdJQQMMAoGCCsGAQUFBwMCMAsGA1UdDwQEAwIHgDANBgkqhkiG
9w0BAQUFAAOCAgEAWs6JLJTp2UZaq2Iv3oGJqPUeg6EY+uPNl0GbptA75R69BCT2
AIDcK0BuU4+gPJJUE1v4nyEDd5J+JgCXUDwICDOEr7m2z2RinrfUshhnG7KYzy1V
6q33MYpiBohTn/bhb/ZvU8dR1pphtNFIZyWwC35pgtXU+1W7e2S59wf1jTAb5EyT
ihODEeOhYF6CHQH5mVuXPZGTonvZus5ELKrW/SNU18miDh3QTHnM0a3ioapnFYZm
koE1YSfeuaJHzW4Lsz91C/L8lCQYN1DaPvl8bWKfl6m2sZrYHvxG1hMK70doniwI
pJvhsj7T13m7N0/tVdpquZN3unIVMQfFBDGongDhwU1g5AEsNlDpk6X6fD8G1wsp
OuRv9J7m4Z7/7eUS14rvvgjazIJ0S+axn7RFz2dx22dvju2SIqk+mLGuwMyKIPRF
q2pnkHrU94XXyd4t4loAv8uRF1WgssA1UFwbWFzNQxS6lHA/WZb473KvJJvY+YkY
+WCX5IB4F6oUww0NtuojtFi7NaAGQH45vv1mj+FG6rf/mtTDbEZUGiHJnayP02Pz
thrJe5ECP1lpvGg1480aQu44Yu1J2BWcAJjD49PZNrjh2sqXVmm+cUFTjzHCItyx
OeKSSP0Jueg7R1ND7OS/f/P3FAVN3AQOMoZJGAW/q9dH7rbajErCuMpzzXk=
-----END CERTIFICATE-----
