Certificate:
    Data:
        Version: 3 (0x2)
        Serial Number: 850 (0x352)
    Signature Algorithm: sha1WithRSAEncryption
        Issuer: C=US, ST=CA, L=SanFrancisco, O=Pixglo, Inc., OU=VPN-CIE, CN=tunnel.pixglo.com/name=Bala Chandrasekaran/emailAddress=bala@pixglo.com
        Validity
            Not Before: Feb 14 06:45:26 2018 GMT
            Not After : Feb 12 06:45:26 2028 GMT
        Subject: C=US, ST=CA, L=SanFrancisco, O=Pixglo, Inc., OU=VPN-CIE, CN=cie849/name=Bala Chandrasekaran/emailAddress=bala@pixglo.com
        Subject Public Key Info:
            Public Key Algorithm: rsaEncryption
                Public-Key: (4096 bit)
                Modulus:
                    00:c4:48:18:ea:d7:dd:fa:38:e6:10:32:8f:70:38:
                    f3:2c:30:60:0c:38:41:b9:5c:f5:7e:fe:35:02:27:
                    a4:99:f8:d8:5b:83:af:75:82:45:da:cd:14:2d:2a:
                    b0:84:b9:b3:05:da:0f:55:80:4a:23:8d:8d:79:2a:
                    21:71:02:36:26:12:1c:2b:8b:63:78:81:7c:84:c8:
                    71:db:5b:4b:66:cf:b1:3a:84:98:86:98:27:f3:ce:
                    8c:c9:60:fb:4f:2a:a3:55:87:a1:e7:98:f1:98:f3:
                    c1:65:bb:d6:24:b2:c7:02:17:96:31:34:3d:f1:be:
                    5d:fe:c8:bf:25:de:8f:e3:e8:f7:9d:3c:fc:d2:de:
                    1f:68:6b:19:28:62:c9:6c:e0:da:79:da:93:10:06:
                    1a:76:ed:52:70:04:9f:c2:15:a7:5a:f4:07:a1:14:
                    7f:f9:3c:42:72:fc:92:a0:dd:fb:7b:91:6b:06:11:
                    c2:a6:f6:45:04:31:aa:65:fe:31:8a:4c:16:39:fc:
                    5f:b7:b6:94:93:15:92:d7:7b:05:72:a8:e3:59:bd:
                    b1:4f:a1:9b:aa:66:59:33:21:e4:72:aa:8c:e9:6b:
                    0f:de:f6:41:6f:b6:34:3e:d2:f1:68:81:89:2c:28:
                    ee:ef:82:8e:b9:3d:5b:ae:c8:59:ca:54:81:d4:64:
                    3d:55:ab:f0:96:08:a1:8f:98:b6:1d:b7:50:35:1a:
                    0c:15:45:68:73:e2:0a:82:2d:c9:6b:27:6b:d8:d5:
                    f3:98:49:a5:83:87:e6:f3:d0:fc:b6:57:cb:d8:a9:
                    84:74:53:7c:ed:31:67:ac:2a:b4:7a:d6:b7:bf:c5:
                    8c:be:4d:ab:d4:38:3d:c1:f6:61:3a:39:17:ec:2f:
                    76:37:39:3f:7c:3b:fb:80:3d:bb:8a:70:72:64:10:
                    27:1f:cd:8e:f5:3a:3d:1a:5d:c1:67:30:b7:35:14:
                    0b:4b:93:82:29:ff:1c:0b:a1:5d:5d:30:7c:86:69:
                    ff:42:0b:b0:be:6c:2b:49:dc:fd:52:ba:70:20:8d:
                    29:91:1e:ff:36:7e:82:b9:83:4a:b1:52:36:f4:8d:
                    5d:4c:05:92:fa:88:d7:45:6c:54:03:61:02:80:8d:
                    5d:70:74:c2:40:e7:13:4a:96:7c:42:1e:cf:a9:d1:
                    18:80:78:44:41:7f:7b:a1:87:d2:ee:29:51:71:8c:
                    b2:84:b5:94:3e:49:7e:b8:b9:b1:f9:51:84:3a:70:
                    46:34:8d:4a:96:3d:8d:2b:a5:67:1e:6d:82:f0:41:
                    81:b3:5d:86:ea:b8:d1:c5:17:77:ca:f2:9b:c8:e9:
                    9a:3d:c1:0d:bc:ae:0d:fe:04:0c:db:b3:76:69:b1:
                    82:bd:e7
                Exponent: 65537 (0x10001)
        X509v3 extensions:
            X509v3 Basic Constraints: 
                CA:FALSE
            Netscape Comment: 
                Easy-RSA Generated Certificate
            X509v3 Subject Key Identifier: 
                75:41:80:CA:CA:61:FB:F1:53:0B:03:CE:E0:EE:FE:47:6B:E7:F1:94
            X509v3 Authority Key Identifier: 
                keyid:EF:38:8D:14:50:58:A7:5B:4D:9C:17:72:FC:DF:B9:AC:A7:51:B0:10
                DirName:/C=US/ST=CA/L=SanFrancisco/O=Pixglo, Inc./OU=VPN-CIE/CN=tunnel.pixglo.com/name=Bala Chandrasekaran/emailAddress=bala@pixglo.com
                serial:A6:DB:C6:83:80:E6:A0:79

            X509v3 Extended Key Usage: 
                TLS Web Client Authentication
            X509v3 Key Usage: 
                Digital Signature
    Signature Algorithm: sha1WithRSAEncryption
         11:4e:14:36:64:70:74:78:31:cc:93:4a:44:98:78:79:96:64:
         ad:4a:1c:c7:54:88:9e:05:73:dc:02:d7:2b:d9:be:81:b5:e9:
         71:b7:f6:bc:b2:0d:79:30:88:7a:e8:48:1c:a8:5e:39:99:6a:
         58:8f:de:16:0f:04:6d:cf:ff:18:a2:bd:b3:7b:5d:9f:8d:ce:
         f1:47:de:52:67:a8:b7:e8:6e:cb:ca:20:27:36:6c:12:c9:94:
         47:1e:4f:51:d9:0c:b4:33:fa:fe:a2:a6:1b:9e:42:25:40:e9:
         60:ec:5d:d5:84:28:c6:87:ad:66:26:4d:ea:98:24:7a:ed:6a:
         0e:9e:32:d5:1d:0d:7d:77:28:cb:b4:a0:ea:ef:39:9d:2b:a5:
         3b:46:80:e8:69:e0:a8:73:61:cf:c6:1e:0f:37:7b:aa:44:aa:
         90:06:8e:7b:8c:91:66:8e:3b:1b:fc:69:58:d3:fc:e8:3f:84:
         a6:ab:a0:00:fd:13:f2:08:3c:e5:8a:d0:9c:54:37:7e:0c:38:
         cf:77:64:77:b0:4a:69:42:b8:da:aa:94:f5:12:b5:7e:d3:a8:
         e6:a6:57:ad:1f:54:60:39:54:f6:7e:86:80:1b:1c:72:1c:f5:
         52:f1:e6:d1:d6:87:c8:fe:64:44:6c:78:a9:6d:f9:28:e2:54:
         02:75:e3:2e:da:7c:bf:d8:ac:b6:db:bc:ad:b8:d7:ff:32:85:
         e6:d1:a7:b7:8b:65:0b:21:58:5a:07:4f:b0:73:03:d8:03:d4:
         3f:99:c3:5c:e9:0b:52:07:61:d3:1e:04:5b:9a:65:36:a4:b3:
         d2:f2:d6:80:95:3a:53:7f:c8:2c:0b:4d:fb:d0:a4:ea:a0:96:
         73:df:53:cb:8c:de:bf:8f:19:24:68:50:a1:8a:c0:bc:22:81:
         b3:8f:e7:86:a8:79:00:85:77:aa:c3:4d:17:f8:45:a7:c8:43:
         a4:c3:2f:8d:71:a2:04:2d:92:ca:b0:81:bd:27:7f:4e:91:3b:
         24:ac:a4:15:45:18:2d:81:65:12:27:ef:e4:9c:6f:3f:6b:2c:
         8c:d9:39:ee:06:77:12:32:ed:fe:5c:97:b0:c0:13:82:40:27:
         b8:0d:5f:ad:be:4b:42:17:e3:ce:50:d2:ab:bf:13:b3:15:11:
         d5:fd:c9:8c:35:8b:fb:07:2c:52:b8:a4:7c:c4:db:55:14:7e:
         c1:97:6d:fc:b0:f9:a7:df:81:95:86:c3:ce:47:cb:c4:8c:f2:
         4c:d7:3c:1f:50:15:a5:05:14:d8:4d:cc:f4:ef:7b:1c:9d:34:
         14:0f:f6:e9:2c:ca:69:02:3f:4b:de:3e:de:bf:17:94:a1:8e:
         5e:08:b3:30:c0:b2:3f:00
-----BEGIN CERTIFICATE-----
MIIHSDCCBTCgAwIBAgICA1IwDQYJKoZIhvcNAQEFBQAwgbQxCzAJBgNVBAYTAlVT
MQswCQYDVQQIEwJDQTEVMBMGA1UEBxMMU2FuRnJhbmNpc2NvMRUwEwYDVQQKEwxQ
aXhnbG8sIEluYy4xEDAOBgNVBAsTB1ZQTi1DSUUxGjAYBgNVBAMTEXR1bm5lbC5w
aXhnbG8uY29tMRwwGgYDVQQpExNCYWxhIENoYW5kcmFzZWthcmFuMR4wHAYJKoZI
hvcNAQkBFg9iYWxhQHBpeGdsby5jb20wHhcNMTgwMjE0MDY0NTI2WhcNMjgwMjEy
MDY0NTI2WjCBqTELMAkGA1UEBhMCVVMxCzAJBgNVBAgTAkNBMRUwEwYDVQQHEwxT
YW5GcmFuY2lzY28xFTATBgNVBAoTDFBpeGdsbywgSW5jLjEQMA4GA1UECxMHVlBO
LUNJRTEPMA0GA1UEAxMGY2llODQ5MRwwGgYDVQQpExNCYWxhIENoYW5kcmFzZWth
cmFuMR4wHAYJKoZIhvcNAQkBFg9iYWxhQHBpeGdsby5jb20wggIiMA0GCSqGSIb3
DQEBAQUAA4ICDwAwggIKAoICAQDESBjq1936OOYQMo9wOPMsMGAMOEG5XPV+/jUC
J6SZ+Nhbg691gkXazRQtKrCEubMF2g9VgEojjY15KiFxAjYmEhwri2N4gXyEyHHb
W0tmz7E6hJiGmCfzzozJYPtPKqNVh6HnmPGY88Flu9YksscCF5YxND3xvl3+yL8l
3o/j6PedPPzS3h9oaxkoYsls4Np52pMQBhp27VJwBJ/CFada9AehFH/5PEJy/JKg
3ft7kWsGEcKm9kUEMapl/jGKTBY5/F+3tpSTFZLXewVyqONZvbFPoZuqZlkzIeRy
qozpaw/e9kFvtjQ+0vFogYksKO7vgo65PVuuyFnKVIHUZD1Vq/CWCKGPmLYdt1A1
GgwVRWhz4gqCLclrJ2vY1fOYSaWDh+bz0Py2V8vYqYR0U3ztMWesKrR61re/xYy+
TavUOD3B9mE6ORfsL3Y3OT98O/uAPbuKcHJkECcfzY71Oj0aXcFnMLc1FAtLk4Ip
/xwLoV1dMHyGaf9CC7C+bCtJ3P1SunAgjSmRHv82foK5g0qxUjb0jV1MBZL6iNdF
bFQDYQKAjV1wdMJA5xNKlnxCHs+p0RiAeERBf3uhh9LuKVFxjLKEtZQ+SX64ubH5
UYQ6cEY0jUqWPY0rpWcebYLwQYGzXYbquNHFF3fK8pvI6Zo9wQ28rg3+BAzbs3Zp
sYK95wIDAQABo4IBazCCAWcwCQYDVR0TBAIwADAtBglghkgBhvhCAQ0EIBYeRWFz
eS1SU0EgR2VuZXJhdGVkIENlcnRpZmljYXRlMB0GA1UdDgQWBBR1QYDKymH78VML
A87g7v5Ha+fxlDCB6QYDVR0jBIHhMIHegBTvOI0UUFinW02cF3L837msp1GwEKGB
uqSBtzCBtDELMAkGA1UEBhMCVVMxCzAJBgNVBAgTAkNBMRUwEwYDVQQHEwxTYW5G
cmFuY2lzY28xFTATBgNVBAoTDFBpeGdsbywgSW5jLjEQMA4GA1UECxMHVlBOLUNJ
RTEaMBgGA1UEAxMRdHVubmVsLnBpeGdsby5jb20xHDAaBgNVBCkTE0JhbGEgQ2hh
bmRyYXNla2FyYW4xHjAcBgkqhkiG9w0BCQEWD2JhbGFAcGl4Z2xvLmNvbYIJAKbb
xoOA5qB5MBMGA1UdJQQMMAoGCCsGAQUFBwMCMAsGA1UdDwQEAwIHgDANBgkqhkiG
9w0BAQUFAAOCAgEAEU4UNmRwdHgxzJNKRJh4eZZkrUocx1SIngVz3ALXK9m+gbXp
cbf2vLINeTCIeuhIHKheOZlqWI/eFg8Ebc//GKK9s3tdn43O8UfeUmeot+huy8og
JzZsEsmURx5PUdkMtDP6/qKmG55CJUDpYOxd1YQoxoetZiZN6pgkeu1qDp4y1R0N
fXcoy7Sg6u85nSulO0aA6GngqHNhz8YeDzd7qkSqkAaOe4yRZo47G/xpWNP86D+E
pqugAP0T8gg85YrQnFQ3fgw4z3dkd7BKaUK42qqU9RK1ftOo5qZXrR9UYDlU9n6G
gBscchz1UvHm0daHyP5kRGx4qW35KOJUAnXjLtp8v9isttu8rbjX/zKF5tGnt4tl
CyFYWgdPsHMD2APUP5nDXOkLUgdh0x4EW5plNqSz0vLWgJU6U3/ILAtN+9Ck6qCW
c99Ty4zev48ZJGhQoYrAvCKBs4/nhqh5AIV3qsNNF/hFp8hDpMMvjXGiBC2SyrCB
vSd/TpE7JKykFUUYLYFlEifv5JxvP2ssjNk57gZ3EjLt/lyXsMATgkAnuA1frb5L
QhfjzlDSq78TsxUR1f3JjDWL+wcsUrikfMTbVRR+wZdt/LD5p9+BlYbDzkfLxIzy
TNc8H1AVpQUU2E3M9O97HJ00FA/26SzKaQI/S94+3r8XlKGOXgizMMCyPwA=
-----END CERTIFICATE-----
