Certificate:
    Data:
        Version: 3 (0x2)
        Serial Number: 851 (0x353)
    Signature Algorithm: sha1WithRSAEncryption
        Issuer: C=US, ST=CA, L=SanFrancisco, O=Pixglo, Inc., OU=VPN-CIE, CN=tunnel.pixglo.com/name=Bala Chandrasekaran/emailAddress=bala@pixglo.com
        Validity
            Not Before: Feb 14 06:45:28 2018 GMT
            Not After : Feb 12 06:45:28 2028 GMT
        Subject: C=US, ST=CA, L=SanFrancisco, O=Pixglo, Inc., OU=VPN-CIE, CN=cie850/name=Bala Chandrasekaran/emailAddress=bala@pixglo.com
        Subject Public Key Info:
            Public Key Algorithm: rsaEncryption
                Public-Key: (4096 bit)
                Modulus:
                    00:a0:c9:84:80:43:19:76:62:1c:58:55:6c:ba:ec:
                    00:05:31:fe:c3:84:64:2d:e9:b0:dd:87:4e:af:ea:
                    94:00:0a:0f:cc:a4:75:49:18:ce:48:84:91:b8:2e:
                    06:5c:aa:ea:fc:1d:05:b8:0a:a8:97:ef:58:8c:09:
                    a6:a0:21:13:14:e4:f8:49:a0:10:1f:d4:62:67:ae:
                    cd:b3:7c:35:a0:d5:64:03:8f:77:60:c1:cc:43:e2:
                    3e:63:e8:3c:d3:79:df:4d:ed:06:33:d6:57:d0:f1:
                    12:ae:b1:f0:8e:e8:aa:99:a4:43:a0:c9:0e:39:b2:
                    5e:ce:b9:e5:fa:29:07:77:9c:ab:66:dd:72:b4:82:
                    7f:84:d0:19:97:60:10:e0:ec:85:cf:1e:73:ce:4a:
                    04:6b:f2:a3:b2:b1:e7:a3:74:9d:a1:3c:dc:67:cd:
                    88:90:67:d7:31:7c:8e:29:30:70:70:8d:3c:42:b9:
                    40:f2:ee:1c:18:a4:35:87:b9:34:f3:47:6f:f4:84:
                    89:3c:d7:ef:b1:b0:15:de:26:2b:1a:dd:9f:41:19:
                    b3:0d:1e:ff:b3:cb:77:36:5e:1f:3c:11:76:eb:a0:
                    72:8c:33:b3:a2:d6:b3:8b:0c:af:5c:b8:c8:9d:4f:
                    77:ea:1d:f7:a4:7f:da:70:23:db:67:c4:73:49:d2:
                    86:56:e9:c0:4b:a9:cd:d8:64:ab:e0:4b:47:f7:78:
                    47:c5:45:af:e6:be:67:51:b5:e0:1d:9c:4b:b1:cd:
                    e3:aa:68:4a:67:74:bf:44:36:52:b9:b7:fb:90:56:
                    5c:e3:e9:a1:65:3e:36:0c:c7:e1:d5:3f:59:85:c4:
                    a8:c9:2e:f6:35:d6:f4:49:52:e6:bd:08:cd:a8:c1:
                    3d:bf:56:a4:ff:77:bd:a9:03:c8:f7:b1:6b:dc:4d:
                    be:85:f3:7e:5b:fc:b1:53:8b:6c:59:06:29:a0:cf:
                    87:fe:bf:12:92:57:ff:67:0b:27:ad:d2:d9:26:6a:
                    dc:f2:04:4a:0d:64:39:b7:c9:65:7b:f5:27:7e:19:
                    ee:4d:41:aa:59:c0:dc:1b:6a:4c:cb:ab:c7:49:4a:
                    6e:9c:71:87:1b:c6:2a:59:32:1a:14:d0:13:62:10:
                    e6:1c:bc:ad:45:54:ab:df:d8:3b:d4:80:37:fb:1a:
                    41:50:80:4d:74:1e:b9:87:7c:dc:a3:36:bb:43:3c:
                    09:dd:08:49:42:d7:ad:d3:7d:8f:50:16:46:f0:41:
                    bb:f2:1a:65:c7:8e:e3:3b:1c:67:ac:c8:30:4b:5a:
                    9e:cc:87:99:ee:99:03:72:7d:4f:b9:1f:12:04:c6:
                    d9:9d:8d:11:98:10:2b:96:64:7f:32:c3:0d:02:41:
                    5c:b7:31
                Exponent: 65537 (0x10001)
        X509v3 extensions:
            X509v3 Basic Constraints: 
                CA:FALSE
            Netscape Comment: 
                Easy-RSA Generated Certificate
            X509v3 Subject Key Identifier: 
                37:A4:D1:03:9D:A3:67:39:61:B8:EB:EC:4C:FC:88:E7:0A:F7:EF:A6
            X509v3 Authority Key Identifier: 
                keyid:EF:38:8D:14:50:58:A7:5B:4D:9C:17:72:FC:DF:B9:AC:A7:51:B0:10
                DirName:/C=US/ST=CA/L=SanFrancisco/O=Pixglo, Inc./OU=VPN-CIE/CN=tunnel.pixglo.com/name=Bala Chandrasekaran/emailAddress=bala@pixglo.com
                serial:A6:DB:C6:83:80:E6:A0:79

            X509v3 Extended Key Usage: 
                TLS Web Client Authentication
            X509v3 Key Usage: 
                Digital Signature
    Signature Algorithm: sha1WithRSAEncryption
         27:06:82:2a:66:fa:d8:3e:b8:2e:8f:63:45:a9:22:cc:e1:68:
         1f:13:18:21:ca:de:5d:85:e9:0e:b4:fd:f5:f9:f6:47:ae:fc:
         1a:8c:a9:c7:43:e7:f7:82:87:53:24:27:c2:8f:4f:d3:a8:8b:
         9e:b4:d3:ff:10:49:6a:b8:9b:d1:7e:8b:bf:2c:cf:69:8a:58:
         f6:78:96:c9:79:8b:8f:89:53:ad:d6:37:cd:22:f9:e5:0a:ed:
         0d:0d:3b:93:60:ed:77:fc:d0:d1:da:6a:95:07:f4:47:b8:b1:
         29:00:7b:07:85:f3:15:ed:db:5b:9c:b7:61:b3:d2:f1:91:31:
         b0:15:31:2a:7e:60:85:97:27:ff:92:65:b8:98:97:1e:13:26:
         68:3d:6b:08:82:29:b7:b6:f8:97:5a:3e:75:91:2b:f1:7e:fc:
         23:1b:74:83:4d:5d:a0:e7:d4:7f:c8:20:d3:70:8e:58:d3:6c:
         aa:fe:6e:13:b8:a4:62:00:1d:70:f7:4e:ab:2b:60:88:91:a4:
         f9:2f:72:72:e8:67:bb:ec:fc:d1:a8:b3:24:39:51:0c:09:92:
         25:d1:ae:3c:2a:54:b1:33:59:f2:1f:bc:6f:70:14:cf:45:a7:
         6b:c5:c5:df:5c:59:62:a2:b5:28:6d:06:bb:64:aa:ad:16:4d:
         57:ff:9c:3e:30:03:81:91:45:1b:3d:b6:23:76:d7:37:2f:7f:
         55:1d:fa:dc:03:e2:20:8c:22:f4:7e:62:8e:70:0f:a6:83:b8:
         93:fb:85:06:e4:64:20:e8:8d:51:4e:c4:be:37:b0:a6:bd:1a:
         df:69:63:7e:b2:06:d9:72:23:86:1a:09:86:94:69:94:60:7a:
         6a:dd:f3:23:80:33:3e:a8:55:23:07:12:00:77:fe:e0:b8:ad:
         e6:4b:b8:40:86:98:34:bf:11:3f:7c:5f:d7:17:f9:18:f4:d3:
         8d:a7:4e:71:cb:37:5e:73:4d:7a:22:1f:96:fc:51:9c:b8:fa:
         f0:aa:23:75:02:0a:21:47:60:1b:bb:22:57:3c:77:92:a5:a9:
         70:44:3b:2c:be:98:c6:c2:dc:11:4e:b5:37:77:49:14:ae:6f:
         46:bd:d4:d2:9c:ac:c5:ed:4e:2c:7c:e4:9b:6b:cc:b0:46:0d:
         81:a2:fa:f8:da:44:4f:cc:bf:93:fc:78:07:ad:a0:82:3d:bd:
         03:89:9d:25:fc:00:6a:26:82:76:d5:73:71:c5:4a:f9:a1:af:
         77:b9:11:af:7c:f8:f7:62:a1:87:16:89:ab:c0:a3:c7:0d:52:
         3c:5b:ce:62:62:10:ba:50:73:3a:2b:62:04:4c:bb:a4:cd:45:
         81:9c:fd:52:3a:b9:bb:e9
-----BEGIN CERTIFICATE-----
MIIHSDCCBTCgAwIBAgICA1MwDQYJKoZIhvcNAQEFBQAwgbQxCzAJBgNVBAYTAlVT
MQswCQYDVQQIEwJDQTEVMBMGA1UEBxMMU2FuRnJhbmNpc2NvMRUwEwYDVQQKEwxQ
aXhnbG8sIEluYy4xEDAOBgNVBAsTB1ZQTi1DSUUxGjAYBgNVBAMTEXR1bm5lbC5w
aXhnbG8uY29tMRwwGgYDVQQpExNCYWxhIENoYW5kcmFzZWthcmFuMR4wHAYJKoZI
hvcNAQkBFg9iYWxhQHBpeGdsby5jb20wHhcNMTgwMjE0MDY0NTI4WhcNMjgwMjEy
MDY0NTI4WjCBqTELMAkGA1UEBhMCVVMxCzAJBgNVBAgTAkNBMRUwEwYDVQQHEwxT
YW5GcmFuY2lzY28xFTATBgNVBAoTDFBpeGdsbywgSW5jLjEQMA4GA1UECxMHVlBO
LUNJRTEPMA0GA1UEAxMGY2llODUwMRwwGgYDVQQpExNCYWxhIENoYW5kcmFzZWth
cmFuMR4wHAYJKoZIhvcNAQkBFg9iYWxhQHBpeGdsby5jb20wggIiMA0GCSqGSIb3
DQEBAQUAA4ICDwAwggIKAoICAQCgyYSAQxl2YhxYVWy67AAFMf7DhGQt6bDdh06v
6pQACg/MpHVJGM5IhJG4LgZcqur8HQW4CqiX71iMCaagIRMU5PhJoBAf1GJnrs2z
fDWg1WQDj3dgwcxD4j5j6DzTed9N7QYz1lfQ8RKusfCO6KqZpEOgyQ45sl7OueX6
KQd3nKtm3XK0gn+E0BmXYBDg7IXPHnPOSgRr8qOyseejdJ2hPNxnzYiQZ9cxfI4p
MHBwjTxCuUDy7hwYpDWHuTTzR2/0hIk81++xsBXeJisa3Z9BGbMNHv+zy3c2Xh88
EXbroHKMM7Oi1rOLDK9cuMidT3fqHfekf9pwI9tnxHNJ0oZW6cBLqc3YZKvgS0f3
eEfFRa/mvmdRteAdnEuxzeOqaEpndL9ENlK5t/uQVlzj6aFlPjYMx+HVP1mFxKjJ
LvY11vRJUua9CM2owT2/VqT/d72pA8j3sWvcTb6F835b/LFTi2xZBimgz4f+vxKS
V/9nCyet0tkmatzyBEoNZDm3yWV79Sd+Ge5NQapZwNwbakzLq8dJSm6ccYcbxipZ
MhoU0BNiEOYcvK1FVKvf2DvUgDf7GkFQgE10HrmHfNyjNrtDPAndCElC163TfY9Q
FkbwQbvyGmXHjuM7HGesyDBLWp7Mh5numQNyfU+5HxIExtmdjRGYECuWZH8yww0C
QVy3MQIDAQABo4IBazCCAWcwCQYDVR0TBAIwADAtBglghkgBhvhCAQ0EIBYeRWFz
eS1SU0EgR2VuZXJhdGVkIENlcnRpZmljYXRlMB0GA1UdDgQWBBQ3pNEDnaNnOWG4
6+xM/IjnCvfvpjCB6QYDVR0jBIHhMIHegBTvOI0UUFinW02cF3L837msp1GwEKGB
uqSBtzCBtDELMAkGA1UEBhMCVVMxCzAJBgNVBAgTAkNBMRUwEwYDVQQHEwxTYW5G
cmFuY2lzY28xFTATBgNVBAoTDFBpeGdsbywgSW5jLjEQMA4GA1UECxMHVlBOLUNJ
RTEaMBgGA1UEAxMRdHVubmVsLnBpeGdsby5jb20xHDAaBgNVBCkTE0JhbGEgQ2hh
bmRyYXNla2FyYW4xHjAcBgkqhkiG9w0BCQEWD2JhbGFAcGl4Z2xvLmNvbYIJAKbb
xoOA5qB5MBMGA1UdJQQMMAoGCCsGAQUFBwMCMAsGA1UdDwQEAwIHgDANBgkqhkiG
9w0BAQUFAAOCAgEAJwaCKmb62D64Lo9jRakizOFoHxMYIcreXYXpDrT99fn2R678
Goypx0Pn94KHUyQnwo9P06iLnrTT/xBJarib0X6LvyzPaYpY9niWyXmLj4lTrdY3
zSL55QrtDQ07k2Dtd/zQ0dpqlQf0R7ixKQB7B4XzFe3bW5y3YbPS8ZExsBUxKn5g
hZcn/5JluJiXHhMmaD1rCIIpt7b4l1o+dZEr8X78Ixt0g01doOfUf8gg03COWNNs
qv5uE7ikYgAdcPdOqytgiJGk+S9ycuhnu+z80aizJDlRDAmSJdGuPCpUsTNZ8h+8
b3AUz0Wna8XF31xZYqK1KG0Gu2SqrRZNV/+cPjADgZFFGz22I3bXNy9/VR363APi
IIwi9H5ijnAPpoO4k/uFBuRkIOiNUU7Evjewpr0a32ljfrIG2XIjhhoJhpRplGB6
at3zI4AzPqhVIwcSAHf+4Lit5ku4QIaYNL8RP3xf1xf5GPTTjadOccs3XnNNeiIf
lvxRnLj68KojdQIKIUdgG7siVzx3kqWpcEQ7LL6YxsLcEU61N3dJFK5vRr3U0pys
xe1OLHzkm2vMsEYNgaL6+NpET8y/k/x4B62ggj29A4mdJfwAaiaCdtVzccVK+aGv
d7kRr3z492KhhxaJq8Cjxw1SPFvOYmIQulBzOitiBEy7pM1FgZz9Ujq5u+k=
-----END CERTIFICATE-----
