Certificate:
    Data:
        Version: 3 (0x2)
        Serial Number: 852 (0x354)
    Signature Algorithm: sha1WithRSAEncryption
        Issuer: C=US, ST=CA, L=SanFrancisco, O=Pixglo, Inc., OU=VPN-CIE, CN=tunnel.pixglo.com/name=Bala Chandrasekaran/emailAddress=bala@pixglo.com
        Validity
            Not Before: Feb 14 06:45:30 2018 GMT
            Not After : Feb 12 06:45:30 2028 GMT
        Subject: C=US, ST=CA, L=SanFrancisco, O=Pixglo, Inc., OU=VPN-CIE, CN=cie851/name=Bala Chandrasekaran/emailAddress=bala@pixglo.com
        Subject Public Key Info:
            Public Key Algorithm: rsaEncryption
                Public-Key: (4096 bit)
                Modulus:
                    00:97:c3:81:d5:7e:17:4a:fc:02:61:fc:81:5e:0d:
                    ec:e5:15:45:c1:c9:33:d2:b9:49:12:4a:41:63:c5:
                    93:64:d0:2d:03:b2:17:d1:b2:af:13:26:38:41:e6:
                    56:f7:1c:e8:2c:1c:14:6d:31:c8:65:8b:19:c9:bb:
                    32:21:d0:8a:4c:ab:6d:64:6b:45:9d:3d:ba:c6:bc:
                    15:90:ae:56:2a:bd:6c:f0:64:25:85:5f:51:21:93:
                    6e:1e:e5:1d:18:07:7b:25:71:ab:09:60:6d:14:55:
                    6a:ac:0a:e8:42:49:1b:2f:4e:35:be:55:8c:45:e2:
                    86:58:ca:bc:03:df:f8:00:94:1e:7e:d1:42:d9:0c:
                    9d:0e:3a:16:cd:1c:a5:c8:13:e4:0a:04:1a:d5:23:
                    03:25:b6:82:3f:43:d8:af:06:18:b2:8b:0e:fc:ab:
                    db:90:4f:76:ca:46:5d:1d:df:e8:63:4e:6f:4f:ac:
                    12:6f:7e:80:d5:f4:ba:47:c5:5f:f2:12:89:5f:f8:
                    7b:04:ab:28:29:4c:fa:14:c9:27:b4:65:bf:e2:2e:
                    c4:d6:cc:19:d7:76:67:95:d9:7d:d5:17:8c:98:66:
                    da:20:4d:89:71:ba:8c:d9:41:c8:1f:27:84:27:70:
                    3f:53:fa:43:e5:a0:d9:b9:f3:d9:ed:56:82:cd:e0:
                    ee:d0:54:8a:2b:a7:13:ab:73:c4:5a:03:e6:37:49:
                    83:ba:ef:a8:0d:12:67:99:35:13:2c:51:5c:44:7f:
                    8a:bf:42:bc:71:30:a5:14:57:23:67:cb:97:a3:d5:
                    b9:a2:ac:13:08:4e:a3:84:c8:42:9c:a1:a7:b3:71:
                    23:05:8d:e8:04:0c:ef:b6:6e:ce:7d:54:21:6e:10:
                    d9:6e:2d:50:da:08:1a:19:91:eb:99:4b:ba:53:95:
                    c3:7c:13:43:42:bd:b4:22:7a:69:65:e3:51:58:01:
                    af:6b:25:b5:4c:65:5a:24:52:73:81:86:17:d5:18:
                    7b:68:c7:49:76:4d:5b:ef:8f:4b:04:7a:52:08:20:
                    4b:21:7f:01:1b:22:34:0d:05:34:71:f8:66:86:12:
                    a7:90:b6:e7:f6:80:81:a5:9a:a5:45:e9:55:a4:5e:
                    a8:c0:9b:69:ad:54:a7:fe:c6:9e:6b:1b:55:8e:bb:
                    d9:2b:52:98:28:f8:7a:86:74:e7:d6:b5:bc:ac:0b:
                    fe:cd:f8:84:a9:76:14:db:44:7a:47:a3:df:9f:71:
                    34:7d:51:5d:0d:63:df:8b:0d:89:94:43:34:e3:aa:
                    f5:48:f6:a3:4d:d1:e6:f1:11:5e:a8:7e:02:17:13:
                    64:92:0b:a9:05:88:40:fb:ed:cf:d1:26:36:7f:d6:
                    42:77:5f
                Exponent: 65537 (0x10001)
        X509v3 extensions:
            X509v3 Basic Constraints: 
                CA:FALSE
            Netscape Comment: 
                Easy-RSA Generated Certificate
            X509v3 Subject Key Identifier: 
                A5:4E:B2:81:A0:2A:6A:77:29:3F:B8:C9:B9:01:B1:C1:70:05:7B:46
            X509v3 Authority Key Identifier: 
                keyid:EF:38:8D:14:50:58:A7:5B:4D:9C:17:72:FC:DF:B9:AC:A7:51:B0:10
                DirName:/C=US/ST=CA/L=SanFrancisco/O=Pixglo, Inc./OU=VPN-CIE/CN=tunnel.pixglo.com/name=Bala Chandrasekaran/emailAddress=bala@pixglo.com
                serial:A6:DB:C6:83:80:E6:A0:79

            X509v3 Extended Key Usage: 
                TLS Web Client Authentication
            X509v3 Key Usage: 
                Digital Signature
    Signature Algorithm: sha1WithRSAEncryption
         4f:24:2b:59:aa:81:e7:20:dd:4f:6c:1b:96:1e:7c:dd:e6:1f:
         ef:6a:26:c5:2e:49:48:99:ad:e5:49:66:a1:80:a5:28:dc:3a:
         7a:07:23:bf:09:b9:6f:ef:b3:e2:9d:f3:95:52:6a:ce:14:2d:
         5b:bc:d1:70:1f:16:d6:6f:51:57:64:26:32:5a:c5:08:19:f8:
         93:36:c0:ff:ee:bc:08:73:c1:fd:3d:09:5d:7d:7a:a9:ad:34:
         fe:c5:39:e5:26:a7:8b:e1:d6:4a:81:63:0b:5a:3c:c1:63:3b:
         ce:ad:36:9a:f5:8f:09:d1:78:85:39:e4:37:c1:92:66:37:c7:
         77:0b:09:77:1c:05:15:30:a6:53:f9:3d:43:ca:6f:a0:b2:b8:
         c8:25:75:2b:7e:60:a3:a9:bd:ba:74:06:f9:20:ca:e9:f8:7e:
         ff:84:45:b8:a7:ff:c1:af:37:b3:bd:7b:7c:c2:72:a8:eb:a6:
         89:99:3f:27:d3:dd:2e:85:92:ea:79:32:1f:63:aa:60:a3:1e:
         bf:5e:8f:7a:13:79:7f:b4:6d:d8:15:22:ac:74:86:72:8b:98:
         bb:18:fd:79:2d:68:03:0c:fc:ea:fb:94:28:06:2e:05:46:89:
         db:c7:11:b2:71:02:0d:2b:8e:28:f1:76:e0:39:ac:16:a6:6a:
         cd:65:65:a9:c5:27:2e:d4:2b:43:61:94:32:76:e6:ca:d5:be:
         5e:61:21:db:ba:e8:69:cc:06:cd:bb:cf:c0:2e:6e:6a:e7:b6:
         e8:41:ff:30:5e:da:55:0a:a4:47:6b:35:74:b5:67:5a:82:68:
         f1:ee:bd:8b:71:23:63:21:6e:70:d1:a6:1c:72:2e:79:46:08:
         21:a7:39:21:49:1b:5e:b2:83:28:db:3e:4c:38:5d:10:7a:18:
         99:5e:3d:0f:c8:69:2c:fd:8d:55:ff:bb:02:9c:3a:ce:9d:ab:
         4c:55:74:24:79:50:67:3f:ec:32:45:c6:04:77:5c:4a:57:28:
         17:a5:21:94:3b:24:12:37:c3:58:c5:2a:b6:30:2c:28:4f:52:
         99:b3:d5:3e:d9:a8:32:9e:9a:62:ca:73:00:dc:12:07:e1:c4:
         80:6c:32:f4:5b:c0:33:96:9a:74:30:68:51:a5:c2:08:67:30:
         b8:b7:e8:49:4d:54:dd:2f:00:b0:fe:f3:bd:31:71:82:ab:28:
         e2:5c:ce:34:6c:69:1c:4c:d3:c0:4e:61:51:6f:d1:cc:90:6e:
         3b:b8:a2:55:3f:fd:89:1a:ed:cf:13:11:23:36:66:7b:39:de:
         7e:9c:f3:79:a9:35:f2:11:dc:32:7b:41:3b:ed:d5:44:d1:08:
         7f:23:13:a3:20:f2:ef:2d
-----BEGIN CERTIFICATE-----
MIIHSDCCBTCgAwIBAgICA1QwDQYJKoZIhvcNAQEFBQAwgbQxCzAJBgNVBAYTAlVT
MQswCQYDVQQIEwJDQTEVMBMGA1UEBxMMU2FuRnJhbmNpc2NvMRUwEwYDVQQKEwxQ
aXhnbG8sIEluYy4xEDAOBgNVBAsTB1ZQTi1DSUUxGjAYBgNVBAMTEXR1bm5lbC5w
aXhnbG8uY29tMRwwGgYDVQQpExNCYWxhIENoYW5kcmFzZWthcmFuMR4wHAYJKoZI
hvcNAQkBFg9iYWxhQHBpeGdsby5jb20wHhcNMTgwMjE0MDY0NTMwWhcNMjgwMjEy
MDY0NTMwWjCBqTELMAkGA1UEBhMCVVMxCzAJBgNVBAgTAkNBMRUwEwYDVQQHEwxT
YW5GcmFuY2lzY28xFTATBgNVBAoTDFBpeGdsbywgSW5jLjEQMA4GA1UECxMHVlBO
LUNJRTEPMA0GA1UEAxMGY2llODUxMRwwGgYDVQQpExNCYWxhIENoYW5kcmFzZWth
cmFuMR4wHAYJKoZIhvcNAQkBFg9iYWxhQHBpeGdsby5jb20wggIiMA0GCSqGSIb3
DQEBAQUAA4ICDwAwggIKAoICAQCXw4HVfhdK/AJh/IFeDezlFUXByTPSuUkSSkFj
xZNk0C0DshfRsq8TJjhB5lb3HOgsHBRtMchlixnJuzIh0IpMq21ka0WdPbrGvBWQ
rlYqvWzwZCWFX1Ehk24e5R0YB3slcasJYG0UVWqsCuhCSRsvTjW+VYxF4oZYyrwD
3/gAlB5+0ULZDJ0OOhbNHKXIE+QKBBrVIwMltoI/Q9ivBhiyiw78q9uQT3bKRl0d
3+hjTm9PrBJvfoDV9LpHxV/yEolf+HsEqygpTPoUySe0Zb/iLsTWzBnXdmeV2X3V
F4yYZtogTYlxuozZQcgfJ4QncD9T+kPloNm589ntVoLN4O7QVIorpxOrc8RaA+Y3
SYO676gNEmeZNRMsUVxEf4q/QrxxMKUUVyNny5ej1bmirBMITqOEyEKcoaezcSMF
jegEDO+2bs59VCFuENluLVDaCBoZkeuZS7pTlcN8E0NCvbQiemll41FYAa9rJbVM
ZVokUnOBhhfVGHtox0l2TVvvj0sEelIIIEshfwEbIjQNBTRx+GaGEqeQtuf2gIGl
mqVF6VWkXqjAm2mtVKf+xp5rG1WOu9krUpgo+HqGdOfWtbysC/7N+ISpdhTbRHpH
o9+fcTR9UV0NY9+LDYmUQzTjqvVI9qNN0ebxEV6ofgIXE2SSC6kFiED77c/RJjZ/
1kJ3XwIDAQABo4IBazCCAWcwCQYDVR0TBAIwADAtBglghkgBhvhCAQ0EIBYeRWFz
eS1SU0EgR2VuZXJhdGVkIENlcnRpZmljYXRlMB0GA1UdDgQWBBSlTrKBoCpqdyk/
uMm5AbHBcAV7RjCB6QYDVR0jBIHhMIHegBTvOI0UUFinW02cF3L837msp1GwEKGB
uqSBtzCBtDELMAkGA1UEBhMCVVMxCzAJBgNVBAgTAkNBMRUwEwYDVQQHEwxTYW5G
cmFuY2lzY28xFTATBgNVBAoTDFBpeGdsbywgSW5jLjEQMA4GA1UECxMHVlBOLUNJ
RTEaMBgGA1UEAxMRdHVubmVsLnBpeGdsby5jb20xHDAaBgNVBCkTE0JhbGEgQ2hh
bmRyYXNla2FyYW4xHjAcBgkqhkiG9w0BCQEWD2JhbGFAcGl4Z2xvLmNvbYIJAKbb
xoOA5qB5MBMGA1UdJQQMMAoGCCsGAQUFBwMCMAsGA1UdDwQEAwIHgDANBgkqhkiG
9w0BAQUFAAOCAgEATyQrWaqB5yDdT2wblh583eYf72omxS5JSJmt5UlmoYClKNw6
egcjvwm5b++z4p3zlVJqzhQtW7zRcB8W1m9RV2QmMlrFCBn4kzbA/+68CHPB/T0J
XX16qa00/sU55Sani+HWSoFjC1o8wWM7zq02mvWPCdF4hTnkN8GSZjfHdwsJdxwF
FTCmU/k9Q8pvoLK4yCV1K35go6m9unQG+SDK6fh+/4RFuKf/wa83s717fMJyqOum
iZk/J9PdLoWS6nkyH2OqYKMev16PehN5f7Rt2BUirHSGcouYuxj9eS1oAwz86vuU
KAYuBUaJ28cRsnECDSuOKPF24DmsFqZqzWVlqcUnLtQrQ2GUMnbmytW+XmEh27ro
acwGzbvPwC5uaue26EH/MF7aVQqkR2s1dLVnWoJo8e69i3EjYyFucNGmHHIueUYI
Iac5IUkbXrKDKNs+TDhdEHoYmV49D8hpLP2NVf+7Apw6zp2rTFV0JHlQZz/sMkXG
BHdcSlcoF6UhlDskEjfDWMUqtjAsKE9SmbPVPtmoMp6aYspzANwSB+HEgGwy9FvA
M5aadDBoUaXCCGcwuLfoSU1U3S8AsP7zvTFxgqso4lzONGxpHEzTwE5hUW/RzJBu
O7iiVT/9iRrtzxMRIzZmeznefpzzeak18hHcMntBO+3VRNEIfyMToyDy7y0=
-----END CERTIFICATE-----
