Certificate:
    Data:
        Version: 3 (0x2)
        Serial Number: 853 (0x355)
    Signature Algorithm: sha1WithRSAEncryption
        Issuer: C=US, ST=CA, L=SanFrancisco, O=Pixglo, Inc., OU=VPN-CIE, CN=tunnel.pixglo.com/name=Bala Chandrasekaran/emailAddress=bala@pixglo.com
        Validity
            Not Before: Feb 14 06:45:34 2018 GMT
            Not After : Feb 12 06:45:34 2028 GMT
        Subject: C=US, ST=CA, L=SanFrancisco, O=Pixglo, Inc., OU=VPN-CIE, CN=cie852/name=Bala Chandrasekaran/emailAddress=bala@pixglo.com
        Subject Public Key Info:
            Public Key Algorithm: rsaEncryption
                Public-Key: (4096 bit)
                Modulus:
                    00:cc:b3:10:24:aa:14:ec:72:f5:23:c9:64:96:2d:
                    8d:cc:c5:04:01:41:24:41:90:92:f4:73:6b:a7:84:
                    38:71:aa:b7:9b:65:c8:27:24:37:e7:a7:cb:fa:a0:
                    52:03:ff:79:9a:9c:d2:9b:f9:ef:34:75:58:08:9a:
                    92:63:f7:66:4f:f7:c2:ff:5d:c7:7a:29:ee:dc:e8:
                    80:f9:11:4a:c5:60:02:af:be:63:ab:a5:d3:4b:24:
                    67:98:d1:67:41:51:d4:23:41:fa:0a:5b:5a:9d:65:
                    89:96:ce:8e:30:81:86:40:17:9b:51:9e:c7:39:3d:
                    fd:34:c8:00:64:e0:cf:65:39:7b:d1:87:d4:dc:53:
                    ff:59:48:ff:aa:23:89:13:f5:ea:94:0c:0b:6c:ec:
                    59:19:26:47:6c:69:1f:e9:47:e1:d1:6e:d3:bf:f8:
                    5e:8f:35:b8:8c:67:8e:d8:5c:c5:5a:06:7c:8e:5d:
                    65:79:ba:08:b2:7d:46:3c:7e:a4:a2:ac:a9:60:23:
                    25:07:07:c0:37:c6:42:ce:57:05:50:7c:35:a9:ec:
                    10:da:03:6f:f5:70:23:89:5b:4d:ad:ee:09:8a:cf:
                    7c:9b:99:d1:0d:10:53:7b:99:c1:9d:c9:80:53:70:
                    ce:37:05:88:1d:0c:0a:08:7b:d3:7c:13:cd:cc:0d:
                    1a:9a:39:07:4d:df:52:4b:a3:c3:fe:e9:e6:b4:ac:
                    8d:6d:d0:1f:36:79:38:86:6d:63:eb:ad:fd:3a:e2:
                    3e:49:1d:f9:a2:23:49:41:12:6e:38:76:e8:ac:a9:
                    01:2e:4a:8d:c0:0a:16:e8:1d:21:6f:29:6c:05:f6:
                    0a:95:1b:5e:3c:e6:fa:56:5a:32:c1:60:78:6e:29:
                    be:bd:4a:e2:73:4d:b3:58:ee:42:f6:a4:da:19:56:
                    c5:13:68:99:d3:8d:e7:f0:f1:2f:3d:c0:f7:df:fd:
                    9c:56:79:1b:76:b2:05:15:79:6a:ea:81:d9:8d:b8:
                    c4:6a:ed:02:2f:8b:8a:32:d6:18:6a:30:c1:2b:ed:
                    3b:14:5c:1b:60:24:de:38:3d:b1:54:f4:2b:3e:70:
                    86:66:00:48:6a:ea:1d:ad:74:65:d0:54:6c:d1:61:
                    4a:c1:f9:98:11:27:59:fe:75:2f:f5:63:01:9b:38:
                    a6:c6:60:8b:53:d8:e9:3f:ef:22:6a:29:a4:7e:07:
                    68:0b:f1:12:c8:0a:a8:b2:68:b1:d7:4c:d8:60:91:
                    fe:09:f4:98:55:89:cc:90:a3:cb:d5:fa:02:17:bc:
                    08:05:de:6a:1e:eb:d4:fc:65:60:c2:c5:d1:c4:68:
                    37:0c:c5:d0:86:ff:b8:06:6d:a4:41:26:b1:f5:77:
                    7c:03:5d
                Exponent: 65537 (0x10001)
        X509v3 extensions:
            X509v3 Basic Constraints: 
                CA:FALSE
            Netscape Comment: 
                Easy-RSA Generated Certificate
            X509v3 Subject Key Identifier: 
                6B:47:95:63:3B:5B:42:97:7D:D0:74:B1:6F:79:56:3D:27:20:EB:5E
            X509v3 Authority Key Identifier: 
                keyid:EF:38:8D:14:50:58:A7:5B:4D:9C:17:72:FC:DF:B9:AC:A7:51:B0:10
                DirName:/C=US/ST=CA/L=SanFrancisco/O=Pixglo, Inc./OU=VPN-CIE/CN=tunnel.pixglo.com/name=Bala Chandrasekaran/emailAddress=bala@pixglo.com
                serial:A6:DB:C6:83:80:E6:A0:79

            X509v3 Extended Key Usage: 
                TLS Web Client Authentication
            X509v3 Key Usage: 
                Digital Signature
    Signature Algorithm: sha1WithRSAEncryption
         0b:6a:40:e8:ca:79:35:5c:79:21:b1:3e:e6:86:c7:13:93:9d:
         b1:44:fc:5b:4f:c2:a9:2a:d3:c5:ca:22:5d:a1:b8:94:b8:dd:
         c7:26:42:1e:33:35:09:b6:bc:7b:a6:ae:7d:fe:82:83:c5:06:
         93:b5:80:3a:92:35:24:8c:db:6b:a4:ed:40:41:29:4d:4d:73:
         d8:3c:a8:93:8a:6b:c1:8d:be:70:40:32:1f:af:8f:53:a7:cd:
         29:e8:18:bc:82:9b:f8:08:c6:29:e1:94:d4:26:b7:07:f9:ca:
         8e:02:8a:d3:5f:d9:89:bc:07:2e:90:ef:3f:a1:34:cf:2e:1e:
         52:e3:fa:c5:d8:ce:ac:6a:c0:79:d5:dd:0f:cf:87:a9:cb:5c:
         74:16:08:ee:e4:0e:59:f9:97:cf:df:da:97:10:da:47:59:3a:
         ec:b6:71:f2:77:c8:bc:13:55:b4:63:65:06:52:b8:1a:80:1e:
         63:b1:81:df:6a:2a:52:12:55:6a:e8:c1:fb:43:7a:f0:ff:ff:
         05:f2:81:9a:20:2b:28:b8:6c:e7:e5:eb:ff:4b:fc:29:0c:30:
         9f:8f:e6:fa:bb:8b:b7:a0:48:04:13:df:8b:d0:7c:d7:04:1d:
         69:8b:e9:dd:21:54:3d:b9:f6:55:67:a1:c3:aa:cd:49:d7:40:
         40:89:8f:76:24:dd:84:a9:11:bd:09:41:b5:8e:cc:d4:cc:bf:
         6c:36:f5:6b:de:de:c5:90:60:b9:35:6c:08:df:96:a0:17:95:
         5c:f9:a2:00:ff:bb:98:db:d5:a0:95:f1:16:a2:ea:16:6e:3c:
         cf:af:be:96:a6:92:7e:c3:cf:61:9c:ec:8a:72:d5:76:97:d4:
         98:11:28:30:3f:d4:7d:44:df:64:b9:11:03:b8:43:4d:1d:7a:
         94:26:80:3e:c3:c5:f4:d4:82:07:ad:ca:04:13:db:c8:89:ab:
         a2:a7:ca:f9:09:6d:ac:11:89:8e:40:98:c3:15:52:16:90:76:
         3e:a6:bd:0c:c3:a9:c5:ab:98:92:4c:bb:77:9f:8e:ff:48:28:
         12:3f:7b:54:27:f3:7e:f4:5b:6b:84:c4:ad:6b:70:18:cb:e1:
         fd:0b:f5:0f:38:39:c9:3a:91:f2:ba:b6:37:6f:ab:f1:7b:91:
         47:3f:ff:58:ad:34:5f:2c:1d:9e:fd:24:66:3c:1a:4b:6b:a1:
         46:ec:bd:1f:ca:88:cd:18:33:66:a5:8a:33:97:27:a4:f5:3a:
         19:f8:db:2f:56:7b:3b:08:d8:61:94:b0:1b:58:bd:c3:40:6f:
         bc:12:63:9a:60:20:d9:88:73:90:e8:cd:b4:62:19:0d:b2:8c:
         c3:9d:68:68:d9:a3:2b:3b
-----BEGIN CERTIFICATE-----
MIIHSDCCBTCgAwIBAgICA1UwDQYJKoZIhvcNAQEFBQAwgbQxCzAJBgNVBAYTAlVT
MQswCQYDVQQIEwJDQTEVMBMGA1UEBxMMU2FuRnJhbmNpc2NvMRUwEwYDVQQKEwxQ
aXhnbG8sIEluYy4xEDAOBgNVBAsTB1ZQTi1DSUUxGjAYBgNVBAMTEXR1bm5lbC5w
aXhnbG8uY29tMRwwGgYDVQQpExNCYWxhIENoYW5kcmFzZWthcmFuMR4wHAYJKoZI
hvcNAQkBFg9iYWxhQHBpeGdsby5jb20wHhcNMTgwMjE0MDY0NTM0WhcNMjgwMjEy
MDY0NTM0WjCBqTELMAkGA1UEBhMCVVMxCzAJBgNVBAgTAkNBMRUwEwYDVQQHEwxT
YW5GcmFuY2lzY28xFTATBgNVBAoTDFBpeGdsbywgSW5jLjEQMA4GA1UECxMHVlBO
LUNJRTEPMA0GA1UEAxMGY2llODUyMRwwGgYDVQQpExNCYWxhIENoYW5kcmFzZWth
cmFuMR4wHAYJKoZIhvcNAQkBFg9iYWxhQHBpeGdsby5jb20wggIiMA0GCSqGSIb3
DQEBAQUAA4ICDwAwggIKAoICAQDMsxAkqhTscvUjyWSWLY3MxQQBQSRBkJL0c2un
hDhxqrebZcgnJDfnp8v6oFID/3manNKb+e80dVgImpJj92ZP98L/Xcd6Ke7c6ID5
EUrFYAKvvmOrpdNLJGeY0WdBUdQjQfoKW1qdZYmWzo4wgYZAF5tRnsc5Pf00yABk
4M9lOXvRh9TcU/9ZSP+qI4kT9eqUDAts7FkZJkdsaR/pR+HRbtO/+F6PNbiMZ47Y
XMVaBnyOXWV5ugiyfUY8fqSirKlgIyUHB8A3xkLOVwVQfDWp7BDaA2/1cCOJW02t
7gmKz3ybmdENEFN7mcGdyYBTcM43BYgdDAoIe9N8E83MDRqaOQdN31JLo8P+6ea0
rI1t0B82eTiGbWPrrf064j5JHfmiI0lBEm44duisqQEuSo3AChboHSFvKWwF9gqV
G1485vpWWjLBYHhuKb69SuJzTbNY7kL2pNoZVsUTaJnTjefw8S89wPff/ZxWeRt2
sgUVeWrqgdmNuMRq7QIvi4oy1hhqMMEr7TsUXBtgJN44PbFU9Cs+cIZmAEhq6h2t
dGXQVGzRYUrB+ZgRJ1n+dS/1YwGbOKbGYItT2Ok/7yJqKaR+B2gL8RLICqiyaLHX
TNhgkf4J9JhVicyQo8vV+gIXvAgF3moe69T8ZWDCxdHEaDcMxdCG/7gGbaRBJrH1
d3wDXQIDAQABo4IBazCCAWcwCQYDVR0TBAIwADAtBglghkgBhvhCAQ0EIBYeRWFz
eS1SU0EgR2VuZXJhdGVkIENlcnRpZmljYXRlMB0GA1UdDgQWBBRrR5VjO1tCl33Q
dLFveVY9JyDrXjCB6QYDVR0jBIHhMIHegBTvOI0UUFinW02cF3L837msp1GwEKGB
uqSBtzCBtDELMAkGA1UEBhMCVVMxCzAJBgNVBAgTAkNBMRUwEwYDVQQHEwxTYW5G
cmFuY2lzY28xFTATBgNVBAoTDFBpeGdsbywgSW5jLjEQMA4GA1UECxMHVlBOLUNJ
RTEaMBgGA1UEAxMRdHVubmVsLnBpeGdsby5jb20xHDAaBgNVBCkTE0JhbGEgQ2hh
bmRyYXNla2FyYW4xHjAcBgkqhkiG9w0BCQEWD2JhbGFAcGl4Z2xvLmNvbYIJAKbb
xoOA5qB5MBMGA1UdJQQMMAoGCCsGAQUFBwMCMAsGA1UdDwQEAwIHgDANBgkqhkiG
9w0BAQUFAAOCAgEAC2pA6Mp5NVx5IbE+5obHE5OdsUT8W0/CqSrTxcoiXaG4lLjd
xyZCHjM1Cba8e6auff6Cg8UGk7WAOpI1JIzba6TtQEEpTU1z2Dyok4prwY2+cEAy
H6+PU6fNKegYvIKb+AjGKeGU1Ca3B/nKjgKK01/ZibwHLpDvP6E0zy4eUuP6xdjO
rGrAedXdD8+HqctcdBYI7uQOWfmXz9/alxDaR1k67LZx8nfIvBNVtGNlBlK4GoAe
Y7GB32oqUhJVaujB+0N68P//BfKBmiArKLhs5+Xr/0v8KQwwn4/m+ruLt6BIBBPf
i9B81wQdaYvp3SFUPbn2VWehw6rNSddAQImPdiTdhKkRvQlBtY7M1My/bDb1a97e
xZBguTVsCN+WoBeVXPmiAP+7mNvVoJXxFqLqFm48z6++lqaSfsPPYZzsinLVdpfU
mBEoMD/UfUTfZLkRA7hDTR16lCaAPsPF9NSCB63KBBPbyImroqfK+QltrBGJjkCY
wxVSFpB2Pqa9DMOpxauYkky7d5+O/0goEj97VCfzfvRba4TErWtwGMvh/Qv1Dzg5
yTqR8rq2N2+r8XuRRz//WK00Xywdnv0kZjwaS2uhRuy9H8qIzRgzZqWKM5cnpPU6
GfjbL1Z7OwjYYZSwG1i9w0BvvBJjmmAg2YhzkOjNtGIZDbKMw51oaNmjKzs=
-----END CERTIFICATE-----
