Certificate:
    Data:
        Version: 3 (0x2)
        Serial Number: 856 (0x358)
    Signature Algorithm: sha1WithRSAEncryption
        Issuer: C=US, ST=CA, L=SanFrancisco, O=Pixglo, Inc., OU=VPN-CIE, CN=tunnel.pixglo.com/name=Bala Chandrasekaran/emailAddress=bala@pixglo.com
        Validity
            Not Before: Feb 14 06:45:40 2018 GMT
            Not After : Feb 12 06:45:40 2028 GMT
        Subject: C=US, ST=CA, L=SanFrancisco, O=Pixglo, Inc., OU=VPN-CIE, CN=cie855/name=Bala Chandrasekaran/emailAddress=bala@pixglo.com
        Subject Public Key Info:
            Public Key Algorithm: rsaEncryption
                Public-Key: (4096 bit)
                Modulus:
                    00:be:5f:e8:b8:b7:52:24:96:e4:69:f4:e1:9b:75:
                    1c:bc:48:7c:11:82:eb:bb:17:3e:da:70:35:d6:f0:
                    3e:59:bd:80:41:54:d7:f9:eb:e6:ff:0a:77:bf:45:
                    73:5a:ac:e4:63:de:75:e1:36:84:31:58:1c:ef:c8:
                    45:39:57:54:30:e7:6c:ad:31:e9:f1:38:3e:ee:c0:
                    12:80:72:de:93:1a:22:b8:b8:c9:6c:92:6a:96:1c:
                    81:ac:e2:9a:67:a4:8b:60:c7:77:d7:c0:1c:33:c7:
                    b7:9d:1e:f1:7f:5d:3f:29:26:e7:78:b4:16:60:5f:
                    ef:52:f0:c8:83:02:be:e8:49:40:9a:72:cd:0f:db:
                    b1:9f:eb:87:e5:60:eb:53:a8:27:36:a6:56:05:e0:
                    e1:0b:e9:e6:d9:53:e1:2b:b2:4c:60:5f:98:91:58:
                    e9:09:18:51:c4:31:4e:ee:da:70:42:7c:55:1b:5b:
                    05:b6:a5:d8:27:d4:9e:a9:cb:a1:38:69:7e:3a:e6:
                    18:21:65:76:88:59:af:21:19:e0:d9:10:9a:2b:8c:
                    33:ce:b0:f3:f2:a4:69:7e:ef:8c:62:13:04:8c:72:
                    9b:57:50:e3:ec:c1:e3:b8:aa:48:12:9c:39:ed:ff:
                    aa:5a:90:9a:67:f2:ef:41:ff:93:63:81:d3:5a:7c:
                    a5:52:4e:c0:42:12:c8:3d:00:79:ab:3c:57:ae:e7:
                    5d:f5:f7:c8:9e:aa:61:47:de:77:83:63:a2:7e:42:
                    e1:ad:5c:2b:07:1b:b0:55:bc:75:5d:68:57:aa:cc:
                    97:92:35:cb:47:35:af:ed:bf:e3:95:6f:d5:4e:7e:
                    ae:2e:31:94:60:d8:5b:5d:3b:67:21:d6:47:6a:22:
                    62:4f:79:9a:ed:3c:07:a4:eb:b4:65:00:1d:f9:e7:
                    b6:de:40:1c:4f:46:ea:5a:75:00:22:cd:c0:d3:bb:
                    95:e6:fe:90:de:4b:45:92:3f:b3:ec:be:3f:0b:ab:
                    ee:e4:94:42:54:4d:d2:80:23:8a:9b:af:a4:7c:9f:
                    36:cb:51:8f:d1:e5:dd:12:f2:4c:c9:3d:d3:0d:2a:
                    51:9c:29:ac:9d:23:eb:0c:d3:67:15:da:32:82:e4:
                    e6:cd:b9:f1:16:78:7c:bd:81:6d:91:81:1a:05:f4:
                    ed:8f:18:9c:05:79:04:d3:a4:3c:34:08:20:fe:73:
                    9f:e3:3a:6e:3d:cb:aa:da:06:9b:6b:92:71:ba:30:
                    4c:ca:b7:e2:cb:51:6e:83:4b:0a:a6:ff:07:43:ce:
                    ee:d6:d4:b0:95:73:de:3a:0e:40:47:43:8d:21:f4:
                    91:9a:b6:e3:3b:46:4d:42:96:d6:b3:5b:e1:eb:0d:
                    04:3e:91
                Exponent: 65537 (0x10001)
        X509v3 extensions:
            X509v3 Basic Constraints: 
                CA:FALSE
            Netscape Comment: 
                Easy-RSA Generated Certificate
            X509v3 Subject Key Identifier: 
                42:67:13:0D:A9:50:6C:CB:60:63:17:6E:9A:54:A2:D7:F2:87:D6:1C
            X509v3 Authority Key Identifier: 
                keyid:EF:38:8D:14:50:58:A7:5B:4D:9C:17:72:FC:DF:B9:AC:A7:51:B0:10
                DirName:/C=US/ST=CA/L=SanFrancisco/O=Pixglo, Inc./OU=VPN-CIE/CN=tunnel.pixglo.com/name=Bala Chandrasekaran/emailAddress=bala@pixglo.com
                serial:A6:DB:C6:83:80:E6:A0:79

            X509v3 Extended Key Usage: 
                TLS Web Client Authentication
            X509v3 Key Usage: 
                Digital Signature
    Signature Algorithm: sha1WithRSAEncryption
         8e:94:6e:52:83:d1:6b:6e:64:59:71:2d:24:ab:d8:80:c8:c9:
         90:a6:19:91:2e:86:54:b8:92:19:6e:07:ee:f5:9a:93:3e:a5:
         17:0e:9c:bd:8a:1a:b9:87:3c:82:f7:9b:cb:3e:1b:66:85:5f:
         11:f5:07:b2:87:1a:0f:20:00:ef:98:9a:eb:9b:ae:db:d5:5c:
         d9:0b:0d:a4:a8:94:52:3e:d8:3f:83:4d:94:d5:2e:22:2a:3a:
         45:db:d7:8b:b6:35:d3:b6:90:fc:47:f0:bd:55:78:48:41:70:
         79:fd:f4:32:04:94:fe:aa:65:ac:32:2d:3a:6b:c4:57:f9:c3:
         c6:ff:f1:31:1d:d8:35:d5:b7:2e:9e:c6:f7:70:17:b1:12:35:
         a0:8e:57:03:97:78:63:4d:b4:fd:15:75:40:48:23:e3:93:5e:
         be:d8:b4:82:c3:2d:67:5b:f1:11:6e:76:47:19:df:3e:b2:9c:
         25:bc:04:74:a8:46:97:ec:36:2a:6f:f0:56:1c:15:2b:ba:1b:
         fe:43:d1:d4:15:ce:9c:8f:85:35:fd:e8:0b:a0:71:81:23:80:
         68:24:15:0e:30:47:62:94:26:9c:3c:65:31:96:63:5b:4a:6f:
         00:5b:6e:e8:d9:2b:da:0a:05:f3:70:ba:1b:7a:42:32:ac:61:
         d1:be:1d:2b:44:06:ad:47:6f:3a:05:bb:ab:f0:86:b9:5c:3d:
         76:53:f0:68:79:89:65:36:40:8e:2f:8d:c0:1d:49:d3:5c:f1:
         b9:9f:43:b1:dc:f9:70:29:e6:a1:d3:35:03:5a:d4:6c:45:1d:
         8d:2c:ee:1a:ae:b8:4e:da:c3:e7:b0:1d:f4:03:89:64:9c:95:
         54:91:b9:bf:d5:ca:88:5c:60:99:fb:30:d0:93:38:d0:8e:ae:
         d7:36:a2:ac:3a:a2:45:59:04:87:cc:16:05:7f:bd:6f:07:02:
         60:05:5e:20:4d:a5:ba:ca:37:95:44:f5:6a:69:8e:89:e8:99:
         a2:f7:26:f5:71:ed:9a:2d:fb:4a:c0:98:3c:08:1e:87:1e:db:
         47:60:f2:a1:64:a5:e6:ba:0e:a6:22:63:4a:9c:6d:95:ce:7c:
         77:5f:bc:2a:6b:f0:bf:88:d1:c1:56:a9:e4:63:f1:be:cc:4c:
         40:0f:94:6b:33:50:fc:9a:fc:ec:53:3b:01:88:c8:8c:8f:be:
         c5:83:c0:2a:4d:ae:19:56:22:34:cb:d5:1f:29:d8:6d:91:f7:
         59:76:15:57:71:9e:80:95:de:cd:44:d1:db:44:8c:19:f5:3c:
         e5:82:3b:e4:20:48:42:03:87:c7:d4:97:db:78:ff:a9:7b:e3:
         e4:bc:52:4b:0d:9e:41:23
-----BEGIN CERTIFICATE-----
MIIHSDCCBTCgAwIBAgICA1gwDQYJKoZIhvcNAQEFBQAwgbQxCzAJBgNVBAYTAlVT
MQswCQYDVQQIEwJDQTEVMBMGA1UEBxMMU2FuRnJhbmNpc2NvMRUwEwYDVQQKEwxQ
aXhnbG8sIEluYy4xEDAOBgNVBAsTB1ZQTi1DSUUxGjAYBgNVBAMTEXR1bm5lbC5w
aXhnbG8uY29tMRwwGgYDVQQpExNCYWxhIENoYW5kcmFzZWthcmFuMR4wHAYJKoZI
hvcNAQkBFg9iYWxhQHBpeGdsby5jb20wHhcNMTgwMjE0MDY0NTQwWhcNMjgwMjEy
MDY0NTQwWjCBqTELMAkGA1UEBhMCVVMxCzAJBgNVBAgTAkNBMRUwEwYDVQQHEwxT
YW5GcmFuY2lzY28xFTATBgNVBAoTDFBpeGdsbywgSW5jLjEQMA4GA1UECxMHVlBO
LUNJRTEPMA0GA1UEAxMGY2llODU1MRwwGgYDVQQpExNCYWxhIENoYW5kcmFzZWth
cmFuMR4wHAYJKoZIhvcNAQkBFg9iYWxhQHBpeGdsby5jb20wggIiMA0GCSqGSIb3
DQEBAQUAA4ICDwAwggIKAoICAQC+X+i4t1IkluRp9OGbdRy8SHwRguu7Fz7acDXW
8D5ZvYBBVNf56+b/Cne/RXNarORj3nXhNoQxWBzvyEU5V1Qw52ytMenxOD7uwBKA
ct6TGiK4uMlskmqWHIGs4ppnpItgx3fXwBwzx7edHvF/XT8pJud4tBZgX+9S8MiD
Ar7oSUCacs0P27Gf64flYOtTqCc2plYF4OEL6ebZU+ErskxgX5iRWOkJGFHEMU7u
2nBCfFUbWwW2pdgn1J6py6E4aX465hghZXaIWa8hGeDZEJorjDPOsPPypGl+74xi
EwSMcptXUOPsweO4qkgSnDnt/6pakJpn8u9B/5NjgdNafKVSTsBCEsg9AHmrPFeu
513198ieqmFH3neDY6J+QuGtXCsHG7BVvHVdaFeqzJeSNctHNa/tv+OVb9VOfq4u
MZRg2FtdO2ch1kdqImJPeZrtPAek67RlAB3557beQBxPRupadQAizcDTu5Xm/pDe
S0WSP7Psvj8Lq+7klEJUTdKAI4qbr6R8nzbLUY/R5d0S8kzJPdMNKlGcKaydI+sM
02cV2jKC5ObNufEWeHy9gW2RgRoF9O2PGJwFeQTTpDw0CCD+c5/jOm49y6raBptr
knG6MEzKt+LLUW6DSwqm/wdDzu7W1LCVc946DkBHQ40h9JGatuM7Rk1CltazW+Hr
DQQ+kQIDAQABo4IBazCCAWcwCQYDVR0TBAIwADAtBglghkgBhvhCAQ0EIBYeRWFz
eS1SU0EgR2VuZXJhdGVkIENlcnRpZmljYXRlMB0GA1UdDgQWBBRCZxMNqVBsy2Bj
F26aVKLX8ofWHDCB6QYDVR0jBIHhMIHegBTvOI0UUFinW02cF3L837msp1GwEKGB
uqSBtzCBtDELMAkGA1UEBhMCVVMxCzAJBgNVBAgTAkNBMRUwEwYDVQQHEwxTYW5G
cmFuY2lzY28xFTATBgNVBAoTDFBpeGdsbywgSW5jLjEQMA4GA1UECxMHVlBOLUNJ
RTEaMBgGA1UEAxMRdHVubmVsLnBpeGdsby5jb20xHDAaBgNVBCkTE0JhbGEgQ2hh
bmRyYXNla2FyYW4xHjAcBgkqhkiG9w0BCQEWD2JhbGFAcGl4Z2xvLmNvbYIJAKbb
xoOA5qB5MBMGA1UdJQQMMAoGCCsGAQUFBwMCMAsGA1UdDwQEAwIHgDANBgkqhkiG
9w0BAQUFAAOCAgEAjpRuUoPRa25kWXEtJKvYgMjJkKYZkS6GVLiSGW4H7vWakz6l
Fw6cvYoauYc8gvebyz4bZoVfEfUHsocaDyAA75ia65uu29Vc2QsNpKiUUj7YP4NN
lNUuIio6RdvXi7Y107aQ/EfwvVV4SEFwef30MgSU/qplrDItOmvEV/nDxv/xMR3Y
NdW3Lp7G93AXsRI1oI5XA5d4Y020/RV1QEgj45Nevti0gsMtZ1vxEW52RxnfPrKc
JbwEdKhGl+w2Km/wVhwVK7ob/kPR1BXOnI+FNf3oC6BxgSOAaCQVDjBHYpQmnDxl
MZZjW0pvAFtu6Nkr2goF83C6G3pCMqxh0b4dK0QGrUdvOgW7q/CGuVw9dlPwaHmJ
ZTZAji+NwB1J01zxuZ9Dsdz5cCnmodM1A1rUbEUdjSzuGq64TtrD57Ad9AOJZJyV
VJG5v9XKiFxgmfsw0JM40I6u1zairDqiRVkEh8wWBX+9bwcCYAVeIE2luso3lUT1
ammOieiZovcm9XHtmi37SsCYPAgehx7bR2DyoWSl5roOpiJjSpxtlc58d1+8Kmvw
v4jRwVap5GPxvsxMQA+UazNQ/Jr87FM7AYjIjI++xYPAKk2uGVYiNMvVHynYbZH3
WXYVV3GegJXezUTR20SMGfU85YI75CBIQgOHx9SX23j/qXvj5LxSSw2eQSM=
-----END CERTIFICATE-----
