Certificate:
    Data:
        Version: 3 (0x2)
        Serial Number: 857 (0x359)
    Signature Algorithm: sha1WithRSAEncryption
        Issuer: C=US, ST=CA, L=SanFrancisco, O=Pixglo, Inc., OU=VPN-CIE, CN=tunnel.pixglo.com/name=Bala Chandrasekaran/emailAddress=bala@pixglo.com
        Validity
            Not Before: Feb 14 06:45:43 2018 GMT
            Not After : Feb 12 06:45:43 2028 GMT
        Subject: C=US, ST=CA, L=SanFrancisco, O=Pixglo, Inc., OU=VPN-CIE, CN=cie856/name=Bala Chandrasekaran/emailAddress=bala@pixglo.com
        Subject Public Key Info:
            Public Key Algorithm: rsaEncryption
                Public-Key: (4096 bit)
                Modulus:
                    00:f9:3c:78:9a:0e:2f:da:1d:e3:68:0e:a4:02:ae:
                    4a:55:76:94:b5:bb:8e:ab:6f:b7:a4:eb:d7:3b:46:
                    fb:91:4d:19:85:e7:c5:d5:de:47:ea:8e:ce:0b:fe:
                    05:5b:95:41:66:ad:14:e4:20:b7:f3:c4:06:fa:44:
                    8a:99:7c:22:17:1b:46:af:62:94:ce:b4:0d:04:a8:
                    69:47:9a:20:f8:d0:13:71:1c:a8:35:ea:17:a4:05:
                    c7:90:48:c0:5e:67:a3:2d:20:34:9b:0f:8a:df:9a:
                    db:62:cd:5f:29:c3:8c:da:2f:8f:88:59:01:85:2a:
                    c4:08:2e:bc:39:51:75:e8:4e:d9:6a:43:0e:e4:f4:
                    e1:ed:65:a2:3b:43:b8:72:4b:09:5f:90:d6:1f:74:
                    aa:38:bc:e2:23:1a:ab:2c:30:74:3e:75:7b:7a:8a:
                    fe:67:c6:ca:64:80:1a:51:40:a2:c2:97:26:87:e2:
                    0c:5b:c8:0a:71:5c:55:f9:92:19:7e:e1:74:97:63:
                    14:13:50:43:1e:08:d7:e8:c5:0e:71:79:bc:e9:fa:
                    9f:ae:fe:85:96:e6:b6:a1:d0:26:dc:83:ee:96:6c:
                    45:ce:37:6e:05:b5:ff:a3:5f:d4:2e:3e:c3:86:f4:
                    1f:e9:96:7f:63:59:40:c8:4d:5b:a4:ec:f5:7a:ac:
                    4a:73:ec:fc:78:9e:93:3a:c2:60:76:ed:4b:72:46:
                    f7:09:b0:cb:1a:56:60:d6:88:ff:10:53:0c:a9:3e:
                    10:3a:4b:21:b4:3e:22:37:b8:5b:f4:62:48:13:7a:
                    82:c5:82:96:8c:48:0b:23:81:ea:2d:0a:59:e3:77:
                    f7:60:62:5e:77:c6:c6:83:e5:58:31:37:a0:62:74:
                    80:f9:f4:a3:97:a3:65:55:95:b1:14:e4:f5:c0:5d:
                    52:ea:e6:ac:64:b0:d8:79:39:6f:97:cb:29:a5:61:
                    dc:5a:30:4c:fe:0c:ba:47:84:7a:8b:33:88:98:ed:
                    c5:aa:1d:3e:36:57:e6:65:3a:75:c9:90:6b:de:0a:
                    19:b2:3f:00:52:08:e4:0e:94:ed:4e:97:4d:fd:71:
                    9e:4c:73:ca:0e:73:9c:38:c5:4b:9c:fd:ee:9d:15:
                    6d:41:32:82:a0:cb:fa:89:d3:3a:06:e2:1b:26:6a:
                    ba:d8:c4:1a:a2:7b:1a:1d:e6:46:88:62:c0:8d:82:
                    09:a8:1e:4f:a8:c4:10:76:4d:de:ab:c2:1e:b6:19:
                    c5:fb:09:aa:59:1c:9c:34:a1:cd:86:99:d3:2c:dd:
                    46:f0:82:55:b5:04:e5:7d:de:fc:af:b0:ed:3c:8d:
                    64:d2:bf:f5:46:09:e7:11:ea:8c:01:f0:52:98:9b:
                    a0:77:ab
                Exponent: 65537 (0x10001)
        X509v3 extensions:
            X509v3 Basic Constraints: 
                CA:FALSE
            Netscape Comment: 
                Easy-RSA Generated Certificate
            X509v3 Subject Key Identifier: 
                FE:51:6E:CA:16:CA:0C:A6:02:43:0A:B2:7A:74:B4:05:84:27:DB:4E
            X509v3 Authority Key Identifier: 
                keyid:EF:38:8D:14:50:58:A7:5B:4D:9C:17:72:FC:DF:B9:AC:A7:51:B0:10
                DirName:/C=US/ST=CA/L=SanFrancisco/O=Pixglo, Inc./OU=VPN-CIE/CN=tunnel.pixglo.com/name=Bala Chandrasekaran/emailAddress=bala@pixglo.com
                serial:A6:DB:C6:83:80:E6:A0:79

            X509v3 Extended Key Usage: 
                TLS Web Client Authentication
            X509v3 Key Usage: 
                Digital Signature
    Signature Algorithm: sha1WithRSAEncryption
         a7:6f:e6:77:03:20:61:88:15:c6:0d:5c:14:61:0b:24:ab:e8:
         ee:65:5c:45:dd:8e:cd:8a:bf:d3:54:d7:ab:68:26:bc:ba:77:
         7a:53:67:56:60:86:5e:20:8a:2b:61:34:21:7a:9c:a1:03:3a:
         f4:df:4b:dd:ee:a0:49:7e:bf:cb:b1:4c:71:8b:7f:b3:fa:32:
         cf:6a:ad:bc:84:5d:7f:99:fd:dd:05:aa:67:36:6e:e3:ba:3a:
         70:67:7c:db:4a:e5:cd:12:b5:34:a5:8e:8b:4e:0d:04:d3:85:
         ac:f2:ea:26:44:6f:50:59:5a:b3:f0:86:54:3b:5d:37:27:9e:
         e8:2a:c8:8f:dd:15:75:6e:eb:8e:0d:78:e9:39:19:7e:c8:ba:
         a4:23:a3:56:d5:25:e5:f5:29:f6:aa:b0:fb:fe:21:95:86:de:
         0b:53:65:84:ad:a9:cb:de:fb:35:2b:6a:56:26:cf:94:6f:b7:
         19:60:3e:f0:ae:82:f8:e7:33:d1:f1:17:aa:8d:cc:9a:a1:45:
         36:3d:f3:95:e7:44:77:f0:2e:a5:71:c9:37:1b:1b:12:b1:8e:
         ad:a7:c6:53:21:81:0d:b0:ac:23:da:31:d8:89:21:d2:d1:52:
         92:6e:f3:f7:35:29:7b:b3:12:21:0b:40:7a:90:f6:ad:fc:c2:
         5a:3e:be:eb:fe:f7:34:14:c3:1f:9a:03:a9:bc:68:63:cd:b8:
         93:e9:73:8d:1c:03:e2:53:43:a0:ba:28:5c:b0:78:4d:c0:14:
         9a:a4:dc:6f:30:3f:8b:8d:86:c0:03:50:df:94:38:eb:77:97:
         91:59:a7:b0:79:ae:c4:01:11:ea:44:c0:24:8b:69:26:59:bb:
         80:69:ae:28:c8:f3:dd:31:29:54:3b:64:d6:61:33:1f:fc:2f:
         84:ee:bd:28:ba:9e:1d:95:e3:d3:a1:19:33:a2:a1:53:9a:6d:
         5e:26:f7:4e:9f:6a:16:fd:d6:a1:22:4b:31:d0:c4:04:b7:ad:
         dd:e3:54:dc:83:07:17:ca:58:96:e1:e5:44:95:ad:71:0f:eb:
         88:09:bd:4b:d0:bb:4d:7c:7c:24:b1:73:f9:45:d5:3d:8f:15:
         f1:a3:5f:89:45:e9:fb:41:80:09:33:79:5c:5a:21:a5:9f:70:
         63:c3:ad:2f:89:36:b3:81:aa:e1:be:ac:cf:58:68:97:ee:1d:
         04:7f:15:95:51:fc:24:c7:ef:c4:6e:b2:5c:75:52:5a:df:02:
         cf:ea:a2:5b:e9:6c:53:d0:e3:76:c0:99:6c:61:88:47:9b:cb:
         a9:a9:7c:f5:76:70:91:6f:f8:3e:03:10:19:7b:24:de:af:a2:
         b0:fa:c0:4d:8c:56:83:ab
-----BEGIN CERTIFICATE-----
MIIHSDCCBTCgAwIBAgICA1kwDQYJKoZIhvcNAQEFBQAwgbQxCzAJBgNVBAYTAlVT
MQswCQYDVQQIEwJDQTEVMBMGA1UEBxMMU2FuRnJhbmNpc2NvMRUwEwYDVQQKEwxQ
aXhnbG8sIEluYy4xEDAOBgNVBAsTB1ZQTi1DSUUxGjAYBgNVBAMTEXR1bm5lbC5w
aXhnbG8uY29tMRwwGgYDVQQpExNCYWxhIENoYW5kcmFzZWthcmFuMR4wHAYJKoZI
hvcNAQkBFg9iYWxhQHBpeGdsby5jb20wHhcNMTgwMjE0MDY0NTQzWhcNMjgwMjEy
MDY0NTQzWjCBqTELMAkGA1UEBhMCVVMxCzAJBgNVBAgTAkNBMRUwEwYDVQQHEwxT
YW5GcmFuY2lzY28xFTATBgNVBAoTDFBpeGdsbywgSW5jLjEQMA4GA1UECxMHVlBO
LUNJRTEPMA0GA1UEAxMGY2llODU2MRwwGgYDVQQpExNCYWxhIENoYW5kcmFzZWth
cmFuMR4wHAYJKoZIhvcNAQkBFg9iYWxhQHBpeGdsby5jb20wggIiMA0GCSqGSIb3
DQEBAQUAA4ICDwAwggIKAoICAQD5PHiaDi/aHeNoDqQCrkpVdpS1u46rb7ek69c7
RvuRTRmF58XV3kfqjs4L/gVblUFmrRTkILfzxAb6RIqZfCIXG0avYpTOtA0EqGlH
miD40BNxHKg16hekBceQSMBeZ6MtIDSbD4rfmttizV8pw4zaL4+IWQGFKsQILrw5
UXXoTtlqQw7k9OHtZaI7Q7hySwlfkNYfdKo4vOIjGqssMHQ+dXt6iv5nxspkgBpR
QKLClyaH4gxbyApxXFX5khl+4XSXYxQTUEMeCNfoxQ5xebzp+p+u/oWW5rah0Cbc
g+6WbEXON24Ftf+jX9QuPsOG9B/pln9jWUDITVuk7PV6rEpz7Px4npM6wmB27Uty
RvcJsMsaVmDWiP8QUwypPhA6SyG0PiI3uFv0YkgTeoLFgpaMSAsjgeotClnjd/dg
Yl53xsaD5VgxN6BidID59KOXo2VVlbEU5PXAXVLq5qxksNh5OW+XyymlYdxaMEz+
DLpHhHqLM4iY7cWqHT42V+ZlOnXJkGveChmyPwBSCOQOlO1Ol039cZ5Mc8oOc5w4
xUuc/e6dFW1BMoKgy/qJ0zoG4hsmarrYxBqiexod5kaIYsCNggmoHk+oxBB2Td6r
wh62GcX7CapZHJw0oc2GmdMs3UbwglW1BOV93vyvsO08jWTSv/VGCecR6owB8FKY
m6B3qwIDAQABo4IBazCCAWcwCQYDVR0TBAIwADAtBglghkgBhvhCAQ0EIBYeRWFz
eS1SU0EgR2VuZXJhdGVkIENlcnRpZmljYXRlMB0GA1UdDgQWBBT+UW7KFsoMpgJD
CrJ6dLQFhCfbTjCB6QYDVR0jBIHhMIHegBTvOI0UUFinW02cF3L837msp1GwEKGB
uqSBtzCBtDELMAkGA1UEBhMCVVMxCzAJBgNVBAgTAkNBMRUwEwYDVQQHEwxTYW5G
cmFuY2lzY28xFTATBgNVBAoTDFBpeGdsbywgSW5jLjEQMA4GA1UECxMHVlBOLUNJ
RTEaMBgGA1UEAxMRdHVubmVsLnBpeGdsby5jb20xHDAaBgNVBCkTE0JhbGEgQ2hh
bmRyYXNla2FyYW4xHjAcBgkqhkiG9w0BCQEWD2JhbGFAcGl4Z2xvLmNvbYIJAKbb
xoOA5qB5MBMGA1UdJQQMMAoGCCsGAQUFBwMCMAsGA1UdDwQEAwIHgDANBgkqhkiG
9w0BAQUFAAOCAgEAp2/mdwMgYYgVxg1cFGELJKvo7mVcRd2OzYq/01TXq2gmvLp3
elNnVmCGXiCKK2E0IXqcoQM69N9L3e6gSX6/y7FMcYt/s/oyz2qtvIRdf5n93QWq
ZzZu47o6cGd820rlzRK1NKWOi04NBNOFrPLqJkRvUFlas/CGVDtdNyee6CrIj90V
dW7rjg146TkZfsi6pCOjVtUl5fUp9qqw+/4hlYbeC1NlhK2py977NStqVibPlG+3
GWA+8K6C+Ocz0fEXqo3MmqFFNj3zledEd/AupXHJNxsbErGOrafGUyGBDbCsI9ox
2Ikh0tFSkm7z9zUpe7MSIQtAepD2rfzCWj6+6/73NBTDH5oDqbxoY824k+lzjRwD
4lNDoLooXLB4TcAUmqTcbzA/i42GwANQ35Q463eXkVmnsHmuxAER6kTAJItpJlm7
gGmuKMjz3TEpVDtk1mEzH/wvhO69KLqeHZXj06EZM6KhU5ptXib3Tp9qFv3WoSJL
MdDEBLet3eNU3IMHF8pYluHlRJWtcQ/riAm9S9C7TXx8JLFz+UXVPY8V8aNfiUXp
+0GACTN5XFohpZ9wY8OtL4k2s4Gq4b6sz1hol+4dBH8VlVH8JMfvxG6yXHVSWt8C
z+qiW+lsU9DjdsCZbGGIR5vLqal89XZwkW/4PgMQGXsk3q+isPrATYxWg6s=
-----END CERTIFICATE-----
