Certificate:
    Data:
        Version: 3 (0x2)
        Serial Number: 862 (0x35e)
    Signature Algorithm: sha1WithRSAEncryption
        Issuer: C=US, ST=CA, L=SanFrancisco, O=Pixglo, Inc., OU=VPN-CIE, CN=tunnel.pixglo.com/name=Bala Chandrasekaran/emailAddress=bala@pixglo.com
        Validity
            Not Before: Feb 14 06:45:56 2018 GMT
            Not After : Feb 12 06:45:56 2028 GMT
        Subject: C=US, ST=CA, L=SanFrancisco, O=Pixglo, Inc., OU=VPN-CIE, CN=cie861/name=Bala Chandrasekaran/emailAddress=bala@pixglo.com
        Subject Public Key Info:
            Public Key Algorithm: rsaEncryption
                Public-Key: (4096 bit)
                Modulus:
                    00:ad:2a:b5:4a:82:57:3d:ef:db:8b:a8:3d:12:4e:
                    08:d4:77:5e:33:04:d1:02:95:fb:26:13:ec:82:64:
                    84:64:f0:3a:8d:c9:53:bc:58:da:92:bf:98:eb:4c:
                    3c:c2:fc:0b:af:37:2a:2b:fe:e3:45:a1:b6:59:59:
                    5c:bf:b3:80:72:24:91:f8:30:48:4d:75:3f:44:68:
                    66:2a:85:86:38:72:31:0c:5f:2a:df:a5:5c:66:b1:
                    0e:e2:80:15:9c:01:b0:02:0f:7c:36:dc:84:e9:46:
                    b3:69:a9:fa:39:fd:92:38:af:f9:0c:fa:31:e1:e0:
                    7c:45:8b:b3:40:a8:8c:86:33:62:d0:b1:4f:36:82:
                    11:02:7f:46:75:c9:20:73:6c:b2:f2:da:20:73:21:
                    66:8a:af:cc:b4:d6:f0:6c:8f:64:4d:52:3f:80:17:
                    a4:91:53:ca:6b:e3:ad:0e:dc:ec:1e:32:6e:26:84:
                    0e:af:e6:ab:e7:2d:d3:54:01:02:26:b5:8f:76:1b:
                    1b:51:1b:94:72:9c:72:df:ea:1b:09:ae:d1:d6:50:
                    15:b6:52:d5:8c:0b:b6:2f:4d:9e:67:6b:b6:fc:b5:
                    e8:a9:5e:12:58:a2:2b:b3:91:59:18:89:b0:e0:e3:
                    4b:07:6e:4c:97:07:d8:e1:eb:c6:fe:c3:01:2d:b1:
                    a0:1f:5e:77:51:8c:9a:13:6d:55:d8:65:b9:76:cb:
                    16:4d:00:1d:fa:a5:46:9a:ff:ba:8c:6d:56:34:83:
                    5a:b5:09:c2:d3:06:cd:47:b3:2d:0e:93:a1:03:d7:
                    92:78:1c:d6:a6:c1:42:58:a6:e9:58:9c:49:fd:10:
                    f6:95:99:5d:7a:db:45:c0:35:b6:c3:a1:72:58:d8:
                    39:7a:b0:8f:0a:2b:c1:40:3e:70:36:8c:25:a2:96:
                    30:3e:03:5b:bd:d1:d2:8e:d2:bf:7e:53:47:57:a5:
                    95:3e:24:45:0b:bb:ca:cc:d3:4d:42:04:48:3e:47:
                    c1:e8:5f:d2:3b:e9:08:38:80:2a:3f:e0:11:19:b7:
                    87:d0:63:9b:e2:bf:79:12:98:49:f6:5c:54:66:f1:
                    2b:71:19:9d:45:44:39:d2:fc:4a:55:6c:30:f7:a0:
                    18:62:14:ba:b3:1b:d2:6f:47:67:96:c1:e3:63:70:
                    25:61:c1:5a:d3:f2:9f:95:1d:9a:cc:eb:23:0b:4d:
                    d5:c5:16:2a:4d:f7:2a:63:b1:ae:6d:34:5b:5c:4a:
                    dc:38:ec:d2:87:59:36:bb:22:31:ba:78:51:4f:47:
                    87:45:ba:f1:a3:aa:e2:de:37:06:97:55:b5:d6:4f:
                    7e:70:e1:03:24:cf:38:1d:5c:56:46:57:60:46:a2:
                    10:1a:b1
                Exponent: 65537 (0x10001)
        X509v3 extensions:
            X509v3 Basic Constraints: 
                CA:FALSE
            Netscape Comment: 
                Easy-RSA Generated Certificate
            X509v3 Subject Key Identifier: 
                24:7B:13:9F:23:CF:83:E3:6D:8B:70:06:72:15:32:68:49:AA:7D:4D
            X509v3 Authority Key Identifier: 
                keyid:EF:38:8D:14:50:58:A7:5B:4D:9C:17:72:FC:DF:B9:AC:A7:51:B0:10
                DirName:/C=US/ST=CA/L=SanFrancisco/O=Pixglo, Inc./OU=VPN-CIE/CN=tunnel.pixglo.com/name=Bala Chandrasekaran/emailAddress=bala@pixglo.com
                serial:A6:DB:C6:83:80:E6:A0:79

            X509v3 Extended Key Usage: 
                TLS Web Client Authentication
            X509v3 Key Usage: 
                Digital Signature
    Signature Algorithm: sha1WithRSAEncryption
         18:b8:d0:ff:5c:79:a2:9f:ae:cc:d9:cf:2d:91:27:f9:e0:42:
         79:24:2d:93:6a:7b:29:b8:21:84:0f:ce:5d:3e:00:61:fc:67:
         1d:9e:cd:a1:27:b5:24:4c:11:c7:07:e0:d2:f9:1c:f4:75:8c:
         8c:1f:e0:41:f8:d6:33:e9:ff:7c:91:2f:6b:46:1e:e9:6e:12:
         71:cd:78:c2:64:6a:59:b9:df:a9:ce:de:68:74:0b:b5:4f:32:
         01:fa:7d:25:1b:24:ea:a7:39:cc:a0:50:18:c7:ed:e5:47:78:
         47:b9:5d:3d:d6:f3:c2:df:be:0b:7f:a7:81:cb:96:2e:68:08:
         2d:81:80:0b:0f:1d:3a:ae:0d:74:d0:b7:7b:ad:f5:4c:19:0e:
         f3:90:87:25:a8:16:35:95:a5:94:4d:be:9c:03:8c:cb:54:3c:
         f0:e2:f6:1a:8a:be:7a:93:7a:96:e8:8f:6f:f3:6c:bb:9f:9c:
         4b:84:3c:5f:00:19:7a:a5:3a:94:e6:3b:2b:17:16:a5:b1:53:
         45:81:8b:ef:1b:ee:7d:f2:17:01:06:cc:97:36:64:27:b8:a9:
         6b:46:ab:ec:de:2c:f5:b0:aa:8f:ed:f1:e4:96:60:dd:2a:52:
         75:32:93:b0:6c:83:05:90:d0:99:bd:7e:b6:5b:a5:e3:a5:26:
         c1:7f:fd:fe:50:6b:21:f2:52:80:75:b8:23:0c:4e:8a:96:98:
         0f:1f:fa:65:d8:26:ef:29:5b:40:bd:69:18:b3:c9:b0:88:c6:
         df:b6:2a:21:38:90:25:d2:aa:91:20:4b:ed:6c:64:cf:c3:ad:
         68:27:97:99:2a:b1:9e:a4:1a:6a:43:f2:e0:ca:48:26:a7:b0:
         eb:92:ce:21:3f:87:72:f1:a8:21:9e:4d:9f:41:f7:8e:12:10:
         42:1a:9f:6e:cd:9f:c0:a0:cc:c4:1c:42:58:ad:0a:5c:2c:0d:
         dd:06:3c:dc:10:70:9e:b5:c1:5e:bb:6a:25:a2:6c:84:4f:df:
         43:c7:48:11:ac:5b:ea:83:00:db:28:fc:84:5a:95:84:03:f1:
         b2:52:0f:f5:15:48:89:48:95:7d:ce:09:8d:2d:ce:1b:e7:9e:
         1b:80:af:90:51:e2:a0:26:38:26:3c:e4:e0:df:c5:3f:78:ca:
         78:05:dd:8d:fc:29:b4:fd:cd:8c:c2:2d:8c:7f:a6:74:d9:b7:
         06:fc:5e:9a:7e:05:e6:41:69:c2:dd:70:68:a7:cb:f5:f2:b4:
         35:0d:c8:9c:68:7c:66:60:60:71:1f:20:da:6a:e5:aa:54:43:
         27:27:82:64:d6:e0:88:f8:6c:55:b5:f5:94:fa:cb:84:b3:f7:
         cc:80:18:e6:3c:99:4e:f9
-----BEGIN CERTIFICATE-----
MIIHSDCCBTCgAwIBAgICA14wDQYJKoZIhvcNAQEFBQAwgbQxCzAJBgNVBAYTAlVT
MQswCQYDVQQIEwJDQTEVMBMGA1UEBxMMU2FuRnJhbmNpc2NvMRUwEwYDVQQKEwxQ
aXhnbG8sIEluYy4xEDAOBgNVBAsTB1ZQTi1DSUUxGjAYBgNVBAMTEXR1bm5lbC5w
aXhnbG8uY29tMRwwGgYDVQQpExNCYWxhIENoYW5kcmFzZWthcmFuMR4wHAYJKoZI
hvcNAQkBFg9iYWxhQHBpeGdsby5jb20wHhcNMTgwMjE0MDY0NTU2WhcNMjgwMjEy
MDY0NTU2WjCBqTELMAkGA1UEBhMCVVMxCzAJBgNVBAgTAkNBMRUwEwYDVQQHEwxT
YW5GcmFuY2lzY28xFTATBgNVBAoTDFBpeGdsbywgSW5jLjEQMA4GA1UECxMHVlBO
LUNJRTEPMA0GA1UEAxMGY2llODYxMRwwGgYDVQQpExNCYWxhIENoYW5kcmFzZWth
cmFuMR4wHAYJKoZIhvcNAQkBFg9iYWxhQHBpeGdsby5jb20wggIiMA0GCSqGSIb3
DQEBAQUAA4ICDwAwggIKAoICAQCtKrVKglc979uLqD0STgjUd14zBNEClfsmE+yC
ZIRk8DqNyVO8WNqSv5jrTDzC/AuvNyor/uNFobZZWVy/s4ByJJH4MEhNdT9EaGYq
hYY4cjEMXyrfpVxmsQ7igBWcAbACD3w23ITpRrNpqfo5/ZI4r/kM+jHh4HxFi7NA
qIyGM2LQsU82ghECf0Z1ySBzbLLy2iBzIWaKr8y01vBsj2RNUj+AF6SRU8pr460O
3OweMm4mhA6v5qvnLdNUAQImtY92GxtRG5RynHLf6hsJrtHWUBW2UtWMC7YvTZ5n
a7b8teipXhJYoiuzkVkYibDg40sHbkyXB9jh68b+wwEtsaAfXndRjJoTbVXYZbl2
yxZNAB36pUaa/7qMbVY0g1q1CcLTBs1Hsy0Ok6ED15J4HNamwUJYpulYnEn9EPaV
mV1620XANbbDoXJY2Dl6sI8KK8FAPnA2jCWiljA+A1u90dKO0r9+U0dXpZU+JEUL
u8rM001CBEg+R8HoX9I76Qg4gCo/4BEZt4fQY5viv3kSmEn2XFRm8StxGZ1FRDnS
/EpVbDD3oBhiFLqzG9JvR2eWweNjcCVhwVrT8p+VHZrM6yMLTdXFFipN9ypjsa5t
NFtcStw47NKHWTa7IjG6eFFPR4dFuvGjquLeNwaXVbXWT35w4QMkzzgdXFZGV2BG
ohAasQIDAQABo4IBazCCAWcwCQYDVR0TBAIwADAtBglghkgBhvhCAQ0EIBYeRWFz
eS1SU0EgR2VuZXJhdGVkIENlcnRpZmljYXRlMB0GA1UdDgQWBBQkexOfI8+D422L
cAZyFTJoSap9TTCB6QYDVR0jBIHhMIHegBTvOI0UUFinW02cF3L837msp1GwEKGB
uqSBtzCBtDELMAkGA1UEBhMCVVMxCzAJBgNVBAgTAkNBMRUwEwYDVQQHEwxTYW5G
cmFuY2lzY28xFTATBgNVBAoTDFBpeGdsbywgSW5jLjEQMA4GA1UECxMHVlBOLUNJ
RTEaMBgGA1UEAxMRdHVubmVsLnBpeGdsby5jb20xHDAaBgNVBCkTE0JhbGEgQ2hh
bmRyYXNla2FyYW4xHjAcBgkqhkiG9w0BCQEWD2JhbGFAcGl4Z2xvLmNvbYIJAKbb
xoOA5qB5MBMGA1UdJQQMMAoGCCsGAQUFBwMCMAsGA1UdDwQEAwIHgDANBgkqhkiG
9w0BAQUFAAOCAgEAGLjQ/1x5op+uzNnPLZEn+eBCeSQtk2p7KbghhA/OXT4AYfxn
HZ7NoSe1JEwRxwfg0vkc9HWMjB/gQfjWM+n/fJEva0Ye6W4Scc14wmRqWbnfqc7e
aHQLtU8yAfp9JRsk6qc5zKBQGMft5Ud4R7ldPdbzwt++C3+ngcuWLmgILYGACw8d
Oq4NdNC3e631TBkO85CHJagWNZWllE2+nAOMy1Q88OL2Goq+epN6luiPb/Nsu5+c
S4Q8XwAZeqU6lOY7KxcWpbFTRYGL7xvuffIXAQbMlzZkJ7ipa0ar7N4s9bCqj+3x
5JZg3SpSdTKTsGyDBZDQmb1+tlul46UmwX/9/lBrIfJSgHW4IwxOipaYDx/6Zdgm
7ylbQL1pGLPJsIjG37YqITiQJdKqkSBL7Wxkz8OtaCeXmSqxnqQaakPy4MpIJqew
65LOIT+HcvGoIZ5Nn0H3jhIQQhqfbs2fwKDMxBxCWK0KXCwN3QY83BBwnrXBXrtq
JaJshE/fQ8dIEaxb6oMA2yj8hFqVhAPxslIP9RVIiUiVfc4JjS3OG+eeG4CvkFHi
oCY4Jjzk4N/FP3jKeAXdjfwptP3NjMItjH+mdNm3Bvxemn4F5kFpwt1waKfL9fK0
NQ3InGh8ZmBgcR8g2mrlqlRDJyeCZNbgiPhsVbX1lPrLhLP3zIAY5jyZTvk=
-----END CERTIFICATE-----
