Certificate:
    Data:
        Version: 3 (0x2)
        Serial Number: 869 (0x365)
    Signature Algorithm: sha1WithRSAEncryption
        Issuer: C=US, ST=CA, L=SanFrancisco, O=Pixglo, Inc., OU=VPN-CIE, CN=tunnel.pixglo.com/name=Bala Chandrasekaran/emailAddress=bala@pixglo.com
        Validity
            Not Before: Feb 14 06:46:17 2018 GMT
            Not After : Feb 12 06:46:17 2028 GMT
        Subject: C=US, ST=CA, L=SanFrancisco, O=Pixglo, Inc., OU=VPN-CIE, CN=cie868/name=Bala Chandrasekaran/emailAddress=bala@pixglo.com
        Subject Public Key Info:
            Public Key Algorithm: rsaEncryption
                Public-Key: (4096 bit)
                Modulus:
                    00:ad:8e:25:16:85:4d:cc:74:88:06:f8:19:f3:da:
                    69:4c:96:e7:b4:1a:b5:ec:d1:5d:40:ce:f8:33:d1:
                    c5:a3:1f:fb:7e:bb:da:da:5f:d4:dc:11:f1:cc:a0:
                    65:d5:c2:d3:a7:25:26:50:d5:5d:7e:ee:a8:f3:a5:
                    b2:23:54:c8:2b:02:e1:4c:76:34:68:ca:86:20:35:
                    e0:f2:cf:66:79:37:84:d9:6a:7c:07:18:79:f4:a8:
                    bb:b6:0a:5a:30:41:8f:23:92:a1:a4:4a:17:d2:6c:
                    eb:e8:03:ad:c1:36:c5:9d:7d:a4:49:46:fe:9d:93:
                    73:fc:02:20:9b:9c:f9:61:07:6b:39:aa:42:71:99:
                    2c:1a:4e:f8:c6:7d:f1:c6:4b:88:c0:79:71:cd:87:
                    05:71:ad:26:42:8d:98:b4:82:7b:84:a2:55:93:97:
                    b4:0f:1a:5d:6b:1d:13:fa:72:31:c3:7f:36:02:99:
                    f9:ba:fe:5b:89:bd:0d:e3:27:00:8e:97:07:43:40:
                    63:ec:3d:fc:5b:4b:cd:d7:65:16:c6:eb:97:92:97:
                    f9:f1:90:6c:5e:55:9e:f1:b7:49:91:80:d1:d4:79:
                    81:f0:7d:17:a3:43:40:68:0a:11:93:ff:48:d2:d6:
                    17:27:9a:03:4d:1c:40:dc:48:eb:16:b2:ee:b5:70:
                    62:61:95:43:82:36:ca:af:ca:f5:41:21:94:fa:0c:
                    e5:b8:12:5d:ee:5f:b5:37:8b:b4:dc:0c:4e:4e:f7:
                    e8:1e:3c:e3:67:45:08:40:c9:b8:29:25:6c:a6:99:
                    c0:1c:f4:7f:08:21:9e:21:59:ec:f8:e7:35:e9:bb:
                    24:72:46:cf:51:43:66:37:43:02:a1:cf:d7:1f:d6:
                    a8:17:5f:a8:1c:e3:47:fc:08:96:33:b0:47:df:e6:
                    b1:55:1b:c9:96:54:90:02:b9:99:87:87:c2:a7:a4:
                    aa:06:f2:23:41:f4:c9:9c:9e:0b:ed:9e:f9:19:ae:
                    ac:7d:78:41:52:3c:05:a1:49:c7:ec:93:9e:99:95:
                    41:5e:1f:7f:e7:28:66:4c:27:2f:06:cc:f4:0c:d2:
                    23:80:13:0c:d3:68:61:af:73:af:f6:72:04:ab:41:
                    a2:02:af:95:b5:11:7e:05:09:7e:a8:de:e6:eb:8d:
                    77:d3:e6:8d:db:1b:72:b8:36:f2:a6:f5:79:6b:b8:
                    8f:37:76:04:81:b2:5c:62:af:b8:81:93:2c:99:be:
                    4c:2b:ed:55:ac:47:7f:4a:5f:10:d2:f6:26:c2:f9:
                    e7:cc:e1:b8:2b:3c:92:7c:5a:bc:92:c3:a6:5a:75:
                    14:52:96:6f:2c:2a:dd:7d:9c:8e:29:eb:22:31:ec:
                    7d:f2:fb
                Exponent: 65537 (0x10001)
        X509v3 extensions:
            X509v3 Basic Constraints: 
                CA:FALSE
            Netscape Comment: 
                Easy-RSA Generated Certificate
            X509v3 Subject Key Identifier: 
                73:AD:67:DC:67:8A:0E:8D:4F:E7:E4:3F:81:69:A6:6D:A3:BC:77:FA
            X509v3 Authority Key Identifier: 
                keyid:EF:38:8D:14:50:58:A7:5B:4D:9C:17:72:FC:DF:B9:AC:A7:51:B0:10
                DirName:/C=US/ST=CA/L=SanFrancisco/O=Pixglo, Inc./OU=VPN-CIE/CN=tunnel.pixglo.com/name=Bala Chandrasekaran/emailAddress=bala@pixglo.com
                serial:A6:DB:C6:83:80:E6:A0:79

            X509v3 Extended Key Usage: 
                TLS Web Client Authentication
            X509v3 Key Usage: 
                Digital Signature
    Signature Algorithm: sha1WithRSAEncryption
         a6:7c:76:89:65:2d:39:d5:c0:c9:41:21:e6:0e:8e:70:d3:10:
         b9:9c:8f:c0:46:ba:08:57:e2:89:71:b9:17:76:52:77:66:d5:
         8d:0c:96:3c:6f:13:8f:d1:42:88:f8:37:a4:c9:d5:b0:70:fb:
         cb:a5:30:f2:44:a8:ec:84:77:e3:43:1f:60:a1:4c:d9:c0:79:
         47:4a:0d:01:85:93:b7:90:6f:9b:87:62:b1:40:4b:ec:0d:a9:
         8a:0c:69:1d:de:78:0a:7d:67:3c:c9:1a:f9:1d:31:92:24:13:
         8e:39:2b:ed:02:b6:da:5e:e8:42:f3:12:c4:02:b5:f9:27:a3:
         62:3b:6a:35:9e:0d:18:7f:54:fa:5d:3c:89:db:77:26:ce:86:
         e6:9d:98:19:88:f6:a2:c8:52:d7:00:2e:c2:f6:9a:9c:f5:37:
         a0:e2:33:bf:92:b6:29:fc:db:a6:14:8e:c1:7c:a7:16:ea:81:
         95:01:0b:b8:aa:c7:2d:6d:1e:10:c8:b7:5a:cf:b7:86:59:d9:
         8f:b7:ca:07:51:21:df:bd:7d:62:0e:24:72:17:60:1a:95:3d:
         a7:91:a7:2d:1b:4b:18:b6:f0:05:f2:a3:0a:54:b2:39:ac:03:
         d7:69:5f:c2:df:2b:38:07:cb:ea:1b:2a:02:e0:fb:73:cd:70:
         51:af:c8:7c:6f:bc:d7:d4:6a:de:43:50:67:28:9f:00:40:6c:
         b7:b6:93:c7:5d:34:e1:c8:d5:2b:a0:d8:96:d4:74:94:c7:a7:
         ee:37:aa:b1:ff:ab:cb:06:ab:b3:99:c8:f2:76:71:f6:3b:31:
         4e:6e:be:3f:e0:b3:54:25:11:ef:aa:2c:1f:2d:af:1a:37:11:
         fc:d1:10:74:a5:11:b4:56:65:38:5c:fe:03:d1:c5:7d:b1:91:
         48:b6:83:ca:ae:59:ab:d6:29:2e:4a:b7:9d:45:49:66:10:49:
         c4:1a:9d:8e:2f:85:2f:be:2f:2c:26:f0:40:fa:bf:b2:7d:ff:
         81:93:f6:2f:bb:a8:76:ca:87:a6:77:59:b0:7f:6c:1b:1c:cd:
         27:18:d3:6e:8f:d2:d3:18:e7:c6:19:5a:de:31:72:48:d4:ac:
         a9:91:ee:14:97:6a:17:de:66:1b:b8:d2:ba:a1:71:31:01:1b:
         c8:43:05:f5:d6:7d:8f:a6:c1:7e:3d:24:9f:28:ed:06:76:d7:
         04:6d:c6:9b:84:68:52:4f:cd:f4:f6:d7:0f:27:67:5d:43:22:
         c9:53:00:40:9f:ab:bb:c7:62:78:d4:8d:76:73:0d:cc:35:d4:
         dc:f1:ff:c4:d3:21:e7:49:9e:c0:f6:26:91:87:2b:11:26:6d:
         2d:f2:75:08:12:0c:74:63
-----BEGIN CERTIFICATE-----
MIIHSDCCBTCgAwIBAgICA2UwDQYJKoZIhvcNAQEFBQAwgbQxCzAJBgNVBAYTAlVT
MQswCQYDVQQIEwJDQTEVMBMGA1UEBxMMU2FuRnJhbmNpc2NvMRUwEwYDVQQKEwxQ
aXhnbG8sIEluYy4xEDAOBgNVBAsTB1ZQTi1DSUUxGjAYBgNVBAMTEXR1bm5lbC5w
aXhnbG8uY29tMRwwGgYDVQQpExNCYWxhIENoYW5kcmFzZWthcmFuMR4wHAYJKoZI
hvcNAQkBFg9iYWxhQHBpeGdsby5jb20wHhcNMTgwMjE0MDY0NjE3WhcNMjgwMjEy
MDY0NjE3WjCBqTELMAkGA1UEBhMCVVMxCzAJBgNVBAgTAkNBMRUwEwYDVQQHEwxT
YW5GcmFuY2lzY28xFTATBgNVBAoTDFBpeGdsbywgSW5jLjEQMA4GA1UECxMHVlBO
LUNJRTEPMA0GA1UEAxMGY2llODY4MRwwGgYDVQQpExNCYWxhIENoYW5kcmFzZWth
cmFuMR4wHAYJKoZIhvcNAQkBFg9iYWxhQHBpeGdsby5jb20wggIiMA0GCSqGSIb3
DQEBAQUAA4ICDwAwggIKAoICAQCtjiUWhU3MdIgG+Bnz2mlMlue0GrXs0V1Azvgz
0cWjH/t+u9raX9TcEfHMoGXVwtOnJSZQ1V1+7qjzpbIjVMgrAuFMdjRoyoYgNeDy
z2Z5N4TZanwHGHn0qLu2ClowQY8jkqGkShfSbOvoA63BNsWdfaRJRv6dk3P8AiCb
nPlhB2s5qkJxmSwaTvjGffHGS4jAeXHNhwVxrSZCjZi0gnuEolWTl7QPGl1rHRP6
cjHDfzYCmfm6/luJvQ3jJwCOlwdDQGPsPfxbS83XZRbG65eSl/nxkGxeVZ7xt0mR
gNHUeYHwfRejQ0BoChGT/0jS1hcnmgNNHEDcSOsWsu61cGJhlUOCNsqvyvVBIZT6
DOW4El3uX7U3i7TcDE5O9+gePONnRQhAybgpJWymmcAc9H8IIZ4hWez45zXpuyRy
Rs9RQ2Y3QwKhz9cf1qgXX6gc40f8CJYzsEff5rFVG8mWVJACuZmHh8KnpKoG8iNB
9MmcngvtnvkZrqx9eEFSPAWhScfsk56ZlUFeH3/nKGZMJy8GzPQM0iOAEwzTaGGv
c6/2cgSrQaICr5W1EX4FCX6o3ubrjXfT5o3bG3K4NvKm9XlruI83dgSBslxir7iB
kyyZvkwr7VWsR39KXxDS9ibC+efM4bgrPJJ8WrySw6ZadRRSlm8sKt19nI4p6yIx
7H3y+wIDAQABo4IBazCCAWcwCQYDVR0TBAIwADAtBglghkgBhvhCAQ0EIBYeRWFz
eS1SU0EgR2VuZXJhdGVkIENlcnRpZmljYXRlMB0GA1UdDgQWBBRzrWfcZ4oOjU/n
5D+BaaZto7x3+jCB6QYDVR0jBIHhMIHegBTvOI0UUFinW02cF3L837msp1GwEKGB
uqSBtzCBtDELMAkGA1UEBhMCVVMxCzAJBgNVBAgTAkNBMRUwEwYDVQQHEwxTYW5G
cmFuY2lzY28xFTATBgNVBAoTDFBpeGdsbywgSW5jLjEQMA4GA1UECxMHVlBOLUNJ
RTEaMBgGA1UEAxMRdHVubmVsLnBpeGdsby5jb20xHDAaBgNVBCkTE0JhbGEgQ2hh
bmRyYXNla2FyYW4xHjAcBgkqhkiG9w0BCQEWD2JhbGFAcGl4Z2xvLmNvbYIJAKbb
xoOA5qB5MBMGA1UdJQQMMAoGCCsGAQUFBwMCMAsGA1UdDwQEAwIHgDANBgkqhkiG
9w0BAQUFAAOCAgEApnx2iWUtOdXAyUEh5g6OcNMQuZyPwEa6CFfiiXG5F3ZSd2bV
jQyWPG8Tj9FCiPg3pMnVsHD7y6Uw8kSo7IR340MfYKFM2cB5R0oNAYWTt5Bvm4di
sUBL7A2pigxpHd54Cn1nPMka+R0xkiQTjjkr7QK22l7oQvMSxAK1+SejYjtqNZ4N
GH9U+l08idt3Js6G5p2YGYj2oshS1wAuwvaanPU3oOIzv5K2KfzbphSOwXynFuqB
lQELuKrHLW0eEMi3Ws+3hlnZj7fKB1Eh3719Yg4kchdgGpU9p5GnLRtLGLbwBfKj
ClSyOawD12lfwt8rOAfL6hsqAuD7c81wUa/IfG+819Rq3kNQZyifAEBst7aTx100
4cjVK6DYltR0lMen7jeqsf+rywars5nI8nZx9jsxTm6+P+CzVCUR76osHy2vGjcR
/NEQdKURtFZlOFz+A9HFfbGRSLaDyq5Zq9YpLkq3nUVJZhBJxBqdji+FL74vLCbw
QPq/sn3/gZP2L7uodsqHpndZsH9sGxzNJxjTbo/S0xjnxhla3jFySNSsqZHuFJdq
F95mG7jSuqFxMQEbyEMF9dZ9j6bBfj0knyjtBnbXBG3Gm4RoUk/N9PbXDydnXUMi
yVMAQJ+ru8dieNSNdnMNzDXU3PH/xNMh50mewPYmkYcrESZtLfJ1CBIMdGM=
-----END CERTIFICATE-----
