Certificate:
    Data:
        Version: 3 (0x2)
        Serial Number: 870 (0x366)
    Signature Algorithm: sha1WithRSAEncryption
        Issuer: C=US, ST=CA, L=SanFrancisco, O=Pixglo, Inc., OU=VPN-CIE, CN=tunnel.pixglo.com/name=Bala Chandrasekaran/emailAddress=bala@pixglo.com
        Validity
            Not Before: Feb 14 06:46:19 2018 GMT
            Not After : Feb 12 06:46:19 2028 GMT
        Subject: C=US, ST=CA, L=SanFrancisco, O=Pixglo, Inc., OU=VPN-CIE, CN=cie869/name=Bala Chandrasekaran/emailAddress=bala@pixglo.com
        Subject Public Key Info:
            Public Key Algorithm: rsaEncryption
                Public-Key: (4096 bit)
                Modulus:
                    00:c8:03:a0:a8:a1:a6:f5:b6:49:b8:29:dd:ff:fd:
                    d5:49:06:87:2f:a6:98:22:0a:77:9c:55:0b:f8:21:
                    4e:a8:17:77:b5:dd:03:56:47:a9:3b:e3:e6:8b:80:
                    2e:97:cb:29:e0:4b:ee:b2:76:19:08:25:af:f7:3a:
                    bf:e4:c9:62:50:fe:e3:d0:5c:11:d9:8c:26:e3:96:
                    21:85:4b:26:01:1d:eb:e7:a2:9c:b7:01:f4:e1:09:
                    2d:3b:0c:fe:b2:a7:85:4d:db:24:c4:09:eb:79:9f:
                    2c:12:e6:6e:97:b0:3c:05:aa:1f:4f:74:e5:3c:b9:
                    63:1f:a1:b5:65:b3:08:69:fd:c7:8f:8d:e1:a7:73:
                    f7:34:20:06:00:90:02:a2:22:88:f0:ab:97:1a:b3:
                    66:a7:8b:fb:86:c3:cb:6c:0a:3b:15:c1:2f:d3:40:
                    be:16:49:c0:0d:b7:4d:c3:6d:ee:84:ae:3f:8a:2c:
                    42:23:ae:8e:2e:86:22:73:92:59:8f:e6:8a:b1:f2:
                    e7:4f:53:b4:66:18:70:23:59:55:c8:a4:02:58:b8:
                    93:05:c7:18:15:a7:10:46:0a:e1:89:c6:ab:0e:a7:
                    9f:3a:62:8f:12:fc:a4:cb:f4:72:b4:df:4d:93:ca:
                    ad:52:09:43:d0:7e:aa:1d:d5:94:bf:fd:83:e0:50:
                    ec:7f:ed:56:44:1d:72:48:27:a9:6f:6b:1c:84:c2:
                    04:e3:03:33:34:76:e5:c1:95:78:d8:be:90:98:41:
                    3f:50:ef:bc:e3:44:c4:a3:21:a2:0b:01:c0:67:64:
                    e1:5d:72:bc:f4:7f:44:b4:c2:28:aa:57:b0:98:e0:
                    7f:67:81:d7:ff:df:7e:ba:7c:66:32:72:f2:25:e5:
                    0c:27:39:87:2d:b5:b5:12:ce:36:ed:09:d2:68:02:
                    b8:12:4d:87:98:06:83:91:e9:dc:83:b3:12:58:a9:
                    28:28:91:a1:99:4d:4d:92:8d:5c:67:56:4b:8f:94:
                    f0:92:5f:fa:00:ea:b8:eb:23:89:62:9f:86:cd:18:
                    e5:f0:2f:cc:52:dd:08:81:6b:ce:1e:27:6c:24:39:
                    6e:3e:0e:da:82:a5:55:87:7c:24:21:b9:0e:e8:12:
                    47:fe:99:7b:0a:d8:4e:92:f6:1a:b2:04:82:5a:a8:
                    30:71:7e:c6:20:ed:48:e4:81:ea:d0:e6:0c:a2:11:
                    8e:46:8b:0e:43:fc:4f:1d:9d:91:85:e6:68:d8:58:
                    8f:ae:48:ac:b8:87:bb:c6:0f:36:d9:86:27:d5:bd:
                    75:0a:6f:73:2e:6e:a9:41:4b:4e:d6:10:30:81:0d:
                    5a:34:d0:00:4f:56:cb:20:0a:cd:51:9b:a0:18:13:
                    1d:c8:d3
                Exponent: 65537 (0x10001)
        X509v3 extensions:
            X509v3 Basic Constraints: 
                CA:FALSE
            Netscape Comment: 
                Easy-RSA Generated Certificate
            X509v3 Subject Key Identifier: 
                14:4C:F6:F5:E9:65:0C:E8:97:1E:9A:F2:5E:2C:11:0C:9C:BE:48:58
            X509v3 Authority Key Identifier: 
                keyid:EF:38:8D:14:50:58:A7:5B:4D:9C:17:72:FC:DF:B9:AC:A7:51:B0:10
                DirName:/C=US/ST=CA/L=SanFrancisco/O=Pixglo, Inc./OU=VPN-CIE/CN=tunnel.pixglo.com/name=Bala Chandrasekaran/emailAddress=bala@pixglo.com
                serial:A6:DB:C6:83:80:E6:A0:79

            X509v3 Extended Key Usage: 
                TLS Web Client Authentication
            X509v3 Key Usage: 
                Digital Signature
    Signature Algorithm: sha1WithRSAEncryption
         6d:89:8e:04:ae:11:16:16:af:b1:58:79:ef:1e:0e:9c:36:51:
         b9:37:d8:74:a3:ec:1d:59:77:59:69:37:fa:47:46:85:82:d6:
         12:07:b9:b7:8c:de:37:70:70:5c:65:2e:05:45:f5:b2:c3:1a:
         55:9d:62:ca:41:aa:a8:ba:dd:1e:ad:3a:49:94:71:71:56:47:
         c2:94:38:08:2c:7e:a5:e0:9d:1a:69:20:a7:86:bf:8e:15:76:
         14:47:7a:79:d0:32:7b:1b:2a:62:6a:8a:5e:a8:81:05:e6:7e:
         b7:11:dd:56:74:8e:54:02:55:ab:b9:16:72:f7:ec:2e:38:d6:
         36:5d:82:91:fd:dc:ab:a4:2d:66:4d:93:3e:e5:6e:94:36:20:
         e7:2b:c9:ba:b6:d8:08:f4:9a:7a:c9:2c:2e:cd:e3:ce:e9:0b:
         f4:a3:37:f1:16:c9:a6:20:8d:72:85:1a:3c:3d:9c:b9:34:1e:
         c1:dd:66:26:04:62:a9:23:94:58:a5:87:9a:42:39:b5:e8:96:
         d1:5b:0d:c3:bb:4f:f2:5e:fd:90:42:b2:82:1e:c8:29:18:45:
         36:95:b4:2e:85:d1:e0:82:1b:b0:11:5a:78:63:3c:6d:bc:55:
         88:45:51:c9:ab:0e:ad:14:40:89:02:b1:9b:23:ca:50:0c:d1:
         67:1c:ca:af:ff:73:65:dd:27:96:72:6d:60:c8:3a:d6:b2:a1:
         be:37:c9:38:cc:b8:d9:b8:bd:a0:7e:91:c1:97:c3:33:3c:28:
         ad:40:cc:6d:fa:e3:3a:9f:82:32:53:d8:dc:7e:94:09:6e:c0:
         a8:b5:de:bd:18:62:74:20:80:8e:ca:4d:96:69:c4:58:16:e2:
         21:46:bc:f2:cd:ea:83:dc:da:77:cb:34:b2:09:c8:ad:b5:d9:
         3e:a6:e4:37:a7:37:57:45:53:e2:55:eb:a5:15:f7:cf:de:3b:
         a7:48:cb:08:b0:10:af:2c:27:bf:ba:72:bc:12:fa:8f:05:0b:
         e8:58:ee:bb:7b:90:c6:2b:3b:cc:4e:4e:66:b0:5b:59:e8:fd:
         5a:d7:e3:8e:95:d3:29:8a:4c:29:63:82:99:76:7e:70:fe:43:
         28:c5:9c:be:f0:b4:8c:b8:ae:d7:92:92:dc:aa:4a:28:ca:c0:
         79:e7:29:d7:57:0a:61:3c:cb:b8:92:bd:5a:44:5e:1e:5c:41:
         22:21:f1:d6:f9:fe:bf:49:bb:62:69:f8:64:de:0f:8b:77:db:
         17:4d:7e:19:ae:3b:2f:cd:54:45:32:b2:81:7d:22:9a:81:9d:
         77:de:f3:61:0d:03:06:03:d6:3f:20:6a:c3:94:bc:0d:dc:0d:
         b5:ca:07:9d:b1:61:5b:8c
-----BEGIN CERTIFICATE-----
MIIHSDCCBTCgAwIBAgICA2YwDQYJKoZIhvcNAQEFBQAwgbQxCzAJBgNVBAYTAlVT
MQswCQYDVQQIEwJDQTEVMBMGA1UEBxMMU2FuRnJhbmNpc2NvMRUwEwYDVQQKEwxQ
aXhnbG8sIEluYy4xEDAOBgNVBAsTB1ZQTi1DSUUxGjAYBgNVBAMTEXR1bm5lbC5w
aXhnbG8uY29tMRwwGgYDVQQpExNCYWxhIENoYW5kcmFzZWthcmFuMR4wHAYJKoZI
hvcNAQkBFg9iYWxhQHBpeGdsby5jb20wHhcNMTgwMjE0MDY0NjE5WhcNMjgwMjEy
MDY0NjE5WjCBqTELMAkGA1UEBhMCVVMxCzAJBgNVBAgTAkNBMRUwEwYDVQQHEwxT
YW5GcmFuY2lzY28xFTATBgNVBAoTDFBpeGdsbywgSW5jLjEQMA4GA1UECxMHVlBO
LUNJRTEPMA0GA1UEAxMGY2llODY5MRwwGgYDVQQpExNCYWxhIENoYW5kcmFzZWth
cmFuMR4wHAYJKoZIhvcNAQkBFg9iYWxhQHBpeGdsby5jb20wggIiMA0GCSqGSIb3
DQEBAQUAA4ICDwAwggIKAoICAQDIA6Cooab1tkm4Kd3//dVJBocvppgiCnecVQv4
IU6oF3e13QNWR6k74+aLgC6XyyngS+6ydhkIJa/3Or/kyWJQ/uPQXBHZjCbjliGF
SyYBHevnopy3AfThCS07DP6yp4VN2yTECet5nywS5m6XsDwFqh9PdOU8uWMfobVl
swhp/cePjeGnc/c0IAYAkAKiIojwq5cas2ani/uGw8tsCjsVwS/TQL4WScANt03D
be6Erj+KLEIjro4uhiJzklmP5oqx8udPU7RmGHAjWVXIpAJYuJMFxxgVpxBGCuGJ
xqsOp586Yo8S/KTL9HK0302Tyq1SCUPQfqod1ZS//YPgUOx/7VZEHXJIJ6lvaxyE
wgTjAzM0duXBlXjYvpCYQT9Q77zjRMSjIaILAcBnZOFdcrz0f0S0wiiqV7CY4H9n
gdf/3366fGYycvIl5QwnOYcttbUSzjbtCdJoArgSTYeYBoOR6dyDsxJYqSgokaGZ
TU2SjVxnVkuPlPCSX/oA6rjrI4lin4bNGOXwL8xS3QiBa84eJ2wkOW4+DtqCpVWH
fCQhuQ7oEkf+mXsK2E6S9hqyBIJaqDBxfsYg7UjkgerQ5gyiEY5Giw5D/E8dnZGF
5mjYWI+uSKy4h7vGDzbZhifVvXUKb3MubqlBS07WEDCBDVo00ABPVssgCs1Rm6AY
Ex3I0wIDAQABo4IBazCCAWcwCQYDVR0TBAIwADAtBglghkgBhvhCAQ0EIBYeRWFz
eS1SU0EgR2VuZXJhdGVkIENlcnRpZmljYXRlMB0GA1UdDgQWBBQUTPb16WUM6Jce
mvJeLBEMnL5IWDCB6QYDVR0jBIHhMIHegBTvOI0UUFinW02cF3L837msp1GwEKGB
uqSBtzCBtDELMAkGA1UEBhMCVVMxCzAJBgNVBAgTAkNBMRUwEwYDVQQHEwxTYW5G
cmFuY2lzY28xFTATBgNVBAoTDFBpeGdsbywgSW5jLjEQMA4GA1UECxMHVlBOLUNJ
RTEaMBgGA1UEAxMRdHVubmVsLnBpeGdsby5jb20xHDAaBgNVBCkTE0JhbGEgQ2hh
bmRyYXNla2FyYW4xHjAcBgkqhkiG9w0BCQEWD2JhbGFAcGl4Z2xvLmNvbYIJAKbb
xoOA5qB5MBMGA1UdJQQMMAoGCCsGAQUFBwMCMAsGA1UdDwQEAwIHgDANBgkqhkiG
9w0BAQUFAAOCAgEAbYmOBK4RFhavsVh57x4OnDZRuTfYdKPsHVl3WWk3+kdGhYLW
Ege5t4zeN3BwXGUuBUX1ssMaVZ1iykGqqLrdHq06SZRxcVZHwpQ4CCx+peCdGmkg
p4a/jhV2FEd6edAyexsqYmqKXqiBBeZ+txHdVnSOVAJVq7kWcvfsLjjWNl2Ckf3c
q6QtZk2TPuVulDYg5yvJurbYCPSaesksLs3jzukL9KM38RbJpiCNcoUaPD2cuTQe
wd1mJgRiqSOUWKWHmkI5teiW0VsNw7tP8l79kEKygh7IKRhFNpW0LoXR4IIbsBFa
eGM8bbxViEVRyasOrRRAiQKxmyPKUAzRZxzKr/9zZd0nlnJtYMg61rKhvjfJOMy4
2bi9oH6RwZfDMzworUDMbfrjOp+CMlPY3H6UCW7AqLXevRhidCCAjspNlmnEWBbi
IUa88s3qg9zad8s0sgnIrbXZPqbkN6c3V0VT4lXrpRX3z947p0jLCLAQrywnv7py
vBL6jwUL6Fjuu3uQxis7zE5OZrBbWej9WtfjjpXTKYpMKWOCmXZ+cP5DKMWcvvC0
jLiu15KS3KpKKMrAeecp11cKYTzLuJK9WkReHlxBIiHx1vn+v0m7Ymn4ZN4Pi3fb
F01+Ga47L81URTKygX0imoGdd97zYQ0DBgPWPyBqw5S8DdwNtcoHnbFhW4w=
-----END CERTIFICATE-----
