Certificate:
    Data:
        Version: 3 (0x2)
        Serial Number: 872 (0x368)
    Signature Algorithm: sha1WithRSAEncryption
        Issuer: C=US, ST=CA, L=SanFrancisco, O=Pixglo, Inc., OU=VPN-CIE, CN=tunnel.pixglo.com/name=Bala Chandrasekaran/emailAddress=bala@pixglo.com
        Validity
            Not Before: Feb 14 06:46:22 2018 GMT
            Not After : Feb 12 06:46:22 2028 GMT
        Subject: C=US, ST=CA, L=SanFrancisco, O=Pixglo, Inc., OU=VPN-CIE, CN=cie871/name=Bala Chandrasekaran/emailAddress=bala@pixglo.com
        Subject Public Key Info:
            Public Key Algorithm: rsaEncryption
                Public-Key: (4096 bit)
                Modulus:
                    00:b5:bf:79:63:46:35:f7:24:c1:e9:51:27:a1:57:
                    42:fe:34:a6:2a:3b:5a:09:3c:73:08:20:a1:a2:a4:
                    a9:06:d5:99:ee:32:f6:4f:2b:a2:55:9e:17:1d:b1:
                    b4:b2:59:37:61:a3:42:9d:69:1c:eb:4e:eb:46:7f:
                    22:de:51:09:6e:40:5f:10:01:c7:a7:fc:65:f6:bd:
                    1f:a3:e2:1f:a6:e4:f2:53:f4:cf:ef:29:bc:c5:d1:
                    0d:b3:8b:59:26:7d:bd:a8:3c:fa:82:70:e6:98:84:
                    0b:bc:21:f8:27:55:49:77:bd:0a:59:2a:73:c0:25:
                    26:3c:c2:a5:06:ad:c2:ab:34:ce:49:b8:4d:75:97:
                    f2:3e:77:7e:5f:7b:4f:09:a4:8d:35:a7:fe:44:e8:
                    a7:7b:14:cf:60:38:01:97:0a:de:23:87:6b:5e:ca:
                    50:11:7d:72:bf:fd:80:14:a6:71:88:a2:7e:a3:75:
                    25:86:19:be:65:7d:f9:88:47:bc:db:84:43:65:51:
                    a7:5f:37:0b:3a:f9:6f:e3:0a:a7:f9:a0:8a:e4:d5:
                    19:56:96:b1:75:91:65:7f:d7:5c:11:66:af:23:1b:
                    5d:ae:0f:36:62:a8:15:a3:4d:05:02:f7:3d:3e:82:
                    90:5b:b1:d8:6d:03:39:b1:cb:9b:f2:98:74:49:fe:
                    4e:dc:df:17:59:dc:e2:bc:1c:27:ad:13:e2:d8:bc:
                    b9:00:4d:cd:8e:de:f6:10:04:91:50:ea:57:fd:2f:
                    10:cf:36:17:00:23:37:c3:e5:64:df:e2:f2:d0:14:
                    f2:15:06:0d:66:81:98:89:d7:3d:9f:9e:81:aa:a8:
                    e4:ae:84:d5:ce:cd:b4:71:50:bc:80:36:53:25:f4:
                    af:2e:72:1a:94:8f:b3:3c:90:d0:e9:02:23:be:eb:
                    51:1b:dc:b2:20:04:16:65:9c:e2:d2:88:75:47:0e:
                    04:1f:bf:0f:a7:78:cf:ea:f4:7e:6f:2a:97:0a:2e:
                    b0:16:fb:44:1e:69:66:ae:3f:ec:2e:83:36:dd:26:
                    12:65:5e:cb:1d:5b:b3:6b:cc:93:e0:fd:68:30:de:
                    ea:dd:3f:07:a1:05:dc:15:27:95:55:e7:06:cb:fe:
                    a7:bc:88:4a:28:44:9a:dc:de:05:c2:d9:87:59:7e:
                    60:4b:2b:34:a8:ef:4f:df:a2:c8:25:d2:3a:fa:77:
                    3d:60:fd:e1:3f:a7:18:15:81:be:57:b6:9a:09:d0:
                    a5:61:64:80:b4:9e:7d:1e:a6:67:38:30:8a:a5:b7:
                    28:e3:fa:2e:48:b9:67:f1:ee:60:80:0b:2d:74:08:
                    2d:cf:27:ea:6a:a1:1b:5b:ce:82:d5:c8:13:6a:4f:
                    91:17:1b
                Exponent: 65537 (0x10001)
        X509v3 extensions:
            X509v3 Basic Constraints: 
                CA:FALSE
            Netscape Comment: 
                Easy-RSA Generated Certificate
            X509v3 Subject Key Identifier: 
                42:D8:F6:30:EA:3E:52:58:ED:60:FF:21:44:32:2D:55:4F:F5:2A:34
            X509v3 Authority Key Identifier: 
                keyid:EF:38:8D:14:50:58:A7:5B:4D:9C:17:72:FC:DF:B9:AC:A7:51:B0:10
                DirName:/C=US/ST=CA/L=SanFrancisco/O=Pixglo, Inc./OU=VPN-CIE/CN=tunnel.pixglo.com/name=Bala Chandrasekaran/emailAddress=bala@pixglo.com
                serial:A6:DB:C6:83:80:E6:A0:79

            X509v3 Extended Key Usage: 
                TLS Web Client Authentication
            X509v3 Key Usage: 
                Digital Signature
    Signature Algorithm: sha1WithRSAEncryption
         2d:bc:74:90:8c:1a:73:45:52:2d:42:7e:a1:aa:c9:a6:70:ba:
         b9:93:30:9c:04:dc:7d:05:08:32:13:aa:ff:b0:e0:b0:f0:c2:
         a3:47:02:f9:7f:65:f0:8b:10:c6:cc:02:45:83:c2:99:f9:cb:
         17:0a:5c:70:9f:58:ad:6d:ac:ba:12:cd:a0:c6:9e:59:60:e0:
         98:76:1e:98:63:26:bd:d3:b5:3a:a3:3f:0f:61:d3:62:43:84:
         26:34:6d:54:da:4c:9b:b1:ab:a4:00:83:2d:81:e6:5f:87:79:
         ad:65:9f:e1:2f:02:a5:98:a2:fb:33:49:98:f1:6b:cc:79:15:
         4b:36:d4:7d:dd:b9:d3:56:8a:49:36:60:c2:0e:ce:97:6f:a6:
         21:68:21:13:6f:66:d7:63:fc:41:84:3c:a2:f7:b2:b8:c6:56:
         29:cd:b9:53:d3:9d:2f:da:f6:83:96:f8:19:10:ed:e3:75:a2:
         e5:15:df:f3:a2:52:48:0b:58:4a:4d:51:bb:13:5d:f8:28:03:
         f2:94:91:5a:40:ae:57:49:db:d3:58:4c:ad:41:0f:e3:48:ef:
         34:41:bb:a5:87:ed:91:5b:87:2f:7f:41:5d:32:34:60:4f:c3:
         e1:06:5d:cf:88:c7:9a:a4:50:96:87:60:73:ad:6b:6e:b4:9f:
         11:36:eb:14:1d:f2:c3:14:f1:cd:67:28:ca:66:bd:ae:0b:4f:
         21:aa:14:52:0c:74:54:78:ee:22:f9:3c:14:c2:0b:71:ea:b9:
         89:0a:2b:d3:bb:bc:ee:50:e1:0e:b5:24:dc:0f:9a:7c:e6:c0:
         21:34:48:18:5a:11:31:6d:f6:cf:39:de:48:d7:cd:8a:5a:14:
         f3:c8:6e:dc:1f:c5:39:f1:80:d0:54:e8:e2:c0:e4:82:40:b3:
         98:7f:d2:e3:5e:e0:b9:33:6b:c7:cf:14:74:22:fe:3a:d5:02:
         ca:50:be:52:eb:7f:3b:99:f3:54:83:ad:a3:78:3a:88:52:81:
         e7:89:4c:8b:f7:ad:c0:2d:aa:9e:8a:57:c3:ae:0d:2f:61:17:
         cc:47:5d:b6:4f:8a:a6:36:6e:d1:78:1e:ad:bf:01:6c:17:d0:
         4a:2b:32:9d:a2:99:ff:fd:c5:05:cd:90:3a:bf:46:2c:fb:27:
         dd:b3:51:bc:aa:7f:de:5b:6f:91:a0:58:a8:60:71:e8:c4:86:
         ca:16:6a:03:99:56:4d:ac:6f:9b:a4:d1:53:46:06:53:70:25:
         c9:5f:03:57:95:9c:8b:90:9b:64:09:1d:06:4c:6c:64:a2:b2:
         ca:75:0b:80:13:6e:b2:9e:7d:80:96:7d:11:13:41:e0:a9:42:
         dd:15:35:72:61:0c:ce:97
-----BEGIN CERTIFICATE-----
MIIHSDCCBTCgAwIBAgICA2gwDQYJKoZIhvcNAQEFBQAwgbQxCzAJBgNVBAYTAlVT
MQswCQYDVQQIEwJDQTEVMBMGA1UEBxMMU2FuRnJhbmNpc2NvMRUwEwYDVQQKEwxQ
aXhnbG8sIEluYy4xEDAOBgNVBAsTB1ZQTi1DSUUxGjAYBgNVBAMTEXR1bm5lbC5w
aXhnbG8uY29tMRwwGgYDVQQpExNCYWxhIENoYW5kcmFzZWthcmFuMR4wHAYJKoZI
hvcNAQkBFg9iYWxhQHBpeGdsby5jb20wHhcNMTgwMjE0MDY0NjIyWhcNMjgwMjEy
MDY0NjIyWjCBqTELMAkGA1UEBhMCVVMxCzAJBgNVBAgTAkNBMRUwEwYDVQQHEwxT
YW5GcmFuY2lzY28xFTATBgNVBAoTDFBpeGdsbywgSW5jLjEQMA4GA1UECxMHVlBO
LUNJRTEPMA0GA1UEAxMGY2llODcxMRwwGgYDVQQpExNCYWxhIENoYW5kcmFzZWth
cmFuMR4wHAYJKoZIhvcNAQkBFg9iYWxhQHBpeGdsby5jb20wggIiMA0GCSqGSIb3
DQEBAQUAA4ICDwAwggIKAoICAQC1v3ljRjX3JMHpUSehV0L+NKYqO1oJPHMIIKGi
pKkG1ZnuMvZPK6JVnhcdsbSyWTdho0KdaRzrTutGfyLeUQluQF8QAcen/GX2vR+j
4h+m5PJT9M/vKbzF0Q2zi1kmfb2oPPqCcOaYhAu8IfgnVUl3vQpZKnPAJSY8wqUG
rcKrNM5JuE11l/I+d35fe08JpI01p/5E6Kd7FM9gOAGXCt4jh2teylARfXK//YAU
pnGIon6jdSWGGb5lffmIR7zbhENlUadfNws6+W/jCqf5oIrk1RlWlrF1kWV/11wR
Zq8jG12uDzZiqBWjTQUC9z0+gpBbsdhtAzmxy5vymHRJ/k7c3xdZ3OK8HCetE+LY
vLkATc2O3vYQBJFQ6lf9LxDPNhcAIzfD5WTf4vLQFPIVBg1mgZiJ1z2fnoGqqOSu
hNXOzbRxULyANlMl9K8uchqUj7M8kNDpAiO+61Eb3LIgBBZlnOLSiHVHDgQfvw+n
eM/q9H5vKpcKLrAW+0QeaWauP+wugzbdJhJlXssdW7NrzJPg/Wgw3urdPwehBdwV
J5VV5wbL/qe8iEooRJrc3gXC2YdZfmBLKzSo70/fosgl0jr6dz1g/eE/pxgVgb5X
tpoJ0KVhZIC0nn0epmc4MIqltyjj+i5IuWfx7mCACy10CC3PJ+pqoRtbzoLVyBNq
T5EXGwIDAQABo4IBazCCAWcwCQYDVR0TBAIwADAtBglghkgBhvhCAQ0EIBYeRWFz
eS1SU0EgR2VuZXJhdGVkIENlcnRpZmljYXRlMB0GA1UdDgQWBBRC2PYw6j5SWO1g
/yFEMi1VT/UqNDCB6QYDVR0jBIHhMIHegBTvOI0UUFinW02cF3L837msp1GwEKGB
uqSBtzCBtDELMAkGA1UEBhMCVVMxCzAJBgNVBAgTAkNBMRUwEwYDVQQHEwxTYW5G
cmFuY2lzY28xFTATBgNVBAoTDFBpeGdsbywgSW5jLjEQMA4GA1UECxMHVlBOLUNJ
RTEaMBgGA1UEAxMRdHVubmVsLnBpeGdsby5jb20xHDAaBgNVBCkTE0JhbGEgQ2hh
bmRyYXNla2FyYW4xHjAcBgkqhkiG9w0BCQEWD2JhbGFAcGl4Z2xvLmNvbYIJAKbb
xoOA5qB5MBMGA1UdJQQMMAoGCCsGAQUFBwMCMAsGA1UdDwQEAwIHgDANBgkqhkiG
9w0BAQUFAAOCAgEALbx0kIwac0VSLUJ+oarJpnC6uZMwnATcfQUIMhOq/7DgsPDC
o0cC+X9l8IsQxswCRYPCmfnLFwpccJ9YrW2suhLNoMaeWWDgmHYemGMmvdO1OqM/
D2HTYkOEJjRtVNpMm7GrpACDLYHmX4d5rWWf4S8CpZii+zNJmPFrzHkVSzbUfd25
01aKSTZgwg7Ol2+mIWghE29m12P8QYQ8oveyuMZWKc25U9OdL9r2g5b4GRDt43Wi
5RXf86JSSAtYSk1RuxNd+CgD8pSRWkCuV0nb01hMrUEP40jvNEG7pYftkVuHL39B
XTI0YE/D4QZdz4jHmqRQlodgc61rbrSfETbrFB3ywxTxzWcoyma9rgtPIaoUUgx0
VHjuIvk8FMILceq5iQor07u87lDhDrUk3A+afObAITRIGFoRMW32zzneSNfNiloU
88hu3B/FOfGA0FTo4sDkgkCzmH/S417guTNrx88UdCL+OtUCylC+Uut/O5nzVIOt
o3g6iFKB54lMi/etwC2qnopXw64NL2EXzEddtk+KpjZu0Xgerb8BbBfQSisynaKZ
//3FBc2QOr9GLPsn3bNRvKp/3ltvkaBYqGBx6MSGyhZqA5lWTaxvm6TRU0YGU3Al
yV8DV5Wci5CbZAkdBkxsZKKyynULgBNusp59gJZ9ERNB4KlC3RU1cmEMzpc=
-----END CERTIFICATE-----
