Certificate:
    Data:
        Version: 3 (0x2)
        Serial Number: 874 (0x36a)
    Signature Algorithm: sha1WithRSAEncryption
        Issuer: C=US, ST=CA, L=SanFrancisco, O=Pixglo, Inc., OU=VPN-CIE, CN=tunnel.pixglo.com/name=Bala Chandrasekaran/emailAddress=bala@pixglo.com
        Validity
            Not Before: Feb 14 06:46:25 2018 GMT
            Not After : Feb 12 06:46:25 2028 GMT
        Subject: C=US, ST=CA, L=SanFrancisco, O=Pixglo, Inc., OU=VPN-CIE, CN=cie873/name=Bala Chandrasekaran/emailAddress=bala@pixglo.com
        Subject Public Key Info:
            Public Key Algorithm: rsaEncryption
                Public-Key: (4096 bit)
                Modulus:
                    00:da:ee:68:b0:a5:43:cb:43:39:a3:3c:b1:bc:a5:
                    af:a1:85:f3:7f:7b:08:dd:83:4b:29:52:f8:51:96:
                    1e:9f:fc:3c:2d:8d:83:2a:68:41:bb:cb:31:2c:cc:
                    78:f4:47:d9:4b:9a:28:e5:d6:9f:76:76:bb:fc:a1:
                    b9:57:3f:8f:2b:c4:23:23:c8:e3:65:2e:a5:16:e2:
                    e1:4b:26:30:af:44:ea:59:c1:82:ec:fb:8f:52:89:
                    b5:63:45:38:a8:75:c1:41:53:3f:d7:c3:7a:78:59:
                    57:b8:19:de:48:be:eb:fd:db:46:5c:cf:84:f4:b6:
                    a0:a0:4c:b8:b8:c6:70:ca:d2:db:3a:dd:4b:ff:85:
                    12:11:44:e2:89:86:f3:6e:3d:ba:ab:b1:16:ec:73:
                    15:41:74:f3:f5:14:ad:4d:0f:de:34:51:0f:8b:51:
                    ce:ab:fb:b3:a6:9d:63:35:10:bd:e7:93:02:de:39:
                    70:0b:29:ea:c4:91:7d:c1:e8:cb:2a:27:d3:12:d8:
                    ab:fe:71:cf:ce:33:db:40:bd:ee:94:ea:99:a3:56:
                    a4:66:36:68:49:05:3f:ed:c6:96:d9:a6:3f:d3:a4:
                    73:fd:c3:e8:7e:72:bc:5b:39:a7:8d:7e:a3:11:96:
                    89:e8:f1:8a:a7:cd:7c:9e:ca:b5:2d:d4:0b:60:1a:
                    76:30:56:ff:e8:7a:d8:06:6c:36:41:2f:97:00:a5:
                    bf:be:6d:fb:49:90:1c:14:8f:95:c2:da:f0:0d:5b:
                    95:21:e1:a7:bd:bd:2f:c1:7f:39:87:8c:70:e3:f1:
                    40:f0:91:aa:ca:28:98:64:fb:17:97:dd:6e:f1:50:
                    c7:26:90:8c:00:4d:47:6b:76:7d:2a:00:62:2f:b4:
                    7a:be:6e:46:5a:80:09:56:06:07:27:54:6c:f9:4e:
                    9c:ea:bf:e8:9c:08:7f:0a:4d:ab:c3:7d:f5:6f:98:
                    ab:ad:9a:5f:73:39:35:35:f6:07:b7:cc:68:9c:bf:
                    02:e8:79:bf:f4:a0:20:1f:5a:ce:58:12:87:1a:48:
                    0f:3c:de:fe:5c:6f:0f:09:88:34:b5:30:68:91:d8:
                    dd:41:93:c5:41:de:7f:d7:f5:a0:f8:11:dd:65:16:
                    ed:69:da:7b:c5:32:09:be:70:c4:72:a3:e0:41:da:
                    6f:14:7c:69:92:60:0f:f9:2c:4f:e0:c2:97:6f:b2:
                    f5:ae:a8:2f:61:92:84:aa:8c:8f:ad:da:df:bb:f1:
                    f0:d3:dd:e3:61:0f:6d:38:67:09:3c:9e:85:41:4a:
                    9d:39:bc:a7:98:2b:b9:25:b6:5d:16:32:50:6f:ad:
                    db:53:69:98:ba:2a:c2:ce:5c:47:c2:3c:93:35:4a:
                    09:82:a1
                Exponent: 65537 (0x10001)
        X509v3 extensions:
            X509v3 Basic Constraints: 
                CA:FALSE
            Netscape Comment: 
                Easy-RSA Generated Certificate
            X509v3 Subject Key Identifier: 
                CC:A8:3D:D7:55:6A:8A:D9:DF:89:51:02:7C:C6:A2:4F:FB:00:F0:C6
            X509v3 Authority Key Identifier: 
                keyid:EF:38:8D:14:50:58:A7:5B:4D:9C:17:72:FC:DF:B9:AC:A7:51:B0:10
                DirName:/C=US/ST=CA/L=SanFrancisco/O=Pixglo, Inc./OU=VPN-CIE/CN=tunnel.pixglo.com/name=Bala Chandrasekaran/emailAddress=bala@pixglo.com
                serial:A6:DB:C6:83:80:E6:A0:79

            X509v3 Extended Key Usage: 
                TLS Web Client Authentication
            X509v3 Key Usage: 
                Digital Signature
    Signature Algorithm: sha1WithRSAEncryption
         ca:8c:f8:11:0e:52:f0:8e:6f:84:fc:21:bd:a2:f0:25:4e:f9:
         a3:8b:ba:d5:ae:58:80:fb:37:f7:3e:52:c8:bb:07:fb:4b:b0:
         b4:64:04:d1:d8:38:9f:42:f5:bc:f2:56:c6:14:68:ad:22:a8:
         70:e1:86:1e:63:a3:f0:0a:c8:c5:f2:2c:da:11:8e:4f:cb:99:
         a4:a1:ef:fe:2d:1a:94:5d:53:16:97:e4:5f:dd:14:54:70:df:
         6d:ae:b8:32:ca:b8:97:7c:b5:1b:17:78:09:59:21:be:44:24:
         f3:6e:a8:0c:f8:c4:63:61:d6:6b:5b:2d:26:16:4b:78:21:35:
         ce:52:a5:83:b3:01:37:2f:e9:81:15:b3:04:38:29:6a:0f:00:
         06:da:e9:00:15:4b:bf:31:24:7e:f9:7d:f5:68:b7:5d:63:79:
         1a:44:14:10:22:bd:6d:1e:c9:e3:e1:46:86:0f:6b:68:92:55:
         22:d6:2e:b4:6e:24:97:3a:ad:98:bb:be:da:c6:75:5e:a7:c0:
         f5:63:f8:2f:fc:f4:c1:7a:43:a7:8a:23:8e:0b:40:8e:89:d1:
         88:cb:ad:92:44:df:27:0b:a7:29:06:c0:06:c9:f2:e4:a0:7e:
         a0:85:bb:ff:21:ff:aa:43:28:e0:62:45:39:12:21:5f:55:61:
         f9:c3:95:c6:59:19:84:ea:72:fb:db:e6:1d:19:e7:6d:56:83:
         01:32:b3:aa:d6:dd:99:0d:24:2a:d3:88:b0:28:95:55:24:b3:
         e5:38:8e:d0:b3:e7:6a:22:b6:8f:09:48:a7:73:28:8e:df:fb:
         57:8f:b3:1d:ae:bd:ad:37:ac:e9:c1:ff:12:28:50:a6:59:7b:
         4f:87:d2:7c:b0:41:b4:90:d5:bc:35:21:e2:99:fa:14:86:6a:
         51:71:71:5f:83:0a:ac:4e:9a:86:be:d0:66:51:f6:35:e8:45:
         16:63:10:12:12:c9:e7:56:1c:0b:4d:ba:ad:a9:20:70:60:96:
         23:e9:6e:15:d2:8b:c4:a5:f6:ec:c6:11:b2:35:fc:9f:04:f4:
         66:4b:e2:cd:43:2a:85:ef:93:57:ce:e0:3f:e6:30:64:d2:96:
         b4:75:5e:fe:34:75:27:5c:d7:47:b4:c6:7b:be:5f:2a:1a:f4:
         c6:b6:34:c0:ac:0c:70:e4:02:a9:4f:31:a4:39:67:c2:40:cb:
         c8:a9:ee:70:4c:af:cb:65:f6:20:e6:be:60:0b:67:f7:ae:da:
         91:a8:75:29:4d:18:73:a3:be:ca:90:de:36:6e:41:6a:2a:ad:
         e1:77:af:8c:6c:77:56:85:86:78:95:23:f0:3c:10:5f:0a:dd:
         24:ff:70:48:45:36:36:ae
-----BEGIN CERTIFICATE-----
MIIHSDCCBTCgAwIBAgICA2owDQYJKoZIhvcNAQEFBQAwgbQxCzAJBgNVBAYTAlVT
MQswCQYDVQQIEwJDQTEVMBMGA1UEBxMMU2FuRnJhbmNpc2NvMRUwEwYDVQQKEwxQ
aXhnbG8sIEluYy4xEDAOBgNVBAsTB1ZQTi1DSUUxGjAYBgNVBAMTEXR1bm5lbC5w
aXhnbG8uY29tMRwwGgYDVQQpExNCYWxhIENoYW5kcmFzZWthcmFuMR4wHAYJKoZI
hvcNAQkBFg9iYWxhQHBpeGdsby5jb20wHhcNMTgwMjE0MDY0NjI1WhcNMjgwMjEy
MDY0NjI1WjCBqTELMAkGA1UEBhMCVVMxCzAJBgNVBAgTAkNBMRUwEwYDVQQHEwxT
YW5GcmFuY2lzY28xFTATBgNVBAoTDFBpeGdsbywgSW5jLjEQMA4GA1UECxMHVlBO
LUNJRTEPMA0GA1UEAxMGY2llODczMRwwGgYDVQQpExNCYWxhIENoYW5kcmFzZWth
cmFuMR4wHAYJKoZIhvcNAQkBFg9iYWxhQHBpeGdsby5jb20wggIiMA0GCSqGSIb3
DQEBAQUAA4ICDwAwggIKAoICAQDa7miwpUPLQzmjPLG8pa+hhfN/ewjdg0spUvhR
lh6f/DwtjYMqaEG7yzEszHj0R9lLmijl1p92drv8oblXP48rxCMjyONlLqUW4uFL
JjCvROpZwYLs+49SibVjRTiodcFBUz/Xw3p4WVe4Gd5Ivuv920Zcz4T0tqCgTLi4
xnDK0ts63Uv/hRIRROKJhvNuPbqrsRbscxVBdPP1FK1ND940UQ+LUc6r+7OmnWM1
EL3nkwLeOXALKerEkX3B6MsqJ9MS2Kv+cc/OM9tAve6U6pmjVqRmNmhJBT/txpbZ
pj/TpHP9w+h+crxbOaeNfqMRlono8YqnzXyeyrUt1AtgGnYwVv/oetgGbDZBL5cA
pb++bftJkBwUj5XC2vANW5Uh4ae9vS/BfzmHjHDj8UDwkarKKJhk+xeX3W7xUMcm
kIwATUdrdn0qAGIvtHq+bkZagAlWBgcnVGz5Tpzqv+icCH8KTavDffVvmKutml9z
OTU19ge3zGicvwLoeb/0oCAfWs5YEocaSA883v5cbw8JiDS1MGiR2N1Bk8VB3n/X
9aD4Ed1lFu1p2nvFMgm+cMRyo+BB2m8UfGmSYA/5LE/gwpdvsvWuqC9hkoSqjI+t
2t+78fDT3eNhD204Zwk8noVBSp05vKeYK7kltl0WMlBvrdtTaZi6KsLOXEfCPJM1
SgmCoQIDAQABo4IBazCCAWcwCQYDVR0TBAIwADAtBglghkgBhvhCAQ0EIBYeRWFz
eS1SU0EgR2VuZXJhdGVkIENlcnRpZmljYXRlMB0GA1UdDgQWBBTMqD3XVWqK2d+J
UQJ8xqJP+wDwxjCB6QYDVR0jBIHhMIHegBTvOI0UUFinW02cF3L837msp1GwEKGB
uqSBtzCBtDELMAkGA1UEBhMCVVMxCzAJBgNVBAgTAkNBMRUwEwYDVQQHEwxTYW5G
cmFuY2lzY28xFTATBgNVBAoTDFBpeGdsbywgSW5jLjEQMA4GA1UECxMHVlBOLUNJ
RTEaMBgGA1UEAxMRdHVubmVsLnBpeGdsby5jb20xHDAaBgNVBCkTE0JhbGEgQ2hh
bmRyYXNla2FyYW4xHjAcBgkqhkiG9w0BCQEWD2JhbGFAcGl4Z2xvLmNvbYIJAKbb
xoOA5qB5MBMGA1UdJQQMMAoGCCsGAQUFBwMCMAsGA1UdDwQEAwIHgDANBgkqhkiG
9w0BAQUFAAOCAgEAyoz4EQ5S8I5vhPwhvaLwJU75o4u61a5YgPs39z5SyLsH+0uw
tGQE0dg4n0L1vPJWxhRorSKocOGGHmOj8ArIxfIs2hGOT8uZpKHv/i0alF1TFpfk
X90UVHDfba64Msq4l3y1Gxd4CVkhvkQk826oDPjEY2HWa1stJhZLeCE1zlKlg7MB
Ny/pgRWzBDgpag8ABtrpABVLvzEkfvl99Wi3XWN5GkQUECK9bR7J4+FGhg9raJJV
ItYutG4klzqtmLu+2sZ1XqfA9WP4L/z0wXpDp4ojjgtAjonRiMutkkTfJwunKQbA
Bsny5KB+oIW7/yH/qkMo4GJFORIhX1Vh+cOVxlkZhOpy+9vmHRnnbVaDATKzqtbd
mQ0kKtOIsCiVVSSz5TiO0LPnaiK2jwlIp3Mojt/7V4+zHa69rTes6cH/EihQpll7
T4fSfLBBtJDVvDUh4pn6FIZqUXFxX4MKrE6ahr7QZlH2NehFFmMQEhLJ51YcC026
rakgcGCWI+luFdKLxKX27MYRsjX8nwT0ZkvizUMqhe+TV87gP+YwZNKWtHVe/jR1
J1zXR7TGe75fKhr0xrY0wKwMcOQCqU8xpDlnwkDLyKnucEyvy2X2IOa+YAtn967a
kah1KU0Yc6O+ypDeNm5Baiqt4XevjGx3VoWGeJUj8DwQXwrdJP9wSEU2Nq4=
-----END CERTIFICATE-----
