Certificate:
    Data:
        Version: 3 (0x2)
        Serial Number: 875 (0x36b)
    Signature Algorithm: sha1WithRSAEncryption
        Issuer: C=US, ST=CA, L=SanFrancisco, O=Pixglo, Inc., OU=VPN-CIE, CN=tunnel.pixglo.com/name=Bala Chandrasekaran/emailAddress=bala@pixglo.com
        Validity
            Not Before: Feb 14 06:46:26 2018 GMT
            Not After : Feb 12 06:46:26 2028 GMT
        Subject: C=US, ST=CA, L=SanFrancisco, O=Pixglo, Inc., OU=VPN-CIE, CN=cie874/name=Bala Chandrasekaran/emailAddress=bala@pixglo.com
        Subject Public Key Info:
            Public Key Algorithm: rsaEncryption
                Public-Key: (4096 bit)
                Modulus:
                    00:c8:33:f5:d5:38:ff:68:e2:b6:a7:3a:34:ad:80:
                    1b:e5:1b:c7:fe:63:8d:69:be:6c:87:46:18:f6:9a:
                    e3:cf:c1:37:c1:fb:03:1f:0f:1b:10:bc:ae:ff:c8:
                    a3:13:8c:a5:9d:be:e8:69:c0:ca:35:79:21:34:da:
                    d2:c0:99:41:d9:4c:c7:55:b8:12:96:3d:64:ae:e8:
                    43:c2:f5:bb:c0:17:02:1c:76:17:d1:bf:49:fe:8f:
                    eb:df:a1:c5:b5:2e:d9:81:d8:45:5f:d7:f1:f4:06:
                    6b:af:51:3e:ea:ab:13:ef:10:f7:16:49:b6:9b:54:
                    78:c8:f9:19:f8:0f:3c:04:d6:30:72:60:73:07:1d:
                    64:42:b3:c1:7b:b9:6e:ea:92:23:32:7e:85:83:6d:
                    55:e5:0c:62:94:01:66:c6:d2:34:61:98:d7:f3:66:
                    c2:d5:5d:0c:b7:06:21:60:12:50:d0:a8:95:e9:01:
                    ea:03:2d:99:58:bd:1b:9f:b3:64:d6:bf:56:fc:76:
                    2b:51:8b:88:19:07:6b:0a:49:a1:53:f9:a5:bd:bf:
                    39:aa:93:db:e7:11:8b:4a:1b:91:62:e8:35:c4:d7:
                    b8:35:17:01:fb:65:da:69:c2:d3:61:ef:cf:5a:59:
                    cc:7d:35:3e:ee:e4:ad:96:db:82:d7:7c:11:b2:24:
                    e5:df:ca:3f:76:b7:54:43:85:bf:bc:21:5e:4a:a2:
                    95:77:5c:a5:3e:19:c3:cf:7b:f2:b1:e9:81:e7:a9:
                    a5:66:d4:67:75:02:5a:ff:78:9c:65:19:29:2c:22:
                    e0:40:8e:b4:a1:9d:45:c0:80:51:2e:69:c8:8b:bc:
                    be:f6:2e:24:c1:56:ac:71:e6:36:72:92:31:e5:32:
                    cb:19:a6:b7:f1:83:15:0a:1d:0c:d1:0f:d3:dd:d4:
                    c1:85:99:e0:5e:f3:1a:9e:62:87:13:b6:28:7e:81:
                    6a:b3:03:50:85:e7:df:b5:a3:97:f8:9e:a8:71:02:
                    0d:86:4e:52:46:54:48:74:47:4f:e8:c7:11:97:81:
                    e3:c0:46:cb:32:db:5e:e2:03:c8:c2:7b:ba:fd:59:
                    7e:df:31:aa:b2:f8:14:60:0d:62:d8:52:46:4d:a8:
                    6e:39:f6:51:20:56:36:04:34:db:e4:b2:a3:83:13:
                    3c:f7:f8:82:cb:27:07:a8:a5:41:39:03:8c:29:99:
                    11:98:2b:6a:df:b4:d0:84:be:60:c8:6b:e5:20:80:
                    dd:63:75:aa:6a:10:23:87:c9:db:4f:89:2e:d3:02:
                    d4:f9:7a:97:bf:8a:cd:a9:e4:fb:52:66:b7:1f:63:
                    85:cf:df:31:68:85:58:af:b7:2b:a2:78:81:4e:cb:
                    ac:5c:27
                Exponent: 65537 (0x10001)
        X509v3 extensions:
            X509v3 Basic Constraints: 
                CA:FALSE
            Netscape Comment: 
                Easy-RSA Generated Certificate
            X509v3 Subject Key Identifier: 
                02:8E:A3:05:A2:CF:D5:D8:74:7C:C7:5A:D3:09:92:71:2C:17:FB:B3
            X509v3 Authority Key Identifier: 
                keyid:EF:38:8D:14:50:58:A7:5B:4D:9C:17:72:FC:DF:B9:AC:A7:51:B0:10
                DirName:/C=US/ST=CA/L=SanFrancisco/O=Pixglo, Inc./OU=VPN-CIE/CN=tunnel.pixglo.com/name=Bala Chandrasekaran/emailAddress=bala@pixglo.com
                serial:A6:DB:C6:83:80:E6:A0:79

            X509v3 Extended Key Usage: 
                TLS Web Client Authentication
            X509v3 Key Usage: 
                Digital Signature
    Signature Algorithm: sha1WithRSAEncryption
         92:9a:11:3a:0c:c0:7a:ce:f6:fe:1f:08:a2:62:1f:d3:4d:e7:
         c5:d8:8c:e9:07:01:4a:05:3b:a7:72:ec:44:21:8a:ea:8e:ed:
         f4:0a:16:be:ff:c6:63:56:a2:f9:bf:cc:86:7f:fc:9e:99:cd:
         9a:a0:83:89:c9:f5:4e:20:e7:62:bb:b4:60:2e:81:4c:68:08:
         5d:f5:54:0d:55:e7:1d:98:8a:46:52:da:fa:d0:67:8e:70:54:
         10:ee:e5:24:a9:60:ca:cb:de:89:2d:69:0f:fb:35:05:27:da:
         e3:32:93:69:d5:8e:81:b2:95:fa:f6:34:76:ac:69:0d:7c:0f:
         81:9a:bc:fd:a1:f1:0f:5d:76:fa:64:86:c1:b6:e4:88:d9:a1:
         d0:b0:47:a8:20:59:84:af:d6:66:4a:62:2f:4e:4e:8a:7f:87:
         5b:dd:a0:c4:61:43:a1:fd:9c:54:6d:94:9f:8e:6d:a1:40:4d:
         ec:c1:b9:df:5c:36:88:6b:2a:b1:0a:95:fb:76:10:53:2e:4b:
         8e:58:14:d5:f8:e2:76:a4:3b:82:f2:7f:b5:38:b0:3b:e2:7b:
         87:67:a2:28:0c:9e:06:6d:65:3d:21:c9:88:cf:f7:d1:ad:d5:
         e0:25:e3:c7:5f:d4:05:19:f5:6c:1d:63:5e:c0:d3:62:f1:0a:
         e0:0f:6b:9d:46:1c:d9:d3:d5:6f:f4:b3:f3:c5:63:37:ef:f7:
         04:5e:fc:3c:8b:73:24:97:89:f5:5a:3e:19:dc:74:a4:94:0a:
         7b:8a:46:a6:c1:82:98:3e:4a:e5:50:fe:77:81:2d:ec:5d:5d:
         c7:47:93:97:c5:9a:ca:6e:49:15:f0:f4:bd:72:e0:84:4e:11:
         6f:d0:69:41:4d:25:db:d0:65:ae:24:1f:10:f9:cc:3d:70:62:
         c4:e8:7a:36:73:37:51:51:57:ea:56:46:75:f1:22:7b:a8:1a:
         b6:40:30:46:d2:d7:cb:08:c4:da:1a:1e:f1:ab:5b:c8:8b:05:
         37:d4:a3:c2:78:46:e5:c6:90:c6:d3:5c:a9:b5:64:0b:22:ab:
         d7:08:54:5c:23:94:e2:f6:30:4b:72:c5:a9:9b:42:03:ab:58:
         7e:0c:3b:ed:3d:70:b8:c2:61:05:ce:fa:de:28:6f:54:e8:bf:
         a7:0c:59:99:f7:4d:23:22:5a:19:71:44:86:df:4f:e3:39:f9:
         9e:40:15:1c:b2:fc:1e:30:47:52:44:fb:db:36:13:b7:60:37:
         b3:ac:91:ef:4f:3f:25:bd:54:dc:4d:88:d2:86:3a:33:6f:99:
         9e:17:d3:bf:52:37:e6:76:18:24:d2:44:08:1d:36:99:94:c6:
         4d:86:9a:a5:f4:bd:7a:bd
-----BEGIN CERTIFICATE-----
MIIHSDCCBTCgAwIBAgICA2swDQYJKoZIhvcNAQEFBQAwgbQxCzAJBgNVBAYTAlVT
MQswCQYDVQQIEwJDQTEVMBMGA1UEBxMMU2FuRnJhbmNpc2NvMRUwEwYDVQQKEwxQ
aXhnbG8sIEluYy4xEDAOBgNVBAsTB1ZQTi1DSUUxGjAYBgNVBAMTEXR1bm5lbC5w
aXhnbG8uY29tMRwwGgYDVQQpExNCYWxhIENoYW5kcmFzZWthcmFuMR4wHAYJKoZI
hvcNAQkBFg9iYWxhQHBpeGdsby5jb20wHhcNMTgwMjE0MDY0NjI2WhcNMjgwMjEy
MDY0NjI2WjCBqTELMAkGA1UEBhMCVVMxCzAJBgNVBAgTAkNBMRUwEwYDVQQHEwxT
YW5GcmFuY2lzY28xFTATBgNVBAoTDFBpeGdsbywgSW5jLjEQMA4GA1UECxMHVlBO
LUNJRTEPMA0GA1UEAxMGY2llODc0MRwwGgYDVQQpExNCYWxhIENoYW5kcmFzZWth
cmFuMR4wHAYJKoZIhvcNAQkBFg9iYWxhQHBpeGdsby5jb20wggIiMA0GCSqGSIb3
DQEBAQUAA4ICDwAwggIKAoICAQDIM/XVOP9o4ranOjStgBvlG8f+Y41pvmyHRhj2
muPPwTfB+wMfDxsQvK7/yKMTjKWdvuhpwMo1eSE02tLAmUHZTMdVuBKWPWSu6EPC
9bvAFwIcdhfRv0n+j+vfocW1LtmB2EVf1/H0BmuvUT7qqxPvEPcWSbabVHjI+Rn4
DzwE1jByYHMHHWRCs8F7uW7qkiMyfoWDbVXlDGKUAWbG0jRhmNfzZsLVXQy3BiFg
ElDQqJXpAeoDLZlYvRufs2TWv1b8ditRi4gZB2sKSaFT+aW9vzmqk9vnEYtKG5Fi
6DXE17g1FwH7ZdppwtNh789aWcx9NT7u5K2W24LXfBGyJOXfyj92t1RDhb+8IV5K
opV3XKU+GcPPe/Kx6YHnqaVm1Gd1Alr/eJxlGSksIuBAjrShnUXAgFEuaciLvL72
LiTBVqxx5jZykjHlMssZprfxgxUKHQzRD9Pd1MGFmeBe8xqeYocTtih+gWqzA1CF
59+1o5f4nqhxAg2GTlJGVEh0R0/oxxGXgePARssy217iA8jCe7r9WX7fMaqy+BRg
DWLYUkZNqG459lEgVjYENNvksqODEzz3+ILLJweopUE5A4wpmRGYK2rftNCEvmDI
a+UggN1jdapqECOHydtPiS7TAtT5epe/is2p5PtSZrcfY4XP3zFohVivtyuieIFO
y6xcJwIDAQABo4IBazCCAWcwCQYDVR0TBAIwADAtBglghkgBhvhCAQ0EIBYeRWFz
eS1SU0EgR2VuZXJhdGVkIENlcnRpZmljYXRlMB0GA1UdDgQWBBQCjqMFos/V2HR8
x1rTCZJxLBf7szCB6QYDVR0jBIHhMIHegBTvOI0UUFinW02cF3L837msp1GwEKGB
uqSBtzCBtDELMAkGA1UEBhMCVVMxCzAJBgNVBAgTAkNBMRUwEwYDVQQHEwxTYW5G
cmFuY2lzY28xFTATBgNVBAoTDFBpeGdsbywgSW5jLjEQMA4GA1UECxMHVlBOLUNJ
RTEaMBgGA1UEAxMRdHVubmVsLnBpeGdsby5jb20xHDAaBgNVBCkTE0JhbGEgQ2hh
bmRyYXNla2FyYW4xHjAcBgkqhkiG9w0BCQEWD2JhbGFAcGl4Z2xvLmNvbYIJAKbb
xoOA5qB5MBMGA1UdJQQMMAoGCCsGAQUFBwMCMAsGA1UdDwQEAwIHgDANBgkqhkiG
9w0BAQUFAAOCAgEAkpoROgzAes72/h8IomIf003nxdiM6QcBSgU7p3LsRCGK6o7t
9AoWvv/GY1ai+b/Mhn/8npnNmqCDicn1TiDnYru0YC6BTGgIXfVUDVXnHZiKRlLa
+tBnjnBUEO7lJKlgysveiS1pD/s1BSfa4zKTadWOgbKV+vY0dqxpDXwPgZq8/aHx
D112+mSGwbbkiNmh0LBHqCBZhK/WZkpiL05Oin+HW92gxGFDof2cVG2Un45toUBN
7MG531w2iGsqsQqV+3YQUy5LjlgU1fjidqQ7gvJ/tTiwO+J7h2eiKAyeBm1lPSHJ
iM/30a3V4CXjx1/UBRn1bB1jXsDTYvEK4A9rnUYc2dPVb/Sz88VjN+/3BF78PItz
JJeJ9Vo+Gdx0pJQKe4pGpsGCmD5K5VD+d4Et7F1dx0eTl8Waym5JFfD0vXLghE4R
b9BpQU0l29BlriQfEPnMPXBixOh6NnM3UVFX6lZGdfEie6gatkAwRtLXywjE2hoe
8atbyIsFN9SjwnhG5caQxtNcqbVkCyKr1whUXCOU4vYwS3LFqZtCA6tYfgw77T1w
uMJhBc763ihvVOi/pwxZmfdNIyJaGXFEht9P4zn5nkAVHLL8HjBHUkT72zYTt2A3
s6yR708/Jb1U3E2I0oY6M2+ZnhfTv1I35nYYJNJECB02mZTGTYaapfS9er0=
-----END CERTIFICATE-----
