Certificate:
    Data:
        Version: 3 (0x2)
        Serial Number: 877 (0x36d)
    Signature Algorithm: sha1WithRSAEncryption
        Issuer: C=US, ST=CA, L=SanFrancisco, O=Pixglo, Inc., OU=VPN-CIE, CN=tunnel.pixglo.com/name=Bala Chandrasekaran/emailAddress=bala@pixglo.com
        Validity
            Not Before: Feb 14 06:46:28 2018 GMT
            Not After : Feb 12 06:46:28 2028 GMT
        Subject: C=US, ST=CA, L=SanFrancisco, O=Pixglo, Inc., OU=VPN-CIE, CN=cie876/name=Bala Chandrasekaran/emailAddress=bala@pixglo.com
        Subject Public Key Info:
            Public Key Algorithm: rsaEncryption
                Public-Key: (4096 bit)
                Modulus:
                    00:b0:4e:cf:78:c4:93:47:b7:ba:90:a6:ca:e8:2f:
                    5a:5f:f5:59:58:36:ea:ce:46:c8:f5:34:d5:40:91:
                    a5:53:16:c6:ce:9f:07:2c:64:6e:96:3d:0f:f6:ff:
                    88:a5:2d:33:67:c7:aa:b1:02:d7:c4:41:dc:fd:d1:
                    f3:a5:8e:ba:ce:02:b2:2c:0d:2b:1b:20:59:5f:05:
                    51:b0:26:b7:51:55:2d:7b:e8:ca:ba:bf:36:fc:62:
                    50:da:0e:8e:90:85:11:d4:bf:3a:84:a2:5b:7e:5c:
                    64:2e:f7:bb:0b:d4:87:ec:2b:0a:df:30:7f:ed:32:
                    58:c6:9b:a0:2b:b2:2d:cd:63:5a:05:4b:82:70:d8:
                    cb:bf:e1:61:d1:58:50:02:b3:fb:69:6f:2e:04:34:
                    3d:28:9e:eb:6c:e1:0e:e2:d1:f2:b5:71:97:1b:ee:
                    2c:44:e0:82:9a:6d:6b:32:6e:b2:de:c3:b0:6a:8e:
                    40:6d:df:50:31:ab:75:6e:37:85:08:cf:de:ce:e4:
                    6d:9e:fd:9a:63:3c:d9:aa:40:80:42:f1:d1:bd:09:
                    da:8a:00:a9:5a:20:0d:7c:a8:e7:59:82:34:00:d5:
                    60:4e:6d:ae:73:c9:76:2e:0b:2e:b6:f2:d6:86:17:
                    e9:92:28:dc:13:ba:5f:66:33:79:c0:65:35:b2:20:
                    84:59:81:69:08:3e:10:42:eb:d2:fb:9e:a6:63:fe:
                    ce:70:b3:a0:8e:21:1a:91:0c:5c:cf:f1:e2:fe:10:
                    2b:78:0f:ed:47:0b:a8:eb:19:db:8c:44:a7:9b:73:
                    5f:e8:6d:c8:5b:00:78:f3:61:7d:ed:96:63:49:9c:
                    a5:7b:f6:31:9a:4d:e3:fa:37:ad:9e:ed:93:20:ce:
                    51:10:ec:07:ab:58:70:75:5e:ed:13:18:46:6c:fc:
                    7a:0a:f7:a5:0a:39:1f:f5:59:84:9d:05:2d:9a:91:
                    9f:4a:25:41:d0:3f:d5:15:dc:3b:a3:34:b3:e4:17:
                    4a:8b:3e:aa:87:5f:7b:dd:8b:b8:f6:9c:a4:3a:6f:
                    b1:86:b6:4f:38:bb:66:d0:f5:77:37:f3:a5:2b:0f:
                    05:85:81:b5:a2:03:1d:47:9d:39:5e:09:89:f7:35:
                    21:14:70:60:7a:99:ff:50:7e:d4:ff:91:dc:1f:a2:
                    c8:b3:d5:d1:94:34:2a:d4:09:37:7f:f5:ce:5a:26:
                    40:b4:fa:3c:ee:0f:b8:9e:90:65:a6:8d:8b:ac:a0:
                    c6:42:11:ec:ce:2f:2d:23:34:30:5f:f5:e3:d2:71:
                    34:e7:87:92:84:ae:4b:b2:85:81:41:ee:58:cf:80:
                    c9:2a:93:e1:7a:15:8b:ae:73:b2:92:5c:45:cb:cf:
                    49:b7:3d
                Exponent: 65537 (0x10001)
        X509v3 extensions:
            X509v3 Basic Constraints: 
                CA:FALSE
            Netscape Comment: 
                Easy-RSA Generated Certificate
            X509v3 Subject Key Identifier: 
                B2:77:95:5B:03:42:EC:58:5D:49:93:CC:3F:7D:5E:7C:32:2B:49:E1
            X509v3 Authority Key Identifier: 
                keyid:EF:38:8D:14:50:58:A7:5B:4D:9C:17:72:FC:DF:B9:AC:A7:51:B0:10
                DirName:/C=US/ST=CA/L=SanFrancisco/O=Pixglo, Inc./OU=VPN-CIE/CN=tunnel.pixglo.com/name=Bala Chandrasekaran/emailAddress=bala@pixglo.com
                serial:A6:DB:C6:83:80:E6:A0:79

            X509v3 Extended Key Usage: 
                TLS Web Client Authentication
            X509v3 Key Usage: 
                Digital Signature
    Signature Algorithm: sha1WithRSAEncryption
         58:c0:e6:98:7c:b5:07:5a:bf:52:9f:37:fc:cd:35:29:f8:bf:
         9a:14:3f:f1:80:e8:4e:7b:81:de:94:3d:fb:e6:e7:bd:ac:95:
         08:a9:2b:ac:56:c2:a9:18:ab:cb:18:eb:8f:dc:bb:d7:02:06:
         60:e8:e2:17:9a:df:51:95:d8:ad:43:e8:72:6d:d8:ea:19:7b:
         a6:2e:02:7d:1a:32:0c:e4:a3:09:9b:13:a7:06:41:a8:22:c9:
         88:0f:dc:81:e5:9e:58:e8:fd:02:79:f8:28:20:14:31:c6:f4:
         20:35:47:a2:c4:30:3a:2f:fc:18:e7:4c:0e:e7:eb:dd:87:48:
         e2:77:2a:19:2a:f0:a6:93:2e:0f:3c:97:ce:e4:e9:85:dc:7c:
         0c:22:ce:80:b0:9e:84:4a:cc:b6:48:60:78:3e:a1:23:2d:37:
         b4:86:6e:86:f2:05:f6:1d:ad:92:3b:54:1e:a0:97:08:df:dc:
         63:65:92:33:c7:65:e4:a6:69:7b:8e:ec:0d:45:0b:9f:3b:d6:
         0b:92:da:0e:fd:d9:42:2f:e6:53:a7:85:03:c6:68:06:bb:29:
         10:6f:fd:a4:2f:23:45:75:d4:ed:0f:5e:ce:15:39:4e:93:5f:
         25:ba:ab:d8:53:87:6c:6b:20:95:44:d3:99:d9:08:ef:22:c4:
         30:ce:f6:ab:35:06:b6:77:91:b5:91:c9:be:da:53:1d:76:53:
         cf:7b:d8:3f:5e:9f:35:92:95:52:44:c4:a3:12:cc:f8:b5:43:
         ab:10:e6:c6:0c:d6:11:d2:36:81:3a:92:59:11:ca:49:ae:93:
         2b:36:91:11:26:c8:c5:e9:83:f5:06:8a:2c:7d:f5:8b:92:eb:
         38:bf:71:4c:26:06:d9:05:05:bd:8a:2a:6d:6d:aa:ff:74:4a:
         ee:b7:95:8f:98:a8:4a:28:3c:03:fd:7c:6c:d2:dc:84:ae:eb:
         d2:74:13:9d:d2:7a:6d:56:17:fa:c6:fe:5a:f0:f7:31:30:aa:
         d4:83:54:51:a4:6d:16:57:23:28:33:b0:1d:8d:b8:8c:ed:22:
         a6:8f:80:1f:4e:55:5c:43:e2:a8:eb:7b:3f:e6:d7:dd:20:53:
         29:c4:74:32:12:17:06:76:eb:16:4e:67:3f:35:10:d0:0a:45:
         37:cc:4e:68:0f:8c:7e:9d:ff:5f:33:c6:30:c1:bc:be:e3:2b:
         f8:c6:05:0a:ac:e5:b5:66:8b:41:87:15:e4:21:52:28:af:a1:
         88:5b:f0:e3:d0:cb:f3:33:25:e9:c7:d0:b8:33:5f:b2:b9:6c:
         20:bd:22:a1:6c:6b:fc:8b:fb:21:be:b0:03:7a:e3:28:8f:81:
         07:b5:14:0b:77:20:44:6c
-----BEGIN CERTIFICATE-----
MIIHSDCCBTCgAwIBAgICA20wDQYJKoZIhvcNAQEFBQAwgbQxCzAJBgNVBAYTAlVT
MQswCQYDVQQIEwJDQTEVMBMGA1UEBxMMU2FuRnJhbmNpc2NvMRUwEwYDVQQKEwxQ
aXhnbG8sIEluYy4xEDAOBgNVBAsTB1ZQTi1DSUUxGjAYBgNVBAMTEXR1bm5lbC5w
aXhnbG8uY29tMRwwGgYDVQQpExNCYWxhIENoYW5kcmFzZWthcmFuMR4wHAYJKoZI
hvcNAQkBFg9iYWxhQHBpeGdsby5jb20wHhcNMTgwMjE0MDY0NjI4WhcNMjgwMjEy
MDY0NjI4WjCBqTELMAkGA1UEBhMCVVMxCzAJBgNVBAgTAkNBMRUwEwYDVQQHEwxT
YW5GcmFuY2lzY28xFTATBgNVBAoTDFBpeGdsbywgSW5jLjEQMA4GA1UECxMHVlBO
LUNJRTEPMA0GA1UEAxMGY2llODc2MRwwGgYDVQQpExNCYWxhIENoYW5kcmFzZWth
cmFuMR4wHAYJKoZIhvcNAQkBFg9iYWxhQHBpeGdsby5jb20wggIiMA0GCSqGSIb3
DQEBAQUAA4ICDwAwggIKAoICAQCwTs94xJNHt7qQpsroL1pf9VlYNurORsj1NNVA
kaVTFsbOnwcsZG6WPQ/2/4ilLTNnx6qxAtfEQdz90fOljrrOArIsDSsbIFlfBVGw
JrdRVS176Mq6vzb8YlDaDo6QhRHUvzqEolt+XGQu97sL1IfsKwrfMH/tMljGm6Ar
si3NY1oFS4Jw2Mu/4WHRWFACs/tpby4END0onuts4Q7i0fK1cZcb7ixE4IKabWsy
brLew7BqjkBt31Axq3VuN4UIz97O5G2e/ZpjPNmqQIBC8dG9CdqKAKlaIA18qOdZ
gjQA1WBOba5zyXYuCy628taGF+mSKNwTul9mM3nAZTWyIIRZgWkIPhBC69L7nqZj
/s5ws6COIRqRDFzP8eL+ECt4D+1HC6jrGduMRKebc1/obchbAHjzYX3tlmNJnKV7
9jGaTeP6N62e7ZMgzlEQ7AerWHB1Xu0TGEZs/HoK96UKOR/1WYSdBS2akZ9KJUHQ
P9UV3DujNLPkF0qLPqqHX3vdi7j2nKQ6b7GGtk84u2bQ9Xc386UrDwWFgbWiAx1H
nTleCYn3NSEUcGB6mf9QftT/kdwfosiz1dGUNCrUCTd/9c5aJkC0+jzuD7iekGWm
jYusoMZCEezOLy0jNDBf9ePScTTnh5KErkuyhYFB7ljPgMkqk+F6FYuuc7KSXEXL
z0m3PQIDAQABo4IBazCCAWcwCQYDVR0TBAIwADAtBglghkgBhvhCAQ0EIBYeRWFz
eS1SU0EgR2VuZXJhdGVkIENlcnRpZmljYXRlMB0GA1UdDgQWBBSyd5VbA0LsWF1J
k8w/fV58MitJ4TCB6QYDVR0jBIHhMIHegBTvOI0UUFinW02cF3L837msp1GwEKGB
uqSBtzCBtDELMAkGA1UEBhMCVVMxCzAJBgNVBAgTAkNBMRUwEwYDVQQHEwxTYW5G
cmFuY2lzY28xFTATBgNVBAoTDFBpeGdsbywgSW5jLjEQMA4GA1UECxMHVlBOLUNJ
RTEaMBgGA1UEAxMRdHVubmVsLnBpeGdsby5jb20xHDAaBgNVBCkTE0JhbGEgQ2hh
bmRyYXNla2FyYW4xHjAcBgkqhkiG9w0BCQEWD2JhbGFAcGl4Z2xvLmNvbYIJAKbb
xoOA5qB5MBMGA1UdJQQMMAoGCCsGAQUFBwMCMAsGA1UdDwQEAwIHgDANBgkqhkiG
9w0BAQUFAAOCAgEAWMDmmHy1B1q/Up83/M01Kfi/mhQ/8YDoTnuB3pQ9++bnvayV
CKkrrFbCqRiryxjrj9y71wIGYOjiF5rfUZXYrUPocm3Y6hl7pi4CfRoyDOSjCZsT
pwZBqCLJiA/cgeWeWOj9Ann4KCAUMcb0IDVHosQwOi/8GOdMDufr3YdI4ncqGSrw
ppMuDzyXzuTphdx8DCLOgLCehErMtkhgeD6hIy03tIZuhvIF9h2tkjtUHqCXCN/c
Y2WSM8dl5KZpe47sDUULnzvWC5LaDv3ZQi/mU6eFA8ZoBrspEG/9pC8jRXXU7Q9e
zhU5TpNfJbqr2FOHbGsglUTTmdkI7yLEMM72qzUGtneRtZHJvtpTHXZTz3vYP16f
NZKVUkTEoxLM+LVDqxDmxgzWEdI2gTqSWRHKSa6TKzaRESbIxemD9QaKLH31i5Lr
OL9xTCYG2QUFvYoqbW2q/3RK7reVj5ioSig8A/18bNLchK7r0nQTndJ6bVYX+sb+
WvD3MTCq1INUUaRtFlcjKDOwHY24jO0ipo+AH05VXEPiqOt7P+bX3SBTKcR0MhIX
BnbrFk5nPzUQ0ApFN8xOaA+Mfp3/XzPGMMG8vuMr+MYFCqzltWaLQYcV5CFSKK+h
iFvw49DL8zMl6cfQuDNfsrlsIL0ioWxr/Iv7Ib6wA3rjKI+BB7UUC3cgRGw=
-----END CERTIFICATE-----
