Certificate:
    Data:
        Version: 3 (0x2)
        Serial Number: 878 (0x36e)
    Signature Algorithm: sha1WithRSAEncryption
        Issuer: C=US, ST=CA, L=SanFrancisco, O=Pixglo, Inc., OU=VPN-CIE, CN=tunnel.pixglo.com/name=Bala Chandrasekaran/emailAddress=bala@pixglo.com
        Validity
            Not Before: Feb 14 06:46:30 2018 GMT
            Not After : Feb 12 06:46:30 2028 GMT
        Subject: C=US, ST=CA, L=SanFrancisco, O=Pixglo, Inc., OU=VPN-CIE, CN=cie877/name=Bala Chandrasekaran/emailAddress=bala@pixglo.com
        Subject Public Key Info:
            Public Key Algorithm: rsaEncryption
                Public-Key: (4096 bit)
                Modulus:
                    00:cc:eb:93:61:e0:bc:68:83:dc:73:86:3d:ec:b1:
                    25:bc:f1:2a:93:f0:63:66:c5:b0:a2:97:da:91:db:
                    fa:41:a5:3a:97:02:f6:36:b3:ec:b0:ec:6b:2a:31:
                    4f:d5:e2:70:c7:15:84:4f:6f:f5:6c:5b:a0:1f:eb:
                    40:00:af:e9:ed:c9:e8:c0:c2:a5:6e:99:ac:ad:1a:
                    c2:27:e2:17:b8:25:a9:01:81:1e:0d:a8:20:c7:e1:
                    04:b8:ca:24:ff:b7:36:9f:ca:2c:08:d7:14:17:85:
                    99:50:00:1d:3c:7d:cc:65:a9:f6:0a:f7:15:d3:50:
                    c7:e1:2c:5a:e4:47:c8:91:92:58:19:29:71:10:b5:
                    ce:8c:80:b2:76:fb:28:21:55:ed:a4:64:78:c0:ba:
                    ce:7a:a8:21:43:12:a6:a7:bb:0c:be:38:af:a9:48:
                    69:3e:94:6b:1d:72:09:82:8e:78:52:f2:54:8e:fb:
                    29:bc:ca:5e:56:9d:58:71:6d:67:29:25:60:47:c5:
                    93:07:17:73:03:8c:76:c6:de:3d:5a:a3:59:c0:a5:
                    07:5e:46:d2:e0:cc:44:75:ed:a0:27:f6:ba:9e:be:
                    9a:a1:88:dc:13:f9:fe:52:8f:29:da:b7:60:be:0b:
                    7b:f8:0c:27:25:48:58:b4:ca:75:8d:2a:94:dd:1b:
                    1a:8a:f3:2e:b8:dc:f9:5a:68:5d:6c:4f:c1:a9:02:
                    e0:b0:ab:75:2d:47:b1:41:4e:c0:40:dd:4b:05:31:
                    dc:1a:5e:13:68:e7:46:34:0b:dd:bc:46:19:bc:8f:
                    da:a0:6b:0c:a6:78:e7:68:33:cd:1a:7f:cf:4c:7d:
                    16:b0:3e:bb:89:25:3c:b1:ea:0e:83:40:71:3b:12:
                    d9:8a:64:b3:43:52:f8:62:e5:45:d0:f1:e0:fa:5b:
                    c0:63:c1:13:f0:dc:8b:0f:e0:e2:93:ef:4a:f1:86:
                    b2:cd:6f:f7:93:f9:81:28:81:ec:53:5e:63:ea:23:
                    2c:57:b5:da:79:0a:5f:98:44:b2:e6:66:88:74:63:
                    1a:1b:87:a3:f4:28:21:81:30:94:31:8a:8f:b4:e1:
                    27:bd:7f:c9:be:76:af:ca:c6:10:58:3a:81:2f:04:
                    c5:5c:1c:45:1a:bc:a8:13:8f:5d:ad:39:6a:08:bf:
                    f9:78:d5:2b:5f:d4:15:6f:e6:a8:68:12:c9:04:fa:
                    a8:d4:49:5f:20:68:71:67:1e:a2:5f:ed:f3:b4:09:
                    d8:ac:b7:b6:b8:ee:41:09:3e:59:72:d0:38:6a:0a:
                    b3:b6:6f:33:7e:f2:d0:c9:bb:10:e2:47:23:7e:e4:
                    12:dd:95:b9:91:93:20:43:70:8e:4b:5d:d3:49:ea:
                    c1:83:bf
                Exponent: 65537 (0x10001)
        X509v3 extensions:
            X509v3 Basic Constraints: 
                CA:FALSE
            Netscape Comment: 
                Easy-RSA Generated Certificate
            X509v3 Subject Key Identifier: 
                1D:5F:11:6F:60:97:44:47:48:E8:CD:A9:1C:89:D3:F0:06:0F:75:2C
            X509v3 Authority Key Identifier: 
                keyid:EF:38:8D:14:50:58:A7:5B:4D:9C:17:72:FC:DF:B9:AC:A7:51:B0:10
                DirName:/C=US/ST=CA/L=SanFrancisco/O=Pixglo, Inc./OU=VPN-CIE/CN=tunnel.pixglo.com/name=Bala Chandrasekaran/emailAddress=bala@pixglo.com
                serial:A6:DB:C6:83:80:E6:A0:79

            X509v3 Extended Key Usage: 
                TLS Web Client Authentication
            X509v3 Key Usage: 
                Digital Signature
    Signature Algorithm: sha1WithRSAEncryption
         86:ac:cf:9b:e3:b3:69:63:88:0f:4b:5e:08:95:d2:b8:24:9f:
         d6:b0:ad:3b:a3:13:6a:40:e3:af:e4:ac:ad:5d:5b:17:f9:d0:
         91:92:0c:76:a8:1a:06:2d:41:cf:8b:1a:7d:84:01:67:b3:81:
         3b:f2:88:5e:7b:90:7a:bf:71:ce:55:e5:43:30:6e:b7:71:2a:
         b6:24:c9:80:e5:31:97:4c:3f:45:da:eb:b7:44:bc:ac:70:1d:
         1f:71:07:9d:16:fe:13:1e:0d:eb:4d:d4:0b:cd:35:6a:fc:a6:
         47:66:10:d9:e1:0a:13:b2:e0:5f:b6:35:ec:6f:aa:b5:07:35:
         60:93:26:c1:b3:42:a3:8d:13:81:60:f1:3a:df:45:3a:7f:f6:
         3c:6f:ab:99:7f:ad:b3:c3:16:d9:3a:2e:b5:b9:01:b2:e7:d9:
         2a:a1:2f:16:f0:c1:ba:c8:55:ec:03:b3:52:3c:6b:cb:3c:8a:
         1b:c9:67:37:4a:73:90:05:d0:cb:f3:54:73:bd:c3:36:88:3f:
         6d:a0:eb:c3:35:94:4f:5e:21:6d:6e:e2:df:e7:b2:13:bf:6d:
         69:09:15:ba:97:34:92:2a:66:da:84:69:66:b3:c4:67:a6:b4:
         4e:4c:c7:75:e1:02:38:e0:02:fc:00:e4:41:fa:41:b2:02:4d:
         87:85:63:33:8d:45:03:62:10:78:5c:16:90:ce:32:50:e5:2e:
         fb:23:c2:32:cf:dc:2c:7d:e5:11:00:2e:e0:a0:fb:23:52:e1:
         5e:21:8d:ab:23:40:41:3b:8e:73:88:25:80:2c:dd:bc:a5:3b:
         83:19:a3:56:ed:b6:b4:47:74:6f:5f:d6:1e:da:42:4a:81:96:
         f0:51:81:d9:2f:6a:3c:ec:d2:a8:19:a8:83:e3:56:0a:91:38:
         cf:36:64:f8:a8:98:a0:92:e6:a3:95:81:7e:79:84:63:f6:ba:
         d0:6b:88:a7:b5:60:55:8c:de:fe:b4:42:3c:65:b8:99:5d:ed:
         bc:cf:e2:94:a3:dc:69:2d:e2:cb:18:f3:14:b4:1d:cd:60:73:
         4d:d8:7f:fa:f7:56:fe:cf:d6:75:9c:57:04:c9:df:13:68:95:
         26:11:16:9b:a9:11:52:c8:6f:30:8f:84:a9:d1:e2:5e:2f:66:
         85:59:ee:2f:ee:c6:ba:c2:4f:8f:f4:66:b9:10:6f:8d:02:b0:
         e4:59:04:a4:43:60:b1:59:81:c0:78:9f:2a:2a:7d:84:4a:9d:
         94:d5:30:32:ca:54:8d:07:79:ca:e0:cd:23:44:12:60:08:75:
         13:be:31:7b:a3:d1:b1:a0:b6:f2:39:71:ff:e0:66:19:8a:61:
         12:72:e0:ca:4f:de:2a:f7
-----BEGIN CERTIFICATE-----
MIIHSDCCBTCgAwIBAgICA24wDQYJKoZIhvcNAQEFBQAwgbQxCzAJBgNVBAYTAlVT
MQswCQYDVQQIEwJDQTEVMBMGA1UEBxMMU2FuRnJhbmNpc2NvMRUwEwYDVQQKEwxQ
aXhnbG8sIEluYy4xEDAOBgNVBAsTB1ZQTi1DSUUxGjAYBgNVBAMTEXR1bm5lbC5w
aXhnbG8uY29tMRwwGgYDVQQpExNCYWxhIENoYW5kcmFzZWthcmFuMR4wHAYJKoZI
hvcNAQkBFg9iYWxhQHBpeGdsby5jb20wHhcNMTgwMjE0MDY0NjMwWhcNMjgwMjEy
MDY0NjMwWjCBqTELMAkGA1UEBhMCVVMxCzAJBgNVBAgTAkNBMRUwEwYDVQQHEwxT
YW5GcmFuY2lzY28xFTATBgNVBAoTDFBpeGdsbywgSW5jLjEQMA4GA1UECxMHVlBO
LUNJRTEPMA0GA1UEAxMGY2llODc3MRwwGgYDVQQpExNCYWxhIENoYW5kcmFzZWth
cmFuMR4wHAYJKoZIhvcNAQkBFg9iYWxhQHBpeGdsby5jb20wggIiMA0GCSqGSIb3
DQEBAQUAA4ICDwAwggIKAoICAQDM65Nh4Lxog9xzhj3ssSW88SqT8GNmxbCil9qR
2/pBpTqXAvY2s+yw7GsqMU/V4nDHFYRPb/VsW6Af60AAr+ntyejAwqVumaytGsIn
4he4JakBgR4NqCDH4QS4yiT/tzafyiwI1xQXhZlQAB08fcxlqfYK9xXTUMfhLFrk
R8iRklgZKXEQtc6MgLJ2+yghVe2kZHjAus56qCFDEqanuwy+OK+pSGk+lGsdcgmC
jnhS8lSO+ym8yl5WnVhxbWcpJWBHxZMHF3MDjHbG3j1ao1nApQdeRtLgzER17aAn
9rqevpqhiNwT+f5Sjynat2C+C3v4DCclSFi0ynWNKpTdGxqK8y643PlaaF1sT8Gp
AuCwq3UtR7FBTsBA3UsFMdwaXhNo50Y0C928Rhm8j9qgawymeOdoM80af89MfRaw
PruJJTyx6g6DQHE7EtmKZLNDUvhi5UXQ8eD6W8BjwRPw3IsP4OKT70rxhrLNb/eT
+YEogexTXmPqIyxXtdp5Cl+YRLLmZoh0Yxobh6P0KCGBMJQxio+04Se9f8m+dq/K
xhBYOoEvBMVcHEUavKgTj12tOWoIv/l41Stf1BVv5qhoEskE+qjUSV8gaHFnHqJf
7fO0Cdist7a47kEJPlly0DhqCrO2bzN+8tDJuxDiRyN+5BLdlbmRkyBDcI5LXdNJ
6sGDvwIDAQABo4IBazCCAWcwCQYDVR0TBAIwADAtBglghkgBhvhCAQ0EIBYeRWFz
eS1SU0EgR2VuZXJhdGVkIENlcnRpZmljYXRlMB0GA1UdDgQWBBQdXxFvYJdER0jo
zakcidPwBg91LDCB6QYDVR0jBIHhMIHegBTvOI0UUFinW02cF3L837msp1GwEKGB
uqSBtzCBtDELMAkGA1UEBhMCVVMxCzAJBgNVBAgTAkNBMRUwEwYDVQQHEwxTYW5G
cmFuY2lzY28xFTATBgNVBAoTDFBpeGdsbywgSW5jLjEQMA4GA1UECxMHVlBOLUNJ
RTEaMBgGA1UEAxMRdHVubmVsLnBpeGdsby5jb20xHDAaBgNVBCkTE0JhbGEgQ2hh
bmRyYXNla2FyYW4xHjAcBgkqhkiG9w0BCQEWD2JhbGFAcGl4Z2xvLmNvbYIJAKbb
xoOA5qB5MBMGA1UdJQQMMAoGCCsGAQUFBwMCMAsGA1UdDwQEAwIHgDANBgkqhkiG
9w0BAQUFAAOCAgEAhqzPm+OzaWOID0teCJXSuCSf1rCtO6MTakDjr+SsrV1bF/nQ
kZIMdqgaBi1Bz4safYQBZ7OBO/KIXnuQer9xzlXlQzBut3EqtiTJgOUxl0w/Rdrr
t0S8rHAdH3EHnRb+Ex4N603UC801avymR2YQ2eEKE7LgX7Y17G+qtQc1YJMmwbNC
o40TgWDxOt9FOn/2PG+rmX+ts8MW2ToutbkBsufZKqEvFvDBushV7AOzUjxryzyK
G8lnN0pzkAXQy/NUc73DNog/baDrwzWUT14hbW7i3+eyE79taQkVupc0kipm2oRp
ZrPEZ6a0TkzHdeECOOAC/ADkQfpBsgJNh4VjM41FA2IQeFwWkM4yUOUu+yPCMs/c
LH3lEQAu4KD7I1LhXiGNqyNAQTuOc4glgCzdvKU7gxmjVu22tEd0b1/WHtpCSoGW
8FGB2S9qPOzSqBmog+NWCpE4zzZk+KiYoJLmo5WBfnmEY/a60GuIp7VgVYze/rRC
PGW4mV3tvM/ilKPcaS3iyxjzFLQdzWBzTdh/+vdW/s/WdZxXBMnfE2iVJhEWm6kR
UshvMI+EqdHiXi9mhVnuL+7GusJPj/RmuRBvjQKw5FkEpENgsVmBwHifKip9hEqd
lNUwMspUjQd5yuDNI0QSYAh1E74xe6PRsaC28jlx/+BmGYphEnLgyk/eKvc=
-----END CERTIFICATE-----
