Certificate:
    Data:
        Version: 3 (0x2)
        Serial Number: 880 (0x370)
    Signature Algorithm: sha1WithRSAEncryption
        Issuer: C=US, ST=CA, L=SanFrancisco, O=Pixglo, Inc., OU=VPN-CIE, CN=tunnel.pixglo.com/name=Bala Chandrasekaran/emailAddress=bala@pixglo.com
        Validity
            Not Before: Feb 14 06:46:35 2018 GMT
            Not After : Feb 12 06:46:35 2028 GMT
        Subject: C=US, ST=CA, L=SanFrancisco, O=Pixglo, Inc., OU=VPN-CIE, CN=cie879/name=Bala Chandrasekaran/emailAddress=bala@pixglo.com
        Subject Public Key Info:
            Public Key Algorithm: rsaEncryption
                Public-Key: (4096 bit)
                Modulus:
                    00:d5:a8:ea:24:a6:0e:d8:39:8a:86:1b:3c:4b:7d:
                    2d:71:da:c3:01:7b:b1:f8:8b:80:33:4a:19:6f:67:
                    4f:a6:19:ec:e6:9c:21:58:be:ba:f0:55:26:cb:89:
                    b4:ca:d7:c7:2f:25:0a:58:d5:96:86:e2:39:3e:f2:
                    fd:03:ed:bf:08:6b:da:23:11:b9:af:af:39:1b:d9:
                    39:2e:42:82:0f:ed:6c:bd:f2:e9:6a:e2:3c:58:3c:
                    65:43:b6:05:28:44:8a:80:a1:97:0e:f5:53:7b:19:
                    00:49:da:0d:76:22:a7:74:8e:16:e6:7f:34:b7:b9:
                    54:11:8a:b5:74:13:85:11:14:01:e2:ab:28:4b:8d:
                    35:48:bc:cc:bc:fd:40:f6:b6:1a:82:e5:84:20:5e:
                    08:e2:5f:77:ce:66:7b:c3:9b:7a:ed:84:8c:44:53:
                    b9:51:e6:58:f0:23:c2:15:99:21:29:ef:6c:ba:9a:
                    89:d8:6f:4d:1b:8a:d3:a7:0a:b8:70:ee:26:7e:26:
                    ae:03:ba:51:b0:8a:7f:9a:f1:b8:b9:4e:91:f7:66:
                    c3:cd:ef:2b:7d:1a:d8:f7:e8:2e:26:8f:70:a8:6b:
                    0c:f9:08:da:64:63:9a:42:c8:87:a9:f5:db:bc:6e:
                    79:77:f4:30:c5:13:09:e4:1b:03:90:47:6d:ac:68:
                    99:75:3f:54:ea:5a:c5:07:8a:28:d2:20:29:9e:84:
                    86:ca:44:c7:4d:86:06:d7:4c:12:c1:f9:d3:0d:31:
                    68:b3:d0:a1:df:e8:cb:3f:0a:d4:bd:94:2a:15:e6:
                    17:c6:7c:79:da:2e:f7:29:b3:37:9b:02:cd:27:bc:
                    72:dc:e8:18:f1:f1:62:60:d7:5a:5b:65:0f:50:f4:
                    70:86:bf:93:77:5b:27:60:15:d4:20:03:23:5d:b7:
                    bb:b5:ad:1f:a6:b0:b3:29:cb:5a:33:af:9e:b9:e9:
                    ec:c6:17:21:e4:fb:b2:2e:ae:2a:b4:36:3d:07:8b:
                    71:5c:c9:07:53:6f:03:fb:4d:b0:b4:7b:3d:f9:4a:
                    ef:32:86:52:ce:30:4a:f2:d2:c8:d4:43:78:04:5d:
                    3e:fc:f8:22:09:d4:bb:67:9e:e5:cf:b1:d9:2d:be:
                    a3:c2:3a:1e:86:a8:ef:49:55:0c:53:52:5f:2c:70:
                    88:2b:b6:5e:4b:34:d6:02:fb:1d:bc:e6:32:f8:4a:
                    f5:f7:94:79:7a:5d:51:fe:93:fe:7e:21:55:04:30:
                    e4:4b:95:25:d2:12:4f:6e:da:1f:11:60:57:85:2f:
                    6c:eb:0b:0a:8c:f7:07:5f:b9:6d:65:05:a8:84:67:
                    e3:ee:e1:3d:d1:c9:66:03:ff:ce:42:22:3c:1c:af:
                    39:39:a3
                Exponent: 65537 (0x10001)
        X509v3 extensions:
            X509v3 Basic Constraints: 
                CA:FALSE
            Netscape Comment: 
                Easy-RSA Generated Certificate
            X509v3 Subject Key Identifier: 
                D2:A5:59:22:78:0F:88:18:65:E5:CE:90:81:CB:2B:39:67:B4:97:1A
            X509v3 Authority Key Identifier: 
                keyid:EF:38:8D:14:50:58:A7:5B:4D:9C:17:72:FC:DF:B9:AC:A7:51:B0:10
                DirName:/C=US/ST=CA/L=SanFrancisco/O=Pixglo, Inc./OU=VPN-CIE/CN=tunnel.pixglo.com/name=Bala Chandrasekaran/emailAddress=bala@pixglo.com
                serial:A6:DB:C6:83:80:E6:A0:79

            X509v3 Extended Key Usage: 
                TLS Web Client Authentication
            X509v3 Key Usage: 
                Digital Signature
    Signature Algorithm: sha1WithRSAEncryption
         36:14:91:36:4e:70:26:71:9e:16:ac:b3:2e:a0:3e:56:fc:29:
         75:8e:88:a9:5c:59:45:04:e0:f0:21:bb:93:ec:aa:57:14:04:
         84:74:34:e9:6d:a3:f0:0e:db:cb:32:11:e0:ba:ae:53:fe:b0:
         04:a6:86:f4:4b:2b:4f:20:f4:ab:39:00:2c:6f:0a:03:f5:3f:
         28:d0:eb:5e:48:e3:ed:40:a4:44:b3:4d:ae:e5:0c:67:6f:fa:
         1f:49:9a:c0:8f:92:be:a4:06:d6:cb:d4:18:8a:cd:bd:d5:41:
         2f:a9:b2:c7:2d:47:36:05:df:c0:23:ef:32:1d:c7:45:a3:a8:
         87:1c:89:36:95:cc:bd:f3:3f:f5:12:e5:14:57:be:a6:2e:00:
         38:77:8d:6c:db:2c:d5:5e:6f:be:fb:eb:62:bc:ae:3d:76:06:
         5f:b4:48:ac:b0:85:64:bd:80:5b:0b:4d:ad:a7:4e:71:aa:76:
         87:bf:5b:fc:6a:f0:d1:e1:05:0d:61:86:53:ff:cc:ce:12:36:
         38:55:db:c5:87:5a:b6:81:ab:70:74:e2:9a:ee:45:4c:a5:aa:
         89:b2:e9:12:7a:0f:0c:38:f8:ab:31:da:28:8a:84:6a:5d:f6:
         c6:78:5f:56:68:84:31:c9:e2:08:a4:c1:6f:47:f5:45:c5:d6:
         72:b8:02:84:10:b9:5d:b4:90:03:67:87:08:86:36:e4:7e:4d:
         bc:8f:45:ad:c9:94:a0:6d:60:41:84:84:80:6f:db:13:75:ee:
         f0:0d:7d:ad:53:e6:2b:a9:f4:a2:63:31:97:2c:be:5f:12:dd:
         15:61:b3:76:97:eb:18:e4:c2:42:38:69:aa:96:6e:34:a1:ea:
         1c:82:a8:c3:5b:3a:b5:f2:e1:7e:ac:ab:7a:d4:19:4f:c0:42:
         dd:4b:e6:3c:02:0f:bf:dc:5c:0f:74:6c:bb:1e:9a:82:bf:df:
         30:a7:89:6b:a7:9b:e3:93:a0:e2:b8:33:55:86:ab:2e:fa:ca:
         88:66:d1:80:e1:0c:26:80:07:3c:0a:53:c9:b4:ae:28:1f:8f:
         2e:60:9c:03:c9:ac:18:de:a8:54:8a:28:fd:34:e4:30:a3:a7:
         5f:54:69:7c:ba:89:31:a0:6f:47:bc:64:f3:6c:7c:0e:6d:2c:
         8b:4e:08:95:da:01:2d:bb:3a:ae:cc:3d:32:94:d9:36:d2:7d:
         23:4d:f1:09:73:57:cf:f5:1d:81:f9:f1:64:a5:70:81:fd:c2:
         c5:af:40:36:d4:83:e1:da:7c:ee:07:08:bd:0f:c0:f6:56:75:
         3b:3b:f5:ee:03:32:7b:e6:a0:1c:57:47:0f:33:7e:68:af:d3:
         0b:17:41:bb:90:f5:da:05
-----BEGIN CERTIFICATE-----
MIIHSDCCBTCgAwIBAgICA3AwDQYJKoZIhvcNAQEFBQAwgbQxCzAJBgNVBAYTAlVT
MQswCQYDVQQIEwJDQTEVMBMGA1UEBxMMU2FuRnJhbmNpc2NvMRUwEwYDVQQKEwxQ
aXhnbG8sIEluYy4xEDAOBgNVBAsTB1ZQTi1DSUUxGjAYBgNVBAMTEXR1bm5lbC5w
aXhnbG8uY29tMRwwGgYDVQQpExNCYWxhIENoYW5kcmFzZWthcmFuMR4wHAYJKoZI
hvcNAQkBFg9iYWxhQHBpeGdsby5jb20wHhcNMTgwMjE0MDY0NjM1WhcNMjgwMjEy
MDY0NjM1WjCBqTELMAkGA1UEBhMCVVMxCzAJBgNVBAgTAkNBMRUwEwYDVQQHEwxT
YW5GcmFuY2lzY28xFTATBgNVBAoTDFBpeGdsbywgSW5jLjEQMA4GA1UECxMHVlBO
LUNJRTEPMA0GA1UEAxMGY2llODc5MRwwGgYDVQQpExNCYWxhIENoYW5kcmFzZWth
cmFuMR4wHAYJKoZIhvcNAQkBFg9iYWxhQHBpeGdsby5jb20wggIiMA0GCSqGSIb3
DQEBAQUAA4ICDwAwggIKAoICAQDVqOokpg7YOYqGGzxLfS1x2sMBe7H4i4AzShlv
Z0+mGezmnCFYvrrwVSbLibTK18cvJQpY1ZaG4jk+8v0D7b8Ia9ojEbmvrzkb2Tku
QoIP7Wy98ulq4jxYPGVDtgUoRIqAoZcO9VN7GQBJ2g12Iqd0jhbmfzS3uVQRirV0
E4URFAHiqyhLjTVIvMy8/UD2thqC5YQgXgjiX3fOZnvDm3rthIxEU7lR5ljwI8IV
mSEp72y6monYb00bitOnCrhw7iZ+Jq4DulGwin+a8bi5TpH3ZsPN7yt9Gtj36C4m
j3Coawz5CNpkY5pCyIep9du8bnl39DDFEwnkGwOQR22saJl1P1TqWsUHiijSICme
hIbKRMdNhgbXTBLB+dMNMWiz0KHf6Ms/CtS9lCoV5hfGfHnaLvcpszebAs0nvHLc
6Bjx8WJg11pbZQ9Q9HCGv5N3WydgFdQgAyNdt7u1rR+msLMpy1ozr5656ezGFyHk
+7Iuriq0Nj0Hi3FcyQdTbwP7TbC0ez35Su8yhlLOMEry0sjUQ3gEXT78+CIJ1Ltn
nuXPsdktvqPCOh6GqO9JVQxTUl8scIgrtl5LNNYC+x285jL4SvX3lHl6XVH+k/5+
IVUEMORLlSXSEk9u2h8RYFeFL2zrCwqM9wdfuW1lBaiEZ+Pu4T3RyWYD/85CIjwc
rzk5owIDAQABo4IBazCCAWcwCQYDVR0TBAIwADAtBglghkgBhvhCAQ0EIBYeRWFz
eS1SU0EgR2VuZXJhdGVkIENlcnRpZmljYXRlMB0GA1UdDgQWBBTSpVkieA+IGGXl
zpCByys5Z7SXGjCB6QYDVR0jBIHhMIHegBTvOI0UUFinW02cF3L837msp1GwEKGB
uqSBtzCBtDELMAkGA1UEBhMCVVMxCzAJBgNVBAgTAkNBMRUwEwYDVQQHEwxTYW5G
cmFuY2lzY28xFTATBgNVBAoTDFBpeGdsbywgSW5jLjEQMA4GA1UECxMHVlBOLUNJ
RTEaMBgGA1UEAxMRdHVubmVsLnBpeGdsby5jb20xHDAaBgNVBCkTE0JhbGEgQ2hh
bmRyYXNla2FyYW4xHjAcBgkqhkiG9w0BCQEWD2JhbGFAcGl4Z2xvLmNvbYIJAKbb
xoOA5qB5MBMGA1UdJQQMMAoGCCsGAQUFBwMCMAsGA1UdDwQEAwIHgDANBgkqhkiG
9w0BAQUFAAOCAgEANhSRNk5wJnGeFqyzLqA+VvwpdY6IqVxZRQTg8CG7k+yqVxQE
hHQ06W2j8A7byzIR4LquU/6wBKaG9EsrTyD0qzkALG8KA/U/KNDrXkjj7UCkRLNN
ruUMZ2/6H0mawI+SvqQG1svUGIrNvdVBL6myxy1HNgXfwCPvMh3HRaOohxyJNpXM
vfM/9RLlFFe+pi4AOHeNbNss1V5vvvvrYryuPXYGX7RIrLCFZL2AWwtNradOcap2
h79b/Grw0eEFDWGGU//MzhI2OFXbxYdatoGrcHTimu5FTKWqibLpEnoPDDj4qzHa
KIqEal32xnhfVmiEMcniCKTBb0f1RcXWcrgChBC5XbSQA2eHCIY25H5NvI9FrcmU
oG1gQYSEgG/bE3Xu8A19rVPmK6n0omMxlyy+XxLdFWGzdpfrGOTCQjhpqpZuNKHq
HIKow1s6tfLhfqyretQZT8BC3UvmPAIPv9xcD3Rsux6agr/fMKeJa6eb45Og4rgz
VYarLvrKiGbRgOEMJoAHPApTybSuKB+PLmCcA8msGN6oVIoo/TTkMKOnX1RpfLqJ
MaBvR7xk82x8Dm0si04IldoBLbs6rsw9MpTZNtJ9I03xCXNXz/UdgfnxZKVwgf3C
xa9ANtSD4dp87gcIvQ/A9lZ1Ozv17gMye+agHFdHDzN+aK/TCxdBu5D12gU=
-----END CERTIFICATE-----
