Certificate:
    Data:
        Version: 3 (0x2)
        Serial Number: 881 (0x371)
    Signature Algorithm: sha1WithRSAEncryption
        Issuer: C=US, ST=CA, L=SanFrancisco, O=Pixglo, Inc., OU=VPN-CIE, CN=tunnel.pixglo.com/name=Bala Chandrasekaran/emailAddress=bala@pixglo.com
        Validity
            Not Before: Feb 14 06:46:37 2018 GMT
            Not After : Feb 12 06:46:37 2028 GMT
        Subject: C=US, ST=CA, L=SanFrancisco, O=Pixglo, Inc., OU=VPN-CIE, CN=cie880/name=Bala Chandrasekaran/emailAddress=bala@pixglo.com
        Subject Public Key Info:
            Public Key Algorithm: rsaEncryption
                Public-Key: (4096 bit)
                Modulus:
                    00:a2:48:2a:a3:47:58:44:78:94:ac:90:5b:d0:fe:
                    d7:03:6b:48:77:52:15:b0:17:12:06:c2:80:a4:b2:
                    e3:43:10:48:11:bc:79:0c:5c:98:03:3f:ca:dc:31:
                    99:4a:50:99:db:f0:18:a2:0c:cc:ab:11:0c:13:b7:
                    3b:3a:79:63:26:c8:aa:6a:58:e9:fc:d8:4a:32:e8:
                    6f:90:9f:3a:08:66:3e:e7:6b:be:c8:12:90:32:7e:
                    65:ac:a4:c2:74:24:f0:4a:9a:b3:f4:93:b2:e4:85:
                    72:30:c4:33:80:3b:55:7d:f3:99:17:4d:81:36:b0:
                    cf:80:cc:41:d1:5a:94:12:3b:4a:10:c5:ad:ec:12:
                    29:10:31:07:28:d2:6b:e2:6d:26:30:8b:4b:ab:5f:
                    21:8e:62:dc:c8:e8:4a:fe:eb:21:1e:f7:cf:42:92:
                    16:75:08:b8:4c:f6:8c:d8:7e:00:20:20:43:ec:75:
                    e0:ef:eb:69:6c:5a:6c:98:f0:86:76:d8:79:20:36:
                    fd:0e:8e:fc:f3:4a:87:bd:06:07:fb:cc:0d:4a:c8:
                    38:a8:45:a9:d2:25:39:96:da:31:f4:9b:06:ab:eb:
                    97:49:65:26:86:13:3c:71:21:80:20:12:09:69:d0:
                    bc:a1:6a:26:d8:4e:78:99:87:d3:a5:f2:25:da:4a:
                    b2:ad:ba:33:59:e3:47:87:f2:c6:a8:3f:3f:1d:38:
                    1c:64:6d:75:f6:da:02:70:eb:49:11:6c:0d:92:00:
                    7e:c3:1c:ee:69:3a:ab:c1:6a:65:82:2e:a6:a1:73:
                    45:ef:4d:64:67:ea:cd:47:53:fb:e1:52:c2:9f:49:
                    9d:a9:19:76:01:b7:56:e7:83:cb:d5:b7:7e:0d:88:
                    c2:ab:79:3d:80:53:21:d5:77:96:42:46:61:d8:c4:
                    38:0b:fb:c6:0c:53:a1:6d:00:49:e3:1b:46:82:7a:
                    d1:9d:da:d5:29:d7:49:24:68:57:b9:f6:87:97:c9:
                    07:c8:71:c4:61:6a:48:87:1d:80:e8:bd:65:78:e4:
                    8e:32:be:f5:60:e7:52:96:a7:05:3d:3c:19:d6:6e:
                    b4:de:2b:9f:6c:b2:17:bc:0c:5e:00:c6:e4:32:1d:
                    44:01:b2:ac:59:86:9b:78:32:30:cf:04:07:02:10:
                    12:3f:9f:11:3a:d6:19:a8:21:60:f0:f8:33:c4:b6:
                    59:49:96:b0:f9:31:da:d5:3e:21:7b:63:0f:50:85:
                    d9:25:8f:94:21:dc:f1:1a:c3:65:a6:49:7d:71:4c:
                    af:e2:82:21:80:42:de:2c:c7:8c:09:39:fb:b9:4e:
                    81:26:d4:0a:1f:0e:b8:21:ec:f6:8b:1d:f3:66:80:
                    13:8c:09
                Exponent: 65537 (0x10001)
        X509v3 extensions:
            X509v3 Basic Constraints: 
                CA:FALSE
            Netscape Comment: 
                Easy-RSA Generated Certificate
            X509v3 Subject Key Identifier: 
                3F:40:62:C9:0E:B6:D6:F0:F1:F4:B7:19:E4:0B:51:11:46:E5:EC:60
            X509v3 Authority Key Identifier: 
                keyid:EF:38:8D:14:50:58:A7:5B:4D:9C:17:72:FC:DF:B9:AC:A7:51:B0:10
                DirName:/C=US/ST=CA/L=SanFrancisco/O=Pixglo, Inc./OU=VPN-CIE/CN=tunnel.pixglo.com/name=Bala Chandrasekaran/emailAddress=bala@pixglo.com
                serial:A6:DB:C6:83:80:E6:A0:79

            X509v3 Extended Key Usage: 
                TLS Web Client Authentication
            X509v3 Key Usage: 
                Digital Signature
    Signature Algorithm: sha1WithRSAEncryption
         44:36:c2:4a:bf:1a:70:1e:9a:a9:ae:10:04:a7:f4:68:cb:42:
         fa:58:17:16:57:ef:10:90:55:44:0b:eb:ab:4d:4a:8e:37:11:
         5b:16:6c:0d:3f:40:d1:5d:c2:cd:f9:72:c9:63:aa:fa:81:ba:
         89:f9:47:e4:4f:e9:06:09:6c:96:6b:31:3e:88:d2:cf:c7:3c:
         d3:1d:d9:b5:fe:f2:25:43:71:c1:0d:5f:c7:cd:ff:65:8d:e4:
         a0:bf:42:ea:5f:65:33:8b:46:8c:fa:30:c1:17:81:5c:9f:f9:
         e3:b6:d1:1b:4e:bf:8f:ec:41:f6:ba:1b:9b:ef:59:e3:a0:68:
         ee:c9:74:ff:c7:b8:19:d0:1b:46:e2:3a:8e:e6:c6:e3:01:1b:
         25:3e:9a:82:e2:cf:2b:d8:0a:ba:ed:05:c5:a6:76:83:21:b6:
         90:ed:82:87:92:f7:8e:ff:b7:64:42:8d:a5:03:73:98:2c:0c:
         83:2a:f3:05:92:28:c9:c4:b2:eb:41:cc:54:72:d9:a7:89:f2:
         4c:a6:19:73:42:93:0b:a7:f6:be:4a:bc:ab:a1:72:e0:a8:c0:
         d9:92:06:c8:4f:ef:41:5c:1d:88:5e:b6:45:8b:80:1f:44:3d:
         46:7c:fd:6d:ac:1f:4e:80:6f:c2:f6:55:83:31:31:a2:e9:09:
         3b:26:d0:55:a1:3b:f2:a1:9d:2a:c4:e2:a5:95:4e:96:96:c7:
         21:5f:d3:27:21:33:d4:b4:0f:47:89:86:04:a0:e4:e1:38:17:
         c8:90:5f:be:6a:0f:98:b4:f8:a9:1e:5d:dd:5b:b0:3a:2f:0c:
         1a:58:28:aa:04:6f:52:4a:31:97:0d:0a:aa:8b:5d:e9:2c:7e:
         42:b7:41:a3:5f:d1:a3:c3:ac:15:19:84:ee:0d:0d:b0:84:3a:
         7a:65:b2:bd:c1:44:0f:ef:5b:68:bf:e4:c7:0a:8a:fd:1a:94:
         62:97:5b:59:d7:90:65:ad:31:72:b6:ab:ca:a7:65:bf:32:22:
         8f:b4:59:69:cd:21:36:0a:94:74:be:f5:bf:ac:dd:32:ad:40:
         26:2e:de:0c:dd:4f:2b:82:64:ab:dc:22:25:27:fe:f8:97:f1:
         53:6a:c0:77:7e:bc:f8:6b:c5:94:ed:67:c9:bb:66:c4:59:7f:
         71:86:40:60:da:c0:9f:90:57:6a:d7:ac:76:de:29:9b:75:df:
         3e:8b:32:6b:f1:cc:1f:02:22:60:36:2a:44:f9:ac:47:8b:e1:
         db:21:66:aa:93:30:09:86:01:8e:af:f6:71:01:aa:1f:0f:09:
         b9:d4:c2:ec:cf:d0:86:9e:2a:d3:81:95:d3:c0:5c:86:8b:ff:
         f1:14:2a:ad:66:8c:c7:15
-----BEGIN CERTIFICATE-----
MIIHSDCCBTCgAwIBAgICA3EwDQYJKoZIhvcNAQEFBQAwgbQxCzAJBgNVBAYTAlVT
MQswCQYDVQQIEwJDQTEVMBMGA1UEBxMMU2FuRnJhbmNpc2NvMRUwEwYDVQQKEwxQ
aXhnbG8sIEluYy4xEDAOBgNVBAsTB1ZQTi1DSUUxGjAYBgNVBAMTEXR1bm5lbC5w
aXhnbG8uY29tMRwwGgYDVQQpExNCYWxhIENoYW5kcmFzZWthcmFuMR4wHAYJKoZI
hvcNAQkBFg9iYWxhQHBpeGdsby5jb20wHhcNMTgwMjE0MDY0NjM3WhcNMjgwMjEy
MDY0NjM3WjCBqTELMAkGA1UEBhMCVVMxCzAJBgNVBAgTAkNBMRUwEwYDVQQHEwxT
YW5GcmFuY2lzY28xFTATBgNVBAoTDFBpeGdsbywgSW5jLjEQMA4GA1UECxMHVlBO
LUNJRTEPMA0GA1UEAxMGY2llODgwMRwwGgYDVQQpExNCYWxhIENoYW5kcmFzZWth
cmFuMR4wHAYJKoZIhvcNAQkBFg9iYWxhQHBpeGdsby5jb20wggIiMA0GCSqGSIb3
DQEBAQUAA4ICDwAwggIKAoICAQCiSCqjR1hEeJSskFvQ/tcDa0h3UhWwFxIGwoCk
suNDEEgRvHkMXJgDP8rcMZlKUJnb8BiiDMyrEQwTtzs6eWMmyKpqWOn82Eoy6G+Q
nzoIZj7na77IEpAyfmWspMJ0JPBKmrP0k7LkhXIwxDOAO1V985kXTYE2sM+AzEHR
WpQSO0oQxa3sEikQMQco0mvibSYwi0urXyGOYtzI6Er+6yEe989CkhZ1CLhM9ozY
fgAgIEPsdeDv62lsWmyY8IZ22HkgNv0OjvzzSoe9Bgf7zA1KyDioRanSJTmW2jH0
mwar65dJZSaGEzxxIYAgEglp0LyhaibYTniZh9Ol8iXaSrKtujNZ40eH8saoPz8d
OBxkbXX22gJw60kRbA2SAH7DHO5pOqvBamWCLqahc0XvTWRn6s1HU/vhUsKfSZ2p
GXYBt1bng8vVt34NiMKreT2AUyHVd5ZCRmHYxDgL+8YMU6FtAEnjG0aCetGd2tUp
10kkaFe59oeXyQfIccRhakiHHYDovWV45I4yvvVg51KWpwU9PBnWbrTeK59sshe8
DF4AxuQyHUQBsqxZhpt4MjDPBAcCEBI/nxE61hmoIWDw+DPEtllJlrD5MdrVPiF7
Yw9Qhdklj5Qh3PEaw2WmSX1xTK/igiGAQt4sx4wJOfu5ToEm1AofDrgh7PaLHfNm
gBOMCQIDAQABo4IBazCCAWcwCQYDVR0TBAIwADAtBglghkgBhvhCAQ0EIBYeRWFz
eS1SU0EgR2VuZXJhdGVkIENlcnRpZmljYXRlMB0GA1UdDgQWBBQ/QGLJDrbW8PH0
txnkC1ERRuXsYDCB6QYDVR0jBIHhMIHegBTvOI0UUFinW02cF3L837msp1GwEKGB
uqSBtzCBtDELMAkGA1UEBhMCVVMxCzAJBgNVBAgTAkNBMRUwEwYDVQQHEwxTYW5G
cmFuY2lzY28xFTATBgNVBAoTDFBpeGdsbywgSW5jLjEQMA4GA1UECxMHVlBOLUNJ
RTEaMBgGA1UEAxMRdHVubmVsLnBpeGdsby5jb20xHDAaBgNVBCkTE0JhbGEgQ2hh
bmRyYXNla2FyYW4xHjAcBgkqhkiG9w0BCQEWD2JhbGFAcGl4Z2xvLmNvbYIJAKbb
xoOA5qB5MBMGA1UdJQQMMAoGCCsGAQUFBwMCMAsGA1UdDwQEAwIHgDANBgkqhkiG
9w0BAQUFAAOCAgEARDbCSr8acB6aqa4QBKf0aMtC+lgXFlfvEJBVRAvrq01KjjcR
WxZsDT9A0V3CzflyyWOq+oG6iflH5E/pBglslmsxPojSz8c80x3Ztf7yJUNxwQ1f
x83/ZY3koL9C6l9lM4tGjPowwReBXJ/547bRG06/j+xB9robm+9Z46Bo7sl0/8e4
GdAbRuI6jubG4wEbJT6aguLPK9gKuu0FxaZ2gyG2kO2Ch5L3jv+3ZEKNpQNzmCwM
gyrzBZIoycSy60HMVHLZp4nyTKYZc0KTC6f2vkq8q6Fy4KjA2ZIGyE/vQVwdiF62
RYuAH0Q9Rnz9bawfToBvwvZVgzExoukJOybQVaE78qGdKsTipZVOlpbHIV/TJyEz
1LQPR4mGBKDk4TgXyJBfvmoPmLT4qR5d3VuwOi8MGlgoqgRvUkoxlw0Kqotd6Sx+
QrdBo1/Ro8OsFRmE7g0NsIQ6emWyvcFED+9baL/kxwqK/RqUYpdbWdeQZa0xcrar
yqdlvzIij7RZac0hNgqUdL71v6zdMq1AJi7eDN1PK4Jkq9wiJSf++JfxU2rAd368
+GvFlO1nybtmxFl/cYZAYNrAn5BXatesdt4pm3XfPosya/HMHwIiYDYqRPmsR4vh
2yFmqpMwCYYBjq/2cQGqHw8JudTC7M/Qhp4q04GV08Bchov/8RQqrWaMxxU=
-----END CERTIFICATE-----
