Certificate:
    Data:
        Version: 3 (0x2)
        Serial Number: 882 (0x372)
    Signature Algorithm: sha1WithRSAEncryption
        Issuer: C=US, ST=CA, L=SanFrancisco, O=Pixglo, Inc., OU=VPN-CIE, CN=tunnel.pixglo.com/name=Bala Chandrasekaran/emailAddress=bala@pixglo.com
        Validity
            Not Before: Feb 14 06:46:41 2018 GMT
            Not After : Feb 12 06:46:41 2028 GMT
        Subject: C=US, ST=CA, L=SanFrancisco, O=Pixglo, Inc., OU=VPN-CIE, CN=cie881/name=Bala Chandrasekaran/emailAddress=bala@pixglo.com
        Subject Public Key Info:
            Public Key Algorithm: rsaEncryption
                Public-Key: (4096 bit)
                Modulus:
                    00:cc:9a:60:a0:af:7a:75:33:39:61:d7:71:17:34:
                    c8:f0:80:00:1e:97:4a:63:bc:e3:d7:45:c2:fe:fa:
                    70:97:bb:b8:2c:97:52:03:42:a8:6b:52:0c:62:2f:
                    f3:d2:f4:9a:25:a1:92:ed:f7:eb:5e:f7:5d:5e:97:
                    f5:b4:3f:e2:0e:91:82:d5:50:d2:b9:bc:b6:01:d2:
                    b5:c8:1f:4b:5b:f9:f7:c6:09:4b:56:d4:a4:81:ed:
                    50:c1:50:13:a6:fa:b1:ed:cb:1d:1f:1e:d1:ba:d8:
                    5a:97:e2:8e:0b:63:9f:b4:86:05:d4:05:a0:98:d6:
                    e9:e1:ab:ca:e5:57:2e:56:fe:81:9b:a4:ba:2e:31:
                    2b:93:25:fa:4a:a5:d0:76:17:0a:c7:f5:d3:dd:0d:
                    93:d1:3f:0f:c5:64:ad:a7:a7:30:f1:6c:4d:ee:a8:
                    e3:87:58:0a:0f:47:fc:62:69:1c:d8:5f:c7:fd:dc:
                    c5:d3:dc:cf:c0:b0:6c:d2:5e:d2:4c:05:c8:b6:5b:
                    47:a6:dc:21:d9:75:b5:14:a8:46:4f:75:a9:3a:8d:
                    86:18:f7:00:9d:d5:ba:5a:95:af:c2:4c:67:80:9c:
                    ce:f9:a8:e0:f0:34:d5:fb:8a:ff:ec:a8:ce:c6:46:
                    ea:4e:44:bb:73:f5:6f:04:58:37:84:b2:4e:4f:1e:
                    1b:a4:c1:98:1a:41:85:21:f4:2d:af:94:1b:10:56:
                    d0:8c:a3:e9:92:90:03:0c:6d:00:10:fb:e2:69:b8:
                    21:76:40:bf:cf:22:e9:03:30:69:95:56:f8:86:f4:
                    31:78:3c:86:c2:c2:0c:71:44:f0:d9:e2:9c:62:de:
                    ad:59:12:97:68:db:d3:30:6f:d4:3f:dd:7f:8f:f9:
                    33:ae:70:04:08:86:90:b1:f6:f3:65:86:50:6b:97:
                    67:2a:5c:97:67:60:d6:66:61:6b:d8:33:7e:e8:f0:
                    4b:5b:92:70:a7:a0:48:23:67:d4:8f:74:20:02:9d:
                    11:97:6d:ee:a4:61:7e:04:9f:07:cc:a4:f5:46:d9:
                    85:df:20:a5:bd:65:c4:28:93:2f:ff:d0:5b:a0:26:
                    74:ea:ef:88:fc:07:f0:3c:16:25:22:20:13:1b:28:
                    7d:66:8d:eb:ee:ec:e6:60:c1:72:4f:2c:29:cc:ca:
                    87:7c:bb:a3:4c:dc:22:58:f9:61:18:66:10:fa:22:
                    32:02:9d:c9:8a:cb:f1:32:61:93:af:4e:7d:be:5e:
                    38:11:06:92:93:1f:da:5a:5d:7b:19:0f:e3:0b:dd:
                    31:c3:2c:8b:d5:83:37:e4:80:22:ff:ef:1a:59:63:
                    a6:22:03:e5:b2:91:6d:ec:e8:f5:7e:5b:47:b8:79:
                    ad:b6:95
                Exponent: 65537 (0x10001)
        X509v3 extensions:
            X509v3 Basic Constraints: 
                CA:FALSE
            Netscape Comment: 
                Easy-RSA Generated Certificate
            X509v3 Subject Key Identifier: 
                98:D2:57:AF:E8:24:89:0B:C1:18:B2:8B:81:C1:18:BF:14:D0:71:35
            X509v3 Authority Key Identifier: 
                keyid:EF:38:8D:14:50:58:A7:5B:4D:9C:17:72:FC:DF:B9:AC:A7:51:B0:10
                DirName:/C=US/ST=CA/L=SanFrancisco/O=Pixglo, Inc./OU=VPN-CIE/CN=tunnel.pixglo.com/name=Bala Chandrasekaran/emailAddress=bala@pixglo.com
                serial:A6:DB:C6:83:80:E6:A0:79

            X509v3 Extended Key Usage: 
                TLS Web Client Authentication
            X509v3 Key Usage: 
                Digital Signature
    Signature Algorithm: sha1WithRSAEncryption
         78:76:a7:49:9c:1c:ae:95:77:d2:0c:24:7c:3e:a9:c3:be:94:
         36:88:68:47:26:21:77:d6:4b:eb:b0:e8:1b:be:0d:44:9b:e7:
         6f:4d:79:38:90:fb:1c:b5:65:73:f6:38:74:aa:68:39:9b:4b:
         15:9c:02:68:49:05:0a:f7:e8:4d:1a:15:c3:f5:61:88:fa:4d:
         05:89:44:ab:e0:8a:8d:d7:a6:34:1f:5f:05:8f:2e:5c:e5:94:
         b5:f8:0c:4c:30:29:aa:9f:9d:84:87:c9:46:e7:54:dc:fd:9b:
         6b:eb:d3:cc:40:9e:f5:7e:4c:46:34:bb:05:2a:0e:a9:44:82:
         a8:4e:47:5a:2c:92:0a:a6:ca:e8:9c:16:ff:ca:69:6f:f6:42:
         1b:83:b8:01:2c:73:eb:ad:8f:91:aa:14:ff:c9:73:05:26:66:
         b8:43:5f:ef:28:19:13:cc:e9:55:92:e2:29:90:44:7f:3b:89:
         a5:26:54:36:97:89:1c:af:76:3b:ae:98:11:01:52:3c:1f:8b:
         3d:5a:8f:8c:e2:88:4f:d6:78:66:98:29:fa:b6:7b:cf:04:6c:
         40:89:65:f5:5e:2e:4f:76:a7:78:22:c4:66:c0:52:08:ba:d8:
         e6:31:94:1f:fe:02:a7:66:85:7e:52:a7:2c:9c:f4:d8:28:e5:
         a8:71:b5:83:93:62:27:33:a2:f8:64:c9:84:a8:6a:8b:de:e4:
         12:70:b2:15:47:bb:bd:b6:d0:93:77:07:2e:90:c0:84:76:f3:
         ff:b4:bb:74:e8:9f:0c:25:cc:37:e4:29:2d:9c:0a:f8:4e:37:
         d8:10:1d:2b:db:c4:ad:a3:32:1b:60:48:f2:48:3c:3e:8e:da:
         2c:43:54:8e:b3:fe:6f:93:34:8d:ff:3a:fd:a8:96:fa:c9:d3:
         cb:bf:be:4b:e8:88:47:66:5b:4a:d5:6e:fe:47:db:ad:63:8c:
         74:a3:31:3d:7a:f1:9e:31:b4:28:11:c9:ae:4f:3e:1d:52:6f:
         f8:84:d0:f6:29:e3:6c:aa:48:8a:e7:5a:ac:fe:c8:44:a4:f3:
         b8:55:32:dd:cf:ef:5d:19:b3:e0:79:1e:27:2d:73:41:1c:e8:
         e8:96:81:8e:12:da:4c:b8:7d:21:cc:18:a9:38:4c:33:bd:32:
         a8:0b:13:0c:ad:9e:d3:9a:26:37:5e:72:da:6c:7a:e7:d0:c9:
         0a:60:ca:14:0c:df:b6:3a:91:0e:35:d2:d1:eb:11:c7:66:e6:
         10:54:c4:6f:77:d8:9a:fe:8c:d6:2b:75:23:44:53:8b:96:13:
         dc:f5:de:76:0e:a6:ef:4a:07:77:d2:d7:a8:38:cd:33:e0:ad:
         1c:eb:35:51:63:f4:65:ba
-----BEGIN CERTIFICATE-----
MIIHSDCCBTCgAwIBAgICA3IwDQYJKoZIhvcNAQEFBQAwgbQxCzAJBgNVBAYTAlVT
MQswCQYDVQQIEwJDQTEVMBMGA1UEBxMMU2FuRnJhbmNpc2NvMRUwEwYDVQQKEwxQ
aXhnbG8sIEluYy4xEDAOBgNVBAsTB1ZQTi1DSUUxGjAYBgNVBAMTEXR1bm5lbC5w
aXhnbG8uY29tMRwwGgYDVQQpExNCYWxhIENoYW5kcmFzZWthcmFuMR4wHAYJKoZI
hvcNAQkBFg9iYWxhQHBpeGdsby5jb20wHhcNMTgwMjE0MDY0NjQxWhcNMjgwMjEy
MDY0NjQxWjCBqTELMAkGA1UEBhMCVVMxCzAJBgNVBAgTAkNBMRUwEwYDVQQHEwxT
YW5GcmFuY2lzY28xFTATBgNVBAoTDFBpeGdsbywgSW5jLjEQMA4GA1UECxMHVlBO
LUNJRTEPMA0GA1UEAxMGY2llODgxMRwwGgYDVQQpExNCYWxhIENoYW5kcmFzZWth
cmFuMR4wHAYJKoZIhvcNAQkBFg9iYWxhQHBpeGdsby5jb20wggIiMA0GCSqGSIb3
DQEBAQUAA4ICDwAwggIKAoICAQDMmmCgr3p1Mzlh13EXNMjwgAAel0pjvOPXRcL+
+nCXu7gsl1IDQqhrUgxiL/PS9JoloZLt9+te911el/W0P+IOkYLVUNK5vLYB0rXI
H0tb+ffGCUtW1KSB7VDBUBOm+rHtyx0fHtG62FqX4o4LY5+0hgXUBaCY1unhq8rl
Vy5W/oGbpLouMSuTJfpKpdB2FwrH9dPdDZPRPw/FZK2npzDxbE3uqOOHWAoPR/xi
aRzYX8f93MXT3M/AsGzSXtJMBci2W0em3CHZdbUUqEZPdak6jYYY9wCd1bpala/C
TGeAnM75qODwNNX7iv/sqM7GRupORLtz9W8EWDeEsk5PHhukwZgaQYUh9C2vlBsQ
VtCMo+mSkAMMbQAQ++JpuCF2QL/PIukDMGmVVviG9DF4PIbCwgxxRPDZ4pxi3q1Z
Epdo29Mwb9Q/3X+P+TOucAQIhpCx9vNlhlBrl2cqXJdnYNZmYWvYM37o8EtbknCn
oEgjZ9SPdCACnRGXbe6kYX4EnwfMpPVG2YXfIKW9ZcQoky//0FugJnTq74j8B/A8
FiUiIBMbKH1mjevu7OZgwXJPLCnMyod8u6NM3CJY+WEYZhD6IjICncmKy/EyYZOv
Tn2+XjgRBpKTH9paXXsZD+ML3THDLIvVgzfkgCL/7xpZY6YiA+WykW3s6PV+W0e4
ea22lQIDAQABo4IBazCCAWcwCQYDVR0TBAIwADAtBglghkgBhvhCAQ0EIBYeRWFz
eS1SU0EgR2VuZXJhdGVkIENlcnRpZmljYXRlMB0GA1UdDgQWBBSY0lev6CSJC8EY
souBwRi/FNBxNTCB6QYDVR0jBIHhMIHegBTvOI0UUFinW02cF3L837msp1GwEKGB
uqSBtzCBtDELMAkGA1UEBhMCVVMxCzAJBgNVBAgTAkNBMRUwEwYDVQQHEwxTYW5G
cmFuY2lzY28xFTATBgNVBAoTDFBpeGdsbywgSW5jLjEQMA4GA1UECxMHVlBOLUNJ
RTEaMBgGA1UEAxMRdHVubmVsLnBpeGdsby5jb20xHDAaBgNVBCkTE0JhbGEgQ2hh
bmRyYXNla2FyYW4xHjAcBgkqhkiG9w0BCQEWD2JhbGFAcGl4Z2xvLmNvbYIJAKbb
xoOA5qB5MBMGA1UdJQQMMAoGCCsGAQUFBwMCMAsGA1UdDwQEAwIHgDANBgkqhkiG
9w0BAQUFAAOCAgEAeHanSZwcrpV30gwkfD6pw76UNohoRyYhd9ZL67DoG74NRJvn
b015OJD7HLVlc/Y4dKpoOZtLFZwCaEkFCvfoTRoVw/VhiPpNBYlEq+CKjdemNB9f
BY8uXOWUtfgMTDApqp+dhIfJRudU3P2ba+vTzECe9X5MRjS7BSoOqUSCqE5HWiyS
CqbK6JwW/8ppb/ZCG4O4ASxz662PkaoU/8lzBSZmuENf7ygZE8zpVZLiKZBEfzuJ
pSZUNpeJHK92O66YEQFSPB+LPVqPjOKIT9Z4Zpgp+rZ7zwRsQIll9V4uT3aneCLE
ZsBSCLrY5jGUH/4Cp2aFflKnLJz02CjlqHG1g5NiJzOi+GTJhKhqi97kEnCyFUe7
vbbQk3cHLpDAhHbz/7S7dOifDCXMN+QpLZwK+E432BAdK9vEraMyG2BI8kg8Po7a
LENUjrP+b5M0jf86/aiW+snTy7++S+iIR2ZbStVu/kfbrWOMdKMxPXrxnjG0KBHJ
rk8+HVJv+ITQ9injbKpIiudarP7IRKTzuFUy3c/vXRmz4HkeJy1zQRzo6JaBjhLa
TLh9IcwYqThMM70yqAsTDK2e05omN15y2mx659DJCmDKFAzftjqRDjXS0esRx2bm
EFTEb3fYmv6M1it1I0RTi5YT3PXedg6m70oHd9LXqDjNM+CtHOs1UWP0Zbo=
-----END CERTIFICATE-----
