Certificate:
    Data:
        Version: 3 (0x2)
        Serial Number: 883 (0x373)
    Signature Algorithm: sha1WithRSAEncryption
        Issuer: C=US, ST=CA, L=SanFrancisco, O=Pixglo, Inc., OU=VPN-CIE, CN=tunnel.pixglo.com/name=Bala Chandrasekaran/emailAddress=bala@pixglo.com
        Validity
            Not Before: Feb 14 06:46:43 2018 GMT
            Not After : Feb 12 06:46:43 2028 GMT
        Subject: C=US, ST=CA, L=SanFrancisco, O=Pixglo, Inc., OU=VPN-CIE, CN=cie882/name=Bala Chandrasekaran/emailAddress=bala@pixglo.com
        Subject Public Key Info:
            Public Key Algorithm: rsaEncryption
                Public-Key: (4096 bit)
                Modulus:
                    00:a8:08:f5:5a:82:c1:76:c3:52:c4:20:bf:02:7b:
                    67:ed:f6:b3:21:09:3c:44:3e:61:c5:68:6c:82:4c:
                    b4:3a:2f:a3:7c:d9:d3:c1:4e:95:77:fe:0f:7d:6c:
                    6a:a8:be:d6:00:58:d4:7c:a9:d2:ac:ac:de:04:01:
                    3a:dc:a2:28:cb:0b:9c:9f:ed:c2:c5:2b:31:d2:d5:
                    8b:da:8f:14:54:a0:a8:3b:e5:b6:7f:58:bb:05:cd:
                    32:5e:01:27:78:0d:c4:84:7e:3e:27:7c:24:88:a1:
                    17:0d:d2:e2:8f:c9:f6:6e:e8:e5:cb:d4:59:7e:5e:
                    59:96:4f:a4:11:ce:95:80:89:2b:8b:8a:23:e8:04:
                    52:b2:79:ba:f4:60:f2:8c:99:18:0d:05:30:f1:6a:
                    28:ae:a0:64:00:44:21:d6:c2:36:21:a7:28:fb:9b:
                    69:7f:5b:01:a7:67:eb:4a:d5:10:75:92:a5:19:ca:
                    f7:3c:66:23:1e:6f:71:3d:8d:f5:da:0e:f1:71:c3:
                    e4:b2:c5:18:bd:0f:69:e0:0c:86:69:17:15:4f:19:
                    2e:bc:e3:8c:26:d3:90:01:c5:42:39:8a:17:e7:7c:
                    82:44:25:aa:8a:73:47:91:44:b1:bb:30:2b:20:18:
                    3a:3d:b1:c8:ab:d6:93:ef:ef:93:d2:b4:f5:b9:21:
                    66:1e:5d:4f:32:6b:cb:96:7d:c0:2a:c1:b6:55:56:
                    4d:2c:d9:d0:ad:f2:01:0f:47:61:93:36:07:f1:5e:
                    c6:67:bc:06:6e:2d:ce:0e:a6:e0:b3:14:62:b0:3d:
                    fb:4d:1b:0b:49:82:8e:66:1c:58:f5:1e:38:03:bc:
                    04:8c:ea:13:d3:f1:29:f2:46:80:5e:9a:8b:f6:3e:
                    e1:b3:b2:ce:20:bf:f0:cf:5a:e9:8a:e4:d5:51:8c:
                    78:fe:c9:8f:7f:95:ca:6c:29:46:9d:92:c3:05:b8:
                    b8:c4:be:60:c0:41:b3:47:2c:75:b8:49:20:a1:7a:
                    2c:ed:28:0d:41:81:b7:1b:a3:85:45:41:f0:ea:ff:
                    73:0f:4e:3c:ca:54:72:37:a2:55:50:7c:0d:60:5a:
                    90:2c:32:b6:71:16:1b:1e:a4:6b:fb:fd:10:ca:a3:
                    f1:06:8d:53:ea:04:8f:94:9a:fc:a2:39:08:cc:84:
                    75:aa:5b:ff:00:d1:09:5f:fb:66:49:5a:c9:b1:4e:
                    2e:48:66:22:8c:93:4e:df:3f:7f:28:b7:90:4f:38:
                    08:f2:96:26:aa:4a:a3:43:86:5f:9a:58:ca:46:84:
                    4f:5b:1e:ca:17:dc:78:17:79:6d:51:16:ac:26:c4:
                    c5:23:c6:83:36:96:ed:fe:9b:8f:5e:58:5d:a7:9d:
                    6e:c7:87
                Exponent: 65537 (0x10001)
        X509v3 extensions:
            X509v3 Basic Constraints: 
                CA:FALSE
            Netscape Comment: 
                Easy-RSA Generated Certificate
            X509v3 Subject Key Identifier: 
                8E:64:EF:AC:BB:55:A6:06:FD:58:9F:96:C6:96:2A:A9:A1:4B:05:60
            X509v3 Authority Key Identifier: 
                keyid:EF:38:8D:14:50:58:A7:5B:4D:9C:17:72:FC:DF:B9:AC:A7:51:B0:10
                DirName:/C=US/ST=CA/L=SanFrancisco/O=Pixglo, Inc./OU=VPN-CIE/CN=tunnel.pixglo.com/name=Bala Chandrasekaran/emailAddress=bala@pixglo.com
                serial:A6:DB:C6:83:80:E6:A0:79

            X509v3 Extended Key Usage: 
                TLS Web Client Authentication
            X509v3 Key Usage: 
                Digital Signature
    Signature Algorithm: sha1WithRSAEncryption
         0d:59:15:b6:ae:72:20:6f:c5:9e:1d:b5:b0:49:f1:e6:9f:e3:
         a2:b7:e9:a1:91:43:6d:c9:40:cc:1b:e0:77:7d:4a:19:53:ee:
         d7:00:af:c9:c9:b5:7e:c6:90:18:fe:26:51:42:47:c1:21:2b:
         c7:f2:b8:96:80:db:5b:67:82:00:8d:38:78:d3:e1:70:70:ef:
         cd:9b:1c:71:86:dd:4d:9e:dc:fc:e2:58:d5:de:92:78:fe:ff:
         6e:ee:e6:92:bc:b4:4b:3b:99:26:56:d2:34:88:56:e2:58:73:
         d7:cc:cf:be:91:3f:89:85:40:08:8a:a1:68:7e:5c:10:bf:14:
         0d:87:76:e4:71:a4:b5:d1:ad:d3:80:ae:83:03:58:e2:b6:73:
         6b:e2:ef:c2:b6:5f:60:90:09:28:7a:9d:00:b2:17:49:5f:c5:
         fb:dd:5c:23:ff:bc:e2:15:d6:b9:fa:d8:d3:0d:29:c4:9d:92:
         01:ee:7f:24:e4:ee:a0:b7:05:70:0a:e6:6e:56:e8:e7:5e:85:
         b0:fb:ac:20:7c:78:73:b6:7c:12:9e:3d:1a:b6:f0:96:ba:38:
         1d:7a:97:a3:2d:f0:40:e9:4e:bf:6a:85:9d:71:d9:eb:07:bf:
         ab:c0:ac:5c:df:0c:28:94:e1:19:69:b3:fc:0d:eb:ca:99:03:
         2e:ed:e6:5c:f9:03:e3:79:ee:a7:d9:24:0e:c7:7f:30:25:ba:
         87:18:5f:5d:28:41:df:e0:27:00:51:78:17:b6:85:57:e5:28:
         8f:ae:7c:b8:b5:c1:11:bf:02:e9:bf:fb:13:98:01:99:9a:71:
         6a:80:18:e2:dc:50:53:d8:95:02:b1:17:e2:37:57:bf:f3:27:
         5c:61:9b:12:0a:fa:1e:2a:7e:46:e0:4b:4e:04:3c:6e:7e:fb:
         17:00:f3:90:68:3d:e8:24:57:ee:ff:00:29:e9:70:c5:b5:24:
         7f:54:f8:83:9b:7f:b5:16:83:61:20:bb:9f:1a:36:b2:8d:68:
         4e:0a:ad:74:3e:de:76:74:bf:f8:5c:27:4b:e4:d3:4c:46:6c:
         30:46:26:3d:9a:33:0d:e8:f9:7f:41:21:c3:2a:59:95:95:72:
         8a:4a:d8:c8:6b:ee:a9:f5:46:fc:61:2f:8e:9f:b9:cb:29:5c:
         5f:7b:50:20:f6:d7:d3:8f:81:03:2f:fc:4a:a5:21:21:8a:7a:
         96:72:2c:88:00:ef:de:65:38:b3:6f:5a:17:07:73:db:b8:59:
         2c:c5:58:ad:db:6d:1c:10:70:a8:b8:73:b9:eb:cf:d2:82:af:
         19:ec:f1:b4:44:16:8f:45:5f:ab:3b:3e:10:68:60:6e:1c:66:
         0a:be:bb:c7:01:20:d1:79
-----BEGIN CERTIFICATE-----
MIIHSDCCBTCgAwIBAgICA3MwDQYJKoZIhvcNAQEFBQAwgbQxCzAJBgNVBAYTAlVT
MQswCQYDVQQIEwJDQTEVMBMGA1UEBxMMU2FuRnJhbmNpc2NvMRUwEwYDVQQKEwxQ
aXhnbG8sIEluYy4xEDAOBgNVBAsTB1ZQTi1DSUUxGjAYBgNVBAMTEXR1bm5lbC5w
aXhnbG8uY29tMRwwGgYDVQQpExNCYWxhIENoYW5kcmFzZWthcmFuMR4wHAYJKoZI
hvcNAQkBFg9iYWxhQHBpeGdsby5jb20wHhcNMTgwMjE0MDY0NjQzWhcNMjgwMjEy
MDY0NjQzWjCBqTELMAkGA1UEBhMCVVMxCzAJBgNVBAgTAkNBMRUwEwYDVQQHEwxT
YW5GcmFuY2lzY28xFTATBgNVBAoTDFBpeGdsbywgSW5jLjEQMA4GA1UECxMHVlBO
LUNJRTEPMA0GA1UEAxMGY2llODgyMRwwGgYDVQQpExNCYWxhIENoYW5kcmFzZWth
cmFuMR4wHAYJKoZIhvcNAQkBFg9iYWxhQHBpeGdsby5jb20wggIiMA0GCSqGSIb3
DQEBAQUAA4ICDwAwggIKAoICAQCoCPVagsF2w1LEIL8Ce2ft9rMhCTxEPmHFaGyC
TLQ6L6N82dPBTpV3/g99bGqovtYAWNR8qdKsrN4EATrcoijLC5yf7cLFKzHS1Yva
jxRUoKg75bZ/WLsFzTJeASd4DcSEfj4nfCSIoRcN0uKPyfZu6OXL1Fl+XlmWT6QR
zpWAiSuLiiPoBFKyebr0YPKMmRgNBTDxaiiuoGQARCHWwjYhpyj7m2l/WwGnZ+tK
1RB1kqUZyvc8ZiMeb3E9jfXaDvFxw+SyxRi9D2ngDIZpFxVPGS6844wm05ABxUI5
ihfnfIJEJaqKc0eRRLG7MCsgGDo9scir1pPv75PStPW5IWYeXU8ya8uWfcAqwbZV
Vk0s2dCt8gEPR2GTNgfxXsZnvAZuLc4OpuCzFGKwPftNGwtJgo5mHFj1HjgDvASM
6hPT8SnyRoBemov2PuGzss4gv/DPWumK5NVRjHj+yY9/lcpsKUadksMFuLjEvmDA
QbNHLHW4SSCheiztKA1Bgbcbo4VFQfDq/3MPTjzKVHI3olVQfA1gWpAsMrZxFhse
pGv7/RDKo/EGjVPqBI+UmvyiOQjMhHWqW/8A0Qlf+2ZJWsmxTi5IZiKMk07fP38o
t5BPOAjyliaqSqNDhl+aWMpGhE9bHsoX3HgXeW1RFqwmxMUjxoM2lu3+m49eWF2n
nW7HhwIDAQABo4IBazCCAWcwCQYDVR0TBAIwADAtBglghkgBhvhCAQ0EIBYeRWFz
eS1SU0EgR2VuZXJhdGVkIENlcnRpZmljYXRlMB0GA1UdDgQWBBSOZO+su1WmBv1Y
n5bGliqpoUsFYDCB6QYDVR0jBIHhMIHegBTvOI0UUFinW02cF3L837msp1GwEKGB
uqSBtzCBtDELMAkGA1UEBhMCVVMxCzAJBgNVBAgTAkNBMRUwEwYDVQQHEwxTYW5G
cmFuY2lzY28xFTATBgNVBAoTDFBpeGdsbywgSW5jLjEQMA4GA1UECxMHVlBOLUNJ
RTEaMBgGA1UEAxMRdHVubmVsLnBpeGdsby5jb20xHDAaBgNVBCkTE0JhbGEgQ2hh
bmRyYXNla2FyYW4xHjAcBgkqhkiG9w0BCQEWD2JhbGFAcGl4Z2xvLmNvbYIJAKbb
xoOA5qB5MBMGA1UdJQQMMAoGCCsGAQUFBwMCMAsGA1UdDwQEAwIHgDANBgkqhkiG
9w0BAQUFAAOCAgEADVkVtq5yIG/Fnh21sEnx5p/jorfpoZFDbclAzBvgd31KGVPu
1wCvycm1fsaQGP4mUUJHwSErx/K4loDbW2eCAI04eNPhcHDvzZsccYbdTZ7c/OJY
1d6SeP7/bu7mkry0SzuZJlbSNIhW4lhz18zPvpE/iYVACIqhaH5cEL8UDYd25HGk
tdGt04CugwNY4rZza+LvwrZfYJAJKHqdALIXSV/F+91cI/+84hXWufrY0w0pxJ2S
Ae5/JOTuoLcFcArmblbo516FsPusIHx4c7Z8Ep49Grbwlro4HXqXoy3wQOlOv2qF
nXHZ6we/q8CsXN8MKJThGWmz/A3rypkDLu3mXPkD43nup9kkDsd/MCW6hxhfXShB
3+AnAFF4F7aFV+Uoj658uLXBEb8C6b/7E5gBmZpxaoAY4txQU9iVArEX4jdXv/Mn
XGGbEgr6Hip+RuBLTgQ8bn77FwDzkGg96CRX7v8AKelwxbUkf1T4g5t/tRaDYSC7
nxo2so1oTgqtdD7ednS/+FwnS+TTTEZsMEYmPZozDej5f0EhwypZlZVyikrYyGvu
qfVG/GEvjp+5yylcX3tQIPbX04+BAy/8SqUhIYp6lnIsiADv3mU4s29aFwdz27hZ
LMVYrdttHBBwqLhzuevP0oKvGezxtEQWj0Vfqzs+EGhgbhxmCr67xwEg0Xk=
-----END CERTIFICATE-----
