Certificate:
    Data:
        Version: 3 (0x2)
        Serial Number: 884 (0x374)
    Signature Algorithm: sha1WithRSAEncryption
        Issuer: C=US, ST=CA, L=SanFrancisco, O=Pixglo, Inc., OU=VPN-CIE, CN=tunnel.pixglo.com/name=Bala Chandrasekaran/emailAddress=bala@pixglo.com
        Validity
            Not Before: Feb 14 06:46:44 2018 GMT
            Not After : Feb 12 06:46:44 2028 GMT
        Subject: C=US, ST=CA, L=SanFrancisco, O=Pixglo, Inc., OU=VPN-CIE, CN=cie883/name=Bala Chandrasekaran/emailAddress=bala@pixglo.com
        Subject Public Key Info:
            Public Key Algorithm: rsaEncryption
                Public-Key: (4096 bit)
                Modulus:
                    00:ac:f6:e7:02:de:9a:67:c6:27:b3:c2:7b:6c:84:
                    ba:9a:0e:79:b9:a0:52:63:5a:37:9d:16:42:60:dd:
                    7f:6c:e6:ae:a4:af:04:2b:60:28:74:c7:52:7c:84:
                    84:38:c3:41:d1:6b:33:ef:30:83:8f:90:31:a1:cd:
                    a0:69:c0:28:4a:0f:cc:06:0c:08:0c:9a:b1:49:86:
                    9f:26:10:42:2c:bc:71:b4:c8:8c:07:66:7f:84:78:
                    f9:26:ba:7c:b2:6d:e0:07:e2:6e:4d:e0:ee:9b:59:
                    a5:d9:f5:2b:83:00:95:db:c7:71:e0:87:e1:04:1b:
                    39:d4:ea:06:8a:b3:e0:c6:57:76:e1:31:db:02:a2:
                    87:55:dc:98:ae:07:d3:72:dd:f6:b7:9e:5f:16:d9:
                    eb:22:f4:26:cf:19:c3:59:08:01:59:65:f7:c9:8d:
                    3d:f0:cf:47:d4:81:e9:92:b6:e7:b9:af:0b:7d:85:
                    cc:0f:a2:61:45:40:0d:78:e4:52:41:df:7f:7d:ba:
                    29:f1:13:81:d5:88:b4:63:4f:2b:75:af:19:22:52:
                    09:9f:c6:69:fe:bc:01:75:21:fb:ab:6a:a2:3f:19:
                    b6:5c:4b:1c:e2:e6:4b:21:dd:a1:89:9f:9c:50:44:
                    e7:7d:cc:3e:59:02:1c:f0:18:49:a4:aa:b7:f6:28:
                    78:2c:8a:db:50:21:17:b6:61:a5:b8:35:71:a7:31:
                    e0:f5:2d:ae:bc:27:44:4b:13:05:33:82:1a:9a:25:
                    db:e2:0f:24:50:d5:43:4b:43:d7:9d:a3:78:b0:81:
                    af:99:d7:28:51:b6:af:82:5c:47:58:2e:6d:32:96:
                    18:04:9c:ed:95:9d:79:4c:6b:fa:07:14:b0:e3:27:
                    94:47:63:3d:3a:12:85:13:c2:5f:83:d4:ad:44:fd:
                    3a:42:a8:01:ce:2b:37:71:d9:70:b1:5f:a6:f9:b0:
                    6e:92:7a:82:c6:6b:31:fa:b1:69:c3:c2:45:ab:96:
                    4f:4e:ec:7a:b3:40:bb:1a:94:2c:7a:31:eb:9e:54:
                    69:79:ac:43:c2:3f:8c:a9:61:2c:26:b8:ac:d2:06:
                    bf:0c:d1:e4:e3:61:4a:c3:3c:d4:f4:bc:e0:76:f5:
                    9b:bd:4d:ef:d8:62:20:58:47:a5:17:b2:49:2c:26:
                    91:7e:a0:d0:c4:b1:0f:ea:56:27:74:be:36:c4:34:
                    42:c6:b8:ef:35:b5:0d:40:bd:a5:7d:5a:cd:19:e3:
                    d6:47:2d:dd:26:da:b4:02:7e:37:77:62:f3:33:86:
                    ec:d4:dd:02:22:e3:5f:c1:9a:8e:cc:ce:77:5a:fb:
                    90:5b:99:f1:0e:9d:6b:79:d7:3c:b8:8b:57:2b:bd:
                    51:93:13
                Exponent: 65537 (0x10001)
        X509v3 extensions:
            X509v3 Basic Constraints: 
                CA:FALSE
            Netscape Comment: 
                Easy-RSA Generated Certificate
            X509v3 Subject Key Identifier: 
                BC:69:1C:C9:C2:88:2D:0F:57:9D:41:E8:55:12:39:62:67:3C:D9:4A
            X509v3 Authority Key Identifier: 
                keyid:EF:38:8D:14:50:58:A7:5B:4D:9C:17:72:FC:DF:B9:AC:A7:51:B0:10
                DirName:/C=US/ST=CA/L=SanFrancisco/O=Pixglo, Inc./OU=VPN-CIE/CN=tunnel.pixglo.com/name=Bala Chandrasekaran/emailAddress=bala@pixglo.com
                serial:A6:DB:C6:83:80:E6:A0:79

            X509v3 Extended Key Usage: 
                TLS Web Client Authentication
            X509v3 Key Usage: 
                Digital Signature
    Signature Algorithm: sha1WithRSAEncryption
         b9:c4:23:7c:30:d8:4b:b7:cf:6a:3c:39:0b:e0:50:f5:1d:78:
         75:ae:16:4d:66:a1:55:31:8a:e9:bc:b4:78:2f:b4:db:ae:49:
         9d:a0:a8:bc:7b:0e:73:bd:e8:ca:98:af:5e:27:34:ed:6b:8c:
         b2:7f:47:91:c4:10:8a:17:cc:89:6b:fe:3b:31:8e:8f:cf:29:
         b4:07:3e:9d:5e:d3:bc:cf:52:33:83:ef:3e:a3:06:4f:ac:c1:
         3e:c4:39:bb:53:38:39:9f:2b:19:5f:0f:8b:50:5b:91:16:39:
         f6:96:37:4e:a2:7e:7e:51:46:3c:37:85:17:16:b5:b7:14:4b:
         08:cc:9c:b8:cb:35:6f:cf:7f:5e:0b:84:0a:69:f7:33:df:b5:
         4b:b3:97:c3:59:3b:2e:93:18:36:12:cd:65:a9:cb:f2:32:79:
         d2:c1:b3:65:fb:a9:79:4f:f1:0a:94:ff:96:5b:6a:4d:3b:4c:
         40:e5:ec:a7:33:b1:bb:16:66:ca:2d:30:bf:9a:f9:4b:89:76:
         85:f9:48:cf:c8:c2:54:15:a7:7e:03:a4:6b:1d:37:96:b8:ab:
         ad:c1:c5:0c:48:4e:71:c4:e5:57:03:b0:f1:88:00:fa:05:81:
         4a:eb:c0:57:17:14:b1:05:2a:fb:48:ce:84:3c:be:0a:8c:2b:
         09:fc:b4:c4:21:f4:bb:bc:e1:5c:77:4b:55:51:33:02:34:39:
         2a:66:20:dc:cc:9a:08:8b:f8:ef:19:bc:ea:5d:f5:8d:ce:7d:
         a0:23:1e:33:5c:49:d1:a4:2b:a3:ab:22:ea:04:95:c0:d1:ed:
         f1:97:c8:19:0b:e8:96:5f:f5:d6:53:0f:63:0d:96:da:1d:a4:
         29:66:55:a9:87:07:03:38:c1:84:05:84:90:0d:2a:ac:84:36:
         93:f7:4d:2b:c7:ae:d3:90:09:07:26:2a:a6:88:2c:c0:44:40:
         af:ea:d1:c5:b8:9d:a4:25:9d:1c:04:6b:47:ee:27:20:d0:9b:
         cc:57:3e:1f:fc:16:f0:ad:10:4c:49:bb:68:dd:20:48:99:f2:
         34:cb:83:26:e9:34:05:d4:04:fc:f3:a3:c6:52:f1:28:31:09:
         0d:f3:09:a5:ce:04:2e:62:17:e9:d3:e4:4c:05:0e:de:f5:d0:
         f4:83:ed:dd:55:60:5e:17:0f:c8:2c:79:69:86:12:4f:77:ab:
         df:ed:2e:03:fb:57:e6:d4:1f:7f:1d:2a:c6:c2:ce:6f:5b:20:
         46:a4:95:81:e0:97:ca:72:9f:93:db:e7:b4:8a:06:57:18:28:
         40:9c:0b:ee:30:c5:12:ae:ee:bc:95:78:b6:ce:f7:77:61:13:
         ca:c1:1c:5c:2d:ed:98:9b
-----BEGIN CERTIFICATE-----
MIIHSDCCBTCgAwIBAgICA3QwDQYJKoZIhvcNAQEFBQAwgbQxCzAJBgNVBAYTAlVT
MQswCQYDVQQIEwJDQTEVMBMGA1UEBxMMU2FuRnJhbmNpc2NvMRUwEwYDVQQKEwxQ
aXhnbG8sIEluYy4xEDAOBgNVBAsTB1ZQTi1DSUUxGjAYBgNVBAMTEXR1bm5lbC5w
aXhnbG8uY29tMRwwGgYDVQQpExNCYWxhIENoYW5kcmFzZWthcmFuMR4wHAYJKoZI
hvcNAQkBFg9iYWxhQHBpeGdsby5jb20wHhcNMTgwMjE0MDY0NjQ0WhcNMjgwMjEy
MDY0NjQ0WjCBqTELMAkGA1UEBhMCVVMxCzAJBgNVBAgTAkNBMRUwEwYDVQQHEwxT
YW5GcmFuY2lzY28xFTATBgNVBAoTDFBpeGdsbywgSW5jLjEQMA4GA1UECxMHVlBO
LUNJRTEPMA0GA1UEAxMGY2llODgzMRwwGgYDVQQpExNCYWxhIENoYW5kcmFzZWth
cmFuMR4wHAYJKoZIhvcNAQkBFg9iYWxhQHBpeGdsby5jb20wggIiMA0GCSqGSIb3
DQEBAQUAA4ICDwAwggIKAoICAQCs9ucC3ppnxiezwntshLqaDnm5oFJjWjedFkJg
3X9s5q6krwQrYCh0x1J8hIQ4w0HRazPvMIOPkDGhzaBpwChKD8wGDAgMmrFJhp8m
EEIsvHG0yIwHZn+EePkmunyybeAH4m5N4O6bWaXZ9SuDAJXbx3Hgh+EEGznU6gaK
s+DGV3bhMdsCoodV3JiuB9Ny3fa3nl8W2esi9CbPGcNZCAFZZffJjT3wz0fUgemS
tue5rwt9hcwPomFFQA145FJB3399uinxE4HViLRjTyt1rxkiUgmfxmn+vAF1Ifur
aqI/GbZcSxzi5ksh3aGJn5xQROd9zD5ZAhzwGEmkqrf2KHgsittQIRe2YaW4NXGn
MeD1La68J0RLEwUzghqaJdviDyRQ1UNLQ9edo3iwga+Z1yhRtq+CXEdYLm0ylhgE
nO2VnXlMa/oHFLDjJ5RHYz06EoUTwl+D1K1E/TpCqAHOKzdx2XCxX6b5sG6SeoLG
azH6sWnDwkWrlk9O7HqzQLsalCx6MeueVGl5rEPCP4ypYSwmuKzSBr8M0eTjYUrD
PNT0vOB29Zu9Te/YYiBYR6UXskksJpF+oNDEsQ/qVid0vjbENELGuO81tQ1AvaV9
Ws0Z49ZHLd0m2rQCfjd3YvMzhuzU3QIi41/Bmo7Mznda+5BbmfEOnWt51zy4i1cr
vVGTEwIDAQABo4IBazCCAWcwCQYDVR0TBAIwADAtBglghkgBhvhCAQ0EIBYeRWFz
eS1SU0EgR2VuZXJhdGVkIENlcnRpZmljYXRlMB0GA1UdDgQWBBS8aRzJwogtD1ed
QehVEjliZzzZSjCB6QYDVR0jBIHhMIHegBTvOI0UUFinW02cF3L837msp1GwEKGB
uqSBtzCBtDELMAkGA1UEBhMCVVMxCzAJBgNVBAgTAkNBMRUwEwYDVQQHEwxTYW5G
cmFuY2lzY28xFTATBgNVBAoTDFBpeGdsbywgSW5jLjEQMA4GA1UECxMHVlBOLUNJ
RTEaMBgGA1UEAxMRdHVubmVsLnBpeGdsby5jb20xHDAaBgNVBCkTE0JhbGEgQ2hh
bmRyYXNla2FyYW4xHjAcBgkqhkiG9w0BCQEWD2JhbGFAcGl4Z2xvLmNvbYIJAKbb
xoOA5qB5MBMGA1UdJQQMMAoGCCsGAQUFBwMCMAsGA1UdDwQEAwIHgDANBgkqhkiG
9w0BAQUFAAOCAgEAucQjfDDYS7fPajw5C+BQ9R14da4WTWahVTGK6by0eC+0265J
naCovHsOc73oypivXic07WuMsn9HkcQQihfMiWv+OzGOj88ptAc+nV7TvM9SM4Pv
PqMGT6zBPsQ5u1M4OZ8rGV8Pi1BbkRY59pY3TqJ+flFGPDeFFxa1txRLCMycuMs1
b89/XguECmn3M9+1S7OXw1k7LpMYNhLNZanL8jJ50sGzZfupeU/xCpT/lltqTTtM
QOXspzOxuxZmyi0wv5r5S4l2hflIz8jCVBWnfgOkax03lrirrcHFDEhOccTlVwOw
8YgA+gWBSuvAVxcUsQUq+0jOhDy+CowrCfy0xCH0u7zhXHdLVVEzAjQ5KmYg3Mya
CIv47xm86l31jc59oCMeM1xJ0aQro6si6gSVwNHt8ZfIGQvoll/11lMPYw2W2h2k
KWZVqYcHAzjBhAWEkA0qrIQ2k/dNK8eu05AJByYqpogswERAr+rRxbidpCWdHARr
R+4nINCbzFc+H/wW8K0QTEm7aN0gSJnyNMuDJuk0BdQE/POjxlLxKDEJDfMJpc4E
LmIX6dPkTAUO3vXQ9IPt3VVgXhcPyCx5aYYST3er3+0uA/tX5tQffx0qxsLOb1sg
RqSVgeCXynKfk9vntIoGVxgoQJwL7jDFEq7uvJV4ts73d2ETysEcXC3tmJs=
-----END CERTIFICATE-----
