Certificate:
    Data:
        Version: 3 (0x2)
        Serial Number: 886 (0x376)
    Signature Algorithm: sha1WithRSAEncryption
        Issuer: C=US, ST=CA, L=SanFrancisco, O=Pixglo, Inc., OU=VPN-CIE, CN=tunnel.pixglo.com/name=Bala Chandrasekaran/emailAddress=bala@pixglo.com
        Validity
            Not Before: Feb 14 06:46:46 2018 GMT
            Not After : Feb 12 06:46:46 2028 GMT
        Subject: C=US, ST=CA, L=SanFrancisco, O=Pixglo, Inc., OU=VPN-CIE, CN=cie885/name=Bala Chandrasekaran/emailAddress=bala@pixglo.com
        Subject Public Key Info:
            Public Key Algorithm: rsaEncryption
                Public-Key: (4096 bit)
                Modulus:
                    00:b4:2a:8c:bd:de:64:3c:2b:b7:6a:91:52:a6:00:
                    4a:f7:64:5e:1c:0e:84:37:ba:44:9a:4d:23:cc:15:
                    56:1a:d6:bb:0c:92:53:f5:bd:f5:02:5f:b2:0d:e0:
                    ee:fc:48:4c:eb:e5:d5:0f:bb:e9:d1:54:ef:01:df:
                    e3:f8:bf:cd:15:69:7d:7d:ff:3a:0a:63:25:5e:86:
                    4b:ba:8b:21:6e:25:04:b7:2d:4a:ed:06:5f:50:4d:
                    3a:1b:e3:41:c9:f4:1b:60:e1:19:ca:5d:f2:33:c6:
                    e1:fb:01:be:e7:75:d1:63:7c:af:33:f0:7b:f8:f1:
                    2e:cd:8c:68:6b:1e:61:bb:7d:c5:50:e6:d8:65:9d:
                    14:55:fa:e8:12:0f:b1:c6:7b:14:5f:d5:c6:3c:b4:
                    d1:76:a1:42:63:23:bb:25:d0:80:f7:fd:48:3f:b2:
                    5c:5f:52:c4:a6:e7:d0:29:5e:ef:e5:f0:6c:8a:1e:
                    f9:88:4c:11:3c:fd:48:64:4f:3d:a0:01:98:63:12:
                    a6:ba:06:19:14:6b:cb:bb:a5:b3:84:a6:02:d7:9a:
                    65:e9:df:60:3b:52:57:de:90:71:03:f4:b6:c8:83:
                    61:83:df:28:45:88:be:cc:91:29:91:80:a0:e2:48:
                    56:23:c5:98:ef:a5:50:98:4a:ec:cb:7c:58:74:31:
                    d2:d5:5c:b4:89:70:87:bb:11:c3:17:e4:d9:b5:c7:
                    54:c7:63:13:ef:9f:62:d4:8c:7e:5b:03:43:41:27:
                    a1:45:99:d9:5a:89:fd:11:16:2b:af:c0:b2:07:45:
                    d5:64:90:99:61:c1:1f:c9:90:7e:ac:94:cd:38:c0:
                    d1:de:44:d6:0c:97:f2:36:55:7e:36:87:f4:36:d0:
                    89:bb:0b:a1:27:f9:0a:46:00:15:8b:2c:7e:17:b5:
                    a9:9d:0d:2d:42:a8:d2:9d:12:11:88:f9:20:03:39:
                    26:8a:cc:4b:c7:3f:0a:fa:91:d2:9f:8c:1a:cb:78:
                    89:e3:10:ea:4a:bd:9d:90:ec:cc:d1:52:85:90:43:
                    20:4b:ce:b4:89:25:71:62:a5:e0:93:82:86:a4:18:
                    ef:09:29:d2:ec:53:81:f3:e4:bf:20:9c:a8:59:d1:
                    95:3c:e9:19:c7:ac:8c:83:39:97:22:c9:c0:e3:27:
                    cd:8e:21:53:3c:e4:ae:54:84:54:72:fe:db:26:83:
                    08:aa:cd:41:a6:05:fa:27:d0:0c:fc:27:52:41:e5:
                    c6:9e:80:8e:51:37:01:6f:73:71:bb:c8:cb:3e:63:
                    a6:0a:0a:89:da:b7:54:86:fd:cb:95:ca:b6:ca:f6:
                    33:d5:35:9f:c6:21:ec:da:5a:bb:52:5d:85:f4:19:
                    02:b3:b3
                Exponent: 65537 (0x10001)
        X509v3 extensions:
            X509v3 Basic Constraints: 
                CA:FALSE
            Netscape Comment: 
                Easy-RSA Generated Certificate
            X509v3 Subject Key Identifier: 
                7B:80:D6:76:6F:98:C0:FB:94:40:B5:63:7A:78:43:D5:90:AD:12:F0
            X509v3 Authority Key Identifier: 
                keyid:EF:38:8D:14:50:58:A7:5B:4D:9C:17:72:FC:DF:B9:AC:A7:51:B0:10
                DirName:/C=US/ST=CA/L=SanFrancisco/O=Pixglo, Inc./OU=VPN-CIE/CN=tunnel.pixglo.com/name=Bala Chandrasekaran/emailAddress=bala@pixglo.com
                serial:A6:DB:C6:83:80:E6:A0:79

            X509v3 Extended Key Usage: 
                TLS Web Client Authentication
            X509v3 Key Usage: 
                Digital Signature
    Signature Algorithm: sha1WithRSAEncryption
         89:d2:fa:d9:15:29:b6:93:cd:bc:01:58:b0:59:96:d4:59:c1:
         7b:cf:17:f6:af:67:02:b7:5c:e5:27:03:96:87:6e:42:27:d8:
         2b:87:49:da:05:d9:a7:d8:d5:d3:27:b6:9f:1f:a3:b7:94:f0:
         1d:8e:68:1b:f9:25:83:2f:5d:33:d0:71:d8:37:d3:57:2c:84:
         2a:01:e7:99:93:e4:65:e5:32:22:26:cc:fa:90:42:40:11:b2:
         d9:44:aa:ac:d7:b4:b6:4e:03:90:e6:ff:b9:d3:b9:73:af:2c:
         25:3c:48:e9:7e:b7:d8:f9:6a:20:fc:f4:b5:bd:3f:20:2c:f2:
         d4:95:44:75:0d:bf:71:87:a7:18:6a:2b:a8:a3:29:90:07:6a:
         a1:ae:20:f2:95:2f:84:b5:e0:6a:d0:ce:e5:94:7e:5b:17:11:
         d9:ea:3a:8b:d7:8f:23:7f:aa:a8:c0:ab:87:fc:1a:26:ca:87:
         07:d0:3c:8a:29:59:87:94:57:25:78:40:ef:1f:c1:7c:49:ff:
         01:5e:9d:41:33:90:e8:b4:02:b5:3e:71:f4:4f:1d:05:d9:f2:
         13:4e:80:97:0f:4e:32:0d:8c:52:c3:e4:70:b6:7b:33:cd:4d:
         72:6c:00:29:b8:1b:09:31:92:d8:67:73:1f:b6:8b:7a:5b:7b:
         6a:f5:22:cf:b5:53:65:72:90:78:ec:13:cf:3c:73:43:a0:32:
         26:52:69:b4:f4:cb:e6:18:1f:c9:ed:8b:8d:c7:50:06:d2:c7:
         fd:f3:0c:34:01:d1:34:0a:8d:d1:82:80:6f:6d:38:22:d6:18:
         44:35:a0:c3:4b:d7:0f:70:c5:ca:a5:36:69:ff:4f:a9:e7:3e:
         b4:bd:35:30:b9:c3:94:d8:23:be:c1:67:32:c1:be:97:e6:d4:
         51:ea:70:22:d8:54:a1:57:bf:ed:ec:f0:fe:26:7e:fc:9c:66:
         03:c6:c6:c8:f4:ed:c5:cd:e8:1d:65:2b:da:81:78:6d:d5:a1:
         40:1b:b2:91:d1:e8:8a:29:59:bb:fd:32:4d:bf:1e:6a:72:8c:
         e8:eb:27:2c:85:be:75:55:54:6b:0e:1f:11:38:92:13:98:6a:
         51:f2:f3:5d:38:e3:18:f6:e5:4a:36:bb:82:af:ff:85:a6:d4:
         34:7f:37:00:51:e4:0c:7a:9a:b1:a3:5d:12:4a:b1:d8:72:51:
         91:7c:36:d7:a3:21:12:28:55:c1:ec:f3:c4:8b:fb:06:4c:03:
         f0:58:e0:d6:34:8e:1f:85:30:04:60:23:4e:d3:51:14:54:17:
         b0:47:e5:3b:41:28:7f:9e:93:20:fc:05:46:3a:bb:df:d8:e7:
         c5:a8:fa:d5:ee:01:7b:b3
-----BEGIN CERTIFICATE-----
MIIHSDCCBTCgAwIBAgICA3YwDQYJKoZIhvcNAQEFBQAwgbQxCzAJBgNVBAYTAlVT
MQswCQYDVQQIEwJDQTEVMBMGA1UEBxMMU2FuRnJhbmNpc2NvMRUwEwYDVQQKEwxQ
aXhnbG8sIEluYy4xEDAOBgNVBAsTB1ZQTi1DSUUxGjAYBgNVBAMTEXR1bm5lbC5w
aXhnbG8uY29tMRwwGgYDVQQpExNCYWxhIENoYW5kcmFzZWthcmFuMR4wHAYJKoZI
hvcNAQkBFg9iYWxhQHBpeGdsby5jb20wHhcNMTgwMjE0MDY0NjQ2WhcNMjgwMjEy
MDY0NjQ2WjCBqTELMAkGA1UEBhMCVVMxCzAJBgNVBAgTAkNBMRUwEwYDVQQHEwxT
YW5GcmFuY2lzY28xFTATBgNVBAoTDFBpeGdsbywgSW5jLjEQMA4GA1UECxMHVlBO
LUNJRTEPMA0GA1UEAxMGY2llODg1MRwwGgYDVQQpExNCYWxhIENoYW5kcmFzZWth
cmFuMR4wHAYJKoZIhvcNAQkBFg9iYWxhQHBpeGdsby5jb20wggIiMA0GCSqGSIb3
DQEBAQUAA4ICDwAwggIKAoICAQC0Koy93mQ8K7dqkVKmAEr3ZF4cDoQ3ukSaTSPM
FVYa1rsMklP1vfUCX7IN4O78SEzr5dUPu+nRVO8B3+P4v80VaX19/zoKYyVehku6
iyFuJQS3LUrtBl9QTTob40HJ9Btg4RnKXfIzxuH7Ab7nddFjfK8z8Hv48S7NjGhr
HmG7fcVQ5thlnRRV+ugSD7HGexRf1cY8tNF2oUJjI7sl0ID3/Ug/slxfUsSm59Ap
Xu/l8GyKHvmITBE8/UhkTz2gAZhjEqa6BhkUa8u7pbOEpgLXmmXp32A7UlfekHED
9LbIg2GD3yhFiL7MkSmRgKDiSFYjxZjvpVCYSuzLfFh0MdLVXLSJcIe7EcMX5Nm1
x1THYxPvn2LUjH5bA0NBJ6FFmdlaif0RFiuvwLIHRdVkkJlhwR/JkH6slM04wNHe
RNYMl/I2VX42h/Q20Im7C6En+QpGABWLLH4XtamdDS1CqNKdEhGI+SADOSaKzEvH
Pwr6kdKfjBrLeInjEOpKvZ2Q7MzRUoWQQyBLzrSJJXFipeCTgoakGO8JKdLsU4Hz
5L8gnKhZ0ZU86RnHrIyDOZciycDjJ82OIVM85K5UhFRy/tsmgwiqzUGmBfon0Az8
J1JB5caegI5RNwFvc3G7yMs+Y6YKConat1SG/cuVyrbK9jPVNZ/GIezaWrtSXYX0
GQKzswIDAQABo4IBazCCAWcwCQYDVR0TBAIwADAtBglghkgBhvhCAQ0EIBYeRWFz
eS1SU0EgR2VuZXJhdGVkIENlcnRpZmljYXRlMB0GA1UdDgQWBBR7gNZ2b5jA+5RA
tWN6eEPVkK0S8DCB6QYDVR0jBIHhMIHegBTvOI0UUFinW02cF3L837msp1GwEKGB
uqSBtzCBtDELMAkGA1UEBhMCVVMxCzAJBgNVBAgTAkNBMRUwEwYDVQQHEwxTYW5G
cmFuY2lzY28xFTATBgNVBAoTDFBpeGdsbywgSW5jLjEQMA4GA1UECxMHVlBOLUNJ
RTEaMBgGA1UEAxMRdHVubmVsLnBpeGdsby5jb20xHDAaBgNVBCkTE0JhbGEgQ2hh
bmRyYXNla2FyYW4xHjAcBgkqhkiG9w0BCQEWD2JhbGFAcGl4Z2xvLmNvbYIJAKbb
xoOA5qB5MBMGA1UdJQQMMAoGCCsGAQUFBwMCMAsGA1UdDwQEAwIHgDANBgkqhkiG
9w0BAQUFAAOCAgEAidL62RUptpPNvAFYsFmW1FnBe88X9q9nArdc5ScDloduQifY
K4dJ2gXZp9jV0ye2nx+jt5TwHY5oG/klgy9dM9Bx2DfTVyyEKgHnmZPkZeUyIibM
+pBCQBGy2USqrNe0tk4DkOb/udO5c68sJTxI6X632PlqIPz0tb0/ICzy1JVEdQ2/
cYenGGorqKMpkAdqoa4g8pUvhLXgatDO5ZR+WxcR2eo6i9ePI3+qqMCrh/waJsqH
B9A8iilZh5RXJXhA7x/BfEn/AV6dQTOQ6LQCtT5x9E8dBdnyE06Alw9OMg2MUsPk
cLZ7M81NcmwAKbgbCTGS2GdzH7aLelt7avUiz7VTZXKQeOwTzzxzQ6AyJlJptPTL
5hgfye2LjcdQBtLH/fMMNAHRNAqN0YKAb204ItYYRDWgw0vXD3DFyqU2af9Pqec+
tL01MLnDlNgjvsFnMsG+l+bUUepwIthUoVe/7ezw/iZ+/JxmA8bGyPTtxc3oHWUr
2oF4bdWhQBuykdHoiilZu/0yTb8eanKM6OsnLIW+dVVUaw4fETiSE5hqUfLzXTjj
GPblSja7gq//habUNH83AFHkDHqasaNdEkqx2HJRkXw216MhEihVwezzxIv7BkwD
8Fjg1jSOH4UwBGAjTtNRFFQXsEflO0Eof56TIPwFRjq739jnxaj61e4Be7M=
-----END CERTIFICATE-----
