Certificate:
    Data:
        Version: 3 (0x2)
        Serial Number: 888 (0x378)
    Signature Algorithm: sha1WithRSAEncryption
        Issuer: C=US, ST=CA, L=SanFrancisco, O=Pixglo, Inc., OU=VPN-CIE, CN=tunnel.pixglo.com/name=Bala Chandrasekaran/emailAddress=bala@pixglo.com
        Validity
            Not Before: Feb 14 06:46:50 2018 GMT
            Not After : Feb 12 06:46:50 2028 GMT
        Subject: C=US, ST=CA, L=SanFrancisco, O=Pixglo, Inc., OU=VPN-CIE, CN=cie887/name=Bala Chandrasekaran/emailAddress=bala@pixglo.com
        Subject Public Key Info:
            Public Key Algorithm: rsaEncryption
                Public-Key: (4096 bit)
                Modulus:
                    00:c2:d3:5b:85:68:2b:85:33:b9:78:cb:26:01:31:
                    bb:0f:05:14:bb:67:15:31:d1:73:da:51:ae:d0:7b:
                    18:9f:81:cc:4f:b1:b9:c1:90:fc:22:79:48:36:ae:
                    a5:ee:8e:c9:ec:67:30:18:a1:73:22:17:d0:05:e6:
                    be:33:16:51:cb:cd:f1:86:4c:71:b1:a0:f0:2b:e7:
                    28:00:82:d6:eb:69:07:f1:5f:d9:73:c3:37:6c:b8:
                    1e:f1:b7:a9:48:80:31:05:1a:fb:a3:34:e4:c3:33:
                    a4:ea:42:88:25:e8:7c:1d:97:cd:c7:0f:b7:d1:b8:
                    0c:31:12:2a:fa:9a:34:64:67:bc:e4:b3:48:36:60:
                    cf:d3:48:76:47:ff:05:35:ad:85:6a:90:2a:07:a2:
                    31:51:74:bf:5b:0d:b5:05:fb:6b:89:ed:37:c5:2e:
                    e7:af:0b:bc:2e:d0:45:c9:ae:d3:99:fd:1d:44:f6:
                    a4:1d:84:94:78:98:1f:01:fb:8f:14:0a:39:46:73:
                    c0:b1:06:86:95:94:f3:d5:e5:72:ad:57:04:22:78:
                    f6:44:86:3c:78:c2:19:7c:7d:54:b7:87:b6:9b:09:
                    84:ce:94:3b:be:3b:fe:80:6c:35:9a:4b:2a:bc:cf:
                    bf:9a:35:29:95:be:f1:55:66:e7:22:76:1b:97:0c:
                    58:8d:d5:f6:81:f3:28:15:52:61:14:cb:c1:42:66:
                    c3:a7:0e:6a:43:cd:cb:50:fc:a1:f7:0e:b0:57:31:
                    c4:ea:d5:5d:0e:16:d6:e6:b2:6a:a6:67:75:a7:7b:
                    7c:3f:9e:bb:0a:e7:bb:67:db:6c:58:07:78:a9:2f:
                    c0:67:5c:de:79:64:47:af:58:08:51:e7:cf:5a:72:
                    f6:ce:aa:75:98:d1:93:fa:75:b9:45:5f:9b:b6:25:
                    9d:50:38:c7:03:f3:89:9d:11:f7:ad:f7:99:f7:63:
                    29:06:bc:80:de:2f:8f:5c:43:f9:89:79:33:26:ba:
                    40:13:cf:c4:ef:64:52:2f:ac:2c:c5:fc:71:e8:df:
                    f1:12:38:23:3d:b8:6f:ab:79:d6:2e:e3:74:54:15:
                    e1:a7:df:46:ef:3a:2a:be:82:b4:4b:31:72:42:b1:
                    54:67:ca:82:bb:ea:bc:49:e9:34:78:6d:6b:ac:51:
                    88:03:8e:02:5c:fb:79:91:88:76:a1:bd:54:f5:59:
                    16:df:02:03:c5:81:fc:96:5d:d6:f7:e2:8c:5c:cc:
                    2b:26:5d:81:6f:be:47:f6:7d:82:a8:8d:c7:c0:31:
                    09:6e:a7:8c:84:86:b1:19:5d:86:20:b4:cf:5f:d2:
                    bf:de:71:8a:70:96:7b:63:10:da:3f:46:a3:5f:b2:
                    b1:b6:b3
                Exponent: 65537 (0x10001)
        X509v3 extensions:
            X509v3 Basic Constraints: 
                CA:FALSE
            Netscape Comment: 
                Easy-RSA Generated Certificate
            X509v3 Subject Key Identifier: 
                27:C5:F9:EB:AF:7D:4E:38:0D:A0:4E:BA:1E:BD:3D:38:6A:8E:C0:43
            X509v3 Authority Key Identifier: 
                keyid:EF:38:8D:14:50:58:A7:5B:4D:9C:17:72:FC:DF:B9:AC:A7:51:B0:10
                DirName:/C=US/ST=CA/L=SanFrancisco/O=Pixglo, Inc./OU=VPN-CIE/CN=tunnel.pixglo.com/name=Bala Chandrasekaran/emailAddress=bala@pixglo.com
                serial:A6:DB:C6:83:80:E6:A0:79

            X509v3 Extended Key Usage: 
                TLS Web Client Authentication
            X509v3 Key Usage: 
                Digital Signature
    Signature Algorithm: sha1WithRSAEncryption
         c7:49:85:3b:64:51:85:02:50:34:6b:7a:cd:c3:e7:02:25:bd:
         68:4c:31:f7:a2:7d:9f:ea:9b:30:61:a2:92:3b:d5:6b:40:ed:
         d5:d8:ab:b5:ee:5a:e0:05:e6:83:5f:a1:60:1b:fd:9a:a8:1e:
         9a:8f:50:89:db:c6:88:e0:79:de:a4:a1:2a:53:4d:6e:2a:8d:
         97:a5:f9:85:b9:eb:e0:5d:d9:69:e0:88:4e:a1:b1:ff:76:de:
         06:a0:44:52:b7:e3:ed:4e:e8:f0:a2:12:79:37:e9:99:b7:7c:
         92:1c:f0:81:a5:49:eb:dd:b3:0f:91:bd:d3:77:de:8d:da:47:
         7a:0b:f6:a1:79:bd:e0:27:c7:d9:54:56:79:da:bc:7c:0b:1d:
         7c:6b:5b:2d:b4:f1:c8:20:7c:96:c6:cf:d3:10:9c:b6:a3:fa:
         ed:27:b5:48:a7:7a:e5:5e:60:bf:b7:28:08:a8:64:d1:29:b8:
         41:b2:1d:d6:9e:d9:96:fd:46:f6:35:bb:a3:0f:89:84:4b:da:
         2b:fe:73:da:9c:2f:5a:74:bd:d0:f9:f5:48:d9:83:d4:a3:e3:
         1b:e9:ae:87:c7:7c:7e:dd:17:77:1e:23:8a:90:15:93:06:c7:
         65:a3:11:6b:67:42:f6:96:56:d1:c5:8f:88:a2:52:ba:40:ff:
         3d:95:f5:3e:ce:20:e4:01:e1:da:33:b6:30:55:04:ed:0b:79:
         02:47:52:1e:b7:7a:9c:26:80:5f:d0:76:9e:57:2f:d3:49:12:
         9c:9a:2c:7c:ab:e8:31:bc:6d:8a:6a:6e:93:77:1d:19:a1:25:
         0b:09:2c:51:46:54:e9:45:b7:4a:b9:2e:1c:bd:38:dc:3c:6b:
         8b:ce:45:f5:35:98:23:c9:37:d2:5d:a3:fb:5a:76:17:98:ef:
         6e:c9:43:eb:fb:05:d2:e4:6f:67:06:3e:40:f9:cc:52:49:b3:
         75:06:6f:9f:eb:8f:ea:ae:a8:d7:55:fd:42:18:7b:ea:ce:dd:
         30:57:15:61:34:97:70:c0:e6:20:31:5d:a6:9c:be:bb:51:4f:
         9b:66:31:73:6d:f4:cb:fc:8b:1b:63:83:35:3b:14:ea:51:2b:
         7b:ce:52:39:83:80:15:a7:8a:c0:a5:ae:65:e7:11:fa:6c:b8:
         8f:d6:12:a4:79:96:2c:1e:2c:57:43:c0:ad:52:3c:ed:05:73:
         04:d5:00:1d:ac:e5:9b:53:dd:e6:a4:5b:1b:d7:57:5e:dc:f4:
         2f:c9:21:a4:ec:5c:9e:5a:43:bc:8f:2c:d5:67:c5:3c:ff:b7:
         db:16:0e:8f:84:6d:04:d4:ad:a2:03:a4:30:f8:5d:9f:5b:ac:
         41:63:29:33:6f:95:c5:88
-----BEGIN CERTIFICATE-----
MIIHSDCCBTCgAwIBAgICA3gwDQYJKoZIhvcNAQEFBQAwgbQxCzAJBgNVBAYTAlVT
MQswCQYDVQQIEwJDQTEVMBMGA1UEBxMMU2FuRnJhbmNpc2NvMRUwEwYDVQQKEwxQ
aXhnbG8sIEluYy4xEDAOBgNVBAsTB1ZQTi1DSUUxGjAYBgNVBAMTEXR1bm5lbC5w
aXhnbG8uY29tMRwwGgYDVQQpExNCYWxhIENoYW5kcmFzZWthcmFuMR4wHAYJKoZI
hvcNAQkBFg9iYWxhQHBpeGdsby5jb20wHhcNMTgwMjE0MDY0NjUwWhcNMjgwMjEy
MDY0NjUwWjCBqTELMAkGA1UEBhMCVVMxCzAJBgNVBAgTAkNBMRUwEwYDVQQHEwxT
YW5GcmFuY2lzY28xFTATBgNVBAoTDFBpeGdsbywgSW5jLjEQMA4GA1UECxMHVlBO
LUNJRTEPMA0GA1UEAxMGY2llODg3MRwwGgYDVQQpExNCYWxhIENoYW5kcmFzZWth
cmFuMR4wHAYJKoZIhvcNAQkBFg9iYWxhQHBpeGdsby5jb20wggIiMA0GCSqGSIb3
DQEBAQUAA4ICDwAwggIKAoICAQDC01uFaCuFM7l4yyYBMbsPBRS7ZxUx0XPaUa7Q
exifgcxPsbnBkPwieUg2rqXujsnsZzAYoXMiF9AF5r4zFlHLzfGGTHGxoPAr5ygA
gtbraQfxX9lzwzdsuB7xt6lIgDEFGvujNOTDM6TqQogl6Hwdl83HD7fRuAwxEir6
mjRkZ7zks0g2YM/TSHZH/wU1rYVqkCoHojFRdL9bDbUF+2uJ7TfFLuevC7wu0EXJ
rtOZ/R1E9qQdhJR4mB8B+48UCjlGc8CxBoaVlPPV5XKtVwQiePZEhjx4whl8fVS3
h7abCYTOlDu+O/6AbDWaSyq8z7+aNSmVvvFVZucidhuXDFiN1faB8ygVUmEUy8FC
ZsOnDmpDzctQ/KH3DrBXMcTq1V0OFtbmsmqmZ3Wne3w/nrsK57tn22xYB3ipL8Bn
XN55ZEevWAhR589acvbOqnWY0ZP6dblFX5u2JZ1QOMcD84mdEfet95n3YykGvIDe
L49cQ/mJeTMmukATz8TvZFIvrCzF/HHo3/ESOCM9uG+redYu43RUFeGn30bvOiq+
grRLMXJCsVRnyoK76rxJ6TR4bWusUYgDjgJc+3mRiHahvVT1WRbfAgPFgfyWXdb3
4oxczCsmXYFvvkf2fYKojcfAMQlup4yEhrEZXYYgtM9f0r/ecYpwlntjENo/RqNf
srG2swIDAQABo4IBazCCAWcwCQYDVR0TBAIwADAtBglghkgBhvhCAQ0EIBYeRWFz
eS1SU0EgR2VuZXJhdGVkIENlcnRpZmljYXRlMB0GA1UdDgQWBBQnxfnrr31OOA2g
TroevT04ao7AQzCB6QYDVR0jBIHhMIHegBTvOI0UUFinW02cF3L837msp1GwEKGB
uqSBtzCBtDELMAkGA1UEBhMCVVMxCzAJBgNVBAgTAkNBMRUwEwYDVQQHEwxTYW5G
cmFuY2lzY28xFTATBgNVBAoTDFBpeGdsbywgSW5jLjEQMA4GA1UECxMHVlBOLUNJ
RTEaMBgGA1UEAxMRdHVubmVsLnBpeGdsby5jb20xHDAaBgNVBCkTE0JhbGEgQ2hh
bmRyYXNla2FyYW4xHjAcBgkqhkiG9w0BCQEWD2JhbGFAcGl4Z2xvLmNvbYIJAKbb
xoOA5qB5MBMGA1UdJQQMMAoGCCsGAQUFBwMCMAsGA1UdDwQEAwIHgDANBgkqhkiG
9w0BAQUFAAOCAgEAx0mFO2RRhQJQNGt6zcPnAiW9aEwx96J9n+qbMGGikjvVa0Dt
1dirte5a4AXmg1+hYBv9mqgemo9QidvGiOB53qShKlNNbiqNl6X5hbnr4F3ZaeCI
TqGx/3beBqBEUrfj7U7o8KISeTfpmbd8khzwgaVJ692zD5G903fejdpHegv2oXm9
4CfH2VRWedq8fAsdfGtbLbTxyCB8lsbP0xCctqP67Se1SKd65V5gv7coCKhk0Sm4
QbId1p7Zlv1G9jW7ow+JhEvaK/5z2pwvWnS90Pn1SNmD1KPjG+muh8d8ft0Xdx4j
ipAVkwbHZaMRa2dC9pZW0cWPiKJSukD/PZX1Ps4g5AHh2jO2MFUE7Qt5AkdSHrd6
nCaAX9B2nlcv00kSnJosfKvoMbxtimpuk3cdGaElCwksUUZU6UW3SrkuHL043Dxr
i85F9TWYI8k30l2j+1p2F5jvbslD6/sF0uRvZwY+QPnMUkmzdQZvn+uP6q6o11X9
Qhh76s7dMFcVYTSXcMDmIDFdppy+u1FPm2Yxc230y/yLG2ODNTsU6lEre85SOYOA
FaeKwKWuZecR+my4j9YSpHmWLB4sV0PArVI87QVzBNUAHazlm1Pd5qRbG9dXXtz0
L8khpOxcnlpDvI8s1WfFPP+32xYOj4RtBNStogOkMPhdn1usQWMpM2+VxYg=
-----END CERTIFICATE-----
