Certificate:
    Data:
        Version: 3 (0x2)
        Serial Number: 890 (0x37a)
    Signature Algorithm: sha1WithRSAEncryption
        Issuer: C=US, ST=CA, L=SanFrancisco, O=Pixglo, Inc., OU=VPN-CIE, CN=tunnel.pixglo.com/name=Bala Chandrasekaran/emailAddress=bala@pixglo.com
        Validity
            Not Before: Feb 14 06:46:52 2018 GMT
            Not After : Feb 12 06:46:52 2028 GMT
        Subject: C=US, ST=CA, L=SanFrancisco, O=Pixglo, Inc., OU=VPN-CIE, CN=cie889/name=Bala Chandrasekaran/emailAddress=bala@pixglo.com
        Subject Public Key Info:
            Public Key Algorithm: rsaEncryption
                Public-Key: (4096 bit)
                Modulus:
                    00:e0:fa:ae:5d:35:4b:06:a1:45:11:0f:a7:b1:9a:
                    e2:79:fb:23:4d:b7:80:44:f5:d9:ae:64:9f:70:ec:
                    50:32:39:c4:73:ac:a3:be:d1:27:77:83:a8:8d:fe:
                    47:63:26:b8:cb:b3:be:4c:2b:6b:50:26:ce:35:c7:
                    92:b8:fe:eb:c7:91:ba:db:d9:76:60:e5:bb:da:51:
                    60:47:3a:4c:44:6c:1f:26:1f:fc:13:46:cd:06:7a:
                    23:6b:32:e7:97:80:4e:b9:b8:11:1f:c7:f3:af:21:
                    b4:95:7b:fe:fb:97:8e:7d:68:bc:bd:99:9b:d2:8f:
                    91:cd:e0:13:1b:c2:82:18:84:c4:b4:44:4b:cf:31:
                    0d:84:81:2a:55:78:97:81:0e:4f:1e:eb:bf:7f:0f:
                    a4:39:01:07:a5:be:60:4b:17:00:76:e3:c5:56:53:
                    6b:26:3a:6f:6e:53:74:27:e0:b4:2e:f0:f4:6d:db:
                    58:a9:a6:97:70:0b:41:4b:27:67:95:ef:33:59:1e:
                    27:be:84:ba:f6:b5:c3:3d:be:50:89:bf:5f:eb:c6:
                    ec:c4:8b:66:99:2c:d7:e9:9c:99:1e:72:c9:b5:5a:
                    5f:a5:7e:d4:8f:f1:30:f7:60:84:15:5a:5d:81:d0:
                    cd:90:22:3a:da:b9:31:5a:8c:2b:ff:9f:16:c2:54:
                    48:36:e5:03:0c:db:10:39:37:c9:af:21:38:ee:6c:
                    7f:20:ff:80:a7:a5:9f:2b:47:d2:c7:ef:5f:0d:d1:
                    32:73:7a:19:b8:2f:08:fb:6b:1b:75:e4:29:56:91:
                    a7:3d:0d:6a:2f:59:f5:b7:2a:c1:d4:e3:80:22:c9:
                    6b:df:81:a8:bb:41:b0:13:15:15:02:7e:d6:6c:84:
                    40:61:52:32:83:ce:f4:ac:70:19:f1:79:3a:c4:66:
                    32:5c:a6:2b:f6:75:2b:10:b7:20:17:b3:5c:f6:37:
                    6f:cc:ae:59:c5:c1:40:f3:44:a6:58:fa:1b:5c:5f:
                    7a:99:14:f2:2a:2e:1b:07:13:06:1e:1c:9b:f4:65:
                    bd:38:d2:34:4c:d9:46:e1:04:75:21:bd:3b:a5:64:
                    47:6c:db:91:da:62:74:fa:1c:2a:73:b0:36:bc:2f:
                    2c:d0:a0:43:ef:f9:86:9e:02:ef:0b:9b:1f:b7:71:
                    71:8a:3d:f3:a7:26:e2:af:fe:12:a6:ae:bf:cd:2d:
                    0f:7e:d1:6a:39:62:f1:c7:1e:5b:44:e5:58:e0:2c:
                    bc:7a:75:93:e3:b0:58:01:00:32:26:27:e8:08:13:
                    ad:50:49:bf:6f:8f:64:91:12:72:7c:8b:2a:3c:06:
                    84:de:14:76:ba:a6:c1:3c:9e:c6:d1:e6:d1:65:57:
                    87:14:cb
                Exponent: 65537 (0x10001)
        X509v3 extensions:
            X509v3 Basic Constraints: 
                CA:FALSE
            Netscape Comment: 
                Easy-RSA Generated Certificate
            X509v3 Subject Key Identifier: 
                D3:5B:B9:1F:80:E0:8B:C5:D0:9C:BF:22:E7:7F:D3:AC:D0:46:AA:48
            X509v3 Authority Key Identifier: 
                keyid:EF:38:8D:14:50:58:A7:5B:4D:9C:17:72:FC:DF:B9:AC:A7:51:B0:10
                DirName:/C=US/ST=CA/L=SanFrancisco/O=Pixglo, Inc./OU=VPN-CIE/CN=tunnel.pixglo.com/name=Bala Chandrasekaran/emailAddress=bala@pixglo.com
                serial:A6:DB:C6:83:80:E6:A0:79

            X509v3 Extended Key Usage: 
                TLS Web Client Authentication
            X509v3 Key Usage: 
                Digital Signature
    Signature Algorithm: sha1WithRSAEncryption
         de:74:f9:b0:bb:68:eb:6b:41:f4:bf:a3:12:4e:b6:ca:bc:b0:
         17:dd:c4:0a:66:19:ff:96:bb:2a:3f:60:9d:3c:66:51:5a:90:
         e3:b2:6b:99:07:ef:f6:bc:6a:58:e7:85:fb:32:a2:a1:e2:3d:
         5e:c6:68:e0:39:03:eb:c3:e2:7c:8e:73:5b:b3:8c:7b:70:3e:
         0e:e0:ab:b8:4f:fd:9a:30:92:11:c5:3a:fd:cc:c5:e8:fa:a1:
         be:f6:7b:c3:d5:ef:64:dc:be:33:e9:67:32:d6:ea:dd:c0:fd:
         7c:d9:c9:ed:a8:13:3c:da:ef:e6:71:76:be:18:f1:be:e5:3f:
         57:b3:39:c7:17:5a:18:cd:0f:07:67:3d:50:6e:b7:91:d3:a4:
         5b:04:e0:fa:ff:d9:ee:3b:48:54:6b:60:09:08:9c:48:4b:f3:
         c1:77:b7:8e:86:d4:6e:24:8b:9e:24:b0:b7:c1:f8:ab:95:eb:
         73:16:46:24:c4:53:14:8c:13:fc:27:41:f6:54:50:e4:f4:bd:
         db:73:05:4e:b1:0e:b2:91:20:42:97:bd:f0:82:85:35:74:0b:
         b7:b0:11:2c:cc:63:d0:3c:62:a9:a6:5c:92:d8:0f:dd:7f:d0:
         90:f7:d5:9c:16:dd:88:a7:fc:e6:3b:24:17:07:35:5f:93:3c:
         00:b2:35:8c:c9:2d:2d:05:80:44:06:1e:1e:25:ac:14:53:7d:
         2e:2d:62:b2:d5:b5:ef:b9:cd:8b:e8:aa:9b:36:1e:1e:b4:9d:
         e9:20:61:82:4a:3c:23:73:0d:b1:2a:b7:2b:84:19:df:a9:73:
         27:9d:b2:a5:a6:fb:4a:d7:e9:8f:57:5e:b8:07:3a:d8:7b:59:
         c8:58:46:0d:28:84:4f:c1:a8:6b:d8:0b:6a:b0:e7:b2:e2:36:
         e7:8b:90:f1:5e:68:ff:35:41:60:51:7c:68:e7:64:a5:b2:0d:
         6e:6b:ee:23:a2:ae:9a:3a:d1:28:f4:55:da:c8:00:e0:55:2e:
         a6:5d:f2:1a:83:4a:ce:3d:e3:96:77:83:b1:5e:64:2a:00:4f:
         89:24:84:4b:f6:c8:e9:55:35:b8:43:42:42:96:3a:68:47:99:
         7f:71:6e:da:46:47:4d:7d:a8:ef:01:ea:54:a7:8e:4f:fa:aa:
         5a:cf:93:f6:bd:29:3f:b1:4f:1a:a9:a4:98:76:b7:c9:60:0b:
         2a:24:6e:aa:10:4c:ad:f5:d1:96:1c:9e:9f:05:89:a3:aa:97:
         fd:cc:17:07:df:02:0a:a5:52:f7:78:9e:b7:e9:3d:3f:c1:a0:
         b5:56:53:3d:5e:b9:33:f3:e7:03:69:49:e9:c3:f6:30:66:a7:
         6b:92:cc:9b:c4:5a:37:36
-----BEGIN CERTIFICATE-----
MIIHSDCCBTCgAwIBAgICA3owDQYJKoZIhvcNAQEFBQAwgbQxCzAJBgNVBAYTAlVT
MQswCQYDVQQIEwJDQTEVMBMGA1UEBxMMU2FuRnJhbmNpc2NvMRUwEwYDVQQKEwxQ
aXhnbG8sIEluYy4xEDAOBgNVBAsTB1ZQTi1DSUUxGjAYBgNVBAMTEXR1bm5lbC5w
aXhnbG8uY29tMRwwGgYDVQQpExNCYWxhIENoYW5kcmFzZWthcmFuMR4wHAYJKoZI
hvcNAQkBFg9iYWxhQHBpeGdsby5jb20wHhcNMTgwMjE0MDY0NjUyWhcNMjgwMjEy
MDY0NjUyWjCBqTELMAkGA1UEBhMCVVMxCzAJBgNVBAgTAkNBMRUwEwYDVQQHEwxT
YW5GcmFuY2lzY28xFTATBgNVBAoTDFBpeGdsbywgSW5jLjEQMA4GA1UECxMHVlBO
LUNJRTEPMA0GA1UEAxMGY2llODg5MRwwGgYDVQQpExNCYWxhIENoYW5kcmFzZWth
cmFuMR4wHAYJKoZIhvcNAQkBFg9iYWxhQHBpeGdsby5jb20wggIiMA0GCSqGSIb3
DQEBAQUAA4ICDwAwggIKAoICAQDg+q5dNUsGoUURD6exmuJ5+yNNt4BE9dmuZJ9w
7FAyOcRzrKO+0Sd3g6iN/kdjJrjLs75MK2tQJs41x5K4/uvHkbrb2XZg5bvaUWBH
OkxEbB8mH/wTRs0GeiNrMueXgE65uBEfx/OvIbSVe/77l459aLy9mZvSj5HN4BMb
woIYhMS0REvPMQ2EgSpVeJeBDk8e679/D6Q5AQelvmBLFwB248VWU2smOm9uU3Qn
4LQu8PRt21ipppdwC0FLJ2eV7zNZHie+hLr2tcM9vlCJv1/rxuzEi2aZLNfpnJke
csm1Wl+lftSP8TD3YIQVWl2B0M2QIjrauTFajCv/nxbCVEg25QMM2xA5N8mvITju
bH8g/4CnpZ8rR9LH718N0TJzehm4Lwj7axt15ClWkac9DWovWfW3KsHU44AiyWvf
gai7QbATFRUCftZshEBhUjKDzvSscBnxeTrEZjJcpiv2dSsQtyAXs1z2N2/MrlnF
wUDzRKZY+htcX3qZFPIqLhsHEwYeHJv0Zb040jRM2UbhBHUhvTulZEds25HaYnT6
HCpzsDa8LyzQoEPv+YaeAu8Lmx+3cXGKPfOnJuKv/hKmrr/NLQ9+0Wo5YvHHHltE
5VjgLLx6dZPjsFgBADImJ+gIE61QSb9vj2SREnJ8iyo8BoTeFHa6psE8nsbR5tFl
V4cUywIDAQABo4IBazCCAWcwCQYDVR0TBAIwADAtBglghkgBhvhCAQ0EIBYeRWFz
eS1SU0EgR2VuZXJhdGVkIENlcnRpZmljYXRlMB0GA1UdDgQWBBTTW7kfgOCLxdCc
vyLnf9Os0EaqSDCB6QYDVR0jBIHhMIHegBTvOI0UUFinW02cF3L837msp1GwEKGB
uqSBtzCBtDELMAkGA1UEBhMCVVMxCzAJBgNVBAgTAkNBMRUwEwYDVQQHEwxTYW5G
cmFuY2lzY28xFTATBgNVBAoTDFBpeGdsbywgSW5jLjEQMA4GA1UECxMHVlBOLUNJ
RTEaMBgGA1UEAxMRdHVubmVsLnBpeGdsby5jb20xHDAaBgNVBCkTE0JhbGEgQ2hh
bmRyYXNla2FyYW4xHjAcBgkqhkiG9w0BCQEWD2JhbGFAcGl4Z2xvLmNvbYIJAKbb
xoOA5qB5MBMGA1UdJQQMMAoGCCsGAQUFBwMCMAsGA1UdDwQEAwIHgDANBgkqhkiG
9w0BAQUFAAOCAgEA3nT5sLto62tB9L+jEk62yrywF93ECmYZ/5a7Kj9gnTxmUVqQ
47JrmQfv9rxqWOeF+zKioeI9XsZo4DkD68PifI5zW7OMe3A+DuCruE/9mjCSEcU6
/czF6PqhvvZ7w9XvZNy+M+lnMtbq3cD9fNnJ7agTPNrv5nF2vhjxvuU/V7M5xxda
GM0PB2c9UG63kdOkWwTg+v/Z7jtIVGtgCQicSEvzwXe3jobUbiSLniSwt8H4q5Xr
cxZGJMRTFIwT/CdB9lRQ5PS923MFTrEOspEgQpe98IKFNXQLt7ARLMxj0DxiqaZc
ktgP3X/QkPfVnBbdiKf85jskFwc1X5M8ALI1jMktLQWARAYeHiWsFFN9Li1istW1
77nNi+iqmzYeHrSd6SBhgko8I3MNsSq3K4QZ36lzJ52ypab7Stfpj1deuAc62HtZ
yFhGDSiET8Goa9gLarDnsuI254uQ8V5o/zVBYFF8aOdkpbINbmvuI6KumjrRKPRV
2sgA4FUupl3yGoNKzj3jlneDsV5kKgBPiSSES/bI6VU1uENCQpY6aEeZf3Fu2kZH
TX2o7wHqVKeOT/qqWs+T9r0pP7FPGqmkmHa3yWALKiRuqhBMrfXRlhyenwWJo6qX
/cwXB98CCqVS93iet+k9P8GgtVZTPV65M/PnA2lJ6cP2MGana5LMm8RaNzY=
-----END CERTIFICATE-----
