Certificate:
    Data:
        Version: 3 (0x2)
        Serial Number: 892 (0x37c)
    Signature Algorithm: sha1WithRSAEncryption
        Issuer: C=US, ST=CA, L=SanFrancisco, O=Pixglo, Inc., OU=VPN-CIE, CN=tunnel.pixglo.com/name=Bala Chandrasekaran/emailAddress=bala@pixglo.com
        Validity
            Not Before: Feb 14 06:46:58 2018 GMT
            Not After : Feb 12 06:46:58 2028 GMT
        Subject: C=US, ST=CA, L=SanFrancisco, O=Pixglo, Inc., OU=VPN-CIE, CN=cie891/name=Bala Chandrasekaran/emailAddress=bala@pixglo.com
        Subject Public Key Info:
            Public Key Algorithm: rsaEncryption
                Public-Key: (4096 bit)
                Modulus:
                    00:ab:f5:e2:78:6b:0e:a9:65:b8:ea:15:61:6a:30:
                    38:44:46:57:5a:21:69:1e:0c:1d:73:c0:8d:00:7c:
                    d5:32:60:ec:aa:24:72:c8:9d:90:77:eb:29:a9:c3:
                    26:8a:0c:7f:66:96:71:7b:c2:d3:83:3a:90:98:b6:
                    3e:a6:1a:c9:5c:52:a1:69:a1:bd:51:5f:57:41:e6:
                    0a:46:26:6c:57:5e:63:7f:a4:bc:1a:17:12:37:7e:
                    5b:8b:3a:5d:da:10:84:a2:cb:d0:cd:f5:f3:d2:c3:
                    5c:7c:8c:9d:4c:f2:72:37:92:c5:09:e1:44:87:12:
                    de:06:18:02:8f:bb:0b:b3:71:ca:7a:8a:53:20:2e:
                    44:db:07:77:74:85:1a:06:5b:ec:d9:21:63:0c:79:
                    e2:5e:e6:78:f2:45:ac:62:83:89:d8:3b:68:f1:92:
                    75:98:55:85:17:3d:8a:c5:96:76:ee:b7:52:8a:e4:
                    39:19:02:c4:5e:71:0f:ed:14:c3:88:be:b7:fa:16:
                    af:b1:b8:27:bb:5d:03:25:54:6f:6a:2a:82:e5:7d:
                    84:ef:ab:0b:53:2e:66:3c:ef:5f:64:5b:78:7d:33:
                    51:e0:e6:95:16:a7:48:b2:fb:e7:d6:fd:b0:9b:03:
                    79:08:fb:c0:95:2b:d6:39:fc:4c:9f:a7:30:2c:6b:
                    24:61:b6:3f:1e:1e:64:45:85:ad:5c:8f:34:f2:9b:
                    cd:39:e7:1c:c6:bf:20:8b:d1:6e:6c:10:84:27:db:
                    2f:5f:b3:0f:b1:70:84:a6:64:46:f5:47:ce:9f:20:
                    0c:6c:a9:65:29:52:a6:ec:0d:9d:4f:1d:34:64:89:
                    16:11:fe:a5:8a:40:a0:67:47:0c:d2:40:41:06:a9:
                    c3:ae:cc:3f:8b:2e:54:5e:21:f6:b1:df:ff:43:ea:
                    c7:96:d1:91:61:da:3a:f5:3c:ea:11:59:be:9b:61:
                    2a:ee:e8:2d:15:b6:47:ff:33:24:df:7d:52:bc:75:
                    e4:2f:b7:93:db:2f:f8:9b:6e:4d:b1:27:7c:a4:15:
                    22:49:05:df:89:df:d9:d9:17:60:ae:24:5a:47:be:
                    c5:e9:82:eb:d3:f4:7d:ce:f8:ef:b8:60:29:c0:04:
                    35:e5:de:a7:9d:2d:dc:b2:b6:bc:0c:5a:09:e4:76:
                    ee:a7:7d:58:66:84:91:ba:8a:5f:16:82:1a:40:4d:
                    72:b5:c1:d2:fc:7f:16:b4:b5:a9:a5:7d:22:e5:99:
                    8a:7c:1d:9b:8c:eb:02:f4:d8:40:95:dd:d1:c6:f8:
                    dd:d7:ea:f3:04:1b:6d:d5:20:18:9e:80:c2:74:ce:
                    86:08:bd:69:63:55:80:09:17:be:ad:ac:df:79:45:
                    64:04:85
                Exponent: 65537 (0x10001)
        X509v3 extensions:
            X509v3 Basic Constraints: 
                CA:FALSE
            Netscape Comment: 
                Easy-RSA Generated Certificate
            X509v3 Subject Key Identifier: 
                F8:78:8D:03:A8:40:2E:D8:5D:46:25:E1:D1:B6:47:F4:A8:AC:9F:01
            X509v3 Authority Key Identifier: 
                keyid:EF:38:8D:14:50:58:A7:5B:4D:9C:17:72:FC:DF:B9:AC:A7:51:B0:10
                DirName:/C=US/ST=CA/L=SanFrancisco/O=Pixglo, Inc./OU=VPN-CIE/CN=tunnel.pixglo.com/name=Bala Chandrasekaran/emailAddress=bala@pixglo.com
                serial:A6:DB:C6:83:80:E6:A0:79

            X509v3 Extended Key Usage: 
                TLS Web Client Authentication
            X509v3 Key Usage: 
                Digital Signature
    Signature Algorithm: sha1WithRSAEncryption
         d0:a5:c8:f6:9e:39:85:bc:a1:65:bc:3a:55:90:67:04:0d:d2:
         f4:b2:42:a8:71:75:98:0d:85:33:ca:13:5e:96:36:37:ee:fe:
         0d:ff:7b:fd:16:0b:2f:04:f2:f9:5e:8c:55:a8:97:15:b6:14:
         64:98:05:2e:25:7c:9b:07:ab:95:4a:82:ee:d2:a2:bf:f3:f4:
         d8:de:1c:e7:c9:d0:8b:a9:b0:ae:13:83:e1:60:d6:36:4a:94:
         3a:75:15:86:a3:81:02:66:81:81:57:28:67:f5:ea:56:81:2d:
         a4:26:e7:5c:6a:b3:51:7a:7c:6c:aa:48:f0:5a:66:0e:e1:77:
         05:21:59:3f:11:6e:45:59:aa:26:ca:30:7c:d2:2f:cd:86:95:
         3f:95:99:41:d6:0f:37:99:9b:59:7f:ed:09:6d:31:9f:bf:f5:
         f5:e2:5a:85:04:dd:52:09:9c:5e:29:5a:00:eb:6e:07:14:a4:
         9e:47:0a:6a:3f:86:ed:63:d2:a2:1a:c5:88:6e:6b:9e:76:a8:
         83:1c:2e:d5:94:71:83:5a:21:bf:05:bc:0f:c8:5f:ba:fc:d1:
         c1:4c:56:2f:a0:d5:3d:87:93:ea:7b:ee:fc:25:0e:5d:b7:c1:
         b7:a6:5f:2a:2d:38:ed:0b:be:9b:68:14:0c:aa:04:af:09:c8:
         11:ee:59:9b:27:80:dd:10:e8:8b:e4:9c:85:2f:6f:32:51:fe:
         46:82:17:7c:71:06:84:d6:0a:22:9c:95:74:24:b2:0f:d2:54:
         2f:9c:99:66:72:e3:d1:85:eb:44:8b:70:7b:69:60:17:26:2b:
         ea:67:9c:bb:9a:a8:c1:13:d4:1a:1f:89:72:bf:65:17:ca:84:
         16:6e:fe:ff:04:75:8c:73:91:fd:c9:c0:e9:54:39:68:97:9c:
         ff:c3:e4:5e:b9:4c:e7:10:30:f8:45:99:c4:05:3b:b0:26:1e:
         11:c5:fc:41:c0:77:fb:e2:7c:9e:e8:ea:4f:8f:bc:6e:d4:ca:
         ec:a4:96:13:49:b4:66:d5:d1:a6:d4:bf:de:a9:71:08:a5:51:
         55:c2:39:b2:27:be:20:40:7c:86:1b:ae:5e:75:60:cf:8c:d1:
         72:55:91:c8:8a:91:c3:96:28:bc:c6:cf:1b:12:50:31:cb:2b:
         c6:dd:c1:82:dd:f7:a3:93:3e:a1:25:62:98:b1:86:9b:c9:3a:
         ed:04:14:32:58:80:e5:5e:de:22:92:b5:e1:b1:2b:df:74:69:
         12:54:a6:fa:20:a1:76:69:e9:db:1b:b9:23:b4:f4:2a:e4:3a:
         be:ab:79:17:8c:88:1f:f8:b7:de:ad:ce:29:48:8e:b8:81:f5:
         a4:62:97:b8:8a:d5:a1:05
-----BEGIN CERTIFICATE-----
MIIHSDCCBTCgAwIBAgICA3wwDQYJKoZIhvcNAQEFBQAwgbQxCzAJBgNVBAYTAlVT
MQswCQYDVQQIEwJDQTEVMBMGA1UEBxMMU2FuRnJhbmNpc2NvMRUwEwYDVQQKEwxQ
aXhnbG8sIEluYy4xEDAOBgNVBAsTB1ZQTi1DSUUxGjAYBgNVBAMTEXR1bm5lbC5w
aXhnbG8uY29tMRwwGgYDVQQpExNCYWxhIENoYW5kcmFzZWthcmFuMR4wHAYJKoZI
hvcNAQkBFg9iYWxhQHBpeGdsby5jb20wHhcNMTgwMjE0MDY0NjU4WhcNMjgwMjEy
MDY0NjU4WjCBqTELMAkGA1UEBhMCVVMxCzAJBgNVBAgTAkNBMRUwEwYDVQQHEwxT
YW5GcmFuY2lzY28xFTATBgNVBAoTDFBpeGdsbywgSW5jLjEQMA4GA1UECxMHVlBO
LUNJRTEPMA0GA1UEAxMGY2llODkxMRwwGgYDVQQpExNCYWxhIENoYW5kcmFzZWth
cmFuMR4wHAYJKoZIhvcNAQkBFg9iYWxhQHBpeGdsby5jb20wggIiMA0GCSqGSIb3
DQEBAQUAA4ICDwAwggIKAoICAQCr9eJ4aw6pZbjqFWFqMDhERldaIWkeDB1zwI0A
fNUyYOyqJHLInZB36ympwyaKDH9mlnF7wtODOpCYtj6mGslcUqFpob1RX1dB5gpG
JmxXXmN/pLwaFxI3fluLOl3aEISiy9DN9fPSw1x8jJ1M8nI3ksUJ4USHEt4GGAKP
uwuzccp6ilMgLkTbB3d0hRoGW+zZIWMMeeJe5njyRaxig4nYO2jxknWYVYUXPYrF
lnbut1KK5DkZAsRecQ/tFMOIvrf6Fq+xuCe7XQMlVG9qKoLlfYTvqwtTLmY8719k
W3h9M1Hg5pUWp0iy++fW/bCbA3kI+8CVK9Y5/EyfpzAsayRhtj8eHmRFha1cjzTy
m8055xzGvyCL0W5sEIQn2y9fsw+xcISmZEb1R86fIAxsqWUpUqbsDZ1PHTRkiRYR
/qWKQKBnRwzSQEEGqcOuzD+LLlReIfax3/9D6seW0ZFh2jr1POoRWb6bYSru6C0V
tkf/MyTffVK8deQvt5PbL/ibbk2xJ3ykFSJJBd+J39nZF2CuJFpHvsXpguvT9H3O
+O+4YCnABDXl3qedLdyytrwMWgnkdu6nfVhmhJG6il8WghpATXK1wdL8fxa0taml
fSLlmYp8HZuM6wL02ECV3dHG+N3X6vMEG23VIBiegMJ0zoYIvWljVYAJF76trN95
RWQEhQIDAQABo4IBazCCAWcwCQYDVR0TBAIwADAtBglghkgBhvhCAQ0EIBYeRWFz
eS1SU0EgR2VuZXJhdGVkIENlcnRpZmljYXRlMB0GA1UdDgQWBBT4eI0DqEAu2F1G
JeHRtkf0qKyfATCB6QYDVR0jBIHhMIHegBTvOI0UUFinW02cF3L837msp1GwEKGB
uqSBtzCBtDELMAkGA1UEBhMCVVMxCzAJBgNVBAgTAkNBMRUwEwYDVQQHEwxTYW5G
cmFuY2lzY28xFTATBgNVBAoTDFBpeGdsbywgSW5jLjEQMA4GA1UECxMHVlBOLUNJ
RTEaMBgGA1UEAxMRdHVubmVsLnBpeGdsby5jb20xHDAaBgNVBCkTE0JhbGEgQ2hh
bmRyYXNla2FyYW4xHjAcBgkqhkiG9w0BCQEWD2JhbGFAcGl4Z2xvLmNvbYIJAKbb
xoOA5qB5MBMGA1UdJQQMMAoGCCsGAQUFBwMCMAsGA1UdDwQEAwIHgDANBgkqhkiG
9w0BAQUFAAOCAgEA0KXI9p45hbyhZbw6VZBnBA3S9LJCqHF1mA2FM8oTXpY2N+7+
Df97/RYLLwTy+V6MVaiXFbYUZJgFLiV8mwerlUqC7tKiv/P02N4c58nQi6mwrhOD
4WDWNkqUOnUVhqOBAmaBgVcoZ/XqVoEtpCbnXGqzUXp8bKpI8FpmDuF3BSFZPxFu
RVmqJsowfNIvzYaVP5WZQdYPN5mbWX/tCW0xn7/19eJahQTdUgmcXilaAOtuBxSk
nkcKaj+G7WPSohrFiG5rnnaogxwu1ZRxg1ohvwW8D8hfuvzRwUxWL6DVPYeT6nvu
/CUOXbfBt6ZfKi047Qu+m2gUDKoErwnIEe5ZmyeA3RDoi+SchS9vMlH+RoIXfHEG
hNYKIpyVdCSyD9JUL5yZZnLj0YXrRItwe2lgFyYr6mecu5qowRPUGh+Jcr9lF8qE
Fm7+/wR1jHOR/cnA6VQ5aJec/8PkXrlM5xAw+EWZxAU7sCYeEcX8QcB3++J8nujq
T4+8btTK7KSWE0m0ZtXRptS/3qlxCKVRVcI5sie+IEB8hhuuXnVgz4zRclWRyIqR
w5YovMbPGxJQMcsrxt3Bgt33o5M+oSVimLGGm8k67QQUMliA5V7eIpK14bEr33Rp
ElSm+iChdmnp2xu5I7T0KuQ6vqt5F4yIH/i33q3OKUiOuIH1pGKXuIrVoQU=
-----END CERTIFICATE-----
