Certificate:
    Data:
        Version: 3 (0x2)
        Serial Number: 896 (0x380)
    Signature Algorithm: sha1WithRSAEncryption
        Issuer: C=US, ST=CA, L=SanFrancisco, O=Pixglo, Inc., OU=VPN-CIE, CN=tunnel.pixglo.com/name=Bala Chandrasekaran/emailAddress=bala@pixglo.com
        Validity
            Not Before: Feb 14 06:47:07 2018 GMT
            Not After : Feb 12 06:47:07 2028 GMT
        Subject: C=US, ST=CA, L=SanFrancisco, O=Pixglo, Inc., OU=VPN-CIE, CN=cie895/name=Bala Chandrasekaran/emailAddress=bala@pixglo.com
        Subject Public Key Info:
            Public Key Algorithm: rsaEncryption
                Public-Key: (4096 bit)
                Modulus:
                    00:ac:d9:10:c7:c1:07:ad:dd:3a:47:c4:6e:53:78:
                    03:b4:60:40:4f:25:b2:66:2f:5b:7c:8d:b1:ff:2c:
                    fd:83:f2:d0:5c:8b:64:e4:f0:3a:f0:e2:51:ed:bc:
                    f7:6b:4b:9d:f7:f9:cc:41:e8:77:61:db:08:d7:cd:
                    40:02:94:8c:fb:be:16:7e:11:87:db:b6:95:7e:10:
                    39:5a:19:63:5c:cd:79:75:18:92:32:37:1e:48:56:
                    ea:ec:d8:8f:f4:42:d5:20:0d:d7:7b:c0:fc:13:af:
                    87:c4:a5:a6:d7:ae:70:ed:de:17:f0:e3:e4:11:d5:
                    10:82:60:2d:e6:e8:0f:b5:30:5f:97:94:a9:50:23:
                    ee:bd:8b:94:8a:ba:56:29:58:2c:65:11:f5:ac:b6:
                    51:55:6e:bb:da:36:a0:58:50:51:63:a3:86:28:e0:
                    f6:4c:d6:bb:5c:66:3f:24:2a:d0:cc:2e:3f:94:e6:
                    9d:f6:ca:4e:21:39:2e:20:af:d6:89:42:37:c9:87:
                    5f:95:9f:80:5e:a1:7b:5d:ab:a6:74:ac:4b:a4:c4:
                    88:95:b7:2b:ce:10:7a:23:52:64:c1:13:75:bf:53:
                    d2:38:91:08:f1:65:8e:ff:d1:0c:e0:89:14:fb:54:
                    0f:62:7a:cd:9e:e9:55:38:b2:e4:a8:c0:47:41:c8:
                    29:d0:fc:7c:04:3b:6f:56:c0:a8:fe:7e:90:38:05:
                    73:db:c1:c2:df:9a:e5:01:bb:cf:d1:4b:c8:f1:52:
                    0f:0e:c4:a5:67:1c:60:c1:bb:e8:cc:00:33:17:83:
                    26:e1:56:52:1b:87:4f:6b:a7:49:c9:20:f6:95:1a:
                    79:d3:75:81:01:2e:05:61:fc:e7:22:75:85:65:f8:
                    c9:18:ef:97:6b:23:53:0f:62:9e:46:f6:0e:13:35:
                    0d:86:c2:50:14:b0:3c:8f:72:00:c1:7e:41:5b:64:
                    92:5d:54:e7:48:97:0d:9a:61:47:1a:f2:a1:7d:b5:
                    97:56:e4:ce:c2:b5:7d:ea:b6:2a:db:d3:07:d6:bc:
                    d0:fa:d7:cb:56:6f:05:f5:f4:2e:2f:0d:63:a7:06:
                    7b:d4:5c:62:14:78:a3:92:7a:fe:a7:51:fb:75:da:
                    25:a6:9f:10:86:64:56:1d:cb:43:a3:06:2f:a5:97:
                    64:11:92:54:a8:b0:58:2c:bd:c2:35:90:b6:05:48:
                    e4:81:09:2e:56:84:79:22:ee:dc:7f:97:71:09:39:
                    38:18:fc:d4:7b:9c:fe:9d:8d:99:5a:75:fd:44:68:
                    8a:d9:d9:ad:33:2a:e9:41:6d:c0:38:6d:39:4a:5e:
                    b7:41:db:2a:dc:31:c4:69:29:9f:fd:e8:38:af:f7:
                    99:cf:f1
                Exponent: 65537 (0x10001)
        X509v3 extensions:
            X509v3 Basic Constraints: 
                CA:FALSE
            Netscape Comment: 
                Easy-RSA Generated Certificate
            X509v3 Subject Key Identifier: 
                1A:8F:D8:FB:C4:13:E4:AD:4C:83:BB:82:41:9A:2A:48:19:1F:1A:95
            X509v3 Authority Key Identifier: 
                keyid:EF:38:8D:14:50:58:A7:5B:4D:9C:17:72:FC:DF:B9:AC:A7:51:B0:10
                DirName:/C=US/ST=CA/L=SanFrancisco/O=Pixglo, Inc./OU=VPN-CIE/CN=tunnel.pixglo.com/name=Bala Chandrasekaran/emailAddress=bala@pixglo.com
                serial:A6:DB:C6:83:80:E6:A0:79

            X509v3 Extended Key Usage: 
                TLS Web Client Authentication
            X509v3 Key Usage: 
                Digital Signature
    Signature Algorithm: sha1WithRSAEncryption
         0d:71:6a:00:5a:87:59:12:46:73:1d:9c:78:4e:08:20:38:17:
         46:1d:5b:21:d2:79:4a:e4:b7:ce:97:5f:9d:78:fb:33:64:68:
         01:c0:ea:4a:a0:ed:32:99:a2:38:dc:06:22:56:90:61:6c:05:
         3b:a2:c9:8a:d8:41:72:42:65:0d:c9:c2:54:02:fd:f0:ba:53:
         03:e8:c1:17:ce:f4:23:92:af:53:21:0a:a6:05:b8:52:db:25:
         51:ea:d5:d0:97:ad:7f:68:1f:8d:29:f2:0d:cf:d3:37:c5:98:
         b1:31:3b:c9:ae:27:1f:fb:54:bc:96:35:de:cf:20:ca:73:0b:
         8c:ff:ae:15:e0:4c:d3:f1:03:ae:82:24:90:ec:7d:e4:41:de:
         e1:18:bb:93:b2:31:f6:86:ff:19:59:22:8e:ac:8d:83:06:67:
         7e:89:dc:83:c4:ec:88:5c:11:c2:8d:74:81:b5:2b:44:ec:54:
         54:e5:5d:60:79:8f:8c:b2:a9:e5:d8:fd:1f:76:7b:e9:81:37:
         4e:b5:0f:a3:4b:d1:03:b2:df:af:dd:2b:49:a9:77:91:5a:e4:
         c6:5c:4c:da:7d:a3:a0:32:4b:1d:60:e8:c7:54:22:06:ec:2e:
         20:69:bc:80:5c:bb:fc:87:5b:b4:0f:fa:2c:50:b6:9b:52:7c:
         75:1b:91:e1:1c:51:1a:02:8e:7b:5b:08:5b:fa:bb:63:8f:53:
         61:f4:4a:4e:44:f3:42:2e:18:52:ac:30:a8:4e:dc:12:c1:af:
         62:91:dc:b2:cb:c6:ce:99:12:9b:c9:b0:83:1a:3e:d0:fb:51:
         45:df:57:4d:ac:6e:d9:aa:4e:6f:a6:83:a4:fe:2d:ce:98:54:
         41:3b:bd:4f:13:0d:9d:c8:cc:10:a1:be:89:15:da:fc:5a:9b:
         1f:8e:75:66:f1:81:3a:ec:15:e6:d7:95:a1:cd:61:73:6f:37:
         cf:14:e0:fb:ec:09:ac:dd:9e:d3:02:4f:5b:2d:3a:6a:33:2f:
         c1:0f:ee:e0:2e:83:c6:60:b8:35:af:12:72:af:1f:49:2f:cb:
         24:a8:f5:cd:25:72:cf:91:a0:3f:d7:99:72:0c:e0:fb:75:09:
         f9:80:e8:02:f3:57:39:4d:ac:38:52:72:cd:f9:21:e8:1a:79:
         15:89:91:3e:10:fe:9b:4a:5b:bf:87:90:14:3f:db:63:aa:99:
         76:84:98:14:55:d8:91:11:f3:af:ac:ee:f6:ee:2e:00:06:fa:
         dc:ff:87:6d:7d:f8:1d:fd:58:13:39:7d:a0:8a:96:57:f4:44:
         12:97:27:05:05:fa:f5:57:c4:65:8f:0a:77:a8:a7:e1:0d:a5:
         4f:fd:a8:dd:66:7f:75:2e
-----BEGIN CERTIFICATE-----
MIIHSDCCBTCgAwIBAgICA4AwDQYJKoZIhvcNAQEFBQAwgbQxCzAJBgNVBAYTAlVT
MQswCQYDVQQIEwJDQTEVMBMGA1UEBxMMU2FuRnJhbmNpc2NvMRUwEwYDVQQKEwxQ
aXhnbG8sIEluYy4xEDAOBgNVBAsTB1ZQTi1DSUUxGjAYBgNVBAMTEXR1bm5lbC5w
aXhnbG8uY29tMRwwGgYDVQQpExNCYWxhIENoYW5kcmFzZWthcmFuMR4wHAYJKoZI
hvcNAQkBFg9iYWxhQHBpeGdsby5jb20wHhcNMTgwMjE0MDY0NzA3WhcNMjgwMjEy
MDY0NzA3WjCBqTELMAkGA1UEBhMCVVMxCzAJBgNVBAgTAkNBMRUwEwYDVQQHEwxT
YW5GcmFuY2lzY28xFTATBgNVBAoTDFBpeGdsbywgSW5jLjEQMA4GA1UECxMHVlBO
LUNJRTEPMA0GA1UEAxMGY2llODk1MRwwGgYDVQQpExNCYWxhIENoYW5kcmFzZWth
cmFuMR4wHAYJKoZIhvcNAQkBFg9iYWxhQHBpeGdsby5jb20wggIiMA0GCSqGSIb3
DQEBAQUAA4ICDwAwggIKAoICAQCs2RDHwQet3TpHxG5TeAO0YEBPJbJmL1t8jbH/
LP2D8tBci2Tk8Drw4lHtvPdrS533+cxB6Hdh2wjXzUAClIz7vhZ+EYfbtpV+EDla
GWNczXl1GJIyNx5IVurs2I/0QtUgDdd7wPwTr4fEpabXrnDt3hfw4+QR1RCCYC3m
6A+1MF+XlKlQI+69i5SKulYpWCxlEfWstlFVbrvaNqBYUFFjo4Yo4PZM1rtcZj8k
KtDMLj+U5p32yk4hOS4gr9aJQjfJh1+Vn4BeoXtdq6Z0rEukxIiVtyvOEHojUmTB
E3W/U9I4kQjxZY7/0QzgiRT7VA9ies2e6VU4suSowEdByCnQ/HwEO29WwKj+fpA4
BXPbwcLfmuUBu8/RS8jxUg8OxKVnHGDBu+jMADMXgybhVlIbh09rp0nJIPaVGnnT
dYEBLgVh/OcidYVl+MkY75drI1MPYp5G9g4TNQ2GwlAUsDyPcgDBfkFbZJJdVOdI
lw2aYUca8qF9tZdW5M7CtX3qtirb0wfWvND618tWbwX19C4vDWOnBnvUXGIUeKOS
ev6nUft12iWmnxCGZFYdy0OjBi+ll2QRklSosFgsvcI1kLYFSOSBCS5WhHki7tx/
l3EJOTgY/NR7nP6djZladf1EaIrZ2a0zKulBbcA4bTlKXrdB2yrcMcRpKZ/96Div
95nP8QIDAQABo4IBazCCAWcwCQYDVR0TBAIwADAtBglghkgBhvhCAQ0EIBYeRWFz
eS1SU0EgR2VuZXJhdGVkIENlcnRpZmljYXRlMB0GA1UdDgQWBBQaj9j7xBPkrUyD
u4JBmipIGR8alTCB6QYDVR0jBIHhMIHegBTvOI0UUFinW02cF3L837msp1GwEKGB
uqSBtzCBtDELMAkGA1UEBhMCVVMxCzAJBgNVBAgTAkNBMRUwEwYDVQQHEwxTYW5G
cmFuY2lzY28xFTATBgNVBAoTDFBpeGdsbywgSW5jLjEQMA4GA1UECxMHVlBOLUNJ
RTEaMBgGA1UEAxMRdHVubmVsLnBpeGdsby5jb20xHDAaBgNVBCkTE0JhbGEgQ2hh
bmRyYXNla2FyYW4xHjAcBgkqhkiG9w0BCQEWD2JhbGFAcGl4Z2xvLmNvbYIJAKbb
xoOA5qB5MBMGA1UdJQQMMAoGCCsGAQUFBwMCMAsGA1UdDwQEAwIHgDANBgkqhkiG
9w0BAQUFAAOCAgEADXFqAFqHWRJGcx2ceE4IIDgXRh1bIdJ5SuS3zpdfnXj7M2Ro
AcDqSqDtMpmiONwGIlaQYWwFO6LJithBckJlDcnCVAL98LpTA+jBF870I5KvUyEK
pgW4UtslUerV0Jetf2gfjSnyDc/TN8WYsTE7ya4nH/tUvJY13s8gynMLjP+uFeBM
0/EDroIkkOx95EHe4Ri7k7Ix9ob/GVkijqyNgwZnfoncg8TsiFwRwo10gbUrROxU
VOVdYHmPjLKp5dj9H3Z76YE3TrUPo0vRA7Lfr90rSal3kVrkxlxM2n2joDJLHWDo
x1QiBuwuIGm8gFy7/IdbtA/6LFC2m1J8dRuR4RxRGgKOe1sIW/q7Y49TYfRKTkTz
Qi4YUqwwqE7cEsGvYpHcssvGzpkSm8mwgxo+0PtRRd9XTaxu2apOb6aDpP4tzphU
QTu9TxMNncjMEKG+iRXa/FqbH451ZvGBOuwV5teVoc1hc283zxTg++wJrN2e0wJP
Wy06ajMvwQ/u4C6DxmC4Na8Scq8fSS/LJKj1zSVyz5GgP9eZcgzg+3UJ+YDoAvNX
OU2sOFJyzfkh6Bp5FYmRPhD+m0pbv4eQFD/bY6qZdoSYFFXYkRHzr6zu9u4uAAb6
3P+HbX34Hf1YEzl9oIqWV/REEpcnBQX69VfEZY8Kd6in4Q2lT/2o3WZ/dS4=
-----END CERTIFICATE-----
