Certificate:
    Data:
        Version: 3 (0x2)
        Serial Number: 898 (0x382)
    Signature Algorithm: sha1WithRSAEncryption
        Issuer: C=US, ST=CA, L=SanFrancisco, O=Pixglo, Inc., OU=VPN-CIE, CN=tunnel.pixglo.com/name=Bala Chandrasekaran/emailAddress=bala@pixglo.com
        Validity
            Not Before: Feb 14 06:47:14 2018 GMT
            Not After : Feb 12 06:47:14 2028 GMT
        Subject: C=US, ST=CA, L=SanFrancisco, O=Pixglo, Inc., OU=VPN-CIE, CN=cie897/name=Bala Chandrasekaran/emailAddress=bala@pixglo.com
        Subject Public Key Info:
            Public Key Algorithm: rsaEncryption
                Public-Key: (4096 bit)
                Modulus:
                    00:d4:6d:1c:2b:29:05:30:ba:e7:34:37:81:cc:e6:
                    15:ab:58:7d:6c:71:ea:9f:77:f6:6b:c5:9b:79:8b:
                    f6:ca:aa:a8:40:6f:92:18:56:91:6c:64:93:c9:aa:
                    0e:e6:7c:85:65:c6:94:ae:4f:e1:6e:96:d5:af:86:
                    d6:7a:69:46:e2:68:24:ba:a5:fa:7b:c9:80:44:8d:
                    8b:66:1b:07:fb:cf:23:85:9d:2e:23:02:8e:02:b0:
                    1a:7f:16:ac:db:21:69:23:69:d7:81:13:ce:0f:16:
                    9f:d2:4f:8d:55:5b:f7:c4:83:6d:19:37:76:6e:c9:
                    ef:2b:49:6e:90:86:5f:5e:cc:e4:45:7c:9f:a5:17:
                    75:d6:3c:d5:91:be:18:4a:bc:98:93:5e:af:7a:a5:
                    25:c3:09:61:72:5f:31:e9:1d:ce:f0:66:e6:47:b4:
                    28:85:c9:93:61:7e:9a:5c:7a:78:37:dc:de:28:96:
                    16:f5:5a:05:df:6c:b9:20:da:1e:5a:66:3d:e7:87:
                    e1:1d:3e:66:a0:30:6b:5e:d3:3b:3a:87:73:a7:13:
                    c0:3e:ff:0f:ad:d2:09:16:b9:4b:3e:73:7f:e3:18:
                    f9:e0:75:38:af:62:7f:f0:c8:c6:43:4a:e1:8b:90:
                    40:fa:d7:92:2b:21:71:2f:f9:d4:1c:97:ca:03:7a:
                    bb:2b:31:48:4f:ea:6c:28:23:c2:6a:4b:e1:c7:23:
                    fa:5e:79:d9:ca:5a:d0:de:2d:a7:a5:63:db:9d:d7:
                    09:30:ab:40:28:b0:31:11:83:4a:b4:83:c2:ea:f2:
                    e6:80:23:35:91:03:2f:87:a6:a2:1d:81:ec:93:85:
                    21:a4:b9:08:4f:27:ae:6e:dc:a3:80:9d:9e:ad:80:
                    89:62:1b:7a:98:97:e5:81:79:26:6f:b8:d3:4f:48:
                    99:ec:87:ac:f8:d5:37:46:44:6b:d4:4e:b6:35:ac:
                    c4:a0:3e:4a:1e:27:ea:ec:c9:60:4d:f6:c7:ee:ef:
                    66:8a:b7:de:90:8a:42:73:ee:1b:1f:cc:7a:69:60:
                    18:d3:bb:f7:e8:29:71:fe:59:49:13:3b:c5:83:74:
                    d3:10:3d:7a:00:ed:d1:89:19:cb:d2:50:af:b2:57:
                    57:1f:3f:4f:10:d6:52:ce:7d:35:c2:ac:56:af:d0:
                    7b:d3:d6:67:67:7a:26:ad:19:46:2d:88:4f:43:90:
                    53:c9:ab:64:a1:24:6e:d8:83:ca:b3:4c:9a:6f:27:
                    f6:a7:50:b0:01:da:52:a3:d8:c9:fc:a5:25:f2:96:
                    58:cb:89:df:9d:d2:7e:19:51:f8:4c:8d:cd:f3:a1:
                    94:e2:cc:e2:22:34:3c:1c:43:d8:71:89:f9:64:31:
                    51:45:f1
                Exponent: 65537 (0x10001)
        X509v3 extensions:
            X509v3 Basic Constraints: 
                CA:FALSE
            Netscape Comment: 
                Easy-RSA Generated Certificate
            X509v3 Subject Key Identifier: 
                0A:C7:70:38:3F:61:1A:63:36:FA:33:F8:EA:21:42:97:FF:7B:0E:EE
            X509v3 Authority Key Identifier: 
                keyid:EF:38:8D:14:50:58:A7:5B:4D:9C:17:72:FC:DF:B9:AC:A7:51:B0:10
                DirName:/C=US/ST=CA/L=SanFrancisco/O=Pixglo, Inc./OU=VPN-CIE/CN=tunnel.pixglo.com/name=Bala Chandrasekaran/emailAddress=bala@pixglo.com
                serial:A6:DB:C6:83:80:E6:A0:79

            X509v3 Extended Key Usage: 
                TLS Web Client Authentication
            X509v3 Key Usage: 
                Digital Signature
    Signature Algorithm: sha1WithRSAEncryption
         e2:92:6a:5c:65:68:0a:f2:b3:88:88:df:4e:dc:d9:e0:7c:7d:
         10:ca:98:0d:56:8e:25:2c:5a:2c:bd:eb:33:dd:8f:9e:3e:68:
         17:bf:96:8e:da:7f:67:a8:2f:88:91:ce:34:3f:2c:66:73:54:
         c9:6e:9d:f9:91:54:23:1e:aa:8e:1d:be:bf:b2:a3:20:04:c3:
         e5:ae:21:cc:6e:38:be:17:b0:14:ef:7f:fd:67:f2:59:95:3d:
         68:59:04:68:40:84:35:ba:fe:cb:d0:54:0a:38:fa:c1:c7:40:
         e9:62:2f:da:84:ad:d8:99:52:41:22:0d:7c:ed:ef:eb:55:d5:
         42:10:47:a3:81:0d:88:5c:f4:69:51:40:3b:f3:61:d2:10:0d:
         12:a1:58:b0:7b:1f:b2:c7:86:b7:9a:2e:27:27:07:49:d2:3f:
         89:eb:2c:41:a8:3a:63:5a:08:ae:39:7a:41:bd:45:94:6d:d7:
         be:63:9e:ff:f1:a7:e5:73:9d:89:58:72:0e:8a:d2:f3:56:7e:
         71:ee:25:b2:c0:80:3b:2b:8c:9e:aa:d4:9a:aa:4b:82:82:5c:
         84:51:17:5b:62:25:7f:66:e6:ba:0b:cd:2b:67:a9:f1:b6:4d:
         e8:ca:6e:5a:1b:27:65:89:88:42:61:c3:d6:9f:33:cf:77:4c:
         d4:e7:1a:32:5d:28:96:3c:ae:a2:b4:f2:c6:4f:3b:d2:85:8f:
         8b:79:29:e4:80:8a:ab:b6:f2:3a:6e:05:d0:d3:5c:02:5c:d8:
         29:85:c3:2c:b9:88:98:b3:e9:85:b9:2c:41:3e:38:c6:73:37:
         d5:59:a2:da:1e:a1:fc:2a:e4:8f:e1:04:b7:11:5c:bf:c3:ad:
         19:35:86:53:4f:4c:28:35:ed:b2:b7:0f:2d:a7:1b:81:fd:ec:
         76:b2:9f:d8:7d:c1:24:39:2c:54:7f:46:76:2f:78:bc:25:85:
         29:3b:e0:66:8a:d0:a3:4a:0f:2c:1d:08:a9:60:22:03:59:2c:
         27:68:1d:df:d5:a2:a2:5d:8b:55:99:60:1c:42:fe:33:a3:9d:
         3e:d6:02:65:aa:64:c8:89:a9:8d:48:4e:04:7a:0c:e7:6b:7d:
         7c:3d:53:82:a0:f2:b7:42:21:fc:65:bd:f0:ea:b4:ad:04:80:
         60:07:67:43:1d:f7:ed:ac:14:66:0f:87:46:fb:d4:65:cd:8d:
         2d:76:be:26:e5:0b:2e:95:dd:2a:45:d0:c5:27:20:83:6b:dd:
         1a:f9:7f:e2:53:50:93:6f:a1:ff:dd:5f:c9:d9:5d:e3:b2:a2:
         02:db:97:38:c1:f4:15:17:e9:98:50:2f:8c:07:f6:97:27:ae:
         05:83:2a:e0:ce:29:31:1f
-----BEGIN CERTIFICATE-----
MIIHSDCCBTCgAwIBAgICA4IwDQYJKoZIhvcNAQEFBQAwgbQxCzAJBgNVBAYTAlVT
MQswCQYDVQQIEwJDQTEVMBMGA1UEBxMMU2FuRnJhbmNpc2NvMRUwEwYDVQQKEwxQ
aXhnbG8sIEluYy4xEDAOBgNVBAsTB1ZQTi1DSUUxGjAYBgNVBAMTEXR1bm5lbC5w
aXhnbG8uY29tMRwwGgYDVQQpExNCYWxhIENoYW5kcmFzZWthcmFuMR4wHAYJKoZI
hvcNAQkBFg9iYWxhQHBpeGdsby5jb20wHhcNMTgwMjE0MDY0NzE0WhcNMjgwMjEy
MDY0NzE0WjCBqTELMAkGA1UEBhMCVVMxCzAJBgNVBAgTAkNBMRUwEwYDVQQHEwxT
YW5GcmFuY2lzY28xFTATBgNVBAoTDFBpeGdsbywgSW5jLjEQMA4GA1UECxMHVlBO
LUNJRTEPMA0GA1UEAxMGY2llODk3MRwwGgYDVQQpExNCYWxhIENoYW5kcmFzZWth
cmFuMR4wHAYJKoZIhvcNAQkBFg9iYWxhQHBpeGdsby5jb20wggIiMA0GCSqGSIb3
DQEBAQUAA4ICDwAwggIKAoICAQDUbRwrKQUwuuc0N4HM5hWrWH1sceqfd/ZrxZt5
i/bKqqhAb5IYVpFsZJPJqg7mfIVlxpSuT+FultWvhtZ6aUbiaCS6pfp7yYBEjYtm
Gwf7zyOFnS4jAo4CsBp/FqzbIWkjadeBE84PFp/ST41VW/fEg20ZN3Zuye8rSW6Q
hl9ezORFfJ+lF3XWPNWRvhhKvJiTXq96pSXDCWFyXzHpHc7wZuZHtCiFyZNhfppc
eng33N4olhb1WgXfbLkg2h5aZj3nh+EdPmagMGte0zs6h3OnE8A+/w+t0gkWuUs+
c3/jGPngdTivYn/wyMZDSuGLkED615IrIXEv+dQcl8oDersrMUhP6mwoI8JqS+HH
I/peednKWtDeLaelY9ud1wkwq0AosDERg0q0g8Lq8uaAIzWRAy+HpqIdgeyThSGk
uQhPJ65u3KOAnZ6tgIliG3qYl+WBeSZvuNNPSJnsh6z41TdGRGvUTrY1rMSgPkoe
J+rsyWBN9sfu72aKt96QikJz7hsfzHppYBjTu/foKXH+WUkTO8WDdNMQPXoA7dGJ
GcvSUK+yV1cfP08Q1lLOfTXCrFav0HvT1mdneiatGUYtiE9DkFPJq2ShJG7Yg8qz
TJpvJ/anULAB2lKj2Mn8pSXylljLid+d0n4ZUfhMjc3zoZTizOIiNDwcQ9hxiflk
MVFF8QIDAQABo4IBazCCAWcwCQYDVR0TBAIwADAtBglghkgBhvhCAQ0EIBYeRWFz
eS1SU0EgR2VuZXJhdGVkIENlcnRpZmljYXRlMB0GA1UdDgQWBBQKx3A4P2EaYzb6
M/jqIUKX/3sO7jCB6QYDVR0jBIHhMIHegBTvOI0UUFinW02cF3L837msp1GwEKGB
uqSBtzCBtDELMAkGA1UEBhMCVVMxCzAJBgNVBAgTAkNBMRUwEwYDVQQHEwxTYW5G
cmFuY2lzY28xFTATBgNVBAoTDFBpeGdsbywgSW5jLjEQMA4GA1UECxMHVlBOLUNJ
RTEaMBgGA1UEAxMRdHVubmVsLnBpeGdsby5jb20xHDAaBgNVBCkTE0JhbGEgQ2hh
bmRyYXNla2FyYW4xHjAcBgkqhkiG9w0BCQEWD2JhbGFAcGl4Z2xvLmNvbYIJAKbb
xoOA5qB5MBMGA1UdJQQMMAoGCCsGAQUFBwMCMAsGA1UdDwQEAwIHgDANBgkqhkiG
9w0BAQUFAAOCAgEA4pJqXGVoCvKziIjfTtzZ4Hx9EMqYDVaOJSxaLL3rM92Pnj5o
F7+Wjtp/Z6gviJHOND8sZnNUyW6d+ZFUIx6qjh2+v7KjIATD5a4hzG44vhewFO9/
/WfyWZU9aFkEaECENbr+y9BUCjj6wcdA6WIv2oSt2JlSQSINfO3v61XVQhBHo4EN
iFz0aVFAO/Nh0hANEqFYsHsfsseGt5ouJycHSdI/iessQag6Y1oIrjl6Qb1FlG3X
vmOe//Gn5XOdiVhyDorS81Z+ce4lssCAOyuMnqrUmqpLgoJchFEXW2Ilf2bmugvN
K2ep8bZN6MpuWhsnZYmIQmHD1p8zz3dM1OcaMl0oljyuorTyxk870oWPi3kp5ICK
q7byOm4F0NNcAlzYKYXDLLmImLPphbksQT44xnM31Vmi2h6h/Crkj+EEtxFcv8Ot
GTWGU09MKDXtsrcPLacbgf3sdrKf2H3BJDksVH9Gdi94vCWFKTvgZorQo0oPLB0I
qWAiA1ksJ2gd39Wiol2LVZlgHEL+M6OdPtYCZapkyImpjUhOBHoM52t9fD1TgqDy
t0Ih/GW98Oq0rQSAYAdnQx337awUZg+HRvvUZc2NLXa+JuULLpXdKkXQxScgg2vd
Gvl/4lNQk2+h/91fydld47KiAtuXOMH0FRfpmFAvjAf2lyeuBYMq4M4pMR8=
-----END CERTIFICATE-----
