Certificate:
    Data:
        Version: 3 (0x2)
        Serial Number: 900 (0x384)
    Signature Algorithm: sha1WithRSAEncryption
        Issuer: C=US, ST=CA, L=SanFrancisco, O=Pixglo, Inc., OU=VPN-CIE, CN=tunnel.pixglo.com/name=Bala Chandrasekaran/emailAddress=bala@pixglo.com
        Validity
            Not Before: Feb 14 06:47:18 2018 GMT
            Not After : Feb 12 06:47:18 2028 GMT
        Subject: C=US, ST=CA, L=SanFrancisco, O=Pixglo, Inc., OU=VPN-CIE, CN=cie899/name=Bala Chandrasekaran/emailAddress=bala@pixglo.com
        Subject Public Key Info:
            Public Key Algorithm: rsaEncryption
                Public-Key: (4096 bit)
                Modulus:
                    00:d2:42:f1:c4:8f:45:10:e2:05:84:32:b2:93:ca:
                    99:08:d1:80:53:d8:79:70:e9:83:4c:83:0d:a7:6e:
                    ee:08:c7:ea:84:dd:77:3d:0e:86:cd:db:85:2a:cb:
                    40:8f:4d:3a:05:da:ee:16:5e:d9:15:23:7a:9c:8b:
                    db:9a:f8:aa:52:3b:e4:1f:1c:c5:a7:72:bf:f1:d5:
                    ec:21:c7:2a:42:08:59:14:c7:bd:bb:d6:b6:7d:32:
                    5f:28:91:4f:9e:c3:32:21:d8:88:01:88:a2:d2:13:
                    11:45:68:0b:84:c8:e5:a0:3a:c4:1a:f7:59:a8:1f:
                    64:98:1c:fb:43:f9:6d:b5:85:f8:ba:5c:e3:93:92:
                    bc:bd:bb:01:af:6c:4e:80:aa:12:cc:96:32:17:97:
                    16:82:65:9f:19:98:96:ee:d6:50:68:c7:be:13:fd:
                    0b:ce:0b:28:76:a7:b4:27:a6:4b:74:fd:cd:92:8f:
                    bf:f3:65:79:ee:f1:8e:e5:1f:7c:cc:a2:74:05:82:
                    41:b0:c3:0f:17:c6:63:67:df:1e:96:d1:4e:6a:03:
                    a9:3f:ee:25:2c:44:2e:bb:10:19:10:2a:c2:e3:ba:
                    17:99:41:16:75:da:c9:d6:78:3c:b6:9e:ca:86:78:
                    ab:88:11:a0:08:3a:8e:70:ad:3d:69:a4:91:1c:99:
                    cc:ca:49:6d:01:64:7d:62:f2:78:c6:ee:58:59:a6:
                    2a:57:e4:77:c3:47:47:d3:35:fb:ff:91:a0:d3:f5:
                    5c:ea:67:93:e5:2e:80:19:69:19:5f:5e:17:57:7f:
                    4e:7c:be:b3:0b:f5:c9:af:72:4e:9c:9d:a8:0e:12:
                    f7:7e:23:55:a8:45:5e:7b:5e:46:66:c5:e4:27:59:
                    24:c4:cb:cc:a6:c4:bc:09:ac:d6:03:49:45:5b:b0:
                    5a:98:73:f0:66:70:15:78:f0:4b:1a:8f:62:5d:13:
                    14:07:44:ad:92:a7:cc:c1:a8:9c:9c:73:e1:4d:ba:
                    57:9c:9f:7d:5c:65:fd:3e:0b:ba:2a:f2:3e:2c:ed:
                    02:72:7c:67:16:d8:78:aa:e7:25:92:41:d8:72:bd:
                    94:a8:99:d1:b0:3e:f0:b4:92:a9:39:a1:96:81:e5:
                    79:60:62:e9:5b:bf:ac:f8:1d:5e:c8:cf:58:93:86:
                    69:ef:13:b4:d7:fb:22:aa:61:4c:c5:4c:2f:75:b8:
                    48:68:fe:23:16:4e:d6:95:ce:66:15:ab:af:21:c7:
                    a4:d1:46:3e:65:98:17:c4:cc:3d:57:f5:8b:52:e2:
                    03:48:99:0a:e4:ed:30:3a:50:c4:32:59:fa:1d:ca:
                    4b:57:45:71:4c:a7:36:cc:c4:27:fd:e5:64:b1:0b:
                    48:33:11
                Exponent: 65537 (0x10001)
        X509v3 extensions:
            X509v3 Basic Constraints: 
                CA:FALSE
            Netscape Comment: 
                Easy-RSA Generated Certificate
            X509v3 Subject Key Identifier: 
                D2:6F:AB:43:5E:71:4B:E1:9D:76:4A:C8:EE:49:07:97:74:AC:79:42
            X509v3 Authority Key Identifier: 
                keyid:EF:38:8D:14:50:58:A7:5B:4D:9C:17:72:FC:DF:B9:AC:A7:51:B0:10
                DirName:/C=US/ST=CA/L=SanFrancisco/O=Pixglo, Inc./OU=VPN-CIE/CN=tunnel.pixglo.com/name=Bala Chandrasekaran/emailAddress=bala@pixglo.com
                serial:A6:DB:C6:83:80:E6:A0:79

            X509v3 Extended Key Usage: 
                TLS Web Client Authentication
            X509v3 Key Usage: 
                Digital Signature
    Signature Algorithm: sha1WithRSAEncryption
         66:54:da:c6:55:61:2c:a1:af:ac:e3:c9:36:16:83:b4:91:3f:
         db:6a:6f:be:35:bb:5f:7a:46:45:2f:ea:59:c9:8b:0d:d1:1a:
         b7:f2:f4:9a:ee:06:e8:b7:2c:02:db:04:90:0f:51:f9:96:e6:
         37:0f:85:93:7f:56:8b:f7:76:e9:30:d9:15:5a:b8:7a:9a:a2:
         52:e7:16:86:d9:d5:cf:26:99:e8:2b:f0:d1:cb:a8:28:eb:e8:
         a9:ed:dd:79:df:ed:e6:48:95:f0:6e:f5:2a:55:df:f3:42:72:
         74:9a:0e:c7:f8:e0:3e:9d:21:11:0d:5b:ff:bf:83:29:c5:f3:
         50:e2:06:ad:4f:54:e6:b4:d9:69:32:4a:b2:14:2a:ef:54:e4:
         e0:63:39:04:bd:19:5e:27:31:e6:f1:3f:ec:d0:c9:88:5e:d8:
         a7:c4:fe:4b:f0:f6:65:45:68:b6:87:a8:e4:62:cf:be:a8:e4:
         0e:eb:3c:41:20:12:64:b3:6b:80:4f:3b:70:30:41:e3:16:e2:
         a2:92:41:3a:8c:96:a3:13:78:f6:98:1e:8e:17:62:fc:ab:1e:
         9a:9c:14:52:6e:39:e3:db:ed:ff:a6:c9:2e:84:06:54:11:d7:
         e4:e4:42:98:d6:5f:2b:b4:b9:38:8a:7b:0b:9b:1c:54:b9:28:
         01:41:32:28:58:f8:b4:d0:62:60:5c:f0:f7:9d:ae:24:c5:70:
         51:1a:d2:cc:6f:60:75:6c:9a:94:35:0c:cf:39:09:26:09:b6:
         b4:d3:7b:2c:02:bd:78:dd:77:2e:35:b2:39:5e:e7:3f:db:c0:
         19:f5:93:e3:a8:d5:5a:42:4e:f2:39:26:c1:2c:2e:68:ba:b2:
         da:a8:4a:5f:6f:ab:2a:ba:0c:65:be:10:bb:01:f9:4e:8c:09:
         d5:16:ae:4f:a6:73:08:0d:60:7d:a5:d3:fc:01:a2:80:d6:e9:
         5b:0b:fc:68:d3:b5:2b:89:44:40:75:af:bc:1b:35:b4:2d:fe:
         8a:08:89:1b:5c:42:3e:72:5c:1e:d8:05:9f:47:b2:e7:2a:2a:
         ba:d1:f0:27:0d:ae:52:fc:e3:8e:e8:cf:2d:41:5b:e4:b4:92:
         f9:1c:07:80:dd:75:8b:c6:1c:39:2b:a2:0d:c7:4f:bc:57:4a:
         fb:a6:aa:2d:53:5c:c3:f8:f1:7e:ac:44:b8:13:72:2b:21:15:
         a4:2d:ba:a6:d7:ab:d4:7d:9f:1f:94:4f:07:b0:f8:b4:6f:49:
         08:d6:01:27:b4:e1:10:7b:02:99:8d:d1:c2:fe:a2:eb:dd:b0:
         6e:d5:96:58:11:5c:a3:f3:7d:4f:43:07:fa:e1:0d:13:3b:14:
         92:fa:8c:ee:7f:7c:35:a5
-----BEGIN CERTIFICATE-----
MIIHSDCCBTCgAwIBAgICA4QwDQYJKoZIhvcNAQEFBQAwgbQxCzAJBgNVBAYTAlVT
MQswCQYDVQQIEwJDQTEVMBMGA1UEBxMMU2FuRnJhbmNpc2NvMRUwEwYDVQQKEwxQ
aXhnbG8sIEluYy4xEDAOBgNVBAsTB1ZQTi1DSUUxGjAYBgNVBAMTEXR1bm5lbC5w
aXhnbG8uY29tMRwwGgYDVQQpExNCYWxhIENoYW5kcmFzZWthcmFuMR4wHAYJKoZI
hvcNAQkBFg9iYWxhQHBpeGdsby5jb20wHhcNMTgwMjE0MDY0NzE4WhcNMjgwMjEy
MDY0NzE4WjCBqTELMAkGA1UEBhMCVVMxCzAJBgNVBAgTAkNBMRUwEwYDVQQHEwxT
YW5GcmFuY2lzY28xFTATBgNVBAoTDFBpeGdsbywgSW5jLjEQMA4GA1UECxMHVlBO
LUNJRTEPMA0GA1UEAxMGY2llODk5MRwwGgYDVQQpExNCYWxhIENoYW5kcmFzZWth
cmFuMR4wHAYJKoZIhvcNAQkBFg9iYWxhQHBpeGdsby5jb20wggIiMA0GCSqGSIb3
DQEBAQUAA4ICDwAwggIKAoICAQDSQvHEj0UQ4gWEMrKTypkI0YBT2Hlw6YNMgw2n
bu4Ix+qE3Xc9DobN24Uqy0CPTToF2u4WXtkVI3qci9ua+KpSO+QfHMWncr/x1ewh
xypCCFkUx7271rZ9Ml8okU+ewzIh2IgBiKLSExFFaAuEyOWgOsQa91moH2SYHPtD
+W21hfi6XOOTkry9uwGvbE6AqhLMljIXlxaCZZ8ZmJbu1lBox74T/QvOCyh2p7Qn
pkt0/c2Sj7/zZXnu8Y7lH3zMonQFgkGwww8XxmNn3x6W0U5qA6k/7iUsRC67EBkQ
KsLjuheZQRZ12snWeDy2nsqGeKuIEaAIOo5wrT1ppJEcmczKSW0BZH1i8njG7lhZ
pipX5HfDR0fTNfv/kaDT9VzqZ5PlLoAZaRlfXhdXf058vrML9cmvck6cnagOEvd+
I1WoRV57XkZmxeQnWSTEy8ymxLwJrNYDSUVbsFqYc/BmcBV48Esaj2JdExQHRK2S
p8zBqJycc+FNulecn31cZf0+C7oq8j4s7QJyfGcW2Hiq5yWSQdhyvZSomdGwPvC0
kqk5oZaB5XlgYulbv6z4HV7Iz1iThmnvE7TX+yKqYUzFTC91uEho/iMWTtaVzmYV
q68hx6TRRj5lmBfEzD1X9YtS4gNImQrk7TA6UMQyWfodyktXRXFMpzbMxCf95WSx
C0gzEQIDAQABo4IBazCCAWcwCQYDVR0TBAIwADAtBglghkgBhvhCAQ0EIBYeRWFz
eS1SU0EgR2VuZXJhdGVkIENlcnRpZmljYXRlMB0GA1UdDgQWBBTSb6tDXnFL4Z12
SsjuSQeXdKx5QjCB6QYDVR0jBIHhMIHegBTvOI0UUFinW02cF3L837msp1GwEKGB
uqSBtzCBtDELMAkGA1UEBhMCVVMxCzAJBgNVBAgTAkNBMRUwEwYDVQQHEwxTYW5G
cmFuY2lzY28xFTATBgNVBAoTDFBpeGdsbywgSW5jLjEQMA4GA1UECxMHVlBOLUNJ
RTEaMBgGA1UEAxMRdHVubmVsLnBpeGdsby5jb20xHDAaBgNVBCkTE0JhbGEgQ2hh
bmRyYXNla2FyYW4xHjAcBgkqhkiG9w0BCQEWD2JhbGFAcGl4Z2xvLmNvbYIJAKbb
xoOA5qB5MBMGA1UdJQQMMAoGCCsGAQUFBwMCMAsGA1UdDwQEAwIHgDANBgkqhkiG
9w0BAQUFAAOCAgEAZlTaxlVhLKGvrOPJNhaDtJE/22pvvjW7X3pGRS/qWcmLDdEa
t/L0mu4G6LcsAtsEkA9R+ZbmNw+Fk39Wi/d26TDZFVq4epqiUucWhtnVzyaZ6Cvw
0cuoKOvoqe3ded/t5kiV8G71KlXf80JydJoOx/jgPp0hEQ1b/7+DKcXzUOIGrU9U
5rTZaTJKshQq71Tk4GM5BL0ZXicx5vE/7NDJiF7Yp8T+S/D2ZUVotoeo5GLPvqjk
Dus8QSASZLNrgE87cDBB4xbiopJBOoyWoxN49pgejhdi/KsempwUUm4549vt/6bJ
LoQGVBHX5ORCmNZfK7S5OIp7C5scVLkoAUEyKFj4tNBiYFzw952uJMVwURrSzG9g
dWyalDUMzzkJJgm2tNN7LAK9eN13LjWyOV7nP9vAGfWT46jVWkJO8jkmwSwuaLqy
2qhKX2+rKroMZb4QuwH5TowJ1RauT6ZzCA1gfaXT/AGigNbpWwv8aNO1K4lEQHWv
vBs1tC3+igiJG1xCPnJcHtgFn0ey5yoqutHwJw2uUvzjjujPLUFb5LSS+RwHgN11
i8YcOSuiDcdPvFdK+6aqLVNcw/jxfqxEuBNyKyEVpC26pter1H2fH5RPB7D4tG9J
CNYBJ7ThEHsCmY3Rwv6i692wbtWWWBFco/N9T0MH+uENEzsUkvqM7n98NaU=
-----END CERTIFICATE-----
