Certificate:
    Data:
        Version: 3 (0x2)
        Serial Number: 901 (0x385)
    Signature Algorithm: sha1WithRSAEncryption
        Issuer: C=US, ST=CA, L=SanFrancisco, O=Pixglo, Inc., OU=VPN-CIE, CN=tunnel.pixglo.com/name=Bala Chandrasekaran/emailAddress=bala@pixglo.com
        Validity
            Not Before: Feb 14 06:47:21 2018 GMT
            Not After : Feb 12 06:47:21 2028 GMT
        Subject: C=US, ST=CA, L=SanFrancisco, O=Pixglo, Inc., OU=VPN-CIE, CN=cie900/name=Bala Chandrasekaran/emailAddress=bala@pixglo.com
        Subject Public Key Info:
            Public Key Algorithm: rsaEncryption
                Public-Key: (4096 bit)
                Modulus:
                    00:cf:d9:b1:a5:e6:a1:07:81:1c:78:6c:0e:6c:10:
                    fa:de:2b:08:79:24:fa:1f:d6:53:0d:d9:0d:3b:70:
                    62:bb:1a:9c:62:82:cd:ab:3c:55:7a:04:52:c6:09:
                    a8:0c:c4:86:08:16:9e:1d:e4:18:e0:00:05:ff:da:
                    0e:9a:a9:5a:2c:37:c5:9f:ed:e9:3c:92:48:01:15:
                    13:8f:0c:ab:b9:70:d6:83:57:ec:5b:cb:78:9a:5a:
                    70:f5:ff:fe:48:79:67:02:aa:67:59:c2:ed:5b:c8:
                    e3:5c:e7:f7:79:2d:d8:35:ca:5e:fe:2c:74:d9:5e:
                    09:f2:a2:bc:d8:de:b6:94:28:b3:55:8f:df:79:f7:
                    42:4d:6d:a1:12:48:40:c4:87:5c:19:b8:d9:33:48:
                    f7:34:94:c3:fd:f9:4f:da:c2:82:d8:91:aa:4d:e2:
                    46:bc:10:ed:78:af:8b:c6:e9:9d:23:46:b1:10:65:
                    aa:77:ae:ee:c7:15:0f:62:24:14:86:19:50:59:55:
                    b9:e5:3c:9d:c6:cc:9b:dd:b5:8f:c0:d5:f8:8a:bc:
                    6c:12:57:e1:19:21:71:d5:bb:0a:ae:94:2d:27:83:
                    09:4a:b2:72:07:fe:db:24:e1:26:54:51:4a:5b:02:
                    60:5d:2e:0c:4d:a8:2d:37:c5:90:5f:f6:ca:7a:8d:
                    16:06:e0:77:d1:37:d0:e0:30:a9:5b:32:ce:6c:0c:
                    99:57:5b:6a:49:df:9e:c9:fc:46:bf:18:7e:d4:31:
                    f4:80:f9:1f:c6:12:ce:c0:2a:15:ca:51:b8:26:f8:
                    2b:db:67:10:ac:0e:5e:5a:35:54:d9:81:72:d1:4e:
                    9e:0c:e7:04:b0:84:47:0e:f9:94:cf:6d:6a:79:27:
                    dc:6c:95:64:0c:4e:ad:da:9c:38:bb:2c:a0:2b:4e:
                    71:49:c3:5d:94:41:95:fe:22:42:62:1e:02:06:fc:
                    d9:28:d5:3d:93:5b:9c:e5:da:e4:3e:51:d4:26:c2:
                    7a:f8:7a:72:10:89:4a:47:6d:b0:7d:df:96:0b:36:
                    21:10:57:55:2b:a6:43:f3:7a:e5:82:6f:ad:78:f2:
                    80:72:46:55:4b:61:e2:61:f6:78:b1:ef:af:5b:e5:
                    c7:9e:95:bc:dc:dd:8c:fc:11:d0:47:e9:3d:d6:ad:
                    65:a1:93:14:2e:11:1f:a4:ed:e2:b2:77:fd:c5:b1:
                    5f:91:23:3f:e4:bc:70:21:08:df:21:ca:3b:87:bc:
                    b0:79:3c:5c:c3:da:1e:08:d1:e3:28:0a:32:f0:2d:
                    0a:2f:66:b4:a2:49:43:02:f1:09:14:05:c3:cb:a3:
                    e7:0b:41:9d:c6:32:af:04:84:80:71:1b:81:d0:a8:
                    df:38:55
                Exponent: 65537 (0x10001)
        X509v3 extensions:
            X509v3 Basic Constraints: 
                CA:FALSE
            Netscape Comment: 
                Easy-RSA Generated Certificate
            X509v3 Subject Key Identifier: 
                DE:5C:32:72:B7:7E:43:14:1B:DF:5E:4E:7B:40:30:12:48:6A:21:0A
            X509v3 Authority Key Identifier: 
                keyid:EF:38:8D:14:50:58:A7:5B:4D:9C:17:72:FC:DF:B9:AC:A7:51:B0:10
                DirName:/C=US/ST=CA/L=SanFrancisco/O=Pixglo, Inc./OU=VPN-CIE/CN=tunnel.pixglo.com/name=Bala Chandrasekaran/emailAddress=bala@pixglo.com
                serial:A6:DB:C6:83:80:E6:A0:79

            X509v3 Extended Key Usage: 
                TLS Web Client Authentication
            X509v3 Key Usage: 
                Digital Signature
    Signature Algorithm: sha1WithRSAEncryption
         94:b9:58:7a:41:14:fa:f0:ab:38:96:81:6b:f4:38:43:fb:fc:
         ce:cb:fe:0b:33:ef:e9:23:ab:a8:64:dc:31:2f:4f:3e:b6:00:
         59:77:14:62:8f:56:23:bb:b5:3c:27:b9:35:7b:8e:fc:40:be:
         15:0d:d6:df:0d:5c:41:b6:d3:4c:9b:5f:68:61:91:be:83:39:
         7e:7b:50:5d:4c:1a:9d:ba:12:8c:2e:17:67:3c:d3:1a:cc:a4:
         15:c0:85:d6:69:6e:4c:25:d1:84:89:c5:f4:f5:0b:15:a4:64:
         88:d0:9b:ee:b1:af:d0:e3:21:eb:c1:ad:81:17:09:7e:45:7c:
         df:10:f3:b2:20:4c:33:be:5f:2d:6b:35:82:2f:21:0e:8d:12:
         1d:be:8c:42:ba:02:c9:e6:ba:48:be:63:fb:d7:0f:bd:33:bb:
         b3:f2:69:37:fa:c1:e5:c1:96:4b:b6:68:1c:fd:83:17:87:61:
         db:be:57:02:ab:af:7c:5b:50:52:c6:eb:80:ee:cf:89:29:78:
         b9:c1:9e:3e:9d:b7:29:ae:62:70:33:c4:a6:26:75:33:9b:4b:
         80:8c:2e:cf:71:95:f4:85:ef:d7:7a:e6:eb:50:ba:a7:84:13:
         e9:cf:7c:a2:89:27:e1:5a:54:d1:3a:97:a2:4a:8c:1d:d0:c1:
         ad:82:ea:75:69:7b:f6:46:1f:4b:b9:8f:4e:a0:a7:60:35:00:
         42:3b:f1:ec:e7:a4:c9:e8:6e:6b:f8:c1:75:ab:cc:be:f7:07:
         1e:62:15:bf:3f:23:56:61:f7:f9:fc:7d:54:c2:b1:80:b2:fa:
         90:a9:cf:c6:47:6d:17:d4:9f:17:70:bf:7c:46:df:42:69:09:
         dd:e0:e1:21:99:a1:e7:90:6a:94:81:19:77:b0:39:a7:62:b8:
         1f:ae:01:96:fc:28:70:7b:09:fe:4b:f0:3c:f0:71:67:f4:59:
         2e:2a:4e:0c:24:1e:97:d4:2c:69:c1:ac:56:48:13:72:61:11:
         1d:5f:f6:34:89:6b:4f:77:98:7e:82:12:ef:d8:5d:ae:93:3a:
         42:73:c5:e7:c2:97:54:90:cd:65:12:7a:ae:00:e1:3d:06:f4:
         b9:78:fb:37:2b:f1:0c:30:09:02:8d:87:7f:7b:2f:e4:fc:9d:
         b1:3e:f6:36:66:ee:01:2d:f1:e8:1d:cb:d3:b4:6e:ce:11:92:
         d0:dd:82:9f:c7:f2:d0:10:20:5e:37:3d:a0:8b:37:a5:15:95:
         e4:6a:95:dd:47:04:f2:37:fd:d7:5c:13:ca:49:75:21:d4:ce:
         7d:5a:67:80:d7:4b:40:10:42:dd:e9:fc:c8:6b:82:38:4c:7c:
         a0:76:96:c5:75:6e:1d:08
-----BEGIN CERTIFICATE-----
MIIHSDCCBTCgAwIBAgICA4UwDQYJKoZIhvcNAQEFBQAwgbQxCzAJBgNVBAYTAlVT
MQswCQYDVQQIEwJDQTEVMBMGA1UEBxMMU2FuRnJhbmNpc2NvMRUwEwYDVQQKEwxQ
aXhnbG8sIEluYy4xEDAOBgNVBAsTB1ZQTi1DSUUxGjAYBgNVBAMTEXR1bm5lbC5w
aXhnbG8uY29tMRwwGgYDVQQpExNCYWxhIENoYW5kcmFzZWthcmFuMR4wHAYJKoZI
hvcNAQkBFg9iYWxhQHBpeGdsby5jb20wHhcNMTgwMjE0MDY0NzIxWhcNMjgwMjEy
MDY0NzIxWjCBqTELMAkGA1UEBhMCVVMxCzAJBgNVBAgTAkNBMRUwEwYDVQQHEwxT
YW5GcmFuY2lzY28xFTATBgNVBAoTDFBpeGdsbywgSW5jLjEQMA4GA1UECxMHVlBO
LUNJRTEPMA0GA1UEAxMGY2llOTAwMRwwGgYDVQQpExNCYWxhIENoYW5kcmFzZWth
cmFuMR4wHAYJKoZIhvcNAQkBFg9iYWxhQHBpeGdsby5jb20wggIiMA0GCSqGSIb3
DQEBAQUAA4ICDwAwggIKAoICAQDP2bGl5qEHgRx4bA5sEPreKwh5JPof1lMN2Q07
cGK7Gpxigs2rPFV6BFLGCagMxIYIFp4d5BjgAAX/2g6aqVosN8Wf7ek8kkgBFROP
DKu5cNaDV+xby3iaWnD1//5IeWcCqmdZwu1byONc5/d5Ldg1yl7+LHTZXgnyorzY
3raUKLNVj99590JNbaESSEDEh1wZuNkzSPc0lMP9+U/awoLYkapN4ka8EO14r4vG
6Z0jRrEQZap3ru7HFQ9iJBSGGVBZVbnlPJ3GzJvdtY/A1fiKvGwSV+EZIXHVuwqu
lC0ngwlKsnIH/tsk4SZUUUpbAmBdLgxNqC03xZBf9sp6jRYG4HfRN9DgMKlbMs5s
DJlXW2pJ357J/Ea/GH7UMfSA+R/GEs7AKhXKUbgm+CvbZxCsDl5aNVTZgXLRTp4M
5wSwhEcO+ZTPbWp5J9xslWQMTq3anDi7LKArTnFJw12UQZX+IkJiHgIG/Nko1T2T
W5zl2uQ+UdQmwnr4enIQiUpHbbB935YLNiEQV1UrpkPzeuWCb6148oByRlVLYeJh
9nix769b5ceelbzc3Yz8EdBH6T3WrWWhkxQuER+k7eKyd/3FsV+RIz/kvHAhCN8h
yjuHvLB5PFzD2h4I0eMoCjLwLQovZrSiSUMC8QkUBcPLo+cLQZ3GMq8EhIBxG4HQ
qN84VQIDAQABo4IBazCCAWcwCQYDVR0TBAIwADAtBglghkgBhvhCAQ0EIBYeRWFz
eS1SU0EgR2VuZXJhdGVkIENlcnRpZmljYXRlMB0GA1UdDgQWBBTeXDJyt35DFBvf
Xk57QDASSGohCjCB6QYDVR0jBIHhMIHegBTvOI0UUFinW02cF3L837msp1GwEKGB
uqSBtzCBtDELMAkGA1UEBhMCVVMxCzAJBgNVBAgTAkNBMRUwEwYDVQQHEwxTYW5G
cmFuY2lzY28xFTATBgNVBAoTDFBpeGdsbywgSW5jLjEQMA4GA1UECxMHVlBOLUNJ
RTEaMBgGA1UEAxMRdHVubmVsLnBpeGdsby5jb20xHDAaBgNVBCkTE0JhbGEgQ2hh
bmRyYXNla2FyYW4xHjAcBgkqhkiG9w0BCQEWD2JhbGFAcGl4Z2xvLmNvbYIJAKbb
xoOA5qB5MBMGA1UdJQQMMAoGCCsGAQUFBwMCMAsGA1UdDwQEAwIHgDANBgkqhkiG
9w0BAQUFAAOCAgEAlLlYekEU+vCrOJaBa/Q4Q/v8zsv+CzPv6SOrqGTcMS9PPrYA
WXcUYo9WI7u1PCe5NXuO/EC+FQ3W3w1cQbbTTJtfaGGRvoM5fntQXUwanboSjC4X
ZzzTGsykFcCF1mluTCXRhInF9PULFaRkiNCb7rGv0OMh68GtgRcJfkV83xDzsiBM
M75fLWs1gi8hDo0SHb6MQroCyea6SL5j+9cPvTO7s/JpN/rB5cGWS7ZoHP2DF4dh
275XAquvfFtQUsbrgO7PiSl4ucGePp23Ka5icDPEpiZ1M5tLgIwuz3GV9IXv13rm
61C6p4QT6c98ookn4VpU0TqXokqMHdDBrYLqdWl79kYfS7mPTqCnYDUAQjvx7Oek
yehua/jBdavMvvcHHmIVvz8jVmH3+fx9VMKxgLL6kKnPxkdtF9SfF3C/fEbfQmkJ
3eDhIZmh55BqlIEZd7A5p2K4H64BlvwocHsJ/kvwPPBxZ/RZLipODCQel9QsacGs
VkgTcmERHV/2NIlrT3eYfoIS79hdrpM6QnPF58KXVJDNZRJ6rgDhPQb0uXj7Nyvx
DDAJAo2Hf3sv5PydsT72NmbuAS3x6B3L07RuzhGS0N2Cn8fy0BAgXjc9oIs3pRWV
5GqV3UcE8jf911wTykl1IdTOfVpngNdLQBBC3en8yGuCOEx8oHaWxXVuHQg=
-----END CERTIFICATE-----
