Certificate:
    Data:
        Version: 3 (0x2)
        Serial Number: 906 (0x38a)
    Signature Algorithm: sha1WithRSAEncryption
        Issuer: C=US, ST=CA, L=SanFrancisco, O=Pixglo, Inc., OU=VPN-CIE, CN=tunnel.pixglo.com/name=Bala Chandrasekaran/emailAddress=bala@pixglo.com
        Validity
            Not Before: Feb 14 06:47:31 2018 GMT
            Not After : Feb 12 06:47:31 2028 GMT
        Subject: C=US, ST=CA, L=SanFrancisco, O=Pixglo, Inc., OU=VPN-CIE, CN=cie905/name=Bala Chandrasekaran/emailAddress=bala@pixglo.com
        Subject Public Key Info:
            Public Key Algorithm: rsaEncryption
                Public-Key: (4096 bit)
                Modulus:
                    00:a0:ac:0d:c9:40:d5:52:fd:67:b0:37:f5:e4:a2:
                    6b:90:57:41:c5:e6:4e:72:87:cc:b2:fd:f5:31:c2:
                    26:be:c6:64:13:9e:fd:67:6c:49:08:ca:36:7f:6c:
                    59:b6:5f:15:39:f8:da:0c:ae:8a:31:7c:45:3a:51:
                    92:d6:7c:dc:94:15:8d:5b:6e:3a:81:ec:3d:49:82:
                    18:89:c8:1e:f8:cb:6a:b1:4c:d5:78:0a:ae:5d:86:
                    21:20:65:31:84:91:4b:37:30:0f:e5:f5:12:f1:d9:
                    50:f9:e0:72:19:92:ad:6e:dd:f8:d7:44:83:7b:d8:
                    e2:bf:d3:67:90:7f:82:c9:13:f0:25:70:9a:06:92:
                    c3:38:9f:3f:1f:ce:eb:24:31:cb:88:f4:e2:99:8d:
                    68:c5:0c:bd:90:18:4d:c4:4f:89:82:74:6f:aa:10:
                    d4:5e:72:d3:55:01:6a:14:11:ec:01:80:8f:26:d1:
                    01:55:a7:c7:f6:64:32:f7:21:aa:13:33:f7:65:2f:
                    14:0a:0e:9b:94:a8:b0:39:2f:86:4e:80:19:d5:f2:
                    4b:9b:20:ed:31:e5:62:3e:80:45:e4:32:88:3d:0c:
                    0f:52:c0:ef:33:d8:ea:1e:2a:1c:f1:03:3f:3b:4e:
                    d0:cf:46:d7:e8:60:c8:73:e1:49:4e:d3:05:5b:3b:
                    50:2d:bf:13:5d:d5:9f:18:af:70:fa:4a:90:10:eb:
                    5f:51:cf:66:33:97:03:d9:40:7b:bc:0d:0e:05:16:
                    a1:e7:6a:0f:19:1e:89:db:56:bc:ba:6f:07:4f:b0:
                    3c:7f:cb:81:77:1f:6b:ce:4d:bb:f5:dc:57:ac:dc:
                    fa:bb:d7:e1:ef:31:4f:c8:53:41:fc:98:10:7e:b0:
                    3a:fa:09:12:f4:7e:6d:db:53:cd:08:19:61:5a:67:
                    82:9c:8c:0a:0d:27:81:3b:05:40:98:79:27:81:4d:
                    96:c8:e5:db:18:f9:7d:b7:0b:12:c4:d4:bb:9b:e0:
                    2a:cf:a1:4f:70:75:ee:2b:dd:3d:36:1f:1f:34:16:
                    69:61:a9:49:b4:b0:cc:5a:9c:f6:ec:21:7f:20:8d:
                    9c:02:db:cf:49:f4:6c:a0:b3:e5:70:14:e1:7e:f5:
                    21:f7:ed:83:fe:31:01:ff:69:34:b5:eb:f4:39:08:
                    01:ce:d5:fb:a2:1e:34:c3:00:c7:f6:17:8e:41:83:
                    95:a4:ea:63:c1:07:b6:a3:3b:6a:ca:5b:04:d1:53:
                    9d:e0:05:e4:8a:a9:14:f3:95:ea:e1:5d:8b:52:a0:
                    62:57:f9:3e:a9:f5:1a:de:78:df:aa:62:d4:ef:49:
                    bb:50:9d:99:34:a1:4c:5c:8d:e4:a6:ba:e7:c3:60:
                    62:87:d1
                Exponent: 65537 (0x10001)
        X509v3 extensions:
            X509v3 Basic Constraints: 
                CA:FALSE
            Netscape Comment: 
                Easy-RSA Generated Certificate
            X509v3 Subject Key Identifier: 
                C6:01:C0:88:CA:65:D6:17:B9:B1:E6:A3:A7:D1:B6:47:A0:2C:12:B7
            X509v3 Authority Key Identifier: 
                keyid:EF:38:8D:14:50:58:A7:5B:4D:9C:17:72:FC:DF:B9:AC:A7:51:B0:10
                DirName:/C=US/ST=CA/L=SanFrancisco/O=Pixglo, Inc./OU=VPN-CIE/CN=tunnel.pixglo.com/name=Bala Chandrasekaran/emailAddress=bala@pixglo.com
                serial:A6:DB:C6:83:80:E6:A0:79

            X509v3 Extended Key Usage: 
                TLS Web Client Authentication
            X509v3 Key Usage: 
                Digital Signature
    Signature Algorithm: sha1WithRSAEncryption
         1d:75:1a:c2:da:5a:71:cb:7d:0f:91:22:35:43:01:3f:dd:fa:
         d2:08:00:c8:8e:ed:e5:ed:4f:51:d6:f6:cb:03:fa:85:ae:1b:
         83:b7:72:8a:ba:c3:d5:24:08:70:e3:17:67:85:c5:67:1e:e6:
         79:38:f5:4f:e1:0e:1f:2d:3a:04:e3:ae:2d:87:96:24:24:f5:
         1c:76:03:d4:8e:94:41:10:33:75:8d:7f:1d:e9:8d:b4:e7:6f:
         29:bc:5b:0e:db:8a:22:4a:34:3c:46:4d:8f:0b:a5:99:f1:5c:
         97:81:af:5e:6c:d5:05:63:13:fa:17:1a:dc:f1:9a:17:0b:2c:
         68:64:f1:a4:ae:2a:4c:66:35:0c:59:c6:f4:4c:ab:a4:85:8f:
         1b:82:c6:47:01:30:3b:c8:b5:45:fb:1c:b8:82:c4:e7:c6:ef:
         6c:92:a8:59:b8:3c:06:55:b5:2c:1f:d3:48:cf:19:08:81:59:
         00:a0:20:f1:1c:29:4b:5f:a1:5c:4d:ed:65:c6:42:84:90:4e:
         58:c4:e2:ad:b2:85:4b:3a:fa:f4:9a:e8:80:90:26:7f:a0:5f:
         b5:02:4e:96:1d:41:80:1e:a4:1c:3e:b0:18:a1:9a:72:42:0f:
         ee:c6:8c:7d:e8:9d:d5:c9:79:1c:f8:65:03:73:fe:d3:f5:57:
         fe:62:51:b5:ed:7c:c8:f3:d3:90:6b:0c:59:b0:64:1e:dd:a9:
         e4:b9:cf:2b:5d:77:b6:89:c0:61:f0:f9:7f:58:f0:e2:73:b9:
         71:cb:9b:e8:be:df:94:ff:6a:0b:bb:a4:75:78:b1:3e:19:18:
         58:1b:af:5a:82:39:87:d9:d2:c3:a8:3b:71:a9:b1:88:70:1a:
         b9:9f:fa:06:65:4c:3d:75:4b:e5:23:8f:bf:b6:6c:00:94:b9:
         46:9f:80:2b:e0:16:86:35:dd:0e:b5:a1:b8:a2:e7:fa:c2:43:
         5a:b3:7a:34:98:23:c2:56:2f:4c:11:2b:88:c0:4a:6f:10:fb:
         5c:97:2d:60:fd:e3:94:e3:f9:e6:3d:1b:48:1b:28:b1:91:a9:
         ef:30:f5:0e:58:e5:b7:60:84:40:c2:b5:a9:1f:fe:32:b6:35:
         e6:6d:44:a6:35:de:9c:6e:da:73:94:b2:ca:e2:93:bb:f8:51:
         b8:bc:c2:f1:ff:13:14:cd:9b:5e:58:5c:39:d9:23:63:73:fd:
         ca:37:ff:71:f2:ca:7d:d3:29:de:e6:b3:85:23:c9:48:bd:37:
         e3:cf:4c:b5:74:e9:c4:a2:fc:d7:a3:8d:3c:4c:7e:97:15:55:
         56:3d:e6:a0:8e:bf:b3:18:ad:2b:55:03:72:81:e6:37:ae:b3:
         0f:28:ec:0c:9b:1c:85:65
-----BEGIN CERTIFICATE-----
MIIHSDCCBTCgAwIBAgICA4owDQYJKoZIhvcNAQEFBQAwgbQxCzAJBgNVBAYTAlVT
MQswCQYDVQQIEwJDQTEVMBMGA1UEBxMMU2FuRnJhbmNpc2NvMRUwEwYDVQQKEwxQ
aXhnbG8sIEluYy4xEDAOBgNVBAsTB1ZQTi1DSUUxGjAYBgNVBAMTEXR1bm5lbC5w
aXhnbG8uY29tMRwwGgYDVQQpExNCYWxhIENoYW5kcmFzZWthcmFuMR4wHAYJKoZI
hvcNAQkBFg9iYWxhQHBpeGdsby5jb20wHhcNMTgwMjE0MDY0NzMxWhcNMjgwMjEy
MDY0NzMxWjCBqTELMAkGA1UEBhMCVVMxCzAJBgNVBAgTAkNBMRUwEwYDVQQHEwxT
YW5GcmFuY2lzY28xFTATBgNVBAoTDFBpeGdsbywgSW5jLjEQMA4GA1UECxMHVlBO
LUNJRTEPMA0GA1UEAxMGY2llOTA1MRwwGgYDVQQpExNCYWxhIENoYW5kcmFzZWth
cmFuMR4wHAYJKoZIhvcNAQkBFg9iYWxhQHBpeGdsby5jb20wggIiMA0GCSqGSIb3
DQEBAQUAA4ICDwAwggIKAoICAQCgrA3JQNVS/WewN/XkomuQV0HF5k5yh8yy/fUx
wia+xmQTnv1nbEkIyjZ/bFm2XxU5+NoMrooxfEU6UZLWfNyUFY1bbjqB7D1JghiJ
yB74y2qxTNV4Cq5dhiEgZTGEkUs3MA/l9RLx2VD54HIZkq1u3fjXRIN72OK/02eQ
f4LJE/AlcJoGksM4nz8fzuskMcuI9OKZjWjFDL2QGE3ET4mCdG+qENRectNVAWoU
EewBgI8m0QFVp8f2ZDL3IaoTM/dlLxQKDpuUqLA5L4ZOgBnV8kubIO0x5WI+gEXk
Mog9DA9SwO8z2OoeKhzxAz87TtDPRtfoYMhz4UlO0wVbO1AtvxNd1Z8Yr3D6SpAQ
619Rz2YzlwPZQHu8DQ4FFqHnag8ZHonbVry6bwdPsDx/y4F3H2vOTbv13Fes3Pq7
1+HvMU/IU0H8mBB+sDr6CRL0fm3bU80IGWFaZ4KcjAoNJ4E7BUCYeSeBTZbI5dsY
+X23CxLE1Lub4CrPoU9wde4r3T02Hx80FmlhqUm0sMxanPbsIX8gjZwC289J9Gyg
s+VwFOF+9SH37YP+MQH/aTS16/Q5CAHO1fuiHjTDAMf2F45Bg5Wk6mPBB7ajO2rK
WwTRU53gBeSKqRTzlerhXYtSoGJX+T6p9RreeN+qYtTvSbtQnZk0oUxcjeSmuufD
YGKH0QIDAQABo4IBazCCAWcwCQYDVR0TBAIwADAtBglghkgBhvhCAQ0EIBYeRWFz
eS1SU0EgR2VuZXJhdGVkIENlcnRpZmljYXRlMB0GA1UdDgQWBBTGAcCIymXWF7mx
5qOn0bZHoCwStzCB6QYDVR0jBIHhMIHegBTvOI0UUFinW02cF3L837msp1GwEKGB
uqSBtzCBtDELMAkGA1UEBhMCVVMxCzAJBgNVBAgTAkNBMRUwEwYDVQQHEwxTYW5G
cmFuY2lzY28xFTATBgNVBAoTDFBpeGdsbywgSW5jLjEQMA4GA1UECxMHVlBOLUNJ
RTEaMBgGA1UEAxMRdHVubmVsLnBpeGdsby5jb20xHDAaBgNVBCkTE0JhbGEgQ2hh
bmRyYXNla2FyYW4xHjAcBgkqhkiG9w0BCQEWD2JhbGFAcGl4Z2xvLmNvbYIJAKbb
xoOA5qB5MBMGA1UdJQQMMAoGCCsGAQUFBwMCMAsGA1UdDwQEAwIHgDANBgkqhkiG
9w0BAQUFAAOCAgEAHXUawtpacct9D5EiNUMBP9360ggAyI7t5e1PUdb2ywP6ha4b
g7dyirrD1SQIcOMXZ4XFZx7meTj1T+EOHy06BOOuLYeWJCT1HHYD1I6UQRAzdY1/
HemNtOdvKbxbDtuKIko0PEZNjwulmfFcl4GvXmzVBWMT+hca3PGaFwssaGTxpK4q
TGY1DFnG9EyrpIWPG4LGRwEwO8i1RfscuILE58bvbJKoWbg8BlW1LB/TSM8ZCIFZ
AKAg8RwpS1+hXE3tZcZChJBOWMTirbKFSzr69JrogJAmf6BftQJOlh1BgB6kHD6w
GKGackIP7saMfeid1cl5HPhlA3P+0/VX/mJRte18yPPTkGsMWbBkHt2p5LnPK113
tonAYfD5f1jw4nO5ccub6L7flP9qC7ukdXixPhkYWBuvWoI5h9nSw6g7camxiHAa
uZ/6BmVMPXVL5SOPv7ZsAJS5Rp+AK+AWhjXdDrWhuKLn+sJDWrN6NJgjwlYvTBEr
iMBKbxD7XJctYP3jlOP55j0bSBsosZGp7zD1Dljlt2CEQMK1qR/+MrY15m1EpjXe
nG7ac5SyyuKTu/hRuLzC8f8TFM2bXlhcOdkjY3P9yjf/cfLKfdMp3uazhSPJSL03
489MtXTpxKL816ONPEx+lxVVVj3moI6/sxitK1UDcoHmN66zDyjsDJschWU=
-----END CERTIFICATE-----
