Certificate:
    Data:
        Version: 3 (0x2)
        Serial Number: 908 (0x38c)
    Signature Algorithm: sha1WithRSAEncryption
        Issuer: C=US, ST=CA, L=SanFrancisco, O=Pixglo, Inc., OU=VPN-CIE, CN=tunnel.pixglo.com/name=Bala Chandrasekaran/emailAddress=bala@pixglo.com
        Validity
            Not Before: Feb 14 06:47:36 2018 GMT
            Not After : Feb 12 06:47:36 2028 GMT
        Subject: C=US, ST=CA, L=SanFrancisco, O=Pixglo, Inc., OU=VPN-CIE, CN=cie907/name=Bala Chandrasekaran/emailAddress=bala@pixglo.com
        Subject Public Key Info:
            Public Key Algorithm: rsaEncryption
                Public-Key: (4096 bit)
                Modulus:
                    00:ce:65:50:f8:86:ab:f6:03:52:cb:72:88:ce:86:
                    bb:85:f4:39:b7:57:9a:4b:ca:81:75:05:f7:e0:2d:
                    55:78:2f:b1:b6:dd:47:f6:f4:5c:15:9a:aa:05:a6:
                    02:3e:96:90:2c:61:4a:5f:ce:d4:7d:f2:70:f4:b5:
                    08:c3:50:6a:13:31:0f:63:bd:bf:83:f3:c4:e6:11:
                    85:f7:aa:29:bf:dd:05:10:d6:4a:b7:bb:8c:8e:66:
                    eb:fd:0c:8f:da:cf:3a:5f:ad:3b:a2:6d:a2:8a:82:
                    60:ae:0f:16:dc:18:ec:0a:69:6c:28:1d:8e:a4:a4:
                    10:a6:13:4e:12:e2:07:65:49:1d:05:62:cf:c9:18:
                    4d:9f:47:b9:d8:8a:76:eb:2b:1e:8b:f1:dd:3e:ed:
                    f6:e5:7e:12:b5:0c:7e:26:23:1f:2e:51:cf:e2:dc:
                    28:36:ea:2c:69:f7:5e:4f:a7:b7:69:9a:6e:4d:ab:
                    a2:f6:97:86:a0:a6:21:86:ea:ae:1e:d8:92:c8:d1:
                    13:88:70:a4:9b:94:48:dc:63:a5:76:66:cb:ab:aa:
                    e0:ed:4e:49:9d:d4:35:c8:03:39:43:21:6b:bb:74:
                    b8:f3:2a:e6:31:84:14:b8:7e:0c:17:40:00:4d:55:
                    11:de:f8:20:57:ce:f2:ab:e8:e4:d0:62:3e:c1:63:
                    fc:f5:d0:b3:61:7e:c9:a2:53:7b:e3:f6:f2:a6:7f:
                    98:78:cd:5e:31:b8:9a:ba:0b:4a:4b:26:49:f4:66:
                    36:cd:b9:9a:8a:58:c1:f0:8c:8b:41:02:da:fd:18:
                    a3:7e:65:31:aa:0a:22:c5:06:4d:83:7d:6c:22:65:
                    94:78:c2:c9:55:b0:ad:52:6e:97:4f:21:ae:f1:24:
                    43:f7:6a:24:04:ee:8f:c8:8b:90:cf:d6:9d:01:59:
                    48:19:03:e2:3d:c2:d2:84:28:40:9a:6b:fa:7d:2c:
                    f8:3a:d0:24:39:86:6e:2e:87:27:71:7b:f7:dc:ae:
                    61:1b:1c:5c:00:7a:17:dc:00:4c:eb:bc:8f:c3:1d:
                    31:1c:98:d7:d8:81:87:88:9c:ca:e3:dd:e7:c5:04:
                    3a:25:ee:73:1d:85:a9:af:09:e1:a5:23:8d:01:ab:
                    9f:1c:82:c3:ba:fc:40:40:ce:dd:73:8f:8f:19:bd:
                    e0:fe:a1:34:73:72:e5:53:4d:1b:f5:55:19:f4:b8:
                    84:83:c0:c8:cd:25:82:2e:fc:ea:f1:8c:03:c2:5a:
                    f9:64:81:ab:49:a4:88:9f:8f:4c:7b:df:25:e4:f0:
                    a5:74:8b:0a:d5:43:2e:9d:91:9a:2d:5d:83:a6:3e:
                    fe:48:94:dd:f3:82:99:ed:85:4e:39:01:80:29:36:
                    68:36:e3
                Exponent: 65537 (0x10001)
        X509v3 extensions:
            X509v3 Basic Constraints: 
                CA:FALSE
            Netscape Comment: 
                Easy-RSA Generated Certificate
            X509v3 Subject Key Identifier: 
                98:FA:9B:5B:D8:5D:82:C8:1D:F4:C5:44:ED:16:05:2B:4B:16:2E:7C
            X509v3 Authority Key Identifier: 
                keyid:EF:38:8D:14:50:58:A7:5B:4D:9C:17:72:FC:DF:B9:AC:A7:51:B0:10
                DirName:/C=US/ST=CA/L=SanFrancisco/O=Pixglo, Inc./OU=VPN-CIE/CN=tunnel.pixglo.com/name=Bala Chandrasekaran/emailAddress=bala@pixglo.com
                serial:A6:DB:C6:83:80:E6:A0:79

            X509v3 Extended Key Usage: 
                TLS Web Client Authentication
            X509v3 Key Usage: 
                Digital Signature
    Signature Algorithm: sha1WithRSAEncryption
         49:1c:25:5f:fe:9f:6e:a6:4e:3b:b0:4c:59:a0:54:0a:5e:ca:
         05:93:d9:b2:4b:55:a7:02:31:b2:4f:ae:d1:d1:50:1b:53:09:
         4c:70:cc:3e:2b:00:28:1d:6e:09:ba:5d:c1:14:92:b6:aa:fc:
         9a:1e:ac:03:05:36:3f:ab:5f:b2:bc:a7:a5:ff:b0:19:aa:83:
         7d:30:b7:f4:b4:03:98:57:6e:39:01:04:d0:a6:29:7d:65:8c:
         1c:3d:9c:aa:21:60:be:96:4a:44:c7:41:c1:c3:53:14:6b:a3:
         5e:44:71:1f:01:d4:37:e7:94:fd:63:47:5d:73:dc:15:5d:d2:
         2e:70:71:98:4a:94:51:74:4b:e9:6d:61:18:2d:31:1c:d3:f5:
         4c:9d:2a:95:e8:e5:b6:c1:2e:fd:88:88:b0:d3:f1:76:22:36:
         29:70:b4:8c:4e:d4:70:da:12:b6:2f:9a:d8:fa:dd:4f:de:e8:
         b2:c0:67:a0:b6:ca:4a:57:2a:79:c1:1d:46:0d:a2:62:1e:25:
         4f:8d:61:2c:37:3d:c0:f7:46:ab:15:8e:65:52:32:31:07:f6:
         c3:d2:e4:ee:26:5f:af:7d:75:6c:b3:94:06:54:74:3d:9f:9c:
         e6:70:b0:f3:76:bb:b2:cd:d6:94:82:e5:98:79:c0:ad:ba:9a:
         99:be:3d:ba:79:19:66:18:9c:70:11:ac:9c:e4:78:1d:f7:24:
         ee:b4:4a:93:c6:03:2b:ac:73:0e:7f:ad:16:57:ce:b5:8b:be:
         b4:56:5d:49:b1:d6:fe:fc:74:60:c1:e3:df:3f:cb:30:7f:49:
         72:d2:23:52:0a:cf:79:fa:4a:91:41:9e:2b:f6:7b:61:77:b9:
         31:79:09:5f:ed:3f:7b:a4:ee:db:ba:e1:fd:52:5c:1d:3c:e9:
         8a:87:d6:71:7c:16:2e:59:b9:c9:35:6f:eb:39:a7:fb:6b:f9:
         42:c1:d7:a6:84:48:e1:9b:6b:1f:15:8c:b3:66:94:39:d1:8d:
         71:42:b2:2b:c6:be:a7:45:ce:a8:24:99:e5:be:a4:d9:3d:16:
         ae:25:9b:db:93:34:4a:ee:b0:48:a4:df:35:05:03:48:9d:8c:
         52:96:8c:e0:7a:51:c6:9b:6d:4a:9e:64:72:fa:e8:0e:25:29:
         d1:e8:48:17:0d:03:9a:17:05:4c:b2:41:5d:24:dc:91:fe:1f:
         b2:ba:7e:d7:63:38:1c:d0:6b:a1:72:32:cd:f0:83:1b:29:29:
         08:5c:26:76:7f:82:dc:ce:0b:7f:26:82:ce:8c:7b:1b:d2:22:
         6e:f9:6c:9a:d7:2e:c5:18:8f:18:59:ce:32:5e:37:d8:18:aa:
         87:2f:bc:24:cd:84:c9:3b
-----BEGIN CERTIFICATE-----
MIIHSDCCBTCgAwIBAgICA4wwDQYJKoZIhvcNAQEFBQAwgbQxCzAJBgNVBAYTAlVT
MQswCQYDVQQIEwJDQTEVMBMGA1UEBxMMU2FuRnJhbmNpc2NvMRUwEwYDVQQKEwxQ
aXhnbG8sIEluYy4xEDAOBgNVBAsTB1ZQTi1DSUUxGjAYBgNVBAMTEXR1bm5lbC5w
aXhnbG8uY29tMRwwGgYDVQQpExNCYWxhIENoYW5kcmFzZWthcmFuMR4wHAYJKoZI
hvcNAQkBFg9iYWxhQHBpeGdsby5jb20wHhcNMTgwMjE0MDY0NzM2WhcNMjgwMjEy
MDY0NzM2WjCBqTELMAkGA1UEBhMCVVMxCzAJBgNVBAgTAkNBMRUwEwYDVQQHEwxT
YW5GcmFuY2lzY28xFTATBgNVBAoTDFBpeGdsbywgSW5jLjEQMA4GA1UECxMHVlBO
LUNJRTEPMA0GA1UEAxMGY2llOTA3MRwwGgYDVQQpExNCYWxhIENoYW5kcmFzZWth
cmFuMR4wHAYJKoZIhvcNAQkBFg9iYWxhQHBpeGdsby5jb20wggIiMA0GCSqGSIb3
DQEBAQUAA4ICDwAwggIKAoICAQDOZVD4hqv2A1LLcojOhruF9Dm3V5pLyoF1Bffg
LVV4L7G23Uf29FwVmqoFpgI+lpAsYUpfztR98nD0tQjDUGoTMQ9jvb+D88TmEYX3
qim/3QUQ1kq3u4yOZuv9DI/azzpfrTuibaKKgmCuDxbcGOwKaWwoHY6kpBCmE04S
4gdlSR0FYs/JGE2fR7nYinbrKx6L8d0+7fblfhK1DH4mIx8uUc/i3Cg26ixp915P
p7dpmm5Nq6L2l4agpiGG6q4e2JLI0ROIcKSblEjcY6V2ZsurquDtTkmd1DXIAzlD
IWu7dLjzKuYxhBS4fgwXQABNVRHe+CBXzvKr6OTQYj7BY/z10LNhfsmiU3vj9vKm
f5h4zV4xuJq6C0pLJkn0ZjbNuZqKWMHwjItBAtr9GKN+ZTGqCiLFBk2DfWwiZZR4
wslVsK1SbpdPIa7xJEP3aiQE7o/Ii5DP1p0BWUgZA+I9wtKEKECaa/p9LPg60CQ5
hm4uhydxe/fcrmEbHFwAehfcAEzrvI/DHTEcmNfYgYeInMrj3efFBDol7nMdhamv
CeGlI40Bq58cgsO6/EBAzt1zj48ZveD+oTRzcuVTTRv1VRn0uISDwMjNJYIu/Orx
jAPCWvlkgatJpIifj0x73yXk8KV0iwrVQy6dkZotXYOmPv5IlN3zgpnthU45AYAp
Nmg24wIDAQABo4IBazCCAWcwCQYDVR0TBAIwADAtBglghkgBhvhCAQ0EIBYeRWFz
eS1SU0EgR2VuZXJhdGVkIENlcnRpZmljYXRlMB0GA1UdDgQWBBSY+ptb2F2CyB30
xUTtFgUrSxYufDCB6QYDVR0jBIHhMIHegBTvOI0UUFinW02cF3L837msp1GwEKGB
uqSBtzCBtDELMAkGA1UEBhMCVVMxCzAJBgNVBAgTAkNBMRUwEwYDVQQHEwxTYW5G
cmFuY2lzY28xFTATBgNVBAoTDFBpeGdsbywgSW5jLjEQMA4GA1UECxMHVlBOLUNJ
RTEaMBgGA1UEAxMRdHVubmVsLnBpeGdsby5jb20xHDAaBgNVBCkTE0JhbGEgQ2hh
bmRyYXNla2FyYW4xHjAcBgkqhkiG9w0BCQEWD2JhbGFAcGl4Z2xvLmNvbYIJAKbb
xoOA5qB5MBMGA1UdJQQMMAoGCCsGAQUFBwMCMAsGA1UdDwQEAwIHgDANBgkqhkiG
9w0BAQUFAAOCAgEASRwlX/6fbqZOO7BMWaBUCl7KBZPZsktVpwIxsk+u0dFQG1MJ
THDMPisAKB1uCbpdwRSStqr8mh6sAwU2P6tfsrynpf+wGaqDfTC39LQDmFduOQEE
0KYpfWWMHD2cqiFgvpZKRMdBwcNTFGujXkRxHwHUN+eU/WNHXXPcFV3SLnBxmEqU
UXRL6W1hGC0xHNP1TJ0qlejltsEu/YiIsNPxdiI2KXC0jE7UcNoSti+a2PrdT97o
ssBnoLbKSlcqecEdRg2iYh4lT41hLDc9wPdGqxWOZVIyMQf2w9Lk7iZfr311bLOU
BlR0PZ+c5nCw83a7ss3WlILlmHnArbqamb49unkZZhiccBGsnOR4Hfck7rRKk8YD
K6xzDn+tFlfOtYu+tFZdSbHW/vx0YMHj3z/LMH9JctIjUgrPefpKkUGeK/Z7YXe5
MXkJX+0/e6Tu27rh/VJcHTzpiofWcXwWLlm5yTVv6zmn+2v5QsHXpoRI4ZtrHxWM
s2aUOdGNcUKyK8a+p0XOqCSZ5b6k2T0WriWb25M0Su6wSKTfNQUDSJ2MUpaM4HpR
xpttSp5kcvroDiUp0ehIFw0DmhcFTLJBXSTckf4fsrp+12M4HNBroXIyzfCDGykp
CFwmdn+C3M4LfyaCzox7G9IibvlsmtcuxRiPGFnOMl432Biqhy+8JM2EyTs=
-----END CERTIFICATE-----
