Certificate:
    Data:
        Version: 3 (0x2)
        Serial Number: 909 (0x38d)
    Signature Algorithm: sha1WithRSAEncryption
        Issuer: C=US, ST=CA, L=SanFrancisco, O=Pixglo, Inc., OU=VPN-CIE, CN=tunnel.pixglo.com/name=Bala Chandrasekaran/emailAddress=bala@pixglo.com
        Validity
            Not Before: Feb 14 06:47:37 2018 GMT
            Not After : Feb 12 06:47:37 2028 GMT
        Subject: C=US, ST=CA, L=SanFrancisco, O=Pixglo, Inc., OU=VPN-CIE, CN=cie908/name=Bala Chandrasekaran/emailAddress=bala@pixglo.com
        Subject Public Key Info:
            Public Key Algorithm: rsaEncryption
                Public-Key: (4096 bit)
                Modulus:
                    00:ae:5d:d6:f7:8c:7d:bd:b9:f4:df:9b:ba:00:24:
                    23:62:4c:33:23:ac:96:9f:bf:85:42:c9:c1:aa:74:
                    ba:c6:3e:74:0a:29:a3:9d:6c:6b:42:ef:07:08:c7:
                    f5:be:30:44:33:81:74:88:8b:df:7e:16:d8:da:0c:
                    78:c6:fc:bf:6d:81:12:ff:69:11:da:c9:72:dd:4f:
                    30:f4:99:7f:ad:3e:63:63:bc:51:74:5c:18:29:6e:
                    04:25:68:99:25:58:e4:1f:4b:34:71:72:71:c6:a2:
                    c4:d3:38:ca:fa:fd:d5:d0:00:17:43:44:d2:c8:4e:
                    e9:6f:10:70:cd:23:dc:cd:ec:96:79:3d:e0:ab:6e:
                    de:3a:d6:0b:6f:13:bd:52:be:0b:15:e9:67:02:1f:
                    ff:db:4c:a6:3c:54:e8:f8:cc:31:94:68:d6:eb:a0:
                    72:fa:c6:c8:7e:25:21:4f:01:c0:2b:b7:7c:c7:73:
                    18:1a:21:20:5b:9e:7d:99:51:e0:96:dd:34:74:c1:
                    b7:44:39:94:b2:f5:3a:9b:97:72:49:f2:fa:c9:ab:
                    d6:34:2a:8d:43:21:1e:f0:50:e4:9c:b7:a2:43:f3:
                    d4:60:29:1c:e9:78:e1:42:64:7d:a7:b7:09:ed:e0:
                    46:52:a7:16:3c:83:80:91:03:b6:51:14:0a:af:47:
                    35:0d:aa:3f:b7:f0:ad:35:70:07:71:56:76:12:4d:
                    62:6b:25:87:62:c9:dd:d9:b3:79:32:cb:cc:b3:d1:
                    1a:14:f7:cd:b3:f4:a3:e3:25:9d:46:d4:4e:4c:f2:
                    62:b4:32:7e:a8:9a:f7:70:c8:b1:a8:4d:4f:2f:39:
                    c4:1a:5a:96:77:10:fe:18:0b:67:d7:49:54:50:d2:
                    d6:cf:1e:f7:37:5e:fc:80:b5:04:81:76:a5:6b:e9:
                    c4:f7:a7:4d:32:de:9a:8c:81:90:4d:56:bf:ec:33:
                    aa:e4:9a:58:15:b5:ca:34:34:be:52:50:fb:35:d7:
                    15:cb:72:3a:c9:f6:db:5e:73:60:ef:e5:87:89:69:
                    70:6d:39:35:39:ad:7e:5d:1c:2a:c6:a1:0d:e9:34:
                    72:bb:6b:fa:c2:fa:b4:fa:2c:43:c4:12:1d:78:43:
                    08:bf:d2:11:82:74:15:31:c3:de:3a:db:2e:bb:c3:
                    73:2d:37:97:50:a2:78:0b:47:41:69:50:98:a2:d5:
                    ab:09:cc:05:8a:02:ef:c1:14:1d:b1:37:82:46:51:
                    18:0a:fa:e7:7c:c5:21:99:1e:2e:e8:5a:7d:94:3b:
                    a1:94:71:be:75:87:55:55:48:98:b3:bf:75:45:80:
                    85:d4:07:45:31:b8:a8:ae:49:74:6a:d3:6b:49:07:
                    bd:3d:8f
                Exponent: 65537 (0x10001)
        X509v3 extensions:
            X509v3 Basic Constraints: 
                CA:FALSE
            Netscape Comment: 
                Easy-RSA Generated Certificate
            X509v3 Subject Key Identifier: 
                3D:C6:95:1A:3D:69:67:F9:F1:47:7E:B7:A0:CD:FE:91:DA:9D:D8:E5
            X509v3 Authority Key Identifier: 
                keyid:EF:38:8D:14:50:58:A7:5B:4D:9C:17:72:FC:DF:B9:AC:A7:51:B0:10
                DirName:/C=US/ST=CA/L=SanFrancisco/O=Pixglo, Inc./OU=VPN-CIE/CN=tunnel.pixglo.com/name=Bala Chandrasekaran/emailAddress=bala@pixglo.com
                serial:A6:DB:C6:83:80:E6:A0:79

            X509v3 Extended Key Usage: 
                TLS Web Client Authentication
            X509v3 Key Usage: 
                Digital Signature
    Signature Algorithm: sha1WithRSAEncryption
         62:94:75:08:58:86:5b:59:75:f1:ec:f4:26:84:ec:36:8c:c2:
         ad:b6:4a:42:0e:bc:c7:11:f9:5f:d5:2e:fa:f4:5b:6e:40:88:
         e7:e8:a5:24:90:ab:bc:44:7a:54:15:33:f9:c4:33:a1:9e:37:
         38:24:5d:6a:42:58:5c:08:52:62:d7:6a:f1:2e:10:fe:d7:a1:
         91:a3:1d:2a:a2:ef:2a:69:99:23:0c:d9:fc:a6:75:b8:e3:6a:
         2c:03:12:39:be:50:cf:a2:b2:5b:fa:42:2d:79:c2:4e:76:66:
         e3:79:76:6c:2c:9a:9b:9f:b6:e5:53:ba:bd:4f:85:c7:2a:2d:
         be:bb:93:3d:74:8f:b3:c6:45:8e:49:25:9d:27:cd:ac:d5:d5:
         ec:99:b6:8d:65:4c:ff:48:db:f9:97:2c:db:1a:24:3b:c8:fe:
         e0:85:ca:9d:e0:35:3a:00:b3:d1:ab:46:f5:40:6f:cc:71:71:
         12:18:a7:e5:99:68:92:0a:f7:e1:86:4d:e5:3d:b0:2e:af:a3:
         c5:cd:fc:93:bb:c4:94:4c:73:ba:27:e3:2e:d7:24:64:9c:1f:
         dc:77:d3:50:a6:81:d3:30:bd:0a:33:c8:b5:2b:98:5c:c5:f2:
         b0:74:c0:68:d8:08:ca:6e:07:a8:4a:b7:c2:c1:7b:e5:0f:7c:
         71:01:c5:08:eb:c9:df:af:80:28:43:e8:fc:ae:8b:b4:59:fe:
         eb:7b:23:c9:b6:34:3a:dd:6b:40:53:cc:79:5b:16:cc:a4:96:
         6a:7f:7f:ea:8e:21:83:ed:7a:fd:62:e4:4f:9e:e6:69:28:93:
         72:ed:a6:4a:5e:be:5e:47:a7:b5:10:34:3a:5d:1d:3e:38:30:
         e4:40:44:56:d8:05:90:7c:c3:57:9f:ec:88:b8:25:5e:7e:38:
         10:48:56:12:cd:60:cf:24:8a:f7:d4:11:a9:fb:9a:dd:59:58:
         95:ff:5d:4e:47:ae:3c:36:a6:2b:40:7c:88:a5:55:71:61:ba:
         80:37:83:25:b2:31:99:be:ee:48:13:4d:30:d1:82:58:e3:e9:
         c2:e7:3f:83:fd:2c:09:9d:c8:db:33:d1:f3:ec:98:59:22:c7:
         7b:69:24:e7:f3:2f:2b:f6:a1:2e:48:92:10:c7:ef:e4:6d:23:
         14:68:59:b9:a1:15:a8:6a:ac:10:25:ca:76:c7:6a:06:c1:f5:
         29:b1:88:5f:a7:e6:a9:75:ff:bb:b9:cc:63:36:02:a2:47:d5:
         df:2e:74:b1:37:9f:e3:1f:ab:89:e8:d1:1c:88:6e:b5:df:5e:
         78:f9:8d:b6:aa:6b:fe:f8:a2:36:2e:1b:01:e4:2f:6b:3d:b4:
         9e:ed:f9:20:d8:4f:47:b1
-----BEGIN CERTIFICATE-----
MIIHSDCCBTCgAwIBAgICA40wDQYJKoZIhvcNAQEFBQAwgbQxCzAJBgNVBAYTAlVT
MQswCQYDVQQIEwJDQTEVMBMGA1UEBxMMU2FuRnJhbmNpc2NvMRUwEwYDVQQKEwxQ
aXhnbG8sIEluYy4xEDAOBgNVBAsTB1ZQTi1DSUUxGjAYBgNVBAMTEXR1bm5lbC5w
aXhnbG8uY29tMRwwGgYDVQQpExNCYWxhIENoYW5kcmFzZWthcmFuMR4wHAYJKoZI
hvcNAQkBFg9iYWxhQHBpeGdsby5jb20wHhcNMTgwMjE0MDY0NzM3WhcNMjgwMjEy
MDY0NzM3WjCBqTELMAkGA1UEBhMCVVMxCzAJBgNVBAgTAkNBMRUwEwYDVQQHEwxT
YW5GcmFuY2lzY28xFTATBgNVBAoTDFBpeGdsbywgSW5jLjEQMA4GA1UECxMHVlBO
LUNJRTEPMA0GA1UEAxMGY2llOTA4MRwwGgYDVQQpExNCYWxhIENoYW5kcmFzZWth
cmFuMR4wHAYJKoZIhvcNAQkBFg9iYWxhQHBpeGdsby5jb20wggIiMA0GCSqGSIb3
DQEBAQUAA4ICDwAwggIKAoICAQCuXdb3jH29ufTfm7oAJCNiTDMjrJafv4VCycGq
dLrGPnQKKaOdbGtC7wcIx/W+MEQzgXSIi99+FtjaDHjG/L9tgRL/aRHayXLdTzD0
mX+tPmNjvFF0XBgpbgQlaJklWOQfSzRxcnHGosTTOMr6/dXQABdDRNLITulvEHDN
I9zN7JZ5PeCrbt461gtvE71SvgsV6WcCH//bTKY8VOj4zDGUaNbroHL6xsh+JSFP
AcArt3zHcxgaISBbnn2ZUeCW3TR0wbdEOZSy9Tqbl3JJ8vrJq9Y0Ko1DIR7wUOSc
t6JD89RgKRzpeOFCZH2ntwnt4EZSpxY8g4CRA7ZRFAqvRzUNqj+38K01cAdxVnYS
TWJrJYdiyd3Zs3kyy8yz0RoU982z9KPjJZ1G1E5M8mK0Mn6omvdwyLGoTU8vOcQa
WpZ3EP4YC2fXSVRQ0tbPHvc3XvyAtQSBdqVr6cT3p00y3pqMgZBNVr/sM6rkmlgV
tco0NL5SUPs11xXLcjrJ9ttec2Dv5YeJaXBtOTU5rX5dHCrGoQ3pNHK7a/rC+rT6
LEPEEh14Qwi/0hGCdBUxw9462y67w3MtN5dQongLR0FpUJii1asJzAWKAu/BFB2x
N4JGURgK+ud8xSGZHi7oWn2UO6GUcb51h1VVSJizv3VFgIXUB0UxuKiuSXRq02tJ
B709jwIDAQABo4IBazCCAWcwCQYDVR0TBAIwADAtBglghkgBhvhCAQ0EIBYeRWFz
eS1SU0EgR2VuZXJhdGVkIENlcnRpZmljYXRlMB0GA1UdDgQWBBQ9xpUaPWln+fFH
fregzf6R2p3Y5TCB6QYDVR0jBIHhMIHegBTvOI0UUFinW02cF3L837msp1GwEKGB
uqSBtzCBtDELMAkGA1UEBhMCVVMxCzAJBgNVBAgTAkNBMRUwEwYDVQQHEwxTYW5G
cmFuY2lzY28xFTATBgNVBAoTDFBpeGdsbywgSW5jLjEQMA4GA1UECxMHVlBOLUNJ
RTEaMBgGA1UEAxMRdHVubmVsLnBpeGdsby5jb20xHDAaBgNVBCkTE0JhbGEgQ2hh
bmRyYXNla2FyYW4xHjAcBgkqhkiG9w0BCQEWD2JhbGFAcGl4Z2xvLmNvbYIJAKbb
xoOA5qB5MBMGA1UdJQQMMAoGCCsGAQUFBwMCMAsGA1UdDwQEAwIHgDANBgkqhkiG
9w0BAQUFAAOCAgEAYpR1CFiGW1l18ez0JoTsNozCrbZKQg68xxH5X9Uu+vRbbkCI
5+ilJJCrvER6VBUz+cQzoZ43OCRdakJYXAhSYtdq8S4Q/tehkaMdKqLvKmmZIwzZ
/KZ1uONqLAMSOb5Qz6KyW/pCLXnCTnZm43l2bCyam5+25VO6vU+FxyotvruTPXSP
s8ZFjkklnSfNrNXV7Jm2jWVM/0jb+Zcs2xokO8j+4IXKneA1OgCz0atG9UBvzHFx
Ehin5Zlokgr34YZN5T2wLq+jxc38k7vElExzuifjLtckZJwf3HfTUKaB0zC9CjPI
tSuYXMXysHTAaNgIym4HqEq3wsF75Q98cQHFCOvJ36+AKEPo/K6LtFn+63sjybY0
Ot1rQFPMeVsWzKSWan9/6o4hg+16/WLkT57maSiTcu2mSl6+XkentRA0Ol0dPjgw
5EBEVtgFkHzDV5/siLglXn44EEhWEs1gzySK99QRqfua3VlYlf9dTkeuPDamK0B8
iKVVcWG6gDeDJbIxmb7uSBNNMNGCWOPpwuc/g/0sCZ3I2zPR8+yYWSLHe2kk5/Mv
K/ahLkiSEMfv5G0jFGhZuaEVqGqsECXKdsdqBsH1KbGIX6fmqXX/u7nMYzYCokfV
3y50sTef4x+riejRHIhutd9eePmNtqpr/viiNi4bAeQvaz20nu35INhPR7E=
-----END CERTIFICATE-----
