Certificate:
    Data:
        Version: 3 (0x2)
        Serial Number: 910 (0x38e)
    Signature Algorithm: sha1WithRSAEncryption
        Issuer: C=US, ST=CA, L=SanFrancisco, O=Pixglo, Inc., OU=VPN-CIE, CN=tunnel.pixglo.com/name=Bala Chandrasekaran/emailAddress=bala@pixglo.com
        Validity
            Not Before: Feb 14 06:47:39 2018 GMT
            Not After : Feb 12 06:47:39 2028 GMT
        Subject: C=US, ST=CA, L=SanFrancisco, O=Pixglo, Inc., OU=VPN-CIE, CN=cie909/name=Bala Chandrasekaran/emailAddress=bala@pixglo.com
        Subject Public Key Info:
            Public Key Algorithm: rsaEncryption
                Public-Key: (4096 bit)
                Modulus:
                    00:c2:87:b7:1a:00:35:e3:3c:b6:11:ab:55:9e:74:
                    0b:94:27:a2:6e:25:16:9d:1e:8c:2c:cb:e9:b2:a6:
                    c4:ea:56:5e:7e:bb:ca:0b:31:0d:c1:a7:45:40:7b:
                    17:98:69:d3:de:e7:22:17:3d:48:3b:46:1a:78:f4:
                    e6:7b:9b:d4:ed:a0:27:de:22:89:39:70:5c:cd:6c:
                    d8:bb:52:46:dd:36:ce:4f:3d:cc:4e:24:2d:e4:6a:
                    11:b9:29:32:dc:ec:d3:3a:55:41:95:e2:e9:7b:26:
                    f3:ea:b2:66:97:55:6f:6b:5e:9f:07:55:a2:3b:35:
                    4a:36:bc:4a:b3:10:1a:45:bc:b8:26:49:19:83:3c:
                    9a:8e:9f:08:50:00:81:fa:84:8e:8e:f0:53:2c:25:
                    7a:82:a0:8a:f4:df:50:67:d1:cf:63:e3:a2:b3:b2:
                    ce:25:61:e0:6e:58:ce:ed:ba:45:cd:ba:72:35:b7:
                    0f:bd:99:54:44:e5:21:45:fa:f6:45:af:b1:7c:7f:
                    7b:1a:16:19:4a:10:ca:0a:bf:61:c7:82:7c:f6:9d:
                    aa:be:e0:19:08:3b:f8:99:99:e7:ec:b1:30:c2:67:
                    23:63:2b:88:59:e3:0e:3b:11:41:05:f9:a0:93:04:
                    17:8c:88:58:c0:97:58:6d:1b:5c:a3:38:cb:e0:d1:
                    bb:d5:ab:1e:ec:70:1d:c0:5d:da:40:b6:7c:be:ec:
                    85:93:b7:f8:75:b3:ee:92:10:e0:f9:ca:31:6e:de:
                    00:5c:da:ec:71:ed:27:5a:c4:4e:b5:19:dd:32:c6:
                    87:ad:b3:c7:6f:75:5b:b5:52:b5:b0:8b:9f:54:d1:
                    f1:4a:4a:74:87:5b:0f:eb:bb:e4:8d:50:c4:9a:58:
                    46:5d:be:31:92:56:cb:0c:b9:3b:a6:af:12:fe:b2:
                    32:43:02:6b:d0:26:15:f5:ea:62:0a:77:75:35:64:
                    2f:59:ac:f6:6b:29:d5:29:44:b8:ed:26:1b:a6:b9:
                    62:d4:8f:8e:50:e7:56:3b:b6:4d:b6:cb:9d:89:d5:
                    91:f2:7f:9a:fb:19:a7:d9:6f:73:d1:fa:dd:ce:34:
                    9c:6a:98:9f:fe:0c:e3:5b:c4:bb:d1:c0:ab:3a:2e:
                    d9:1c:58:d4:1f:ea:d4:5e:e9:b0:e7:f2:d3:ed:2c:
                    f9:87:10:fb:10:85:e6:88:d4:34:c4:1d:aa:4d:ec:
                    ab:f1:f8:93:38:3c:c8:88:8c:64:ef:b3:65:8f:1d:
                    d0:0a:ac:ce:03:9d:72:9f:73:44:da:c7:0d:24:d6:
                    a6:88:5e:29:2c:71:45:07:21:71:b5:dc:86:92:85:
                    48:54:eb:90:ca:57:05:3c:4d:35:57:de:58:c0:57:
                    f0:48:71
                Exponent: 65537 (0x10001)
        X509v3 extensions:
            X509v3 Basic Constraints: 
                CA:FALSE
            Netscape Comment: 
                Easy-RSA Generated Certificate
            X509v3 Subject Key Identifier: 
                74:1B:5A:47:E0:91:B2:D0:AC:3A:CB:3B:0C:AC:8E:4C:6E:D8:44:B4
            X509v3 Authority Key Identifier: 
                keyid:EF:38:8D:14:50:58:A7:5B:4D:9C:17:72:FC:DF:B9:AC:A7:51:B0:10
                DirName:/C=US/ST=CA/L=SanFrancisco/O=Pixglo, Inc./OU=VPN-CIE/CN=tunnel.pixglo.com/name=Bala Chandrasekaran/emailAddress=bala@pixglo.com
                serial:A6:DB:C6:83:80:E6:A0:79

            X509v3 Extended Key Usage: 
                TLS Web Client Authentication
            X509v3 Key Usage: 
                Digital Signature
    Signature Algorithm: sha1WithRSAEncryption
         63:0b:60:e1:0b:98:0b:0d:46:d2:31:21:51:19:04:89:57:c0:
         0f:aa:ac:f4:25:9f:e8:71:b3:36:a3:f6:4e:58:dc:c5:c5:d7:
         c9:6d:2e:e0:d3:22:e6:d8:f1:bc:c6:42:1d:23:5f:77:bb:60:
         6a:37:ab:80:15:90:3b:ca:36:6f:84:01:7e:46:74:04:28:e8:
         c5:64:51:d2:de:d2:b3:a2:74:75:a5:fc:92:b6:82:40:4f:5c:
         7b:2c:e1:c2:74:45:f2:68:e0:d9:50:ed:e2:65:32:8f:b9:78:
         8b:95:f6:a8:64:2d:9d:15:59:9d:0f:86:1e:8b:4c:0f:c7:b0:
         a6:8c:be:21:59:9d:bb:b4:6c:e0:17:8c:7e:ae:29:a9:4f:2a:
         c3:da:bc:0d:29:bf:ee:2b:cd:6a:ce:7a:47:d8:ce:b6:b2:a7:
         7b:c9:0e:fa:b1:80:06:bd:e4:42:c7:c1:3b:1d:aa:1e:d7:d2:
         09:89:8d:9c:a2:5c:07:0a:4b:b3:eb:09:b2:4a:99:1d:87:59:
         8b:c3:ef:58:cd:81:44:69:e8:ce:b6:03:2e:c2:a2:5c:39:fd:
         de:80:e5:02:a7:e4:5e:66:2c:70:ef:cc:25:7d:05:49:d0:5b:
         e6:c6:92:8d:62:c7:77:8c:a0:4f:47:80:1a:7c:da:6b:8b:da:
         3a:45:87:88:8b:a6:8e:34:d8:79:6e:06:07:1a:c3:80:0c:ed:
         c9:37:54:97:63:e9:c1:00:05:95:7e:61:1a:6f:c3:62:e1:ea:
         3d:c1:4f:f7:e1:95:94:c2:ca:dd:1a:54:be:ef:46:97:7c:98:
         3e:a0:53:bb:52:fb:0e:d8:3b:05:d6:00:b6:a9:f9:31:18:10:
         4b:d7:a3:86:ca:39:fa:ea:b4:a7:ad:f8:00:d4:2a:6f:13:89:
         8c:19:05:84:27:6f:29:bb:4a:b3:73:d5:3e:4b:b6:83:91:cf:
         92:bc:9c:f6:32:2f:7e:59:a8:1c:b1:83:cd:f9:72:d8:f5:53:
         1f:eb:11:c7:72:c0:fa:6c:f9:3f:f9:bc:f4:e7:7b:d6:06:31:
         1a:0e:40:b9:9b:35:ba:f0:b2:53:b8:1d:af:85:e8:a0:66:a6:
         d2:86:21:a8:99:f5:17:41:4c:2e:23:08:a6:74:4c:f8:81:8e:
         6d:da:55:9d:26:a7:f9:28:f5:d1:64:da:3c:d4:bd:28:c2:9b:
         75:d7:a9:c6:39:8e:d0:68:93:74:6b:12:73:4c:44:fd:04:79:
         cd:bc:a1:8b:c6:ec:20:38:07:ca:f2:53:a7:70:df:0a:3e:7a:
         4f:54:3c:6b:ff:44:4e:3b:95:5f:73:ca:d9:a3:45:39:4e:bf:
         fc:e7:ba:60:fa:ff:ba:55
-----BEGIN CERTIFICATE-----
MIIHSDCCBTCgAwIBAgICA44wDQYJKoZIhvcNAQEFBQAwgbQxCzAJBgNVBAYTAlVT
MQswCQYDVQQIEwJDQTEVMBMGA1UEBxMMU2FuRnJhbmNpc2NvMRUwEwYDVQQKEwxQ
aXhnbG8sIEluYy4xEDAOBgNVBAsTB1ZQTi1DSUUxGjAYBgNVBAMTEXR1bm5lbC5w
aXhnbG8uY29tMRwwGgYDVQQpExNCYWxhIENoYW5kcmFzZWthcmFuMR4wHAYJKoZI
hvcNAQkBFg9iYWxhQHBpeGdsby5jb20wHhcNMTgwMjE0MDY0NzM5WhcNMjgwMjEy
MDY0NzM5WjCBqTELMAkGA1UEBhMCVVMxCzAJBgNVBAgTAkNBMRUwEwYDVQQHEwxT
YW5GcmFuY2lzY28xFTATBgNVBAoTDFBpeGdsbywgSW5jLjEQMA4GA1UECxMHVlBO
LUNJRTEPMA0GA1UEAxMGY2llOTA5MRwwGgYDVQQpExNCYWxhIENoYW5kcmFzZWth
cmFuMR4wHAYJKoZIhvcNAQkBFg9iYWxhQHBpeGdsby5jb20wggIiMA0GCSqGSIb3
DQEBAQUAA4ICDwAwggIKAoICAQDCh7caADXjPLYRq1WedAuUJ6JuJRadHowsy+my
psTqVl5+u8oLMQ3Bp0VAexeYadPe5yIXPUg7Rhp49OZ7m9TtoCfeIok5cFzNbNi7
UkbdNs5PPcxOJC3kahG5KTLc7NM6VUGV4ul7JvPqsmaXVW9rXp8HVaI7NUo2vEqz
EBpFvLgmSRmDPJqOnwhQAIH6hI6O8FMsJXqCoIr031Bn0c9j46Kzss4lYeBuWM7t
ukXNunI1tw+9mVRE5SFF+vZFr7F8f3saFhlKEMoKv2HHgnz2naq+4BkIO/iZmefs
sTDCZyNjK4hZ4w47EUEF+aCTBBeMiFjAl1htG1yjOMvg0bvVqx7scB3AXdpAtny+
7IWTt/h1s+6SEOD5yjFu3gBc2uxx7SdaxE61Gd0yxoets8dvdVu1UrWwi59U0fFK
SnSHWw/ru+SNUMSaWEZdvjGSVssMuTumrxL+sjJDAmvQJhX16mIKd3U1ZC9ZrPZr
KdUpRLjtJhumuWLUj45Q51Y7tk22y52J1ZHyf5r7GafZb3PR+t3ONJxqmJ/+DONb
xLvRwKs6LtkcWNQf6tRe6bDn8tPtLPmHEPsQheaI1DTEHapN7Kvx+JM4PMiIjGTv
s2WPHdAKrM4DnXKfc0Taxw0k1qaIXikscUUHIXG13IaShUhU65DKVwU8TTVX3ljA
V/BIcQIDAQABo4IBazCCAWcwCQYDVR0TBAIwADAtBglghkgBhvhCAQ0EIBYeRWFz
eS1SU0EgR2VuZXJhdGVkIENlcnRpZmljYXRlMB0GA1UdDgQWBBR0G1pH4JGy0Kw6
yzsMrI5MbthEtDCB6QYDVR0jBIHhMIHegBTvOI0UUFinW02cF3L837msp1GwEKGB
uqSBtzCBtDELMAkGA1UEBhMCVVMxCzAJBgNVBAgTAkNBMRUwEwYDVQQHEwxTYW5G
cmFuY2lzY28xFTATBgNVBAoTDFBpeGdsbywgSW5jLjEQMA4GA1UECxMHVlBOLUNJ
RTEaMBgGA1UEAxMRdHVubmVsLnBpeGdsby5jb20xHDAaBgNVBCkTE0JhbGEgQ2hh
bmRyYXNla2FyYW4xHjAcBgkqhkiG9w0BCQEWD2JhbGFAcGl4Z2xvLmNvbYIJAKbb
xoOA5qB5MBMGA1UdJQQMMAoGCCsGAQUFBwMCMAsGA1UdDwQEAwIHgDANBgkqhkiG
9w0BAQUFAAOCAgEAYwtg4QuYCw1G0jEhURkEiVfAD6qs9CWf6HGzNqP2TljcxcXX
yW0u4NMi5tjxvMZCHSNfd7tgajergBWQO8o2b4QBfkZ0BCjoxWRR0t7Ss6J0daX8
kraCQE9ceyzhwnRF8mjg2VDt4mUyj7l4i5X2qGQtnRVZnQ+GHotMD8ewpoy+IVmd
u7Rs4BeMfq4pqU8qw9q8DSm/7ivNas56R9jOtrKne8kO+rGABr3kQsfBOx2qHtfS
CYmNnKJcBwpLs+sJskqZHYdZi8PvWM2BRGnozrYDLsKiXDn93oDlAqfkXmYscO/M
JX0FSdBb5saSjWLHd4ygT0eAGnzaa4vaOkWHiIumjjTYeW4GBxrDgAztyTdUl2Pp
wQAFlX5hGm/DYuHqPcFP9+GVlMLK3RpUvu9Gl3yYPqBTu1L7Dtg7BdYAtqn5MRgQ
S9ejhso5+uq0p634ANQqbxOJjBkFhCdvKbtKs3PVPku2g5HPkryc9jIvflmoHLGD
zfly2PVTH+sRx3LA+mz5P/m89Od71gYxGg5AuZs1uvCyU7gdr4XooGam0oYhqJn1
F0FMLiMIpnRM+IGObdpVnSan+Sj10WTaPNS9KMKbddepxjmO0GiTdGsSc0xE/QR5
zbyhi8bsIDgHyvJTp3DfCj56T1Q8a/9ETjuVX3PK2aNFOU6//Oe6YPr/ulU=
-----END CERTIFICATE-----
