Certificate:
    Data:
        Version: 3 (0x2)
        Serial Number: 911 (0x38f)
    Signature Algorithm: sha1WithRSAEncryption
        Issuer: C=US, ST=CA, L=SanFrancisco, O=Pixglo, Inc., OU=VPN-CIE, CN=tunnel.pixglo.com/name=Bala Chandrasekaran/emailAddress=bala@pixglo.com
        Validity
            Not Before: Feb 14 06:47:41 2018 GMT
            Not After : Feb 12 06:47:41 2028 GMT
        Subject: C=US, ST=CA, L=SanFrancisco, O=Pixglo, Inc., OU=VPN-CIE, CN=cie910/name=Bala Chandrasekaran/emailAddress=bala@pixglo.com
        Subject Public Key Info:
            Public Key Algorithm: rsaEncryption
                Public-Key: (4096 bit)
                Modulus:
                    00:e1:4a:e8:d3:c2:f3:fe:af:ad:27:e9:68:4e:e0:
                    ab:cd:c1:b0:9e:29:c1:33:a1:7e:47:a0:74:2a:bd:
                    15:3a:e2:ed:d3:07:c3:dd:7c:5b:1d:cb:d4:1f:8e:
                    24:f6:d0:86:cc:7d:d0:6a:3e:b6:18:9f:4d:07:a4:
                    7e:70:c9:dd:04:45:8c:3d:ce:20:49:34:41:a3:d7:
                    7c:a8:e9:c6:9d:7b:a6:ec:09:49:28:52:a7:ef:93:
                    24:18:ab:74:30:96:33:80:dc:84:ec:5a:b6:4e:60:
                    ca:e6:70:c6:84:be:d5:b1:eb:af:82:aa:b4:8f:4f:
                    f8:70:ab:f8:f1:86:c9:0e:de:4f:79:f5:d1:f7:3a:
                    de:10:c3:50:b4:74:d1:34:96:d6:e4:f4:0e:45:62:
                    43:c1:04:d2:81:f9:b7:d4:03:53:ab:39:52:40:16:
                    30:98:4d:8b:aa:b1:a0:64:2d:2d:92:bd:ae:bb:28:
                    86:dd:d5:08:90:6c:b1:7d:18:4a:8d:e8:82:93:93:
                    82:2b:51:8b:b8:c1:39:c1:5f:f7:78:63:c9:5f:c9:
                    2d:c5:c4:16:71:b5:52:c9:5a:90:09:e6:62:a7:82:
                    7b:0c:2e:cb:c5:30:8a:4c:1f:da:b5:dd:23:6f:3a:
                    81:db:c0:be:a2:ad:19:a4:33:af:79:dc:0b:dd:45:
                    15:af:61:3f:66:b5:69:00:19:64:1c:29:54:1b:4f:
                    56:74:f9:40:e7:3d:49:32:e8:91:04:4b:34:55:78:
                    9a:03:a8:cd:c6:81:4a:4f:af:bc:18:83:a8:32:f5:
                    e4:0d:6d:05:0c:0a:9c:63:b9:3c:6b:d5:e2:5f:d5:
                    14:6b:1c:d1:02:cd:74:ff:a4:be:b8:b4:ca:9c:54:
                    3e:c8:3c:6c:c2:f2:48:2e:c1:b3:5d:59:2e:f9:ab:
                    53:94:e7:c8:0d:7e:99:88:82:42:ea:15:4a:2b:6a:
                    0f:e1:70:91:17:e8:2c:26:f4:7c:8c:db:d8:7f:3e:
                    93:95:37:49:c5:46:c9:70:7d:a8:5c:ca:cb:c0:fc:
                    70:3d:56:6f:a5:e2:f4:91:93:7a:0e:28:b8:82:fa:
                    2d:0d:64:3e:6a:ca:4a:bf:19:73:db:e6:b3:38:40:
                    5d:34:99:21:17:bc:32:18:1c:1b:ee:32:80:a2:a7:
                    20:3c:61:6e:f1:93:5e:40:10:1d:c1:9c:e8:5c:9a:
                    d9:bc:30:18:75:36:9f:cf:89:e7:7d:63:37:71:1a:
                    09:52:4f:9c:cc:df:a2:f2:a6:4d:a8:0f:19:65:99:
                    26:81:52:45:00:45:75:07:f5:c1:05:61:44:54:d7:
                    8b:32:ee:1f:1a:b6:7f:cc:45:c2:eb:fb:ab:05:d6:
                    5a:22:d7
                Exponent: 65537 (0x10001)
        X509v3 extensions:
            X509v3 Basic Constraints: 
                CA:FALSE
            Netscape Comment: 
                Easy-RSA Generated Certificate
            X509v3 Subject Key Identifier: 
                C4:7B:43:96:7C:35:29:89:BA:B3:9B:A5:F5:9D:72:02:C1:EB:0C:32
            X509v3 Authority Key Identifier: 
                keyid:EF:38:8D:14:50:58:A7:5B:4D:9C:17:72:FC:DF:B9:AC:A7:51:B0:10
                DirName:/C=US/ST=CA/L=SanFrancisco/O=Pixglo, Inc./OU=VPN-CIE/CN=tunnel.pixglo.com/name=Bala Chandrasekaran/emailAddress=bala@pixglo.com
                serial:A6:DB:C6:83:80:E6:A0:79

            X509v3 Extended Key Usage: 
                TLS Web Client Authentication
            X509v3 Key Usage: 
                Digital Signature
    Signature Algorithm: sha1WithRSAEncryption
         98:8e:43:3b:ac:5d:56:e9:98:ce:f9:3a:b1:59:98:39:54:cf:
         79:7a:46:3d:fc:13:b1:44:d0:3e:6f:f0:ea:f3:b1:c9:bb:1b:
         05:41:ee:c0:fd:49:98:99:32:68:b8:2b:d6:43:18:9c:0d:8f:
         d5:b9:08:45:7a:85:7b:d9:ab:94:78:8e:0f:d0:42:6d:f1:cb:
         33:79:61:fc:c7:3b:3b:43:59:cc:e8:af:bf:e0:16:e3:50:94:
         9f:d9:67:e6:64:b1:33:f1:9d:b2:94:90:dd:08:64:40:50:cd:
         e4:14:3d:3b:ae:64:d3:21:ac:b1:35:ca:7f:f3:67:9e:b9:4c:
         5f:f8:81:77:83:76:c9:96:a7:db:5e:3e:49:f0:a9:e0:5e:d8:
         63:85:ef:a6:2c:6b:35:6d:ff:89:d7:a1:59:57:ab:de:72:92:
         15:52:4c:c6:e8:09:fd:9b:c1:16:59:97:03:15:34:a1:61:8e:
         3e:d2:77:29:49:8c:6d:3f:93:5a:8e:ac:3e:76:5a:fb:78:3e:
         c2:75:dd:c0:bb:7e:e1:dc:51:9a:1d:68:5a:99:54:c6:24:a3:
         db:10:34:80:44:19:61:05:7f:10:28:24:40:aa:85:02:23:63:
         c5:a1:33:14:73:50:10:85:f7:e4:90:89:75:fe:84:c7:b8:59:
         ad:4e:84:13:8c:ff:3f:8d:c0:24:28:ff:59:b7:57:3b:fe:18:
         12:30:ab:eb:5f:2c:4a:c2:56:78:2f:3e:6d:45:9b:c4:09:57:
         93:c4:eb:9f:a3:6c:1e:1b:1f:14:09:c6:c9:0d:4e:34:ef:5a:
         af:0d:27:27:d8:07:69:6a:48:69:dc:6c:e4:f5:c7:4e:8c:85:
         6e:28:6a:94:30:50:23:4d:a0:58:ff:52:e2:f6:9e:2b:7d:26:
         f2:6c:b3:8e:70:92:e7:1f:f8:82:24:16:fd:1c:44:6c:47:91:
         68:fc:fa:19:73:e7:d0:41:54:85:ce:78:a8:52:3d:60:16:cf:
         39:9d:fd:17:99:02:ea:b0:54:0d:68:63:ed:b7:7f:38:0e:e4:
         00:4e:ce:27:f9:6e:f9:34:b6:45:6f:08:45:cc:20:10:36:f8:
         2d:82:4a:ef:e2:30:a7:e9:f9:b6:4e:b0:8c:81:be:65:61:8a:
         ac:a5:8f:eb:31:9b:4a:7d:cc:60:66:ac:58:53:d4:06:5f:2f:
         74:50:f4:2f:0e:3c:8b:b8:0b:cd:2d:59:ea:13:1b:64:59:10:
         38:f3:d9:d2:e9:82:0a:d4:95:40:ea:13:42:8d:e0:d0:d2:27:
         6e:f4:b5:f8:d7:8c:96:8a:73:b7:a8:3a:e8:9b:f8:60:f9:77:
         e8:f4:46:5b:60:68:b5:ce
-----BEGIN CERTIFICATE-----
MIIHSDCCBTCgAwIBAgICA48wDQYJKoZIhvcNAQEFBQAwgbQxCzAJBgNVBAYTAlVT
MQswCQYDVQQIEwJDQTEVMBMGA1UEBxMMU2FuRnJhbmNpc2NvMRUwEwYDVQQKEwxQ
aXhnbG8sIEluYy4xEDAOBgNVBAsTB1ZQTi1DSUUxGjAYBgNVBAMTEXR1bm5lbC5w
aXhnbG8uY29tMRwwGgYDVQQpExNCYWxhIENoYW5kcmFzZWthcmFuMR4wHAYJKoZI
hvcNAQkBFg9iYWxhQHBpeGdsby5jb20wHhcNMTgwMjE0MDY0NzQxWhcNMjgwMjEy
MDY0NzQxWjCBqTELMAkGA1UEBhMCVVMxCzAJBgNVBAgTAkNBMRUwEwYDVQQHEwxT
YW5GcmFuY2lzY28xFTATBgNVBAoTDFBpeGdsbywgSW5jLjEQMA4GA1UECxMHVlBO
LUNJRTEPMA0GA1UEAxMGY2llOTEwMRwwGgYDVQQpExNCYWxhIENoYW5kcmFzZWth
cmFuMR4wHAYJKoZIhvcNAQkBFg9iYWxhQHBpeGdsby5jb20wggIiMA0GCSqGSIb3
DQEBAQUAA4ICDwAwggIKAoICAQDhSujTwvP+r60n6WhO4KvNwbCeKcEzoX5HoHQq
vRU64u3TB8PdfFsdy9QfjiT20IbMfdBqPrYYn00HpH5wyd0ERYw9ziBJNEGj13yo
6cade6bsCUkoUqfvkyQYq3QwljOA3ITsWrZOYMrmcMaEvtWx66+CqrSPT/hwq/jx
hskO3k959dH3Ot4Qw1C0dNE0ltbk9A5FYkPBBNKB+bfUA1OrOVJAFjCYTYuqsaBk
LS2Sva67KIbd1QiQbLF9GEqN6IKTk4IrUYu4wTnBX/d4Y8lfyS3FxBZxtVLJWpAJ
5mKngnsMLsvFMIpMH9q13SNvOoHbwL6irRmkM6953AvdRRWvYT9mtWkAGWQcKVQb
T1Z0+UDnPUky6JEESzRVeJoDqM3GgUpPr7wYg6gy9eQNbQUMCpxjuTxr1eJf1RRr
HNECzXT/pL64tMqcVD7IPGzC8kguwbNdWS75q1OU58gNfpmIgkLqFUorag/hcJEX
6Cwm9HyM29h/PpOVN0nFRslwfahcysvA/HA9Vm+l4vSRk3oOKLiC+i0NZD5qykq/
GXPb5rM4QF00mSEXvDIYHBvuMoCipyA8YW7xk15AEB3BnOhcmtm8MBh1Np/Pied9
YzdxGglST5zM36Lypk2oDxllmSaBUkUARXUH9cEFYURU14sy7h8atn/MRcLr+6sF
1loi1wIDAQABo4IBazCCAWcwCQYDVR0TBAIwADAtBglghkgBhvhCAQ0EIBYeRWFz
eS1SU0EgR2VuZXJhdGVkIENlcnRpZmljYXRlMB0GA1UdDgQWBBTEe0OWfDUpibqz
m6X1nXICwesMMjCB6QYDVR0jBIHhMIHegBTvOI0UUFinW02cF3L837msp1GwEKGB
uqSBtzCBtDELMAkGA1UEBhMCVVMxCzAJBgNVBAgTAkNBMRUwEwYDVQQHEwxTYW5G
cmFuY2lzY28xFTATBgNVBAoTDFBpeGdsbywgSW5jLjEQMA4GA1UECxMHVlBOLUNJ
RTEaMBgGA1UEAxMRdHVubmVsLnBpeGdsby5jb20xHDAaBgNVBCkTE0JhbGEgQ2hh
bmRyYXNla2FyYW4xHjAcBgkqhkiG9w0BCQEWD2JhbGFAcGl4Z2xvLmNvbYIJAKbb
xoOA5qB5MBMGA1UdJQQMMAoGCCsGAQUFBwMCMAsGA1UdDwQEAwIHgDANBgkqhkiG
9w0BAQUFAAOCAgEAmI5DO6xdVumYzvk6sVmYOVTPeXpGPfwTsUTQPm/w6vOxybsb
BUHuwP1JmJkyaLgr1kMYnA2P1bkIRXqFe9mrlHiOD9BCbfHLM3lh/Mc7O0NZzOiv
v+AW41CUn9ln5mSxM/GdspSQ3QhkQFDN5BQ9O65k0yGssTXKf/NnnrlMX/iBd4N2
yZan214+SfCp4F7YY4XvpixrNW3/idehWVer3nKSFVJMxugJ/ZvBFlmXAxU0oWGO
PtJ3KUmMbT+TWo6sPnZa+3g+wnXdwLt+4dxRmh1oWplUxiSj2xA0gEQZYQV/ECgk
QKqFAiNjxaEzFHNQEIX35JCJdf6Ex7hZrU6EE4z/P43AJCj/WbdXO/4YEjCr618s
SsJWeC8+bUWbxAlXk8Trn6NsHhsfFAnGyQ1ONO9arw0nJ9gHaWpIadxs5PXHToyF
bihqlDBQI02gWP9S4vaeK30m8myzjnCS5x/4giQW/RxEbEeRaPz6GXPn0EFUhc54
qFI9YBbPOZ39F5kC6rBUDWhj7bd/OA7kAE7OJ/lu+TS2RW8IRcwgEDb4LYJK7+Iw
p+n5tk6wjIG+ZWGKrKWP6zGbSn3MYGasWFPUBl8vdFD0Lw48i7gLzS1Z6hMbZFkQ
OPPZ0umCCtSVQOoTQo3g0NInbvS1+NeMlopzt6g66Jv4YPl36PRGW2Botc4=
-----END CERTIFICATE-----
