Certificate:
    Data:
        Version: 3 (0x2)
        Serial Number: 912 (0x390)
    Signature Algorithm: sha1WithRSAEncryption
        Issuer: C=US, ST=CA, L=SanFrancisco, O=Pixglo, Inc., OU=VPN-CIE, CN=tunnel.pixglo.com/name=Bala Chandrasekaran/emailAddress=bala@pixglo.com
        Validity
            Not Before: Feb 14 06:47:43 2018 GMT
            Not After : Feb 12 06:47:43 2028 GMT
        Subject: C=US, ST=CA, L=SanFrancisco, O=Pixglo, Inc., OU=VPN-CIE, CN=cie911/name=Bala Chandrasekaran/emailAddress=bala@pixglo.com
        Subject Public Key Info:
            Public Key Algorithm: rsaEncryption
                Public-Key: (4096 bit)
                Modulus:
                    00:aa:df:fa:0a:95:03:57:fc:0e:d0:44:77:c9:05:
                    d6:91:d5:ad:1a:b9:33:b2:40:88:21:ef:59:21:9e:
                    bc:94:72:3b:d6:4a:b9:5d:82:e4:69:fa:9f:16:ac:
                    2d:41:6a:49:cb:e0:32:ae:9c:6b:e3:89:ea:6f:a1:
                    34:00:e6:a9:18:8b:2f:ac:0c:7d:f5:fb:b8:65:ef:
                    1a:f3:56:46:d6:0a:ea:63:d6:4b:4e:66:e2:4e:df:
                    9c:02:80:62:b0:23:4a:6f:bb:29:60:38:9d:17:f6:
                    a8:2e:c8:c3:4c:d2:7f:87:13:10:86:11:35:1e:ca:
                    e3:0a:fe:70:10:18:c1:c4:d9:bf:aa:25:4d:b8:fc:
                    02:22:2b:15:8f:ca:92:24:84:45:ce:61:d9:c4:f4:
                    6f:5a:40:53:8f:d9:3e:96:21:7b:55:c5:35:31:cf:
                    a9:37:8a:dd:e9:9c:17:29:78:01:04:2c:fc:5b:ff:
                    5a:15:da:1f:a5:2f:6c:9d:3a:da:16:44:b3:13:30:
                    5b:ca:9e:f0:a8:40:4b:7b:3e:7a:51:71:c1:f8:7b:
                    47:74:c3:eb:82:18:4a:a1:f7:61:13:8e:78:b3:93:
                    c7:ec:37:ff:13:3c:91:29:8a:bb:ec:ef:90:f1:77:
                    72:f8:ef:8f:aa:fa:e5:71:38:31:70:86:fe:c8:15:
                    ce:a2:45:d0:d4:4a:62:9c:e0:04:38:20:1e:a6:50:
                    6c:5f:3d:60:af:a9:1a:2d:f0:a3:db:fe:ed:be:89:
                    6e:6f:26:04:ac:04:89:df:b8:40:89:4f:35:ef:5c:
                    23:2a:df:dd:fb:8f:d7:3e:44:88:89:27:94:49:f9:
                    a0:82:44:66:38:6a:e7:eb:63:59:93:37:68:f3:19:
                    b2:69:5b:ef:f3:0e:ea:16:4a:74:cd:31:cf:0e:1f:
                    ec:89:da:be:da:ef:ec:c8:01:8c:f2:ff:a7:4b:f5:
                    f9:19:b1:31:eb:3e:01:9c:10:84:e1:a5:9b:83:42:
                    2a:fe:d4:a7:7a:4a:c1:07:d2:38:69:95:ba:7d:05:
                    ae:d4:ca:b2:07:56:b5:81:88:7a:69:8c:60:d5:b2:
                    1c:a4:2d:e2:cd:66:c4:32:29:c0:6a:a4:19:99:03:
                    43:fe:e8:0e:c4:5d:94:d7:c3:41:fb:81:46:26:f5:
                    2a:83:15:e2:6b:93:9a:e6:25:4a:26:7b:10:50:1e:
                    85:98:38:19:6d:b7:ca:79:f7:06:97:2b:3f:ba:8d:
                    34:ff:dc:dd:b6:4f:05:23:e7:53:41:26:ac:71:ca:
                    6f:90:2c:82:3e:d1:39:d4:21:fe:00:2c:14:c9:2e:
                    8e:5f:cd:78:eb:23:0b:4d:33:07:d1:66:3d:e1:58:
                    b2:13:91
                Exponent: 65537 (0x10001)
        X509v3 extensions:
            X509v3 Basic Constraints: 
                CA:FALSE
            Netscape Comment: 
                Easy-RSA Generated Certificate
            X509v3 Subject Key Identifier: 
                A3:8C:3F:FB:31:B9:21:9B:A8:C0:DE:3D:F7:0B:6B:87:B7:14:AE:A9
            X509v3 Authority Key Identifier: 
                keyid:EF:38:8D:14:50:58:A7:5B:4D:9C:17:72:FC:DF:B9:AC:A7:51:B0:10
                DirName:/C=US/ST=CA/L=SanFrancisco/O=Pixglo, Inc./OU=VPN-CIE/CN=tunnel.pixglo.com/name=Bala Chandrasekaran/emailAddress=bala@pixglo.com
                serial:A6:DB:C6:83:80:E6:A0:79

            X509v3 Extended Key Usage: 
                TLS Web Client Authentication
            X509v3 Key Usage: 
                Digital Signature
    Signature Algorithm: sha1WithRSAEncryption
         ae:29:52:11:5d:b4:eb:2b:e0:4d:af:3d:1a:b2:b7:95:a3:90:
         1e:e7:4c:27:07:51:25:6b:c6:6b:c4:dc:ea:dc:97:2c:61:93:
         97:02:5f:1e:ec:70:19:a3:e2:4b:65:37:7d:3d:a4:b6:a0:57:
         7a:d7:11:54:de:0a:23:e4:5a:c5:75:87:a1:ba:1c:7e:59:bc:
         51:72:65:fb:92:66:6b:80:6d:37:38:01:95:43:71:b3:4f:23:
         4a:7a:65:3c:81:c9:84:b8:83:be:9e:8b:04:f3:b6:b7:89:ed:
         fe:f8:99:80:70:79:80:30:d9:45:fd:97:1f:0d:88:15:77:7b:
         73:8c:2f:36:61:14:78:40:ae:04:bc:8e:8f:aa:fd:41:46:9d:
         fd:8f:bd:68:6b:5f:36:c6:bf:f0:fd:f7:a0:10:b2:43:b5:61:
         24:24:3a:be:d0:50:39:a3:fa:49:68:8a:76:41:a0:a1:c5:25:
         65:a8:55:4a:46:ff:b8:3a:86:c6:a6:69:87:fa:c7:55:0e:cc:
         d1:f5:13:eb:3c:8f:1c:ec:89:16:2f:17:06:d5:38:32:f0:7f:
         07:02:f0:3b:99:4f:7a:1b:37:da:05:4b:bd:a5:c5:48:53:7c:
         5e:06:18:af:cb:b4:ff:46:13:2e:a2:98:e8:c0:7f:f5:a0:15:
         24:ce:71:9a:4a:05:90:0e:b6:83:96:83:4d:3d:ce:aa:93:1f:
         8a:4f:18:2f:d1:bb:32:07:68:51:4c:ed:ae:a2:44:05:80:41:
         d7:23:76:c0:6b:70:99:e1:f0:cf:f2:d2:e2:33:7e:58:62:34:
         11:3c:07:c7:9c:7a:ef:d4:62:11:78:e4:35:ae:e2:23:14:ac:
         b9:97:cd:5d:dd:a4:60:fd:f4:f7:53:49:a3:fb:55:db:a1:44:
         4c:4a:42:78:e1:36:1e:ed:3b:48:fe:5f:b7:a4:1d:0c:61:d5:
         36:6b:4b:ff:44:b9:64:55:a6:3f:bb:93:38:2d:46:7f:10:49:
         80:fc:4b:38:8c:44:06:0a:46:b6:27:9a:b6:44:ff:ef:0f:3d:
         97:e9:23:39:10:69:f1:e5:9e:23:4d:29:f4:a3:df:94:15:a1:
         22:5a:1d:b6:10:41:f9:cb:8f:26:fd:f3:b7:e8:9f:5a:f0:84:
         7a:99:1b:ba:72:be:2f:10:cf:4e:99:81:20:4c:c9:24:c4:ad:
         5d:5b:60:d0:bc:e2:63:a3:21:72:fd:af:76:f7:23:d3:08:c3:
         64:a3:53:e8:41:26:74:9b:0b:39:0c:4d:12:89:f3:52:bc:6b:
         4a:18:85:7c:d6:ff:f3:9a:81:60:b7:8d:75:08:f9:66:43:40:
         ee:59:c0:03:c2:24:16:96
-----BEGIN CERTIFICATE-----
MIIHSDCCBTCgAwIBAgICA5AwDQYJKoZIhvcNAQEFBQAwgbQxCzAJBgNVBAYTAlVT
MQswCQYDVQQIEwJDQTEVMBMGA1UEBxMMU2FuRnJhbmNpc2NvMRUwEwYDVQQKEwxQ
aXhnbG8sIEluYy4xEDAOBgNVBAsTB1ZQTi1DSUUxGjAYBgNVBAMTEXR1bm5lbC5w
aXhnbG8uY29tMRwwGgYDVQQpExNCYWxhIENoYW5kcmFzZWthcmFuMR4wHAYJKoZI
hvcNAQkBFg9iYWxhQHBpeGdsby5jb20wHhcNMTgwMjE0MDY0NzQzWhcNMjgwMjEy
MDY0NzQzWjCBqTELMAkGA1UEBhMCVVMxCzAJBgNVBAgTAkNBMRUwEwYDVQQHEwxT
YW5GcmFuY2lzY28xFTATBgNVBAoTDFBpeGdsbywgSW5jLjEQMA4GA1UECxMHVlBO
LUNJRTEPMA0GA1UEAxMGY2llOTExMRwwGgYDVQQpExNCYWxhIENoYW5kcmFzZWth
cmFuMR4wHAYJKoZIhvcNAQkBFg9iYWxhQHBpeGdsby5jb20wggIiMA0GCSqGSIb3
DQEBAQUAA4ICDwAwggIKAoICAQCq3/oKlQNX/A7QRHfJBdaR1a0auTOyQIgh71kh
nryUcjvWSrldguRp+p8WrC1BaknL4DKunGvjiepvoTQA5qkYiy+sDH31+7hl7xrz
VkbWCupj1ktOZuJO35wCgGKwI0pvuylgOJ0X9qguyMNM0n+HExCGETUeyuMK/nAQ
GMHE2b+qJU24/AIiKxWPypIkhEXOYdnE9G9aQFOP2T6WIXtVxTUxz6k3it3pnBcp
eAEELPxb/1oV2h+lL2ydOtoWRLMTMFvKnvCoQEt7PnpRccH4e0d0w+uCGEqh92ET
jnizk8fsN/8TPJEpirvs75Dxd3L474+q+uVxODFwhv7IFc6iRdDUSmKc4AQ4IB6m
UGxfPWCvqRot8KPb/u2+iW5vJgSsBInfuECJTzXvXCMq3937j9c+RIiJJ5RJ+aCC
RGY4aufrY1mTN2jzGbJpW+/zDuoWSnTNMc8OH+yJ2r7a7+zIAYzy/6dL9fkZsTHr
PgGcEIThpZuDQir+1Kd6SsEH0jhplbp9Ba7UyrIHVrWBiHppjGDVshykLeLNZsQy
KcBqpBmZA0P+6A7EXZTXw0H7gUYm9SqDFeJrk5rmJUomexBQHoWYOBltt8p59waX
Kz+6jTT/3N22TwUj51NBJqxxym+QLII+0TnUIf4ALBTJLo5fzXjrIwtNMwfRZj3h
WLITkQIDAQABo4IBazCCAWcwCQYDVR0TBAIwADAtBglghkgBhvhCAQ0EIBYeRWFz
eS1SU0EgR2VuZXJhdGVkIENlcnRpZmljYXRlMB0GA1UdDgQWBBSjjD/7Mbkhm6jA
3j33C2uHtxSuqTCB6QYDVR0jBIHhMIHegBTvOI0UUFinW02cF3L837msp1GwEKGB
uqSBtzCBtDELMAkGA1UEBhMCVVMxCzAJBgNVBAgTAkNBMRUwEwYDVQQHEwxTYW5G
cmFuY2lzY28xFTATBgNVBAoTDFBpeGdsbywgSW5jLjEQMA4GA1UECxMHVlBOLUNJ
RTEaMBgGA1UEAxMRdHVubmVsLnBpeGdsby5jb20xHDAaBgNVBCkTE0JhbGEgQ2hh
bmRyYXNla2FyYW4xHjAcBgkqhkiG9w0BCQEWD2JhbGFAcGl4Z2xvLmNvbYIJAKbb
xoOA5qB5MBMGA1UdJQQMMAoGCCsGAQUFBwMCMAsGA1UdDwQEAwIHgDANBgkqhkiG
9w0BAQUFAAOCAgEArilSEV206yvgTa89GrK3laOQHudMJwdRJWvGa8Tc6tyXLGGT
lwJfHuxwGaPiS2U3fT2ktqBXetcRVN4KI+RaxXWHobocflm8UXJl+5Jma4BtNzgB
lUNxs08jSnplPIHJhLiDvp6LBPO2t4nt/viZgHB5gDDZRf2XHw2IFXd7c4wvNmEU
eECuBLyOj6r9QUad/Y+9aGtfNsa/8P33oBCyQ7VhJCQ6vtBQOaP6SWiKdkGgocUl
ZahVSkb/uDqGxqZph/rHVQ7M0fUT6zyPHOyJFi8XBtU4MvB/BwLwO5lPehs32gVL
vaXFSFN8XgYYr8u0/0YTLqKY6MB/9aAVJM5xmkoFkA62g5aDTT3OqpMfik8YL9G7
MgdoUUztrqJEBYBB1yN2wGtwmeHwz/LS4jN+WGI0ETwHx5x679RiEXjkNa7iIxSs
uZfNXd2kYP3091NJo/tV26FETEpCeOE2Hu07SP5ft6QdDGHVNmtL/0S5ZFWmP7uT
OC1GfxBJgPxLOIxEBgpGtieatkT/7w89l+kjORBp8eWeI00p9KPflBWhIlodthBB
+cuPJv3zt+ifWvCEepkbunK+LxDPTpmBIEzJJMStXVtg0LziY6Mhcv2vdvcj0wjD
ZKNT6EEmdJsLOQxNEonzUrxrShiFfNb/85qBYLeNdQj5ZkNA7lnAA8IkFpY=
-----END CERTIFICATE-----
