Certificate:
    Data:
        Version: 3 (0x2)
        Serial Number: 913 (0x391)
    Signature Algorithm: sha1WithRSAEncryption
        Issuer: C=US, ST=CA, L=SanFrancisco, O=Pixglo, Inc., OU=VPN-CIE, CN=tunnel.pixglo.com/name=Bala Chandrasekaran/emailAddress=bala@pixglo.com
        Validity
            Not Before: Feb 14 06:47:45 2018 GMT
            Not After : Feb 12 06:47:45 2028 GMT
        Subject: C=US, ST=CA, L=SanFrancisco, O=Pixglo, Inc., OU=VPN-CIE, CN=cie912/name=Bala Chandrasekaran/emailAddress=bala@pixglo.com
        Subject Public Key Info:
            Public Key Algorithm: rsaEncryption
                Public-Key: (4096 bit)
                Modulus:
                    00:dc:de:a9:bb:1f:09:51:7c:45:07:70:40:69:89:
                    a2:6b:15:da:79:ea:5f:df:3c:c2:75:20:82:6e:53:
                    14:79:b8:25:ed:df:35:3d:1c:76:d6:48:83:67:a6:
                    84:cf:7a:aa:3e:da:b4:0e:3c:2d:c5:fd:a4:e7:23:
                    78:10:00:4c:be:a7:d2:6d:0b:7c:ed:53:f9:63:cd:
                    19:3f:e0:9f:2e:9a:34:36:82:a3:7e:9c:6d:23:44:
                    65:b1:9d:6c:1d:ad:ca:cc:77:37:e6:9f:0f:d6:b9:
                    fb:02:bb:2d:03:b9:c0:e2:cf:62:a4:dd:9b:64:98:
                    a2:7a:7b:0c:d4:f6:78:6f:21:e0:ee:5e:08:17:09:
                    38:27:87:5a:62:79:51:55:e2:44:66:e3:13:22:cd:
                    b7:c9:c4:f7:ae:53:9b:ff:1c:86:43:85:42:cc:1f:
                    7a:1d:98:f1:f1:78:8f:ee:ea:8c:7b:80:14:9d:5d:
                    ad:3e:d0:d1:50:9f:09:53:8f:4d:7b:47:c3:26:1e:
                    4b:e0:cd:1e:1a:a6:23:8d:4e:ad:c2:6c:67:72:bd:
                    89:4f:50:83:c3:05:f4:0e:e5:d0:ba:d9:6a:9b:bf:
                    94:ce:b6:58:85:03:a2:e9:09:35:37:9c:cb:33:15:
                    44:fe:11:fc:ba:cf:80:70:a9:b4:6c:73:e5:c7:37:
                    0a:d3:24:a8:3b:45:57:a7:22:a4:bd:c9:68:85:1a:
                    cb:89:56:96:9a:38:2a:d2:39:c8:4c:7e:0b:b9:cc:
                    4f:7e:a3:01:7c:03:ad:0c:a1:d2:11:25:7c:a3:00:
                    c3:ea:33:3e:0e:02:dc:00:a9:0d:b5:63:bf:55:b1:
                    25:4c:e8:ae:bf:15:38:87:de:1a:6b:b0:25:a1:44:
                    f3:ec:ea:31:69:22:c7:b4:07:e7:6e:c7:d4:a7:65:
                    ca:a4:75:25:2a:60:2a:5a:19:6e:6b:dd:b9:77:fe:
                    d5:c1:53:eb:a4:f0:c8:06:80:47:4e:b1:35:ff:bf:
                    26:92:01:cc:c1:14:56:2c:39:af:4b:17:a9:6f:1f:
                    c3:63:fc:f3:c4:03:de:47:d9:ab:12:b0:05:9f:24:
                    76:97:5e:f3:d4:19:48:6a:d2:0a:99:11:d8:6e:60:
                    78:4a:3a:f6:b1:73:c4:4f:36:83:d6:60:0a:f4:5d:
                    04:f3:94:a6:f1:1e:b0:09:b7:57:4f:57:7f:bb:93:
                    5f:95:df:6f:0d:83:be:31:bf:ca:18:b5:e4:0d:52:
                    94:b4:a6:f2:60:96:9a:29:f3:a2:30:c3:91:e0:73:
                    7c:e0:1c:05:1c:2d:78:27:c9:3b:29:53:c8:10:c5:
                    ff:e6:68:11:f3:77:d5:6e:ea:90:bf:02:13:12:35:
                    33:6f:11
                Exponent: 65537 (0x10001)
        X509v3 extensions:
            X509v3 Basic Constraints: 
                CA:FALSE
            Netscape Comment: 
                Easy-RSA Generated Certificate
            X509v3 Subject Key Identifier: 
                E0:A7:3E:60:08:22:9B:D5:25:26:29:F7:DC:42:B6:36:91:02:28:73
            X509v3 Authority Key Identifier: 
                keyid:EF:38:8D:14:50:58:A7:5B:4D:9C:17:72:FC:DF:B9:AC:A7:51:B0:10
                DirName:/C=US/ST=CA/L=SanFrancisco/O=Pixglo, Inc./OU=VPN-CIE/CN=tunnel.pixglo.com/name=Bala Chandrasekaran/emailAddress=bala@pixglo.com
                serial:A6:DB:C6:83:80:E6:A0:79

            X509v3 Extended Key Usage: 
                TLS Web Client Authentication
            X509v3 Key Usage: 
                Digital Signature
    Signature Algorithm: sha1WithRSAEncryption
         a8:96:63:ea:f9:e2:75:2b:19:bb:0d:c9:17:48:ce:e9:57:73:
         1d:30:50:9d:35:58:cf:e6:ab:63:8f:b9:48:5b:b9:92:20:10:
         31:56:3d:6c:9c:12:c0:23:a9:e1:73:f2:06:7d:ee:98:19:2f:
         26:de:45:53:c7:74:b3:c6:15:5c:cc:19:96:9f:eb:aa:68:6f:
         5f:97:70:c5:1c:c3:4b:ab:ff:2e:5c:7b:d9:84:9e:fd:69:29:
         bd:cb:cc:84:e4:bd:8a:04:2f:ae:a7:3f:43:5d:92:c1:af:8b:
         8d:c3:ce:37:ab:8c:f4:42:99:5d:fa:a1:d0:36:c1:ef:a8:5c:
         cd:c1:b8:44:ab:a7:00:f9:73:eb:0b:90:9d:45:96:87:e6:a8:
         d6:20:cd:47:15:88:87:13:e8:50:2f:00:6a:ed:b3:2d:78:f4:
         13:c3:9e:f5:9d:7e:48:cc:61:d3:78:ab:ae:4b:2b:08:e7:e9:
         cb:92:c2:52:25:24:d5:a2:f6:fd:a8:1f:45:16:32:c3:c3:9a:
         1a:3b:fa:7f:6d:ec:2d:05:a0:14:e1:6a:95:6c:b2:bb:2b:6c:
         b3:00:6c:3e:fe:59:77:5e:1e:f1:56:cc:f0:4f:a1:e8:a8:4f:
         89:6b:83:89:80:40:3b:32:27:37:e9:a2:10:71:e9:fc:ba:ab:
         dc:e0:98:b4:15:ae:a1:4c:9f:7b:a7:f5:a6:52:96:da:70:0c:
         69:da:ca:7c:aa:ad:70:5b:77:92:51:3c:13:bb:f3:f8:fb:2e:
         b0:dd:15:79:58:f1:49:05:9c:68:ef:ee:52:8f:62:6d:be:a8:
         55:ed:10:2b:1a:a6:5d:63:7a:0a:20:30:10:66:e3:dd:2e:da:
         ae:78:0c:cb:35:41:3e:c3:e5:c0:e1:5e:54:d8:3b:20:c7:ad:
         4a:11:83:e0:48:df:cd:9d:92:4a:f0:d8:72:03:17:aa:4f:e1:
         3d:b5:8d:58:4c:fa:1e:95:72:0a:3b:ff:8a:63:58:e4:07:5e:
         6e:a5:79:b3:c6:09:5a:b0:44:88:92:da:20:88:76:3d:ac:8a:
         4b:cb:a8:89:23:2a:fc:69:1c:99:7a:2c:3b:94:0f:47:da:cb:
         33:27:75:b9:f5:b8:31:14:59:54:43:f3:c8:4e:ff:b8:c7:8e:
         d6:07:ea:a7:71:f1:0e:ad:a0:62:7d:09:7a:38:1c:ec:2e:83:
         aa:99:6c:9c:4d:51:c9:5d:27:2f:52:41:a5:21:21:16:1d:e5:
         1c:02:e4:63:11:fd:79:01:43:a4:c9:b1:0b:96:5e:f0:f8:09:
         6b:6f:ae:bb:89:94:c3:90:60:e4:5e:88:ce:b2:9b:bc:51:32:
         b3:29:92:d9:4f:3a:c3:ff
-----BEGIN CERTIFICATE-----
MIIHSDCCBTCgAwIBAgICA5EwDQYJKoZIhvcNAQEFBQAwgbQxCzAJBgNVBAYTAlVT
MQswCQYDVQQIEwJDQTEVMBMGA1UEBxMMU2FuRnJhbmNpc2NvMRUwEwYDVQQKEwxQ
aXhnbG8sIEluYy4xEDAOBgNVBAsTB1ZQTi1DSUUxGjAYBgNVBAMTEXR1bm5lbC5w
aXhnbG8uY29tMRwwGgYDVQQpExNCYWxhIENoYW5kcmFzZWthcmFuMR4wHAYJKoZI
hvcNAQkBFg9iYWxhQHBpeGdsby5jb20wHhcNMTgwMjE0MDY0NzQ1WhcNMjgwMjEy
MDY0NzQ1WjCBqTELMAkGA1UEBhMCVVMxCzAJBgNVBAgTAkNBMRUwEwYDVQQHEwxT
YW5GcmFuY2lzY28xFTATBgNVBAoTDFBpeGdsbywgSW5jLjEQMA4GA1UECxMHVlBO
LUNJRTEPMA0GA1UEAxMGY2llOTEyMRwwGgYDVQQpExNCYWxhIENoYW5kcmFzZWth
cmFuMR4wHAYJKoZIhvcNAQkBFg9iYWxhQHBpeGdsby5jb20wggIiMA0GCSqGSIb3
DQEBAQUAA4ICDwAwggIKAoICAQDc3qm7HwlRfEUHcEBpiaJrFdp56l/fPMJ1IIJu
UxR5uCXt3zU9HHbWSINnpoTPeqo+2rQOPC3F/aTnI3gQAEy+p9JtC3ztU/ljzRk/
4J8umjQ2gqN+nG0jRGWxnWwdrcrMdzfmnw/WufsCuy0DucDiz2Kk3ZtkmKJ6ewzU
9nhvIeDuXggXCTgnh1pieVFV4kRm4xMizbfJxPeuU5v/HIZDhULMH3odmPHxeI/u
6ox7gBSdXa0+0NFQnwlTj017R8MmHkvgzR4apiONTq3CbGdyvYlPUIPDBfQO5dC6
2Wqbv5TOtliFA6LpCTU3nMszFUT+Efy6z4BwqbRsc+XHNwrTJKg7RVenIqS9yWiF
GsuJVpaaOCrSOchMfgu5zE9+owF8A60ModIRJXyjAMPqMz4OAtwAqQ21Y79VsSVM
6K6/FTiH3hprsCWhRPPs6jFpIse0B+dux9SnZcqkdSUqYCpaGW5r3bl3/tXBU+uk
8MgGgEdOsTX/vyaSAczBFFYsOa9LF6lvH8Nj/PPEA95H2asSsAWfJHaXXvPUGUhq
0gqZEdhuYHhKOvaxc8RPNoPWYAr0XQTzlKbxHrAJt1dPV3+7k1+V328Ng74xv8oY
teQNUpS0pvJglpop86Iww5Hgc3zgHAUcLXgnyTspU8gQxf/maBHzd9Vu6pC/AhMS
NTNvEQIDAQABo4IBazCCAWcwCQYDVR0TBAIwADAtBglghkgBhvhCAQ0EIBYeRWFz
eS1SU0EgR2VuZXJhdGVkIENlcnRpZmljYXRlMB0GA1UdDgQWBBTgpz5gCCKb1SUm
KffcQrY2kQIoczCB6QYDVR0jBIHhMIHegBTvOI0UUFinW02cF3L837msp1GwEKGB
uqSBtzCBtDELMAkGA1UEBhMCVVMxCzAJBgNVBAgTAkNBMRUwEwYDVQQHEwxTYW5G
cmFuY2lzY28xFTATBgNVBAoTDFBpeGdsbywgSW5jLjEQMA4GA1UECxMHVlBOLUNJ
RTEaMBgGA1UEAxMRdHVubmVsLnBpeGdsby5jb20xHDAaBgNVBCkTE0JhbGEgQ2hh
bmRyYXNla2FyYW4xHjAcBgkqhkiG9w0BCQEWD2JhbGFAcGl4Z2xvLmNvbYIJAKbb
xoOA5qB5MBMGA1UdJQQMMAoGCCsGAQUFBwMCMAsGA1UdDwQEAwIHgDANBgkqhkiG
9w0BAQUFAAOCAgEAqJZj6vnidSsZuw3JF0jO6VdzHTBQnTVYz+arY4+5SFu5kiAQ
MVY9bJwSwCOp4XPyBn3umBkvJt5FU8d0s8YVXMwZlp/rqmhvX5dwxRzDS6v/Llx7
2YSe/WkpvcvMhOS9igQvrqc/Q12Swa+LjcPON6uM9EKZXfqh0DbB76hczcG4RKun
APlz6wuQnUWWh+ao1iDNRxWIhxPoUC8Aau2zLXj0E8Oe9Z1+SMxh03irrksrCOfp
y5LCUiUk1aL2/agfRRYyw8OaGjv6f23sLQWgFOFqlWyyuytsswBsPv5Zd14e8VbM
8E+h6KhPiWuDiYBAOzInN+miEHHp/Lqr3OCYtBWuoUyfe6f1plKW2nAMadrKfKqt
cFt3klE8E7vz+PsusN0VeVjxSQWcaO/uUo9ibb6oVe0QKxqmXWN6CiAwEGbj3S7a
rngMyzVBPsPlwOFeVNg7IMetShGD4EjfzZ2SSvDYcgMXqk/hPbWNWEz6HpVyCjv/
imNY5AdebqV5s8YJWrBEiJLaIIh2PayKS8uoiSMq/GkcmXosO5QPR9rLMyd1ufW4
MRRZVEPzyE7/uMeO1gfqp3HxDq2gYn0Jejgc7C6DqplsnE1RyV0nL1JBpSEhFh3l
HALkYxH9eQFDpMmxC5Ze8PgJa2+uu4mUw5Bg5F6IzrKbvFEysymS2U86w/8=
-----END CERTIFICATE-----
