Certificate:
    Data:
        Version: 3 (0x2)
        Serial Number: 915 (0x393)
    Signature Algorithm: sha1WithRSAEncryption
        Issuer: C=US, ST=CA, L=SanFrancisco, O=Pixglo, Inc., OU=VPN-CIE, CN=tunnel.pixglo.com/name=Bala Chandrasekaran/emailAddress=bala@pixglo.com
        Validity
            Not Before: Feb 14 06:47:48 2018 GMT
            Not After : Feb 12 06:47:48 2028 GMT
        Subject: C=US, ST=CA, L=SanFrancisco, O=Pixglo, Inc., OU=VPN-CIE, CN=cie914/name=Bala Chandrasekaran/emailAddress=bala@pixglo.com
        Subject Public Key Info:
            Public Key Algorithm: rsaEncryption
                Public-Key: (4096 bit)
                Modulus:
                    00:d1:39:b6:d1:ab:e8:eb:3c:aa:12:ac:e3:66:91:
                    90:75:d6:43:72:cc:a0:06:42:10:28:53:9f:ed:e9:
                    5d:23:d3:5e:0f:09:c3:aa:f2:c8:bf:ba:30:f3:e2:
                    cc:00:d5:36:4a:13:da:d4:09:9f:df:da:48:10:e4:
                    38:ea:28:60:eb:65:75:bd:96:b9:d5:2a:6b:68:61:
                    c2:80:33:c0:38:e8:c2:4d:3b:f3:5b:c4:1b:af:ff:
                    d1:32:d4:c4:b6:80:88:43:86:1b:97:50:55:c8:0f:
                    b9:ee:fb:22:5a:a0:da:30:d2:81:30:b5:d6:3e:8b:
                    dc:f1:8f:5d:e7:f7:4a:e1:5d:09:1d:77:7c:28:d5:
                    76:d2:de:be:f8:f7:80:be:9e:c3:9e:52:50:c8:5e:
                    73:82:cd:0a:3b:6c:76:56:e3:50:43:7d:42:ab:00:
                    33:c6:2c:9b:3d:c7:37:5d:e9:7d:1c:4b:70:a0:2d:
                    13:b7:d9:80:a8:c8:67:e0:62:00:b5:9b:21:c7:01:
                    9b:5c:27:5e:7a:ab:d5:48:c8:43:78:55:36:f4:0b:
                    f3:1c:2c:40:d3:e9:9a:81:0c:2c:f0:72:7b:08:07:
                    0b:6c:d9:b4:95:10:a2:24:38:57:b5:5b:5f:80:25:
                    ec:96:ee:60:98:d7:36:4e:bf:43:26:ff:5d:d9:11:
                    f1:6e:e8:03:99:c5:f9:60:09:51:78:cf:d7:c9:ca:
                    fe:d1:63:13:62:5b:76:50:19:b2:d9:72:c3:8c:a4:
                    24:b6:44:9a:a1:98:9f:80:c5:ce:5f:4f:26:53:28:
                    ed:35:c4:fd:02:a0:df:b8:ea:37:d1:26:c6:a7:66:
                    1c:cd:a2:15:cb:d9:8d:95:32:d7:e6:34:50:5b:26:
                    d2:70:d1:d5:5d:8e:75:39:ca:ab:5d:63:c1:2b:00:
                    e7:68:84:e8:8b:72:54:13:0f:c2:68:a7:ad:e4:02:
                    51:ed:eb:fb:c9:45:da:42:df:cf:1e:c8:4b:a1:03:
                    80:fe:a6:11:77:98:2b:62:c0:0c:ea:60:02:db:5e:
                    5c:47:62:a5:43:13:be:d7:f9:f9:31:1d:cd:4b:d6:
                    29:bf:fd:3a:12:ea:4f:9c:73:63:e5:2a:30:90:47:
                    43:6c:a9:54:69:c9:c0:39:4f:92:25:5a:bf:13:54:
                    75:89:e4:7e:0d:85:ad:00:06:7a:df:fb:8a:a8:75:
                    3f:4f:17:be:bb:85:04:5b:83:49:61:fa:7a:a3:ab:
                    7c:04:40:75:a8:57:fe:98:d7:97:dd:43:17:1a:7e:
                    30:eb:ed:14:20:14:c3:03:be:e8:ce:f8:36:81:e5:
                    4b:19:c3:f3:16:c6:a6:2a:d3:e0:b6:44:03:bd:c5:
                    b6:cb:61
                Exponent: 65537 (0x10001)
        X509v3 extensions:
            X509v3 Basic Constraints: 
                CA:FALSE
            Netscape Comment: 
                Easy-RSA Generated Certificate
            X509v3 Subject Key Identifier: 
                A3:46:28:82:B2:FA:71:F0:29:4C:EA:A1:D7:08:E3:DA:36:69:53:17
            X509v3 Authority Key Identifier: 
                keyid:EF:38:8D:14:50:58:A7:5B:4D:9C:17:72:FC:DF:B9:AC:A7:51:B0:10
                DirName:/C=US/ST=CA/L=SanFrancisco/O=Pixglo, Inc./OU=VPN-CIE/CN=tunnel.pixglo.com/name=Bala Chandrasekaran/emailAddress=bala@pixglo.com
                serial:A6:DB:C6:83:80:E6:A0:79

            X509v3 Extended Key Usage: 
                TLS Web Client Authentication
            X509v3 Key Usage: 
                Digital Signature
    Signature Algorithm: sha1WithRSAEncryption
         11:e9:c2:8f:9d:a2:3f:a7:4d:4b:d8:d5:b7:85:33:b6:86:46:
         13:20:96:02:c2:9b:be:19:17:16:34:c4:ed:2a:c6:27:e1:aa:
         b1:bd:e4:10:23:03:97:15:a3:ae:0b:bf:33:eb:1f:01:aa:c6:
         bc:84:fc:03:a5:88:25:26:62:d1:40:8f:87:1d:ab:22:2f:f9:
         61:e5:82:d2:01:db:4d:67:55:35:66:54:6f:36:be:b0:ab:53:
         8d:61:70:b0:d4:e0:23:83:fb:f3:57:cc:56:c9:4a:7a:ac:ee:
         c6:4d:f0:b4:dc:65:8b:27:71:4c:76:96:a0:72:27:f1:40:37:
         b9:64:28:24:48:27:f9:82:dd:11:6e:57:e0:b5:9e:0e:ea:b7:
         48:27:f9:6d:a1:2a:7e:79:e5:2d:35:88:77:51:03:ed:bc:be:
         90:f3:aa:48:0b:1e:57:c8:aa:95:81:8f:13:83:ff:f3:f3:e9:
         9b:5d:19:00:56:e6:99:e0:41:26:80:24:e1:78:02:0a:03:f2:
         cc:11:a6:a0:e1:06:91:4a:58:53:65:17:a4:cf:38:cc:24:60:
         e8:c6:cc:bf:7a:40:35:0f:80:01:70:18:76:fb:57:a3:f2:19:
         3c:c8:48:e3:f2:96:a5:f7:95:22:88:f4:ac:18:a3:49:43:4e:
         fa:46:32:d7:31:93:da:8b:65:06:d5:9e:0b:e6:ae:46:a4:22:
         d3:fa:d0:10:44:c8:cd:60:43:6d:16:6d:7d:63:08:a8:38:cb:
         c8:41:84:a0:c2:62:98:f4:b4:b3:fc:9a:70:01:12:81:56:6e:
         65:d2:1a:2b:1e:ba:f5:40:34:fa:76:df:78:80:d6:d2:4f:fe:
         0c:c0:ed:e5:58:7e:c1:76:2f:bf:27:4c:0f:82:85:67:ae:a7:
         0f:8e:93:21:b1:a9:90:06:87:ca:96:bf:a8:f1:16:94:d3:5f:
         ec:76:f4:21:9c:f6:37:f7:fe:fb:3c:db:b6:30:01:37:59:38:
         7a:39:d3:cb:97:28:f2:e4:02:7b:8e:16:98:5c:bc:16:e1:47:
         86:8e:01:6c:2b:84:4e:64:ee:ba:13:c2:5d:c3:82:54:4b:11:
         38:e9:7a:5c:35:c1:a6:2d:7f:f0:1c:11:c9:92:ee:6b:cc:bd:
         3f:d1:5f:a8:04:a1:5b:c7:67:00:d2:30:82:75:85:1d:cf:b2:
         d7:0a:e1:85:00:d6:b6:88:e2:f7:be:0d:b3:bd:60:eb:ea:7b:
         53:c5:9d:41:95:25:4c:70:9b:5c:5b:6e:ff:4e:0e:66:06:61:
         07:58:06:17:9b:1d:4e:d4:2f:cd:1e:ff:1e:a6:e0:ed:24:ce:
         88:f2:14:c0:ca:6e:22:b5
-----BEGIN CERTIFICATE-----
MIIHSDCCBTCgAwIBAgICA5MwDQYJKoZIhvcNAQEFBQAwgbQxCzAJBgNVBAYTAlVT
MQswCQYDVQQIEwJDQTEVMBMGA1UEBxMMU2FuRnJhbmNpc2NvMRUwEwYDVQQKEwxQ
aXhnbG8sIEluYy4xEDAOBgNVBAsTB1ZQTi1DSUUxGjAYBgNVBAMTEXR1bm5lbC5w
aXhnbG8uY29tMRwwGgYDVQQpExNCYWxhIENoYW5kcmFzZWthcmFuMR4wHAYJKoZI
hvcNAQkBFg9iYWxhQHBpeGdsby5jb20wHhcNMTgwMjE0MDY0NzQ4WhcNMjgwMjEy
MDY0NzQ4WjCBqTELMAkGA1UEBhMCVVMxCzAJBgNVBAgTAkNBMRUwEwYDVQQHEwxT
YW5GcmFuY2lzY28xFTATBgNVBAoTDFBpeGdsbywgSW5jLjEQMA4GA1UECxMHVlBO
LUNJRTEPMA0GA1UEAxMGY2llOTE0MRwwGgYDVQQpExNCYWxhIENoYW5kcmFzZWth
cmFuMR4wHAYJKoZIhvcNAQkBFg9iYWxhQHBpeGdsby5jb20wggIiMA0GCSqGSIb3
DQEBAQUAA4ICDwAwggIKAoICAQDRObbRq+jrPKoSrONmkZB11kNyzKAGQhAoU5/t
6V0j014PCcOq8si/ujDz4swA1TZKE9rUCZ/f2kgQ5DjqKGDrZXW9lrnVKmtoYcKA
M8A46MJNO/NbxBuv/9Ey1MS2gIhDhhuXUFXID7nu+yJaoNow0oEwtdY+i9zxj13n
90rhXQkdd3wo1XbS3r7494C+nsOeUlDIXnOCzQo7bHZW41BDfUKrADPGLJs9xzdd
6X0cS3CgLRO32YCoyGfgYgC1myHHAZtcJ156q9VIyEN4VTb0C/McLEDT6ZqBDCzw
cnsIBwts2bSVEKIkOFe1W1+AJeyW7mCY1zZOv0Mm/13ZEfFu6AOZxflgCVF4z9fJ
yv7RYxNiW3ZQGbLZcsOMpCS2RJqhmJ+Axc5fTyZTKO01xP0CoN+46jfRJsanZhzN
ohXL2Y2VMtfmNFBbJtJw0dVdjnU5yqtdY8ErAOdohOiLclQTD8Jop63kAlHt6/vJ
RdpC388eyEuhA4D+phF3mCtiwAzqYALbXlxHYqVDE77X+fkxHc1L1im//ToS6k+c
c2PlKjCQR0NsqVRpycA5T5IlWr8TVHWJ5H4Nha0ABnrf+4qodT9PF767hQRbg0lh
+nqjq3wEQHWoV/6Y15fdQxcafjDr7RQgFMMDvujO+DaB5UsZw/MWxqYq0+C2RAO9
xbbLYQIDAQABo4IBazCCAWcwCQYDVR0TBAIwADAtBglghkgBhvhCAQ0EIBYeRWFz
eS1SU0EgR2VuZXJhdGVkIENlcnRpZmljYXRlMB0GA1UdDgQWBBSjRiiCsvpx8ClM
6qHXCOPaNmlTFzCB6QYDVR0jBIHhMIHegBTvOI0UUFinW02cF3L837msp1GwEKGB
uqSBtzCBtDELMAkGA1UEBhMCVVMxCzAJBgNVBAgTAkNBMRUwEwYDVQQHEwxTYW5G
cmFuY2lzY28xFTATBgNVBAoTDFBpeGdsbywgSW5jLjEQMA4GA1UECxMHVlBOLUNJ
RTEaMBgGA1UEAxMRdHVubmVsLnBpeGdsby5jb20xHDAaBgNVBCkTE0JhbGEgQ2hh
bmRyYXNla2FyYW4xHjAcBgkqhkiG9w0BCQEWD2JhbGFAcGl4Z2xvLmNvbYIJAKbb
xoOA5qB5MBMGA1UdJQQMMAoGCCsGAQUFBwMCMAsGA1UdDwQEAwIHgDANBgkqhkiG
9w0BAQUFAAOCAgEAEenCj52iP6dNS9jVt4UztoZGEyCWAsKbvhkXFjTE7SrGJ+Gq
sb3kECMDlxWjrgu/M+sfAarGvIT8A6WIJSZi0UCPhx2rIi/5YeWC0gHbTWdVNWZU
bza+sKtTjWFwsNTgI4P781fMVslKeqzuxk3wtNxliydxTHaWoHIn8UA3uWQoJEgn
+YLdEW5X4LWeDuq3SCf5baEqfnnlLTWId1ED7by+kPOqSAseV8iqlYGPE4P/8/Pp
m10ZAFbmmeBBJoAk4XgCCgPyzBGmoOEGkUpYU2UXpM84zCRg6MbMv3pANQ+AAXAY
dvtXo/IZPMhI4/KWpfeVIoj0rBijSUNO+kYy1zGT2otlBtWeC+auRqQi0/rQEETI
zWBDbRZtfWMIqDjLyEGEoMJimPS0s/yacAESgVZuZdIaKx669UA0+nbfeIDW0k/+
DMDt5Vh+wXYvvydMD4KFZ66nD46TIbGpkAaHypa/qPEWlNNf7Hb0IZz2N/f++zzb
tjABN1k4ejnTy5co8uQCe44WmFy8FuFHho4BbCuETmTuuhPCXcOCVEsROOl6XDXB
pi1/8BwRyZLua8y9P9FfqAShW8dnANIwgnWFHc+y1wrhhQDWtoji974Ns71g6+p7
U8WdQZUlTHCbXFtu/04OZgZhB1gGF5sdTtQvzR7/Hqbg7STOiPIUwMpuIrU=
-----END CERTIFICATE-----
