Certificate:
    Data:
        Version: 3 (0x2)
        Serial Number: 921 (0x399)
    Signature Algorithm: sha1WithRSAEncryption
        Issuer: C=US, ST=CA, L=SanFrancisco, O=Pixglo, Inc., OU=VPN-CIE, CN=tunnel.pixglo.com/name=Bala Chandrasekaran/emailAddress=bala@pixglo.com
        Validity
            Not Before: Feb 14 06:48:05 2018 GMT
            Not After : Feb 12 06:48:05 2028 GMT
        Subject: C=US, ST=CA, L=SanFrancisco, O=Pixglo, Inc., OU=VPN-CIE, CN=cie920/name=Bala Chandrasekaran/emailAddress=bala@pixglo.com
        Subject Public Key Info:
            Public Key Algorithm: rsaEncryption
                Public-Key: (4096 bit)
                Modulus:
                    00:ce:27:29:1c:22:eb:dd:5d:88:a1:21:a5:eb:f7:
                    38:d8:ab:6c:ca:2e:ac:f6:d6:2e:7e:4a:a3:a8:a6:
                    16:f1:e6:2e:85:db:1d:1d:cc:d6:d6:cf:3c:c2:85:
                    ad:5d:fc:51:50:a1:61:31:88:fc:0e:f9:41:37:cb:
                    36:ae:53:24:85:b9:d2:f7:47:12:ac:bf:08:05:2a:
                    59:e4:1b:fd:02:3c:b8:2c:5f:5b:51:d2:8d:20:b3:
                    51:67:14:34:b9:37:ab:8a:d1:1c:f7:26:7c:3d:1c:
                    c5:b4:48:6f:3f:c4:5f:5f:3c:27:90:1a:e3:ce:d9:
                    63:43:62:3d:1c:e6:10:dd:4c:fb:de:05:5a:20:ad:
                    0e:0e:4c:d8:95:ca:36:01:0d:2b:1e:ac:f7:17:7b:
                    48:d8:46:e0:25:bb:8a:e4:ea:74:03:dc:d2:2c:de:
                    b8:54:53:7d:35:6d:c4:c4:01:08:48:3d:e1:c7:a8:
                    a5:48:f7:51:ca:84:f7:4b:df:39:e7:be:42:80:17:
                    59:83:1d:55:63:0a:03:a3:b7:91:02:8e:fc:ea:16:
                    de:aa:fd:e5:dc:ea:31:2d:30:ba:80:34:48:47:ab:
                    f7:ee:bc:bc:ca:33:51:1b:da:10:59:5c:8b:bc:1c:
                    99:00:97:17:70:59:4c:cc:9b:4f:b9:3f:41:e6:bd:
                    22:0f:b9:04:81:c8:96:5e:4e:4c:cc:fe:97:c3:16:
                    f4:23:b1:1d:a3:97:91:fc:56:cf:9a:ca:11:8f:b3:
                    c1:20:5c:c1:ce:84:c9:59:00:47:b7:a2:ac:54:25:
                    69:05:9d:89:8f:dc:ab:e2:ea:23:7c:64:9b:9c:36:
                    c0:a0:cd:21:11:b1:11:9d:73:dc:c0:e4:f6:52:75:
                    5e:a4:99:b6:2b:6a:ec:ab:ee:2e:86:d5:ea:52:f8:
                    24:84:04:77:9b:3d:af:5a:97:a2:03:a3:13:86:d9:
                    55:d4:42:45:43:15:a6:b4:34:a9:2e:4a:ae:36:3c:
                    8c:29:87:92:4c:fd:68:7f:c1:1b:7c:95:51:9b:73:
                    bf:69:88:50:aa:62:fd:2b:d8:c6:40:d6:33:80:40:
                    99:73:a9:72:a8:38:63:22:b2:be:23:13:1f:f7:b7:
                    e9:5d:ee:34:83:29:19:f7:11:e9:15:08:35:c5:36:
                    ab:1b:dc:e1:73:52:94:e8:d5:a4:31:fa:94:c5:f6:
                    12:22:de:cd:16:ed:13:df:f1:66:c5:27:9b:83:86:
                    bb:6d:98:b6:1e:af:45:cc:b5:dc:c1:4a:a7:c9:54:
                    1a:3c:2d:6b:c8:8d:b1:78:d5:e1:0b:d3:31:ca:27:
                    0c:07:51:c4:e9:fd:58:7a:90:4e:2d:10:65:65:10:
                    d5:33:23
                Exponent: 65537 (0x10001)
        X509v3 extensions:
            X509v3 Basic Constraints: 
                CA:FALSE
            Netscape Comment: 
                Easy-RSA Generated Certificate
            X509v3 Subject Key Identifier: 
                AA:87:C8:72:54:E9:2D:39:23:D4:A1:8A:3F:88:A3:67:06:CC:3F:CA
            X509v3 Authority Key Identifier: 
                keyid:EF:38:8D:14:50:58:A7:5B:4D:9C:17:72:FC:DF:B9:AC:A7:51:B0:10
                DirName:/C=US/ST=CA/L=SanFrancisco/O=Pixglo, Inc./OU=VPN-CIE/CN=tunnel.pixglo.com/name=Bala Chandrasekaran/emailAddress=bala@pixglo.com
                serial:A6:DB:C6:83:80:E6:A0:79

            X509v3 Extended Key Usage: 
                TLS Web Client Authentication
            X509v3 Key Usage: 
                Digital Signature
    Signature Algorithm: sha1WithRSAEncryption
         6e:fe:2f:79:01:65:ab:1a:d0:f1:12:fc:eb:95:19:51:b9:87:
         97:25:fe:81:89:7b:53:1e:f2:40:8f:cb:c2:d5:36:5d:a1:5f:
         c2:f4:9d:de:bb:3e:fd:32:f3:c5:33:21:55:ea:22:a7:2e:39:
         00:53:52:dd:c3:66:f5:02:3c:76:87:10:1a:f5:6c:a9:fd:62:
         a1:30:8d:53:2f:1b:e5:7b:e9:5a:d8:eb:c0:de:66:43:e1:d9:
         f9:d9:cd:dd:97:96:98:e3:5d:bc:9b:93:df:40:82:21:d3:05:
         33:c8:87:50:9b:dd:23:94:f4:44:b4:bb:f8:bf:c4:d2:1e:80:
         b7:7c:83:79:05:a3:53:36:c6:fe:3f:0e:2c:9b:02:74:dd:19:
         9c:a2:e5:79:f6:3c:f8:31:8d:d2:92:d9:9e:99:d7:1a:43:27:
         7c:8c:ca:e1:88:57:b0:42:8f:36:88:3f:1c:b6:b5:9f:b8:f0:
         4d:c3:be:f8:b3:68:73:ff:92:c7:f6:af:9a:b9:e2:d5:7e:a6:
         4a:ff:b3:ba:fb:ab:61:c5:fa:fd:6d:38:00:24:6a:86:d2:5f:
         57:d7:fb:16:8d:52:21:67:60:4f:48:f5:4a:b5:96:d7:75:da:
         12:83:d5:ff:a5:44:27:69:0f:d5:02:44:78:15:e9:d6:ca:e0:
         90:7c:bb:9f:5d:20:e8:25:60:3f:e7:a4:9b:bf:32:71:95:db:
         4b:ef:03:63:7f:73:27:8a:ec:ca:b1:fc:7c:2e:f0:ef:44:2b:
         d3:47:5d:8f:f7:22:df:d6:90:56:4c:b6:73:3a:16:3f:5b:30:
         49:6d:9b:70:99:22:c3:6c:a5:76:d9:1a:03:be:85:6a:9c:38:
         04:b1:cd:1c:de:b7:e2:b9:21:03:4b:55:38:bf:a7:91:ac:2e:
         cb:85:25:79:ef:61:c9:0b:88:4d:6e:24:d1:8d:61:95:b4:6d:
         7a:90:e3:dd:e7:38:e8:00:13:1d:1d:57:d7:7e:c9:b7:e3:4d:
         b5:49:6b:18:73:a9:4e:8e:25:3a:3e:bf:14:ee:41:74:bd:a0:
         0f:24:a0:9d:c6:79:0f:1e:48:e1:18:59:0c:24:f7:ca:f8:62:
         28:11:3d:b2:27:3f:28:13:56:f3:8b:4d:8a:34:39:8f:82:00:
         fa:c3:d0:40:11:03:0c:cb:5a:71:23:70:6a:4e:60:9c:e0:1f:
         d2:94:f9:67:1c:15:17:4e:03:0a:73:e4:f2:b4:2c:e8:04:46:
         86:c1:39:79:78:cd:e5:c1:4d:fd:ef:2b:cd:c1:ed:ab:37:3b:
         cd:6c:ff:ec:f9:64:75:e2:82:77:aa:94:e7:0e:26:06:17:27:
         d3:d3:9c:e5:a6:6e:e7:58
-----BEGIN CERTIFICATE-----
MIIHSDCCBTCgAwIBAgICA5kwDQYJKoZIhvcNAQEFBQAwgbQxCzAJBgNVBAYTAlVT
MQswCQYDVQQIEwJDQTEVMBMGA1UEBxMMU2FuRnJhbmNpc2NvMRUwEwYDVQQKEwxQ
aXhnbG8sIEluYy4xEDAOBgNVBAsTB1ZQTi1DSUUxGjAYBgNVBAMTEXR1bm5lbC5w
aXhnbG8uY29tMRwwGgYDVQQpExNCYWxhIENoYW5kcmFzZWthcmFuMR4wHAYJKoZI
hvcNAQkBFg9iYWxhQHBpeGdsby5jb20wHhcNMTgwMjE0MDY0ODA1WhcNMjgwMjEy
MDY0ODA1WjCBqTELMAkGA1UEBhMCVVMxCzAJBgNVBAgTAkNBMRUwEwYDVQQHEwxT
YW5GcmFuY2lzY28xFTATBgNVBAoTDFBpeGdsbywgSW5jLjEQMA4GA1UECxMHVlBO
LUNJRTEPMA0GA1UEAxMGY2llOTIwMRwwGgYDVQQpExNCYWxhIENoYW5kcmFzZWth
cmFuMR4wHAYJKoZIhvcNAQkBFg9iYWxhQHBpeGdsby5jb20wggIiMA0GCSqGSIb3
DQEBAQUAA4ICDwAwggIKAoICAQDOJykcIuvdXYihIaXr9zjYq2zKLqz21i5+SqOo
phbx5i6F2x0dzNbWzzzCha1d/FFQoWExiPwO+UE3yzauUySFudL3RxKsvwgFKlnk
G/0CPLgsX1tR0o0gs1FnFDS5N6uK0Rz3Jnw9HMW0SG8/xF9fPCeQGuPO2WNDYj0c
5hDdTPveBVogrQ4OTNiVyjYBDSserPcXe0jYRuAlu4rk6nQD3NIs3rhUU301bcTE
AQhIPeHHqKVI91HKhPdL3znnvkKAF1mDHVVjCgOjt5ECjvzqFt6q/eXc6jEtMLqA
NEhHq/fuvLzKM1Eb2hBZXIu8HJkAlxdwWUzMm0+5P0HmvSIPuQSByJZeTkzM/pfD
FvQjsR2jl5H8Vs+ayhGPs8EgXMHOhMlZAEe3oqxUJWkFnYmP3Kvi6iN8ZJucNsCg
zSERsRGdc9zA5PZSdV6kmbYrauyr7i6G1epS+CSEBHebPa9al6IDoxOG2VXUQkVD
Faa0NKkuSq42PIwph5JM/Wh/wRt8lVGbc79piFCqYv0r2MZA1jOAQJlzqXKoOGMi
sr4jEx/3t+ld7jSDKRn3EekVCDXFNqsb3OFzUpTo1aQx+pTF9hIi3s0W7RPf8WbF
J5uDhrttmLYer0XMtdzBSqfJVBo8LWvIjbF41eEL0zHKJwwHUcTp/Vh6kE4tEGVl
ENUzIwIDAQABo4IBazCCAWcwCQYDVR0TBAIwADAtBglghkgBhvhCAQ0EIBYeRWFz
eS1SU0EgR2VuZXJhdGVkIENlcnRpZmljYXRlMB0GA1UdDgQWBBSqh8hyVOktOSPU
oYo/iKNnBsw/yjCB6QYDVR0jBIHhMIHegBTvOI0UUFinW02cF3L837msp1GwEKGB
uqSBtzCBtDELMAkGA1UEBhMCVVMxCzAJBgNVBAgTAkNBMRUwEwYDVQQHEwxTYW5G
cmFuY2lzY28xFTATBgNVBAoTDFBpeGdsbywgSW5jLjEQMA4GA1UECxMHVlBOLUNJ
RTEaMBgGA1UEAxMRdHVubmVsLnBpeGdsby5jb20xHDAaBgNVBCkTE0JhbGEgQ2hh
bmRyYXNla2FyYW4xHjAcBgkqhkiG9w0BCQEWD2JhbGFAcGl4Z2xvLmNvbYIJAKbb
xoOA5qB5MBMGA1UdJQQMMAoGCCsGAQUFBwMCMAsGA1UdDwQEAwIHgDANBgkqhkiG
9w0BAQUFAAOCAgEAbv4veQFlqxrQ8RL865UZUbmHlyX+gYl7Ux7yQI/LwtU2XaFf
wvSd3rs+/TLzxTMhVeoipy45AFNS3cNm9QI8docQGvVsqf1ioTCNUy8b5XvpWtjr
wN5mQ+HZ+dnN3ZeWmONdvJuT30CCIdMFM8iHUJvdI5T0RLS7+L/E0h6At3yDeQWj
UzbG/j8OLJsCdN0ZnKLlefY8+DGN0pLZnpnXGkMnfIzK4YhXsEKPNog/HLa1n7jw
TcO++LNoc/+Sx/avmrni1X6mSv+zuvurYcX6/W04ACRqhtJfV9f7Fo1SIWdgT0j1
SrWW13XaEoPV/6VEJ2kP1QJEeBXp1srgkHy7n10g6CVgP+ekm78ycZXbS+8DY39z
J4rsyrH8fC7w70Qr00ddj/ci39aQVky2czoWP1swSW2bcJkiw2yldtkaA76Fapw4
BLHNHN634rkhA0tVOL+nkawuy4Ulee9hyQuITW4k0Y1hlbRtepDj3ec46AATHR1X
137Jt+NNtUlrGHOpTo4lOj6/FO5BdL2gDySgncZ5Dx5I4RhZDCT3yvhiKBE9sic/
KBNW84tNijQ5j4IA+sPQQBEDDMtacSNwak5gnOAf0pT5ZxwVF04DCnPk8rQs6ARG
hsE5eXjN5cFN/e8rzcHtqzc7zWz/7PlkdeKCd6qU5w4mBhcn09Oc5aZu51g=
-----END CERTIFICATE-----
