Certificate:
    Data:
        Version: 3 (0x2)
        Serial Number: 923 (0x39b)
    Signature Algorithm: sha1WithRSAEncryption
        Issuer: C=US, ST=CA, L=SanFrancisco, O=Pixglo, Inc., OU=VPN-CIE, CN=tunnel.pixglo.com/name=Bala Chandrasekaran/emailAddress=bala@pixglo.com
        Validity
            Not Before: Feb 14 06:48:11 2018 GMT
            Not After : Feb 12 06:48:11 2028 GMT
        Subject: C=US, ST=CA, L=SanFrancisco, O=Pixglo, Inc., OU=VPN-CIE, CN=cie922/name=Bala Chandrasekaran/emailAddress=bala@pixglo.com
        Subject Public Key Info:
            Public Key Algorithm: rsaEncryption
                Public-Key: (4096 bit)
                Modulus:
                    00:d8:79:62:44:6d:c9:f7:f7:b4:03:17:72:25:a6:
                    b5:e4:c0:a0:6a:53:f0:27:3b:f3:8f:a2:55:f9:9a:
                    b9:56:bf:4d:3e:16:cc:ec:7e:18:ca:1b:a0:59:4b:
                    af:cc:78:91:aa:9e:47:d0:8e:d1:26:46:35:19:b7:
                    4d:c0:ff:2a:3b:97:d3:89:45:88:31:ab:b2:1e:e5:
                    bf:5d:19:20:1f:06:10:d2:98:e5:58:58:97:3f:88:
                    8f:43:cf:2c:f6:33:cf:69:0d:b5:c3:69:9e:dc:83:
                    be:19:c6:e3:7c:39:00:74:f9:25:ce:c2:ed:4a:56:
                    00:29:05:58:72:a4:5f:61:af:30:d4:8b:7d:16:20:
                    c3:93:18:53:9e:cb:a6:ec:2a:76:89:d1:6d:0a:0a:
                    96:8c:48:3c:e2:4f:60:a7:18:f6:9e:7f:21:76:80:
                    2e:68:5a:ce:8d:b0:78:35:91:91:59:26:ae:9b:a9:
                    a7:27:0f:3c:e0:f5:f9:e1:3b:35:9a:8a:85:d7:c2:
                    dd:36:1a:ca:3c:92:df:60:a1:32:b2:dd:3b:44:f6:
                    eb:8a:39:3d:f4:e2:90:04:9c:b8:f9:ac:2f:15:e5:
                    f0:38:f4:d1:4d:27:e6:09:c6:74:fe:72:b8:19:85:
                    e3:e2:43:43:37:ba:8e:c9:ef:79:3c:74:72:dd:89:
                    6a:90:c3:67:d8:f7:e5:2a:e0:99:55:ed:03:77:b6:
                    ac:1d:5f:36:71:a1:eb:19:5d:01:4f:38:20:fa:a5:
                    8c:bc:46:58:58:b4:b2:9e:ba:ff:61:6f:d3:04:42:
                    6c:20:30:a4:3f:41:28:84:ae:39:f5:5f:a2:28:69:
                    5d:d7:b2:21:b8:6c:8d:27:9f:d0:51:67:ea:58:ff:
                    d4:da:a4:74:cc:6d:66:b9:93:ac:59:11:3d:21:85:
                    07:5b:4e:a4:53:9a:25:ca:bf:b6:79:3c:2b:ed:0e:
                    d3:d6:db:52:2f:b5:d2:9a:a1:98:62:0b:86:be:94:
                    4c:8a:da:ed:3f:b5:7a:a0:bf:42:be:55:30:2a:98:
                    4e:bf:8b:a8:55:fa:cc:62:56:35:95:27:33:50:cc:
                    bf:41:b9:ac:d3:f6:c0:6e:f6:bb:df:a9:4d:da:0e:
                    45:78:44:dd:e7:f3:d3:52:38:8b:83:54:f4:c4:39:
                    df:05:b9:d6:3e:ae:ea:1a:99:a4:ce:f0:68:8d:eb:
                    52:d3:71:c5:df:38:04:fb:d8:1a:b4:38:ff:75:67:
                    d0:31:34:e3:c5:60:6e:44:50:5d:ba:41:71:c0:71:
                    ad:51:13:51:4c:a9:b3:a4:66:93:59:6b:5d:07:bb:
                    af:c0:20:ca:8f:19:62:da:5c:f4:2d:ff:dc:14:d2:
                    e7:d4:81
                Exponent: 65537 (0x10001)
        X509v3 extensions:
            X509v3 Basic Constraints: 
                CA:FALSE
            Netscape Comment: 
                Easy-RSA Generated Certificate
            X509v3 Subject Key Identifier: 
                26:8C:03:49:9B:6E:06:B9:1F:F3:49:0E:3E:49:16:FD:E1:57:2C:B1
            X509v3 Authority Key Identifier: 
                keyid:EF:38:8D:14:50:58:A7:5B:4D:9C:17:72:FC:DF:B9:AC:A7:51:B0:10
                DirName:/C=US/ST=CA/L=SanFrancisco/O=Pixglo, Inc./OU=VPN-CIE/CN=tunnel.pixglo.com/name=Bala Chandrasekaran/emailAddress=bala@pixglo.com
                serial:A6:DB:C6:83:80:E6:A0:79

            X509v3 Extended Key Usage: 
                TLS Web Client Authentication
            X509v3 Key Usage: 
                Digital Signature
    Signature Algorithm: sha1WithRSAEncryption
         2a:76:d8:96:97:74:e6:b9:5a:1c:bd:d3:f6:56:48:d1:c6:06:
         eb:89:fa:9d:34:4c:7f:b9:28:b8:cc:db:81:d2:46:b3:d3:bc:
         83:cd:0f:68:5d:c5:e2:1b:7f:1a:1f:c3:c3:3c:2b:e5:b9:0c:
         d5:27:37:e9:0d:9f:da:42:53:60:7e:3d:b6:d5:93:86:5d:6c:
         59:d2:45:68:c9:ed:64:44:eb:94:11:cb:a2:d3:ad:b8:b6:2b:
         c6:8b:20:b8:83:b3:93:5e:ad:53:05:51:00:b5:1c:b8:08:1d:
         a5:43:76:3b:f2:a2:66:bc:f8:72:7f:70:f4:26:2a:fe:ea:97:
         67:59:ef:fc:ca:44:02:d7:fa:8e:4e:ef:ba:77:01:32:db:d7:
         38:7e:e0:f8:85:46:7d:79:02:06:99:10:2b:b1:ac:d2:c7:27:
         8f:ab:e9:8b:91:74:a8:72:56:7d:e0:7e:8d:c1:b5:4b:8a:da:
         0c:6b:1a:5f:59:3e:e5:7a:9f:8d:60:0d:7a:00:d8:c0:ac:97:
         33:b8:d5:e5:f6:a4:dd:06:b0:c0:06:c4:7a:9b:55:86:d9:e8:
         e1:65:b9:9a:69:4d:e7:7e:b1:f4:71:82:fe:73:09:e8:69:74:
         68:49:84:c7:96:41:cf:f7:ab:4a:87:41:ce:e8:f9:8d:da:7c:
         a8:04:ab:d6:ec:c4:fc:ff:50:f8:b3:8b:21:6c:af:71:ff:42:
         5d:fe:31:7b:6c:4b:db:24:77:6b:d7:40:81:3f:35:c7:da:9c:
         21:2e:38:cd:3f:bb:a6:6d:f6:7f:f7:73:30:1b:20:84:0d:bf:
         1c:4a:4c:fb:28:2e:22:af:92:e1:59:de:a4:84:6e:3c:49:7f:
         9a:73:22:99:ef:25:74:3b:c5:d7:51:22:c0:48:b4:64:65:ab:
         aa:3c:f7:c3:1a:e6:5c:1c:ac:0d:b4:90:df:0f:b8:a6:4e:90:
         b3:24:49:53:1f:2d:26:41:45:05:c6:9c:1b:fd:9c:4a:95:33:
         91:b4:de:ba:60:78:59:b9:42:f3:97:1e:ec:0a:5b:db:2c:3e:
         eb:f0:44:ec:4c:31:30:53:8b:54:19:18:ff:53:d3:4e:5f:20:
         3d:42:80:b6:64:02:4c:42:f8:58:db:8a:f4:13:8a:c6:2c:db:
         79:49:7e:a2:9e:f9:d5:13:17:b3:ea:4b:fb:69:50:9d:c4:59:
         79:41:bd:62:b4:28:1b:c6:a2:ff:b4:8a:41:82:44:f4:82:da:
         f9:5f:c0:bf:ae:75:25:e2:9b:e7:5b:fe:65:97:83:f9:3a:1b:
         53:a1:ef:31:1d:dd:30:b6:40:9f:c6:33:f3:e9:bb:97:7f:c7:
         fe:9a:23:40:2e:76:9a:26
-----BEGIN CERTIFICATE-----
MIIHSDCCBTCgAwIBAgICA5swDQYJKoZIhvcNAQEFBQAwgbQxCzAJBgNVBAYTAlVT
MQswCQYDVQQIEwJDQTEVMBMGA1UEBxMMU2FuRnJhbmNpc2NvMRUwEwYDVQQKEwxQ
aXhnbG8sIEluYy4xEDAOBgNVBAsTB1ZQTi1DSUUxGjAYBgNVBAMTEXR1bm5lbC5w
aXhnbG8uY29tMRwwGgYDVQQpExNCYWxhIENoYW5kcmFzZWthcmFuMR4wHAYJKoZI
hvcNAQkBFg9iYWxhQHBpeGdsby5jb20wHhcNMTgwMjE0MDY0ODExWhcNMjgwMjEy
MDY0ODExWjCBqTELMAkGA1UEBhMCVVMxCzAJBgNVBAgTAkNBMRUwEwYDVQQHEwxT
YW5GcmFuY2lzY28xFTATBgNVBAoTDFBpeGdsbywgSW5jLjEQMA4GA1UECxMHVlBO
LUNJRTEPMA0GA1UEAxMGY2llOTIyMRwwGgYDVQQpExNCYWxhIENoYW5kcmFzZWth
cmFuMR4wHAYJKoZIhvcNAQkBFg9iYWxhQHBpeGdsby5jb20wggIiMA0GCSqGSIb3
DQEBAQUAA4ICDwAwggIKAoICAQDYeWJEbcn397QDF3IlprXkwKBqU/AnO/OPolX5
mrlWv00+FszsfhjKG6BZS6/MeJGqnkfQjtEmRjUZt03A/yo7l9OJRYgxq7Ie5b9d
GSAfBhDSmOVYWJc/iI9Dzyz2M89pDbXDaZ7cg74ZxuN8OQB0+SXOwu1KVgApBVhy
pF9hrzDUi30WIMOTGFOey6bsKnaJ0W0KCpaMSDziT2CnGPaefyF2gC5oWs6NsHg1
kZFZJq6bqacnDzzg9fnhOzWaioXXwt02Gso8kt9goTKy3TtE9uuKOT304pAEnLj5
rC8V5fA49NFNJ+YJxnT+crgZhePiQ0M3uo7J73k8dHLdiWqQw2fY9+Uq4JlV7QN3
tqwdXzZxoesZXQFPOCD6pYy8RlhYtLKeuv9hb9MEQmwgMKQ/QSiErjn1X6IoaV3X
siG4bI0nn9BRZ+pY/9TapHTMbWa5k6xZET0hhQdbTqRTmiXKv7Z5PCvtDtPW21Iv
tdKaoZhiC4a+lEyK2u0/tXqgv0K+VTAqmE6/i6hV+sxiVjWVJzNQzL9BuazT9sBu
9rvfqU3aDkV4RN3n89NSOIuDVPTEOd8FudY+ruoamaTO8GiN61LTccXfOAT72Bq0
OP91Z9AxNOPFYG5EUF26QXHAca1RE1FMqbOkZpNZa10Hu6/AIMqPGWLaXPQt/9wU
0ufUgQIDAQABo4IBazCCAWcwCQYDVR0TBAIwADAtBglghkgBhvhCAQ0EIBYeRWFz
eS1SU0EgR2VuZXJhdGVkIENlcnRpZmljYXRlMB0GA1UdDgQWBBQmjANJm24GuR/z
SQ4+SRb94VcssTCB6QYDVR0jBIHhMIHegBTvOI0UUFinW02cF3L837msp1GwEKGB
uqSBtzCBtDELMAkGA1UEBhMCVVMxCzAJBgNVBAgTAkNBMRUwEwYDVQQHEwxTYW5G
cmFuY2lzY28xFTATBgNVBAoTDFBpeGdsbywgSW5jLjEQMA4GA1UECxMHVlBOLUNJ
RTEaMBgGA1UEAxMRdHVubmVsLnBpeGdsby5jb20xHDAaBgNVBCkTE0JhbGEgQ2hh
bmRyYXNla2FyYW4xHjAcBgkqhkiG9w0BCQEWD2JhbGFAcGl4Z2xvLmNvbYIJAKbb
xoOA5qB5MBMGA1UdJQQMMAoGCCsGAQUFBwMCMAsGA1UdDwQEAwIHgDANBgkqhkiG
9w0BAQUFAAOCAgEAKnbYlpd05rlaHL3T9lZI0cYG64n6nTRMf7kouMzbgdJGs9O8
g80PaF3F4ht/Gh/Dwzwr5bkM1Sc36Q2f2kJTYH49ttWThl1sWdJFaMntZETrlBHL
otOtuLYrxosguIOzk16tUwVRALUcuAgdpUN2O/KiZrz4cn9w9CYq/uqXZ1nv/MpE
Atf6jk7vuncBMtvXOH7g+IVGfXkCBpkQK7Gs0scnj6vpi5F0qHJWfeB+jcG1S4ra
DGsaX1k+5XqfjWANegDYwKyXM7jV5fak3QawwAbEeptVhtno4WW5mmlN536x9HGC
/nMJ6Gl0aEmEx5ZBz/erSodBzuj5jdp8qASr1uzE/P9Q+LOLIWyvcf9CXf4xe2xL
2yR3a9dAgT81x9qcIS44zT+7pm32f/dzMBsghA2/HEpM+yguIq+S4VnepIRuPEl/
mnMime8ldDvF11EiwEi0ZGWrqjz3wxrmXBysDbSQ3w+4pk6QsyRJUx8tJkFFBcac
G/2cSpUzkbTeumB4WblC85ce7Apb2yw+6/BE7EwxMFOLVBkY/1PTTl8gPUKAtmQC
TEL4WNuK9BOKxizbeUl+op751RMXs+pL+2lQncRZeUG9YrQoG8ai/7SKQYJE9ILa
+V/Av651JeKb51v+ZZeD+TobU6HvMR3dMLZAn8Yz8+m7l3/H/pojQC52miY=
-----END CERTIFICATE-----
