Certificate:
    Data:
        Version: 3 (0x2)
        Serial Number: 924 (0x39c)
    Signature Algorithm: sha1WithRSAEncryption
        Issuer: C=US, ST=CA, L=SanFrancisco, O=Pixglo, Inc., OU=VPN-CIE, CN=tunnel.pixglo.com/name=Bala Chandrasekaran/emailAddress=bala@pixglo.com
        Validity
            Not Before: Feb 14 06:48:13 2018 GMT
            Not After : Feb 12 06:48:13 2028 GMT
        Subject: C=US, ST=CA, L=SanFrancisco, O=Pixglo, Inc., OU=VPN-CIE, CN=cie923/name=Bala Chandrasekaran/emailAddress=bala@pixglo.com
        Subject Public Key Info:
            Public Key Algorithm: rsaEncryption
                Public-Key: (4096 bit)
                Modulus:
                    00:9b:03:4a:0e:a1:39:e2:cc:e6:a4:2f:4d:eb:c9:
                    f8:4d:cb:64:56:80:86:a5:9e:88:2f:c1:a1:4f:28:
                    15:11:70:ae:d7:76:b4:d8:54:39:30:f9:43:5e:62:
                    47:c4:f5:af:36:01:26:9d:65:b6:00:b0:48:a9:f1:
                    1c:12:be:90:f7:1a:de:b2:02:11:81:d2:8b:4c:ef:
                    48:c9:d5:16:63:0d:4e:b9:db:ce:d5:6c:9b:1c:9a:
                    d1:b2:ff:ce:b1:ab:23:e2:32:50:10:31:2a:b7:81:
                    8b:e5:8d:ac:c2:e7:7a:42:33:b8:a3:21:75:b1:7a:
                    33:ec:5f:df:e8:9a:64:81:26:2a:77:04:8b:13:34:
                    07:dc:f4:7a:11:61:ae:e7:54:46:7f:15:9a:23:cd:
                    bf:d2:5a:3d:ba:1e:ed:6b:e7:c7:38:23:a5:f0:d3:
                    36:7e:6f:1a:2a:0b:08:d4:61:31:02:47:ca:34:20:
                    8f:d6:83:aa:13:b1:f2:47:27:f7:e6:aa:1b:08:a9:
                    ec:67:b2:2e:8c:18:7e:f5:79:0d:67:e1:35:3d:5b:
                    63:22:e8:97:ca:d4:17:84:2b:c5:fc:26:8e:cb:c2:
                    b8:c3:dc:dd:c7:44:ea:2b:73:0d:06:b7:00:8e:3b:
                    ac:2e:d7:77:c5:65:b4:7e:48:86:8f:90:1d:84:25:
                    bc:0f:80:b2:78:82:85:a2:3e:eb:23:1e:75:6f:5f:
                    41:b2:8b:9c:5a:56:70:8f:61:bb:b2:11:8f:e1:df:
                    d4:8c:33:70:78:d0:09:5a:02:5f:84:44:d7:dc:06:
                    f7:80:9e:f1:35:74:dc:1f:96:db:fb:54:00:10:d9:
                    69:0a:33:c1:f2:17:88:a5:68:d3:8c:59:99:2a:5c:
                    d1:1e:ab:7a:23:34:74:fc:1d:70:d2:37:2d:5b:bd:
                    e6:a7:34:21:a8:a8:a9:f1:e4:2c:a6:d3:16:53:f7:
                    b0:2b:8a:87:7e:b5:37:8c:d3:29:70:37:4b:37:d8:
                    30:de:e1:32:d2:c4:6b:af:49:92:e1:f0:0e:e1:c0:
                    24:86:cd:d8:74:de:7d:c9:99:0f:a3:ed:21:01:64:
                    70:a7:fc:28:1d:34:26:36:8c:ea:74:6f:46:27:72:
                    6a:ee:df:9b:1e:d4:33:45:51:8c:07:f7:e0:ea:24:
                    7d:00:05:6f:17:97:e2:d9:ad:0d:6f:76:97:dd:2c:
                    b7:c5:ef:62:a2:04:04:ea:30:dc:b6:2d:56:1c:9d:
                    34:b4:a2:db:bc:0f:c3:15:95:fa:06:95:c7:61:a5:
                    d0:57:b0:7d:fb:c6:c4:10:90:db:2a:d4:bc:0f:83:
                    93:85:d4:95:2a:d2:2b:ab:f9:ab:44:d4:37:9c:4d:
                    03:f0:fb
                Exponent: 65537 (0x10001)
        X509v3 extensions:
            X509v3 Basic Constraints: 
                CA:FALSE
            Netscape Comment: 
                Easy-RSA Generated Certificate
            X509v3 Subject Key Identifier: 
                5B:B4:81:F2:36:04:36:BA:F7:3E:90:EA:8C:75:00:6C:34:CE:75:85
            X509v3 Authority Key Identifier: 
                keyid:EF:38:8D:14:50:58:A7:5B:4D:9C:17:72:FC:DF:B9:AC:A7:51:B0:10
                DirName:/C=US/ST=CA/L=SanFrancisco/O=Pixglo, Inc./OU=VPN-CIE/CN=tunnel.pixglo.com/name=Bala Chandrasekaran/emailAddress=bala@pixglo.com
                serial:A6:DB:C6:83:80:E6:A0:79

            X509v3 Extended Key Usage: 
                TLS Web Client Authentication
            X509v3 Key Usage: 
                Digital Signature
    Signature Algorithm: sha1WithRSAEncryption
         00:5a:86:3b:04:20:6c:3a:fd:51:3d:e8:3f:15:60:3e:55:1c:
         4c:7a:d0:b2:ee:6d:a5:b3:88:e1:09:9d:73:e0:17:d4:c0:ba:
         96:41:f2:59:3e:23:53:35:8f:9f:0a:63:cc:bc:54:cb:9c:e6:
         3e:5e:68:55:a1:43:c3:b1:99:01:b0:0c:0c:19:c7:85:84:bf:
         54:70:7f:7c:56:92:1c:8c:c1:16:b1:84:54:78:ed:a5:fd:fc:
         75:7a:1a:fe:97:28:fe:cc:c0:93:62:b7:da:fb:f8:0a:73:f6:
         93:9f:68:e2:9e:a7:eb:51:7f:99:a2:71:82:c3:f0:de:89:16:
         cc:fd:44:71:ef:84:40:1c:a6:d8:f8:b0:f1:01:43:9f:6d:f1:
         67:df:f1:d7:fa:85:e7:cb:04:eb:06:c3:57:e8:18:ff:af:2b:
         f0:d8:75:48:db:70:c4:ea:50:2d:fe:9c:19:0a:58:f2:e4:e1:
         79:02:d4:3d:e0:ee:e2:75:62:0f:bd:fd:4f:50:e4:bf:23:92:
         e8:e1:0d:80:68:db:89:d6:10:8f:a9:7b:dc:c7:7d:84:b7:b7:
         ca:28:2a:06:87:c9:9b:3f:06:98:dd:df:25:c1:e1:07:fb:73:
         d8:7d:77:77:9a:2a:4c:46:3b:07:9c:4a:ee:10:3c:3f:f7:92:
         46:76:93:a9:d9:49:01:3e:5c:9c:2d:e7:bc:b3:a6:a2:5a:33:
         f2:8c:c0:4f:1a:66:c4:4f:3e:5b:c2:fb:60:db:ae:24:a0:94:
         ab:dd:41:fa:5f:d4:b4:cf:e2:04:ea:12:54:ff:ba:a4:9e:38:
         cd:95:5e:cb:54:b5:b1:f9:90:63:aa:51:91:44:cb:fd:48:9b:
         9b:95:e9:1a:f8:ce:76:1a:74:0f:eb:5f:92:e8:64:2a:9a:91:
         69:70:76:c5:ba:a0:f7:d8:1e:d2:89:4f:e2:33:76:db:64:14:
         4a:d0:3f:02:83:98:cf:36:c5:7c:fe:99:56:80:76:e9:df:af:
         ca:d7:9c:4f:7e:95:33:08:0d:10:c4:bb:8a:3e:ca:de:a2:8d:
         7c:88:cb:2e:d7:d8:03:76:a2:e4:d1:77:19:aa:e0:57:a6:f8:
         3e:24:31:4c:72:6a:c7:41:16:6f:c3:5e:71:01:26:d8:72:7f:
         49:17:bf:ff:8a:9c:72:ca:4a:64:5c:7e:13:b6:a8:99:4c:c9:
         1e:6f:a3:3e:5b:a1:4c:12:22:eb:7c:32:02:c5:3d:23:01:33:
         29:12:15:b2:18:85:f6:11:40:66:b7:e5:2f:45:9e:78:90:38:
         1e:cb:fd:fe:fc:e2:7b:c1:46:4e:36:0d:59:7a:b6:37:8c:ff:
         89:1a:d3:9d:8c:6f:42:ec
-----BEGIN CERTIFICATE-----
MIIHSDCCBTCgAwIBAgICA5wwDQYJKoZIhvcNAQEFBQAwgbQxCzAJBgNVBAYTAlVT
MQswCQYDVQQIEwJDQTEVMBMGA1UEBxMMU2FuRnJhbmNpc2NvMRUwEwYDVQQKEwxQ
aXhnbG8sIEluYy4xEDAOBgNVBAsTB1ZQTi1DSUUxGjAYBgNVBAMTEXR1bm5lbC5w
aXhnbG8uY29tMRwwGgYDVQQpExNCYWxhIENoYW5kcmFzZWthcmFuMR4wHAYJKoZI
hvcNAQkBFg9iYWxhQHBpeGdsby5jb20wHhcNMTgwMjE0MDY0ODEzWhcNMjgwMjEy
MDY0ODEzWjCBqTELMAkGA1UEBhMCVVMxCzAJBgNVBAgTAkNBMRUwEwYDVQQHEwxT
YW5GcmFuY2lzY28xFTATBgNVBAoTDFBpeGdsbywgSW5jLjEQMA4GA1UECxMHVlBO
LUNJRTEPMA0GA1UEAxMGY2llOTIzMRwwGgYDVQQpExNCYWxhIENoYW5kcmFzZWth
cmFuMR4wHAYJKoZIhvcNAQkBFg9iYWxhQHBpeGdsby5jb20wggIiMA0GCSqGSIb3
DQEBAQUAA4ICDwAwggIKAoICAQCbA0oOoTnizOakL03ryfhNy2RWgIalnogvwaFP
KBURcK7XdrTYVDkw+UNeYkfE9a82ASadZbYAsEip8RwSvpD3Gt6yAhGB0otM70jJ
1RZjDU65287VbJscmtGy/86xqyPiMlAQMSq3gYvljazC53pCM7ijIXWxejPsX9/o
mmSBJip3BIsTNAfc9HoRYa7nVEZ/FZojzb/SWj26Hu1r58c4I6Xw0zZ+bxoqCwjU
YTECR8o0II/Wg6oTsfJHJ/fmqhsIqexnsi6MGH71eQ1n4TU9W2Mi6JfK1BeEK8X8
Jo7LwrjD3N3HROorcw0GtwCOO6wu13fFZbR+SIaPkB2EJbwPgLJ4goWiPusjHnVv
X0Gyi5xaVnCPYbuyEY/h39SMM3B40AlaAl+ERNfcBveAnvE1dNwfltv7VAAQ2WkK
M8HyF4ilaNOMWZkqXNEeq3ojNHT8HXDSNy1bveanNCGoqKnx5Cym0xZT97Ariod+
tTeM0ylwN0s32DDe4TLSxGuvSZLh8A7hwCSGzdh03n3JmQ+j7SEBZHCn/CgdNCY2
jOp0b0Yncmru35se1DNFUYwH9+DqJH0ABW8Xl+LZrQ1vdpfdLLfF72KiBATqMNy2
LVYcnTS0otu8D8MVlfoGlcdhpdBXsH37xsQQkNsq1LwPg5OF1JUq0iur+atE1Dec
TQPw+wIDAQABo4IBazCCAWcwCQYDVR0TBAIwADAtBglghkgBhvhCAQ0EIBYeRWFz
eS1SU0EgR2VuZXJhdGVkIENlcnRpZmljYXRlMB0GA1UdDgQWBBRbtIHyNgQ2uvc+
kOqMdQBsNM51hTCB6QYDVR0jBIHhMIHegBTvOI0UUFinW02cF3L837msp1GwEKGB
uqSBtzCBtDELMAkGA1UEBhMCVVMxCzAJBgNVBAgTAkNBMRUwEwYDVQQHEwxTYW5G
cmFuY2lzY28xFTATBgNVBAoTDFBpeGdsbywgSW5jLjEQMA4GA1UECxMHVlBOLUNJ
RTEaMBgGA1UEAxMRdHVubmVsLnBpeGdsby5jb20xHDAaBgNVBCkTE0JhbGEgQ2hh
bmRyYXNla2FyYW4xHjAcBgkqhkiG9w0BCQEWD2JhbGFAcGl4Z2xvLmNvbYIJAKbb
xoOA5qB5MBMGA1UdJQQMMAoGCCsGAQUFBwMCMAsGA1UdDwQEAwIHgDANBgkqhkiG
9w0BAQUFAAOCAgEAAFqGOwQgbDr9UT3oPxVgPlUcTHrQsu5tpbOI4Qmdc+AX1MC6
lkHyWT4jUzWPnwpjzLxUy5zmPl5oVaFDw7GZAbAMDBnHhYS/VHB/fFaSHIzBFrGE
VHjtpf38dXoa/pco/szAk2K32vv4CnP2k59o4p6n61F/maJxgsPw3okWzP1Ece+E
QBym2Piw8QFDn23xZ9/x1/qF58sE6wbDV+gY/68r8Nh1SNtwxOpQLf6cGQpY8uTh
eQLUPeDu4nViD739T1DkvyOS6OENgGjbidYQj6l73Md9hLe3yigqBofJmz8GmN3f
JcHhB/tz2H13d5oqTEY7B5xK7hA8P/eSRnaTqdlJAT5cnC3nvLOmoloz8ozATxpm
xE8+W8L7YNuuJKCUq91B+l/UtM/iBOoSVP+6pJ44zZVey1S1sfmQY6pRkUTL/Uib
m5XpGvjOdhp0D+tfkuhkKpqRaXB2xbqg99ge0olP4jN222QUStA/AoOYzzbFfP6Z
VoB26d+vytecT36VMwgNEMS7ij7K3qKNfIjLLtfYA3ai5NF3GargV6b4PiQxTHJq
x0EWb8NecQEm2HJ/SRe//4qccspKZFx+E7aomUzJHm+jPluhTBIi63wyAsU9IwEz
KRIVshiF9hFAZrflL0WeeJA4Hsv9/vzie8FGTjYNWXq2N4z/iRrTnYxvQuw=
-----END CERTIFICATE-----
