Certificate:
    Data:
        Version: 3 (0x2)
        Serial Number: 927 (0x39f)
    Signature Algorithm: sha1WithRSAEncryption
        Issuer: C=US, ST=CA, L=SanFrancisco, O=Pixglo, Inc., OU=VPN-CIE, CN=tunnel.pixglo.com/name=Bala Chandrasekaran/emailAddress=bala@pixglo.com
        Validity
            Not Before: Feb 14 06:48:19 2018 GMT
            Not After : Feb 12 06:48:19 2028 GMT
        Subject: C=US, ST=CA, L=SanFrancisco, O=Pixglo, Inc., OU=VPN-CIE, CN=cie926/name=Bala Chandrasekaran/emailAddress=bala@pixglo.com
        Subject Public Key Info:
            Public Key Algorithm: rsaEncryption
                Public-Key: (4096 bit)
                Modulus:
                    00:9c:b3:47:54:0e:a0:d8:e5:ef:37:6f:13:f5:d3:
                    ee:af:76:cf:22:f9:7b:b5:ae:02:3e:ee:14:ec:c3:
                    52:c7:63:b7:ce:2e:d3:ba:3c:84:f4:aa:c7:e3:5b:
                    8d:9f:c2:68:8a:fd:80:cc:2a:a2:c3:72:1d:95:4d:
                    4f:eb:53:b5:05:0c:61:cf:3a:1b:30:f9:41:69:10:
                    0a:49:56:62:29:e1:f0:d7:62:7f:6e:41:35:b2:ef:
                    f0:6e:bb:06:e1:b4:b0:d6:18:19:a3:e8:2c:88:72:
                    d1:ce:9c:c7:4e:a0:a9:ba:10:cc:41:6c:90:8e:8c:
                    1a:97:cf:34:7a:4f:c8:94:40:b7:19:81:ce:d9:0d:
                    0a:f4:21:0b:37:cd:54:17:da:a0:50:74:27:0e:c5:
                    0c:c4:55:b1:1d:da:0a:46:1a:2b:a5:a7:2e:d7:07:
                    28:95:46:7b:06:a6:69:97:ed:48:c4:dc:2b:59:1b:
                    39:12:c8:2f:5e:51:d4:f7:a0:55:82:67:b3:78:8a:
                    2f:78:8d:86:49:0a:db:d6:dc:3e:4a:db:47:90:e8:
                    42:46:a8:2e:aa:d4:d0:64:c1:d4:2b:31:6d:d9:ae:
                    d3:71:b7:a0:d1:0d:97:92:23:bf:c2:51:fb:89:25:
                    20:9a:0c:2c:e6:52:c6:7f:7b:04:4b:c2:f1:d5:4d:
                    b2:66:0e:e7:2c:5d:48:84:b3:1d:89:6f:b4:ad:4e:
                    13:47:5e:7c:0b:fb:8d:a2:91:f0:3c:57:d1:a1:24:
                    8d:a3:80:ec:8f:c6:ba:b8:fc:6d:48:52:01:03:ee:
                    0c:0f:8b:36:54:17:b4:3c:e8:58:97:3c:f7:23:1a:
                    4f:bb:6a:40:3a:c7:02:19:95:5a:23:37:e1:46:d1:
                    cf:6c:c7:43:42:0a:a6:fc:3b:67:f6:dc:58:fc:76:
                    28:1e:a7:71:88:3d:47:27:80:60:4a:29:bb:87:0f:
                    66:38:e2:b0:ca:35:96:2b:f8:d7:fd:c1:a8:6b:87:
                    c5:ef:ac:7e:42:d5:ee:70:95:06:a2:8e:08:1b:80:
                    32:e6:7f:dc:c8:86:28:0c:22:24:37:57:c4:78:d9:
                    99:7e:e4:38:f9:07:d2:82:6d:0d:e3:22:de:1d:96:
                    9b:a9:db:1c:18:1d:1a:62:04:c6:26:aa:f6:ac:24:
                    28:a7:b7:40:86:66:aa:38:d5:be:1a:a3:43:46:fd:
                    40:04:1d:1d:4a:fe:c0:20:c8:32:e2:75:15:9a:6f:
                    a4:c7:c4:2c:9b:2f:31:20:c3:6c:7b:92:09:22:fb:
                    17:20:e5:c4:11:84:50:2e:aa:ed:c4:63:21:7c:ef:
                    13:fc:86:d8:c0:8b:9b:88:ee:37:ff:b5:44:f7:1b:
                    fd:0b:5f
                Exponent: 65537 (0x10001)
        X509v3 extensions:
            X509v3 Basic Constraints: 
                CA:FALSE
            Netscape Comment: 
                Easy-RSA Generated Certificate
            X509v3 Subject Key Identifier: 
                25:93:BF:64:F6:19:A8:72:91:D5:68:53:6C:52:F5:65:EA:2C:15:58
            X509v3 Authority Key Identifier: 
                keyid:EF:38:8D:14:50:58:A7:5B:4D:9C:17:72:FC:DF:B9:AC:A7:51:B0:10
                DirName:/C=US/ST=CA/L=SanFrancisco/O=Pixglo, Inc./OU=VPN-CIE/CN=tunnel.pixglo.com/name=Bala Chandrasekaran/emailAddress=bala@pixglo.com
                serial:A6:DB:C6:83:80:E6:A0:79

            X509v3 Extended Key Usage: 
                TLS Web Client Authentication
            X509v3 Key Usage: 
                Digital Signature
    Signature Algorithm: sha1WithRSAEncryption
         df:a5:20:43:08:1b:1c:50:57:12:1e:a7:02:df:a7:90:e5:57:
         55:1e:ab:a5:a0:42:7d:b6:0a:4e:e6:b5:8c:9b:a1:99:12:a0:
         8a:fc:03:f2:ba:99:f3:ad:13:c9:7f:99:d0:b0:4a:00:89:09:
         7c:b5:23:e2:d1:3f:fa:79:4a:a9:82:53:29:53:e4:ca:2a:35:
         92:d8:e1:96:b7:24:90:d3:98:19:4b:2d:79:8a:86:f7:ee:d6:
         26:63:a2:a2:e6:00:55:35:f6:fd:38:14:07:27:72:3f:59:1d:
         40:f3:ec:95:32:dd:3e:6b:b3:8c:d2:c9:4f:6e:60:8e:a7:10:
         e1:f8:f9:c3:16:34:f4:6b:02:ad:af:25:cd:da:7c:e1:03:d9:
         39:84:3b:58:ef:b8:26:39:7a:89:ea:f7:15:9f:3f:4b:61:ef:
         b2:28:8b:a2:ae:12:06:9d:a2:c6:90:9f:47:e6:ef:7d:7f:ab:
         36:74:63:01:c7:d6:b9:ad:10:a3:f7:57:84:b1:58:f9:3b:5c:
         de:13:88:b8:36:c8:aa:41:75:4b:6e:49:49:e6:18:01:13:fa:
         db:28:58:34:48:d3:11:f1:99:da:fa:1c:a0:08:a5:13:db:03:
         1c:61:63:86:33:8d:c0:a7:83:81:72:e4:69:d1:b8:03:2b:91:
         e9:b0:92:aa:cc:cd:52:aa:d7:fa:ae:52:7a:72:60:94:c1:6a:
         1d:86:8c:e8:7f:e1:14:61:24:8e:c6:60:99:97:5f:06:fb:f9:
         f1:fb:7a:8a:1d:eb:50:dc:f5:6e:35:b9:6a:3b:ec:e3:9c:45:
         42:53:af:93:53:38:00:5b:97:5c:75:ff:d3:8e:fa:b2:20:63:
         02:63:d4:23:b2:31:5e:aa:1c:55:82:9f:80:20:80:14:f3:29:
         42:a1:f9:47:5d:c0:a2:32:19:c9:20:f3:9e:bc:53:c4:ad:9e:
         9f:23:46:90:6e:c4:fe:f0:41:3c:af:e4:83:d3:a2:f7:8e:a4:
         62:9f:c7:e1:6c:37:dd:35:b4:c9:e1:70:01:4d:95:75:64:cc:
         53:27:75:4f:e4:72:48:4d:66:45:16:24:cf:d9:69:29:44:2c:
         0c:75:92:fc:96:93:bd:93:e2:77:47:c8:55:ff:20:a5:4d:98:
         51:32:00:13:45:1c:99:8f:c6:df:d1:e6:e4:77:0b:22:05:b8:
         d1:70:85:77:45:00:b9:65:e1:21:b9:4b:f3:4c:d4:9a:86:c9:
         48:f9:ef:61:a4:34:9e:4e:a9:2b:71:3e:47:16:8a:1c:2f:5a:
         72:27:49:28:74:b4:3e:35:cc:d0:94:f9:32:42:06:63:ac:07:
         64:5b:b6:d4:6a:ce:b8:82
-----BEGIN CERTIFICATE-----
MIIHSDCCBTCgAwIBAgICA58wDQYJKoZIhvcNAQEFBQAwgbQxCzAJBgNVBAYTAlVT
MQswCQYDVQQIEwJDQTEVMBMGA1UEBxMMU2FuRnJhbmNpc2NvMRUwEwYDVQQKEwxQ
aXhnbG8sIEluYy4xEDAOBgNVBAsTB1ZQTi1DSUUxGjAYBgNVBAMTEXR1bm5lbC5w
aXhnbG8uY29tMRwwGgYDVQQpExNCYWxhIENoYW5kcmFzZWthcmFuMR4wHAYJKoZI
hvcNAQkBFg9iYWxhQHBpeGdsby5jb20wHhcNMTgwMjE0MDY0ODE5WhcNMjgwMjEy
MDY0ODE5WjCBqTELMAkGA1UEBhMCVVMxCzAJBgNVBAgTAkNBMRUwEwYDVQQHEwxT
YW5GcmFuY2lzY28xFTATBgNVBAoTDFBpeGdsbywgSW5jLjEQMA4GA1UECxMHVlBO
LUNJRTEPMA0GA1UEAxMGY2llOTI2MRwwGgYDVQQpExNCYWxhIENoYW5kcmFzZWth
cmFuMR4wHAYJKoZIhvcNAQkBFg9iYWxhQHBpeGdsby5jb20wggIiMA0GCSqGSIb3
DQEBAQUAA4ICDwAwggIKAoICAQCcs0dUDqDY5e83bxP10+6vds8i+Xu1rgI+7hTs
w1LHY7fOLtO6PIT0qsfjW42fwmiK/YDMKqLDch2VTU/rU7UFDGHPOhsw+UFpEApJ
VmIp4fDXYn9uQTWy7/BuuwbhtLDWGBmj6CyIctHOnMdOoKm6EMxBbJCOjBqXzzR6
T8iUQLcZgc7ZDQr0IQs3zVQX2qBQdCcOxQzEVbEd2gpGGiulpy7XByiVRnsGpmmX
7UjE3CtZGzkSyC9eUdT3oFWCZ7N4ii94jYZJCtvW3D5K20eQ6EJGqC6q1NBkwdQr
MW3ZrtNxt6DRDZeSI7/CUfuJJSCaDCzmUsZ/ewRLwvHVTbJmDucsXUiEsx2Jb7St
ThNHXnwL+42ikfA8V9GhJI2jgOyPxrq4/G1IUgED7gwPizZUF7Q86FiXPPcjGk+7
akA6xwIZlVojN+FG0c9sx0NCCqb8O2f23Fj8digep3GIPUcngGBKKbuHD2Y44rDK
NZYr+Nf9wahrh8XvrH5C1e5wlQaijggbgDLmf9zIhigMIiQ3V8R42Zl+5Dj5B9KC
bQ3jIt4dlpup2xwYHRpiBMYmqvasJCint0CGZqo41b4ao0NG/UAEHR1K/sAgyDLi
dRWab6THxCybLzEgw2x7kgki+xcg5cQRhFAuqu3EYyF87xP8htjAi5uI7jf/tUT3
G/0LXwIDAQABo4IBazCCAWcwCQYDVR0TBAIwADAtBglghkgBhvhCAQ0EIBYeRWFz
eS1SU0EgR2VuZXJhdGVkIENlcnRpZmljYXRlMB0GA1UdDgQWBBQlk79k9hmocpHV
aFNsUvVl6iwVWDCB6QYDVR0jBIHhMIHegBTvOI0UUFinW02cF3L837msp1GwEKGB
uqSBtzCBtDELMAkGA1UEBhMCVVMxCzAJBgNVBAgTAkNBMRUwEwYDVQQHEwxTYW5G
cmFuY2lzY28xFTATBgNVBAoTDFBpeGdsbywgSW5jLjEQMA4GA1UECxMHVlBOLUNJ
RTEaMBgGA1UEAxMRdHVubmVsLnBpeGdsby5jb20xHDAaBgNVBCkTE0JhbGEgQ2hh
bmRyYXNla2FyYW4xHjAcBgkqhkiG9w0BCQEWD2JhbGFAcGl4Z2xvLmNvbYIJAKbb
xoOA5qB5MBMGA1UdJQQMMAoGCCsGAQUFBwMCMAsGA1UdDwQEAwIHgDANBgkqhkiG
9w0BAQUFAAOCAgEA36UgQwgbHFBXEh6nAt+nkOVXVR6rpaBCfbYKTua1jJuhmRKg
ivwD8rqZ860TyX+Z0LBKAIkJfLUj4tE/+nlKqYJTKVPkyio1ktjhlrckkNOYGUst
eYqG9+7WJmOiouYAVTX2/TgUBydyP1kdQPPslTLdPmuzjNLJT25gjqcQ4fj5wxY0
9GsCra8lzdp84QPZOYQ7WO+4Jjl6ier3FZ8/S2HvsiiLoq4SBp2ixpCfR+bvfX+r
NnRjAcfWua0Qo/dXhLFY+Ttc3hOIuDbIqkF1S25JSeYYARP62yhYNEjTEfGZ2voc
oAilE9sDHGFjhjONwKeDgXLkadG4AyuR6bCSqszNUqrX+q5SenJglMFqHYaM6H/h
FGEkjsZgmZdfBvv58ft6ih3rUNz1bjW5ajvs45xFQlOvk1M4AFuXXHX/0476siBj
AmPUI7IxXqocVYKfgCCAFPMpQqH5R13AojIZySDznrxTxK2enyNGkG7E/vBBPK/k
g9Oi946kYp/H4Ww33TW0yeFwAU2VdWTMUyd1T+RySE1mRRYkz9lpKUQsDHWS/JaT
vZPid0fIVf8gpU2YUTIAE0UcmY/G39Hm5HcLIgW40XCFd0UAuWXhIblL80zUmobJ
SPnvYaQ0nk6pK3E+RxaKHC9acidJKHS0PjXM0JT5MkIGY6wHZFu21GrOuII=
-----END CERTIFICATE-----
