Certificate:
    Data:
        Version: 3 (0x2)
        Serial Number: 928 (0x3a0)
    Signature Algorithm: sha1WithRSAEncryption
        Issuer: C=US, ST=CA, L=SanFrancisco, O=Pixglo, Inc., OU=VPN-CIE, CN=tunnel.pixglo.com/name=Bala Chandrasekaran/emailAddress=bala@pixglo.com
        Validity
            Not Before: Feb 14 06:48:22 2018 GMT
            Not After : Feb 12 06:48:22 2028 GMT
        Subject: C=US, ST=CA, L=SanFrancisco, O=Pixglo, Inc., OU=VPN-CIE, CN=cie927/name=Bala Chandrasekaran/emailAddress=bala@pixglo.com
        Subject Public Key Info:
            Public Key Algorithm: rsaEncryption
                Public-Key: (4096 bit)
                Modulus:
                    00:9b:09:96:27:8b:d9:e4:65:c7:b8:9d:e2:50:aa:
                    eb:38:d2:62:cf:8a:60:d9:a5:23:ae:12:d3:d6:9b:
                    bc:f2:a5:42:20:e5:43:9b:8e:5d:5e:54:63:5d:14:
                    c8:01:2f:f2:9e:81:92:64:39:8a:15:48:66:87:78:
                    26:b1:9f:d9:44:df:16:f9:15:15:42:8f:be:0d:b7:
                    4e:5f:d9:d6:ac:4d:a4:cf:7e:99:57:9d:6a:10:1b:
                    87:9b:ed:79:64:4f:58:1e:f0:6a:0c:c3:0f:c5:47:
                    76:c3:c6:6d:d0:d5:8d:d5:6c:3f:23:9a:95:e7:cb:
                    07:43:40:df:74:23:e5:80:a8:a1:0c:7a:98:ac:21:
                    dd:52:d5:19:b0:5a:e9:63:e2:9c:00:d8:67:71:b7:
                    1f:f2:0a:a4:5f:42:48:3d:e0:24:d3:85:2c:59:b1:
                    50:56:03:66:75:1a:11:1b:a9:07:2b:29:3d:ea:70:
                    dd:5a:e9:e0:20:ac:e6:ce:62:be:cb:d2:5d:2f:74:
                    6f:b4:e8:3e:dd:c0:53:3b:85:9b:21:d4:df:7a:35:
                    cc:18:5a:d5:c9:83:de:c3:6a:ab:c6:3f:89:fe:bd:
                    95:ac:18:65:ab:77:2c:42:aa:ce:52:ee:01:4b:88:
                    e7:e5:4a:a9:4d:b4:38:36:13:8c:89:58:e3:18:ac:
                    8f:2c:ef:a6:ac:5b:ff:94:5b:39:94:5d:d6:71:9e:
                    ce:66:69:ea:c9:9b:2f:4f:0b:80:68:35:28:e7:d1:
                    8c:5b:b8:25:7c:5e:d9:55:40:73:0d:fe:bb:1e:cf:
                    5a:92:50:f2:18:02:d4:82:8b:e0:02:de:79:cb:b4:
                    10:16:c4:c4:71:f8:57:cf:db:ff:22:2a:24:00:bc:
                    bc:c2:16:44:6e:ba:f5:03:cb:4a:e3:af:fa:74:54:
                    aa:3f:e7:43:51:35:2a:d1:df:f3:88:6c:d7:5c:00:
                    65:45:85:71:96:c0:84:2c:ae:64:d3:03:a9:e1:f2:
                    66:53:ce:67:46:b8:10:68:49:78:f6:2c:d2:c5:31:
                    89:e3:b6:26:d3:d4:e6:c3:03:d8:da:e7:3d:8f:03:
                    59:5a:18:90:3c:b0:44:4c:99:89:ca:c4:c2:88:bd:
                    78:42:7c:67:bd:3c:19:3b:f1:e7:31:37:14:f5:83:
                    23:d4:e9:a0:85:88:ff:bc:a9:98:fd:4e:1d:f0:5b:
                    c5:76:ee:03:0d:40:38:f3:96:83:f5:2e:cf:1c:36:
                    c9:97:92:e8:b5:02:20:f4:32:0e:99:d0:c5:0c:71:
                    cd:ec:65:b2:81:68:d3:61:b7:c0:c6:df:d2:3a:e3:
                    72:01:b3:41:8c:0d:80:b4:d8:10:62:4a:bf:48:e6:
                    5a:f1:6d
                Exponent: 65537 (0x10001)
        X509v3 extensions:
            X509v3 Basic Constraints: 
                CA:FALSE
            Netscape Comment: 
                Easy-RSA Generated Certificate
            X509v3 Subject Key Identifier: 
                20:CB:16:10:08:40:C7:A7:DA:D4:4C:34:42:32:00:F1:38:C1:BA:2A
            X509v3 Authority Key Identifier: 
                keyid:EF:38:8D:14:50:58:A7:5B:4D:9C:17:72:FC:DF:B9:AC:A7:51:B0:10
                DirName:/C=US/ST=CA/L=SanFrancisco/O=Pixglo, Inc./OU=VPN-CIE/CN=tunnel.pixglo.com/name=Bala Chandrasekaran/emailAddress=bala@pixglo.com
                serial:A6:DB:C6:83:80:E6:A0:79

            X509v3 Extended Key Usage: 
                TLS Web Client Authentication
            X509v3 Key Usage: 
                Digital Signature
    Signature Algorithm: sha1WithRSAEncryption
         a8:cb:58:cd:be:d2:43:18:95:d6:fd:fa:78:e9:5f:b1:01:3e:
         7b:a9:b8:3a:55:e0:2c:cd:31:78:2e:bc:fa:9e:cb:2c:5c:9c:
         87:22:d5:59:5d:a6:5c:b6:be:28:ea:ed:07:9e:3a:6d:bb:50:
         6e:e7:b6:99:f4:6e:79:95:c2:ac:09:9e:d5:6f:ae:dc:06:69:
         27:92:9d:29:28:f3:a4:ef:87:e5:f3:8c:cf:a6:86:08:0d:9c:
         95:67:9c:93:67:05:2e:df:23:ba:10:ec:ab:28:e2:60:b6:c8:
         84:c8:25:ff:52:25:ef:40:d8:60:9a:97:7a:4c:f7:5e:2f:69:
         26:04:c4:4d:73:58:a3:e7:3b:3b:cb:c8:2b:cb:f4:23:35:d3:
         5d:06:54:3b:fc:11:d8:83:76:1b:59:08:6f:97:22:81:71:6f:
         09:24:60:05:90:07:38:0a:45:85:c2:7a:96:18:13:22:33:36:
         62:90:74:49:54:83:68:53:b8:75:79:88:b7:67:03:e0:e9:e0:
         6b:f0:87:aa:98:09:19:33:9d:48:06:55:26:c3:e4:d8:42:88:
         98:59:7a:b4:ea:0c:27:11:f0:b6:81:1b:fb:a5:30:97:83:4a:
         62:34:c0:75:5a:e0:a2:48:6f:5a:d0:e4:51:93:fc:23:92:3a:
         74:9a:52:c4:d1:9c:ed:0e:6b:02:f5:ae:08:84:78:f1:97:d2:
         4b:74:c9:b2:e1:1f:c9:19:1d:9e:8b:7e:71:ca:2a:1d:05:0a:
         0a:37:8a:5d:54:cd:46:a5:40:b5:55:e4:0d:c7:e8:51:8e:a3:
         59:54:0e:12:e8:fb:a0:b2:a6:6d:e9:9b:2e:ff:16:ae:f3:2d:
         58:7d:99:c4:4e:7f:f9:35:bc:0e:a7:da:f2:97:73:36:fd:c4:
         6f:bb:e0:47:3d:0c:08:26:4a:d8:0c:99:15:68:3b:65:38:51:
         b1:d4:64:ef:fd:f2:cf:75:2f:07:f2:44:9f:24:5d:2d:c3:68:
         a4:7c:b3:0b:a8:8a:84:b8:38:36:28:81:e5:bb:aa:81:c9:cc:
         38:6b:aa:15:48:0e:2a:f5:b2:84:5a:ca:b3:1a:d8:ec:fa:c5:
         72:eb:8e:4e:71:b5:cf:d3:0c:f0:96:4f:48:9b:6c:28:d0:8d:
         5d:9d:f4:04:b2:a6:9c:a5:e1:14:9b:a9:66:b9:85:52:40:10:
         5a:78:d7:bd:92:c7:90:be:be:c7:58:4e:96:b7:33:f3:ee:23:
         99:c9:34:b1:61:35:9d:c0:f3:d1:a2:11:87:d1:1f:74:2b:fc:
         a1:92:18:06:29:72:e8:df:8a:a6:9d:bf:67:82:b6:39:3e:bc:
         33:90:9e:ca:fe:7e:99:e3
-----BEGIN CERTIFICATE-----
MIIHSDCCBTCgAwIBAgICA6AwDQYJKoZIhvcNAQEFBQAwgbQxCzAJBgNVBAYTAlVT
MQswCQYDVQQIEwJDQTEVMBMGA1UEBxMMU2FuRnJhbmNpc2NvMRUwEwYDVQQKEwxQ
aXhnbG8sIEluYy4xEDAOBgNVBAsTB1ZQTi1DSUUxGjAYBgNVBAMTEXR1bm5lbC5w
aXhnbG8uY29tMRwwGgYDVQQpExNCYWxhIENoYW5kcmFzZWthcmFuMR4wHAYJKoZI
hvcNAQkBFg9iYWxhQHBpeGdsby5jb20wHhcNMTgwMjE0MDY0ODIyWhcNMjgwMjEy
MDY0ODIyWjCBqTELMAkGA1UEBhMCVVMxCzAJBgNVBAgTAkNBMRUwEwYDVQQHEwxT
YW5GcmFuY2lzY28xFTATBgNVBAoTDFBpeGdsbywgSW5jLjEQMA4GA1UECxMHVlBO
LUNJRTEPMA0GA1UEAxMGY2llOTI3MRwwGgYDVQQpExNCYWxhIENoYW5kcmFzZWth
cmFuMR4wHAYJKoZIhvcNAQkBFg9iYWxhQHBpeGdsby5jb20wggIiMA0GCSqGSIb3
DQEBAQUAA4ICDwAwggIKAoICAQCbCZYni9nkZce4neJQqus40mLPimDZpSOuEtPW
m7zypUIg5UObjl1eVGNdFMgBL/KegZJkOYoVSGaHeCaxn9lE3xb5FRVCj74Nt05f
2dasTaTPfplXnWoQG4eb7XlkT1ge8GoMww/FR3bDxm3Q1Y3VbD8jmpXnywdDQN90
I+WAqKEMepisId1S1RmwWulj4pwA2Gdxtx/yCqRfQkg94CTThSxZsVBWA2Z1GhEb
qQcrKT3qcN1a6eAgrObOYr7L0l0vdG+06D7dwFM7hZsh1N96NcwYWtXJg97DaqvG
P4n+vZWsGGWrdyxCqs5S7gFLiOflSqlNtDg2E4yJWOMYrI8s76asW/+UWzmUXdZx
ns5maerJmy9PC4BoNSjn0YxbuCV8XtlVQHMN/rsez1qSUPIYAtSCi+AC3nnLtBAW
xMRx+FfP2/8iKiQAvLzCFkRuuvUDy0rjr/p0VKo/50NRNSrR3/OIbNdcAGVFhXGW
wIQsrmTTA6nh8mZTzmdGuBBoSXj2LNLFMYnjtibT1ObDA9ja5z2PA1laGJA8sERM
mYnKxMKIvXhCfGe9PBk78ecxNxT1gyPU6aCFiP+8qZj9Th3wW8V27gMNQDjzloP1
Ls8cNsmXkui1AiD0Mg6Z0MUMcc3sZbKBaNNht8DG39I643IBs0GMDYC02BBiSr9I
5lrxbQIDAQABo4IBazCCAWcwCQYDVR0TBAIwADAtBglghkgBhvhCAQ0EIBYeRWFz
eS1SU0EgR2VuZXJhdGVkIENlcnRpZmljYXRlMB0GA1UdDgQWBBQgyxYQCEDHp9rU
TDRCMgDxOMG6KjCB6QYDVR0jBIHhMIHegBTvOI0UUFinW02cF3L837msp1GwEKGB
uqSBtzCBtDELMAkGA1UEBhMCVVMxCzAJBgNVBAgTAkNBMRUwEwYDVQQHEwxTYW5G
cmFuY2lzY28xFTATBgNVBAoTDFBpeGdsbywgSW5jLjEQMA4GA1UECxMHVlBOLUNJ
RTEaMBgGA1UEAxMRdHVubmVsLnBpeGdsby5jb20xHDAaBgNVBCkTE0JhbGEgQ2hh
bmRyYXNla2FyYW4xHjAcBgkqhkiG9w0BCQEWD2JhbGFAcGl4Z2xvLmNvbYIJAKbb
xoOA5qB5MBMGA1UdJQQMMAoGCCsGAQUFBwMCMAsGA1UdDwQEAwIHgDANBgkqhkiG
9w0BAQUFAAOCAgEAqMtYzb7SQxiV1v36eOlfsQE+e6m4OlXgLM0xeC68+p7LLFyc
hyLVWV2mXLa+KOrtB546bbtQbue2mfRueZXCrAme1W+u3AZpJ5KdKSjzpO+H5fOM
z6aGCA2clWeck2cFLt8juhDsqyjiYLbIhMgl/1Il70DYYJqXekz3Xi9pJgTETXNY
o+c7O8vIK8v0IzXTXQZUO/wR2IN2G1kIb5cigXFvCSRgBZAHOApFhcJ6lhgTIjM2
YpB0SVSDaFO4dXmIt2cD4Onga/CHqpgJGTOdSAZVJsPk2EKImFl6tOoMJxHwtoEb
+6Uwl4NKYjTAdVrgokhvWtDkUZP8I5I6dJpSxNGc7Q5rAvWuCIR48ZfSS3TJsuEf
yRkdnot+ccoqHQUKCjeKXVTNRqVAtVXkDcfoUY6jWVQOEuj7oLKmbembLv8WrvMt
WH2ZxE5/+TW8Dqfa8pdzNv3Eb7vgRz0MCCZK2AyZFWg7ZThRsdRk7/3yz3UvB/JE
nyRdLcNopHyzC6iKhLg4NiiB5buqgcnMOGuqFUgOKvWyhFrKsxrY7PrFcuuOTnG1
z9MM8JZPSJtsKNCNXZ30BLKmnKXhFJupZrmFUkAQWnjXvZLHkL6+x1hOlrcz8+4j
mck0sWE1ncDz0aIRh9EfdCv8oZIYBily6N+Kpp2/Z4K2OT68M5Ceyv5+meM=
-----END CERTIFICATE-----
