Certificate:
    Data:
        Version: 3 (0x2)
        Serial Number: 930 (0x3a2)
    Signature Algorithm: sha1WithRSAEncryption
        Issuer: C=US, ST=CA, L=SanFrancisco, O=Pixglo, Inc., OU=VPN-CIE, CN=tunnel.pixglo.com/name=Bala Chandrasekaran/emailAddress=bala@pixglo.com
        Validity
            Not Before: Feb 14 06:48:24 2018 GMT
            Not After : Feb 12 06:48:24 2028 GMT
        Subject: C=US, ST=CA, L=SanFrancisco, O=Pixglo, Inc., OU=VPN-CIE, CN=cie929/name=Bala Chandrasekaran/emailAddress=bala@pixglo.com
        Subject Public Key Info:
            Public Key Algorithm: rsaEncryption
                Public-Key: (4096 bit)
                Modulus:
                    00:d4:55:69:49:11:30:16:c9:6d:22:d1:79:71:a8:
                    60:a8:cb:82:2c:08:7f:76:ee:f4:61:85:6d:55:1c:
                    a8:7e:88:8c:5a:5e:f7:2e:96:91:75:52:bd:df:52:
                    72:6e:8d:b9:fa:5d:4a:0c:3f:f7:f6:fd:32:5e:61:
                    66:50:68:d8:93:b2:17:ab:d8:e8:b0:cc:e3:0a:b8:
                    d6:b7:71:d5:2e:d2:ad:fb:19:56:44:9d:57:23:b0:
                    27:21:18:76:56:01:9d:e2:23:de:a9:47:45:34:7b:
                    46:a7:e4:99:00:c9:52:bf:f5:e6:4c:0b:86:88:aa:
                    ea:5a:5a:85:b1:34:c1:b2:e1:3d:30:cd:4f:88:d4:
                    5c:55:01:ed:59:33:fc:13:b9:98:a3:bb:c7:0d:88:
                    86:d6:02:82:e7:3e:ae:1e:a1:5e:fe:f6:40:c6:dd:
                    cd:e6:cc:f0:63:9b:95:a7:b7:0a:ca:ce:26:06:08:
                    e1:c9:eb:81:a3:62:52:02:74:49:52:3f:9f:b2:fd:
                    99:fc:45:d2:dd:42:e3:b1:67:4f:10:5a:7f:f2:52:
                    5b:06:35:2a:e2:40:a9:dc:43:ac:ef:e7:fd:42:bb:
                    c1:6e:80:c4:0a:38:11:b1:a0:89:05:2a:f5:97:b5:
                    0d:fd:21:1e:b7:bc:85:c2:45:47:ab:01:d3:3b:a3:
                    ec:9c:e0:27:1d:30:5d:75:00:ae:98:38:48:63:44:
                    1e:1f:ab:f9:66:73:a9:7a:2f:47:86:5d:1f:77:9c:
                    e5:1d:35:17:02:6d:28:0d:54:69:e8:3a:30:bf:bc:
                    60:0b:ad:7b:f9:c2:c9:5c:18:38:cb:f4:72:97:e6:
                    64:2a:22:f1:dd:c8:3c:60:91:7e:8e:a0:7d:53:68:
                    42:75:07:2d:2d:a2:5f:d8:e9:20:60:53:59:12:56:
                    7d:c0:2f:76:56:df:42:51:55:ef:e0:45:f3:43:81:
                    9a:f5:f5:3a:6d:29:8d:eb:2e:42:6f:05:9a:3e:29:
                    96:79:76:aa:fa:29:c7:92:c2:43:05:61:7c:e8:f3:
                    a1:1a:a6:6c:40:a9:5d:1b:29:04:61:50:d9:23:06:
                    7d:ed:23:44:f0:86:24:24:87:48:30:ae:87:b5:0c:
                    ea:cb:37:a3:a9:bb:58:a9:85:39:8e:5e:8f:22:cd:
                    bc:7a:1f:e2:9b:2f:7c:23:a4:5a:b3:f0:e6:42:a9:
                    db:87:c1:2a:c9:a4:e0:72:be:d7:89:fe:03:d6:44:
                    8c:e2:69:dc:f0:89:21:52:e5:55:ed:c8:a4:7f:80:
                    f5:8c:3c:ee:0b:93:be:23:2a:68:2b:3f:e0:ea:08:
                    b8:7e:83:87:bf:ec:57:33:e1:26:d1:4c:06:9e:7a:
                    e7:4c:dd
                Exponent: 65537 (0x10001)
        X509v3 extensions:
            X509v3 Basic Constraints: 
                CA:FALSE
            Netscape Comment: 
                Easy-RSA Generated Certificate
            X509v3 Subject Key Identifier: 
                9C:C0:86:CB:2C:7A:6A:6A:05:57:8A:12:92:CB:38:0D:47:B0:4A:A5
            X509v3 Authority Key Identifier: 
                keyid:EF:38:8D:14:50:58:A7:5B:4D:9C:17:72:FC:DF:B9:AC:A7:51:B0:10
                DirName:/C=US/ST=CA/L=SanFrancisco/O=Pixglo, Inc./OU=VPN-CIE/CN=tunnel.pixglo.com/name=Bala Chandrasekaran/emailAddress=bala@pixglo.com
                serial:A6:DB:C6:83:80:E6:A0:79

            X509v3 Extended Key Usage: 
                TLS Web Client Authentication
            X509v3 Key Usage: 
                Digital Signature
    Signature Algorithm: sha1WithRSAEncryption
         32:8f:68:7e:69:cb:27:9a:9e:89:9a:93:31:d2:a9:45:4f:f4:
         b4:93:4b:a7:8e:13:a1:0c:c1:81:71:16:40:8b:4d:5a:7c:e0:
         6a:6b:85:1c:1e:f0:c8:db:04:a2:34:ba:81:f7:06:18:78:c7:
         72:0c:a8:0f:2e:31:0d:b7:45:d8:da:80:a2:ba:a5:b2:08:a6:
         b6:20:0c:87:5f:75:4e:9d:6c:f6:f5:2f:70:e6:89:c1:b6:ff:
         8c:26:ee:f2:1a:53:98:32:1f:24:36:f4:90:62:e5:d4:c2:91:
         c7:62:38:64:c0:9a:53:e8:fe:1a:cb:3a:9e:f7:ba:22:eb:73:
         53:91:99:b5:8e:f2:f3:96:d0:18:56:d0:6b:0c:95:5f:74:da:
         66:f5:21:22:a0:15:17:03:cc:42:0d:35:9f:f9:25:f1:a7:c3:
         c5:92:32:3f:f7:25:0c:62:4b:de:b3:b1:58:61:e9:de:86:24:
         4c:81:c7:2c:26:f0:18:ae:d5:5f:58:32:5a:fd:95:50:1c:be:
         79:a3:08:42:73:c7:cb:5c:d3:b3:d6:20:5b:32:4f:92:bf:9b:
         bb:0c:f7:fa:4a:28:02:d0:36:53:02:e8:8a:b6:ca:59:99:f0:
         2d:a8:c7:5a:2e:41:2b:e3:5b:83:20:60:9f:23:d3:5c:22:9a:
         75:2f:67:ee:c1:b8:38:ca:2f:c7:12:65:47:d1:35:8c:e7:e5:
         3d:28:c7:a7:76:16:e1:cd:1c:53:4f:4a:43:52:9c:d7:ca:a4:
         bd:31:3d:94:43:41:0f:cd:da:09:37:ce:de:ea:53:be:ba:58:
         cd:59:5b:89:5d:99:80:65:c8:9d:71:76:7b:fb:e1:5c:17:96:
         8e:37:bc:3d:68:f8:ff:44:2e:51:e2:95:44:f4:cd:07:8a:e8:
         27:50:8f:0c:d4:90:f5:55:71:4d:09:2c:5b:8c:bd:5d:e0:ca:
         6f:5f:6b:f3:dd:4a:b4:f3:a0:27:84:ca:7e:60:8f:34:68:85:
         fc:55:32:ca:51:d8:79:72:97:ed:3f:1d:53:0f:26:2d:dd:cf:
         31:9e:b3:bc:c7:03:4d:33:9a:97:30:f9:3c:19:bd:55:ae:f9:
         af:b0:f9:d2:43:17:3b:81:f4:58:b6:98:2c:eb:74:19:f1:b2:
         17:ff:12:ed:6e:74:a1:6c:3f:fc:31:26:25:13:1d:a9:96:55:
         3c:4c:8e:22:8d:fd:53:d0:e1:f6:fa:52:71:4d:8b:ef:a7:bf:
         b5:39:81:2e:de:0c:08:fe:10:22:c6:38:e4:95:3d:10:b3:14:
         db:fe:c5:15:db:ae:1b:a7:b1:a3:c5:a7:30:18:60:f1:90:08:
         e1:8f:6c:7b:61:05:67:d8
-----BEGIN CERTIFICATE-----
MIIHSDCCBTCgAwIBAgICA6IwDQYJKoZIhvcNAQEFBQAwgbQxCzAJBgNVBAYTAlVT
MQswCQYDVQQIEwJDQTEVMBMGA1UEBxMMU2FuRnJhbmNpc2NvMRUwEwYDVQQKEwxQ
aXhnbG8sIEluYy4xEDAOBgNVBAsTB1ZQTi1DSUUxGjAYBgNVBAMTEXR1bm5lbC5w
aXhnbG8uY29tMRwwGgYDVQQpExNCYWxhIENoYW5kcmFzZWthcmFuMR4wHAYJKoZI
hvcNAQkBFg9iYWxhQHBpeGdsby5jb20wHhcNMTgwMjE0MDY0ODI0WhcNMjgwMjEy
MDY0ODI0WjCBqTELMAkGA1UEBhMCVVMxCzAJBgNVBAgTAkNBMRUwEwYDVQQHEwxT
YW5GcmFuY2lzY28xFTATBgNVBAoTDFBpeGdsbywgSW5jLjEQMA4GA1UECxMHVlBO
LUNJRTEPMA0GA1UEAxMGY2llOTI5MRwwGgYDVQQpExNCYWxhIENoYW5kcmFzZWth
cmFuMR4wHAYJKoZIhvcNAQkBFg9iYWxhQHBpeGdsby5jb20wggIiMA0GCSqGSIb3
DQEBAQUAA4ICDwAwggIKAoICAQDUVWlJETAWyW0i0XlxqGCoy4IsCH927vRhhW1V
HKh+iIxaXvculpF1Ur3fUnJujbn6XUoMP/f2/TJeYWZQaNiTsher2OiwzOMKuNa3
cdUu0q37GVZEnVcjsCchGHZWAZ3iI96pR0U0e0an5JkAyVK/9eZMC4aIqupaWoWx
NMGy4T0wzU+I1FxVAe1ZM/wTuZiju8cNiIbWAoLnPq4eoV7+9kDG3c3mzPBjm5Wn
twrKziYGCOHJ64GjYlICdElSP5+y/Zn8RdLdQuOxZ08QWn/yUlsGNSriQKncQ6zv
5/1Cu8FugMQKOBGxoIkFKvWXtQ39IR63vIXCRUerAdM7o+yc4CcdMF11AK6YOEhj
RB4fq/lmc6l6L0eGXR93nOUdNRcCbSgNVGnoOjC/vGALrXv5wslcGDjL9HKX5mQq
IvHdyDxgkX6OoH1TaEJ1By0tol/Y6SBgU1kSVn3AL3ZW30JRVe/gRfNDgZr19Tpt
KY3rLkJvBZo+KZZ5dqr6KceSwkMFYXzo86EapmxAqV0bKQRhUNkjBn3tI0TwhiQk
h0gwroe1DOrLN6Opu1iphTmOXo8izbx6H+KbL3wjpFqz8OZCqduHwSrJpOByvteJ
/gPWRIziadzwiSFS5VXtyKR/gPWMPO4Lk74jKmgrP+DqCLh+g4e/7Fcz4SbRTAae
eudM3QIDAQABo4IBazCCAWcwCQYDVR0TBAIwADAtBglghkgBhvhCAQ0EIBYeRWFz
eS1SU0EgR2VuZXJhdGVkIENlcnRpZmljYXRlMB0GA1UdDgQWBBScwIbLLHpqagVX
ihKSyzgNR7BKpTCB6QYDVR0jBIHhMIHegBTvOI0UUFinW02cF3L837msp1GwEKGB
uqSBtzCBtDELMAkGA1UEBhMCVVMxCzAJBgNVBAgTAkNBMRUwEwYDVQQHEwxTYW5G
cmFuY2lzY28xFTATBgNVBAoTDFBpeGdsbywgSW5jLjEQMA4GA1UECxMHVlBOLUNJ
RTEaMBgGA1UEAxMRdHVubmVsLnBpeGdsby5jb20xHDAaBgNVBCkTE0JhbGEgQ2hh
bmRyYXNla2FyYW4xHjAcBgkqhkiG9w0BCQEWD2JhbGFAcGl4Z2xvLmNvbYIJAKbb
xoOA5qB5MBMGA1UdJQQMMAoGCCsGAQUFBwMCMAsGA1UdDwQEAwIHgDANBgkqhkiG
9w0BAQUFAAOCAgEAMo9ofmnLJ5qeiZqTMdKpRU/0tJNLp44ToQzBgXEWQItNWnzg
amuFHB7wyNsEojS6gfcGGHjHcgyoDy4xDbdF2NqAorqlsgimtiAMh191Tp1s9vUv
cOaJwbb/jCbu8hpTmDIfJDb0kGLl1MKRx2I4ZMCaU+j+Gss6nve6IutzU5GZtY7y
85bQGFbQawyVX3TaZvUhIqAVFwPMQg01n/kl8afDxZIyP/clDGJL3rOxWGHp3oYk
TIHHLCbwGK7VX1gyWv2VUBy+eaMIQnPHy1zTs9YgWzJPkr+buwz3+kooAtA2UwLo
irbKWZnwLajHWi5BK+NbgyBgnyPTXCKadS9n7sG4OMovxxJlR9E1jOflPSjHp3YW
4c0cU09KQ1Kc18qkvTE9lENBD83aCTfO3upTvrpYzVlbiV2ZgGXInXF2e/vhXBeW
jje8PWj4/0QuUeKVRPTNB4roJ1CPDNSQ9VVxTQksW4y9XeDKb19r891KtPOgJ4TK
fmCPNGiF/FUyylHYeXKX7T8dUw8mLd3PMZ6zvMcDTTOalzD5PBm9Va75r7D50kMX
O4H0WLaYLOt0GfGyF/8S7W50oWw//DEmJRMdqZZVPEyOIo39U9Dh9vpScU2L76e/
tTmBLt4MCP4QIsY45JU9ELMU2/7FFduuG6exo8WnMBhg8ZAI4Y9se2EFZ9g=
-----END CERTIFICATE-----
