Certificate:
    Data:
        Version: 3 (0x2)
        Serial Number: 932 (0x3a4)
    Signature Algorithm: sha1WithRSAEncryption
        Issuer: C=US, ST=CA, L=SanFrancisco, O=Pixglo, Inc., OU=VPN-CIE, CN=tunnel.pixglo.com/name=Bala Chandrasekaran/emailAddress=bala@pixglo.com
        Validity
            Not Before: Feb 14 06:48:26 2018 GMT
            Not After : Feb 12 06:48:26 2028 GMT
        Subject: C=US, ST=CA, L=SanFrancisco, O=Pixglo, Inc., OU=VPN-CIE, CN=cie931/name=Bala Chandrasekaran/emailAddress=bala@pixglo.com
        Subject Public Key Info:
            Public Key Algorithm: rsaEncryption
                Public-Key: (4096 bit)
                Modulus:
                    00:c1:61:c7:79:03:34:3b:60:09:ae:4a:5e:5c:b9:
                    d2:29:82:4c:1b:61:fa:b9:17:62:4d:ac:5e:3c:1c:
                    34:37:56:61:0c:c7:9a:72:19:a3:0a:64:e3:ec:71:
                    a0:b5:e4:d6:41:39:63:2c:07:a9:4a:21:4b:3a:00:
                    3c:0f:3c:37:fa:e7:31:fc:7d:07:f6:28:39:76:48:
                    73:fd:85:77:73:e1:6a:fc:93:db:7d:ab:cf:6f:a5:
                    ef:d6:3f:fe:37:51:d4:72:84:d3:c6:59:4a:36:f4:
                    75:bf:9a:a3:8d:ca:8a:ff:12:2b:8b:fd:0c:d4:56:
                    21:cf:07:69:79:1b:6e:7f:33:52:63:19:fc:67:0c:
                    29:cc:a8:96:06:54:11:bf:c7:56:3b:5b:00:a1:96:
                    b7:e6:b1:f3:cd:43:f7:aa:60:c0:63:21:ba:92:64:
                    74:a2:4b:0e:59:d9:64:3c:85:56:21:ae:0a:47:46:
                    c4:33:e9:f4:47:d4:04:c9:ee:df:34:14:fd:15:65:
                    75:7b:d7:87:55:82:76:ea:8a:23:28:7f:1d:03:1b:
                    11:17:1c:07:d6:0e:c4:ca:f5:a2:e3:05:b3:5a:87:
                    d4:48:6f:14:8a:8d:fa:c0:3d:c1:59:18:cf:ea:a3:
                    10:ef:55:e3:11:19:88:d1:42:2e:b8:80:1c:9b:90:
                    a7:64:04:99:9b:f7:b1:95:e7:4d:a0:2b:bd:de:63:
                    49:e4:cd:bc:7d:da:0b:a3:a0:d7:1f:5b:b5:12:3e:
                    7b:db:21:8e:72:84:67:0f:76:81:54:38:89:01:4d:
                    3b:1b:26:89:02:ad:14:6b:18:2c:52:b2:2d:a0:fd:
                    cd:5c:5e:4d:2f:47:5e:c4:47:7b:0f:4a:4b:ee:78:
                    70:85:5c:47:9f:43:22:96:73:76:23:6f:9e:f2:d4:
                    8d:c9:72:6a:4b:a1:f2:61:29:e1:a7:21:aa:6e:02:
                    e1:29:0b:a8:cf:42:6a:bd:82:9d:50:04:62:c8:0d:
                    72:c6:de:4f:08:31:07:e2:9c:b4:44:4b:e1:54:ec:
                    6b:f4:d8:e1:d8:07:78:1d:08:0e:7e:c0:2d:c9:57:
                    15:b2:8d:ea:18:d0:83:b3:a6:fc:99:a8:a6:e0:a2:
                    d0:2c:69:14:fb:8f:21:b9:fc:c5:ba:fc:39:2b:d6:
                    a1:cb:3a:e2:fc:2e:22:83:4e:06:9f:d3:68:8d:44:
                    0c:70:ce:17:b4:c0:69:60:6a:1e:5e:46:ce:79:38:
                    df:1a:58:ad:ec:13:d2:20:d4:95:64:0c:01:ed:2a:
                    bc:8e:3d:8d:84:de:d7:6b:c5:f5:19:20:13:48:d0:
                    83:29:c7:6c:58:bf:e0:dc:03:9a:23:8d:e8:11:a0:
                    33:55:bb
                Exponent: 65537 (0x10001)
        X509v3 extensions:
            X509v3 Basic Constraints: 
                CA:FALSE
            Netscape Comment: 
                Easy-RSA Generated Certificate
            X509v3 Subject Key Identifier: 
                99:B4:25:5F:F7:92:37:A2:C1:C6:67:7E:80:34:79:59:71:B1:F0:EE
            X509v3 Authority Key Identifier: 
                keyid:EF:38:8D:14:50:58:A7:5B:4D:9C:17:72:FC:DF:B9:AC:A7:51:B0:10
                DirName:/C=US/ST=CA/L=SanFrancisco/O=Pixglo, Inc./OU=VPN-CIE/CN=tunnel.pixglo.com/name=Bala Chandrasekaran/emailAddress=bala@pixglo.com
                serial:A6:DB:C6:83:80:E6:A0:79

            X509v3 Extended Key Usage: 
                TLS Web Client Authentication
            X509v3 Key Usage: 
                Digital Signature
    Signature Algorithm: sha1WithRSAEncryption
         77:3b:b8:56:10:a2:5e:0b:e4:fb:c7:30:ad:c7:82:30:f8:02:
         09:ea:87:ba:35:49:2d:79:a4:33:5e:a7:dc:db:80:73:ad:f8:
         38:3e:63:02:5c:fc:60:bb:2d:34:43:0b:47:a1:7e:e1:46:01:
         89:63:6c:7b:02:05:c8:0f:2f:0d:40:81:12:f4:f8:ed:3d:d4:
         10:a6:0c:10:6b:4d:9e:b9:ef:d6:ff:10:19:ee:04:4c:7e:e9:
         86:1d:88:86:20:19:45:c2:cd:67:38:13:14:13:8f:41:7f:42:
         d1:61:6f:16:d0:10:8d:3b:6c:cb:43:ac:a0:a3:e3:48:b2:48:
         dc:02:d6:c3:ae:80:42:ff:0e:47:66:da:28:af:94:3a:b2:f2:
         3a:dd:30:66:f8:81:76:92:25:0a:bf:5e:a9:c9:b6:10:be:3c:
         29:5f:33:81:3c:9c:3d:38:35:3a:23:fb:d4:bd:e7:d5:d2:3d:
         f2:5a:17:8a:f1:50:1e:9b:f6:6b:de:ef:4d:d8:76:90:f7:a2:
         db:d5:7c:0d:8e:f0:3d:ed:a7:38:22:1c:b7:f0:5e:e0:7c:33:
         af:99:82:7c:7d:2b:fb:87:cb:49:4a:75:df:3a:16:e9:f3:6b:
         5d:43:22:62:d1:48:f0:59:da:7e:f3:88:0a:8f:a3:a5:ef:ef:
         89:fb:b6:a3:d5:6e:ac:3d:ea:90:24:95:45:ab:4d:dd:5c:57:
         ad:8b:23:9b:3a:5b:84:62:12:f8:eb:62:f1:59:8d:65:31:6a:
         11:cc:3c:c3:f3:a8:50:bf:fe:24:9c:58:72:88:98:42:c8:b8:
         24:4a:8c:c4:b3:ec:79:d6:32:9f:89:8a:59:0c:5f:18:36:a4:
         89:5b:af:fa:e2:ab:73:81:9f:1e:c6:81:0d:bc:47:f0:14:9d:
         45:02:6e:d4:91:26:f9:38:fd:a1:e8:5e:60:25:d2:c7:82:a0:
         d1:ac:9f:b3:1b:ff:22:93:6f:58:90:3c:9d:ed:73:0d:67:73:
         21:5e:6a:9f:1f:5f:88:e4:97:60:59:13:6c:27:c0:42:62:03:
         96:5e:72:b5:4d:12:9e:fe:79:51:a9:19:92:59:f6:b2:3d:5c:
         f1:46:0e:ab:2d:2e:47:2e:7a:6b:d3:d5:55:e3:0e:2b:4d:a3:
         75:aa:f2:55:a6:61:95:15:5c:14:eb:e8:88:97:da:fc:96:40:
         eb:ff:9b:13:5d:94:dd:30:3f:1f:2f:a2:a4:87:c4:a2:91:e6:
         54:48:a9:d0:57:27:2a:11:91:41:3f:85:69:b9:33:9e:9b:7d:
         89:cb:da:bf:a7:5e:dc:ed:a1:c0:8f:1a:eb:99:87:cd:a8:0c:
         7c:be:c3:32:51:49:21:72
-----BEGIN CERTIFICATE-----
MIIHSDCCBTCgAwIBAgICA6QwDQYJKoZIhvcNAQEFBQAwgbQxCzAJBgNVBAYTAlVT
MQswCQYDVQQIEwJDQTEVMBMGA1UEBxMMU2FuRnJhbmNpc2NvMRUwEwYDVQQKEwxQ
aXhnbG8sIEluYy4xEDAOBgNVBAsTB1ZQTi1DSUUxGjAYBgNVBAMTEXR1bm5lbC5w
aXhnbG8uY29tMRwwGgYDVQQpExNCYWxhIENoYW5kcmFzZWthcmFuMR4wHAYJKoZI
hvcNAQkBFg9iYWxhQHBpeGdsby5jb20wHhcNMTgwMjE0MDY0ODI2WhcNMjgwMjEy
MDY0ODI2WjCBqTELMAkGA1UEBhMCVVMxCzAJBgNVBAgTAkNBMRUwEwYDVQQHEwxT
YW5GcmFuY2lzY28xFTATBgNVBAoTDFBpeGdsbywgSW5jLjEQMA4GA1UECxMHVlBO
LUNJRTEPMA0GA1UEAxMGY2llOTMxMRwwGgYDVQQpExNCYWxhIENoYW5kcmFzZWth
cmFuMR4wHAYJKoZIhvcNAQkBFg9iYWxhQHBpeGdsby5jb20wggIiMA0GCSqGSIb3
DQEBAQUAA4ICDwAwggIKAoICAQDBYcd5AzQ7YAmuSl5cudIpgkwbYfq5F2JNrF48
HDQ3VmEMx5pyGaMKZOPscaC15NZBOWMsB6lKIUs6ADwPPDf65zH8fQf2KDl2SHP9
hXdz4Wr8k9t9q89vpe/WP/43UdRyhNPGWUo29HW/mqONyor/EiuL/QzUViHPB2l5
G25/M1JjGfxnDCnMqJYGVBG/x1Y7WwChlrfmsfPNQ/eqYMBjIbqSZHSiSw5Z2WQ8
hVYhrgpHRsQz6fRH1ATJ7t80FP0VZXV714dVgnbqiiMofx0DGxEXHAfWDsTK9aLj
BbNah9RIbxSKjfrAPcFZGM/qoxDvVeMRGYjRQi64gBybkKdkBJmb97GV502gK73e
Y0nkzbx92gujoNcfW7USPnvbIY5yhGcPdoFUOIkBTTsbJokCrRRrGCxSsi2g/c1c
Xk0vR17ER3sPSkvueHCFXEefQyKWc3Yjb57y1I3JcmpLofJhKeGnIapuAuEpC6jP
Qmq9gp1QBGLIDXLG3k8IMQfinLRES+FU7Gv02OHYB3gdCA5+wC3JVxWyjeoY0IOz
pvyZqKbgotAsaRT7jyG5/MW6/Dkr1qHLOuL8LiKDTgaf02iNRAxwzhe0wGlgah5e
Rs55ON8aWK3sE9Ig1JVkDAHtKryOPY2E3tdrxfUZIBNI0IMpx2xYv+DcA5ojjegR
oDNVuwIDAQABo4IBazCCAWcwCQYDVR0TBAIwADAtBglghkgBhvhCAQ0EIBYeRWFz
eS1SU0EgR2VuZXJhdGVkIENlcnRpZmljYXRlMB0GA1UdDgQWBBSZtCVf95I3osHG
Z36ANHlZcbHw7jCB6QYDVR0jBIHhMIHegBTvOI0UUFinW02cF3L837msp1GwEKGB
uqSBtzCBtDELMAkGA1UEBhMCVVMxCzAJBgNVBAgTAkNBMRUwEwYDVQQHEwxTYW5G
cmFuY2lzY28xFTATBgNVBAoTDFBpeGdsbywgSW5jLjEQMA4GA1UECxMHVlBOLUNJ
RTEaMBgGA1UEAxMRdHVubmVsLnBpeGdsby5jb20xHDAaBgNVBCkTE0JhbGEgQ2hh
bmRyYXNla2FyYW4xHjAcBgkqhkiG9w0BCQEWD2JhbGFAcGl4Z2xvLmNvbYIJAKbb
xoOA5qB5MBMGA1UdJQQMMAoGCCsGAQUFBwMCMAsGA1UdDwQEAwIHgDANBgkqhkiG
9w0BAQUFAAOCAgEAdzu4VhCiXgvk+8cwrceCMPgCCeqHujVJLXmkM16n3NuAc634
OD5jAlz8YLstNEMLR6F+4UYBiWNsewIFyA8vDUCBEvT47T3UEKYMEGtNnrnv1v8Q
Ge4ETH7phh2IhiAZRcLNZzgTFBOPQX9C0WFvFtAQjTtsy0OsoKPjSLJI3ALWw66A
Qv8OR2baKK+UOrLyOt0wZviBdpIlCr9eqcm2EL48KV8zgTycPTg1OiP71L3n1dI9
8loXivFQHpv2a97vTdh2kPei29V8DY7wPe2nOCIct/Be4Hwzr5mCfH0r+4fLSUp1
3zoW6fNrXUMiYtFI8FnafvOICo+jpe/vifu2o9VurD3qkCSVRatN3VxXrYsjmzpb
hGIS+Oti8VmNZTFqEcw8w/OoUL/+JJxYcoiYQsi4JEqMxLPsedYyn4mKWQxfGDak
iVuv+uKrc4GfHsaBDbxH8BSdRQJu1JEm+Tj9oeheYCXSx4Kg0ayfsxv/IpNvWJA8
ne1zDWdzIV5qnx9fiOSXYFkTbCfAQmIDll5ytU0Snv55UakZkln2sj1c8UYOqy0u
Ry56a9PVVeMOK02jdaryVaZhlRVcFOvoiJfa/JZA6/+bE12U3TA/Hy+ipIfEopHm
VEip0FcnKhGRQT+Fabkznpt9icvav6de3O2hwI8a65mHzagMfL7DMlFJIXI=
-----END CERTIFICATE-----
