Certificate:
    Data:
        Version: 3 (0x2)
        Serial Number: 934 (0x3a6)
    Signature Algorithm: sha1WithRSAEncryption
        Issuer: C=US, ST=CA, L=SanFrancisco, O=Pixglo, Inc., OU=VPN-CIE, CN=tunnel.pixglo.com/name=Bala Chandrasekaran/emailAddress=bala@pixglo.com
        Validity
            Not Before: Feb 14 06:48:31 2018 GMT
            Not After : Feb 12 06:48:31 2028 GMT
        Subject: C=US, ST=CA, L=SanFrancisco, O=Pixglo, Inc., OU=VPN-CIE, CN=cie933/name=Bala Chandrasekaran/emailAddress=bala@pixglo.com
        Subject Public Key Info:
            Public Key Algorithm: rsaEncryption
                Public-Key: (4096 bit)
                Modulus:
                    00:dc:f3:dd:42:cb:05:a9:15:c1:a3:2a:85:ef:41:
                    1b:86:1f:5b:39:18:e2:54:f7:e9:8e:bb:16:21:79:
                    23:e7:9f:7f:58:90:78:90:44:61:03:80:00:c8:40:
                    0e:76:3b:49:79:b6:93:9f:14:aa:5c:c9:ab:41:39:
                    e3:41:15:77:e7:73:56:ee:da:09:25:9c:96:0b:6b:
                    e0:0e:22:07:40:bf:17:b5:de:a4:95:b4:66:23:45:
                    cc:fc:68:a9:05:d0:e7:bc:5a:b3:c3:b8:be:d9:c6:
                    37:f3:42:17:82:d0:86:f4:ab:1f:8c:3e:ad:f0:73:
                    a4:e9:9d:fa:90:b7:56:d7:58:e6:97:8c:7e:87:f3:
                    1c:8f:02:ef:79:9f:a1:25:30:e1:25:ff:cc:dc:06:
                    2b:2d:05:4a:c8:87:b8:8e:22:9e:55:06:af:1e:b3:
                    b0:50:2e:d2:12:a1:6b:1d:4d:d5:95:d2:50:f4:79:
                    c7:3d:f2:64:51:ef:60:2e:6a:85:84:de:34:ce:9f:
                    91:be:5c:31:cd:cb:31:fc:37:78:b0:13:4f:65:85:
                    87:ae:c8:08:3e:2b:8f:98:62:1d:4a:de:ce:f2:63:
                    a1:cc:65:a0:5b:70:5f:f1:e5:8a:f6:d6:0f:c1:ae:
                    2e:24:f7:bd:97:4a:32:37:6b:96:fe:95:4c:22:ac:
                    83:cf:30:36:94:f5:ef:91:5a:4e:6b:8e:fb:51:8f:
                    0e:24:3c:19:72:4b:09:19:0f:5b:82:cd:ae:e9:f0:
                    5d:6c:8b:3c:5b:c3:6c:b6:c3:26:9e:8f:8a:f2:f9:
                    cb:3a:27:f7:10:74:5b:cf:0e:8e:92:e4:4a:44:9d:
                    cd:a7:d5:78:9d:d0:49:55:b5:cb:fd:50:7f:46:d7:
                    e5:51:a4:2b:16:23:7a:7b:cc:42:01:d9:05:3c:01:
                    8b:ec:eb:dd:dc:85:2d:dc:7e:26:c0:f0:58:69:e6:
                    07:b4:33:54:e8:a8:59:f4:87:d1:d2:bd:a5:2d:f0:
                    d5:fa:40:02:c5:0b:2b:3e:87:94:ba:99:f8:77:da:
                    82:ae:27:0f:f5:c4:5f:76:0c:6e:b0:fa:c4:fd:da:
                    6c:2c:08:98:4a:fe:7b:44:74:3f:e8:5b:fa:a3:55:
                    f3:1b:f1:82:00:b2:5e:7f:cb:ba:02:f0:b5:2a:f0:
                    b2:7d:c0:e7:a2:94:13:6f:8a:d2:a3:30:e1:76:e3:
                    42:81:51:da:a7:66:ea:00:72:a9:2d:82:c0:3a:9e:
                    1c:97:2f:1c:c9:e2:a7:fe:5f:33:d4:58:a7:ca:aa:
                    2b:cc:3f:25:09:e7:1a:da:fd:5f:9c:ba:9d:6f:d5:
                    0b:b9:0e:69:c1:80:52:ee:8a:4f:96:f5:34:45:73:
                    a0:21:93
                Exponent: 65537 (0x10001)
        X509v3 extensions:
            X509v3 Basic Constraints: 
                CA:FALSE
            Netscape Comment: 
                Easy-RSA Generated Certificate
            X509v3 Subject Key Identifier: 
                09:D9:4C:C2:62:5A:8F:7C:50:5B:92:29:0B:05:4B:4B:46:83:75:57
            X509v3 Authority Key Identifier: 
                keyid:EF:38:8D:14:50:58:A7:5B:4D:9C:17:72:FC:DF:B9:AC:A7:51:B0:10
                DirName:/C=US/ST=CA/L=SanFrancisco/O=Pixglo, Inc./OU=VPN-CIE/CN=tunnel.pixglo.com/name=Bala Chandrasekaran/emailAddress=bala@pixglo.com
                serial:A6:DB:C6:83:80:E6:A0:79

            X509v3 Extended Key Usage: 
                TLS Web Client Authentication
            X509v3 Key Usage: 
                Digital Signature
    Signature Algorithm: sha1WithRSAEncryption
         74:f4:ed:66:08:6f:7d:cd:93:54:60:7f:f3:8e:14:d9:fe:4f:
         f4:ac:f9:fb:94:0d:23:a0:f2:6f:58:27:57:09:85:f6:1f:fa:
         00:32:7b:65:9a:6d:5e:d0:e4:3c:e4:84:98:0e:f9:39:d5:c5:
         aa:4b:b4:6f:e1:a4:ba:36:59:9d:14:72:79:9d:b8:9c:b0:b3:
         e8:08:db:90:40:2e:d5:e7:d2:d3:c2:00:a8:67:b1:41:72:39:
         16:5e:91:f9:e0:40:e2:c8:d5:69:66:86:0a:ed:01:81:92:87:
         c8:ca:21:bd:53:be:eb:e2:e9:ca:d8:02:a0:c7:3f:44:b5:62:
         a5:40:f0:11:97:88:6a:41:22:02:1d:70:e2:54:da:24:08:d3:
         89:dd:19:a4:5a:79:06:49:0b:45:d8:a0:8b:34:8f:26:e9:28:
         1a:8a:85:d3:e9:0e:b6:e2:50:5a:d2:3a:28:17:f8:3b:d0:44:
         63:7a:d3:94:e5:f6:79:a8:c5:fe:5b:10:7a:88:ba:0d:4b:36:
         eb:53:6b:b3:a8:7f:ec:13:57:e4:ca:be:a1:6d:39:10:97:6a:
         b6:65:31:db:f8:1b:53:79:f5:0f:ac:88:c2:ae:6c:e1:80:0e:
         ec:96:b7:3a:6d:f2:5a:8b:65:13:3d:e1:28:c2:f3:b1:fe:b0:
         83:31:d3:7a:06:2e:39:d1:4c:50:7f:fb:12:55:ac:5c:b2:06:
         b0:08:be:eb:d8:89:29:87:b8:20:6a:39:98:57:34:80:9b:b5:
         c6:9c:38:a8:1a:8a:64:d4:84:85:97:6f:0a:c8:d8:8f:df:3c:
         32:4f:e6:97:7b:cf:d3:b6:92:c5:7a:7a:12:d4:13:64:d3:3d:
         3c:5c:d7:68:5b:f8:a9:54:8c:1b:97:fa:97:17:e0:20:af:4f:
         ac:1d:2f:4c:0c:38:9f:77:eb:fa:bb:51:bc:ae:bc:4e:74:87:
         4a:e4:cf:f1:21:78:fd:fb:74:66:02:5b:0f:41:04:de:43:5f:
         8a:05:1b:04:fa:9c:dd:fc:10:17:5e:e9:ee:7a:6b:84:ce:d8:
         4d:dc:a5:b0:78:80:27:2f:8e:af:f8:f8:53:0c:eb:c3:4a:af:
         25:c3:96:15:70:6f:ba:d2:ea:99:4e:b0:6d:82:96:9f:a6:43:
         67:62:e9:d2:75:a9:a4:54:27:8f:d0:bf:fd:ef:ff:23:06:af:
         a1:4f:89:b9:14:d0:ba:96:92:7f:ba:ee:99:de:97:66:78:08:
         44:28:ed:da:c4:4f:e3:99:67:ff:83:80:7c:f5:8d:c8:17:9a:
         7d:c0:8b:86:7a:81:29:65:09:b4:bd:4f:12:ce:8b:7b:87:11:
         8b:95:eb:95:56:c1:0b:3c
-----BEGIN CERTIFICATE-----
MIIHSDCCBTCgAwIBAgICA6YwDQYJKoZIhvcNAQEFBQAwgbQxCzAJBgNVBAYTAlVT
MQswCQYDVQQIEwJDQTEVMBMGA1UEBxMMU2FuRnJhbmNpc2NvMRUwEwYDVQQKEwxQ
aXhnbG8sIEluYy4xEDAOBgNVBAsTB1ZQTi1DSUUxGjAYBgNVBAMTEXR1bm5lbC5w
aXhnbG8uY29tMRwwGgYDVQQpExNCYWxhIENoYW5kcmFzZWthcmFuMR4wHAYJKoZI
hvcNAQkBFg9iYWxhQHBpeGdsby5jb20wHhcNMTgwMjE0MDY0ODMxWhcNMjgwMjEy
MDY0ODMxWjCBqTELMAkGA1UEBhMCVVMxCzAJBgNVBAgTAkNBMRUwEwYDVQQHEwxT
YW5GcmFuY2lzY28xFTATBgNVBAoTDFBpeGdsbywgSW5jLjEQMA4GA1UECxMHVlBO
LUNJRTEPMA0GA1UEAxMGY2llOTMzMRwwGgYDVQQpExNCYWxhIENoYW5kcmFzZWth
cmFuMR4wHAYJKoZIhvcNAQkBFg9iYWxhQHBpeGdsby5jb20wggIiMA0GCSqGSIb3
DQEBAQUAA4ICDwAwggIKAoICAQDc891CywWpFcGjKoXvQRuGH1s5GOJU9+mOuxYh
eSPnn39YkHiQRGEDgADIQA52O0l5tpOfFKpcyatBOeNBFXfnc1bu2gklnJYLa+AO
IgdAvxe13qSVtGYjRcz8aKkF0Oe8WrPDuL7ZxjfzQheC0Ib0qx+MPq3wc6TpnfqQ
t1bXWOaXjH6H8xyPAu95n6ElMOEl/8zcBistBUrIh7iOIp5VBq8es7BQLtISoWsd
TdWV0lD0ecc98mRR72AuaoWE3jTOn5G+XDHNyzH8N3iwE09lhYeuyAg+K4+YYh1K
3s7yY6HMZaBbcF/x5Yr21g/Bri4k972XSjI3a5b+lUwirIPPMDaU9e+RWk5rjvtR
jw4kPBlySwkZD1uCza7p8F1sizxbw2y2wyaej4ry+cs6J/cQdFvPDo6S5EpEnc2n
1Xid0ElVtcv9UH9G1+VRpCsWI3p7zEIB2QU8AYvs693chS3cfibA8Fhp5ge0M1To
qFn0h9HSvaUt8NX6QALFCys+h5S6mfh32oKuJw/1xF92DG6w+sT92mwsCJhK/ntE
dD/oW/qjVfMb8YIAsl5/y7oC8LUq8LJ9wOeilBNvitKjMOF240KBUdqnZuoAcqkt
gsA6nhyXLxzJ4qf+XzPUWKfKqivMPyUJ5xra/V+cup1v1Qu5DmnBgFLuik+W9TRF
c6AhkwIDAQABo4IBazCCAWcwCQYDVR0TBAIwADAtBglghkgBhvhCAQ0EIBYeRWFz
eS1SU0EgR2VuZXJhdGVkIENlcnRpZmljYXRlMB0GA1UdDgQWBBQJ2UzCYlqPfFBb
kikLBUtLRoN1VzCB6QYDVR0jBIHhMIHegBTvOI0UUFinW02cF3L837msp1GwEKGB
uqSBtzCBtDELMAkGA1UEBhMCVVMxCzAJBgNVBAgTAkNBMRUwEwYDVQQHEwxTYW5G
cmFuY2lzY28xFTATBgNVBAoTDFBpeGdsbywgSW5jLjEQMA4GA1UECxMHVlBOLUNJ
RTEaMBgGA1UEAxMRdHVubmVsLnBpeGdsby5jb20xHDAaBgNVBCkTE0JhbGEgQ2hh
bmRyYXNla2FyYW4xHjAcBgkqhkiG9w0BCQEWD2JhbGFAcGl4Z2xvLmNvbYIJAKbb
xoOA5qB5MBMGA1UdJQQMMAoGCCsGAQUFBwMCMAsGA1UdDwQEAwIHgDANBgkqhkiG
9w0BAQUFAAOCAgEAdPTtZghvfc2TVGB/844U2f5P9Kz5+5QNI6Dyb1gnVwmF9h/6
ADJ7ZZptXtDkPOSEmA75OdXFqku0b+GkujZZnRRyeZ24nLCz6AjbkEAu1efS08IA
qGexQXI5Fl6R+eBA4sjVaWaGCu0BgZKHyMohvVO+6+LpytgCoMc/RLVipUDwEZeI
akEiAh1w4lTaJAjTid0ZpFp5BkkLRdigizSPJukoGoqF0+kOtuJQWtI6KBf4O9BE
Y3rTlOX2eajF/lsQeoi6DUs261Nrs6h/7BNX5Mq+oW05EJdqtmUx2/gbU3n1D6yI
wq5s4YAO7Ja3Om3yWotlEz3hKMLzsf6wgzHTegYuOdFMUH/7ElWsXLIGsAi+69iJ
KYe4IGo5mFc0gJu1xpw4qBqKZNSEhZdvCsjYj988Mk/ml3vP07aSxXp6EtQTZNM9
PFzXaFv4qVSMG5f6lxfgIK9PrB0vTAw4n3fr+rtRvK68TnSHSuTP8SF4/ft0ZgJb
D0EE3kNfigUbBPqc3fwQF17p7nprhM7YTdylsHiAJy+Or/j4Uwzrw0qvJcOWFXBv
utLqmU6wbYKWn6ZDZ2Lp0nWppFQnj9C//e//IwavoU+JuRTQupaSf7rumd6XZngI
RCjt2sRP45ln/4OAfPWNyBeafcCLhnqBKWUJtL1PEs6Le4cRi5XrlVbBCzw=
-----END CERTIFICATE-----
