Certificate:
    Data:
        Version: 3 (0x2)
        Serial Number: 938 (0x3aa)
    Signature Algorithm: sha1WithRSAEncryption
        Issuer: C=US, ST=CA, L=SanFrancisco, O=Pixglo, Inc., OU=VPN-CIE, CN=tunnel.pixglo.com/name=Bala Chandrasekaran/emailAddress=bala@pixglo.com
        Validity
            Not Before: Feb 14 06:48:37 2018 GMT
            Not After : Feb 12 06:48:37 2028 GMT
        Subject: C=US, ST=CA, L=SanFrancisco, O=Pixglo, Inc., OU=VPN-CIE, CN=cie937/name=Bala Chandrasekaran/emailAddress=bala@pixglo.com
        Subject Public Key Info:
            Public Key Algorithm: rsaEncryption
                Public-Key: (4096 bit)
                Modulus:
                    00:b5:e8:9a:dd:aa:56:cb:c6:94:3b:58:16:79:92:
                    ca:7a:89:cc:ea:ff:2d:f5:81:cc:f6:85:ac:40:62:
                    35:7d:90:ac:d2:58:28:75:44:60:29:5b:62:09:b1:
                    aa:39:a6:b6:38:fb:07:85:a0:72:3c:df:98:9b:2e:
                    3d:ad:ab:ea:de:34:5d:aa:f0:ed:ab:8c:af:12:66:
                    69:0e:2a:41:9b:86:5e:b1:8f:b8:1f:a8:d9:46:d2:
                    36:ce:6a:11:9c:82:7f:f7:ee:d3:1f:3b:73:35:38:
                    85:dc:30:bf:0e:a4:ea:ee:16:e5:a5:04:98:24:cb:
                    a9:85:bc:1c:c7:57:78:cc:e9:a4:60:67:cb:90:3a:
                    de:26:e6:03:9c:20:0e:db:64:b8:a4:fd:3d:49:f2:
                    7e:b1:9d:f0:83:10:f7:34:4b:8a:35:dd:c6:7b:63:
                    fc:15:31:8d:6c:99:53:d9:09:de:04:4b:7a:79:3f:
                    7f:3b:fd:25:9a:81:34:87:b0:0a:ce:ae:e2:6f:c2:
                    2b:60:99:17:bf:db:84:d3:dc:d1:87:5e:d4:7a:d6:
                    46:e0:aa:c2:59:69:c1:ea:f3:72:80:fc:4b:13:fb:
                    1b:f5:1d:59:cc:3c:51:8c:7a:19:19:e9:51:de:2a:
                    41:b1:2a:86:77:d4:85:0e:96:40:ba:ae:be:f9:3b:
                    c0:e5:da:d0:23:1c:9f:8e:f1:f6:14:e6:7c:fe:97:
                    61:65:2f:90:8d:2f:eb:58:f3:37:cc:54:1a:e9:3f:
                    03:65:64:f5:7a:19:2c:41:ce:21:9a:c4:cb:4a:cb:
                    8a:12:73:03:2a:7c:9b:43:3a:bd:e0:cd:ae:29:35:
                    89:51:c7:00:27:f7:df:06:d4:4a:83:02:63:39:ca:
                    8c:73:ad:96:7d:1e:88:60:4c:f9:f9:23:ea:da:9b:
                    32:90:f8:e6:fb:40:80:ec:6a:0a:38:82:dd:91:ba:
                    09:60:ba:34:80:24:85:75:fc:64:08:8b:55:80:e0:
                    0a:88:74:72:1d:d7:3e:cf:32:50:98:ef:24:01:47:
                    bd:62:be:b9:fa:7e:58:17:67:da:ee:fe:ce:81:61:
                    d4:ce:38:e7:55:89:16:05:ac:1d:62:ef:fa:14:b0:
                    b7:8e:88:d3:2b:62:eb:0d:c5:82:35:66:ba:e2:6c:
                    2b:7c:92:c1:a8:08:34:ce:de:1c:df:27:33:9a:8f:
                    47:e7:c0:0c:29:73:51:ee:d9:b7:f3:b1:72:3e:80:
                    95:2f:8b:de:6c:84:f6:04:34:0f:e0:70:3d:36:2c:
                    ac:94:cc:39:3e:bd:32:f5:d6:27:6a:66:c3:96:f1:
                    d5:7d:c2:0e:21:a6:20:87:9a:aa:9a:28:b0:1c:81:
                    76:66:0b
                Exponent: 65537 (0x10001)
        X509v3 extensions:
            X509v3 Basic Constraints: 
                CA:FALSE
            Netscape Comment: 
                Easy-RSA Generated Certificate
            X509v3 Subject Key Identifier: 
                F5:E0:2F:55:97:D3:08:A6:7D:FD:8D:FC:44:12:8A:98:F3:80:E3:2D
            X509v3 Authority Key Identifier: 
                keyid:EF:38:8D:14:50:58:A7:5B:4D:9C:17:72:FC:DF:B9:AC:A7:51:B0:10
                DirName:/C=US/ST=CA/L=SanFrancisco/O=Pixglo, Inc./OU=VPN-CIE/CN=tunnel.pixglo.com/name=Bala Chandrasekaran/emailAddress=bala@pixglo.com
                serial:A6:DB:C6:83:80:E6:A0:79

            X509v3 Extended Key Usage: 
                TLS Web Client Authentication
            X509v3 Key Usage: 
                Digital Signature
    Signature Algorithm: sha1WithRSAEncryption
         7b:1f:24:2b:df:b7:b4:22:9b:c9:06:c2:9e:50:54:6f:0a:f9:
         66:09:f3:e4:d8:19:8f:ae:60:d5:78:b8:a4:82:93:a7:9b:86:
         11:5a:54:77:58:e1:4d:a3:44:29:d3:1e:c7:29:06:32:58:6a:
         64:2b:3c:bc:ce:93:94:9c:e9:6a:38:23:7c:70:48:48:9f:45:
         28:8b:a7:88:e5:32:a8:d1:fa:8f:c5:1d:fa:e4:a7:b6:7f:8e:
         db:0f:7d:72:5d:42:2e:24:06:c1:29:cb:60:d9:d9:fd:75:4d:
         4e:48:84:09:6f:5a:9d:29:90:da:94:6b:c5:40:9b:8e:29:96:
         a4:b4:2e:2b:7d:1f:66:89:fd:34:76:e6:81:ba:78:e1:35:a2:
         fb:2e:bb:ad:61:af:84:2e:82:72:10:1a:4b:f4:c7:9d:ba:5f:
         a6:b2:6d:8e:f0:34:d0:92:ec:7d:9f:9a:1f:af:b5:f5:a8:c4:
         48:e1:bb:57:89:93:da:af:47:b4:e5:7f:8e:e1:90:de:67:ae:
         a8:c3:dc:1f:81:93:13:f2:b0:d8:15:c7:04:7c:de:5e:83:d2:
         03:7b:a4:81:9e:6a:7f:5f:da:7b:7e:19:91:04:f1:94:bb:d2:
         4b:e9:e5:f0:6d:c2:2f:33:a6:e9:04:3b:5a:4d:3f:f7:32:c5:
         40:de:68:2e:08:50:0e:07:b2:0c:ce:df:46:4d:a3:e2:7a:01:
         7f:7b:e9:87:ae:d0:84:6a:59:74:38:f9:ca:b0:3f:57:41:a2:
         b5:48:f0:b4:cc:02:45:0f:f1:05:97:91:2c:39:48:4f:20:68:
         5e:42:50:ba:3f:5e:ce:b6:55:fe:f6:4b:1b:51:fb:25:c2:bc:
         87:8d:1e:9d:19:08:4c:d6:75:cd:15:bf:11:dd:8a:9b:de:a1:
         10:09:88:30:8d:c5:06:46:be:60:08:df:6c:2b:6f:4d:fa:db:
         fa:c6:32:29:71:f6:9f:c8:ec:83:c3:76:96:6c:0a:e7:36:21:
         63:93:4c:a1:c1:66:c9:57:7b:c3:23:33:60:38:f4:8c:7f:ba:
         8a:9a:44:66:7c:24:85:df:9f:c0:d3:59:57:c8:29:ac:11:82:
         83:74:41:67:db:46:64:a2:3f:93:25:dd:20:d3:ab:71:de:93:
         5f:e0:3f:05:3d:74:54:a0:c4:0e:78:fe:14:0f:c5:3b:80:c6:
         17:45:be:88:b2:1e:fb:63:15:7d:4a:05:1c:0a:8e:fc:78:75:
         ac:36:87:82:3c:28:47:77:53:bb:75:00:04:5d:48:39:69:be:
         3f:ed:2d:36:ef:c9:50:2a:b3:7c:ab:bd:81:99:27:40:dd:76:
         01:a9:1a:32:d1:9e:13:76
-----BEGIN CERTIFICATE-----
MIIHSDCCBTCgAwIBAgICA6owDQYJKoZIhvcNAQEFBQAwgbQxCzAJBgNVBAYTAlVT
MQswCQYDVQQIEwJDQTEVMBMGA1UEBxMMU2FuRnJhbmNpc2NvMRUwEwYDVQQKEwxQ
aXhnbG8sIEluYy4xEDAOBgNVBAsTB1ZQTi1DSUUxGjAYBgNVBAMTEXR1bm5lbC5w
aXhnbG8uY29tMRwwGgYDVQQpExNCYWxhIENoYW5kcmFzZWthcmFuMR4wHAYJKoZI
hvcNAQkBFg9iYWxhQHBpeGdsby5jb20wHhcNMTgwMjE0MDY0ODM3WhcNMjgwMjEy
MDY0ODM3WjCBqTELMAkGA1UEBhMCVVMxCzAJBgNVBAgTAkNBMRUwEwYDVQQHEwxT
YW5GcmFuY2lzY28xFTATBgNVBAoTDFBpeGdsbywgSW5jLjEQMA4GA1UECxMHVlBO
LUNJRTEPMA0GA1UEAxMGY2llOTM3MRwwGgYDVQQpExNCYWxhIENoYW5kcmFzZWth
cmFuMR4wHAYJKoZIhvcNAQkBFg9iYWxhQHBpeGdsby5jb20wggIiMA0GCSqGSIb3
DQEBAQUAA4ICDwAwggIKAoICAQC16JrdqlbLxpQ7WBZ5ksp6iczq/y31gcz2haxA
YjV9kKzSWCh1RGApW2IJsao5prY4+weFoHI835ibLj2tq+reNF2q8O2rjK8SZmkO
KkGbhl6xj7gfqNlG0jbOahGcgn/37tMfO3M1OIXcML8OpOruFuWlBJgky6mFvBzH
V3jM6aRgZ8uQOt4m5gOcIA7bZLik/T1J8n6xnfCDEPc0S4o13cZ7Y/wVMY1smVPZ
Cd4ES3p5P387/SWagTSHsArOruJvwitgmRe/24TT3NGHXtR61kbgqsJZacHq83KA
/EsT+xv1HVnMPFGMehkZ6VHeKkGxKoZ31IUOlkC6rr75O8Dl2tAjHJ+O8fYU5nz+
l2FlL5CNL+tY8zfMVBrpPwNlZPV6GSxBziGaxMtKy4oScwMqfJtDOr3gza4pNYlR
xwAn998G1EqDAmM5yoxzrZZ9HohgTPn5I+ramzKQ+Ob7QIDsago4gt2RuglgujSA
JIV1/GQIi1WA4AqIdHId1z7PMlCY7yQBR71ivrn6flgXZ9ru/s6BYdTOOOdViRYF
rB1i7/oUsLeOiNMrYusNxYI1ZrribCt8ksGoCDTO3hzfJzOaj0fnwAwpc1Hu2bfz
sXI+gJUvi95shPYENA/gcD02LKyUzDk+vTL11idqZsOW8dV9wg4hpiCHmqqaKLAc
gXZmCwIDAQABo4IBazCCAWcwCQYDVR0TBAIwADAtBglghkgBhvhCAQ0EIBYeRWFz
eS1SU0EgR2VuZXJhdGVkIENlcnRpZmljYXRlMB0GA1UdDgQWBBT14C9Vl9MIpn39
jfxEEoqY84DjLTCB6QYDVR0jBIHhMIHegBTvOI0UUFinW02cF3L837msp1GwEKGB
uqSBtzCBtDELMAkGA1UEBhMCVVMxCzAJBgNVBAgTAkNBMRUwEwYDVQQHEwxTYW5G
cmFuY2lzY28xFTATBgNVBAoTDFBpeGdsbywgSW5jLjEQMA4GA1UECxMHVlBOLUNJ
RTEaMBgGA1UEAxMRdHVubmVsLnBpeGdsby5jb20xHDAaBgNVBCkTE0JhbGEgQ2hh
bmRyYXNla2FyYW4xHjAcBgkqhkiG9w0BCQEWD2JhbGFAcGl4Z2xvLmNvbYIJAKbb
xoOA5qB5MBMGA1UdJQQMMAoGCCsGAQUFBwMCMAsGA1UdDwQEAwIHgDANBgkqhkiG
9w0BAQUFAAOCAgEAex8kK9+3tCKbyQbCnlBUbwr5Zgnz5NgZj65g1Xi4pIKTp5uG
EVpUd1jhTaNEKdMexykGMlhqZCs8vM6TlJzpajgjfHBISJ9FKIuniOUyqNH6j8Ud
+uSntn+O2w99cl1CLiQGwSnLYNnZ/XVNTkiECW9anSmQ2pRrxUCbjimWpLQuK30f
Zon9NHbmgbp44TWi+y67rWGvhC6CchAaS/THnbpfprJtjvA00JLsfZ+aH6+19ajE
SOG7V4mT2q9HtOV/juGQ3meuqMPcH4GTE/Kw2BXHBHzeXoPSA3ukgZ5qf1/ae34Z
kQTxlLvSS+nl8G3CLzOm6QQ7Wk0/9zLFQN5oLghQDgeyDM7fRk2j4noBf3vph67Q
hGpZdDj5yrA/V0GitUjwtMwCRQ/xBZeRLDlITyBoXkJQuj9ezrZV/vZLG1H7JcK8
h40enRkITNZ1zRW/Ed2Km96hEAmIMI3FBka+YAjfbCtvTfrb+sYyKXH2n8jsg8N2
lmwK5zYhY5NMocFmyVd7wyMzYDj0jH+6ippEZnwkhd+fwNNZV8gprBGCg3RBZ9tG
ZKI/kyXdINOrcd6TX+A/BT10VKDEDnj+FA/FO4DGF0W+iLIe+2MVfUoFHAqO/Hh1
rDaHgjwoR3dTu3UABF1IOWm+P+0tNu/JUCqzfKu9gZknQN12AakaMtGeE3Y=
-----END CERTIFICATE-----
