Certificate:
    Data:
        Version: 3 (0x2)
        Serial Number: 942 (0x3ae)
    Signature Algorithm: sha1WithRSAEncryption
        Issuer: C=US, ST=CA, L=SanFrancisco, O=Pixglo, Inc., OU=VPN-CIE, CN=tunnel.pixglo.com/name=Bala Chandrasekaran/emailAddress=bala@pixglo.com
        Validity
            Not Before: Feb 14 06:48:46 2018 GMT
            Not After : Feb 12 06:48:46 2028 GMT
        Subject: C=US, ST=CA, L=SanFrancisco, O=Pixglo, Inc., OU=VPN-CIE, CN=cie941/name=Bala Chandrasekaran/emailAddress=bala@pixglo.com
        Subject Public Key Info:
            Public Key Algorithm: rsaEncryption
                Public-Key: (4096 bit)
                Modulus:
                    00:cc:7d:3e:93:c6:1b:30:4a:1e:84:92:81:03:1e:
                    02:79:6c:5c:37:23:7a:bb:19:35:b3:b6:4a:f7:03:
                    f0:57:fa:cd:b6:85:93:84:30:9e:28:88:f9:83:fa:
                    98:36:60:a4:a1:f5:42:f5:fe:d5:91:bd:e9:98:e1:
                    04:c7:10:97:2b:e7:48:44:06:8e:ef:16:c6:65:9a:
                    4e:e5:21:b4:0d:bd:32:38:f5:32:f5:87:ef:70:93:
                    49:21:c8:28:ac:f8:b0:21:7f:73:c5:db:40:0b:38:
                    92:2d:c9:5e:b8:f8:ba:bc:6e:ab:c6:7e:d1:d3:fe:
                    88:28:7e:80:b7:5a:54:25:92:5b:03:df:46:d4:9a:
                    90:b2:db:7c:f1:2e:81:fe:ca:59:d8:55:a5:b0:01:
                    f5:68:17:5b:c0:60:54:d7:a3:62:79:24:69:93:87:
                    af:b9:1e:ee:0f:5c:b3:a4:c4:48:0b:a8:ac:eb:04:
                    97:d7:2e:fc:90:24:5d:89:d7:78:16:2f:e0:b8:54:
                    d7:c1:03:51:19:f1:ef:c6:7e:63:68:af:ac:e5:77:
                    c3:57:a9:97:e4:6c:bf:6e:20:ba:8e:8d:69:90:65:
                    f8:11:06:17:bd:27:3a:32:d3:c2:20:85:db:08:da:
                    fd:76:fa:70:5c:3a:e9:51:29:1c:31:1d:18:8c:44:
                    b8:80:f8:2a:6b:5f:6e:39:fc:3c:04:f0:eb:a3:b5:
                    3b:17:7a:77:54:78:40:0d:3b:6c:9c:dd:e4:3b:ca:
                    d5:69:4c:d6:8e:30:8d:50:66:a0:bd:bb:b7:e5:0d:
                    23:f7:5f:fd:30:36:e4:71:78:73:77:3b:64:29:89:
                    8a:07:b9:c6:2b:5a:76:ad:c8:76:7c:f7:38:93:25:
                    43:1d:c2:01:10:2d:63:ba:28:38:f2:65:bc:31:7d:
                    65:0e:ed:d0:46:ab:87:f5:34:c0:b7:19:0b:70:79:
                    87:d8:06:25:9a:04:19:e7:36:86:de:8b:e3:50:d4:
                    9b:52:48:18:cd:5f:f7:96:35:92:e2:ba:32:96:45:
                    8d:ac:1d:16:27:c6:5d:e4:4b:47:ec:32:f7:5a:11:
                    fa:34:7a:40:a3:d8:1b:00:20:fa:0c:cc:3a:5f:3e:
                    ec:24:55:07:1f:8f:45:25:3c:12:80:1e:6b:af:05:
                    65:96:51:a7:b5:3c:b9:49:94:bf:75:a9:84:4d:95:
                    8c:d4:db:34:d3:8c:c3:8b:9b:64:c0:b0:70:6f:6d:
                    82:41:76:62:aa:ac:4a:27:b3:67:a4:d2:7e:f3:1b:
                    3d:3a:bf:c2:3d:d3:af:fd:34:1f:78:83:c3:0d:0a:
                    bc:79:0a:ec:7c:22:d3:ed:7a:43:a0:c1:4b:b1:ef:
                    99:81:87
                Exponent: 65537 (0x10001)
        X509v3 extensions:
            X509v3 Basic Constraints: 
                CA:FALSE
            Netscape Comment: 
                Easy-RSA Generated Certificate
            X509v3 Subject Key Identifier: 
                FD:9D:66:13:31:19:84:41:9F:44:2F:CD:78:37:4D:63:40:F3:F4:A6
            X509v3 Authority Key Identifier: 
                keyid:EF:38:8D:14:50:58:A7:5B:4D:9C:17:72:FC:DF:B9:AC:A7:51:B0:10
                DirName:/C=US/ST=CA/L=SanFrancisco/O=Pixglo, Inc./OU=VPN-CIE/CN=tunnel.pixglo.com/name=Bala Chandrasekaran/emailAddress=bala@pixglo.com
                serial:A6:DB:C6:83:80:E6:A0:79

            X509v3 Extended Key Usage: 
                TLS Web Client Authentication
            X509v3 Key Usage: 
                Digital Signature
    Signature Algorithm: sha1WithRSAEncryption
         1b:81:12:22:ca:d7:a3:c9:75:a9:cb:e6:c6:d3:22:4d:58:7a:
         c2:c5:66:2c:38:eb:18:69:e2:4b:e3:c7:66:05:11:9e:f0:64:
         7b:03:35:98:8b:43:c1:e6:7d:6c:dc:d0:6c:fe:1c:d9:42:94:
         cd:ec:4e:be:51:77:a0:d6:bd:68:e1:56:50:50:b3:ab:29:b7:
         b7:68:60:e1:40:e7:27:65:ee:48:66:e6:c1:5c:0e:96:29:82:
         94:8f:8e:ab:c7:ff:45:98:3c:b9:1c:10:6f:23:23:de:f3:ca:
         b5:57:36:0d:6f:41:50:87:c1:6f:ca:d3:f5:be:79:ce:83:4f:
         a9:08:f5:1b:db:fa:41:5a:9b:da:c6:67:ee:3d:6a:24:58:08:
         c5:0e:ad:85:a9:6e:39:d5:4c:f8:38:71:9e:d1:4f:c4:09:5e:
         26:2b:91:f3:e0:c8:b8:c2:f9:8c:c5:ff:d0:15:43:f3:3d:b5:
         66:75:a9:27:3b:43:04:52:e3:81:9e:72:5d:bb:11:6e:51:b9:
         a8:ab:e1:70:40:ec:99:fc:9f:c6:b4:0e:91:0d:f8:76:98:08:
         99:bf:3f:9d:1f:dd:fc:d1:ef:54:93:fd:c1:22:4e:4c:e7:ca:
         7a:19:06:00:39:00:ee:bc:82:9d:a6:57:e8:fa:3f:e5:7b:4d:
         89:7c:01:87:29:dc:67:1e:7f:f1:f2:cc:bf:79:c2:05:5d:4e:
         c9:ca:b8:54:f9:cd:7f:82:05:00:e1:c8:55:da:5c:b2:70:4c:
         cc:21:ae:d8:d8:65:d0:97:6f:ee:ed:26:79:c0:ae:fd:ad:b5:
         d4:05:00:ae:e6:a5:6f:fa:d4:8c:93:2e:51:6d:82:d6:4b:b5:
         51:be:75:2f:b8:a9:8a:a9:3e:68:95:2b:95:81:8d:15:c8:a5:
         75:1e:25:49:f8:45:ef:1a:72:9f:e4:49:50:9a:b5:82:91:25:
         af:8d:48:25:c4:96:0d:7e:d5:98:5d:37:07:5a:11:3a:ff:dc:
         8e:f3:59:9c:c9:2c:0d:8a:cf:90:f8:07:e7:7d:a6:2e:5d:61:
         5a:e4:de:29:88:64:cb:3d:9f:b1:1f:36:82:8e:00:be:ec:43:
         12:3d:67:04:6d:4e:4a:36:44:ff:25:37:9f:bd:fd:cd:58:bc:
         49:ae:b9:f0:cf:31:6e:6d:49:47:33:03:5e:96:60:9c:05:cc:
         4d:ff:1b:d5:ad:d6:ff:0e:c3:7c:04:87:2c:57:1f:7a:ff:d4:
         ab:e0:06:82:e1:a7:cd:79:8b:86:a9:cb:56:8a:68:42:86:8f:
         21:62:7a:8a:61:05:51:82:e7:c6:f1:b7:69:c9:b6:cf:09:0c:
         70:43:fd:69:e0:74:60:82
-----BEGIN CERTIFICATE-----
MIIHSDCCBTCgAwIBAgICA64wDQYJKoZIhvcNAQEFBQAwgbQxCzAJBgNVBAYTAlVT
MQswCQYDVQQIEwJDQTEVMBMGA1UEBxMMU2FuRnJhbmNpc2NvMRUwEwYDVQQKEwxQ
aXhnbG8sIEluYy4xEDAOBgNVBAsTB1ZQTi1DSUUxGjAYBgNVBAMTEXR1bm5lbC5w
aXhnbG8uY29tMRwwGgYDVQQpExNCYWxhIENoYW5kcmFzZWthcmFuMR4wHAYJKoZI
hvcNAQkBFg9iYWxhQHBpeGdsby5jb20wHhcNMTgwMjE0MDY0ODQ2WhcNMjgwMjEy
MDY0ODQ2WjCBqTELMAkGA1UEBhMCVVMxCzAJBgNVBAgTAkNBMRUwEwYDVQQHEwxT
YW5GcmFuY2lzY28xFTATBgNVBAoTDFBpeGdsbywgSW5jLjEQMA4GA1UECxMHVlBO
LUNJRTEPMA0GA1UEAxMGY2llOTQxMRwwGgYDVQQpExNCYWxhIENoYW5kcmFzZWth
cmFuMR4wHAYJKoZIhvcNAQkBFg9iYWxhQHBpeGdsby5jb20wggIiMA0GCSqGSIb3
DQEBAQUAA4ICDwAwggIKAoICAQDMfT6TxhswSh6EkoEDHgJ5bFw3I3q7GTWztkr3
A/BX+s22hZOEMJ4oiPmD+pg2YKSh9UL1/tWRvemY4QTHEJcr50hEBo7vFsZlmk7l
IbQNvTI49TL1h+9wk0khyCis+LAhf3PF20ALOJItyV64+Lq8bqvGftHT/ogofoC3
WlQlklsD30bUmpCy23zxLoH+ylnYVaWwAfVoF1vAYFTXo2J5JGmTh6+5Hu4PXLOk
xEgLqKzrBJfXLvyQJF2J13gWL+C4VNfBA1EZ8e/GfmNor6zld8NXqZfkbL9uILqO
jWmQZfgRBhe9Jzoy08IghdsI2v12+nBcOulRKRwxHRiMRLiA+CprX245/DwE8Ouj
tTsXendUeEANO2yc3eQ7ytVpTNaOMI1QZqC9u7flDSP3X/0wNuRxeHN3O2QpiYoH
ucYrWnatyHZ89ziTJUMdwgEQLWO6KDjyZbwxfWUO7dBGq4f1NMC3GQtweYfYBiWa
BBnnNobei+NQ1JtSSBjNX/eWNZLiujKWRY2sHRYnxl3kS0fsMvdaEfo0ekCj2BsA
IPoMzDpfPuwkVQcfj0UlPBKAHmuvBWWWUae1PLlJlL91qYRNlYzU2zTTjMOLm2TA
sHBvbYJBdmKqrEons2ek0n7zGz06v8I906/9NB94g8MNCrx5Cux8ItPtekOgwUux
75mBhwIDAQABo4IBazCCAWcwCQYDVR0TBAIwADAtBglghkgBhvhCAQ0EIBYeRWFz
eS1SU0EgR2VuZXJhdGVkIENlcnRpZmljYXRlMB0GA1UdDgQWBBT9nWYTMRmEQZ9E
L814N01jQPP0pjCB6QYDVR0jBIHhMIHegBTvOI0UUFinW02cF3L837msp1GwEKGB
uqSBtzCBtDELMAkGA1UEBhMCVVMxCzAJBgNVBAgTAkNBMRUwEwYDVQQHEwxTYW5G
cmFuY2lzY28xFTATBgNVBAoTDFBpeGdsbywgSW5jLjEQMA4GA1UECxMHVlBOLUNJ
RTEaMBgGA1UEAxMRdHVubmVsLnBpeGdsby5jb20xHDAaBgNVBCkTE0JhbGEgQ2hh
bmRyYXNla2FyYW4xHjAcBgkqhkiG9w0BCQEWD2JhbGFAcGl4Z2xvLmNvbYIJAKbb
xoOA5qB5MBMGA1UdJQQMMAoGCCsGAQUFBwMCMAsGA1UdDwQEAwIHgDANBgkqhkiG
9w0BAQUFAAOCAgEAG4ESIsrXo8l1qcvmxtMiTVh6wsVmLDjrGGniS+PHZgURnvBk
ewM1mItDweZ9bNzQbP4c2UKUzexOvlF3oNa9aOFWUFCzqym3t2hg4UDnJ2XuSGbm
wVwOlimClI+Oq8f/RZg8uRwQbyMj3vPKtVc2DW9BUIfBb8rT9b55zoNPqQj1G9v6
QVqb2sZn7j1qJFgIxQ6thaluOdVM+DhxntFPxAleJiuR8+DIuML5jMX/0BVD8z21
ZnWpJztDBFLjgZ5yXbsRblG5qKvhcEDsmfyfxrQOkQ34dpgImb8/nR/d/NHvVJP9
wSJOTOfKehkGADkA7ryCnaZX6Po/5XtNiXwBhyncZx5/8fLMv3nCBV1Oycq4VPnN
f4IFAOHIVdpcsnBMzCGu2Nhl0Jdv7u0mecCu/a211AUArualb/rUjJMuUW2C1ku1
Ub51L7ipiqk+aJUrlYGNFcildR4lSfhF7xpyn+RJUJq1gpElr41IJcSWDX7VmF03
B1oROv/cjvNZnMksDYrPkPgH532mLl1hWuTeKYhkyz2fsR82go4AvuxDEj1nBG1O
SjZE/yU3n739zVi8Sa658M8xbm1JRzMDXpZgnAXMTf8b1a3W/w7DfASHLFcfev/U
q+AGguGnzXmLhqnLVopoQoaPIWJ6imEFUYLnxvG3acm2zwkMcEP9aeB0YII=
-----END CERTIFICATE-----
