Certificate:
    Data:
        Version: 3 (0x2)
        Serial Number: 948 (0x3b4)
    Signature Algorithm: sha1WithRSAEncryption
        Issuer: C=US, ST=CA, L=SanFrancisco, O=Pixglo, Inc., OU=VPN-CIE, CN=tunnel.pixglo.com/name=Bala Chandrasekaran/emailAddress=bala@pixglo.com
        Validity
            Not Before: Feb 14 06:48:56 2018 GMT
            Not After : Feb 12 06:48:56 2028 GMT
        Subject: C=US, ST=CA, L=SanFrancisco, O=Pixglo, Inc., OU=VPN-CIE, CN=cie947/name=Bala Chandrasekaran/emailAddress=bala@pixglo.com
        Subject Public Key Info:
            Public Key Algorithm: rsaEncryption
                Public-Key: (4096 bit)
                Modulus:
                    00:93:b2:f4:ff:5f:2d:6a:d6:dd:23:39:9e:35:c2:
                    ad:ea:89:f8:03:6e:41:55:78:29:08:d9:5a:73:af:
                    f1:f7:78:af:80:86:a8:b3:74:16:c9:5e:40:94:ad:
                    e0:7f:55:1d:59:be:eb:68:48:55:17:99:8b:54:77:
                    9b:cf:df:ec:d9:ff:aa:07:fb:0f:f2:e5:ad:fa:d5:
                    4f:ca:1a:3c:47:d9:9f:3c:ef:57:26:84:25:18:98:
                    a9:17:b2:14:b7:c6:e0:cd:97:60:d2:7f:12:b0:65:
                    55:e4:20:f6:22:9e:8c:32:d1:f0:8a:db:32:dd:15:
                    da:f7:42:8a:c1:dd:d4:c8:33:bf:52:dd:b9:3a:93:
                    0b:6e:cc:17:31:20:43:1b:6a:b8:16:dd:97:9d:f8:
                    51:ef:14:9c:e6:d8:86:fe:dd:aa:15:8a:f1:ff:12:
                    3b:c1:28:55:d8:11:0b:96:dc:5d:79:4f:fb:ff:28:
                    82:a4:91:fb:1c:88:a4:87:ee:2f:1b:80:94:43:28:
                    fb:ab:b9:b4:46:76:5a:88:9f:c2:a5:cb:a7:4c:df:
                    42:db:7a:bd:57:14:33:71:88:9f:cb:0b:54:17:b8:
                    82:f4:a2:07:05:24:bc:b2:a9:cf:cd:0e:95:28:1e:
                    c3:e4:1e:6f:c0:1a:99:a6:b8:21:22:bc:69:89:f2:
                    9d:1b:58:22:2f:b3:38:26:09:32:0a:b3:1d:aa:3f:
                    21:fb:c6:87:a7:a2:9d:3c:ed:ce:72:90:be:95:b2:
                    89:cf:2e:00:c1:5c:f0:1b:fa:1c:21:b6:1e:2a:ca:
                    50:da:88:48:3c:3f:65:df:cc:f2:f5:33:65:92:2c:
                    4d:25:02:3f:c1:04:19:c5:62:35:5f:13:fa:34:41:
                    47:97:12:b6:2d:b8:e8:8a:84:48:2e:8b:47:49:fb:
                    de:6a:7e:54:c5:d1:7d:4b:7a:ce:36:f1:71:5c:cc:
                    b4:a5:d3:de:46:7e:77:80:25:07:cb:55:d6:80:81:
                    6a:56:78:8b:40:21:73:fc:a5:ff:e7:03:7e:36:e3:
                    63:d0:c0:ea:56:f4:f6:55:c1:58:54:5b:a9:b3:c8:
                    ed:55:a1:87:f8:e6:93:51:fd:aa:45:0a:a7:97:ac:
                    e3:73:3b:a8:cf:ef:60:5f:1a:9a:29:73:9c:78:6f:
                    42:ce:16:49:cd:fa:9e:77:86:08:7c:b0:f9:3c:86:
                    e3:fb:a1:42:65:53:3d:b0:e7:ee:64:18:d0:62:9a:
                    5c:91:74:0d:c4:ce:70:54:a3:de:cb:b4:eb:75:ef:
                    da:15:9d:cb:f2:95:0a:e4:35:2b:d9:5a:76:6a:35:
                    0f:26:87:e8:5f:85:62:20:53:57:0e:17:f1:de:96:
                    47:76:65
                Exponent: 65537 (0x10001)
        X509v3 extensions:
            X509v3 Basic Constraints: 
                CA:FALSE
            Netscape Comment: 
                Easy-RSA Generated Certificate
            X509v3 Subject Key Identifier: 
                D5:4E:9D:E6:EE:44:3D:60:9F:BE:BB:97:A9:AC:D5:A3:39:10:ED:F3
            X509v3 Authority Key Identifier: 
                keyid:EF:38:8D:14:50:58:A7:5B:4D:9C:17:72:FC:DF:B9:AC:A7:51:B0:10
                DirName:/C=US/ST=CA/L=SanFrancisco/O=Pixglo, Inc./OU=VPN-CIE/CN=tunnel.pixglo.com/name=Bala Chandrasekaran/emailAddress=bala@pixglo.com
                serial:A6:DB:C6:83:80:E6:A0:79

            X509v3 Extended Key Usage: 
                TLS Web Client Authentication
            X509v3 Key Usage: 
                Digital Signature
    Signature Algorithm: sha1WithRSAEncryption
         b0:91:c6:f0:15:4a:44:35:4d:0e:4c:31:65:20:62:91:c0:90:
         c4:52:22:93:bc:c2:6b:56:9b:cd:b7:b9:a7:9a:06:95:02:38:
         e3:fd:16:aa:c2:c9:6d:b7:d4:93:6e:40:d6:55:d1:ce:0c:64:
         90:67:2b:bf:ce:1e:62:2d:82:26:81:f9:70:31:a5:f1:a1:90:
         4a:9f:81:e5:2e:b0:f9:0b:1e:ba:cf:4c:13:90:01:9b:8a:3e:
         70:c7:52:ad:28:aa:67:d2:c1:21:e0:04:82:a6:e1:8c:d2:ad:
         92:b2:b6:bf:d5:b1:9d:4e:0b:bc:50:28:04:56:cb:db:5a:01:
         d6:4c:9c:12:44:86:c9:98:38:10:f3:0b:2b:0e:43:6e:40:1b:
         42:e1:e1:b9:23:f8:48:88:8a:b6:8b:39:9f:35:4a:09:1f:03:
         1f:73:b7:2d:34:1c:12:d8:0b:64:d0:2f:61:7a:ee:dd:ca:9d:
         c7:a8:1f:c1:5e:3b:4c:51:0f:65:63:9a:56:24:46:cb:f1:cb:
         e9:96:98:a9:87:3d:7b:8f:8f:4b:4f:28:90:95:56:b8:bf:46:
         58:ef:8d:35:1b:c6:8d:94:dc:78:2d:f2:37:3e:7d:4f:53:56:
         46:01:b6:d2:a8:f0:9c:22:5c:e2:b6:59:5e:92:bd:74:25:f8:
         c0:79:30:01:52:de:42:ed:7c:c0:e8:15:4d:f3:cc:17:50:d1:
         ba:68:3b:dd:9c:1b:17:b9:fc:ef:77:b3:95:b5:a8:75:6f:38:
         b5:de:ec:f5:10:e9:af:eb:c2:cb:e3:19:eb:53:0e:9b:c7:af:
         b3:ee:14:97:bb:c1:f0:2f:8e:40:56:ff:d1:49:7b:91:7b:08:
         4d:f8:4e:68:f8:60:eb:62:ad:0e:e7:93:3b:5a:28:96:c3:83:
         d2:cb:04:3c:bf:5b:39:b5:49:cb:ec:f9:f2:c3:41:39:68:ad:
         58:57:f1:ac:a8:09:f6:75:dd:e4:4f:66:fe:8a:a0:a7:a5:ff:
         a1:82:c6:4a:2c:7f:32:ca:10:93:8e:5c:17:ec:2c:6b:17:4e:
         71:17:f6:80:55:72:8c:b4:13:89:11:b7:23:36:51:05:3c:2c:
         e3:a4:59:1b:7a:bf:c1:a2:47:1a:db:f3:c3:2c:d9:22:ec:0c:
         4f:a2:c7:fc:61:0b:c3:f7:3c:d6:ed:3c:4c:8d:02:5d:92:41:
         8e:b0:a7:cf:d5:f7:9b:62:4c:f1:31:d3:71:94:cb:25:74:f6:
         92:49:92:0c:94:c3:d4:4c:d1:25:59:3d:d0:ca:d1:9a:8c:a0:
         ed:32:62:aa:bc:be:08:65:01:62:a8:fc:96:d4:95:87:78:a7:
         7e:ec:49:b7:a2:0f:0e:50
-----BEGIN CERTIFICATE-----
MIIHSDCCBTCgAwIBAgICA7QwDQYJKoZIhvcNAQEFBQAwgbQxCzAJBgNVBAYTAlVT
MQswCQYDVQQIEwJDQTEVMBMGA1UEBxMMU2FuRnJhbmNpc2NvMRUwEwYDVQQKEwxQ
aXhnbG8sIEluYy4xEDAOBgNVBAsTB1ZQTi1DSUUxGjAYBgNVBAMTEXR1bm5lbC5w
aXhnbG8uY29tMRwwGgYDVQQpExNCYWxhIENoYW5kcmFzZWthcmFuMR4wHAYJKoZI
hvcNAQkBFg9iYWxhQHBpeGdsby5jb20wHhcNMTgwMjE0MDY0ODU2WhcNMjgwMjEy
MDY0ODU2WjCBqTELMAkGA1UEBhMCVVMxCzAJBgNVBAgTAkNBMRUwEwYDVQQHEwxT
YW5GcmFuY2lzY28xFTATBgNVBAoTDFBpeGdsbywgSW5jLjEQMA4GA1UECxMHVlBO
LUNJRTEPMA0GA1UEAxMGY2llOTQ3MRwwGgYDVQQpExNCYWxhIENoYW5kcmFzZWth
cmFuMR4wHAYJKoZIhvcNAQkBFg9iYWxhQHBpeGdsby5jb20wggIiMA0GCSqGSIb3
DQEBAQUAA4ICDwAwggIKAoICAQCTsvT/Xy1q1t0jOZ41wq3qifgDbkFVeCkI2Vpz
r/H3eK+AhqizdBbJXkCUreB/VR1ZvutoSFUXmYtUd5vP3+zZ/6oH+w/y5a361U/K
GjxH2Z8871cmhCUYmKkXshS3xuDNl2DSfxKwZVXkIPYinowy0fCK2zLdFdr3QorB
3dTIM79S3bk6kwtuzBcxIEMbargW3Zed+FHvFJzm2Ib+3aoVivH/EjvBKFXYEQuW
3F15T/v/KIKkkfsciKSH7i8bgJRDKPurubRGdlqIn8Kly6dM30Lber1XFDNxiJ/L
C1QXuIL0ogcFJLyyqc/NDpUoHsPkHm/AGpmmuCEivGmJ8p0bWCIvszgmCTIKsx2q
PyH7xoenop087c5ykL6VsonPLgDBXPAb+hwhth4qylDaiEg8P2XfzPL1M2WSLE0l
Aj/BBBnFYjVfE/o0QUeXErYtuOiKhEgui0dJ+95qflTF0X1Les428XFczLSl095G
fneAJQfLVdaAgWpWeItAIXP8pf/nA34242PQwOpW9PZVwVhUW6mzyO1VoYf45pNR
/apFCqeXrONzO6jP72BfGpopc5x4b0LOFknN+p53hgh8sPk8huP7oUJlUz2w5+5k
GNBimlyRdA3EznBUo97LtOt179oVncvylQrkNSvZWnZqNQ8mh+hfhWIgU1cOF/He
lkd2ZQIDAQABo4IBazCCAWcwCQYDVR0TBAIwADAtBglghkgBhvhCAQ0EIBYeRWFz
eS1SU0EgR2VuZXJhdGVkIENlcnRpZmljYXRlMB0GA1UdDgQWBBTVTp3m7kQ9YJ++
u5eprNWjORDt8zCB6QYDVR0jBIHhMIHegBTvOI0UUFinW02cF3L837msp1GwEKGB
uqSBtzCBtDELMAkGA1UEBhMCVVMxCzAJBgNVBAgTAkNBMRUwEwYDVQQHEwxTYW5G
cmFuY2lzY28xFTATBgNVBAoTDFBpeGdsbywgSW5jLjEQMA4GA1UECxMHVlBOLUNJ
RTEaMBgGA1UEAxMRdHVubmVsLnBpeGdsby5jb20xHDAaBgNVBCkTE0JhbGEgQ2hh
bmRyYXNla2FyYW4xHjAcBgkqhkiG9w0BCQEWD2JhbGFAcGl4Z2xvLmNvbYIJAKbb
xoOA5qB5MBMGA1UdJQQMMAoGCCsGAQUFBwMCMAsGA1UdDwQEAwIHgDANBgkqhkiG
9w0BAQUFAAOCAgEAsJHG8BVKRDVNDkwxZSBikcCQxFIik7zCa1abzbe5p5oGlQI4
4/0WqsLJbbfUk25A1lXRzgxkkGcrv84eYi2CJoH5cDGl8aGQSp+B5S6w+Qseus9M
E5ABm4o+cMdSrSiqZ9LBIeAEgqbhjNKtkrK2v9WxnU4LvFAoBFbL21oB1kycEkSG
yZg4EPMLKw5DbkAbQuHhuSP4SIiKtos5nzVKCR8DH3O3LTQcEtgLZNAvYXru3cqd
x6gfwV47TFEPZWOaViRGy/HL6ZaYqYc9e4+PS08okJVWuL9GWO+NNRvGjZTceC3y
Nz59T1NWRgG20qjwnCJc4rZZXpK9dCX4wHkwAVLeQu18wOgVTfPMF1DRumg73Zwb
F7n873ezlbWodW84td7s9RDpr+vCy+MZ61MOm8evs+4Ul7vB8C+OQFb/0Ul7kXsI
TfhOaPhg62KtDueTO1oolsOD0ssEPL9bObVJy+z58sNBOWitWFfxrKgJ9nXd5E9m
/oqgp6X/oYLGSix/MsoQk45cF+wsaxdOcRf2gFVyjLQTiRG3IzZRBTws46RZG3q/
waJHGtvzwyzZIuwMT6LH/GELw/c81u08TI0CXZJBjrCnz9X3m2JM8THTcZTLJXT2
kkmSDJTD1EzRJVk90MrRmoyg7TJiqry+CGUBYqj8ltSVh3infuxJt6IPDlA=
-----END CERTIFICATE-----
