Certificate:
    Data:
        Version: 3 (0x2)
        Serial Number: 949 (0x3b5)
    Signature Algorithm: sha1WithRSAEncryption
        Issuer: C=US, ST=CA, L=SanFrancisco, O=Pixglo, Inc., OU=VPN-CIE, CN=tunnel.pixglo.com/name=Bala Chandrasekaran/emailAddress=bala@pixglo.com
        Validity
            Not Before: Feb 14 06:48:59 2018 GMT
            Not After : Feb 12 06:48:59 2028 GMT
        Subject: C=US, ST=CA, L=SanFrancisco, O=Pixglo, Inc., OU=VPN-CIE, CN=cie948/name=Bala Chandrasekaran/emailAddress=bala@pixglo.com
        Subject Public Key Info:
            Public Key Algorithm: rsaEncryption
                Public-Key: (4096 bit)
                Modulus:
                    00:b5:e9:1f:1a:ad:e3:f7:79:ae:b2:68:27:4d:bb:
                    c6:e8:b4:14:30:80:c8:48:30:c9:e1:60:dc:1a:bc:
                    dc:ec:3c:a2:eb:dd:17:96:2e:5e:ac:74:ab:6b:4b:
                    0a:69:a4:ba:66:05:56:58:32:83:2c:4d:59:2a:df:
                    8d:95:a2:3b:d2:df:92:ef:f3:d9:e9:93:f5:95:7f:
                    3d:d9:5f:8e:30:41:e2:f4:8d:b3:f8:a7:c6:cb:f1:
                    89:12:f8:83:37:96:8b:7e:d0:b2:0d:75:1f:2f:2a:
                    6f:cd:57:b8:fb:15:f1:3d:27:3d:81:ce:9e:d8:e9:
                    02:53:a9:54:8e:54:25:68:39:9c:32:66:83:6d:1b:
                    e9:16:e9:6c:8a:c0:33:79:08:47:c7:ea:0a:2c:b4:
                    4e:8a:31:7f:48:eb:89:ac:84:cd:f0:29:38:ea:2d:
                    cd:ac:e0:4e:a1:dc:7f:71:fe:95:56:09:58:47:f1:
                    76:e7:25:9a:c4:db:1d:96:61:fa:91:29:60:35:68:
                    66:0b:ba:12:63:c7:8b:24:64:64:0a:36:de:bf:c2:
                    99:09:e2:b9:9d:16:21:f3:a8:ef:48:a3:de:38:6f:
                    6b:70:34:db:34:9a:7c:d9:39:17:f5:03:e5:22:9e:
                    0d:50:ca:df:cd:46:42:34:4c:1a:aa:89:4f:4b:8c:
                    3c:2c:26:f6:e3:69:2f:ca:1f:0a:10:42:12:b2:0c:
                    db:0e:5d:f3:d4:63:4a:9d:f6:94:d4:d8:09:75:17:
                    76:c4:04:7c:9c:5f:82:72:1b:bd:89:9f:48:76:45:
                    2e:a2:1f:36:eb:39:4f:16:02:4d:3a:a0:5e:0c:69:
                    98:fa:c4:b7:18:5e:9e:54:bf:87:99:07:cb:3a:ce:
                    ea:8f:3d:ab:75:da:8a:77:1c:96:94:bf:55:03:7e:
                    87:e0:11:75:91:b3:3d:6c:28:09:15:02:72:bb:28:
                    9b:9a:c0:e6:b2:07:fe:42:b2:3e:36:da:f0:c0:25:
                    5a:02:46:f0:5b:64:3b:cb:7c:61:b5:63:bb:0c:89:
                    dd:ba:41:b2:81:c2:d2:c8:20:51:2a:2b:76:e5:2c:
                    2b:f2:7d:b8:89:71:f1:bc:34:27:46:f3:22:6c:de:
                    94:63:09:cb:6d:b5:ca:12:c6:75:65:c5:56:d9:f6:
                    a9:74:ff:db:a4:1f:2d:00:ab:4b:31:96:7f:1c:ca:
                    52:e4:86:db:fd:ad:e6:60:9c:bb:3e:be:8a:8d:36:
                    26:f1:74:8e:03:a7:07:c3:5f:6c:93:20:43:61:0a:
                    17:ba:82:ce:88:a5:a5:dc:46:27:66:54:2f:b1:47:
                    39:ca:93:f6:b3:34:1d:43:f5:56:f8:dd:a8:f0:4b:
                    0c:0f:2f
                Exponent: 65537 (0x10001)
        X509v3 extensions:
            X509v3 Basic Constraints: 
                CA:FALSE
            Netscape Comment: 
                Easy-RSA Generated Certificate
            X509v3 Subject Key Identifier: 
                A5:9E:2A:31:60:9A:11:BC:B1:13:05:7A:C8:C1:8A:D5:7B:A7:A2:BA
            X509v3 Authority Key Identifier: 
                keyid:EF:38:8D:14:50:58:A7:5B:4D:9C:17:72:FC:DF:B9:AC:A7:51:B0:10
                DirName:/C=US/ST=CA/L=SanFrancisco/O=Pixglo, Inc./OU=VPN-CIE/CN=tunnel.pixglo.com/name=Bala Chandrasekaran/emailAddress=bala@pixglo.com
                serial:A6:DB:C6:83:80:E6:A0:79

            X509v3 Extended Key Usage: 
                TLS Web Client Authentication
            X509v3 Key Usage: 
                Digital Signature
    Signature Algorithm: sha1WithRSAEncryption
         8d:19:1c:d8:a9:ff:86:e6:c1:be:d2:47:74:89:27:7e:a3:03:
         1c:a9:c3:5e:dd:18:c3:67:9d:50:2b:98:e7:61:0d:dc:d6:ee:
         84:2f:60:23:2b:4f:60:bf:4b:d3:49:f1:41:6c:09:e6:88:76:
         dd:dc:82:86:20:bf:13:15:b0:ab:e4:bd:cf:9c:46:ab:67:68:
         9a:2f:ad:eb:a8:54:fe:2c:c2:79:ca:24:27:53:38:74:64:50:
         51:dd:64:18:a3:ea:8c:bf:c5:5c:8b:84:e6:54:80:6f:a9:17:
         68:5d:f1:59:ac:de:ef:c6:a9:90:97:3e:43:71:f7:6f:1c:02:
         c0:4c:de:a1:ff:0b:4e:7b:6c:6e:fb:3a:d3:8f:e1:db:c4:3a:
         6d:b5:f2:c0:9e:9a:5f:42:e1:d3:8f:25:a0:ee:5f:18:7e:26:
         00:af:7c:29:89:36:14:ba:7d:66:48:a0:d9:85:c1:96:54:25:
         a1:94:78:40:a9:94:d2:63:79:ec:34:98:93:d9:76:55:60:0c:
         aa:c0:30:1d:0d:c2:15:1c:c2:b3:fa:6c:4a:9e:94:89:e4:fe:
         7e:84:e0:b3:e4:ee:ef:c5:a1:04:39:48:66:37:83:78:ca:3b:
         a0:e1:3c:11:68:04:a6:dd:e9:1f:e3:4c:94:48:76:a4:fe:26:
         52:71:33:c5:63:67:48:52:27:4b:5f:40:6c:e5:52:92:90:db:
         f0:3b:fa:0c:22:29:23:86:92:e1:17:87:7a:bb:76:49:6a:e0:
         ae:f8:28:e9:d3:07:1d:6c:00:93:c6:96:9a:65:a0:b5:e9:2d:
         29:9f:2e:81:a4:27:9f:b8:7d:c9:07:44:55:f2:d8:c6:3f:e4:
         fe:00:45:42:ba:92:e9:e4:83:65:6b:64:e3:e6:52:bc:37:6c:
         c0:71:6f:67:c1:ad:43:c4:74:93:b4:2a:3b:1a:28:61:93:c2:
         d4:d1:91:ad:de:cf:16:c6:c4:46:0a:f3:d1:c2:aa:91:32:d7:
         bf:94:fd:21:79:53:ed:23:7d:3e:1f:ce:5b:ea:59:d7:40:0b:
         2f:ea:19:8e:d1:01:9a:e1:06:ce:ba:92:7a:1e:41:99:4a:73:
         2f:f0:16:cd:a8:11:bb:97:33:2d:28:b7:53:2f:bc:56:19:05:
         6c:6f:0f:24:f3:8c:b7:c3:2f:c6:77:6b:71:bc:ea:18:cb:6a:
         e0:2b:84:ea:f3:4a:93:01:de:a9:e7:9f:dc:29:c0:0e:c1:16:
         9f:5c:c2:ec:05:64:23:d0:5b:55:2c:5a:c6:cd:b6:d7:fd:cb:
         6e:0e:dd:1f:36:f3:cc:7f:46:13:99:46:33:32:fd:86:01:ed:
         55:33:1f:a9:07:9e:df:a5
-----BEGIN CERTIFICATE-----
MIIHSDCCBTCgAwIBAgICA7UwDQYJKoZIhvcNAQEFBQAwgbQxCzAJBgNVBAYTAlVT
MQswCQYDVQQIEwJDQTEVMBMGA1UEBxMMU2FuRnJhbmNpc2NvMRUwEwYDVQQKEwxQ
aXhnbG8sIEluYy4xEDAOBgNVBAsTB1ZQTi1DSUUxGjAYBgNVBAMTEXR1bm5lbC5w
aXhnbG8uY29tMRwwGgYDVQQpExNCYWxhIENoYW5kcmFzZWthcmFuMR4wHAYJKoZI
hvcNAQkBFg9iYWxhQHBpeGdsby5jb20wHhcNMTgwMjE0MDY0ODU5WhcNMjgwMjEy
MDY0ODU5WjCBqTELMAkGA1UEBhMCVVMxCzAJBgNVBAgTAkNBMRUwEwYDVQQHEwxT
YW5GcmFuY2lzY28xFTATBgNVBAoTDFBpeGdsbywgSW5jLjEQMA4GA1UECxMHVlBO
LUNJRTEPMA0GA1UEAxMGY2llOTQ4MRwwGgYDVQQpExNCYWxhIENoYW5kcmFzZWth
cmFuMR4wHAYJKoZIhvcNAQkBFg9iYWxhQHBpeGdsby5jb20wggIiMA0GCSqGSIb3
DQEBAQUAA4ICDwAwggIKAoICAQC16R8areP3ea6yaCdNu8botBQwgMhIMMnhYNwa
vNzsPKLr3ReWLl6sdKtrSwpppLpmBVZYMoMsTVkq342VojvS35Lv89npk/WVfz3Z
X44wQeL0jbP4p8bL8YkS+IM3lot+0LINdR8vKm/NV7j7FfE9Jz2Bzp7Y6QJTqVSO
VCVoOZwyZoNtG+kW6WyKwDN5CEfH6gostE6KMX9I64mshM3wKTjqLc2s4E6h3H9x
/pVWCVhH8XbnJZrE2x2WYfqRKWA1aGYLuhJjx4skZGQKNt6/wpkJ4rmdFiHzqO9I
o944b2twNNs0mnzZORf1A+Uing1Qyt/NRkI0TBqqiU9LjDwsJvbjaS/KHwoQQhKy
DNsOXfPUY0qd9pTU2Al1F3bEBHycX4JyG72Jn0h2RS6iHzbrOU8WAk06oF4MaZj6
xLcYXp5Uv4eZB8s6zuqPPat12op3HJaUv1UDfofgEXWRsz1sKAkVAnK7KJuawOay
B/5Csj422vDAJVoCRvBbZDvLfGG1Y7sMid26QbKBwtLIIFEqK3blLCvyfbiJcfG8
NCdG8yJs3pRjCctttcoSxnVlxVbZ9ql0/9ukHy0Aq0sxln8cylLkhtv9reZgnLs+
voqNNibxdI4DpwfDX2yTIENhChe6gs6IpaXcRidmVC+xRznKk/azNB1D9Vb43ajw
SwwPLwIDAQABo4IBazCCAWcwCQYDVR0TBAIwADAtBglghkgBhvhCAQ0EIBYeRWFz
eS1SU0EgR2VuZXJhdGVkIENlcnRpZmljYXRlMB0GA1UdDgQWBBSlnioxYJoRvLET
BXrIwYrVe6eiujCB6QYDVR0jBIHhMIHegBTvOI0UUFinW02cF3L837msp1GwEKGB
uqSBtzCBtDELMAkGA1UEBhMCVVMxCzAJBgNVBAgTAkNBMRUwEwYDVQQHEwxTYW5G
cmFuY2lzY28xFTATBgNVBAoTDFBpeGdsbywgSW5jLjEQMA4GA1UECxMHVlBOLUNJ
RTEaMBgGA1UEAxMRdHVubmVsLnBpeGdsby5jb20xHDAaBgNVBCkTE0JhbGEgQ2hh
bmRyYXNla2FyYW4xHjAcBgkqhkiG9w0BCQEWD2JhbGFAcGl4Z2xvLmNvbYIJAKbb
xoOA5qB5MBMGA1UdJQQMMAoGCCsGAQUFBwMCMAsGA1UdDwQEAwIHgDANBgkqhkiG
9w0BAQUFAAOCAgEAjRkc2Kn/hubBvtJHdIknfqMDHKnDXt0Yw2edUCuY52EN3Nbu
hC9gIytPYL9L00nxQWwJ5oh23dyChiC/ExWwq+S9z5xGq2domi+t66hU/izCecok
J1M4dGRQUd1kGKPqjL/FXIuE5lSAb6kXaF3xWaze78apkJc+Q3H3bxwCwEzeof8L
Tntsbvs604/h28Q6bbXywJ6aX0Lh048loO5fGH4mAK98KYk2FLp9Zkig2YXBllQl
oZR4QKmU0mN57DSYk9l2VWAMqsAwHQ3CFRzCs/psSp6UieT+foTgs+Tu78WhBDlI
ZjeDeMo7oOE8EWgEpt3pH+NMlEh2pP4mUnEzxWNnSFInS19AbOVSkpDb8Dv6DCIp
I4aS4ReHert2SWrgrvgo6dMHHWwAk8aWmmWgtektKZ8ugaQnn7h9yQdEVfLYxj/k
/gBFQrqS6eSDZWtk4+ZSvDdswHFvZ8GtQ8R0k7QqOxooYZPC1NGRrd7PFsbERgrz
0cKqkTLXv5T9IXlT7SN9Ph/OW+pZ10ALL+oZjtEBmuEGzrqSeh5BmUpzL/AWzagR
u5czLSi3Uy+8VhkFbG8PJPOMt8MvxndrcbzqGMtq4CuE6vNKkwHeqeef3CnADsEW
n1zC7AVkI9BbVSxaxs221/3Lbg7dHzbzzH9GE5lGMzL9hgHtVTMfqQee36U=
-----END CERTIFICATE-----
