Certificate:
    Data:
        Version: 3 (0x2)
        Serial Number: 950 (0x3b6)
    Signature Algorithm: sha1WithRSAEncryption
        Issuer: C=US, ST=CA, L=SanFrancisco, O=Pixglo, Inc., OU=VPN-CIE, CN=tunnel.pixglo.com/name=Bala Chandrasekaran/emailAddress=bala@pixglo.com
        Validity
            Not Before: Feb 14 06:49:00 2018 GMT
            Not After : Feb 12 06:49:00 2028 GMT
        Subject: C=US, ST=CA, L=SanFrancisco, O=Pixglo, Inc., OU=VPN-CIE, CN=cie949/name=Bala Chandrasekaran/emailAddress=bala@pixglo.com
        Subject Public Key Info:
            Public Key Algorithm: rsaEncryption
                Public-Key: (4096 bit)
                Modulus:
                    00:db:1f:54:10:29:7a:23:26:bf:8b:d1:f9:32:f9:
                    14:b2:30:13:71:d9:96:1a:85:43:55:45:db:2e:e6:
                    2e:bd:ee:27:03:78:b8:02:8b:f2:37:4c:37:7e:91:
                    8a:86:dd:5f:34:c0:27:46:e2:88:d3:02:92:5b:30:
                    49:c9:9f:6e:0a:5f:bb:ad:27:05:a3:fd:7f:39:9f:
                    5d:c1:57:e9:06:2e:76:9d:45:e4:37:12:2a:1f:ac:
                    98:82:da:14:3d:4f:89:7b:38:71:a8:24:64:d9:35:
                    63:f3:92:70:8d:14:ef:93:c7:36:cb:29:fa:b2:db:
                    9a:ed:8a:c2:3d:21:8b:c7:a0:fc:d2:a9:dd:de:97:
                    f0:d2:5b:88:bc:f5:1b:a7:eb:43:c4:2e:81:11:4b:
                    e9:71:b0:9e:ef:a5:78:1a:02:ef:16:a7:e9:bc:72:
                    44:c3:f6:07:1c:b7:95:6f:d0:8b:6d:97:17:b4:17:
                    d0:cd:92:86:9c:80:df:e0:44:7c:43:4b:7f:bf:dd:
                    f0:84:41:6e:f9:ac:9e:96:74:d6:8d:4b:41:a0:61:
                    a3:bd:27:be:a8:90:b6:81:60:d3:f3:f3:43:6c:e6:
                    cb:35:3c:4d:47:5b:0e:20:45:c1:59:28:c4:60:58:
                    46:39:ff:55:f9:8a:96:60:df:2d:58:c4:12:73:67:
                    64:1f:c7:b6:97:1b:0c:84:b3:c4:4d:5e:44:87:d8:
                    6a:d0:04:9c:9f:9c:a9:2d:d0:ff:39:36:9b:ce:4a:
                    fe:73:20:d8:e0:cd:26:b7:c2:8f:f1:64:fb:59:ac:
                    af:6e:d6:24:32:58:56:82:99:7c:a2:5b:a5:03:3d:
                    bb:cc:f7:21:d7:37:b3:40:0d:a0:42:1b:e3:e5:3a:
                    30:59:5e:bf:52:d1:ef:1a:c3:ab:f2:c8:78:c3:0c:
                    8a:3b:42:bc:f0:7b:d7:79:04:ac:73:8c:53:31:e8:
                    72:4a:be:5a:b3:2b:69:ad:9d:e3:1c:70:42:d3:96:
                    6e:d0:c1:3f:9e:5c:f0:8f:ec:dc:7b:38:92:bc:bf:
                    32:b6:08:66:32:88:24:97:f2:92:2e:ce:d7:a6:a8:
                    45:1c:96:14:65:77:26:44:32:ed:48:76:5b:cc:7b:
                    57:69:9c:b3:39:95:e0:8d:a1:ae:41:81:6d:42:96:
                    77:1d:78:8a:ee:b5:6a:b4:da:a8:17:53:3c:9f:05:
                    dc:bb:d7:22:86:ff:bf:95:c8:38:c5:a2:c1:6a:f1:
                    b9:75:ac:e1:b0:6e:ea:1e:e7:91:00:36:b1:85:51:
                    86:39:31:20:a1:35:04:5f:07:a4:2b:b4:0c:96:d4:
                    a1:5b:ab:fe:7a:56:30:db:75:3c:15:89:42:34:aa:
                    54:c8:5b
                Exponent: 65537 (0x10001)
        X509v3 extensions:
            X509v3 Basic Constraints: 
                CA:FALSE
            Netscape Comment: 
                Easy-RSA Generated Certificate
            X509v3 Subject Key Identifier: 
                06:F7:2C:5D:35:63:2B:6B:52:F7:9C:81:CA:53:8E:9E:49:9E:A7:1B
            X509v3 Authority Key Identifier: 
                keyid:EF:38:8D:14:50:58:A7:5B:4D:9C:17:72:FC:DF:B9:AC:A7:51:B0:10
                DirName:/C=US/ST=CA/L=SanFrancisco/O=Pixglo, Inc./OU=VPN-CIE/CN=tunnel.pixglo.com/name=Bala Chandrasekaran/emailAddress=bala@pixglo.com
                serial:A6:DB:C6:83:80:E6:A0:79

            X509v3 Extended Key Usage: 
                TLS Web Client Authentication
            X509v3 Key Usage: 
                Digital Signature
    Signature Algorithm: sha1WithRSAEncryption
         cf:d2:36:b9:25:fd:2d:3f:4e:b0:6e:06:61:3c:09:24:3f:1f:
         6f:13:ad:0d:71:43:e0:b3:e1:23:04:e3:48:13:9c:95:62:85:
         7f:c9:87:80:72:c2:ed:06:52:7e:8c:57:2e:c4:35:51:3e:3e:
         70:7b:2c:18:d8:38:f5:fd:3e:b5:86:14:0d:b0:15:ca:0e:1b:
         e2:cc:e2:4d:de:fd:39:80:fb:cb:16:d0:81:96:20:70:cf:de:
         8c:b7:6f:6b:97:75:0c:6c:9f:5d:53:66:e9:42:3b:2e:ab:a2:
         e5:e4:ba:31:55:08:a4:04:bb:7d:6d:b4:d2:aa:54:a3:c6:51:
         f8:1e:89:31:54:ca:56:10:32:fd:df:95:49:48:e9:7b:52:57:
         99:ba:0f:21:43:ff:ae:02:49:bd:e8:38:0b:e2:ba:dd:80:fc:
         75:6b:e1:61:1d:a0:51:4a:87:a8:d2:38:10:bf:44:71:d8:b4:
         09:0c:d2:e1:10:e8:ce:c6:59:5f:54:96:05:aa:c7:13:77:60:
         55:f3:9e:05:3b:30:3e:5a:e7:69:6f:92:dd:9e:e9:71:af:40:
         0a:38:d1:a4:43:ec:c0:0f:62:2c:26:77:4c:9e:c2:eb:1c:f4:
         c7:c1:86:41:5d:b3:cf:92:a3:96:7a:19:7c:01:4e:2d:7f:88:
         40:bd:a7:02:18:8b:57:ec:f6:44:f7:d8:c9:4f:04:22:59:84:
         ff:c2:d2:16:64:2f:bc:18:97:6a:11:2b:d6:f0:d3:f6:a9:06:
         50:f0:66:66:e4:ad:13:95:ec:9e:29:59:62:8f:9d:85:42:af:
         e0:8f:0b:da:4a:2c:1f:95:02:ba:cb:bf:ef:1f:e8:a1:19:a3:
         7e:5c:de:6e:1d:80:18:8b:25:06:6c:05:d6:4b:aa:10:46:a9:
         17:87:a7:6a:0a:a0:90:2a:88:0d:41:2a:a4:f6:aa:53:5c:8f:
         d0:ab:9c:1d:bf:a5:a5:50:cc:30:af:aa:1e:e8:ff:49:6d:41:
         9b:02:05:4c:87:d3:22:58:d5:68:dc:22:61:ab:3d:77:a2:39:
         c3:81:b2:2e:b4:7b:c7:d2:46:b5:75:61:b3:7d:c1:38:4d:5f:
         21:4b:b3:3d:c1:fc:53:7d:de:fe:e5:3a:e5:2b:1a:03:1d:28:
         cf:45:36:26:53:b0:40:64:85:05:ec:75:7c:b3:56:8d:c6:5b:
         d7:71:85:e1:7e:ea:90:ea:5b:cc:0e:d2:34:1e:50:fd:78:ae:
         2a:26:fe:64:33:1b:33:2c:08:f3:e3:e6:e6:c9:22:e9:f8:d8:
         bd:24:53:a5:c2:f7:87:6c:a5:66:b9:4a:41:75:7a:10:bc:ae:
         18:6f:3e:05:4a:af:f1:ba
-----BEGIN CERTIFICATE-----
MIIHSDCCBTCgAwIBAgICA7YwDQYJKoZIhvcNAQEFBQAwgbQxCzAJBgNVBAYTAlVT
MQswCQYDVQQIEwJDQTEVMBMGA1UEBxMMU2FuRnJhbmNpc2NvMRUwEwYDVQQKEwxQ
aXhnbG8sIEluYy4xEDAOBgNVBAsTB1ZQTi1DSUUxGjAYBgNVBAMTEXR1bm5lbC5w
aXhnbG8uY29tMRwwGgYDVQQpExNCYWxhIENoYW5kcmFzZWthcmFuMR4wHAYJKoZI
hvcNAQkBFg9iYWxhQHBpeGdsby5jb20wHhcNMTgwMjE0MDY0OTAwWhcNMjgwMjEy
MDY0OTAwWjCBqTELMAkGA1UEBhMCVVMxCzAJBgNVBAgTAkNBMRUwEwYDVQQHEwxT
YW5GcmFuY2lzY28xFTATBgNVBAoTDFBpeGdsbywgSW5jLjEQMA4GA1UECxMHVlBO
LUNJRTEPMA0GA1UEAxMGY2llOTQ5MRwwGgYDVQQpExNCYWxhIENoYW5kcmFzZWth
cmFuMR4wHAYJKoZIhvcNAQkBFg9iYWxhQHBpeGdsby5jb20wggIiMA0GCSqGSIb3
DQEBAQUAA4ICDwAwggIKAoICAQDbH1QQKXojJr+L0fky+RSyMBNx2ZYahUNVRdsu
5i697icDeLgCi/I3TDd+kYqG3V80wCdG4ojTApJbMEnJn24KX7utJwWj/X85n13B
V+kGLnadReQ3EiofrJiC2hQ9T4l7OHGoJGTZNWPzknCNFO+TxzbLKfqy25rtisI9
IYvHoPzSqd3el/DSW4i89Run60PELoERS+lxsJ7vpXgaAu8Wp+m8ckTD9gcct5Vv
0Ittlxe0F9DNkoacgN/gRHxDS3+/3fCEQW75rJ6WdNaNS0GgYaO9J76okLaBYNPz
80Ns5ss1PE1HWw4gRcFZKMRgWEY5/1X5ipZg3y1YxBJzZ2Qfx7aXGwyEs8RNXkSH
2GrQBJyfnKkt0P85NpvOSv5zINjgzSa3wo/xZPtZrK9u1iQyWFaCmXyiW6UDPbvM
9yHXN7NADaBCG+PlOjBZXr9S0e8aw6vyyHjDDIo7Qrzwe9d5BKxzjFMx6HJKvlqz
K2mtneMccELTlm7QwT+eXPCP7Nx7OJK8vzK2CGYyiCSX8pIuztemqEUclhRldyZE
Mu1IdlvMe1dpnLM5leCNoa5BgW1ClncdeIrutWq02qgXUzyfBdy71yKG/7+VyDjF
osFq8bl1rOGwbuoe55EANrGFUYY5MSChNQRfB6QrtAyW1KFbq/56VjDbdTwViUI0
qlTIWwIDAQABo4IBazCCAWcwCQYDVR0TBAIwADAtBglghkgBhvhCAQ0EIBYeRWFz
eS1SU0EgR2VuZXJhdGVkIENlcnRpZmljYXRlMB0GA1UdDgQWBBQG9yxdNWMra1L3
nIHKU46eSZ6nGzCB6QYDVR0jBIHhMIHegBTvOI0UUFinW02cF3L837msp1GwEKGB
uqSBtzCBtDELMAkGA1UEBhMCVVMxCzAJBgNVBAgTAkNBMRUwEwYDVQQHEwxTYW5G
cmFuY2lzY28xFTATBgNVBAoTDFBpeGdsbywgSW5jLjEQMA4GA1UECxMHVlBOLUNJ
RTEaMBgGA1UEAxMRdHVubmVsLnBpeGdsby5jb20xHDAaBgNVBCkTE0JhbGEgQ2hh
bmRyYXNla2FyYW4xHjAcBgkqhkiG9w0BCQEWD2JhbGFAcGl4Z2xvLmNvbYIJAKbb
xoOA5qB5MBMGA1UdJQQMMAoGCCsGAQUFBwMCMAsGA1UdDwQEAwIHgDANBgkqhkiG
9w0BAQUFAAOCAgEAz9I2uSX9LT9OsG4GYTwJJD8fbxOtDXFD4LPhIwTjSBOclWKF
f8mHgHLC7QZSfoxXLsQ1UT4+cHssGNg49f0+tYYUDbAVyg4b4sziTd79OYD7yxbQ
gZYgcM/ejLdva5d1DGyfXVNm6UI7Lqui5eS6MVUIpAS7fW200qpUo8ZR+B6JMVTK
VhAy/d+VSUjpe1JXmboPIUP/rgJJveg4C+K63YD8dWvhYR2gUUqHqNI4EL9Ecdi0
CQzS4RDozsZZX1SWBarHE3dgVfOeBTswPlrnaW+S3Z7pca9ACjjRpEPswA9iLCZ3
TJ7C6xz0x8GGQV2zz5KjlnoZfAFOLX+IQL2nAhiLV+z2RPfYyU8EIlmE/8LSFmQv
vBiXahEr1vDT9qkGUPBmZuStE5XsnilZYo+dhUKv4I8L2kosH5UCusu/7x/ooRmj
flzebh2AGIslBmwF1kuqEEapF4enagqgkCqIDUEqpPaqU1yP0KucHb+lpVDMMK+q
Huj/SW1BmwIFTIfTIljVaNwiYas9d6I5w4GyLrR7x9JGtXVhs33BOE1fIUuzPcH8
U33e/uU65SsaAx0oz0U2JlOwQGSFBex1fLNWjcZb13GF4X7qkOpbzA7SNB5Q/Xiu
Kib+ZDMbMywI8+Pm5ski6fjYvSRTpcL3h2ylZrlKQXV6ELyuGG8+BUqv8bo=
-----END CERTIFICATE-----
