Certificate:
    Data:
        Version: 3 (0x2)
        Serial Number: 952 (0x3b8)
    Signature Algorithm: sha1WithRSAEncryption
        Issuer: C=US, ST=CA, L=SanFrancisco, O=Pixglo, Inc., OU=VPN-CIE, CN=tunnel.pixglo.com/name=Bala Chandrasekaran/emailAddress=bala@pixglo.com
        Validity
            Not Before: Feb 14 06:49:04 2018 GMT
            Not After : Feb 12 06:49:04 2028 GMT
        Subject: C=US, ST=CA, L=SanFrancisco, O=Pixglo, Inc., OU=VPN-CIE, CN=cie951/name=Bala Chandrasekaran/emailAddress=bala@pixglo.com
        Subject Public Key Info:
            Public Key Algorithm: rsaEncryption
                Public-Key: (4096 bit)
                Modulus:
                    00:b3:c0:3a:3e:7c:fe:a5:19:a8:fd:b9:e9:fe:89:
                    79:3a:5c:b3:34:e1:f1:23:da:4a:e1:07:a4:4f:70:
                    d4:29:fb:e8:47:98:fa:c2:8b:08:de:96:26:5e:43:
                    05:de:c2:8c:09:bc:9c:e0:d2:58:47:af:02:5f:d3:
                    b1:98:c6:e3:99:73:d2:e9:d1:e4:27:f3:8e:36:2c:
                    ca:6a:05:9d:7c:e4:35:0d:35:49:a1:39:69:a3:82:
                    b8:5e:58:55:6f:52:b4:7a:b0:f3:ca:71:e0:bd:77:
                    ee:59:c2:38:59:7a:1e:fe:2a:4b:b9:95:72:67:8b:
                    fa:c7:28:0d:fc:ab:bd:20:27:4b:31:86:d2:45:01:
                    fc:69:e7:b0:6d:8f:a1:d2:39:63:f0:4a:70:5a:37:
                    fe:92:8b:03:b2:1c:8b:39:1d:88:06:36:9e:f9:c6:
                    e2:ce:af:68:e3:5d:43:6b:37:5f:c8:26:5e:d2:db:
                    24:d3:6a:46:3c:2d:f9:47:69:21:07:b2:37:58:ae:
                    6d:7e:15:ac:db:39:07:da:db:5d:27:48:89:52:5a:
                    37:39:2e:a3:73:40:56:44:95:e8:d8:98:eb:39:6c:
                    14:14:83:1e:59:56:3f:83:36:25:1e:fc:2e:0c:ac:
                    60:14:eb:bf:ee:19:5f:59:dd:40:16:7b:72:4e:b0:
                    7d:dc:46:db:ef:7d:dd:5e:56:e7:10:26:cd:7b:54:
                    d6:1d:57:2a:82:1c:7c:84:1e:bf:67:7d:67:14:26:
                    12:b8:a6:22:67:9a:00:6f:d7:e8:0c:a2:c4:45:b3:
                    4f:21:6a:0a:92:63:9c:5e:ec:52:79:d8:10:37:b4:
                    7f:d0:42:d2:76:ec:7b:cc:d4:f5:85:c1:9c:8f:d6:
                    57:a4:17:ab:f3:3b:1b:33:a9:0b:83:21:66:b2:bc:
                    df:5b:69:1e:21:3e:47:2d:75:5a:c4:9b:66:e3:02:
                    84:be:dc:ab:86:42:78:fc:58:48:8e:c5:fc:78:02:
                    c1:32:39:9e:21:2d:64:ae:55:f0:70:88:39:e5:90:
                    23:bb:0f:27:a9:e7:39:68:cf:1e:5f:c6:52:62:f4:
                    5d:36:cf:21:54:cb:bd:a3:96:97:79:97:ea:5e:fa:
                    7a:39:d5:5a:a3:47:b4:a7:c1:b2:25:a4:68:cc:66:
                    0e:45:5c:6f:b2:76:ce:73:4d:54:9a:6b:a3:10:a4:
                    af:42:9a:cb:fa:5e:4f:47:b2:96:81:52:bb:46:5b:
                    0d:a7:6a:be:57:a5:ec:a1:49:76:0b:73:69:b4:0a:
                    f0:be:ac:55:49:85:a3:36:0d:74:ef:ab:96:24:3c:
                    30:23:d4:45:d4:e7:f4:8c:a8:01:80:f7:78:24:0f:
                    cd:e1:79
                Exponent: 65537 (0x10001)
        X509v3 extensions:
            X509v3 Basic Constraints: 
                CA:FALSE
            Netscape Comment: 
                Easy-RSA Generated Certificate
            X509v3 Subject Key Identifier: 
                42:5C:D4:52:43:9D:E2:BF:75:A7:7B:22:D4:82:65:14:C7:08:C3:3C
            X509v3 Authority Key Identifier: 
                keyid:EF:38:8D:14:50:58:A7:5B:4D:9C:17:72:FC:DF:B9:AC:A7:51:B0:10
                DirName:/C=US/ST=CA/L=SanFrancisco/O=Pixglo, Inc./OU=VPN-CIE/CN=tunnel.pixglo.com/name=Bala Chandrasekaran/emailAddress=bala@pixglo.com
                serial:A6:DB:C6:83:80:E6:A0:79

            X509v3 Extended Key Usage: 
                TLS Web Client Authentication
            X509v3 Key Usage: 
                Digital Signature
    Signature Algorithm: sha1WithRSAEncryption
         56:72:c3:7b:ec:77:db:d0:35:a5:8e:e9:1e:87:47:cd:49:e6:
         8f:e1:70:b7:07:30:77:ff:7a:a5:10:9f:0b:15:fb:a3:c6:6d:
         cd:ad:72:4f:78:66:f3:e2:9c:6d:04:10:d8:6a:da:80:90:25:
         32:74:00:d6:e2:4e:eb:a2:08:71:9e:99:27:3d:a5:26:78:31:
         06:80:70:4f:72:25:4e:e3:80:ae:c2:dc:c1:83:25:89:dd:8d:
         25:0a:a8:e3:93:6c:25:f8:22:af:63:a9:e6:c4:b8:e2:ac:e9:
         75:77:b2:c0:77:1d:f2:a1:18:79:60:3d:fc:5a:37:f3:9e:e7:
         94:e6:ac:e4:93:89:fb:7b:fd:01:3e:f5:b8:2d:37:1b:d7:8d:
         50:15:f0:e3:5f:4f:c5:16:fb:ee:d0:09:66:94:a3:a9:c9:b4:
         06:74:66:c4:8a:a4:08:39:ac:c8:e5:07:45:0d:93:19:80:ec:
         a5:42:22:c6:34:08:5d:62:6b:99:11:93:2d:98:51:e1:1a:9c:
         05:48:11:0c:b5:75:40:7c:5e:1a:8e:09:c8:74:89:11:ca:e5:
         99:df:95:f7:d8:7a:5b:c5:06:e8:f7:b0:cb:2f:c0:60:f8:a5:
         47:be:fd:45:27:49:fe:4d:07:c5:e2:6d:4a:c3:b6:bb:e0:26:
         ce:55:eb:78:fe:d1:94:35:26:5d:54:1d:60:d6:c7:30:46:b3:
         62:65:7a:7f:4b:0a:1d:71:07:5d:3e:11:e9:19:04:33:7c:f6:
         7a:37:a3:58:38:2d:30:3d:65:45:70:fc:a7:ad:d0:d2:d0:90:
         87:86:a8:16:cc:6e:82:30:2c:98:96:22:90:ce:db:53:e2:5c:
         81:10:12:fa:f5:94:5f:49:56:b8:87:bc:a3:a7:b0:18:d5:45:
         fd:b8:9b:4b:02:88:2c:24:87:c7:37:ca:d2:3b:a4:b7:6b:52:
         82:45:9c:74:c4:2a:35:4c:5f:95:be:be:a6:6b:f3:1b:13:b7:
         f5:7e:44:d7:62:80:cb:3c:0e:ea:6a:22:63:60:ef:7e:10:ce:
         46:96:d5:88:0b:be:09:0f:3e:82:43:1a:ac:09:cc:da:a3:e6:
         e6:d3:26:76:a0:74:47:89:25:09:86:65:5d:6b:89:70:92:61:
         b6:29:2d:f8:38:fc:50:9b:66:89:c5:a8:1b:a8:61:0b:41:43:
         a0:a6:16:2b:32:fd:c7:74:af:5b:67:10:ed:45:17:2f:03:4d:
         6a:05:e2:c1:6f:07:19:5b:f7:65:6f:d5:54:e3:66:f5:3f:1f:
         28:0b:f4:ba:87:df:16:f2:d6:a6:8f:cd:2f:02:a8:5a:ac:b0:
         9e:29:2d:14:c7:8f:07:40
-----BEGIN CERTIFICATE-----
MIIHSDCCBTCgAwIBAgICA7gwDQYJKoZIhvcNAQEFBQAwgbQxCzAJBgNVBAYTAlVT
MQswCQYDVQQIEwJDQTEVMBMGA1UEBxMMU2FuRnJhbmNpc2NvMRUwEwYDVQQKEwxQ
aXhnbG8sIEluYy4xEDAOBgNVBAsTB1ZQTi1DSUUxGjAYBgNVBAMTEXR1bm5lbC5w
aXhnbG8uY29tMRwwGgYDVQQpExNCYWxhIENoYW5kcmFzZWthcmFuMR4wHAYJKoZI
hvcNAQkBFg9iYWxhQHBpeGdsby5jb20wHhcNMTgwMjE0MDY0OTA0WhcNMjgwMjEy
MDY0OTA0WjCBqTELMAkGA1UEBhMCVVMxCzAJBgNVBAgTAkNBMRUwEwYDVQQHEwxT
YW5GcmFuY2lzY28xFTATBgNVBAoTDFBpeGdsbywgSW5jLjEQMA4GA1UECxMHVlBO
LUNJRTEPMA0GA1UEAxMGY2llOTUxMRwwGgYDVQQpExNCYWxhIENoYW5kcmFzZWth
cmFuMR4wHAYJKoZIhvcNAQkBFg9iYWxhQHBpeGdsby5jb20wggIiMA0GCSqGSIb3
DQEBAQUAA4ICDwAwggIKAoICAQCzwDo+fP6lGaj9uen+iXk6XLM04fEj2krhB6RP
cNQp++hHmPrCiwjeliZeQwXewowJvJzg0lhHrwJf07GYxuOZc9Lp0eQn8442LMpq
BZ185DUNNUmhOWmjgrheWFVvUrR6sPPKceC9d+5ZwjhZeh7+Kku5lXJni/rHKA38
q70gJ0sxhtJFAfxp57Btj6HSOWPwSnBaN/6SiwOyHIs5HYgGNp75xuLOr2jjXUNr
N1/IJl7S2yTTakY8LflHaSEHsjdYrm1+FazbOQfa210nSIlSWjc5LqNzQFZElejY
mOs5bBQUgx5ZVj+DNiUe/C4MrGAU67/uGV9Z3UAWe3JOsH3cRtvvfd1eVucQJs17
VNYdVyqCHHyEHr9nfWcUJhK4piJnmgBv1+gMosRFs08hagqSY5xe7FJ52BA3tH/Q
QtJ27HvM1PWFwZyP1lekF6vzOxszqQuDIWayvN9baR4hPkctdVrEm2bjAoS+3KuG
Qnj8WEiOxfx4AsEyOZ4hLWSuVfBwiDnlkCO7Dyep5zlozx5fxlJi9F02zyFUy72j
lpd5l+pe+no51VqjR7SnwbIlpGjMZg5FXG+yds5zTVSaa6MQpK9Cmsv6Xk9HspaB
UrtGWw2nar5XpeyhSXYLc2m0CvC+rFVJhaM2DXTvq5YkPDAj1EXU5/SMqAGA93gk
D83heQIDAQABo4IBazCCAWcwCQYDVR0TBAIwADAtBglghkgBhvhCAQ0EIBYeRWFz
eS1SU0EgR2VuZXJhdGVkIENlcnRpZmljYXRlMB0GA1UdDgQWBBRCXNRSQ53iv3Wn
eyLUgmUUxwjDPDCB6QYDVR0jBIHhMIHegBTvOI0UUFinW02cF3L837msp1GwEKGB
uqSBtzCBtDELMAkGA1UEBhMCVVMxCzAJBgNVBAgTAkNBMRUwEwYDVQQHEwxTYW5G
cmFuY2lzY28xFTATBgNVBAoTDFBpeGdsbywgSW5jLjEQMA4GA1UECxMHVlBOLUNJ
RTEaMBgGA1UEAxMRdHVubmVsLnBpeGdsby5jb20xHDAaBgNVBCkTE0JhbGEgQ2hh
bmRyYXNla2FyYW4xHjAcBgkqhkiG9w0BCQEWD2JhbGFAcGl4Z2xvLmNvbYIJAKbb
xoOA5qB5MBMGA1UdJQQMMAoGCCsGAQUFBwMCMAsGA1UdDwQEAwIHgDANBgkqhkiG
9w0BAQUFAAOCAgEAVnLDe+x329A1pY7pHodHzUnmj+Fwtwcwd/96pRCfCxX7o8Zt
za1yT3hm8+KcbQQQ2GragJAlMnQA1uJO66IIcZ6ZJz2lJngxBoBwT3IlTuOArsLc
wYMlid2NJQqo45NsJfgir2Op5sS44qzpdXeywHcd8qEYeWA9/Fo3857nlOas5JOJ
+3v9AT71uC03G9eNUBXw419PxRb77tAJZpSjqcm0BnRmxIqkCDmsyOUHRQ2TGYDs
pUIixjQIXWJrmRGTLZhR4RqcBUgRDLV1QHxeGo4JyHSJEcrlmd+V99h6W8UG6Pew
yy/AYPilR779RSdJ/k0HxeJtSsO2u+AmzlXreP7RlDUmXVQdYNbHMEazYmV6f0sK
HXEHXT4R6RkEM3z2ejejWDgtMD1lRXD8p63Q0tCQh4aoFsxugjAsmJYikM7bU+Jc
gRAS+vWUX0lWuIe8o6ewGNVF/bibSwKILCSHxzfK0jukt2tSgkWcdMQqNUxflb6+
pmvzGxO39X5E12KAyzwO6moiY2DvfhDORpbViAu+CQ8+gkMarAnM2qPm5tMmdqB0
R4klCYZlXWuJcJJhtikt+Dj8UJtmicWoG6hhC0FDoKYWKzL9x3SvW2cQ7UUXLwNN
agXiwW8HGVv3ZW/VVONm9T8fKAv0uoffFvLWpo/NLwKoWqywniktFMePB0A=
-----END CERTIFICATE-----
