Certificate:
    Data:
        Version: 3 (0x2)
        Serial Number: 953 (0x3b9)
    Signature Algorithm: sha1WithRSAEncryption
        Issuer: C=US, ST=CA, L=SanFrancisco, O=Pixglo, Inc., OU=VPN-CIE, CN=tunnel.pixglo.com/name=Bala Chandrasekaran/emailAddress=bala@pixglo.com
        Validity
            Not Before: Feb 14 06:49:04 2018 GMT
            Not After : Feb 12 06:49:04 2028 GMT
        Subject: C=US, ST=CA, L=SanFrancisco, O=Pixglo, Inc., OU=VPN-CIE, CN=cie952/name=Bala Chandrasekaran/emailAddress=bala@pixglo.com
        Subject Public Key Info:
            Public Key Algorithm: rsaEncryption
                Public-Key: (4096 bit)
                Modulus:
                    00:f8:1f:84:af:5d:c6:1f:04:13:69:a3:cf:15:b3:
                    cd:50:be:32:11:0e:6a:95:41:5b:f3:a2:99:30:fc:
                    7b:60:41:60:db:2e:0b:eb:6b:bd:e3:8a:d1:53:49:
                    ea:42:b7:9b:0c:76:9e:e1:62:d1:dc:8f:40:44:1b:
                    00:d2:4c:11:0d:c2:07:1e:cc:d1:02:ed:bb:36:21:
                    ad:8e:72:33:6d:54:12:01:ab:14:19:55:56:f8:e4:
                    e1:16:fd:d3:3f:a4:02:99:43:3d:8b:3b:5e:e3:40:
                    b1:d1:0b:0c:a5:68:c7:03:fe:2d:0b:80:d4:3d:35:
                    e7:ea:b7:b2:eb:22:8c:bb:aa:45:1c:e3:b6:63:37:
                    f4:4c:62:c9:35:54:89:af:80:83:ee:81:da:30:72:
                    83:cf:13:88:6b:7a:83:6d:18:05:bc:a1:76:5a:c8:
                    b0:00:97:5e:79:8d:e2:10:ae:97:c2:61:cd:f3:96:
                    9c:2d:b1:11:ab:d8:3b:cb:76:0e:7a:d4:d0:5f:6e:
                    db:ee:50:6b:0e:26:e2:5f:c2:39:cd:02:36:87:b3:
                    e9:29:ba:d7:71:ca:b6:d9:27:0e:44:e8:7b:47:09:
                    d8:9c:a2:3b:02:34:55:ed:2c:a8:57:2d:41:94:43:
                    b0:6d:a9:3e:0f:77:21:90:ea:ef:16:a0:b6:72:67:
                    7f:2c:eb:e6:8d:6d:6b:f6:ec:68:17:8f:3a:48:b7:
                    63:ce:5c:ec:91:ed:6a:9d:18:dc:4c:d9:ab:c3:a2:
                    dc:b2:4f:ba:91:59:12:e9:bd:19:0e:f7:32:46:90:
                    50:36:4a:b8:bc:9f:8b:a0:fb:52:0d:3b:a6:f4:1e:
                    1f:ba:28:38:63:21:62:e0:c4:d6:01:5b:28:56:da:
                    84:e9:03:00:d2:44:78:68:5d:b9:df:ec:eb:38:e9:
                    13:24:4f:dc:7a:06:4f:b0:57:37:c3:41:27:e8:93:
                    40:89:09:52:ca:61:5b:f6:b6:cc:b7:a7:ee:11:08:
                    e0:4d:10:ec:f9:8e:a0:a1:c2:07:cc:59:ea:4c:bf:
                    89:69:00:1d:a6:4e:4b:e2:40:60:73:86:85:14:b2:
                    7e:87:ac:5a:5c:d1:63:2e:d9:9f:b7:c3:26:35:1d:
                    18:07:8c:19:6d:9b:83:d3:12:75:32:ea:ed:d2:7d:
                    b2:fd:0e:a9:bc:b3:f3:55:e8:76:e9:c7:dc:8f:49:
                    59:73:b8:0f:ab:57:9e:18:bc:be:a8:c1:45:e6:07:
                    b0:3c:dd:ec:57:3f:cc:32:26:c3:f8:db:98:02:79:
                    ee:0b:98:bd:d5:7d:14:d8:c4:db:57:4e:e9:19:92:
                    88:e9:1a:17:28:83:8d:05:b4:2b:2d:05:51:08:b7:
                    06:c6:ef
                Exponent: 65537 (0x10001)
        X509v3 extensions:
            X509v3 Basic Constraints: 
                CA:FALSE
            Netscape Comment: 
                Easy-RSA Generated Certificate
            X509v3 Subject Key Identifier: 
                E2:FC:8B:37:DC:2A:AE:41:18:AB:F0:AF:EB:F1:52:B6:2F:B1:0D:9A
            X509v3 Authority Key Identifier: 
                keyid:EF:38:8D:14:50:58:A7:5B:4D:9C:17:72:FC:DF:B9:AC:A7:51:B0:10
                DirName:/C=US/ST=CA/L=SanFrancisco/O=Pixglo, Inc./OU=VPN-CIE/CN=tunnel.pixglo.com/name=Bala Chandrasekaran/emailAddress=bala@pixglo.com
                serial:A6:DB:C6:83:80:E6:A0:79

            X509v3 Extended Key Usage: 
                TLS Web Client Authentication
            X509v3 Key Usage: 
                Digital Signature
    Signature Algorithm: sha1WithRSAEncryption
         1d:10:84:a3:27:ff:a7:c4:ff:40:de:ac:84:cc:02:23:31:5e:
         b8:95:a7:63:97:ff:75:c2:5c:d7:3d:68:76:04:96:8d:b7:fb:
         30:e5:42:46:4b:54:bd:32:be:4a:92:9f:ab:64:4b:00:58:fa:
         79:7b:9d:f9:c5:cc:3a:18:10:a4:cb:7a:42:8e:9a:d3:91:df:
         1a:1c:13:e7:85:0b:5e:df:ee:cd:37:27:df:47:76:30:e8:41:
         f4:81:54:6a:3f:ea:c1:ac:ab:3e:fc:af:cd:19:6d:39:83:71:
         53:ea:d8:36:7d:c3:7c:ee:26:54:ce:46:a4:9c:3c:ea:41:87:
         74:b6:5b:5b:87:10:10:f5:52:80:10:1a:8c:3e:b5:ed:c6:9b:
         72:e6:5d:bb:76:09:d3:16:0a:52:ba:8f:09:e0:93:f8:c1:0f:
         d7:41:76:a0:b0:2e:13:0a:d6:a2:50:f0:86:b9:58:2a:3c:e8:
         bc:41:2a:1a:0a:aa:f8:be:3b:25:6a:3c:9c:07:e1:83:4f:1f:
         5f:79:73:78:c6:78:b7:64:18:00:00:6c:30:60:4a:c5:d7:24:
         0e:8c:da:9c:db:07:53:40:f0:2f:7d:a9:1f:0f:3e:ad:f4:4d:
         98:da:19:dc:7a:d1:2a:13:b7:0f:4a:37:84:8d:83:2b:46:a1:
         df:22:74:22:00:25:de:32:cd:83:dc:7f:95:ac:c3:92:46:0e:
         12:9f:93:90:0f:d8:75:a6:d9:44:59:7b:eb:e5:4f:53:d8:5f:
         e9:18:4a:b5:6e:a0:c1:da:83:74:f9:99:f5:ed:b5:a4:45:d2:
         19:b6:b6:a3:ea:ba:66:4a:3b:8f:e6:65:34:1e:8c:64:ed:3e:
         e0:6d:5b:f3:40:4d:6e:78:90:3e:1f:16:24:a8:36:ef:59:8f:
         e4:4d:3b:59:1a:96:c2:03:32:4b:13:d6:b9:32:22:e9:8d:5e:
         5e:88:24:57:05:3d:30:98:65:c4:ad:38:83:d3:7b:b4:bf:e5:
         8f:b9:34:95:b2:80:56:0b:4f:f1:bc:57:55:5c:2d:42:b0:55:
         df:68:88:8d:bb:97:8c:e0:3c:30:78:8c:d7:10:21:f8:9e:2c:
         7a:3e:0c:59:7d:c2:49:84:db:41:98:c1:de:33:c0:e5:78:72:
         bd:e3:5a:45:07:6d:c8:b7:7a:41:aa:87:be:10:3c:6e:d3:e9:
         6e:ae:ee:19:ce:1a:9d:a8:50:70:6b:b4:08:16:93:6b:3d:9a:
         53:c3:41:1e:8e:e8:d2:4d:b5:b8:85:4e:d4:21:6e:f8:86:1c:
         03:95:25:3a:23:b7:8d:67:81:8a:c1:dd:1f:a6:77:d9:cd:5f:
         96:c1:59:83:d5:37:fb:a2
-----BEGIN CERTIFICATE-----
MIIHSDCCBTCgAwIBAgICA7kwDQYJKoZIhvcNAQEFBQAwgbQxCzAJBgNVBAYTAlVT
MQswCQYDVQQIEwJDQTEVMBMGA1UEBxMMU2FuRnJhbmNpc2NvMRUwEwYDVQQKEwxQ
aXhnbG8sIEluYy4xEDAOBgNVBAsTB1ZQTi1DSUUxGjAYBgNVBAMTEXR1bm5lbC5w
aXhnbG8uY29tMRwwGgYDVQQpExNCYWxhIENoYW5kcmFzZWthcmFuMR4wHAYJKoZI
hvcNAQkBFg9iYWxhQHBpeGdsby5jb20wHhcNMTgwMjE0MDY0OTA0WhcNMjgwMjEy
MDY0OTA0WjCBqTELMAkGA1UEBhMCVVMxCzAJBgNVBAgTAkNBMRUwEwYDVQQHEwxT
YW5GcmFuY2lzY28xFTATBgNVBAoTDFBpeGdsbywgSW5jLjEQMA4GA1UECxMHVlBO
LUNJRTEPMA0GA1UEAxMGY2llOTUyMRwwGgYDVQQpExNCYWxhIENoYW5kcmFzZWth
cmFuMR4wHAYJKoZIhvcNAQkBFg9iYWxhQHBpeGdsby5jb20wggIiMA0GCSqGSIb3
DQEBAQUAA4ICDwAwggIKAoICAQD4H4SvXcYfBBNpo88Vs81QvjIRDmqVQVvzopkw
/HtgQWDbLgvra73jitFTSepCt5sMdp7hYtHcj0BEGwDSTBENwgcezNEC7bs2Ia2O
cjNtVBIBqxQZVVb45OEW/dM/pAKZQz2LO17jQLHRCwylaMcD/i0LgNQ9Nefqt7Lr
Ioy7qkUc47ZjN/RMYsk1VImvgIPugdowcoPPE4hreoNtGAW8oXZayLAAl155jeIQ
rpfCYc3zlpwtsRGr2DvLdg561NBfbtvuUGsOJuJfwjnNAjaHs+kputdxyrbZJw5E
6HtHCdicojsCNFXtLKhXLUGUQ7BtqT4PdyGQ6u8WoLZyZ38s6+aNbWv27GgXjzpI
t2POXOyR7WqdGNxM2avDotyyT7qRWRLpvRkO9zJGkFA2Sri8n4ug+1INO6b0Hh+6
KDhjIWLgxNYBWyhW2oTpAwDSRHhoXbnf7Os46RMkT9x6Bk+wVzfDQSfok0CJCVLK
YVv2tsy3p+4RCOBNEOz5jqChwgfMWepMv4lpAB2mTkviQGBzhoUUsn6HrFpc0WMu
2Z+3wyY1HRgHjBltm4PTEnUy6u3SfbL9Dqm8s/NV6Hbpx9yPSVlzuA+rV54YvL6o
wUXmB7A83exXP8wyJsP425gCee4LmL3VfRTYxNtXTukZkojpGhcog40FtCstBVEI
twbG7wIDAQABo4IBazCCAWcwCQYDVR0TBAIwADAtBglghkgBhvhCAQ0EIBYeRWFz
eS1SU0EgR2VuZXJhdGVkIENlcnRpZmljYXRlMB0GA1UdDgQWBBTi/Is33CquQRir
8K/r8VK2L7ENmjCB6QYDVR0jBIHhMIHegBTvOI0UUFinW02cF3L837msp1GwEKGB
uqSBtzCBtDELMAkGA1UEBhMCVVMxCzAJBgNVBAgTAkNBMRUwEwYDVQQHEwxTYW5G
cmFuY2lzY28xFTATBgNVBAoTDFBpeGdsbywgSW5jLjEQMA4GA1UECxMHVlBOLUNJ
RTEaMBgGA1UEAxMRdHVubmVsLnBpeGdsby5jb20xHDAaBgNVBCkTE0JhbGEgQ2hh
bmRyYXNla2FyYW4xHjAcBgkqhkiG9w0BCQEWD2JhbGFAcGl4Z2xvLmNvbYIJAKbb
xoOA5qB5MBMGA1UdJQQMMAoGCCsGAQUFBwMCMAsGA1UdDwQEAwIHgDANBgkqhkiG
9w0BAQUFAAOCAgEAHRCEoyf/p8T/QN6shMwCIzFeuJWnY5f/dcJc1z1odgSWjbf7
MOVCRktUvTK+SpKfq2RLAFj6eXud+cXMOhgQpMt6Qo6a05HfGhwT54ULXt/uzTcn
30d2MOhB9IFUaj/qwayrPvyvzRltOYNxU+rYNn3DfO4mVM5GpJw86kGHdLZbW4cQ
EPVSgBAajD617cabcuZdu3YJ0xYKUrqPCeCT+MEP10F2oLAuEwrWolDwhrlYKjzo
vEEqGgqq+L47JWo8nAfhg08fX3lzeMZ4t2QYAABsMGBKxdckDozanNsHU0DwL32p
Hw8+rfRNmNoZ3HrRKhO3D0o3hI2DK0ah3yJ0IgAl3jLNg9x/lazDkkYOEp+TkA/Y
dabZRFl76+VPU9hf6RhKtW6gwdqDdPmZ9e21pEXSGba2o+q6Zko7j+ZlNB6MZO0+
4G1b80BNbniQPh8WJKg271mP5E07WRqWwgMySxPWuTIi6Y1eXogkVwU9MJhlxK04
g9N7tL/lj7k0lbKAVgtP8bxXVVwtQrBV32iIjbuXjOA8MHiM1xAh+J4sej4MWX3C
SYTbQZjB3jPA5XhyveNaRQdtyLd6QaqHvhA8btPpbq7uGc4anahQcGu0CBaTaz2a
U8NBHo7o0k21uIVO1CFu+IYcA5UlOiO3jWeBisHdH6Z32c1flsFZg9U3+6I=
-----END CERTIFICATE-----
