Certificate:
    Data:
        Version: 3 (0x2)
        Serial Number: 956 (0x3bc)
    Signature Algorithm: sha1WithRSAEncryption
        Issuer: C=US, ST=CA, L=SanFrancisco, O=Pixglo, Inc., OU=VPN-CIE, CN=tunnel.pixglo.com/name=Bala Chandrasekaran/emailAddress=bala@pixglo.com
        Validity
            Not Before: Feb 14 06:49:11 2018 GMT
            Not After : Feb 12 06:49:11 2028 GMT
        Subject: C=US, ST=CA, L=SanFrancisco, O=Pixglo, Inc., OU=VPN-CIE, CN=cie955/name=Bala Chandrasekaran/emailAddress=bala@pixglo.com
        Subject Public Key Info:
            Public Key Algorithm: rsaEncryption
                Public-Key: (4096 bit)
                Modulus:
                    00:a4:59:43:e5:24:aa:78:21:5c:c4:78:73:1c:b1:
                    6c:3a:7a:eb:87:35:25:ae:ae:a7:5d:d7:bb:73:1e:
                    c6:e6:86:6a:57:a9:cb:21:11:86:c7:e6:5e:dc:7b:
                    ae:90:c2:40:ef:38:d8:44:c1:e4:73:84:26:e0:86:
                    6f:1b:fe:56:31:da:77:0d:02:82:04:0c:41:1a:bc:
                    f0:4a:88:b7:64:36:93:51:e2:62:32:81:14:fa:d8:
                    cd:78:79:5c:02:63:04:c9:93:4e:fd:5d:38:34:14:
                    c5:19:98:01:9c:49:eb:4b:de:13:84:2e:e5:9a:43:
                    55:b3:b6:d3:31:50:92:2f:9a:da:99:ca:56:d7:66:
                    8a:e1:ad:b7:6e:2f:81:52:90:95:7f:87:e6:9c:68:
                    93:a2:35:ed:b7:97:69:d6:55:7f:3b:33:aa:ca:f5:
                    ad:d8:31:32:3c:f7:db:d7:15:41:b7:9e:fd:b2:35:
                    3c:2d:9b:ad:6e:96:4d:cb:79:09:f8:96:6b:80:a6:
                    36:d4:6c:7c:ff:ab:6d:e2:86:f8:7c:9d:7e:2c:32:
                    bf:45:47:6d:78:d8:3c:bb:7c:b3:16:d7:16:b8:4e:
                    f2:ac:60:89:f6:8c:7e:51:9a:66:f5:3d:65:3b:de:
                    39:97:89:f2:68:42:5d:7b:72:b3:c7:3d:55:f0:4b:
                    32:04:e5:43:83:32:70:0e:24:72:fb:af:e6:fb:73:
                    1e:5d:d0:05:f1:3c:27:96:18:0c:15:97:5c:ec:d1:
                    ce:c5:29:3c:ac:fe:08:7a:34:e6:7e:b6:4e:fa:0f:
                    83:b0:ad:e0:93:cd:14:20:33:a1:1f:e7:3f:76:7c:
                    c8:1d:27:34:38:ab:bb:fd:53:23:b9:f5:ce:02:18:
                    fb:88:15:c3:dd:8b:c0:d9:bf:df:04:43:e4:92:ab:
                    df:b7:81:37:e8:44:db:3f:f9:13:25:72:c7:d7:06:
                    01:e1:43:e0:0b:4b:cd:22:8f:30:2e:12:7b:2b:37:
                    e0:13:db:63:49:18:f9:3c:3b:22:f3:52:0f:36:d0:
                    63:06:00:31:85:5a:2b:20:f9:1a:31:9d:45:96:33:
                    21:95:da:31:dd:5f:43:b1:d4:2f:27:92:2d:79:f6:
                    6b:49:92:ac:c7:67:d9:69:f5:1d:13:3a:15:cb:25:
                    1a:45:ed:64:bd:c3:4b:82:6a:d8:f0:d7:a7:ae:21:
                    c5:f9:88:8a:c2:a5:60:d2:81:96:12:0f:7f:05:ba:
                    3d:15:19:12:ba:8c:cb:f1:39:47:47:b8:19:93:c3:
                    17:f4:a5:91:0c:60:5f:b0:89:24:55:f2:b3:b7:15:
                    2a:d3:93:91:22:d5:79:8c:42:62:ca:a2:2d:0c:2d:
                    64:a0:7d
                Exponent: 65537 (0x10001)
        X509v3 extensions:
            X509v3 Basic Constraints: 
                CA:FALSE
            Netscape Comment: 
                Easy-RSA Generated Certificate
            X509v3 Subject Key Identifier: 
                19:80:22:81:14:DA:E5:CA:34:4B:44:34:55:0E:25:F4:13:3B:CC:B4
            X509v3 Authority Key Identifier: 
                keyid:EF:38:8D:14:50:58:A7:5B:4D:9C:17:72:FC:DF:B9:AC:A7:51:B0:10
                DirName:/C=US/ST=CA/L=SanFrancisco/O=Pixglo, Inc./OU=VPN-CIE/CN=tunnel.pixglo.com/name=Bala Chandrasekaran/emailAddress=bala@pixglo.com
                serial:A6:DB:C6:83:80:E6:A0:79

            X509v3 Extended Key Usage: 
                TLS Web Client Authentication
            X509v3 Key Usage: 
                Digital Signature
    Signature Algorithm: sha1WithRSAEncryption
         15:78:1f:86:63:13:16:06:2b:31:6f:8f:98:82:da:ea:b9:46:
         6f:89:4c:02:72:34:1a:f6:be:86:54:f9:87:c1:d6:66:53:4e:
         09:1b:57:65:fc:33:25:49:6f:6a:93:d7:a3:a1:f3:ae:0f:42:
         d5:35:ea:f8:f5:b0:33:48:96:fc:51:33:e4:65:32:e4:be:c4:
         f6:8c:ec:26:72:e9:0f:b1:9a:bb:d7:f1:f1:22:50:98:bc:e5:
         17:57:27:eb:0e:d3:5d:db:e2:43:9b:ff:c7:d1:95:d5:a9:be:
         9f:7f:80:82:3b:c0:3a:ce:38:8e:0e:a4:1c:b8:88:15:34:08:
         47:5b:93:7b:7e:88:46:d3:77:b0:a9:b1:68:0e:3f:5e:4e:6f:
         e4:b9:e0:0b:aa:ac:c4:b3:8e:fd:a3:47:cb:b4:ab:19:e4:1a:
         4e:ee:5f:82:96:bb:8d:da:d0:ca:26:c1:97:df:82:5f:f7:19:
         f6:a9:c6:77:45:79:6d:0b:ad:cd:d3:7d:b6:4b:e9:83:a9:4e:
         bf:c5:ef:96:5c:ec:6d:a3:ac:c1:62:e9:fa:4c:de:d5:5e:42:
         6b:57:fa:cf:32:06:b0:f5:5c:b3:a5:2d:ef:94:02:d9:14:74:
         5f:88:b1:27:60:21:f5:1c:9f:40:90:30:bf:97:37:b1:8f:ff:
         ee:00:ea:72:63:55:f3:9b:47:dd:bb:30:f4:79:a1:62:e6:a3:
         ae:ff:21:b8:7b:b5:28:c8:af:f3:b6:e2:72:d4:9d:69:21:c9:
         bb:38:ab:d6:39:d8:85:21:0d:9e:ed:8b:40:2c:6a:a5:18:d7:
         35:da:99:74:2b:ea:24:fb:9e:39:89:7e:49:f3:da:f7:3b:74:
         52:98:fe:67:44:15:79:89:c3:cc:2d:43:53:31:31:f5:4c:2b:
         b7:96:d7:82:fa:14:aa:76:4a:ef:86:6c:65:aa:d0:2e:88:e4:
         b1:23:0d:f5:c6:f5:74:7b:e8:ea:98:8d:d5:86:84:ec:8e:3e:
         72:92:1c:25:f5:39:4a:0a:df:f8:ec:f4:7d:17:70:aa:76:b6:
         29:69:06:fa:83:be:3e:88:84:fe:8c:ca:5f:79:48:30:e5:2a:
         38:0b:46:7e:ef:b1:fa:e8:49:6e:c9:03:44:45:89:92:e5:e8:
         df:38:a2:26:0b:04:d2:10:4b:af:be:e8:73:12:59:81:f2:a2:
         a1:c0:70:6a:c7:4c:36:17:09:44:df:d9:68:2d:b2:38:ed:d9:
         a8:70:6e:58:c0:34:5a:8e:51:bd:4b:a6:6d:7e:e1:ae:71:ec:
         7a:c9:2e:b6:b1:70:e1:52:e4:aa:04:07:f4:95:72:64:7f:e4:
         3b:94:28:f3:87:7b:b3:91
-----BEGIN CERTIFICATE-----
MIIHSDCCBTCgAwIBAgICA7wwDQYJKoZIhvcNAQEFBQAwgbQxCzAJBgNVBAYTAlVT
MQswCQYDVQQIEwJDQTEVMBMGA1UEBxMMU2FuRnJhbmNpc2NvMRUwEwYDVQQKEwxQ
aXhnbG8sIEluYy4xEDAOBgNVBAsTB1ZQTi1DSUUxGjAYBgNVBAMTEXR1bm5lbC5w
aXhnbG8uY29tMRwwGgYDVQQpExNCYWxhIENoYW5kcmFzZWthcmFuMR4wHAYJKoZI
hvcNAQkBFg9iYWxhQHBpeGdsby5jb20wHhcNMTgwMjE0MDY0OTExWhcNMjgwMjEy
MDY0OTExWjCBqTELMAkGA1UEBhMCVVMxCzAJBgNVBAgTAkNBMRUwEwYDVQQHEwxT
YW5GcmFuY2lzY28xFTATBgNVBAoTDFBpeGdsbywgSW5jLjEQMA4GA1UECxMHVlBO
LUNJRTEPMA0GA1UEAxMGY2llOTU1MRwwGgYDVQQpExNCYWxhIENoYW5kcmFzZWth
cmFuMR4wHAYJKoZIhvcNAQkBFg9iYWxhQHBpeGdsby5jb20wggIiMA0GCSqGSIb3
DQEBAQUAA4ICDwAwggIKAoICAQCkWUPlJKp4IVzEeHMcsWw6euuHNSWurqdd17tz
HsbmhmpXqcshEYbH5l7ce66QwkDvONhEweRzhCbghm8b/lYx2ncNAoIEDEEavPBK
iLdkNpNR4mIygRT62M14eVwCYwTJk079XTg0FMUZmAGcSetL3hOELuWaQ1WzttMx
UJIvmtqZylbXZorhrbduL4FSkJV/h+acaJOiNe23l2nWVX87M6rK9a3YMTI899vX
FUG3nv2yNTwtm61ulk3LeQn4lmuApjbUbHz/q23ihvh8nX4sMr9FR2142Dy7fLMW
1xa4TvKsYIn2jH5Rmmb1PWU73jmXifJoQl17crPHPVXwSzIE5UODMnAOJHL7r+b7
cx5d0AXxPCeWGAwVl1zs0c7FKTys/gh6NOZ+tk76D4OwreCTzRQgM6Ef5z92fMgd
JzQ4q7v9UyO59c4CGPuIFcPdi8DZv98EQ+SSq9+3gTfoRNs/+RMlcsfXBgHhQ+AL
S80ijzAuEnsrN+AT22NJGPk8OyLzUg820GMGADGFWisg+RoxnUWWMyGV2jHdX0Ox
1C8nki159mtJkqzHZ9lp9R0TOhXLJRpF7WS9w0uCatjw16euIcX5iIrCpWDSgZYS
D38Fuj0VGRK6jMvxOUdHuBmTwxf0pZEMYF+wiSRV8rO3FSrTk5Ei1XmMQmLKoi0M
LWSgfQIDAQABo4IBazCCAWcwCQYDVR0TBAIwADAtBglghkgBhvhCAQ0EIBYeRWFz
eS1SU0EgR2VuZXJhdGVkIENlcnRpZmljYXRlMB0GA1UdDgQWBBQZgCKBFNrlyjRL
RDRVDiX0EzvMtDCB6QYDVR0jBIHhMIHegBTvOI0UUFinW02cF3L837msp1GwEKGB
uqSBtzCBtDELMAkGA1UEBhMCVVMxCzAJBgNVBAgTAkNBMRUwEwYDVQQHEwxTYW5G
cmFuY2lzY28xFTATBgNVBAoTDFBpeGdsbywgSW5jLjEQMA4GA1UECxMHVlBOLUNJ
RTEaMBgGA1UEAxMRdHVubmVsLnBpeGdsby5jb20xHDAaBgNVBCkTE0JhbGEgQ2hh
bmRyYXNla2FyYW4xHjAcBgkqhkiG9w0BCQEWD2JhbGFAcGl4Z2xvLmNvbYIJAKbb
xoOA5qB5MBMGA1UdJQQMMAoGCCsGAQUFBwMCMAsGA1UdDwQEAwIHgDANBgkqhkiG
9w0BAQUFAAOCAgEAFXgfhmMTFgYrMW+PmILa6rlGb4lMAnI0Gva+hlT5h8HWZlNO
CRtXZfwzJUlvapPXo6Hzrg9C1TXq+PWwM0iW/FEz5GUy5L7E9ozsJnLpD7Gau9fx
8SJQmLzlF1cn6w7TXdviQ5v/x9GV1am+n3+AgjvAOs44jg6kHLiIFTQIR1uTe36I
RtN3sKmxaA4/Xk5v5LngC6qsxLOO/aNHy7SrGeQaTu5fgpa7jdrQyibBl9+CX/cZ
9qnGd0V5bQutzdN9tkvpg6lOv8XvllzsbaOswWLp+kze1V5Ca1f6zzIGsPVcs6Ut
75QC2RR0X4ixJ2Ah9RyfQJAwv5c3sY//7gDqcmNV85tH3bsw9HmhYuajrv8huHu1
KMiv87bictSdaSHJuzir1jnYhSENnu2LQCxqpRjXNdqZdCvqJPueOYl+SfPa9zt0
Upj+Z0QVeYnDzC1DUzEx9Uwrt5bXgvoUqnZK74ZsZarQLojksSMN9cb1dHvo6piN
1YaE7I4+cpIcJfU5Sgrf+Oz0fRdwqna2KWkG+oO+PoiE/ozKX3lIMOUqOAtGfu+x
+uhJbskDREWJkuXo3ziiJgsE0hBLr77ocxJZgfKiocBwasdMNhcJRN/ZaC2yOO3Z
qHBuWMA0Wo5RvUumbX7hrnHseskutrFw4VLkqgQH9JVyZH/kO5Qo84d7s5E=
-----END CERTIFICATE-----
