Certificate:
    Data:
        Version: 3 (0x2)
        Serial Number: 957 (0x3bd)
    Signature Algorithm: sha1WithRSAEncryption
        Issuer: C=US, ST=CA, L=SanFrancisco, O=Pixglo, Inc., OU=VPN-CIE, CN=tunnel.pixglo.com/name=Bala Chandrasekaran/emailAddress=bala@pixglo.com
        Validity
            Not Before: Feb 14 06:49:14 2018 GMT
            Not After : Feb 12 06:49:14 2028 GMT
        Subject: C=US, ST=CA, L=SanFrancisco, O=Pixglo, Inc., OU=VPN-CIE, CN=cie956/name=Bala Chandrasekaran/emailAddress=bala@pixglo.com
        Subject Public Key Info:
            Public Key Algorithm: rsaEncryption
                Public-Key: (4096 bit)
                Modulus:
                    00:de:6e:42:2c:e0:f1:b0:85:b6:4f:d8:87:5c:e2:
                    be:b1:b3:4e:22:17:4d:6b:b9:82:67:04:ae:9d:65:
                    7d:0f:7f:ac:19:3c:dc:78:20:50:3c:c1:25:28:77:
                    8c:fd:80:51:36:19:8e:8b:e9:bc:81:a7:f1:1c:47:
                    76:f9:04:68:04:9b:b0:97:a6:ac:eb:cf:a0:31:29:
                    25:cc:f5:c8:ba:51:ea:bf:22:af:dd:42:3e:a2:d9:
                    9a:3f:fc:b1:1d:8b:73:d5:7b:bb:a7:b8:7c:53:61:
                    2f:e9:2b:eb:9a:dd:03:ce:fe:40:2f:8b:d2:63:27:
                    8d:1b:7f:86:71:e7:5a:86:db:57:a6:75:dc:b3:87:
                    da:3c:c6:dd:75:65:13:6d:72:83:f8:4c:f9:ea:d7:
                    d9:b7:be:94:f9:83:15:61:81:99:86:68:91:71:4c:
                    fa:92:9b:08:19:56:2a:30:d9:7a:06:6e:11:8c:fe:
                    8d:33:9a:44:da:34:5e:31:c0:b3:f5:48:19:2e:93:
                    b4:b2:a6:3e:9f:a8:6c:46:f0:46:07:d2:91:3a:a9:
                    8d:0e:91:99:03:53:58:fa:e8:f2:62:e9:66:3a:43:
                    1f:9c:6a:5d:e9:49:3a:f7:08:b2:d8:c3:77:19:73:
                    6e:de:ea:7b:b0:5c:ee:26:cf:42:a4:f7:c3:5c:59:
                    b9:fc:df:b0:aa:d4:39:4f:9a:90:83:9c:50:75:6b:
                    f2:b8:9e:86:af:4c:7c:fe:8d:7d:20:d4:9d:54:90:
                    26:6f:e5:de:c1:30:ce:66:03:8a:bb:bb:2a:c8:68:
                    df:72:79:fd:9c:a4:e3:0f:12:cc:01:3f:8d:e6:7b:
                    16:35:b9:67:75:e1:53:4b:9f:c3:fa:a9:5f:a4:da:
                    e4:4c:6d:50:be:32:ff:fd:6b:5c:1e:c4:6c:5f:7f:
                    f5:2e:63:3a:9c:55:41:47:19:58:6a:31:b9:83:73:
                    84:4f:be:1f:bd:5d:0f:1e:fd:60:be:5f:94:c8:d3:
                    23:a1:46:d2:23:b6:aa:29:d5:45:3e:78:4c:23:db:
                    e5:ae:05:69:cf:40:f5:d4:a0:44:a3:90:5b:47:4c:
                    8c:50:17:8f:69:a6:40:02:c6:9d:77:6a:d9:d9:d0:
                    d9:7f:72:39:53:25:13:8f:e4:ff:86:67:c5:11:97:
                    da:70:5d:c6:f9:d1:dd:57:b8:69:36:e5:48:0c:1c:
                    b7:40:13:83:e4:dd:d1:28:76:45:d1:af:14:85:ed:
                    d6:87:a3:e1:eb:66:00:c5:ed:3a:e1:43:05:6f:f5:
                    29:75:12:d7:af:d6:1d:0a:26:8e:b3:be:5a:aa:7a:
                    95:06:5e:17:95:30:8f:e4:05:57:1e:00:df:2b:cb:
                    29:eb:2f
                Exponent: 65537 (0x10001)
        X509v3 extensions:
            X509v3 Basic Constraints: 
                CA:FALSE
            Netscape Comment: 
                Easy-RSA Generated Certificate
            X509v3 Subject Key Identifier: 
                FF:CB:92:4F:CA:AA:87:3A:4D:AB:63:1B:00:10:F9:A1:DF:AA:4F:44
            X509v3 Authority Key Identifier: 
                keyid:EF:38:8D:14:50:58:A7:5B:4D:9C:17:72:FC:DF:B9:AC:A7:51:B0:10
                DirName:/C=US/ST=CA/L=SanFrancisco/O=Pixglo, Inc./OU=VPN-CIE/CN=tunnel.pixglo.com/name=Bala Chandrasekaran/emailAddress=bala@pixglo.com
                serial:A6:DB:C6:83:80:E6:A0:79

            X509v3 Extended Key Usage: 
                TLS Web Client Authentication
            X509v3 Key Usage: 
                Digital Signature
    Signature Algorithm: sha1WithRSAEncryption
         6b:06:06:19:92:74:ff:e8:2d:41:42:e0:e1:6e:3b:f9:09:a0:
         b0:80:bc:dc:04:2c:cd:88:b7:82:0f:12:33:f7:b6:6f:51:c0:
         42:65:83:83:06:76:81:6b:86:d4:7d:dd:c4:d6:62:f3:d8:5f:
         9c:ce:e9:0f:5d:75:20:14:9d:dd:85:86:02:32:2d:94:43:d8:
         45:88:6c:64:a7:35:62:40:ab:f5:31:ff:bc:52:be:32:b9:2a:
         3c:0d:05:c8:c8:ac:f2:58:a7:e8:1e:a3:5e:90:8e:2d:d2:59:
         64:59:f8:33:58:32:24:26:2c:0b:2b:25:3c:b3:a1:dc:70:87:
         ea:10:11:ab:cd:e5:7b:e8:5b:b6:7a:45:c6:00:69:21:0c:92:
         dc:b0:07:6f:17:c5:dc:23:29:ee:d9:f2:16:24:de:87:40:e0:
         29:be:8d:77:23:70:78:01:e5:b5:d2:02:35:7a:c5:04:6c:4b:
         65:04:74:ac:8c:58:5e:be:1e:a3:2b:89:8e:ee:dc:99:f7:5a:
         b9:14:b7:2c:94:5e:5a:15:c4:1d:bc:e0:02:09:d3:c5:49:b3:
         d5:f7:ce:f1:9f:0a:cd:1f:b0:61:27:ac:d8:b9:2d:39:a9:ce:
         82:32:e0:8c:d6:d8:af:ba:ab:1f:10:bc:41:cc:42:3c:36:4b:
         90:db:10:54:c9:2a:be:6a:8b:ee:ce:99:4a:39:fe:0b:52:77:
         b9:f2:9f:f2:6b:16:6c:1b:0a:cf:fd:c9:5e:27:cb:00:dc:ca:
         8a:28:3a:95:d2:0c:c4:14:ec:68:0b:60:e8:35:1d:1d:99:a4:
         1b:4c:ee:a2:c7:d4:ea:6e:7c:9f:d3:0d:e7:31:93:44:4b:48:
         8b:6e:b5:e6:99:73:aa:70:9c:f2:ee:02:a0:b4:f2:a2:9b:3d:
         0c:da:c5:dc:c4:af:db:38:ae:c0:01:23:07:43:4d:93:0a:38:
         a2:11:f2:b2:cf:f6:c7:38:d2:71:cf:76:29:b0:26:fa:9d:41:
         e6:84:75:c5:f5:a7:c1:af:16:fd:32:00:9e:e5:0e:a4:76:92:
         3e:ee:29:eb:7f:1c:89:ae:a3:d7:e7:a2:0f:c6:37:06:ee:29:
         01:40:f4:26:52:8c:70:5b:dc:d1:3b:0b:60:c5:d9:4b:76:ed:
         d0:e6:bb:8c:0d:da:5d:e2:c4:bb:ff:97:45:0d:2f:6c:62:31:
         31:46:59:e4:c8:f2:d5:3f:1d:08:32:87:9d:f2:35:8c:03:a9:
         ef:e3:da:13:aa:fd:3e:07:f3:d7:b1:b9:c5:28:10:1d:a4:04:
         2a:7d:4b:c7:ce:8a:ff:6c:10:99:ed:9c:c3:77:ed:99:c3:0a:
         2c:5a:55:14:76:f8:3d:e5
-----BEGIN CERTIFICATE-----
MIIHSDCCBTCgAwIBAgICA70wDQYJKoZIhvcNAQEFBQAwgbQxCzAJBgNVBAYTAlVT
MQswCQYDVQQIEwJDQTEVMBMGA1UEBxMMU2FuRnJhbmNpc2NvMRUwEwYDVQQKEwxQ
aXhnbG8sIEluYy4xEDAOBgNVBAsTB1ZQTi1DSUUxGjAYBgNVBAMTEXR1bm5lbC5w
aXhnbG8uY29tMRwwGgYDVQQpExNCYWxhIENoYW5kcmFzZWthcmFuMR4wHAYJKoZI
hvcNAQkBFg9iYWxhQHBpeGdsby5jb20wHhcNMTgwMjE0MDY0OTE0WhcNMjgwMjEy
MDY0OTE0WjCBqTELMAkGA1UEBhMCVVMxCzAJBgNVBAgTAkNBMRUwEwYDVQQHEwxT
YW5GcmFuY2lzY28xFTATBgNVBAoTDFBpeGdsbywgSW5jLjEQMA4GA1UECxMHVlBO
LUNJRTEPMA0GA1UEAxMGY2llOTU2MRwwGgYDVQQpExNCYWxhIENoYW5kcmFzZWth
cmFuMR4wHAYJKoZIhvcNAQkBFg9iYWxhQHBpeGdsby5jb20wggIiMA0GCSqGSIb3
DQEBAQUAA4ICDwAwggIKAoICAQDebkIs4PGwhbZP2Idc4r6xs04iF01ruYJnBK6d
ZX0Pf6wZPNx4IFA8wSUod4z9gFE2GY6L6byBp/EcR3b5BGgEm7CXpqzrz6AxKSXM
9ci6Ueq/Iq/dQj6i2Zo//LEdi3PVe7unuHxTYS/pK+ua3QPO/kAvi9JjJ40bf4Zx
51qG21emddyzh9o8xt11ZRNtcoP4TPnq19m3vpT5gxVhgZmGaJFxTPqSmwgZViow
2XoGbhGM/o0zmkTaNF4xwLP1SBkuk7Sypj6fqGxG8EYH0pE6qY0OkZkDU1j66PJi
6WY6Qx+cal3pSTr3CLLYw3cZc27e6nuwXO4mz0Kk98NcWbn837Cq1DlPmpCDnFB1
a/K4noavTHz+jX0g1J1UkCZv5d7BMM5mA4q7uyrIaN9yef2cpOMPEswBP43mexY1
uWd14VNLn8P6qV+k2uRMbVC+Mv/9a1wexGxff/UuYzqcVUFHGVhqMbmDc4RPvh+9
XQ8e/WC+X5TI0yOhRtIjtqop1UU+eEwj2+WuBWnPQPXUoESjkFtHTIxQF49ppkAC
xp13atnZ0Nl/cjlTJROP5P+GZ8URl9pwXcb50d1XuGk25UgMHLdAE4Pk3dEodkXR
rxSF7daHo+HrZgDF7TrhQwVv9Sl1Etev1h0KJo6zvlqqepUGXheVMI/kBVceAN8r
yynrLwIDAQABo4IBazCCAWcwCQYDVR0TBAIwADAtBglghkgBhvhCAQ0EIBYeRWFz
eS1SU0EgR2VuZXJhdGVkIENlcnRpZmljYXRlMB0GA1UdDgQWBBT/y5JPyqqHOk2r
YxsAEPmh36pPRDCB6QYDVR0jBIHhMIHegBTvOI0UUFinW02cF3L837msp1GwEKGB
uqSBtzCBtDELMAkGA1UEBhMCVVMxCzAJBgNVBAgTAkNBMRUwEwYDVQQHEwxTYW5G
cmFuY2lzY28xFTATBgNVBAoTDFBpeGdsbywgSW5jLjEQMA4GA1UECxMHVlBOLUNJ
RTEaMBgGA1UEAxMRdHVubmVsLnBpeGdsby5jb20xHDAaBgNVBCkTE0JhbGEgQ2hh
bmRyYXNla2FyYW4xHjAcBgkqhkiG9w0BCQEWD2JhbGFAcGl4Z2xvLmNvbYIJAKbb
xoOA5qB5MBMGA1UdJQQMMAoGCCsGAQUFBwMCMAsGA1UdDwQEAwIHgDANBgkqhkiG
9w0BAQUFAAOCAgEAawYGGZJ0/+gtQULg4W47+QmgsIC83AQszYi3gg8SM/e2b1HA
QmWDgwZ2gWuG1H3dxNZi89hfnM7pD111IBSd3YWGAjItlEPYRYhsZKc1YkCr9TH/
vFK+MrkqPA0FyMis8lin6B6jXpCOLdJZZFn4M1gyJCYsCyslPLOh3HCH6hARq83l
e+hbtnpFxgBpIQyS3LAHbxfF3CMp7tnyFiTeh0DgKb6NdyNweAHltdICNXrFBGxL
ZQR0rIxYXr4eoyuJju7cmfdauRS3LJReWhXEHbzgAgnTxUmz1ffO8Z8KzR+wYSes
2LktOanOgjLgjNbYr7qrHxC8QcxCPDZLkNsQVMkqvmqL7s6ZSjn+C1J3ufKf8msW
bBsKz/3JXifLANzKiig6ldIMxBTsaAtg6DUdHZmkG0zuosfU6m58n9MN5zGTREtI
i2615plzqnCc8u4CoLTyops9DNrF3MSv2ziuwAEjB0NNkwo4ohHyss/2xzjScc92
KbAm+p1B5oR1xfWnwa8W/TIAnuUOpHaSPu4p638cia6j1+eiD8Y3Bu4pAUD0JlKM
cFvc0TsLYMXZS3bt0Oa7jA3aXeLEu/+XRQ0vbGIxMUZZ5Mjy1T8dCDKHnfI1jAOp
7+PaE6r9Pgfz17G5xSgQHaQEKn1Lx86K/2wQme2cw3ftmcMKLFpVFHb4PeU=
-----END CERTIFICATE-----
