Certificate:
    Data:
        Version: 3 (0x2)
        Serial Number: 958 (0x3be)
    Signature Algorithm: sha1WithRSAEncryption
        Issuer: C=US, ST=CA, L=SanFrancisco, O=Pixglo, Inc., OU=VPN-CIE, CN=tunnel.pixglo.com/name=Bala Chandrasekaran/emailAddress=bala@pixglo.com
        Validity
            Not Before: Feb 14 06:49:16 2018 GMT
            Not After : Feb 12 06:49:16 2028 GMT
        Subject: C=US, ST=CA, L=SanFrancisco, O=Pixglo, Inc., OU=VPN-CIE, CN=cie957/name=Bala Chandrasekaran/emailAddress=bala@pixglo.com
        Subject Public Key Info:
            Public Key Algorithm: rsaEncryption
                Public-Key: (4096 bit)
                Modulus:
                    00:d2:1e:56:29:36:67:64:8c:da:66:f3:df:dc:5d:
                    cb:02:c9:82:55:c6:94:63:50:e6:d6:3a:18:e1:29:
                    94:e6:ce:06:25:b3:35:7d:3c:1a:28:80:e1:ca:47:
                    7d:8b:72:bd:16:a5:63:7c:ef:b3:1b:d4:3c:9c:37:
                    db:e2:42:f0:26:b4:e7:48:85:62:11:c3:e2:4b:bd:
                    61:f8:70:68:c6:e1:c2:4d:35:ff:a1:39:ba:6d:3a:
                    29:0e:d3:cb:36:e0:51:e0:87:37:f6:5a:0e:7a:f5:
                    cd:d3:46:c2:30:77:b9:5b:b5:b7:89:ba:4e:52:8c:
                    94:70:72:f4:77:11:0b:f1:f9:92:e6:38:3a:b9:97:
                    3e:b1:b2:0c:7b:c4:70:f6:21:56:01:71:d8:fe:6f:
                    b3:de:fc:b1:b3:c3:cf:e8:cb:c8:c8:d2:44:30:21:
                    62:4b:8f:f7:28:cc:75:5d:1a:fe:c1:aa:c0:42:9d:
                    a8:1e:60:83:46:51:66:93:68:2b:d7:4b:fc:f6:09:
                    41:43:26:1a:48:0f:86:c0:f6:7a:aa:17:c4:2f:d3:
                    07:87:4e:4c:9a:65:52:fb:d1:3d:d0:17:64:68:73:
                    e8:25:73:dd:fb:86:c0:0a:e0:1f:4d:d5:57:40:28:
                    b9:9e:bf:a6:2e:b3:d0:20:02:ef:f6:25:0e:14:7f:
                    43:0b:78:ec:c9:95:ae:0e:9e:fe:37:c6:f2:73:bd:
                    87:4a:ea:a7:80:6c:04:dc:71:8c:74:cd:61:5a:e5:
                    88:65:55:86:6f:63:70:c0:50:76:65:e8:9e:63:18:
                    7f:73:4f:53:f7:e5:b8:9a:4e:46:fb:4c:83:9c:af:
                    f0:b1:9d:b3:3c:a1:dd:a5:f7:55:c1:8f:58:1b:0c:
                    dc:85:5f:a4:36:32:00:8e:9d:04:3b:fe:34:5d:85:
                    43:c0:28:49:ad:5e:71:20:d6:52:b0:78:87:59:8c:
                    f0:28:64:b6:ad:ee:45:33:57:ac:00:df:34:61:a5:
                    36:8f:bd:0c:1c:5b:3c:f5:40:dc:94:46:82:64:3c:
                    d6:2d:ba:b8:0e:1d:b7:16:3b:6b:78:14:1a:58:fd:
                    5a:c7:58:ca:4a:8c:32:d2:5c:a2:0e:51:c3:ba:01:
                    70:3f:fe:7d:11:20:77:0d:90:30:53:15:19:02:77:
                    3d:ee:8a:95:47:f2:b5:01:04:5d:0e:d0:9a:77:7d:
                    bd:43:20:a2:21:7b:4f:19:b9:32:a2:7b:2d:28:c5:
                    06:cc:26:60:66:38:af:86:c9:cb:0c:33:06:a2:48:
                    7a:53:96:41:e8:10:b4:cd:c5:5a:65:03:17:21:f6:
                    9b:7b:73:58:92:27:49:fa:23:94:e1:34:9b:8c:dc:
                    34:9a:4f
                Exponent: 65537 (0x10001)
        X509v3 extensions:
            X509v3 Basic Constraints: 
                CA:FALSE
            Netscape Comment: 
                Easy-RSA Generated Certificate
            X509v3 Subject Key Identifier: 
                B5:9A:2E:A3:23:B8:A4:BF:62:62:7B:79:6D:2B:11:88:4D:3B:9B:67
            X509v3 Authority Key Identifier: 
                keyid:EF:38:8D:14:50:58:A7:5B:4D:9C:17:72:FC:DF:B9:AC:A7:51:B0:10
                DirName:/C=US/ST=CA/L=SanFrancisco/O=Pixglo, Inc./OU=VPN-CIE/CN=tunnel.pixglo.com/name=Bala Chandrasekaran/emailAddress=bala@pixglo.com
                serial:A6:DB:C6:83:80:E6:A0:79

            X509v3 Extended Key Usage: 
                TLS Web Client Authentication
            X509v3 Key Usage: 
                Digital Signature
    Signature Algorithm: sha1WithRSAEncryption
         c8:03:67:e8:98:32:c9:1c:da:4c:69:b6:d9:37:f6:18:a0:39:
         87:db:16:e4:64:e3:f0:26:29:0e:11:d7:a1:43:c4:6b:0a:97:
         21:84:77:f4:92:8b:fd:d0:7b:68:e5:bc:df:75:49:a0:0c:72:
         38:25:87:6e:69:4f:d7:4b:3e:e7:09:83:e8:92:1e:00:3d:35:
         75:e4:e8:a7:56:9e:f3:26:85:7a:ec:0e:37:bd:41:fe:3a:ee:
         3a:40:76:78:3f:1f:a8:59:93:b7:a1:c4:a2:e0:5c:ea:d1:ad:
         df:f9:af:00:09:93:d3:9c:c7:ba:d2:50:0c:14:fb:ef:6c:d9:
         ac:9b:14:10:d3:7c:e6:65:c6:32:2b:8e:7e:b3:77:17:78:9c:
         87:ad:a2:4a:31:64:8e:d0:3a:48:5d:60:a9:c0:95:3e:96:98:
         fc:d3:22:6a:86:1d:50:bd:9d:0c:40:31:ee:36:a9:1e:7d:e9:
         96:72:ce:94:45:68:1d:a0:45:d4:75:0c:bd:9c:31:dc:13:e6:
         01:db:ce:18:ec:a5:d1:7f:03:b9:1e:af:6d:4d:f3:5b:53:20:
         32:c6:21:57:d8:f1:cb:64:ff:7b:09:d9:1c:a3:9e:33:bf:49:
         d8:d2:d0:ef:8b:e1:a4:11:7a:f3:ef:98:e1:f7:5d:0d:64:8e:
         c2:d6:fc:f9:0b:48:c8:ae:15:0c:d9:cc:be:3c:51:65:45:1d:
         ee:fc:70:97:00:bc:7e:2a:30:d3:e6:6b:64:f4:35:d3:b5:cd:
         78:04:a0:6a:e5:b5:36:82:6b:aa:f9:0c:52:3b:28:a2:b8:e5:
         e5:54:c9:71:61:67:f6:77:8a:87:03:cd:17:75:26:fb:dc:7c:
         ee:60:10:1b:15:60:50:1e:7a:ea:10:d1:95:72:da:c2:80:ec:
         a4:b4:7d:f0:ee:16:5d:8e:83:14:b2:2d:31:9b:11:35:f0:5b:
         a2:b8:38:97:72:20:84:14:48:b1:4a:57:69:fb:46:bd:85:12:
         86:1c:b6:33:a6:cb:db:88:65:52:c2:43:9e:11:a4:a1:1f:fe:
         a6:5a:a6:c0:9a:af:fe:72:a2:bd:7c:d8:09:40:30:7e:a1:4b:
         38:a4:14:36:6a:7c:10:87:d4:a6:1a:d8:c2:04:ab:59:d5:71:
         be:96:cc:4e:79:aa:5b:ce:2a:e5:57:87:7b:41:f1:04:4c:fc:
         48:16:ba:0e:4c:8f:04:ac:7c:75:5a:c3:4b:34:b8:a4:ec:46:
         44:b0:6a:71:5e:df:38:17:9c:17:fe:29:8e:02:bc:44:c7:4d:
         60:9b:2c:2e:2c:79:02:71:c8:81:10:19:ba:ab:dd:35:b1:0b:
         1e:b1:5f:9b:55:c0:60:b8
-----BEGIN CERTIFICATE-----
MIIHSDCCBTCgAwIBAgICA74wDQYJKoZIhvcNAQEFBQAwgbQxCzAJBgNVBAYTAlVT
MQswCQYDVQQIEwJDQTEVMBMGA1UEBxMMU2FuRnJhbmNpc2NvMRUwEwYDVQQKEwxQ
aXhnbG8sIEluYy4xEDAOBgNVBAsTB1ZQTi1DSUUxGjAYBgNVBAMTEXR1bm5lbC5w
aXhnbG8uY29tMRwwGgYDVQQpExNCYWxhIENoYW5kcmFzZWthcmFuMR4wHAYJKoZI
hvcNAQkBFg9iYWxhQHBpeGdsby5jb20wHhcNMTgwMjE0MDY0OTE2WhcNMjgwMjEy
MDY0OTE2WjCBqTELMAkGA1UEBhMCVVMxCzAJBgNVBAgTAkNBMRUwEwYDVQQHEwxT
YW5GcmFuY2lzY28xFTATBgNVBAoTDFBpeGdsbywgSW5jLjEQMA4GA1UECxMHVlBO
LUNJRTEPMA0GA1UEAxMGY2llOTU3MRwwGgYDVQQpExNCYWxhIENoYW5kcmFzZWth
cmFuMR4wHAYJKoZIhvcNAQkBFg9iYWxhQHBpeGdsby5jb20wggIiMA0GCSqGSIb3
DQEBAQUAA4ICDwAwggIKAoICAQDSHlYpNmdkjNpm89/cXcsCyYJVxpRjUObWOhjh
KZTmzgYlszV9PBoogOHKR32Lcr0WpWN877Mb1DycN9viQvAmtOdIhWIRw+JLvWH4
cGjG4cJNNf+hObptOikO08s24FHghzf2Wg569c3TRsIwd7lbtbeJuk5SjJRwcvR3
EQvx+ZLmODq5lz6xsgx7xHD2IVYBcdj+b7Pe/LGzw8/oy8jI0kQwIWJLj/cozHVd
Gv7BqsBCnageYINGUWaTaCvXS/z2CUFDJhpID4bA9nqqF8Qv0weHTkyaZVL70T3Q
F2Roc+glc937hsAK4B9N1VdAKLmev6Yus9AgAu/2JQ4Uf0MLeOzJla4Onv43xvJz
vYdK6qeAbATccYx0zWFa5YhlVYZvY3DAUHZl6J5jGH9zT1P35biaTkb7TIOcr/Cx
nbM8od2l91XBj1gbDNyFX6Q2MgCOnQQ7/jRdhUPAKEmtXnEg1lKweIdZjPAoZLat
7kUzV6wA3zRhpTaPvQwcWzz1QNyURoJkPNYturgOHbcWO2t4FBpY/VrHWMpKjDLS
XKIOUcO6AXA//n0RIHcNkDBTFRkCdz3uipVH8rUBBF0O0Jp3fb1DIKIhe08ZuTKi
ey0oxQbMJmBmOK+GycsMMwaiSHpTlkHoELTNxVplAxch9pt7c1iSJ0n6I5ThNJuM
3DSaTwIDAQABo4IBazCCAWcwCQYDVR0TBAIwADAtBglghkgBhvhCAQ0EIBYeRWFz
eS1SU0EgR2VuZXJhdGVkIENlcnRpZmljYXRlMB0GA1UdDgQWBBS1mi6jI7ikv2Ji
e3ltKxGITTubZzCB6QYDVR0jBIHhMIHegBTvOI0UUFinW02cF3L837msp1GwEKGB
uqSBtzCBtDELMAkGA1UEBhMCVVMxCzAJBgNVBAgTAkNBMRUwEwYDVQQHEwxTYW5G
cmFuY2lzY28xFTATBgNVBAoTDFBpeGdsbywgSW5jLjEQMA4GA1UECxMHVlBOLUNJ
RTEaMBgGA1UEAxMRdHVubmVsLnBpeGdsby5jb20xHDAaBgNVBCkTE0JhbGEgQ2hh
bmRyYXNla2FyYW4xHjAcBgkqhkiG9w0BCQEWD2JhbGFAcGl4Z2xvLmNvbYIJAKbb
xoOA5qB5MBMGA1UdJQQMMAoGCCsGAQUFBwMCMAsGA1UdDwQEAwIHgDANBgkqhkiG
9w0BAQUFAAOCAgEAyANn6JgyyRzaTGm22Tf2GKA5h9sW5GTj8CYpDhHXoUPEawqX
IYR39JKL/dB7aOW833VJoAxyOCWHbmlP10s+5wmD6JIeAD01deTop1ae8yaFeuwO
N71B/jruOkB2eD8fqFmTt6HEouBc6tGt3/mvAAmT05zHutJQDBT772zZrJsUENN8
5mXGMiuOfrN3F3ich62iSjFkjtA6SF1gqcCVPpaY/NMiaoYdUL2dDEAx7japHn3p
lnLOlEVoHaBF1HUMvZwx3BPmAdvOGOyl0X8DuR6vbU3zW1MgMsYhV9jxy2T/ewnZ
HKOeM79J2NLQ74vhpBF68++Y4fddDWSOwtb8+QtIyK4VDNnMvjxRZUUd7vxwlwC8
fiow0+ZrZPQ107XNeASgauW1NoJrqvkMUjsoorjl5VTJcWFn9neKhwPNF3Um+9x8
7mAQGxVgUB566hDRlXLawoDspLR98O4WXY6DFLItMZsRNfBborg4l3IghBRIsUpX
aftGvYUShhy2M6bL24hlUsJDnhGkoR/+plqmwJqv/nKivXzYCUAwfqFLOKQUNmp8
EIfUphrYwgSrWdVxvpbMTnmqW84q5VeHe0HxBEz8SBa6DkyPBKx8dVrDSzS4pOxG
RLBqcV7fOBecF/4pjgK8RMdNYJssLix5AnHIgRAZuqvdNbELHrFfm1XAYLg=
-----END CERTIFICATE-----
