Certificate:
    Data:
        Version: 3 (0x2)
        Serial Number: 959 (0x3bf)
    Signature Algorithm: sha1WithRSAEncryption
        Issuer: C=US, ST=CA, L=SanFrancisco, O=Pixglo, Inc., OU=VPN-CIE, CN=tunnel.pixglo.com/name=Bala Chandrasekaran/emailAddress=bala@pixglo.com
        Validity
            Not Before: Feb 14 06:49:19 2018 GMT
            Not After : Feb 12 06:49:19 2028 GMT
        Subject: C=US, ST=CA, L=SanFrancisco, O=Pixglo, Inc., OU=VPN-CIE, CN=cie958/name=Bala Chandrasekaran/emailAddress=bala@pixglo.com
        Subject Public Key Info:
            Public Key Algorithm: rsaEncryption
                Public-Key: (4096 bit)
                Modulus:
                    00:b9:57:74:1e:2a:b8:4d:e2:d4:d3:73:ee:f3:28:
                    98:4b:38:b2:25:0b:70:25:b2:6f:7b:74:5e:8f:19:
                    3b:bb:b5:24:c8:dc:15:25:3f:d7:74:ff:7e:1c:9c:
                    7c:b1:2e:25:78:80:bc:58:21:5b:aa:6a:88:6a:d9:
                    c9:cd:c4:08:f1:66:41:0f:37:4e:d0:29:bb:0f:ca:
                    d6:38:75:5e:03:37:b5:2e:02:7c:76:95:31:cc:a0:
                    26:7d:30:a7:46:69:62:84:ae:7c:89:38:42:45:13:
                    5e:03:b8:56:a8:22:ce:c1:86:cc:00:c4:a6:71:55:
                    de:b8:ec:3f:80:33:08:da:39:5d:c4:89:5f:2e:6d:
                    7e:c5:b5:6e:9a:e9:16:c2:5b:fe:58:96:0e:ac:99:
                    d7:1f:33:5a:d5:af:24:fb:57:9d:81:fe:27:97:f9:
                    2b:c8:9d:e3:11:e0:d1:13:7c:b5:73:84:ec:b2:12:
                    e8:1c:98:b2:72:d2:a9:36:3b:ba:7f:df:fc:5e:29:
                    ab:59:7c:a1:fc:c4:83:93:17:cf:bb:ae:67:d4:bc:
                    76:e6:c1:2c:5a:3c:cc:61:95:03:25:7c:8a:db:df:
                    60:c8:b2:51:58:ca:18:f7:76:27:17:e1:d5:7f:6a:
                    30:bf:68:06:4c:5a:74:2f:be:4f:b4:bf:46:e4:89:
                    b0:df:14:93:dd:45:d3:84:f1:2e:b2:4b:4d:c4:18:
                    25:99:9c:6c:7a:1e:63:12:1b:65:e5:f4:93:7a:34:
                    d3:56:cb:00:b1:b3:ff:3a:6b:96:24:98:55:95:96:
                    cd:0b:2b:51:21:4c:05:c5:91:98:fe:c8:f2:e2:d9:
                    0c:5e:7a:70:5b:7f:55:b9:3c:c7:7c:dd:82:cf:a9:
                    82:e3:58:99:1d:3b:e8:31:3c:45:6f:aa:2a:a9:ad:
                    fb:e5:01:a9:da:a2:24:f3:86:13:30:db:4e:1c:fe:
                    74:e8:d1:04:b3:ad:75:80:7b:7b:d8:5c:c6:da:1d:
                    39:f5:82:d3:63:cf:6a:50:db:a8:7e:71:d3:58:8b:
                    ad:f3:9f:ca:f7:f8:6b:eb:35:0a:b3:70:eb:b3:24:
                    1a:15:92:39:b9:1a:d9:a5:57:0e:66:99:e9:26:61:
                    57:85:04:f6:c1:f6:de:82:58:41:fe:e2:2b:81:bf:
                    fc:f2:75:c3:51:a1:41:b8:9b:fa:00:a7:f5:a1:ff:
                    90:6d:2a:18:8f:2c:4b:37:b5:97:a5:8a:41:07:d0:
                    d8:f8:7e:cf:fb:d8:74:04:cb:d5:fe:08:c7:0e:3f:
                    09:d6:82:d0:19:81:aa:6f:62:ba:ab:82:22:71:0f:
                    5e:0e:07:4a:1a:21:4a:03:dd:90:d9:09:79:49:eb:
                    be:1b:bf
                Exponent: 65537 (0x10001)
        X509v3 extensions:
            X509v3 Basic Constraints: 
                CA:FALSE
            Netscape Comment: 
                Easy-RSA Generated Certificate
            X509v3 Subject Key Identifier: 
                4E:EA:9B:20:B8:AE:D8:62:F7:10:0D:24:7D:DD:A4:AC:48:BC:96:DD
            X509v3 Authority Key Identifier: 
                keyid:EF:38:8D:14:50:58:A7:5B:4D:9C:17:72:FC:DF:B9:AC:A7:51:B0:10
                DirName:/C=US/ST=CA/L=SanFrancisco/O=Pixglo, Inc./OU=VPN-CIE/CN=tunnel.pixglo.com/name=Bala Chandrasekaran/emailAddress=bala@pixglo.com
                serial:A6:DB:C6:83:80:E6:A0:79

            X509v3 Extended Key Usage: 
                TLS Web Client Authentication
            X509v3 Key Usage: 
                Digital Signature
    Signature Algorithm: sha1WithRSAEncryption
         49:23:9a:5a:36:8c:fd:8c:e7:8f:16:e7:04:e8:ae:90:58:e4:
         dc:37:44:db:9c:b6:4c:c3:93:1f:6a:90:e8:6c:87:bd:45:c1:
         fd:59:88:1a:8c:df:9d:21:b2:96:bb:94:1b:d2:8c:fb:93:51:
         40:3a:72:21:92:ac:dc:c4:32:87:a9:22:47:23:76:df:de:e1:
         91:91:fe:1a:5d:c9:47:a8:74:e7:74:71:cb:00:04:d7:ed:fd:
         0c:d1:91:15:0a:78:d6:da:a0:ee:98:2d:41:66:44:05:a8:97:
         ba:68:21:c7:a5:66:7c:5f:6e:ef:22:da:67:22:e4:4d:32:cf:
         ee:73:10:08:ae:cc:ad:c2:30:70:55:33:10:5b:2a:8a:d6:e1:
         6a:c2:a6:0e:d2:0d:86:a6:14:d1:53:f8:df:9e:2a:0e:0d:12:
         97:3b:f3:6b:ca:d7:a8:24:72:82:c5:ac:13:be:f3:b9:e3:72:
         03:d5:3e:89:56:aa:d6:22:b4:ba:3d:5f:a9:01:01:3e:2e:9d:
         db:58:a7:13:1c:92:a1:a5:a3:4b:a7:25:70:43:ca:05:ad:d2:
         18:35:13:56:35:5f:34:c7:dd:fc:1b:7f:4a:52:6a:f0:61:37:
         eb:d5:bb:c2:2d:84:a3:ad:b9:fc:05:d5:d7:20:75:b9:4b:b8:
         f8:f6:25:f9:5c:34:85:a5:6a:ff:30:22:19:f0:b6:11:d1:85:
         a7:19:eb:12:21:5e:41:1e:83:42:a6:4b:b2:de:f8:ca:53:a2:
         32:b3:03:38:1b:82:a6:f5:0d:a0:b3:3f:a5:d2:0e:8b:d3:22:
         b4:26:0c:5a:71:eb:36:84:f6:1d:c2:07:c9:6a:8f:a3:a1:53:
         ec:a3:3f:65:51:ae:8c:ec:22:45:72:7c:6d:e1:e4:2a:8e:3e:
         d2:6e:72:af:b0:ab:46:b3:7a:8b:b4:b0:15:fe:50:68:ee:fd:
         62:16:90:66:3b:f0:bb:76:af:0d:27:87:df:10:9d:12:f7:87:
         b1:de:70:8e:94:20:5c:b9:2b:f7:e0:61:70:44:1b:77:04:61:
         e8:d4:46:c8:73:2f:44:59:32:2c:6c:07:b4:d7:40:db:79:41:
         b8:74:86:b3:4b:9d:57:5e:c5:6e:c5:a8:24:a5:aa:e1:08:15:
         2b:fc:a5:e0:4b:d1:6b:72:a9:3e:ce:a8:9f:91:97:ec:31:97:
         ac:92:9a:46:fb:14:d2:07:ab:16:15:31:c0:f4:b2:4e:6d:d9:
         33:ee:c9:74:58:34:7a:09:fc:41:4c:b5:ef:f1:b7:e6:3d:13:
         98:e2:9d:38:f0:a5:06:5a:15:f8:d7:54:82:a0:d5:a3:82:2d:
         99:33:fc:64:32:9c:0e:26
-----BEGIN CERTIFICATE-----
MIIHSDCCBTCgAwIBAgICA78wDQYJKoZIhvcNAQEFBQAwgbQxCzAJBgNVBAYTAlVT
MQswCQYDVQQIEwJDQTEVMBMGA1UEBxMMU2FuRnJhbmNpc2NvMRUwEwYDVQQKEwxQ
aXhnbG8sIEluYy4xEDAOBgNVBAsTB1ZQTi1DSUUxGjAYBgNVBAMTEXR1bm5lbC5w
aXhnbG8uY29tMRwwGgYDVQQpExNCYWxhIENoYW5kcmFzZWthcmFuMR4wHAYJKoZI
hvcNAQkBFg9iYWxhQHBpeGdsby5jb20wHhcNMTgwMjE0MDY0OTE5WhcNMjgwMjEy
MDY0OTE5WjCBqTELMAkGA1UEBhMCVVMxCzAJBgNVBAgTAkNBMRUwEwYDVQQHEwxT
YW5GcmFuY2lzY28xFTATBgNVBAoTDFBpeGdsbywgSW5jLjEQMA4GA1UECxMHVlBO
LUNJRTEPMA0GA1UEAxMGY2llOTU4MRwwGgYDVQQpExNCYWxhIENoYW5kcmFzZWth
cmFuMR4wHAYJKoZIhvcNAQkBFg9iYWxhQHBpeGdsby5jb20wggIiMA0GCSqGSIb3
DQEBAQUAA4ICDwAwggIKAoICAQC5V3QeKrhN4tTTc+7zKJhLOLIlC3Alsm97dF6P
GTu7tSTI3BUlP9d0/34cnHyxLiV4gLxYIVuqaohq2cnNxAjxZkEPN07QKbsPytY4
dV4DN7UuAnx2lTHMoCZ9MKdGaWKErnyJOEJFE14DuFaoIs7BhswAxKZxVd647D+A
MwjaOV3EiV8ubX7FtW6a6RbCW/5Ylg6smdcfM1rVryT7V52B/ieX+SvIneMR4NET
fLVzhOyyEugcmLJy0qk2O7p/3/xeKatZfKH8xIOTF8+7rmfUvHbmwSxaPMxhlQMl
fIrb32DIslFYyhj3dicX4dV/ajC/aAZMWnQvvk+0v0bkibDfFJPdRdOE8S6yS03E
GCWZnGx6HmMSG2Xl9JN6NNNWywCxs/86a5YkmFWVls0LK1EhTAXFkZj+yPLi2Qxe
enBbf1W5PMd83YLPqYLjWJkdO+gxPEVvqiqprfvlAanaoiTzhhMw204c/nTo0QSz
rXWAe3vYXMbaHTn1gtNjz2pQ26h+cdNYi63zn8r3+GvrNQqzcOuzJBoVkjm5Gtml
Vw5mmekmYVeFBPbB9t6CWEH+4iuBv/zydcNRoUG4m/oAp/Wh/5BtKhiPLEs3tZel
ikEH0Nj4fs/72HQEy9X+CMcOPwnWgtAZgapvYrqrgiJxD14OB0oaIUoD3ZDZCXlJ
674bvwIDAQABo4IBazCCAWcwCQYDVR0TBAIwADAtBglghkgBhvhCAQ0EIBYeRWFz
eS1SU0EgR2VuZXJhdGVkIENlcnRpZmljYXRlMB0GA1UdDgQWBBRO6psguK7YYvcQ
DSR93aSsSLyW3TCB6QYDVR0jBIHhMIHegBTvOI0UUFinW02cF3L837msp1GwEKGB
uqSBtzCBtDELMAkGA1UEBhMCVVMxCzAJBgNVBAgTAkNBMRUwEwYDVQQHEwxTYW5G
cmFuY2lzY28xFTATBgNVBAoTDFBpeGdsbywgSW5jLjEQMA4GA1UECxMHVlBOLUNJ
RTEaMBgGA1UEAxMRdHVubmVsLnBpeGdsby5jb20xHDAaBgNVBCkTE0JhbGEgQ2hh
bmRyYXNla2FyYW4xHjAcBgkqhkiG9w0BCQEWD2JhbGFAcGl4Z2xvLmNvbYIJAKbb
xoOA5qB5MBMGA1UdJQQMMAoGCCsGAQUFBwMCMAsGA1UdDwQEAwIHgDANBgkqhkiG
9w0BAQUFAAOCAgEASSOaWjaM/YznjxbnBOiukFjk3DdE25y2TMOTH2qQ6GyHvUXB
/VmIGozfnSGylruUG9KM+5NRQDpyIZKs3MQyh6kiRyN2397hkZH+Gl3JR6h053Rx
ywAE1+39DNGRFQp41tqg7pgtQWZEBaiXumghx6VmfF9u7yLaZyLkTTLP7nMQCK7M
rcIwcFUzEFsqitbhasKmDtINhqYU0VP4354qDg0Slzvza8rXqCRygsWsE77zueNy
A9U+iVaq1iK0uj1fqQEBPi6d21inExySoaWjS6clcEPKBa3SGDUTVjVfNMfd/Bt/
SlJq8GE369W7wi2Eo625/AXV1yB1uUu4+PYl+Vw0haVq/zAiGfC2EdGFpxnrEiFe
QR6DQqZLst74ylOiMrMDOBuCpvUNoLM/pdIOi9MitCYMWnHrNoT2HcIHyWqPo6FT
7KM/ZVGujOwiRXJ8beHkKo4+0m5yr7CrRrN6i7SwFf5QaO79YhaQZjvwu3avDSeH
3xCdEveHsd5wjpQgXLkr9+BhcEQbdwRh6NRGyHMvRFkyLGwHtNdA23lBuHSGs0ud
V17FbsWoJKWq4QgVK/yl4EvRa3KpPs6on5GX7DGXrJKaRvsU0gerFhUxwPSyTm3Z
M+7JdFg0egn8QUy17/G35j0TmOKdOPClBloV+NdUgqDVo4ItmTP8ZDKcDiY=
-----END CERTIFICATE-----
