Certificate:
    Data:
        Version: 3 (0x2)
        Serial Number: 961 (0x3c1)
    Signature Algorithm: sha1WithRSAEncryption
        Issuer: C=US, ST=CA, L=SanFrancisco, O=Pixglo, Inc., OU=VPN-CIE, CN=tunnel.pixglo.com/name=Bala Chandrasekaran/emailAddress=bala@pixglo.com
        Validity
            Not Before: Feb 14 06:49:23 2018 GMT
            Not After : Feb 12 06:49:23 2028 GMT
        Subject: C=US, ST=CA, L=SanFrancisco, O=Pixglo, Inc., OU=VPN-CIE, CN=cie960/name=Bala Chandrasekaran/emailAddress=bala@pixglo.com
        Subject Public Key Info:
            Public Key Algorithm: rsaEncryption
                Public-Key: (4096 bit)
                Modulus:
                    00:df:32:48:e2:a8:33:c6:20:ab:91:5a:05:1f:e9:
                    5a:5d:66:90:24:78:50:c7:de:7d:4e:f6:18:9f:b6:
                    a7:bc:34:8f:5b:2f:70:b5:aa:2f:e1:29:f7:76:7c:
                    d0:0c:62:af:a1:80:a4:65:1e:f1:cb:a3:9d:ef:b8:
                    16:e2:c8:82:49:5c:b1:80:43:1e:c7:92:1d:40:4c:
                    36:90:72:31:45:52:d3:b3:f9:7f:7d:f8:84:7f:02:
                    fb:14:c7:e3:6c:66:ea:12:c7:21:a5:8a:a8:74:0b:
                    ee:3a:43:72:81:f7:dd:57:63:6b:31:73:e8:74:49:
                    36:29:c0:a7:50:3a:66:c7:aa:3e:f4:ad:9c:5f:21:
                    d4:50:c3:1b:f5:d0:f1:cb:ee:dc:fa:af:57:96:db:
                    bd:ee:22:11:32:7c:67:45:9f:35:09:c8:7e:fa:43:
                    80:18:89:1b:e9:95:7e:32:6c:55:73:ce:06:2b:bc:
                    6a:63:8c:66:bf:d9:1b:6c:0d:67:3c:62:07:68:6a:
                    cc:22:16:80:1d:98:09:ce:4c:00:95:14:42:6b:35:
                    d9:d9:f4:d1:a7:27:18:82:93:ed:13:13:1c:58:da:
                    f2:0e:8b:a1:4d:3c:c9:53:f2:96:00:ea:1c:2c:d6:
                    0c:d9:5c:39:85:93:1d:a9:f0:1d:4c:2a:45:fe:19:
                    15:bd:d8:20:81:a3:d5:6b:d2:bf:7b:90:e7:5e:4f:
                    ed:0c:ca:9c:08:cf:c5:e8:39:e6:3a:e7:38:00:58:
                    35:d4:af:2d:e8:d1:da:08:b5:d7:ba:45:43:49:49:
                    5d:06:38:e2:a9:cd:ef:90:7f:5d:1a:73:2e:b1:42:
                    b8:05:31:0c:17:64:b8:87:95:55:26:76:e8:37:ae:
                    bf:60:e7:48:e0:7a:bd:1c:44:8c:6c:bd:14:a0:29:
                    3d:28:31:04:19:60:0a:ed:0a:11:43:ea:47:13:e6:
                    8d:d1:e9:71:2b:3d:bf:a2:46:3b:79:12:d5:f1:4f:
                    53:66:5b:14:de:13:cd:93:a2:1b:93:13:cd:6c:4e:
                    74:64:15:07:91:a9:cc:36:4e:43:b9:40:8b:b2:c3:
                    82:d8:3e:68:cb:a4:ff:a9:fa:99:35:25:a9:8b:1f:
                    41:f4:a1:ec:c6:81:f7:38:cf:74:95:b5:c3:88:8b:
                    04:3a:36:98:f8:d5:0d:bc:ec:c8:bc:9e:2f:5a:8d:
                    b1:58:29:c9:3c:97:53:fb:0e:54:7b:d3:47:b7:79:
                    7b:2e:45:e6:e9:5f:c0:18:32:8f:c0:66:16:fe:0a:
                    f0:b4:00:ed:61:4d:75:71:e8:b9:5f:6c:a1:6a:bc:
                    d8:4a:f4:39:4c:32:9d:8f:22:cb:61:cf:a9:d2:72:
                    bb:f8:81
                Exponent: 65537 (0x10001)
        X509v3 extensions:
            X509v3 Basic Constraints: 
                CA:FALSE
            Netscape Comment: 
                Easy-RSA Generated Certificate
            X509v3 Subject Key Identifier: 
                BB:A2:66:66:8B:B9:C0:CD:34:22:05:E1:CA:CA:46:EE:E1:05:75:E3
            X509v3 Authority Key Identifier: 
                keyid:EF:38:8D:14:50:58:A7:5B:4D:9C:17:72:FC:DF:B9:AC:A7:51:B0:10
                DirName:/C=US/ST=CA/L=SanFrancisco/O=Pixglo, Inc./OU=VPN-CIE/CN=tunnel.pixglo.com/name=Bala Chandrasekaran/emailAddress=bala@pixglo.com
                serial:A6:DB:C6:83:80:E6:A0:79

            X509v3 Extended Key Usage: 
                TLS Web Client Authentication
            X509v3 Key Usage: 
                Digital Signature
    Signature Algorithm: sha1WithRSAEncryption
         d4:85:b7:05:72:aa:1f:d6:a8:2a:c6:f6:68:20:e0:57:a5:f0:
         4a:f9:84:f6:1d:04:42:f2:e6:6a:96:4a:f9:80:57:74:c6:46:
         47:8c:80:78:01:69:5c:16:fe:9b:f8:6a:31:66:8d:c3:82:32:
         b5:5e:7a:73:15:8a:32:6f:ab:b7:05:80:da:17:20:64:82:94:
         a7:40:bd:59:eb:de:d7:3d:76:31:a0:94:8c:b4:12:9d:4d:bb:
         61:4e:22:1e:e2:72:44:fc:5b:81:fc:0c:ab:a8:6b:a2:ae:36:
         d9:17:d6:6d:3e:7a:d2:ae:b9:1c:6f:64:81:79:73:6b:73:10:
         1f:7f:d2:88:aa:43:a0:d4:62:90:30:85:18:b2:e7:ad:17:3f:
         ed:65:86:87:79:7f:0d:26:75:08:9a:d5:af:94:3a:dc:ce:ee:
         67:0f:1e:24:17:f2:65:0c:d8:5f:ac:81:63:97:4f:25:97:da:
         92:4d:ae:15:1e:a1:97:fe:4c:bf:f8:6c:3e:6d:e2:fb:17:3c:
         58:21:28:81:f0:8b:50:28:dd:9a:aa:6d:9f:fc:7f:f0:82:ca:
         da:0b:eb:63:a4:be:54:34:81:27:8a:9e:ae:ec:9b:45:ef:1f:
         cf:87:24:75:7a:7b:c1:50:b0:b0:2c:05:ee:64:3e:26:f6:bf:
         90:ac:05:11:0c:da:1b:e6:c4:03:79:e0:3d:1a:72:c7:f7:4e:
         53:30:b9:d1:e5:29:d4:53:fe:98:52:f5:7b:77:b9:96:c5:cb:
         65:2a:37:e0:29:18:26:78:cd:d3:49:7b:c2:ea:58:47:30:eb:
         37:0e:1f:1e:c1:d9:74:5e:69:d9:41:38:3c:8b:8a:ae:16:72:
         40:7c:a2:c3:fc:d5:63:06:25:7d:bc:b4:79:f0:4b:0e:6b:5c:
         d5:c2:88:e9:ec:da:fa:41:fc:eb:e6:16:e6:41:b2:e5:dc:4a:
         59:43:96:69:0a:fc:a6:5f:37:22:f7:9d:d4:af:19:55:ab:4f:
         90:01:6b:8f:4a:0e:ef:68:a5:ab:74:99:9e:87:00:52:6f:b1:
         49:50:eb:d2:ab:dd:bc:14:23:f2:81:09:af:d9:c8:1c:96:3e:
         da:a7:f1:07:13:d8:06:4c:08:fe:2f:b9:3f:a2:ed:a0:8a:17:
         f0:ee:56:e1:52:10:37:35:cd:a0:5b:4d:4f:72:18:cc:17:8e:
         b5:81:eb:23:3c:a6:ab:58:36:a6:db:ea:1d:36:88:c0:6c:8e:
         ae:d9:31:2e:32:3e:fc:8a:5b:d1:b2:82:77:6c:08:7a:e0:79:
         ec:80:e1:6e:d9:5b:6a:0d:98:4b:25:cb:e4:76:be:27:2b:18:
         0b:95:6a:c6:0c:a5:3f:7e
-----BEGIN CERTIFICATE-----
MIIHSDCCBTCgAwIBAgICA8EwDQYJKoZIhvcNAQEFBQAwgbQxCzAJBgNVBAYTAlVT
MQswCQYDVQQIEwJDQTEVMBMGA1UEBxMMU2FuRnJhbmNpc2NvMRUwEwYDVQQKEwxQ
aXhnbG8sIEluYy4xEDAOBgNVBAsTB1ZQTi1DSUUxGjAYBgNVBAMTEXR1bm5lbC5w
aXhnbG8uY29tMRwwGgYDVQQpExNCYWxhIENoYW5kcmFzZWthcmFuMR4wHAYJKoZI
hvcNAQkBFg9iYWxhQHBpeGdsby5jb20wHhcNMTgwMjE0MDY0OTIzWhcNMjgwMjEy
MDY0OTIzWjCBqTELMAkGA1UEBhMCVVMxCzAJBgNVBAgTAkNBMRUwEwYDVQQHEwxT
YW5GcmFuY2lzY28xFTATBgNVBAoTDFBpeGdsbywgSW5jLjEQMA4GA1UECxMHVlBO
LUNJRTEPMA0GA1UEAxMGY2llOTYwMRwwGgYDVQQpExNCYWxhIENoYW5kcmFzZWth
cmFuMR4wHAYJKoZIhvcNAQkBFg9iYWxhQHBpeGdsby5jb20wggIiMA0GCSqGSIb3
DQEBAQUAA4ICDwAwggIKAoICAQDfMkjiqDPGIKuRWgUf6VpdZpAkeFDH3n1O9hif
tqe8NI9bL3C1qi/hKfd2fNAMYq+hgKRlHvHLo53vuBbiyIJJXLGAQx7Hkh1ATDaQ
cjFFUtOz+X99+IR/AvsUx+NsZuoSxyGliqh0C+46Q3KB991XY2sxc+h0STYpwKdQ
OmbHqj70rZxfIdRQwxv10PHL7tz6r1eW273uIhEyfGdFnzUJyH76Q4AYiRvplX4y
bFVzzgYrvGpjjGa/2RtsDWc8YgdoaswiFoAdmAnOTACVFEJrNdnZ9NGnJxiCk+0T
ExxY2vIOi6FNPMlT8pYA6hws1gzZXDmFkx2p8B1MKkX+GRW92CCBo9Vr0r97kOde
T+0MypwIz8XoOeY65zgAWDXUry3o0doItde6RUNJSV0GOOKpze+Qf10acy6xQrgF
MQwXZLiHlVUmdug3rr9g50jger0cRIxsvRSgKT0oMQQZYArtChFD6kcT5o3R6XEr
Pb+iRjt5EtXxT1NmWxTeE82TohuTE81sTnRkFQeRqcw2TkO5QIuyw4LYPmjLpP+p
+pk1JamLH0H0oezGgfc4z3SVtcOIiwQ6Npj41Q287Mi8ni9ajbFYKck8l1P7DlR7
00e3eXsuRebpX8AYMo/AZhb+CvC0AO1hTXVx6LlfbKFqvNhK9DlMMp2PIsthz6nS
crv4gQIDAQABo4IBazCCAWcwCQYDVR0TBAIwADAtBglghkgBhvhCAQ0EIBYeRWFz
eS1SU0EgR2VuZXJhdGVkIENlcnRpZmljYXRlMB0GA1UdDgQWBBS7omZmi7nAzTQi
BeHKykbu4QV14zCB6QYDVR0jBIHhMIHegBTvOI0UUFinW02cF3L837msp1GwEKGB
uqSBtzCBtDELMAkGA1UEBhMCVVMxCzAJBgNVBAgTAkNBMRUwEwYDVQQHEwxTYW5G
cmFuY2lzY28xFTATBgNVBAoTDFBpeGdsbywgSW5jLjEQMA4GA1UECxMHVlBOLUNJ
RTEaMBgGA1UEAxMRdHVubmVsLnBpeGdsby5jb20xHDAaBgNVBCkTE0JhbGEgQ2hh
bmRyYXNla2FyYW4xHjAcBgkqhkiG9w0BCQEWD2JhbGFAcGl4Z2xvLmNvbYIJAKbb
xoOA5qB5MBMGA1UdJQQMMAoGCCsGAQUFBwMCMAsGA1UdDwQEAwIHgDANBgkqhkiG
9w0BAQUFAAOCAgEA1IW3BXKqH9aoKsb2aCDgV6XwSvmE9h0EQvLmapZK+YBXdMZG
R4yAeAFpXBb+m/hqMWaNw4IytV56cxWKMm+rtwWA2hcgZIKUp0C9Weve1z12MaCU
jLQSnU27YU4iHuJyRPxbgfwMq6hroq422RfWbT560q65HG9kgXlza3MQH3/SiKpD
oNRikDCFGLLnrRc/7WWGh3l/DSZ1CJrVr5Q63M7uZw8eJBfyZQzYX6yBY5dPJZfa
kk2uFR6hl/5Mv/hsPm3i+xc8WCEogfCLUCjdmqptn/x/8ILK2gvrY6S+VDSBJ4qe
ruybRe8fz4ckdXp7wVCwsCwF7mQ+Jva/kKwFEQzaG+bEA3ngPRpyx/dOUzC50eUp
1FP+mFL1e3e5lsXLZSo34CkYJnjN00l7wupYRzDrNw4fHsHZdF5p2UE4PIuKrhZy
QHyiw/zVYwYlfby0efBLDmtc1cKI6eza+kH86+YW5kGy5dxKWUOWaQr8pl83Ived
1K8ZVatPkAFrj0oO72ilq3SZnocAUm+xSVDr0qvdvBQj8oEJr9nIHJY+2qfxBxPY
BkwI/i+5P6LtoIoX8O5W4VIQNzXNoFtNT3IYzBeOtYHrIzymq1g2ptvqHTaIwGyO
rtkxLjI+/Ipb0bKCd2wIeuB57IDhbtlbag2YSyXL5Ha+JysYC5VqxgylP34=
-----END CERTIFICATE-----
