Certificate:
    Data:
        Version: 3 (0x2)
        Serial Number: 962 (0x3c2)
    Signature Algorithm: sha1WithRSAEncryption
        Issuer: C=US, ST=CA, L=SanFrancisco, O=Pixglo, Inc., OU=VPN-CIE, CN=tunnel.pixglo.com/name=Bala Chandrasekaran/emailAddress=bala@pixglo.com
        Validity
            Not Before: Feb 14 06:49:23 2018 GMT
            Not After : Feb 12 06:49:23 2028 GMT
        Subject: C=US, ST=CA, L=SanFrancisco, O=Pixglo, Inc., OU=VPN-CIE, CN=cie961/name=Bala Chandrasekaran/emailAddress=bala@pixglo.com
        Subject Public Key Info:
            Public Key Algorithm: rsaEncryption
                Public-Key: (4096 bit)
                Modulus:
                    00:bd:0e:61:70:bd:18:a2:0a:af:ae:fc:e4:a6:31:
                    df:b4:9b:4a:b7:fc:4d:58:1f:a8:61:4f:aa:d2:be:
                    71:b1:e1:c4:33:ac:cd:3c:72:2b:8e:a2:cc:76:48:
                    d4:8a:84:37:37:b2:0d:6a:76:26:17:3b:60:5f:c5:
                    b2:ad:e6:6c:71:f8:b1:d1:25:de:1a:d3:7d:b4:79:
                    81:0c:84:d2:be:7a:56:76:3c:72:dd:7c:0d:2b:aa:
                    e1:6f:09:f8:01:e9:d9:ec:5b:59:38:6c:6b:34:08:
                    db:74:42:77:76:46:a1:aa:0c:71:66:d3:7a:24:e2:
                    a5:99:2a:ca:ea:7e:56:21:f8:4d:cd:79:e5:71:91:
                    bc:73:b6:1c:1d:eb:b8:bf:af:a6:b7:1a:d5:0d:a2:
                    b7:72:92:3d:e2:be:ac:82:ef:5b:28:bd:e5:2d:b4:
                    54:74:21:4d:81:26:26:7c:34:ba:6c:d3:00:fd:c2:
                    77:50:da:31:05:56:1b:a7:c7:ed:d7:1a:b4:9d:f5:
                    a2:0b:c7:f8:b9:b2:3e:9f:fd:03:55:cd:fd:06:f7:
                    12:a0:92:2e:40:58:8f:a5:b1:f3:32:b1:36:0b:02:
                    83:aa:0e:05:4f:25:37:cb:11:68:9e:d9:73:ca:9d:
                    02:83:15:85:81:ac:d3:28:9b:ba:57:81:14:07:03:
                    e0:c5:1f:27:1b:b5:a8:36:36:83:70:c1:54:cb:96:
                    59:f7:d6:86:d4:a9:aa:96:4d:52:14:0b:69:7b:73:
                    98:c4:0c:f8:81:4e:b5:f5:aa:98:f9:f2:2d:cc:b5:
                    17:8d:fe:1b:5b:f7:6f:0a:ca:7c:ab:ab:e7:7b:a1:
                    c1:f8:b1:f7:9d:66:a5:d6:0d:4d:fd:5d:58:65:0e:
                    7d:a9:c9:62:c1:65:5e:57:57:e3:f6:98:42:7e:c3:
                    88:c5:f8:a3:be:b8:36:85:57:bd:23:84:1f:e1:42:
                    69:43:21:85:b3:e4:11:11:7d:06:49:00:5b:fb:06:
                    aa:6b:df:f3:6a:56:cc:dc:af:7b:31:dc:ac:c4:0d:
                    74:e6:4a:a6:10:95:66:f8:14:fd:d0:c4:70:a0:a8:
                    36:32:f7:34:cf:5a:96:52:29:b1:ab:97:20:44:e7:
                    f0:0a:7f:56:45:e1:02:ba:a6:55:37:ef:51:36:13:
                    51:ac:02:47:ef:f2:28:8d:a3:2a:33:90:d7:24:55:
                    13:66:50:ab:8c:8e:e8:47:6c:b7:48:4a:fb:5b:95:
                    cd:25:9d:cf:55:11:4b:b7:df:1a:73:ba:3c:e8:09:
                    22:00:6e:e1:06:c7:22:3f:27:ca:62:56:07:6a:30:
                    d6:5f:63:6d:02:63:85:07:54:60:31:69:c0:43:90:
                    6d:66:cb
                Exponent: 65537 (0x10001)
        X509v3 extensions:
            X509v3 Basic Constraints: 
                CA:FALSE
            Netscape Comment: 
                Easy-RSA Generated Certificate
            X509v3 Subject Key Identifier: 
                8F:1F:C6:9F:31:8F:5D:FE:EE:B0:54:3E:D0:EB:B9:F4:98:BF:DF:A9
            X509v3 Authority Key Identifier: 
                keyid:EF:38:8D:14:50:58:A7:5B:4D:9C:17:72:FC:DF:B9:AC:A7:51:B0:10
                DirName:/C=US/ST=CA/L=SanFrancisco/O=Pixglo, Inc./OU=VPN-CIE/CN=tunnel.pixglo.com/name=Bala Chandrasekaran/emailAddress=bala@pixglo.com
                serial:A6:DB:C6:83:80:E6:A0:79

            X509v3 Extended Key Usage: 
                TLS Web Client Authentication
            X509v3 Key Usage: 
                Digital Signature
    Signature Algorithm: sha1WithRSAEncryption
         72:9a:f9:1d:42:71:05:5a:be:38:28:90:a4:28:ff:9f:a4:a8:
         74:17:ae:30:fa:e6:31:ed:35:7c:c3:c4:55:c9:6c:90:96:5e:
         31:52:b1:01:c3:ec:e6:5d:38:70:b8:31:e3:f3:7d:32:65:e0:
         37:5a:2e:f3:8d:e8:22:27:04:81:dc:d8:64:17:35:64:d9:79:
         aa:ba:9f:e4:b1:d5:4c:c5:d2:b6:30:b2:5a:0f:0c:36:8b:d4:
         a3:6d:79:e5:30:70:75:3d:63:c5:2e:7b:3c:b6:90:59:da:c6:
         3d:25:ad:85:ca:ec:a4:82:71:87:b5:44:a2:e6:02:8c:9f:01:
         5f:ed:03:4c:9c:7d:f2:7d:27:3c:f0:11:cb:2a:da:e5:d6:35:
         33:c4:39:d6:9e:e8:65:95:fb:ed:3f:be:b7:73:fa:3d:1b:5d:
         7c:b6:45:8e:f3:02:74:5c:19:2f:bd:9e:3b:28:2a:30:a4:bf:
         22:d6:87:a0:e0:eb:ed:c5:da:72:ae:b9:86:93:15:13:4e:bd:
         26:fd:2b:35:29:1d:b2:a7:c6:6b:cf:e7:d2:47:77:b6:5c:da:
         b6:f8:d4:3e:4d:7e:70:16:a3:e4:34:fd:27:94:c1:b8:64:f8:
         7b:18:32:a9:2b:66:ba:0a:ee:2c:a7:61:56:2d:8f:72:49:79:
         df:c6:90:60:c0:f1:82:2e:22:69:e7:3c:53:23:ac:3a:54:3b:
         17:cb:69:42:e1:2c:8f:85:07:b9:36:d3:cb:83:dd:d5:0b:1c:
         59:fb:50:e6:70:22:87:73:f2:77:24:3c:90:f2:38:96:29:e1:
         bc:33:18:be:dd:86:5e:26:2a:ff:51:99:65:fd:9b:c4:1c:35:
         ff:67:8c:4b:29:fa:70:10:86:67:11:d8:32:b5:92:39:50:95:
         59:b1:61:7c:15:94:55:67:70:be:aa:56:88:a3:97:45:c7:03:
         25:74:51:49:8f:0d:6e:69:00:9e:61:d6:41:22:32:e9:06:6b:
         43:01:c4:b7:0a:a6:5c:8b:12:e3:c8:9e:c1:67:97:7f:d3:a3:
         ab:9c:49:97:6c:9f:7a:f9:43:74:51:93:ea:26:0d:00:ce:8d:
         e8:b2:01:37:3d:9f:ac:6e:df:7f:ef:80:64:96:1d:e9:bf:35:
         0f:45:a2:c4:10:f1:2e:96:4b:f1:a4:6e:22:e3:ce:f1:32:62:
         f8:78:29:b3:54:2d:d9:b9:87:5c:eb:8a:67:11:1e:2a:a5:d8:
         6a:88:fe:a5:f8:c1:9a:61:ef:51:ca:a9:83:4c:f6:4e:d7:21:
         c9:e8:d5:d8:08:42:b4:00:33:53:c0:f5:b0:63:e9:61:39:f3:
         95:fc:61:67:62:ef:ab:cf
-----BEGIN CERTIFICATE-----
MIIHSDCCBTCgAwIBAgICA8IwDQYJKoZIhvcNAQEFBQAwgbQxCzAJBgNVBAYTAlVT
MQswCQYDVQQIEwJDQTEVMBMGA1UEBxMMU2FuRnJhbmNpc2NvMRUwEwYDVQQKEwxQ
aXhnbG8sIEluYy4xEDAOBgNVBAsTB1ZQTi1DSUUxGjAYBgNVBAMTEXR1bm5lbC5w
aXhnbG8uY29tMRwwGgYDVQQpExNCYWxhIENoYW5kcmFzZWthcmFuMR4wHAYJKoZI
hvcNAQkBFg9iYWxhQHBpeGdsby5jb20wHhcNMTgwMjE0MDY0OTIzWhcNMjgwMjEy
MDY0OTIzWjCBqTELMAkGA1UEBhMCVVMxCzAJBgNVBAgTAkNBMRUwEwYDVQQHEwxT
YW5GcmFuY2lzY28xFTATBgNVBAoTDFBpeGdsbywgSW5jLjEQMA4GA1UECxMHVlBO
LUNJRTEPMA0GA1UEAxMGY2llOTYxMRwwGgYDVQQpExNCYWxhIENoYW5kcmFzZWth
cmFuMR4wHAYJKoZIhvcNAQkBFg9iYWxhQHBpeGdsby5jb20wggIiMA0GCSqGSIb3
DQEBAQUAA4ICDwAwggIKAoICAQC9DmFwvRiiCq+u/OSmMd+0m0q3/E1YH6hhT6rS
vnGx4cQzrM08ciuOosx2SNSKhDc3sg1qdiYXO2BfxbKt5mxx+LHRJd4a0320eYEM
hNK+elZ2PHLdfA0rquFvCfgB6dnsW1k4bGs0CNt0Qnd2RqGqDHFm03ok4qWZKsrq
flYh+E3NeeVxkbxzthwd67i/r6a3GtUNordykj3ivqyC71soveUttFR0IU2BJiZ8
NLps0wD9wndQ2jEFVhunx+3XGrSd9aILx/i5sj6f/QNVzf0G9xKgki5AWI+lsfMy
sTYLAoOqDgVPJTfLEWie2XPKnQKDFYWBrNMom7pXgRQHA+DFHycbtag2NoNwwVTL
lln31obUqaqWTVIUC2l7c5jEDPiBTrX1qpj58i3MtReN/htb928Kynyrq+d7ocH4
sfedZqXWDU39XVhlDn2pyWLBZV5XV+P2mEJ+w4jF+KO+uDaFV70jhB/hQmlDIYWz
5BERfQZJAFv7Bqpr3/NqVszcr3sx3KzEDXTmSqYQlWb4FP3QxHCgqDYy9zTPWpZS
KbGrlyBE5/AKf1ZF4QK6plU371E2E1GsAkfv8iiNoyozkNckVRNmUKuMjuhHbLdI
Svtblc0lnc9VEUu33xpzujzoCSIAbuEGxyI/J8piVgdqMNZfY20CY4UHVGAxacBD
kG1mywIDAQABo4IBazCCAWcwCQYDVR0TBAIwADAtBglghkgBhvhCAQ0EIBYeRWFz
eS1SU0EgR2VuZXJhdGVkIENlcnRpZmljYXRlMB0GA1UdDgQWBBSPH8afMY9d/u6w
VD7Q67n0mL/fqTCB6QYDVR0jBIHhMIHegBTvOI0UUFinW02cF3L837msp1GwEKGB
uqSBtzCBtDELMAkGA1UEBhMCVVMxCzAJBgNVBAgTAkNBMRUwEwYDVQQHEwxTYW5G
cmFuY2lzY28xFTATBgNVBAoTDFBpeGdsbywgSW5jLjEQMA4GA1UECxMHVlBOLUNJ
RTEaMBgGA1UEAxMRdHVubmVsLnBpeGdsby5jb20xHDAaBgNVBCkTE0JhbGEgQ2hh
bmRyYXNla2FyYW4xHjAcBgkqhkiG9w0BCQEWD2JhbGFAcGl4Z2xvLmNvbYIJAKbb
xoOA5qB5MBMGA1UdJQQMMAoGCCsGAQUFBwMCMAsGA1UdDwQEAwIHgDANBgkqhkiG
9w0BAQUFAAOCAgEAcpr5HUJxBVq+OCiQpCj/n6SodBeuMPrmMe01fMPEVclskJZe
MVKxAcPs5l04cLgx4/N9MmXgN1ou843oIicEgdzYZBc1ZNl5qrqf5LHVTMXStjCy
Wg8MNovUo2155TBwdT1jxS57PLaQWdrGPSWthcrspIJxh7VEouYCjJ8BX+0DTJx9
8n0nPPARyyra5dY1M8Q51p7oZZX77T++t3P6PRtdfLZFjvMCdFwZL72eOygqMKS/
ItaHoODr7cXacq65hpMVE069Jv0rNSkdsqfGa8/n0kd3tlzatvjUPk1+cBaj5DT9
J5TBuGT4exgyqStmugruLKdhVi2Pckl538aQYMDxgi4iaec8UyOsOlQ7F8tpQuEs
j4UHuTbTy4Pd1QscWftQ5nAih3PydyQ8kPI4linhvDMYvt2GXiYq/1GZZf2bxBw1
/2eMSyn6cBCGZxHYMrWSOVCVWbFhfBWUVWdwvqpWiKOXRccDJXRRSY8NbmkAnmHW
QSIy6QZrQwHEtwqmXIsS48iewWeXf9Ojq5xJl2yfevlDdFGT6iYNAM6N6LIBNz2f
rG7ff++AZJYd6b81D0WixBDxLpZL8aRuIuPO8TJi+Hgps1Qt2bmHXOuKZxEeKqXY
aoj+pfjBmmHvUcqpg0z2TtchyejV2AhCtAAzU8D1sGPpYTnzlfxhZ2Lvq88=
-----END CERTIFICATE-----
