Certificate:
    Data:
        Version: 3 (0x2)
        Serial Number: 963 (0x3c3)
    Signature Algorithm: sha1WithRSAEncryption
        Issuer: C=US, ST=CA, L=SanFrancisco, O=Pixglo, Inc., OU=VPN-CIE, CN=tunnel.pixglo.com/name=Bala Chandrasekaran/emailAddress=bala@pixglo.com
        Validity
            Not Before: Feb 14 06:49:25 2018 GMT
            Not After : Feb 12 06:49:25 2028 GMT
        Subject: C=US, ST=CA, L=SanFrancisco, O=Pixglo, Inc., OU=VPN-CIE, CN=cie962/name=Bala Chandrasekaran/emailAddress=bala@pixglo.com
        Subject Public Key Info:
            Public Key Algorithm: rsaEncryption
                Public-Key: (4096 bit)
                Modulus:
                    00:bc:bd:94:46:69:c5:44:27:84:c9:bf:ec:41:8c:
                    3f:44:4e:17:94:77:30:9f:37:e4:94:34:52:22:a3:
                    db:b8:4b:ab:cc:b6:9d:df:71:6d:fc:19:d4:fc:65:
                    75:28:21:7e:ee:98:b8:1b:23:77:6f:ad:dc:7a:3f:
                    49:19:b4:2b:70:fe:a6:57:ce:2e:5a:63:e6:48:61:
                    7b:13:06:af:e1:b2:a3:ab:b2:c0:72:be:40:b4:92:
                    7e:51:8c:a0:a9:b3:47:0e:1f:d2:4b:3f:c1:5c:49:
                    55:54:7f:af:64:b7:dc:6a:53:e0:df:12:35:96:ad:
                    00:63:aa:72:1a:1d:72:5f:71:89:e5:23:dd:bf:bf:
                    d3:21:b4:dc:8b:f8:96:a9:cf:d3:49:b0:53:96:2d:
                    45:d8:95:0f:e7:fb:43:c6:d4:52:75:3c:a6:8c:ae:
                    70:6e:a4:11:95:31:78:0c:c6:8d:c8:af:57:68:83:
                    26:ae:e2:36:30:05:ed:aa:3c:98:90:15:f5:20:f6:
                    13:12:f5:9d:a2:d4:b1:c1:94:5d:60:6d:e8:88:fd:
                    27:02:28:72:dc:61:52:3d:2b:d4:b7:9c:2d:1b:72:
                    33:fa:cc:1e:24:88:1b:ac:cb:c0:13:0d:63:19:e2:
                    e6:81:9c:4d:18:7a:c8:f9:e9:b8:3a:70:57:ce:43:
                    85:a2:53:11:db:cf:04:bf:1d:e6:18:ea:85:60:d3:
                    b4:f8:cd:26:eb:27:98:1e:8b:b7:cd:72:fa:19:5d:
                    d9:49:fa:b6:1a:4f:0a:20:68:93:62:ec:59:b2:95:
                    99:95:cf:04:d6:04:5e:47:a4:2c:43:0c:21:7b:da:
                    45:54:c5:e0:40:2d:0f:20:ba:fe:c2:53:41:d8:a0:
                    e2:1e:25:bb:46:cc:96:be:d2:d2:86:07:ab:59:f0:
                    24:8d:d7:50:10:11:f7:eb:6d:be:84:2e:45:eb:37:
                    5f:ec:a5:41:78:b2:32:08:23:75:b6:48:98:43:3f:
                    44:05:cb:a3:61:d0:30:92:25:e6:a6:8f:eb:dd:7c:
                    34:18:68:38:5b:7d:c3:db:6c:cf:86:41:4f:8a:09:
                    02:ea:c0:ed:93:72:f7:fb:e2:87:6e:71:54:f8:a5:
                    a0:3f:16:03:14:ee:e1:78:18:d7:da:0f:96:45:d9:
                    08:36:03:21:a4:9a:d2:cc:36:96:74:80:ae:4f:df:
                    b7:07:aa:d7:61:f6:fb:b5:15:69:88:bc:7b:cf:3a:
                    6e:c8:5f:67:a5:57:25:b6:7c:3b:09:99:e4:44:cd:
                    d2:64:c0:89:a4:ef:88:b5:78:08:5e:2e:7b:43:88:
                    89:11:4b:65:f3:66:28:04:99:c2:b1:71:b1:4b:1a:
                    d6:5e:e5
                Exponent: 65537 (0x10001)
        X509v3 extensions:
            X509v3 Basic Constraints: 
                CA:FALSE
            Netscape Comment: 
                Easy-RSA Generated Certificate
            X509v3 Subject Key Identifier: 
                AA:64:B1:75:C9:B7:52:B2:35:58:36:CF:75:74:50:C5:A0:6F:7C:BF
            X509v3 Authority Key Identifier: 
                keyid:EF:38:8D:14:50:58:A7:5B:4D:9C:17:72:FC:DF:B9:AC:A7:51:B0:10
                DirName:/C=US/ST=CA/L=SanFrancisco/O=Pixglo, Inc./OU=VPN-CIE/CN=tunnel.pixglo.com/name=Bala Chandrasekaran/emailAddress=bala@pixglo.com
                serial:A6:DB:C6:83:80:E6:A0:79

            X509v3 Extended Key Usage: 
                TLS Web Client Authentication
            X509v3 Key Usage: 
                Digital Signature
    Signature Algorithm: sha1WithRSAEncryption
         9e:a5:da:14:0d:66:53:43:d5:51:d0:94:3f:1b:39:f3:9d:9a:
         50:cf:a3:04:f8:8a:8c:55:3b:d1:82:8a:73:ac:3a:8a:c7:2e:
         bd:39:54:37:f2:ed:4b:2f:60:8d:c7:12:83:99:a8:7b:02:ec:
         5e:ba:44:15:8b:a5:83:df:df:da:4d:9e:1a:42:18:23:f6:a1:
         ab:35:6f:ce:73:05:c2:72:bb:70:1b:f2:b5:f3:51:11:e5:2c:
         5d:e0:04:38:7e:2f:d8:0e:aa:46:c9:14:c4:c6:62:18:6e:8c:
         07:9d:b9:ef:2b:f7:e9:74:64:9a:45:f6:1d:96:d4:ef:46:67:
         d8:b9:13:af:e8:37:9e:ac:a9:43:25:43:24:9d:46:d7:c3:75:
         97:8a:6b:c9:d6:8c:05:b8:77:dd:33:e0:e5:f3:16:fa:eb:10:
         07:a8:5f:5a:fa:50:dd:26:cc:ba:82:40:63:49:d5:a9:c6:ae:
         6e:ba:3d:1c:f1:d5:05:ec:1f:86:bc:c4:23:7b:c5:8a:3a:b4:
         ed:9f:5d:57:b6:b2:c3:98:b5:17:12:26:aa:40:8f:2e:94:09:
         e0:f4:5b:1a:f6:97:62:d6:ac:b8:3a:28:6c:77:ed:b9:b0:e0:
         d6:74:02:1a:18:39:d1:6c:30:78:3f:11:c6:36:e1:68:86:81:
         ae:a3:04:c6:f2:73:47:4e:54:22:cb:14:b2:f5:8c:36:f8:43:
         89:3c:2a:d2:7d:83:1b:a6:cf:91:df:d3:a0:17:3b:c9:d3:89:
         17:dd:f5:38:d7:50:85:dd:cd:69:65:1d:d0:28:36:f4:82:ce:
         c2:b3:0b:71:c8:e1:c5:7f:07:15:1e:0e:74:a9:57:e6:fc:57:
         f0:b3:57:75:c3:7a:87:33:54:06:92:61:bb:5b:33:07:13:fa:
         37:69:6d:49:23:df:60:59:cf:61:cf:2e:ff:db:d0:0a:b9:ae:
         33:93:31:ec:21:05:56:47:9f:ea:92:3b:fb:f9:bd:6f:f8:fe:
         27:28:e4:c0:b4:44:fd:49:7c:dc:7b:4c:46:09:a3:60:e7:9b:
         6f:0e:9f:09:29:f5:1c:61:24:d9:97:8a:65:cd:75:41:c8:af:
         af:d0:51:6a:18:4a:3e:4e:37:9c:f9:2b:55:9f:87:78:96:ee:
         85:8e:19:11:24:27:65:73:00:26:31:41:ae:f4:b2:5e:81:7a:
         f6:dd:b8:6b:96:00:9b:ef:04:20:bf:25:a0:30:5e:92:0b:71:
         aa:8e:7e:2b:3c:75:9b:44:87:41:9d:4b:fa:03:57:9c:0f:d1:
         66:90:e8:da:84:9a:88:6a:3a:40:35:e1:32:83:6b:0f:d1:21:
         35:f3:c9:33:a6:c7:dc:a5
-----BEGIN CERTIFICATE-----
MIIHSDCCBTCgAwIBAgICA8MwDQYJKoZIhvcNAQEFBQAwgbQxCzAJBgNVBAYTAlVT
MQswCQYDVQQIEwJDQTEVMBMGA1UEBxMMU2FuRnJhbmNpc2NvMRUwEwYDVQQKEwxQ
aXhnbG8sIEluYy4xEDAOBgNVBAsTB1ZQTi1DSUUxGjAYBgNVBAMTEXR1bm5lbC5w
aXhnbG8uY29tMRwwGgYDVQQpExNCYWxhIENoYW5kcmFzZWthcmFuMR4wHAYJKoZI
hvcNAQkBFg9iYWxhQHBpeGdsby5jb20wHhcNMTgwMjE0MDY0OTI1WhcNMjgwMjEy
MDY0OTI1WjCBqTELMAkGA1UEBhMCVVMxCzAJBgNVBAgTAkNBMRUwEwYDVQQHEwxT
YW5GcmFuY2lzY28xFTATBgNVBAoTDFBpeGdsbywgSW5jLjEQMA4GA1UECxMHVlBO
LUNJRTEPMA0GA1UEAxMGY2llOTYyMRwwGgYDVQQpExNCYWxhIENoYW5kcmFzZWth
cmFuMR4wHAYJKoZIhvcNAQkBFg9iYWxhQHBpeGdsby5jb20wggIiMA0GCSqGSIb3
DQEBAQUAA4ICDwAwggIKAoICAQC8vZRGacVEJ4TJv+xBjD9ETheUdzCfN+SUNFIi
o9u4S6vMtp3fcW38GdT8ZXUoIX7umLgbI3dvrdx6P0kZtCtw/qZXzi5aY+ZIYXsT
Bq/hsqOrssByvkC0kn5RjKCps0cOH9JLP8FcSVVUf69kt9xqU+DfEjWWrQBjqnIa
HXJfcYnlI92/v9MhtNyL+Japz9NJsFOWLUXYlQ/n+0PG1FJ1PKaMrnBupBGVMXgM
xo3Ir1dogyau4jYwBe2qPJiQFfUg9hMS9Z2i1LHBlF1gbeiI/ScCKHLcYVI9K9S3
nC0bcjP6zB4kiBusy8ATDWMZ4uaBnE0Yesj56bg6cFfOQ4WiUxHbzwS/HeYY6oVg
07T4zSbrJ5gei7fNcvoZXdlJ+rYaTwogaJNi7FmylZmVzwTWBF5HpCxDDCF72kVU
xeBALQ8guv7CU0HYoOIeJbtGzJa+0tKGB6tZ8CSN11AQEffrbb6ELkXrN1/spUF4
sjIII3W2SJhDP0QFy6Nh0DCSJeamj+vdfDQYaDhbfcPbbM+GQU+KCQLqwO2Tcvf7
4oducVT4paA/FgMU7uF4GNfaD5ZF2Qg2AyGkmtLMNpZ0gK5P37cHqtdh9vu1FWmI
vHvPOm7IX2elVyW2fDsJmeREzdJkwImk74i1eAheLntDiIkRS2XzZigEmcKxcbFL
GtZe5QIDAQABo4IBazCCAWcwCQYDVR0TBAIwADAtBglghkgBhvhCAQ0EIBYeRWFz
eS1SU0EgR2VuZXJhdGVkIENlcnRpZmljYXRlMB0GA1UdDgQWBBSqZLF1ybdSsjVY
Ns91dFDFoG98vzCB6QYDVR0jBIHhMIHegBTvOI0UUFinW02cF3L837msp1GwEKGB
uqSBtzCBtDELMAkGA1UEBhMCVVMxCzAJBgNVBAgTAkNBMRUwEwYDVQQHEwxTYW5G
cmFuY2lzY28xFTATBgNVBAoTDFBpeGdsbywgSW5jLjEQMA4GA1UECxMHVlBOLUNJ
RTEaMBgGA1UEAxMRdHVubmVsLnBpeGdsby5jb20xHDAaBgNVBCkTE0JhbGEgQ2hh
bmRyYXNla2FyYW4xHjAcBgkqhkiG9w0BCQEWD2JhbGFAcGl4Z2xvLmNvbYIJAKbb
xoOA5qB5MBMGA1UdJQQMMAoGCCsGAQUFBwMCMAsGA1UdDwQEAwIHgDANBgkqhkiG
9w0BAQUFAAOCAgEAnqXaFA1mU0PVUdCUPxs5852aUM+jBPiKjFU70YKKc6w6iscu
vTlUN/LtSy9gjccSg5moewLsXrpEFYulg9/f2k2eGkIYI/ahqzVvznMFwnK7cBvy
tfNREeUsXeAEOH4v2A6qRskUxMZiGG6MB5257yv36XRkmkX2HZbU70Zn2LkTr+g3
nqypQyVDJJ1G18N1l4prydaMBbh33TPg5fMW+usQB6hfWvpQ3SbMuoJAY0nVqcau
bro9HPHVBewfhrzEI3vFijq07Z9dV7ayw5i1FxImqkCPLpQJ4PRbGvaXYtasuDoo
bHftubDg1nQCGhg50WwweD8RxjbhaIaBrqMExvJzR05UIssUsvWMNvhDiTwq0n2D
G6bPkd/ToBc7ydOJF931ONdQhd3NaWUd0Cg29ILOwrMLccjhxX8HFR4OdKlX5vxX
8LNXdcN6hzNUBpJhu1szBxP6N2ltSSPfYFnPYc8u/9vQCrmuM5Mx7CEFVkef6pI7
+/m9b/j+JyjkwLRE/Ul83HtMRgmjYOebbw6fCSn1HGEk2ZeKZc11Qcivr9BRahhK
Pk43nPkrVZ+HeJbuhY4ZESQnZXMAJjFBrvSyXoF69t24a5YAm+8EIL8loDBekgtx
qo5+Kzx1m0SHQZ1L+gNXnA/RZpDo2oSaiGo6QDXhMoNrD9EhNfPJM6bH3KU=
-----END CERTIFICATE-----
