Certificate:
    Data:
        Version: 3 (0x2)
        Serial Number: 964 (0x3c4)
    Signature Algorithm: sha1WithRSAEncryption
        Issuer: C=US, ST=CA, L=SanFrancisco, O=Pixglo, Inc., OU=VPN-CIE, CN=tunnel.pixglo.com/name=Bala Chandrasekaran/emailAddress=bala@pixglo.com
        Validity
            Not Before: Feb 14 06:49:26 2018 GMT
            Not After : Feb 12 06:49:26 2028 GMT
        Subject: C=US, ST=CA, L=SanFrancisco, O=Pixglo, Inc., OU=VPN-CIE, CN=cie963/name=Bala Chandrasekaran/emailAddress=bala@pixglo.com
        Subject Public Key Info:
            Public Key Algorithm: rsaEncryption
                Public-Key: (4096 bit)
                Modulus:
                    00:be:5c:ab:21:16:40:04:d0:9c:c0:e1:ca:ef:9e:
                    ba:46:73:c2:ff:1e:ab:02:21:fc:92:59:0a:e5:e7:
                    88:7c:4e:00:df:f1:a3:76:f5:54:8b:f6:27:c7:5c:
                    32:48:ca:74:53:76:e7:85:cf:18:95:f4:f0:fc:5c:
                    4d:81:ef:d4:10:6f:eb:92:75:f7:48:8b:15:f3:2b:
                    6b:53:17:ea:f3:b1:d0:cc:66:54:34:4a:c8:0e:f0:
                    e6:ca:26:2d:b3:13:17:5d:a1:8a:47:68:71:33:4d:
                    21:28:16:5a:7a:2b:11:f6:3d:7c:9b:75:fe:72:0f:
                    52:6e:94:2e:e2:12:eb:ca:4e:01:f2:ad:85:01:75:
                    52:20:27:a2:6e:bd:3e:ef:59:96:6b:65:14:b3:6f:
                    16:48:16:b0:e0:0b:cf:c4:d4:72:79:09:bf:5a:61:
                    29:cf:d2:89:89:55:27:a9:8f:18:02:5e:ed:d4:6a:
                    7d:0d:7b:f7:e1:1f:2d:1c:d1:9b:63:a5:bc:b1:44:
                    0a:df:db:c6:c1:1f:d4:64:db:bd:38:bc:3a:f8:e1:
                    3a:bf:fb:e2:65:2f:5b:bd:4c:9e:09:31:24:7b:e1:
                    60:65:a3:9c:14:7a:ee:25:70:c5:2d:6a:a6:89:2c:
                    a1:62:6b:90:35:0b:04:44:c7:b8:2c:f0:96:e5:88:
                    8e:d6:99:6a:e3:c0:24:f9:4a:d2:76:75:c4:f8:56:
                    d3:f3:4c:ce:ac:bf:4f:84:d9:d1:bd:7c:6d:c7:a8:
                    47:1c:a1:d3:81:f0:b1:df:8c:ec:e9:f9:79:53:0c:
                    e1:22:e3:11:48:31:12:bf:15:8b:4d:bd:5c:6b:81:
                    3f:73:82:c1:d6:dc:e9:d5:71:f4:af:4c:04:f5:e5:
                    9e:4c:92:c7:72:98:3e:e8:92:2a:bc:49:a3:87:07:
                    61:a8:42:1a:2f:52:cb:57:2e:d7:41:92:8a:11:b3:
                    13:b7:4b:26:a1:a6:f5:77:77:c3:fd:51:b7:3e:1a:
                    96:31:c6:ad:01:c9:32:2b:4e:f4:d9:cd:ac:b0:e9:
                    c2:55:c2:ee:7b:55:82:d0:07:a6:08:e1:00:84:6a:
                    46:4b:76:fa:86:9d:d8:6a:09:9c:b3:ce:af:23:10:
                    15:53:3f:92:69:5a:9c:82:d0:1a:04:98:a0:c5:44:
                    45:e1:11:3b:c5:aa:ee:64:32:86:86:28:d7:1a:0f:
                    43:9c:76:bd:80:ba:51:c3:68:b3:92:34:71:92:60:
                    2e:98:6b:39:23:3e:e9:96:5c:db:6a:61:b4:ff:06:
                    fc:29:f7:d6:ba:52:4e:70:23:38:08:bf:9a:55:36:
                    7a:ac:e4:d1:85:37:90:65:c3:39:73:00:b8:6f:5f:
                    f5:fb:0b
                Exponent: 65537 (0x10001)
        X509v3 extensions:
            X509v3 Basic Constraints: 
                CA:FALSE
            Netscape Comment: 
                Easy-RSA Generated Certificate
            X509v3 Subject Key Identifier: 
                4E:18:E0:97:50:9B:08:9F:DA:C7:ED:37:DB:87:BA:6E:69:A3:B3:DF
            X509v3 Authority Key Identifier: 
                keyid:EF:38:8D:14:50:58:A7:5B:4D:9C:17:72:FC:DF:B9:AC:A7:51:B0:10
                DirName:/C=US/ST=CA/L=SanFrancisco/O=Pixglo, Inc./OU=VPN-CIE/CN=tunnel.pixglo.com/name=Bala Chandrasekaran/emailAddress=bala@pixglo.com
                serial:A6:DB:C6:83:80:E6:A0:79

            X509v3 Extended Key Usage: 
                TLS Web Client Authentication
            X509v3 Key Usage: 
                Digital Signature
    Signature Algorithm: sha1WithRSAEncryption
         4d:0f:50:bd:22:f6:88:2b:43:f0:c7:7b:65:2c:be:6d:d9:4e:
         44:8f:2e:f5:9f:a3:36:d3:94:04:75:b5:84:8b:83:42:da:b6:
         95:ea:d4:9d:87:b7:a4:c5:cc:4d:93:55:eb:2b:22:c9:7a:19:
         41:85:a8:8e:9d:94:02:21:ae:3d:27:8c:e5:a0:7b:aa:0b:3b:
         66:74:55:47:1c:93:39:c6:7c:5f:4e:b1:e2:c1:98:b2:82:09:
         04:96:9d:24:82:46:eb:4e:6d:af:ac:29:e6:ae:0c:6d:cc:f3:
         42:72:5f:74:6f:27:4b:b7:7e:d9:25:71:b4:2a:b6:a9:a7:9e:
         a5:cf:05:d9:48:12:54:45:99:44:27:ee:8b:19:6b:9c:a1:94:
         04:2b:41:f3:df:2d:46:39:09:d3:16:2f:2c:43:d5:b6:71:90:
         ca:07:eb:d1:df:42:05:86:db:38:7d:bc:39:3d:ed:04:66:aa:
         c0:fd:a2:21:c2:ad:94:51:9e:63:23:f2:54:56:80:06:ae:e5:
         be:e2:56:36:bc:12:ec:ff:7b:36:68:f1:ce:86:97:96:e8:dd:
         09:e2:8e:d0:70:b1:3e:3b:04:27:12:c0:6d:41:80:69:5e:62:
         19:e2:21:60:d6:2b:27:10:b7:81:07:e1:b4:1c:68:29:a3:5e:
         d8:1c:bf:a4:7f:0b:8a:9d:86:af:e0:ee:f9:0e:78:8c:6b:5e:
         94:04:44:fa:3b:84:6a:f4:79:c8:98:e3:3e:e1:99:03:bc:01:
         61:d4:2d:83:87:b0:d5:0f:f9:53:fd:51:7c:98:51:9a:5a:4d:
         61:41:8b:5a:d1:60:50:a5:b3:b0:e6:d8:9a:75:1f:cd:2a:46:
         97:3a:4a:2d:da:13:89:d5:4a:25:c9:67:75:e7:05:bb:c2:ac:
         02:63:65:3c:a9:e1:f5:d6:91:a6:d9:07:cf:c9:33:67:2d:3c:
         9a:33:2e:01:5c:dc:dd:23:4c:a3:70:36:f0:ee:0f:b2:24:28:
         a1:82:c7:e2:f1:f6:71:9d:2b:5a:e7:86:df:99:f3:aa:2e:e6:
         d7:75:99:97:88:41:19:f2:dc:e8:59:7c:63:b0:ea:59:24:b1:
         07:04:f6:e5:87:ca:e5:8b:36:ec:f1:1b:b5:52:29:17:08:96:
         18:a9:e2:9b:26:f3:99:ca:bc:d2:6a:c6:7e:d0:70:d1:27:7e:
         9a:3d:8d:45:72:76:51:8d:c2:9d:23:10:f3:6c:72:01:94:11:
         fa:00:57:06:f1:76:db:8e:36:ca:4e:3b:7b:09:6d:e3:10:07:
         8b:65:b3:a6:07:d9:1f:f8:08:30:f8:d9:82:1c:2c:71:32:93:
         c8:0b:60:76:2c:74:a1:f9
-----BEGIN CERTIFICATE-----
MIIHSDCCBTCgAwIBAgICA8QwDQYJKoZIhvcNAQEFBQAwgbQxCzAJBgNVBAYTAlVT
MQswCQYDVQQIEwJDQTEVMBMGA1UEBxMMU2FuRnJhbmNpc2NvMRUwEwYDVQQKEwxQ
aXhnbG8sIEluYy4xEDAOBgNVBAsTB1ZQTi1DSUUxGjAYBgNVBAMTEXR1bm5lbC5w
aXhnbG8uY29tMRwwGgYDVQQpExNCYWxhIENoYW5kcmFzZWthcmFuMR4wHAYJKoZI
hvcNAQkBFg9iYWxhQHBpeGdsby5jb20wHhcNMTgwMjE0MDY0OTI2WhcNMjgwMjEy
MDY0OTI2WjCBqTELMAkGA1UEBhMCVVMxCzAJBgNVBAgTAkNBMRUwEwYDVQQHEwxT
YW5GcmFuY2lzY28xFTATBgNVBAoTDFBpeGdsbywgSW5jLjEQMA4GA1UECxMHVlBO
LUNJRTEPMA0GA1UEAxMGY2llOTYzMRwwGgYDVQQpExNCYWxhIENoYW5kcmFzZWth
cmFuMR4wHAYJKoZIhvcNAQkBFg9iYWxhQHBpeGdsby5jb20wggIiMA0GCSqGSIb3
DQEBAQUAA4ICDwAwggIKAoICAQC+XKshFkAE0JzA4crvnrpGc8L/HqsCIfySWQrl
54h8TgDf8aN29VSL9ifHXDJIynRTdueFzxiV9PD8XE2B79QQb+uSdfdIixXzK2tT
F+rzsdDMZlQ0SsgO8ObKJi2zExddoYpHaHEzTSEoFlp6KxH2PXybdf5yD1JulC7i
EuvKTgHyrYUBdVIgJ6JuvT7vWZZrZRSzbxZIFrDgC8/E1HJ5Cb9aYSnP0omJVSep
jxgCXu3Uan0Ne/fhHy0c0ZtjpbyxRArf28bBH9Rk2704vDr44Tq/++JlL1u9TJ4J
MSR74WBlo5wUeu4lcMUtaqaJLKFia5A1CwREx7gs8JbliI7WmWrjwCT5StJ2dcT4
VtPzTM6sv0+E2dG9fG3HqEccodOB8LHfjOzp+XlTDOEi4xFIMRK/FYtNvVxrgT9z
gsHW3OnVcfSvTAT15Z5MksdymD7okiq8SaOHB2GoQhovUstXLtdBkooRsxO3Syah
pvV3d8P9Ubc+GpYxxq0ByTIrTvTZzayw6cJVwu57VYLQB6YI4QCEakZLdvqGndhq
CZyzzq8jEBVTP5JpWpyC0BoEmKDFREXhETvFqu5kMoaGKNcaD0Ocdr2AulHDaLOS
NHGSYC6YazkjPumWXNtqYbT/Bvwp99a6Uk5wIzgIv5pVNnqs5NGFN5BlwzlzALhv
X/X7CwIDAQABo4IBazCCAWcwCQYDVR0TBAIwADAtBglghkgBhvhCAQ0EIBYeRWFz
eS1SU0EgR2VuZXJhdGVkIENlcnRpZmljYXRlMB0GA1UdDgQWBBROGOCXUJsIn9rH
7Tfbh7puaaOz3zCB6QYDVR0jBIHhMIHegBTvOI0UUFinW02cF3L837msp1GwEKGB
uqSBtzCBtDELMAkGA1UEBhMCVVMxCzAJBgNVBAgTAkNBMRUwEwYDVQQHEwxTYW5G
cmFuY2lzY28xFTATBgNVBAoTDFBpeGdsbywgSW5jLjEQMA4GA1UECxMHVlBOLUNJ
RTEaMBgGA1UEAxMRdHVubmVsLnBpeGdsby5jb20xHDAaBgNVBCkTE0JhbGEgQ2hh
bmRyYXNla2FyYW4xHjAcBgkqhkiG9w0BCQEWD2JhbGFAcGl4Z2xvLmNvbYIJAKbb
xoOA5qB5MBMGA1UdJQQMMAoGCCsGAQUFBwMCMAsGA1UdDwQEAwIHgDANBgkqhkiG
9w0BAQUFAAOCAgEATQ9QvSL2iCtD8Md7ZSy+bdlORI8u9Z+jNtOUBHW1hIuDQtq2
lerUnYe3pMXMTZNV6ysiyXoZQYWojp2UAiGuPSeM5aB7qgs7ZnRVRxyTOcZ8X06x
4sGYsoIJBJadJIJG605tr6wp5q4MbczzQnJfdG8nS7d+2SVxtCq2qaeepc8F2UgS
VEWZRCfuixlrnKGUBCtB898tRjkJ0xYvLEPVtnGQygfr0d9CBYbbOH28OT3tBGaq
wP2iIcKtlFGeYyPyVFaABq7lvuJWNrwS7P97NmjxzoaXlujdCeKO0HCxPjsEJxLA
bUGAaV5iGeIhYNYrJxC3gQfhtBxoKaNe2By/pH8Lip2Gr+Du+Q54jGtelARE+juE
avR5yJjjPuGZA7wBYdQtg4ew1Q/5U/1RfJhRmlpNYUGLWtFgUKWzsObYmnUfzSpG
lzpKLdoTidVKJclndecFu8KsAmNlPKnh9daRptkHz8kzZy08mjMuAVzc3SNMo3A2
8O4PsiQooYLH4vH2cZ0rWueG35nzqi7m13WZl4hBGfLc6Fl8Y7DqWSSxBwT25YfK
5Ys27PEbtVIpFwiWGKnimybzmcq80mrGftBw0Sd+mj2NRXJ2UY3CnSMQ82xyAZQR
+gBXBvF22442yk47ewlt4xAHi2WzpgfZH/gIMPjZghwscTKTyAtgdix0ofk=
-----END CERTIFICATE-----
