Certificate:
    Data:
        Version: 3 (0x2)
        Serial Number: 965 (0x3c5)
    Signature Algorithm: sha1WithRSAEncryption
        Issuer: C=US, ST=CA, L=SanFrancisco, O=Pixglo, Inc., OU=VPN-CIE, CN=tunnel.pixglo.com/name=Bala Chandrasekaran/emailAddress=bala@pixglo.com
        Validity
            Not Before: Feb 14 06:49:29 2018 GMT
            Not After : Feb 12 06:49:29 2028 GMT
        Subject: C=US, ST=CA, L=SanFrancisco, O=Pixglo, Inc., OU=VPN-CIE, CN=cie964/name=Bala Chandrasekaran/emailAddress=bala@pixglo.com
        Subject Public Key Info:
            Public Key Algorithm: rsaEncryption
                Public-Key: (4096 bit)
                Modulus:
                    00:c8:56:6d:f0:3d:87:62:49:f3:a5:32:5d:49:f4:
                    56:00:46:ec:cd:19:dc:bd:ed:2f:19:00:51:16:45:
                    9b:01:29:35:37:f8:23:c2:59:45:07:f7:89:37:e5:
                    77:8b:fa:e1:68:9a:07:89:a0:35:62:05:fa:49:75:
                    3e:2a:7c:b4:8a:7e:93:72:56:32:6f:4a:f0:93:37:
                    89:b5:8a:5b:c2:ca:91:7c:95:cd:4b:9d:48:e2:4a:
                    28:b2:ed:1e:1a:dd:6b:58:b0:db:34:84:ed:8e:14:
                    66:f3:1b:1a:d4:d8:b6:8f:84:35:7c:99:ba:16:2a:
                    e2:9c:88:c9:81:07:53:f3:ab:f7:d3:ed:14:fb:25:
                    e3:a5:cb:69:cc:3d:1e:c0:98:a7:69:46:71:62:16:
                    b0:f1:79:2e:da:0a:8c:4b:24:49:4a:d4:1c:5c:15:
                    75:cf:7e:3b:dd:54:1a:78:d7:77:2a:62:cd:ff:ad:
                    79:4b:33:2a:ea:8e:e0:ad:1c:b1:04:fd:7f:f4:6f:
                    9b:b5:ad:2d:af:84:a3:40:2a:97:73:ed:d8:9b:76:
                    f6:9f:27:a9:74:99:9a:79:69:f9:35:51:a2:e8:8c:
                    93:03:32:2b:dc:ea:03:9a:21:de:83:16:89:6a:92:
                    a5:22:a2:c2:ff:3c:10:69:ea:9a:60:9d:6b:ef:ea:
                    b6:f6:6c:6f:ab:bb:9e:f1:24:5c:dd:a3:0d:af:51:
                    d2:19:52:c1:61:7f:13:f8:b0:f8:fb:04:76:0a:5c:
                    95:83:68:43:d8:c9:96:fa:2b:32:72:af:43:65:35:
                    58:ac:9b:b1:62:45:ed:5c:55:cf:5d:63:78:4f:ce:
                    b1:1c:a6:5f:3b:4c:54:60:cc:9c:03:ea:31:8a:7d:
                    92:9c:fb:3e:99:9a:e5:f7:51:b0:c6:71:8d:32:a6:
                    f0:d6:2c:0e:0b:27:d1:ed:15:dd:69:72:6d:2d:37:
                    74:58:9d:aa:02:55:26:17:b9:3e:5f:76:88:c5:c5:
                    0a:1e:2d:ea:45:b6:1f:cf:fc:d3:94:ea:de:75:81:
                    b3:7a:9c:f2:14:0d:f4:40:ef:5e:87:a8:d2:33:d1:
                    fe:50:63:65:57:6e:2a:59:7f:5a:77:a9:78:dd:2f:
                    70:5b:38:00:cc:d7:39:0a:ac:8c:d2:14:19:05:1b:
                    9a:0e:bf:49:6a:16:bc:e8:fe:2b:e3:6e:85:b2:21:
                    12:18:c0:f2:9f:54:45:1e:67:ed:a5:56:ce:88:91:
                    68:c2:d7:8c:a8:94:7b:cb:63:97:ae:a6:3b:9e:a2:
                    18:9c:49:80:e5:ec:25:59:d8:b7:98:c8:fc:26:6b:
                    bc:3f:3c:f0:31:6e:47:07:e4:dc:52:97:62:30:d6:
                    b0:5c:e9
                Exponent: 65537 (0x10001)
        X509v3 extensions:
            X509v3 Basic Constraints: 
                CA:FALSE
            Netscape Comment: 
                Easy-RSA Generated Certificate
            X509v3 Subject Key Identifier: 
                F0:B0:10:4A:37:E9:10:D4:A9:E3:D1:DD:1C:8B:86:4D:AA:99:FD:CE
            X509v3 Authority Key Identifier: 
                keyid:EF:38:8D:14:50:58:A7:5B:4D:9C:17:72:FC:DF:B9:AC:A7:51:B0:10
                DirName:/C=US/ST=CA/L=SanFrancisco/O=Pixglo, Inc./OU=VPN-CIE/CN=tunnel.pixglo.com/name=Bala Chandrasekaran/emailAddress=bala@pixglo.com
                serial:A6:DB:C6:83:80:E6:A0:79

            X509v3 Extended Key Usage: 
                TLS Web Client Authentication
            X509v3 Key Usage: 
                Digital Signature
    Signature Algorithm: sha1WithRSAEncryption
         16:7f:57:16:96:46:b9:24:fb:73:82:86:1a:6f:09:c5:69:a2:
         11:4f:b4:77:e1:f2:a1:6a:32:79:34:bc:21:b5:b6:ab:39:a4:
         64:30:ec:cc:9b:92:4f:ad:60:78:e9:d5:6d:bd:7d:8a:2e:c3:
         00:0a:11:7f:9f:f9:7a:eb:cd:4b:df:9e:be:db:ec:75:99:60:
         ad:a5:80:1d:bc:2b:c0:dc:96:27:81:16:5d:52:d9:cf:ec:f5:
         24:fb:0a:a0:be:2c:6d:92:10:58:6d:a5:bd:81:38:f8:7c:e2:
         f4:b8:0d:02:77:56:32:c7:cc:ce:7f:31:cd:da:17:8f:68:05:
         04:15:81:84:64:48:1c:7a:5f:bd:0f:c2:1b:43:87:13:2a:3a:
         3a:9f:78:45:11:2e:28:1c:d2:df:1d:40:44:c8:74:6f:be:86:
         2a:7d:7e:3c:dc:5b:34:f1:a8:90:f6:63:7c:cf:72:4e:82:e0:
         9f:b6:57:ea:66:d2:0b:e3:07:1f:c4:81:f5:8b:36:d1:8a:74:
         c0:cf:fd:03:21:2a:8a:b1:e8:c0:22:42:e5:b1:c1:dc:72:fa:
         e3:5c:73:c8:60:26:eb:9e:58:7a:8e:a6:a3:b4:fa:66:c8:45:
         b7:98:07:01:55:55:d0:f5:6e:4b:48:d7:90:74:b0:a4:a7:e1:
         df:c6:56:6a:8c:0d:ac:03:f9:5c:fc:19:33:80:d5:fb:5f:31:
         f2:64:0e:b7:43:61:94:07:8f:29:e5:12:02:e3:73:e5:4f:c9:
         16:90:0a:1e:23:78:ba:37:d7:53:bf:dc:e4:57:71:06:38:c2:
         87:4c:62:63:44:30:dd:8f:d4:c4:38:b1:0a:c8:b6:d4:7a:23:
         b5:e1:7c:49:d5:79:09:67:d8:4a:1b:95:c6:3d:0c:88:b1:8d:
         63:f7:73:80:25:f0:01:78:cd:5b:92:4b:56:50:b6:87:19:8f:
         1f:19:d5:b8:4b:e4:2b:9d:80:7f:c6:78:f2:03:0b:07:40:af:
         45:8b:97:81:ca:fb:1f:97:64:0d:71:c0:fc:79:3c:1d:7d:86:
         2c:6d:92:f6:31:67:86:62:ea:13:26:08:e3:2d:d4:7c:74:1f:
         4a:ce:58:67:74:9c:54:bf:6d:f7:a5:f5:9d:00:49:5c:f7:a9:
         0e:ed:54:54:28:4c:de:fe:3c:c5:f6:87:57:78:fe:91:e1:19:
         c0:d0:64:59:17:56:22:23:20:65:0c:38:2c:aa:c2:88:d9:f0:
         6d:ba:aa:3f:0c:3f:9a:f7:d9:c2:2f:8c:6c:ed:11:7d:fe:3c:
         85:cc:57:87:b1:09:6d:fd:96:da:38:39:8b:bb:a0:e0:14:ea:
         31:07:5f:ca:04:13:71:35
-----BEGIN CERTIFICATE-----
MIIHSDCCBTCgAwIBAgICA8UwDQYJKoZIhvcNAQEFBQAwgbQxCzAJBgNVBAYTAlVT
MQswCQYDVQQIEwJDQTEVMBMGA1UEBxMMU2FuRnJhbmNpc2NvMRUwEwYDVQQKEwxQ
aXhnbG8sIEluYy4xEDAOBgNVBAsTB1ZQTi1DSUUxGjAYBgNVBAMTEXR1bm5lbC5w
aXhnbG8uY29tMRwwGgYDVQQpExNCYWxhIENoYW5kcmFzZWthcmFuMR4wHAYJKoZI
hvcNAQkBFg9iYWxhQHBpeGdsby5jb20wHhcNMTgwMjE0MDY0OTI5WhcNMjgwMjEy
MDY0OTI5WjCBqTELMAkGA1UEBhMCVVMxCzAJBgNVBAgTAkNBMRUwEwYDVQQHEwxT
YW5GcmFuY2lzY28xFTATBgNVBAoTDFBpeGdsbywgSW5jLjEQMA4GA1UECxMHVlBO
LUNJRTEPMA0GA1UEAxMGY2llOTY0MRwwGgYDVQQpExNCYWxhIENoYW5kcmFzZWth
cmFuMR4wHAYJKoZIhvcNAQkBFg9iYWxhQHBpeGdsby5jb20wggIiMA0GCSqGSIb3
DQEBAQUAA4ICDwAwggIKAoICAQDIVm3wPYdiSfOlMl1J9FYARuzNGdy97S8ZAFEW
RZsBKTU3+CPCWUUH94k35XeL+uFomgeJoDViBfpJdT4qfLSKfpNyVjJvSvCTN4m1
ilvCypF8lc1LnUjiSiiy7R4a3WtYsNs0hO2OFGbzGxrU2LaPhDV8mboWKuKciMmB
B1Pzq/fT7RT7JeOly2nMPR7AmKdpRnFiFrDxeS7aCoxLJElK1BxcFXXPfjvdVBp4
13cqYs3/rXlLMyrqjuCtHLEE/X/0b5u1rS2vhKNAKpdz7dibdvafJ6l0mZp5afk1
UaLojJMDMivc6gOaId6DFolqkqUiosL/PBBp6ppgnWvv6rb2bG+ru57xJFzdow2v
UdIZUsFhfxP4sPj7BHYKXJWDaEPYyZb6KzJyr0NlNVism7FiRe1cVc9dY3hPzrEc
pl87TFRgzJwD6jGKfZKc+z6ZmuX3UbDGcY0ypvDWLA4LJ9HtFd1pcm0tN3RYnaoC
VSYXuT5fdojFxQoeLepFth/P/NOU6t51gbN6nPIUDfRA716HqNIz0f5QY2VXbipZ
f1p3qXjdL3BbOADM1zkKrIzSFBkFG5oOv0lqFrzo/ivjboWyIRIYwPKfVEUeZ+2l
Vs6IkWjC14yolHvLY5eupjueohicSYDl7CVZ2LeYyPwma7w/PPAxbkcH5NxSl2Iw
1rBc6QIDAQABo4IBazCCAWcwCQYDVR0TBAIwADAtBglghkgBhvhCAQ0EIBYeRWFz
eS1SU0EgR2VuZXJhdGVkIENlcnRpZmljYXRlMB0GA1UdDgQWBBTwsBBKN+kQ1Knj
0d0ci4ZNqpn9zjCB6QYDVR0jBIHhMIHegBTvOI0UUFinW02cF3L837msp1GwEKGB
uqSBtzCBtDELMAkGA1UEBhMCVVMxCzAJBgNVBAgTAkNBMRUwEwYDVQQHEwxTYW5G
cmFuY2lzY28xFTATBgNVBAoTDFBpeGdsbywgSW5jLjEQMA4GA1UECxMHVlBOLUNJ
RTEaMBgGA1UEAxMRdHVubmVsLnBpeGdsby5jb20xHDAaBgNVBCkTE0JhbGEgQ2hh
bmRyYXNla2FyYW4xHjAcBgkqhkiG9w0BCQEWD2JhbGFAcGl4Z2xvLmNvbYIJAKbb
xoOA5qB5MBMGA1UdJQQMMAoGCCsGAQUFBwMCMAsGA1UdDwQEAwIHgDANBgkqhkiG
9w0BAQUFAAOCAgEAFn9XFpZGuST7c4KGGm8JxWmiEU+0d+HyoWoyeTS8IbW2qzmk
ZDDszJuST61geOnVbb19ii7DAAoRf5/5euvNS9+evtvsdZlgraWAHbwrwNyWJ4EW
XVLZz+z1JPsKoL4sbZIQWG2lvYE4+Hzi9LgNAndWMsfMzn8xzdoXj2gFBBWBhGRI
HHpfvQ/CG0OHEyo6Op94RREuKBzS3x1ARMh0b76GKn1+PNxbNPGokPZjfM9yToLg
n7ZX6mbSC+MHH8SB9Ys20Yp0wM/9AyEqirHowCJC5bHB3HL641xzyGAm655Yeo6m
o7T6ZshFt5gHAVVV0PVuS0jXkHSwpKfh38ZWaowNrAP5XPwZM4DV+18x8mQOt0Nh
lAePKeUSAuNz5U/JFpAKHiN4ujfXU7/c5FdxBjjCh0xiY0Qw3Y/UxDixCsi21Hoj
teF8SdV5CWfYShuVxj0MiLGNY/dzgCXwAXjNW5JLVlC2hxmPHxnVuEvkK52Af8Z4
8gMLB0CvRYuXgcr7H5dkDXHA/Hk8HX2GLG2S9jFnhmLqEyYI4y3UfHQfSs5YZ3Sc
VL9t96X1nQBJXPepDu1UVChM3v48xfaHV3j+keEZwNBkWRdWIiMgZQw4LKrCiNnw
bbqqPww/mvfZwi+MbO0Rff48hcxXh7EJbf2W2jg5i7ug4BTqMQdfygQTcTU=
-----END CERTIFICATE-----
