Certificate:
    Data:
        Version: 3 (0x2)
        Serial Number: 968 (0x3c8)
    Signature Algorithm: sha1WithRSAEncryption
        Issuer: C=US, ST=CA, L=SanFrancisco, O=Pixglo, Inc., OU=VPN-CIE, CN=tunnel.pixglo.com/name=Bala Chandrasekaran/emailAddress=bala@pixglo.com
        Validity
            Not Before: Feb 14 06:49:32 2018 GMT
            Not After : Feb 12 06:49:32 2028 GMT
        Subject: C=US, ST=CA, L=SanFrancisco, O=Pixglo, Inc., OU=VPN-CIE, CN=cie967/name=Bala Chandrasekaran/emailAddress=bala@pixglo.com
        Subject Public Key Info:
            Public Key Algorithm: rsaEncryption
                Public-Key: (4096 bit)
                Modulus:
                    00:bb:dd:3a:0b:32:5c:94:4b:6e:b5:dc:e2:2a:da:
                    ba:41:fc:00:75:5e:cd:43:b4:35:1f:36:16:d4:dc:
                    53:e6:7d:82:4b:a6:39:1d:d9:3a:ac:fe:d5:b7:cb:
                    17:9a:3f:c5:15:2c:6a:5c:53:ae:be:5e:9f:47:48:
                    a3:e8:03:20:f3:9c:73:be:9a:eb:19:3d:93:56:65:
                    02:67:cf:4a:58:61:85:70:17:d1:ef:2e:45:f8:30:
                    22:be:3d:64:9f:df:0c:56:26:ab:33:d3:c4:10:7a:
                    36:f9:6c:af:7e:6d:a1:28:56:bd:84:47:bd:a6:f7:
                    37:c0:1d:07:2c:17:51:e3:1b:f1:1e:5c:8e:ea:0b:
                    81:75:79:20:73:27:e1:39:aa:48:96:c7:77:17:0e:
                    d4:85:29:33:a0:57:bb:84:58:17:29:ee:46:61:c0:
                    1f:e9:15:c8:40:47:d4:33:e1:cd:d5:e9:2a:6f:1e:
                    92:cb:86:43:10:f3:fe:0b:e4:17:12:c6:06:ba:9d:
                    f3:1a:44:1c:5e:9b:05:1f:84:b7:d7:04:aa:28:6c:
                    0e:f8:1b:8e:0c:6a:d0:6d:37:6f:15:cf:3b:6b:71:
                    0c:7e:fe:19:9d:fc:e5:78:12:17:9a:c8:4c:8c:5d:
                    af:6c:29:77:88:29:63:fe:f8:71:de:7b:81:fa:b9:
                    9a:db:46:33:e5:0e:2e:9d:b8:d5:70:37:76:a2:14:
                    9c:a7:c9:0e:8a:0f:55:f9:c4:53:e0:3a:96:c6:ed:
                    b7:89:50:47:58:40:cb:64:51:70:51:97:c0:93:ef:
                    e8:be:20:32:13:2b:8c:e5:c4:c1:07:87:51:75:ea:
                    fe:f0:2a:93:3f:ad:8d:55:07:e6:e6:61:21:95:d4:
                    70:4c:e1:d6:a1:44:4a:46:43:30:5e:be:0b:75:1c:
                    e9:1e:3e:1e:61:a9:39:9e:e2:5e:6e:a9:36:6a:76:
                    bd:2a:56:53:c6:4a:ec:56:14:37:3d:6f:60:fb:fe:
                    0e:4c:f8:93:15:3d:3e:b8:c0:8f:a1:b4:30:f3:15:
                    fe:91:f4:47:4c:34:9a:e3:1d:33:71:e4:8f:4d:90:
                    aa:f4:bb:e2:6b:ae:5c:d1:a1:47:48:7b:f1:d7:1e:
                    a5:af:d0:4e:3d:8a:a3:45:ed:bb:5b:1d:8a:66:98:
                    03:0c:36:cb:97:82:57:b8:23:f7:b9:52:6d:6e:c2:
                    f3:96:37:8a:ff:26:42:9b:38:e6:b4:eb:bb:c5:76:
                    55:ad:cb:1a:36:e1:d7:49:e0:89:73:9e:ed:b0:43:
                    cf:4d:72:0d:e4:25:a5:2b:90:c1:d4:6e:cc:2e:de:
                    e1:f2:47:2b:24:60:b6:9f:ba:9c:ae:bb:67:f0:3d:
                    4b:5d:1b
                Exponent: 65537 (0x10001)
        X509v3 extensions:
            X509v3 Basic Constraints: 
                CA:FALSE
            Netscape Comment: 
                Easy-RSA Generated Certificate
            X509v3 Subject Key Identifier: 
                49:20:2C:28:99:70:B4:52:B5:82:61:62:E6:DA:6B:27:26:31:60:C1
            X509v3 Authority Key Identifier: 
                keyid:EF:38:8D:14:50:58:A7:5B:4D:9C:17:72:FC:DF:B9:AC:A7:51:B0:10
                DirName:/C=US/ST=CA/L=SanFrancisco/O=Pixglo, Inc./OU=VPN-CIE/CN=tunnel.pixglo.com/name=Bala Chandrasekaran/emailAddress=bala@pixglo.com
                serial:A6:DB:C6:83:80:E6:A0:79

            X509v3 Extended Key Usage: 
                TLS Web Client Authentication
            X509v3 Key Usage: 
                Digital Signature
    Signature Algorithm: sha1WithRSAEncryption
         af:e0:63:f6:ef:e0:e3:ed:0a:04:47:a1:d2:bb:1d:d8:ce:91:
         59:8c:82:fd:eb:5f:b1:4d:be:c7:b1:11:24:78:0b:55:5a:f4:
         84:e5:d5:ac:37:37:42:88:f5:ac:52:4b:e0:4c:15:1f:ec:bb:
         7e:61:69:43:6a:d0:e8:25:a0:b2:6f:0f:c5:41:11:99:4a:9f:
         dd:78:61:f2:51:01:c9:26:d5:09:01:6b:cd:04:4f:2e:77:43:
         bd:86:65:77:02:34:18:ce:e4:1b:b1:95:4d:84:32:49:c6:72:
         15:fd:4f:0d:34:a7:d7:e7:6c:9d:36:f4:73:f8:41:d2:61:b1:
         34:08:5b:6e:59:6a:b4:b2:75:84:fe:ee:f7:27:1b:2b:3f:14:
         31:5b:58:7b:bd:4e:d7:8d:f0:ff:b3:21:30:47:c8:f0:c7:f9:
         e6:0a:22:0f:00:e3:b4:2e:9b:d8:19:e1:2f:0c:6d:78:21:bb:
         03:18:63:5a:7a:62:b8:4e:8a:33:46:49:b5:ec:e4:a0:63:ae:
         7a:80:75:01:aa:fc:97:6f:73:9f:51:4c:94:43:af:d3:d1:26:
         36:44:0e:46:c7:da:6d:de:12:27:6e:68:e0:54:2e:9b:08:e0:
         a9:ce:fe:d7:d8:6a:f3:7a:eb:2b:fd:84:64:d3:74:7e:e0:27:
         25:63:2a:3d:66:54:de:5c:83:df:9c:8d:b1:fc:cc:f6:31:4a:
         f3:0d:06:60:2c:df:d9:7a:a5:44:ab:68:b1:ef:e8:e0:b6:7d:
         5e:f1:a0:f3:12:ac:03:08:8a:95:0d:d3:ca:60:d5:bf:d4:45:
         ae:9f:18:03:ce:a0:15:90:d6:d8:4e:bc:b3:3a:37:2a:83:96:
         59:35:db:a7:8f:23:51:37:27:ba:58:0f:e6:99:9a:d5:77:ab:
         ce:84:a2:4c:d2:48:e9:1e:4a:7f:ce:d6:4a:5e:9a:d5:01:41:
         f2:8e:79:1a:1c:c4:60:98:ce:3e:44:04:15:11:00:44:d9:79:
         8a:08:ed:13:ed:7a:cb:3a:22:e2:5f:ab:49:b3:bc:32:84:4c:
         7b:ff:44:ca:30:24:2d:bc:84:a9:97:08:c9:2b:74:2e:78:51:
         6d:1b:c3:12:31:77:1d:32:3a:89:39:ed:71:eb:94:df:c6:35:
         8a:89:ab:33:c6:23:c1:2f:7c:53:b8:db:20:11:13:14:90:e3:
         45:98:52:e4:00:49:32:a3:66:80:0f:18:91:64:95:4b:c2:ab:
         b4:39:6c:1d:b3:0b:4d:94:ba:85:e3:20:f5:4d:7d:ba:a7:85:
         57:50:71:94:f8:82:b9:fb:c9:6c:93:bf:82:82:e4:04:d6:5b:
         54:14:df:6f:b1:fb:0f:cc
-----BEGIN CERTIFICATE-----
MIIHSDCCBTCgAwIBAgICA8gwDQYJKoZIhvcNAQEFBQAwgbQxCzAJBgNVBAYTAlVT
MQswCQYDVQQIEwJDQTEVMBMGA1UEBxMMU2FuRnJhbmNpc2NvMRUwEwYDVQQKEwxQ
aXhnbG8sIEluYy4xEDAOBgNVBAsTB1ZQTi1DSUUxGjAYBgNVBAMTEXR1bm5lbC5w
aXhnbG8uY29tMRwwGgYDVQQpExNCYWxhIENoYW5kcmFzZWthcmFuMR4wHAYJKoZI
hvcNAQkBFg9iYWxhQHBpeGdsby5jb20wHhcNMTgwMjE0MDY0OTMyWhcNMjgwMjEy
MDY0OTMyWjCBqTELMAkGA1UEBhMCVVMxCzAJBgNVBAgTAkNBMRUwEwYDVQQHEwxT
YW5GcmFuY2lzY28xFTATBgNVBAoTDFBpeGdsbywgSW5jLjEQMA4GA1UECxMHVlBO
LUNJRTEPMA0GA1UEAxMGY2llOTY3MRwwGgYDVQQpExNCYWxhIENoYW5kcmFzZWth
cmFuMR4wHAYJKoZIhvcNAQkBFg9iYWxhQHBpeGdsby5jb20wggIiMA0GCSqGSIb3
DQEBAQUAA4ICDwAwggIKAoICAQC73ToLMlyUS2613OIq2rpB/AB1Xs1DtDUfNhbU
3FPmfYJLpjkd2Tqs/tW3yxeaP8UVLGpcU66+Xp9HSKPoAyDznHO+musZPZNWZQJn
z0pYYYVwF9HvLkX4MCK+PWSf3wxWJqsz08QQejb5bK9+baEoVr2ER72m9zfAHQcs
F1HjG/EeXI7qC4F1eSBzJ+E5qkiWx3cXDtSFKTOgV7uEWBcp7kZhwB/pFchAR9Qz
4c3V6SpvHpLLhkMQ8/4L5BcSxga6nfMaRBxemwUfhLfXBKoobA74G44MatBtN28V
zztrcQx+/hmd/OV4EheayEyMXa9sKXeIKWP++HHee4H6uZrbRjPlDi6duNVwN3ai
FJynyQ6KD1X5xFPgOpbG7beJUEdYQMtkUXBRl8CT7+i+IDITK4zlxMEHh1F16v7w
KpM/rY1VB+bmYSGV1HBM4dahREpGQzBevgt1HOkePh5hqTme4l5uqTZqdr0qVlPG
SuxWFDc9b2D7/g5M+JMVPT64wI+htDDzFf6R9EdMNJrjHTNx5I9NkKr0u+JrrlzR
oUdIe/HXHqWv0E49iqNF7btbHYpmmAMMNsuXgle4I/e5Um1uwvOWN4r/JkKbOOa0
67vFdlWtyxo24ddJ4Ilznu2wQ89Ncg3kJaUrkMHUbswu3uHyRyskYLafupyuu2fw
PUtdGwIDAQABo4IBazCCAWcwCQYDVR0TBAIwADAtBglghkgBhvhCAQ0EIBYeRWFz
eS1SU0EgR2VuZXJhdGVkIENlcnRpZmljYXRlMB0GA1UdDgQWBBRJICwomXC0UrWC
YWLm2msnJjFgwTCB6QYDVR0jBIHhMIHegBTvOI0UUFinW02cF3L837msp1GwEKGB
uqSBtzCBtDELMAkGA1UEBhMCVVMxCzAJBgNVBAgTAkNBMRUwEwYDVQQHEwxTYW5G
cmFuY2lzY28xFTATBgNVBAoTDFBpeGdsbywgSW5jLjEQMA4GA1UECxMHVlBOLUNJ
RTEaMBgGA1UEAxMRdHVubmVsLnBpeGdsby5jb20xHDAaBgNVBCkTE0JhbGEgQ2hh
bmRyYXNla2FyYW4xHjAcBgkqhkiG9w0BCQEWD2JhbGFAcGl4Z2xvLmNvbYIJAKbb
xoOA5qB5MBMGA1UdJQQMMAoGCCsGAQUFBwMCMAsGA1UdDwQEAwIHgDANBgkqhkiG
9w0BAQUFAAOCAgEAr+Bj9u/g4+0KBEeh0rsd2M6RWYyC/etfsU2+x7ERJHgLVVr0
hOXVrDc3Qoj1rFJL4EwVH+y7fmFpQ2rQ6CWgsm8PxUERmUqf3Xhh8lEBySbVCQFr
zQRPLndDvYZldwI0GM7kG7GVTYQyScZyFf1PDTSn1+dsnTb0c/hB0mGxNAhbbllq
tLJ1hP7u9ycbKz8UMVtYe71O143w/7MhMEfI8Mf55goiDwDjtC6b2BnhLwxteCG7
AxhjWnpiuE6KM0ZJtezkoGOueoB1Aar8l29zn1FMlEOv09EmNkQORsfabd4SJ25o
4FQumwjgqc7+19hq83rrK/2EZNN0fuAnJWMqPWZU3lyD35yNsfzM9jFK8w0GYCzf
2XqlRKtose/o4LZ9XvGg8xKsAwiKlQ3TymDVv9RFrp8YA86gFZDW2E68szo3KoOW
WTXbp48jUTcnulgP5pma1XerzoSiTNJI6R5Kf87WSl6a1QFB8o55GhzEYJjOPkQE
FREARNl5igjtE+16yzoi4l+rSbO8MoRMe/9EyjAkLbyEqZcIySt0LnhRbRvDEjF3
HTI6iTntceuU38Y1iomrM8YjwS98U7jbIBETFJDjRZhS5ABJMqNmgA8YkWSVS8Kr
tDlsHbMLTZS6heMg9U19uqeFV1BxlPiCufvJbJO/goLkBNZbVBTfb7H7D8w=
-----END CERTIFICATE-----
