Certificate:
    Data:
        Version: 3 (0x2)
        Serial Number: 970 (0x3ca)
    Signature Algorithm: sha1WithRSAEncryption
        Issuer: C=US, ST=CA, L=SanFrancisco, O=Pixglo, Inc., OU=VPN-CIE, CN=tunnel.pixglo.com/name=Bala Chandrasekaran/emailAddress=bala@pixglo.com
        Validity
            Not Before: Feb 14 06:49:39 2018 GMT
            Not After : Feb 12 06:49:39 2028 GMT
        Subject: C=US, ST=CA, L=SanFrancisco, O=Pixglo, Inc., OU=VPN-CIE, CN=cie969/name=Bala Chandrasekaran/emailAddress=bala@pixglo.com
        Subject Public Key Info:
            Public Key Algorithm: rsaEncryption
                Public-Key: (4096 bit)
                Modulus:
                    00:df:a7:3a:13:4f:83:99:1f:f7:09:9c:79:a6:8d:
                    91:b5:d4:e5:39:e8:ac:6d:01:0f:89:8d:5d:03:85:
                    69:a3:55:6c:8e:5f:01:f5:86:51:af:50:41:ee:b6:
                    e1:b9:07:28:ec:90:4b:49:4f:c1:db:bc:ef:89:0f:
                    50:2e:1e:56:ad:36:8d:87:3c:b2:f5:3a:a0:90:6b:
                    2c:dc:61:c3:d1:1b:55:bf:5a:ce:e1:ba:bc:9b:0d:
                    b7:3a:8d:23:b4:e3:8b:71:c8:47:3a:b0:97:01:0b:
                    a8:0c:6e:c0:33:32:c7:3a:53:11:06:e3:ce:c2:a0:
                    68:08:e5:b4:f3:93:0f:97:dd:63:7b:a7:70:0b:dc:
                    2a:86:65:b7:81:a3:d9:55:88:aa:5e:fb:de:32:9f:
                    bc:23:0f:e9:54:e5:1a:d6:9c:95:80:da:9b:aa:20:
                    0d:d6:24:fd:3a:56:1c:f8:a1:ee:3b:18:87:77:20:
                    24:40:c7:fc:2b:d4:fd:fa:63:8d:d1:24:d2:28:9c:
                    0d:a4:cc:bd:43:da:a0:e6:a9:bf:1a:45:5c:0a:1f:
                    be:d9:31:d1:32:c5:41:95:7a:69:fd:19:29:88:53:
                    57:53:d5:ac:ef:67:ab:30:20:75:e3:14:89:cb:73:
                    56:05:e1:74:27:8b:27:a9:dc:7e:cc:00:ed:e0:dc:
                    7c:1a:c0:02:ca:b5:e0:38:8f:49:cb:69:81:4c:eb:
                    93:7a:5b:71:0c:11:70:59:dc:e4:c3:86:bc:fd:be:
                    36:58:6d:54:91:62:ed:3d:58:a1:b7:ee:67:f9:7a:
                    75:c4:4b:88:2c:85:05:9e:6c:e5:d5:c0:6d:39:8c:
                    cc:7b:45:10:d4:f0:f3:7f:9f:7e:c2:4c:e1:3c:3f:
                    07:bb:96:5a:8e:5e:7d:b1:19:d7:36:32:e5:59:fc:
                    e2:de:68:4f:62:78:4f:5c:a2:d8:46:96:23:76:44:
                    4b:02:e0:39:bb:6f:53:3e:78:b1:45:b9:a9:da:46:
                    fb:a2:9b:9e:eb:d8:2f:fe:ca:cf:fc:17:ca:d3:b2:
                    60:09:22:74:24:15:92:84:54:70:48:78:44:03:33:
                    73:c0:47:16:e2:2c:69:61:7a:67:2e:c2:e0:ba:66:
                    e8:52:46:7b:03:45:26:23:4d:0a:83:8d:96:6a:a2:
                    0d:fa:66:78:81:72:8b:9e:44:c6:4a:0c:99:f5:1b:
                    18:dc:73:d7:b8:dc:ee:a6:87:8b:f9:ef:60:9f:25:
                    e6:2b:00:10:d9:c0:7a:fb:7d:2c:fc:af:61:45:d1:
                    c1:d6:8a:fa:cb:32:3b:3c:44:47:32:e1:f6:ea:ad:
                    e9:1b:1a:16:c1:20:c9:89:44:93:80:a0:2b:e1:1f:
                    49:b7:11
                Exponent: 65537 (0x10001)
        X509v3 extensions:
            X509v3 Basic Constraints: 
                CA:FALSE
            Netscape Comment: 
                Easy-RSA Generated Certificate
            X509v3 Subject Key Identifier: 
                F2:24:2E:3A:74:7C:02:AE:FB:06:C5:CB:F8:E4:E1:E4:18:D8:66:F9
            X509v3 Authority Key Identifier: 
                keyid:EF:38:8D:14:50:58:A7:5B:4D:9C:17:72:FC:DF:B9:AC:A7:51:B0:10
                DirName:/C=US/ST=CA/L=SanFrancisco/O=Pixglo, Inc./OU=VPN-CIE/CN=tunnel.pixglo.com/name=Bala Chandrasekaran/emailAddress=bala@pixglo.com
                serial:A6:DB:C6:83:80:E6:A0:79

            X509v3 Extended Key Usage: 
                TLS Web Client Authentication
            X509v3 Key Usage: 
                Digital Signature
    Signature Algorithm: sha1WithRSAEncryption
         e3:62:5e:3a:59:a7:66:e7:b8:ea:8b:01:03:99:4a:ba:e7:62:
         ea:da:d9:c1:72:16:e0:b4:b5:b7:8b:87:f9:1a:01:a7:99:f3:
         e4:1c:e7:28:45:e2:90:86:0b:c7:09:47:d1:78:14:8e:b5:fd:
         be:f7:16:62:7f:95:c9:8b:b0:3a:a5:ed:d1:68:f6:c4:15:9d:
         8e:b9:9c:27:4d:08:3e:6a:16:a0:0a:ad:95:d5:bf:07:cc:06:
         18:5c:ad:a3:a4:b6:bb:f2:2a:b1:79:fd:93:86:0b:6c:a3:6c:
         19:4a:a3:06:24:a2:3b:a0:19:b2:c3:4c:85:d7:1f:2d:a8:fe:
         d5:a9:62:22:a7:f5:ae:bb:12:ae:8e:f1:3c:2b:2e:d2:17:ae:
         62:5d:ad:f1:e9:8c:a6:d1:8e:59:27:d3:a4:1a:cd:cf:f2:b1:
         5e:24:5e:80:ab:c6:07:fb:fd:dc:02:6e:5c:3c:11:45:67:7e:
         71:d7:f3:7f:e6:55:1a:b6:94:57:d0:89:36:ab:cb:68:8d:5c:
         84:b0:81:fe:4c:e5:b9:44:92:e2:eb:7b:d2:6a:58:96:2a:f9:
         4e:fe:27:a0:13:64:06:2e:4d:c6:ed:1e:0c:2b:cd:89:3b:21:
         04:60:99:0a:89:4c:a9:6c:81:69:a9:cd:66:fe:6b:11:8a:b0:
         3f:5d:63:25:ef:1d:1b:29:e9:69:c7:2a:92:9a:f0:da:1d:a7:
         e0:1f:79:25:4f:ba:33:a5:ac:22:e9:9e:27:e4:63:f6:f2:ee:
         b3:3d:28:a0:20:37:03:bd:14:9b:06:f9:bb:7c:8f:60:1c:da:
         52:7a:1c:c4:17:ba:58:78:67:42:d6:86:a6:75:40:83:8f:86:
         98:29:1f:39:e0:6d:5a:8b:90:70:32:15:4c:0c:57:c4:62:98:
         75:7f:c2:aa:55:f9:6e:22:5d:a2:3b:b1:51:9b:64:1b:71:25:
         23:69:f1:31:e2:89:a4:6a:3c:6e:60:2c:76:10:9f:2a:e4:60:
         af:77:93:e0:1a:73:a3:34:b5:e0:ab:5a:1c:70:e9:8a:53:f5:
         b7:5e:a6:f4:71:4f:10:19:66:1b:eb:0d:70:ca:f8:c2:ef:5d:
         3b:97:dd:08:06:c6:4d:fe:89:ff:af:f3:71:9c:50:fd:1f:26:
         af:d7:e9:31:5f:b1:be:ee:44:a8:09:52:ca:43:c9:60:bd:55:
         04:44:16:90:07:18:c6:3a:af:91:56:fd:3c:73:23:eb:93:58:
         fc:49:ed:87:45:93:4d:e3:1d:30:b0:3f:2a:12:8e:96:4d:ae:
         02:72:69:8f:09:26:ad:94:72:18:17:00:2e:7a:f2:f2:04:82:
         3c:36:36:05:59:53:cf:ec
-----BEGIN CERTIFICATE-----
MIIHSDCCBTCgAwIBAgICA8owDQYJKoZIhvcNAQEFBQAwgbQxCzAJBgNVBAYTAlVT
MQswCQYDVQQIEwJDQTEVMBMGA1UEBxMMU2FuRnJhbmNpc2NvMRUwEwYDVQQKEwxQ
aXhnbG8sIEluYy4xEDAOBgNVBAsTB1ZQTi1DSUUxGjAYBgNVBAMTEXR1bm5lbC5w
aXhnbG8uY29tMRwwGgYDVQQpExNCYWxhIENoYW5kcmFzZWthcmFuMR4wHAYJKoZI
hvcNAQkBFg9iYWxhQHBpeGdsby5jb20wHhcNMTgwMjE0MDY0OTM5WhcNMjgwMjEy
MDY0OTM5WjCBqTELMAkGA1UEBhMCVVMxCzAJBgNVBAgTAkNBMRUwEwYDVQQHEwxT
YW5GcmFuY2lzY28xFTATBgNVBAoTDFBpeGdsbywgSW5jLjEQMA4GA1UECxMHVlBO
LUNJRTEPMA0GA1UEAxMGY2llOTY5MRwwGgYDVQQpExNCYWxhIENoYW5kcmFzZWth
cmFuMR4wHAYJKoZIhvcNAQkBFg9iYWxhQHBpeGdsby5jb20wggIiMA0GCSqGSIb3
DQEBAQUAA4ICDwAwggIKAoICAQDfpzoTT4OZH/cJnHmmjZG11OU56KxtAQ+JjV0D
hWmjVWyOXwH1hlGvUEHutuG5ByjskEtJT8HbvO+JD1AuHlatNo2HPLL1OqCQayzc
YcPRG1W/Ws7hurybDbc6jSO044txyEc6sJcBC6gMbsAzMsc6UxEG487CoGgI5bTz
kw+X3WN7p3AL3CqGZbeBo9lViKpe+94yn7wjD+lU5RrWnJWA2puqIA3WJP06Vhz4
oe47GId3ICRAx/wr1P36Y43RJNIonA2kzL1D2qDmqb8aRVwKH77ZMdEyxUGVemn9
GSmIU1dT1azvZ6swIHXjFInLc1YF4XQniyep3H7MAO3g3HwawALKteA4j0nLaYFM
65N6W3EMEXBZ3OTDhrz9vjZYbVSRYu09WKG37mf5enXES4gshQWebOXVwG05jMx7
RRDU8PN/n37CTOE8Pwe7llqOXn2xGdc2MuVZ/OLeaE9ieE9cothGliN2REsC4Dm7
b1M+eLFFuanaRvuim57r2C/+ys/8F8rTsmAJInQkFZKEVHBIeEQDM3PARxbiLGlh
emcuwuC6ZuhSRnsDRSYjTQqDjZZqog36ZniBcoueRMZKDJn1Gxjcc9e43O6mh4v5
72CfJeYrABDZwHr7fSz8r2FF0cHWivrLMjs8REcy4fbqrekbGhbBIMmJRJOAoCvh
H0m3EQIDAQABo4IBazCCAWcwCQYDVR0TBAIwADAtBglghkgBhvhCAQ0EIBYeRWFz
eS1SU0EgR2VuZXJhdGVkIENlcnRpZmljYXRlMB0GA1UdDgQWBBTyJC46dHwCrvsG
xcv45OHkGNhm+TCB6QYDVR0jBIHhMIHegBTvOI0UUFinW02cF3L837msp1GwEKGB
uqSBtzCBtDELMAkGA1UEBhMCVVMxCzAJBgNVBAgTAkNBMRUwEwYDVQQHEwxTYW5G
cmFuY2lzY28xFTATBgNVBAoTDFBpeGdsbywgSW5jLjEQMA4GA1UECxMHVlBOLUNJ
RTEaMBgGA1UEAxMRdHVubmVsLnBpeGdsby5jb20xHDAaBgNVBCkTE0JhbGEgQ2hh
bmRyYXNla2FyYW4xHjAcBgkqhkiG9w0BCQEWD2JhbGFAcGl4Z2xvLmNvbYIJAKbb
xoOA5qB5MBMGA1UdJQQMMAoGCCsGAQUFBwMCMAsGA1UdDwQEAwIHgDANBgkqhkiG
9w0BAQUFAAOCAgEA42JeOlmnZue46osBA5lKuudi6trZwXIW4LS1t4uH+RoBp5nz
5BznKEXikIYLxwlH0XgUjrX9vvcWYn+VyYuwOqXt0Wj2xBWdjrmcJ00IPmoWoAqt
ldW/B8wGGFyto6S2u/IqsXn9k4YLbKNsGUqjBiSiO6AZssNMhdcfLaj+1aliIqf1
rrsSro7xPCsu0heuYl2t8emMptGOWSfTpBrNz/KxXiRegKvGB/v93AJuXDwRRWd+
cdfzf+ZVGraUV9CJNqvLaI1chLCB/kzluUSS4ut70mpYlir5Tv4noBNkBi5Nxu0e
DCvNiTshBGCZColMqWyBaanNZv5rEYqwP11jJe8dGynpaccqkprw2h2n4B95JU+6
M6WsIumeJ+Rj9vLusz0ooCA3A70Umwb5u3yPYBzaUnocxBe6WHhnQtaGpnVAg4+G
mCkfOeBtWouQcDIVTAxXxGKYdX/CqlX5biJdojuxUZtkG3ElI2nxMeKJpGo8bmAs
dhCfKuRgr3eT4BpzozS14KtaHHDpilP1t16m9HFPEBlmG+sNcMr4wu9dO5fdCAbG
Tf6J/6/zcZxQ/R8mr9fpMV+xvu5EqAlSykPJYL1VBEQWkAcYxjqvkVb9PHMj65NY
/Enth0WTTeMdMLA/KhKOlk2uAnJpjwkmrZRyGBcALnry8gSCPDY2BVlTz+w=
-----END CERTIFICATE-----
