Certificate:
    Data:
        Version: 3 (0x2)
        Serial Number: 971 (0x3cb)
    Signature Algorithm: sha1WithRSAEncryption
        Issuer: C=US, ST=CA, L=SanFrancisco, O=Pixglo, Inc., OU=VPN-CIE, CN=tunnel.pixglo.com/name=Bala Chandrasekaran/emailAddress=bala@pixglo.com
        Validity
            Not Before: Feb 14 06:49:40 2018 GMT
            Not After : Feb 12 06:49:40 2028 GMT
        Subject: C=US, ST=CA, L=SanFrancisco, O=Pixglo, Inc., OU=VPN-CIE, CN=cie970/name=Bala Chandrasekaran/emailAddress=bala@pixglo.com
        Subject Public Key Info:
            Public Key Algorithm: rsaEncryption
                Public-Key: (4096 bit)
                Modulus:
                    00:c9:21:d6:ac:5f:a1:a0:3c:a2:ec:45:af:42:c6:
                    53:dd:52:04:33:80:c2:f4:c2:ce:d9:96:db:e3:8f:
                    85:cb:35:e5:d1:9d:b0:4f:e5:92:9d:06:7c:9e:df:
                    05:34:b6:ee:d0:08:66:1f:39:3d:31:48:ec:4c:f1:
                    97:52:a7:a9:4e:9b:15:41:6c:3c:eb:8f:55:d5:42:
                    7e:64:e4:53:91:47:c9:16:97:52:e7:62:f3:f5:e0:
                    fa:64:5b:b5:85:63:a5:d9:42:38:01:a9:a6:ed:62:
                    08:1b:f6:c0:23:43:72:24:d5:2a:f3:c0:ad:2a:9a:
                    06:dc:f5:0a:6b:14:d4:78:93:15:ef:d8:a5:f7:f7:
                    66:ac:78:61:cd:ba:f3:2f:10:3d:5f:b8:3f:7c:80:
                    8e:45:02:f9:9c:5a:4f:ff:24:82:c0:12:82:27:74:
                    97:b9:9f:8f:b2:38:be:fe:89:53:44:48:1a:c2:ac:
                    c0:60:57:71:23:9e:21:9d:48:5d:cf:b0:e1:22:15:
                    9b:ce:2e:7b:a9:44:e2:d1:b0:6b:ad:d1:9e:fc:64:
                    78:ad:c9:7d:22:6a:f4:77:1c:60:45:ab:68:d9:0f:
                    a1:2f:2e:65:83:09:35:c1:20:16:1e:37:1f:fd:b3:
                    6c:ac:15:74:55:f6:9b:45:7c:55:36:54:a9:4d:e1:
                    bd:26:ec:82:fb:27:a4:55:39:20:22:41:ec:a7:3e:
                    a1:87:a2:79:9d:3c:c2:4b:15:e9:9b:7c:0e:95:17:
                    23:87:3b:ce:40:c7:e8:36:e7:be:28:bb:9f:79:03:
                    c4:a9:90:88:15:c3:04:de:6f:b5:c1:a4:2a:fb:52:
                    ee:12:2b:8d:bc:49:c4:56:49:78:57:b5:fc:a1:75:
                    98:ab:e1:e2:05:6b:a2:35:2c:cc:3e:7f:43:3f:15:
                    54:7d:02:10:60:9b:4b:9d:38:d3:a8:64:be:b8:fd:
                    bb:f7:e9:e7:07:c0:5f:23:9b:48:d1:02:10:f5:1a:
                    84:27:1b:12:89:b8:c3:3b:53:f5:8a:29:6b:46:60:
                    6d:d6:e2:c4:a7:2b:e6:36:10:2c:22:d3:83:4a:8a:
                    00:b5:1b:de:80:84:e7:39:29:37:df:9a:14:a6:6d:
                    af:01:d6:d8:a4:38:18:ff:33:78:44:ec:7a:ea:a1:
                    bf:77:e3:fb:87:c3:e3:49:22:9d:ed:e8:ed:f3:77:
                    b0:19:99:db:65:fe:61:f7:56:00:f4:f6:33:f2:7a:
                    8c:67:47:3b:3d:03:c1:34:2c:e5:fc:75:16:2d:e0:
                    09:1e:3b:49:78:9f:d9:fa:a3:c4:3d:56:05:d8:80:
                    16:fc:74:cc:01:35:19:29:33:91:a3:20:8c:e9:ce:
                    8b:85:c3
                Exponent: 65537 (0x10001)
        X509v3 extensions:
            X509v3 Basic Constraints: 
                CA:FALSE
            Netscape Comment: 
                Easy-RSA Generated Certificate
            X509v3 Subject Key Identifier: 
                BF:28:14:5F:CB:20:FA:A6:70:6C:C0:E5:F6:D6:F9:F3:4C:68:4E:22
            X509v3 Authority Key Identifier: 
                keyid:EF:38:8D:14:50:58:A7:5B:4D:9C:17:72:FC:DF:B9:AC:A7:51:B0:10
                DirName:/C=US/ST=CA/L=SanFrancisco/O=Pixglo, Inc./OU=VPN-CIE/CN=tunnel.pixglo.com/name=Bala Chandrasekaran/emailAddress=bala@pixglo.com
                serial:A6:DB:C6:83:80:E6:A0:79

            X509v3 Extended Key Usage: 
                TLS Web Client Authentication
            X509v3 Key Usage: 
                Digital Signature
    Signature Algorithm: sha1WithRSAEncryption
         14:f3:de:a6:a5:e4:89:27:f3:d4:92:92:d3:0c:a3:27:64:89:
         0a:6e:77:b0:a3:db:31:b3:67:bc:d1:d4:25:f9:7b:05:c0:30:
         3a:5a:c1:9f:17:62:23:82:e0:9b:37:b9:e2:dc:ce:7e:04:d2:
         e1:74:ac:c6:0c:29:2d:4c:c2:9e:1d:f9:5e:c2:3b:6c:b3:85:
         70:bc:00:3f:5a:b3:62:95:43:7b:45:de:3b:56:78:98:89:f9:
         13:af:08:9a:a8:19:bb:1a:70:62:99:8b:b3:3e:30:07:68:d6:
         71:9e:3e:6c:e4:b8:60:7d:80:23:60:29:0a:67:dd:f6:9b:13:
         f6:95:3b:4c:d3:eb:b1:c1:cd:67:85:ca:fd:d9:84:3f:d5:38:
         1c:90:f7:8e:31:73:2b:ec:2a:47:36:1d:c2:23:ac:5e:39:07:
         c7:d1:dd:54:34:19:01:e3:ef:80:c0:b0:10:85:44:03:12:c2:
         dd:60:76:54:53:23:42:c0:42:f8:60:ec:8f:82:3d:8c:14:d6:
         c7:f9:b7:5d:c0:79:41:a4:a7:49:84:64:80:60:78:97:50:93:
         eb:96:c0:85:60:48:d3:ad:d6:39:df:9c:17:8c:e9:57:e1:4f:
         6c:46:69:89:55:5a:2d:35:03:2c:f0:a2:67:83:68:67:24:95:
         94:18:6c:f9:dc:5c:90:03:ef:68:74:db:34:69:08:90:6b:aa:
         85:2e:a1:b1:7f:5e:ae:33:33:79:23:27:b5:bc:0a:b3:02:94:
         a0:b0:97:70:f0:01:18:50:97:d6:b4:04:33:14:e5:01:41:6f:
         0b:c7:c9:86:e7:72:46:08:5b:02:74:6b:c5:bd:36:4e:74:17:
         e7:c8:be:b6:a4:31:78:d4:f9:5b:4d:f2:65:53:53:0b:8c:2d:
         11:4f:ee:d4:dc:0f:ad:b5:2d:3b:c3:7b:14:92:96:97:83:06:
         1a:b7:2a:2e:6a:c5:d7:e6:32:68:3c:c5:f6:5b:10:d5:57:0f:
         10:e4:a2:cb:fe:99:6c:02:62:76:bc:69:13:3e:b2:aa:7e:8c:
         11:42:a7:25:fe:21:75:ac:fa:ff:77:a9:2e:43:de:1d:72:48:
         ae:b4:e9:7f:23:87:54:d4:f9:ce:f4:bd:e3:64:ca:5d:0e:1c:
         44:22:ab:24:ca:eb:43:da:3f:25:e2:4c:c1:88:6c:3a:df:14:
         ba:80:32:1b:7a:68:40:5a:a0:58:fc:81:c5:5e:32:d9:e2:14:
         ee:e1:e0:83:ef:3a:14:59:7a:55:dc:56:c6:d0:73:fa:cb:1a:
         de:de:d6:8d:58:3c:7a:f0:0b:de:1a:62:d0:18:da:8e:33:6b:
         7b:bc:af:bc:2c:41:92:58
-----BEGIN CERTIFICATE-----
MIIHSDCCBTCgAwIBAgICA8swDQYJKoZIhvcNAQEFBQAwgbQxCzAJBgNVBAYTAlVT
MQswCQYDVQQIEwJDQTEVMBMGA1UEBxMMU2FuRnJhbmNpc2NvMRUwEwYDVQQKEwxQ
aXhnbG8sIEluYy4xEDAOBgNVBAsTB1ZQTi1DSUUxGjAYBgNVBAMTEXR1bm5lbC5w
aXhnbG8uY29tMRwwGgYDVQQpExNCYWxhIENoYW5kcmFzZWthcmFuMR4wHAYJKoZI
hvcNAQkBFg9iYWxhQHBpeGdsby5jb20wHhcNMTgwMjE0MDY0OTQwWhcNMjgwMjEy
MDY0OTQwWjCBqTELMAkGA1UEBhMCVVMxCzAJBgNVBAgTAkNBMRUwEwYDVQQHEwxT
YW5GcmFuY2lzY28xFTATBgNVBAoTDFBpeGdsbywgSW5jLjEQMA4GA1UECxMHVlBO
LUNJRTEPMA0GA1UEAxMGY2llOTcwMRwwGgYDVQQpExNCYWxhIENoYW5kcmFzZWth
cmFuMR4wHAYJKoZIhvcNAQkBFg9iYWxhQHBpeGdsby5jb20wggIiMA0GCSqGSIb3
DQEBAQUAA4ICDwAwggIKAoICAQDJIdasX6GgPKLsRa9CxlPdUgQzgML0ws7Zltvj
j4XLNeXRnbBP5ZKdBnye3wU0tu7QCGYfOT0xSOxM8ZdSp6lOmxVBbDzrj1XVQn5k
5FORR8kWl1LnYvP14PpkW7WFY6XZQjgBqabtYggb9sAjQ3Ik1SrzwK0qmgbc9Qpr
FNR4kxXv2KX392aseGHNuvMvED1fuD98gI5FAvmcWk//JILAEoIndJe5n4+yOL7+
iVNESBrCrMBgV3EjniGdSF3PsOEiFZvOLnupROLRsGut0Z78ZHityX0iavR3HGBF
q2jZD6EvLmWDCTXBIBYeNx/9s2ysFXRV9ptFfFU2VKlN4b0m7IL7J6RVOSAiQeyn
PqGHonmdPMJLFembfA6VFyOHO85Ax+g2574ou595A8SpkIgVwwTeb7XBpCr7Uu4S
K428ScRWSXhXtfyhdZir4eIFa6I1LMw+f0M/FVR9AhBgm0udONOoZL64/bv36ecH
wF8jm0jRAhD1GoQnGxKJuMM7U/WKKWtGYG3W4sSnK+Y2ECwi04NKigC1G96AhOc5
KTffmhSmba8B1tikOBj/M3hE7Hrqob934/uHw+NJIp3t6O3zd7AZmdtl/mH3VgD0
9jPyeoxnRzs9A8E0LOX8dRYt4AkeO0l4n9n6o8Q9VgXYgBb8dMwBNRkpM5GjIIzp
zouFwwIDAQABo4IBazCCAWcwCQYDVR0TBAIwADAtBglghkgBhvhCAQ0EIBYeRWFz
eS1SU0EgR2VuZXJhdGVkIENlcnRpZmljYXRlMB0GA1UdDgQWBBS/KBRfyyD6pnBs
wOX21vnzTGhOIjCB6QYDVR0jBIHhMIHegBTvOI0UUFinW02cF3L837msp1GwEKGB
uqSBtzCBtDELMAkGA1UEBhMCVVMxCzAJBgNVBAgTAkNBMRUwEwYDVQQHEwxTYW5G
cmFuY2lzY28xFTATBgNVBAoTDFBpeGdsbywgSW5jLjEQMA4GA1UECxMHVlBOLUNJ
RTEaMBgGA1UEAxMRdHVubmVsLnBpeGdsby5jb20xHDAaBgNVBCkTE0JhbGEgQ2hh
bmRyYXNla2FyYW4xHjAcBgkqhkiG9w0BCQEWD2JhbGFAcGl4Z2xvLmNvbYIJAKbb
xoOA5qB5MBMGA1UdJQQMMAoGCCsGAQUFBwMCMAsGA1UdDwQEAwIHgDANBgkqhkiG
9w0BAQUFAAOCAgEAFPPepqXkiSfz1JKS0wyjJ2SJCm53sKPbMbNnvNHUJfl7BcAw
OlrBnxdiI4Lgmze54tzOfgTS4XSsxgwpLUzCnh35XsI7bLOFcLwAP1qzYpVDe0Xe
O1Z4mIn5E68ImqgZuxpwYpmLsz4wB2jWcZ4+bOS4YH2AI2ApCmfd9psT9pU7TNPr
scHNZ4XK/dmEP9U4HJD3jjFzK+wqRzYdwiOsXjkHx9HdVDQZAePvgMCwEIVEAxLC
3WB2VFMjQsBC+GDsj4I9jBTWx/m3XcB5QaSnSYRkgGB4l1CT65bAhWBI063WOd+c
F4zpV+FPbEZpiVVaLTUDLPCiZ4NoZySVlBhs+dxckAPvaHTbNGkIkGuqhS6hsX9e
rjMzeSMntbwKswKUoLCXcPABGFCX1rQEMxTlAUFvC8fJhudyRghbAnRrxb02TnQX
58i+tqQxeNT5W03yZVNTC4wtEU/u1NwPrbUtO8N7FJKWl4MGGrcqLmrF1+YyaDzF
9lsQ1VcPEOSiy/6ZbAJidrxpEz6yqn6MEUKnJf4hdaz6/3epLkPeHXJIrrTpfyOH
VNT5zvS942TKXQ4cRCKrJMrrQ9o/JeJMwYhsOt8UuoAyG3poQFqgWPyBxV4y2eIU
7uHgg+86FFl6VdxWxtBz+ssa3t7WjVg8evAL3hpi0BjajjNre7yvvCxBklg=
-----END CERTIFICATE-----
