Certificate:
    Data:
        Version: 3 (0x2)
        Serial Number: 973 (0x3cd)
    Signature Algorithm: sha1WithRSAEncryption
        Issuer: C=US, ST=CA, L=SanFrancisco, O=Pixglo, Inc., OU=VPN-CIE, CN=tunnel.pixglo.com/name=Bala Chandrasekaran/emailAddress=bala@pixglo.com
        Validity
            Not Before: Feb 14 06:49:43 2018 GMT
            Not After : Feb 12 06:49:43 2028 GMT
        Subject: C=US, ST=CA, L=SanFrancisco, O=Pixglo, Inc., OU=VPN-CIE, CN=cie972/name=Bala Chandrasekaran/emailAddress=bala@pixglo.com
        Subject Public Key Info:
            Public Key Algorithm: rsaEncryption
                Public-Key: (4096 bit)
                Modulus:
                    00:f0:5c:11:55:7b:f6:8d:6f:af:2b:30:49:fe:90:
                    f2:c7:8e:89:67:0c:30:18:dc:87:56:d5:e7:a6:f1:
                    ff:92:4a:30:70:bb:04:26:02:6c:50:21:34:8a:31:
                    5e:ff:d2:61:9d:1c:6b:7e:79:a5:3a:c7:63:71:b7:
                    6a:fd:ac:93:d5:7c:a5:0c:8d:60:2a:1c:e8:5f:c5:
                    e4:00:27:86:02:73:e5:d4:23:08:9c:d5:8e:13:e7:
                    6d:56:2e:5d:2e:14:05:00:5f:8e:18:9a:4b:e3:5c:
                    a4:08:3c:09:93:d9:41:a9:2a:f0:32:4b:65:1e:a5:
                    34:c3:c2:4b:46:bf:92:79:5e:a6:d6:d9:3a:af:b8:
                    3c:2a:a3:2b:d3:99:0e:56:81:d3:47:e1:f7:36:60:
                    dc:a2:d2:ba:b3:fe:95:cf:18:5e:cb:c9:83:7c:ea:
                    d2:e3:a1:fc:4c:20:a0:e0:6b:2d:d2:88:6f:71:1f:
                    4d:57:27:fc:8f:6b:83:09:b3:66:e4:ad:6e:c3:b0:
                    3e:bd:17:b5:6c:fc:84:68:f3:18:d9:9e:4e:c1:fa:
                    e4:df:ef:d3:c9:ef:45:0d:ca:8a:7e:4d:84:cb:a2:
                    37:84:1b:e4:f8:18:e8:e0:0d:40:1e:3b:7b:b3:2b:
                    bd:45:6d:f7:08:5f:ca:29:30:40:55:81:41:67:d3:
                    8e:9d:5b:78:1a:81:12:a1:5b:20:88:a4:f3:9e:50:
                    6a:cf:b4:d2:f1:3a:5e:9f:ce:4a:1d:5f:60:2b:44:
                    4e:21:75:2c:16:5f:e1:cb:6a:6f:4c:c9:5b:af:37:
                    9c:22:44:26:a8:15:a3:db:f6:8e:3b:39:54:fc:cc:
                    a0:71:00:c0:5a:b0:dd:62:12:f2:49:5c:81:4f:d0:
                    e7:bd:de:bb:d4:68:35:84:83:57:78:fc:15:20:89:
                    bf:eb:d4:7d:3d:55:d8:3f:47:5a:76:2f:4a:b8:1b:
                    99:bc:3f:ee:a0:cb:de:95:ad:86:a2:d7:92:03:8a:
                    a9:f1:45:02:fc:03:90:b2:6e:d6:5e:0a:96:78:ad:
                    e1:50:e4:6c:ca:46:68:bd:91:fa:3e:ae:7d:28:78:
                    48:31:32:80:bb:eb:3a:b9:a8:af:a5:a7:b4:1d:b2:
                    f7:cf:28:55:cb:aa:bf:1a:34:85:ed:38:dc:f3:8a:
                    6b:df:c4:f4:52:f8:1f:8e:f4:67:9c:28:df:01:77:
                    bd:26:a3:18:fd:49:9a:4d:c9:2d:57:7a:9d:3a:b9:
                    6f:25:76:ce:19:3d:32:63:54:36:e9:3a:d3:c6:46:
                    af:55:05:16:ab:8c:03:bd:04:b2:d6:8b:f9:75:be:
                    2c:5a:54:e2:73:49:4a:1c:7d:a2:8a:e2:32:d2:71:
                    44:c5:33
                Exponent: 65537 (0x10001)
        X509v3 extensions:
            X509v3 Basic Constraints: 
                CA:FALSE
            Netscape Comment: 
                Easy-RSA Generated Certificate
            X509v3 Subject Key Identifier: 
                1A:8E:F4:A3:0F:6C:3E:56:62:A8:45:09:F9:1A:69:B3:FD:C4:C8:A7
            X509v3 Authority Key Identifier: 
                keyid:EF:38:8D:14:50:58:A7:5B:4D:9C:17:72:FC:DF:B9:AC:A7:51:B0:10
                DirName:/C=US/ST=CA/L=SanFrancisco/O=Pixglo, Inc./OU=VPN-CIE/CN=tunnel.pixglo.com/name=Bala Chandrasekaran/emailAddress=bala@pixglo.com
                serial:A6:DB:C6:83:80:E6:A0:79

            X509v3 Extended Key Usage: 
                TLS Web Client Authentication
            X509v3 Key Usage: 
                Digital Signature
    Signature Algorithm: sha1WithRSAEncryption
         e4:72:bc:9c:25:c8:01:ec:b1:8a:08:dc:06:e2:71:b2:84:86:
         b8:fa:ce:6d:32:1b:46:ed:15:15:36:36:9a:e2:58:56:d1:ce:
         55:91:1f:ed:7a:c5:3c:74:ba:56:78:15:5f:d7:c7:f4:04:4f:
         af:c1:91:f5:53:43:2a:c4:0e:8f:ca:26:df:b5:21:4d:77:9a:
         dd:4e:12:4f:94:f2:09:f7:55:d8:2a:91:fd:2d:60:01:6e:10:
         bd:87:d0:b4:f9:9f:ab:05:b0:18:eb:13:8b:03:97:d5:51:51:
         07:8b:a8:08:89:81:13:01:13:c0:75:58:26:0f:db:73:d3:38:
         43:4a:e6:f6:23:44:35:dd:5e:54:3c:ba:f5:7d:d1:58:b7:8d:
         10:17:86:95:59:d6:9c:9b:d1:50:f4:37:64:6c:db:d9:22:b1:
         9d:f4:c3:fd:9e:09:c7:58:d1:62:c9:ee:52:bc:1a:ff:c5:a6:
         da:ac:d4:25:c4:66:cf:79:94:79:2a:cd:2c:68:4c:4f:2e:0c:
         25:3e:77:32:03:d9:37:58:c7:a1:c1:c2:2e:98:b9:db:e9:de:
         43:52:48:53:31:3e:69:f5:06:5c:a9:bb:46:a6:5e:73:54:71:
         47:ab:53:c3:5c:80:30:4e:d7:b1:05:7b:cf:f5:6b:92:53:7d:
         f3:02:95:d8:e4:fa:48:0d:9f:6c:e6:f6:a1:9b:9c:77:48:ce:
         be:0b:0e:b4:43:5e:5a:5e:ba:07:82:79:d3:c4:1d:41:90:39:
         15:05:1b:68:4f:c7:c0:91:b0:f0:86:c8:e9:44:7c:ee:91:a5:
         0e:94:46:1a:75:c7:52:5a:48:a8:19:2d:3d:84:82:7b:0c:aa:
         c6:3c:ae:40:df:b6:1d:bc:69:1d:11:48:f6:f0:e9:cd:69:47:
         b3:30:c9:a4:e1:fb:9b:5a:0f:32:02:28:de:63:cf:1e:3b:68:
         2a:45:45:0b:f1:c2:e2:01:f8:96:0d:26:42:7c:bb:56:77:f9:
         45:37:b8:1f:40:bd:b8:db:e0:ac:05:b4:ff:39:e0:e9:7f:59:
         56:09:37:93:1f:57:48:d7:5b:57:9d:4e:15:fc:92:ea:81:c5:
         97:b0:fa:11:71:e5:a0:2a:55:bb:54:38:50:69:08:d6:f5:e9:
         f7:bd:39:cd:af:46:b3:24:86:c9:ad:e2:a0:25:26:7a:c2:e0:
         d2:9f:ee:a4:83:80:d3:b7:ab:e1:8a:62:50:63:b2:52:24:e1:
         38:12:28:cc:ff:89:e9:5b:41:58:a8:61:88:79:0d:32:5a:71:
         cf:99:0a:f3:f2:a9:07:85:91:fb:86:ea:70:d4:bd:5f:fc:35:
         0d:c5:14:43:6d:31:6d:fc
-----BEGIN CERTIFICATE-----
MIIHSDCCBTCgAwIBAgICA80wDQYJKoZIhvcNAQEFBQAwgbQxCzAJBgNVBAYTAlVT
MQswCQYDVQQIEwJDQTEVMBMGA1UEBxMMU2FuRnJhbmNpc2NvMRUwEwYDVQQKEwxQ
aXhnbG8sIEluYy4xEDAOBgNVBAsTB1ZQTi1DSUUxGjAYBgNVBAMTEXR1bm5lbC5w
aXhnbG8uY29tMRwwGgYDVQQpExNCYWxhIENoYW5kcmFzZWthcmFuMR4wHAYJKoZI
hvcNAQkBFg9iYWxhQHBpeGdsby5jb20wHhcNMTgwMjE0MDY0OTQzWhcNMjgwMjEy
MDY0OTQzWjCBqTELMAkGA1UEBhMCVVMxCzAJBgNVBAgTAkNBMRUwEwYDVQQHEwxT
YW5GcmFuY2lzY28xFTATBgNVBAoTDFBpeGdsbywgSW5jLjEQMA4GA1UECxMHVlBO
LUNJRTEPMA0GA1UEAxMGY2llOTcyMRwwGgYDVQQpExNCYWxhIENoYW5kcmFzZWth
cmFuMR4wHAYJKoZIhvcNAQkBFg9iYWxhQHBpeGdsby5jb20wggIiMA0GCSqGSIb3
DQEBAQUAA4ICDwAwggIKAoICAQDwXBFVe/aNb68rMEn+kPLHjolnDDAY3IdW1eem
8f+SSjBwuwQmAmxQITSKMV7/0mGdHGt+eaU6x2Nxt2r9rJPVfKUMjWAqHOhfxeQA
J4YCc+XUIwic1Y4T521WLl0uFAUAX44YmkvjXKQIPAmT2UGpKvAyS2UepTTDwktG
v5J5XqbW2TqvuDwqoyvTmQ5WgdNH4fc2YNyi0rqz/pXPGF7LyYN86tLjofxMIKDg
ay3SiG9xH01XJ/yPa4MJs2bkrW7DsD69F7Vs/IRo8xjZnk7B+uTf79PJ70UNyop+
TYTLojeEG+T4GOjgDUAeO3uzK71FbfcIX8opMEBVgUFn046dW3gagRKhWyCIpPOe
UGrPtNLxOl6fzkodX2ArRE4hdSwWX+HLam9MyVuvN5wiRCaoFaPb9o47OVT8zKBx
AMBasN1iEvJJXIFP0Oe93rvUaDWEg1d4/BUgib/r1H09Vdg/R1p2L0q4G5m8P+6g
y96VrYai15IDiqnxRQL8A5CybtZeCpZ4reFQ5GzKRmi9kfo+rn0oeEgxMoC76zq5
qK+lp7QdsvfPKFXLqr8aNIXtONzzimvfxPRS+B+O9GecKN8Bd70moxj9SZpNyS1X
ep06uW8lds4ZPTJjVDbpOtPGRq9VBRarjAO9BLLWi/l1vixaVOJzSUocfaKK4jLS
cUTFMwIDAQABo4IBazCCAWcwCQYDVR0TBAIwADAtBglghkgBhvhCAQ0EIBYeRWFz
eS1SU0EgR2VuZXJhdGVkIENlcnRpZmljYXRlMB0GA1UdDgQWBBQajvSjD2w+VmKo
RQn5Gmmz/cTIpzCB6QYDVR0jBIHhMIHegBTvOI0UUFinW02cF3L837msp1GwEKGB
uqSBtzCBtDELMAkGA1UEBhMCVVMxCzAJBgNVBAgTAkNBMRUwEwYDVQQHEwxTYW5G
cmFuY2lzY28xFTATBgNVBAoTDFBpeGdsbywgSW5jLjEQMA4GA1UECxMHVlBOLUNJ
RTEaMBgGA1UEAxMRdHVubmVsLnBpeGdsby5jb20xHDAaBgNVBCkTE0JhbGEgQ2hh
bmRyYXNla2FyYW4xHjAcBgkqhkiG9w0BCQEWD2JhbGFAcGl4Z2xvLmNvbYIJAKbb
xoOA5qB5MBMGA1UdJQQMMAoGCCsGAQUFBwMCMAsGA1UdDwQEAwIHgDANBgkqhkiG
9w0BAQUFAAOCAgEA5HK8nCXIAeyxigjcBuJxsoSGuPrObTIbRu0VFTY2muJYVtHO
VZEf7XrFPHS6VngVX9fH9ARPr8GR9VNDKsQOj8om37UhTXea3U4ST5TyCfdV2CqR
/S1gAW4QvYfQtPmfqwWwGOsTiwOX1VFRB4uoCImBEwETwHVYJg/bc9M4Q0rm9iNE
Nd1eVDy69X3RWLeNEBeGlVnWnJvRUPQ3ZGzb2SKxnfTD/Z4Jx1jRYsnuUrwa/8Wm
2qzUJcRmz3mUeSrNLGhMTy4MJT53MgPZN1jHocHCLpi52+neQ1JIUzE+afUGXKm7
RqZec1RxR6tTw1yAME7XsQV7z/VrklN98wKV2OT6SA2fbOb2oZucd0jOvgsOtENe
Wl66B4J508QdQZA5FQUbaE/HwJGw8IbI6UR87pGlDpRGGnXHUlpIqBktPYSCewyq
xjyuQN+2HbxpHRFI9vDpzWlHszDJpOH7m1oPMgIo3mPPHjtoKkVFC/HC4gH4lg0m
Qny7Vnf5RTe4H0C9uNvgrAW0/zng6X9ZVgk3kx9XSNdbV51OFfyS6oHFl7D6EXHl
oCpVu1Q4UGkI1vXp9705za9GsySGya3ioCUmesLg0p/upIOA07er4YpiUGOyUiTh
OBIozP+J6VtBWKhhiHkNMlpxz5kK8/KpB4WR+4bqcNS9X/w1DcUUQ20xbfw=
-----END CERTIFICATE-----
