Certificate:
    Data:
        Version: 3 (0x2)
        Serial Number: 975 (0x3cf)
    Signature Algorithm: sha1WithRSAEncryption
        Issuer: C=US, ST=CA, L=SanFrancisco, O=Pixglo, Inc., OU=VPN-CIE, CN=tunnel.pixglo.com/name=Bala Chandrasekaran/emailAddress=bala@pixglo.com
        Validity
            Not Before: Feb 14 06:49:46 2018 GMT
            Not After : Feb 12 06:49:46 2028 GMT
        Subject: C=US, ST=CA, L=SanFrancisco, O=Pixglo, Inc., OU=VPN-CIE, CN=cie974/name=Bala Chandrasekaran/emailAddress=bala@pixglo.com
        Subject Public Key Info:
            Public Key Algorithm: rsaEncryption
                Public-Key: (4096 bit)
                Modulus:
                    00:b8:85:63:23:10:fa:7c:8e:3c:0e:6b:84:50:a2:
                    7a:16:65:17:1b:dd:be:2e:e9:da:49:2d:72:d6:fc:
                    9e:7c:4b:b3:28:5b:25:7d:05:b6:ea:9d:f3:fe:70:
                    22:90:14:13:5b:4d:f6:b6:eb:09:76:fd:75:fe:1d:
                    7d:c1:2d:13:d5:b2:66:4c:4d:76:b5:dd:b1:f0:d2:
                    32:c2:8e:65:45:58:50:00:0e:b3:25:84:7a:48:52:
                    f4:e9:2e:06:c8:ac:5d:e7:df:14:f1:8c:af:7d:14:
                    4f:f9:c3:58:31:72:61:51:d3:00:51:a2:2a:68:aa:
                    d4:78:7a:2c:5a:92:43:56:9b:5a:48:f3:78:88:37:
                    15:24:e0:dd:41:7e:c8:b9:98:2c:c0:a2:bf:5b:8e:
                    7a:5b:6f:0e:4e:35:d4:aa:f0:67:b6:e8:79:6a:68:
                    0a:d0:18:3b:b3:b8:b7:b2:c9:0e:8c:53:cc:04:fe:
                    61:59:58:0d:44:e2:b7:fd:b2:01:14:1b:bb:5c:24:
                    b6:ef:8b:09:36:d1:51:34:3d:b1:8b:6b:f7:27:1d:
                    9d:5d:a5:e7:59:90:a0:c3:e3:26:06:a6:37:1f:17:
                    7e:79:b7:cb:5a:20:5b:bc:19:0c:b9:e4:56:df:3a:
                    da:5d:ce:28:27:14:d9:d8:eb:36:ad:80:30:9c:35:
                    09:e2:6f:ba:fe:b1:86:53:15:1f:5e:a5:af:f7:6c:
                    29:89:20:cf:f9:c4:f9:b4:1e:07:8b:02:c3:96:51:
                    49:64:f8:27:54:5a:04:b1:76:bb:8f:fb:8a:16:2b:
                    2f:8f:05:ee:d3:3c:90:18:72:3e:dc:dd:db:41:b6:
                    3b:32:5f:9c:28:5e:c9:cd:11:e3:63:d9:75:c1:78:
                    ac:ab:83:6b:96:b2:8d:f2:bb:de:50:f0:10:1a:3f:
                    e0:41:81:c4:2f:78:76:93:25:be:a7:7a:ce:8c:c3:
                    2e:41:7e:c5:55:bd:7d:bd:20:73:3d:32:91:5f:41:
                    8d:59:06:30:08:d2:97:62:50:6b:e1:6f:69:99:07:
                    41:eb:94:67:9b:b8:cc:a4:3b:71:92:8a:07:2c:7c:
                    f8:10:ef:3c:40:5d:46:bb:9c:83:3a:c9:37:92:3b:
                    50:57:2a:f4:4a:3f:5a:7a:cd:30:17:cc:b8:4a:30:
                    62:43:ad:76:e7:51:52:88:8c:2c:46:46:4f:0c:ef:
                    4a:e1:a7:7e:4f:ea:b2:b3:e3:54:09:d0:60:3c:c7:
                    1f:24:9d:2b:38:10:64:16:7b:f8:70:77:13:ba:13:
                    6c:3c:fe:4c:cf:72:d5:8a:f0:5e:c2:51:62:ec:40:
                    79:9d:6d:57:f0:cd:c7:70:56:71:e2:a7:1f:57:fc:
                    9d:c9:a5
                Exponent: 65537 (0x10001)
        X509v3 extensions:
            X509v3 Basic Constraints: 
                CA:FALSE
            Netscape Comment: 
                Easy-RSA Generated Certificate
            X509v3 Subject Key Identifier: 
                06:69:FB:0D:99:36:74:0E:4A:C6:FB:9A:18:1F:87:57:7D:A9:E7:C0
            X509v3 Authority Key Identifier: 
                keyid:EF:38:8D:14:50:58:A7:5B:4D:9C:17:72:FC:DF:B9:AC:A7:51:B0:10
                DirName:/C=US/ST=CA/L=SanFrancisco/O=Pixglo, Inc./OU=VPN-CIE/CN=tunnel.pixglo.com/name=Bala Chandrasekaran/emailAddress=bala@pixglo.com
                serial:A6:DB:C6:83:80:E6:A0:79

            X509v3 Extended Key Usage: 
                TLS Web Client Authentication
            X509v3 Key Usage: 
                Digital Signature
    Signature Algorithm: sha1WithRSAEncryption
         6b:cd:23:e7:38:3b:93:bb:8a:6f:f6:d8:74:47:4f:d6:2c:80:
         c9:e7:ad:7f:f2:2c:bc:8a:e7:f4:7f:a5:1f:f0:2a:9f:36:97:
         c7:ba:48:74:41:34:00:27:c5:6e:a7:50:4c:7d:a9:b4:c8:02:
         71:10:83:a2:ec:b5:4c:f1:33:86:60:7b:8c:fb:64:b2:40:1f:
         45:9c:8a:bc:66:4f:02:aa:34:57:63:38:86:21:8f:9b:64:3e:
         a6:83:97:af:67:a9:1b:17:af:14:b7:36:4a:f1:89:b7:0e:20:
         6a:00:ec:39:b0:c4:64:da:03:f3:ac:14:45:34:ec:bd:e3:84:
         25:78:69:1e:e8:80:7f:8a:f8:e1:68:6a:9b:2c:07:14:72:9c:
         1f:71:f1:7b:3e:ce:8e:44:28:04:7e:97:cc:67:8c:23:aa:a9:
         ea:75:fd:5e:c7:2f:f4:fb:e9:86:e6:ae:50:e4:e8:66:ac:2f:
         54:e7:5e:4f:0c:f7:ae:65:92:a6:b0:cc:6e:99:18:2a:17:a7:
         62:17:ae:32:82:ce:54:7a:75:a0:b3:55:e5:02:f1:28:3e:ce:
         f4:50:c4:83:90:dd:70:04:b8:c8:d3:12:d7:40:47:6c:41:0d:
         70:7a:5e:f1:8a:fe:b9:1c:d3:cc:9f:50:db:a2:db:af:25:83:
         28:34:0d:e6:21:2a:95:c6:e9:96:5d:8b:e9:6b:2e:00:db:dc:
         9a:0e:f1:be:41:70:52:74:b9:42:21:6a:a5:1d:22:a1:30:6e:
         6c:78:e1:cf:0a:d3:0e:2a:d7:c5:60:44:fb:9d:9e:62:01:d8:
         2c:0e:d9:09:55:42:6b:cf:42:6e:55:01:c2:bd:0d:14:8a:80:
         7e:07:05:d7:eb:15:e7:07:c7:23:dc:dd:cf:e2:c0:8c:2a:0b:
         e5:38:d1:dd:bc:95:83:cd:2a:4b:7b:01:cf:c0:5b:1c:95:7f:
         2b:41:86:52:2b:b2:fe:58:6c:79:e7:0f:90:27:70:71:ac:64:
         93:fc:ac:51:f0:24:c5:7d:37:92:24:ac:2e:fc:ed:69:3e:09:
         ff:25:f1:d5:2d:ba:14:f6:a4:11:e7:8c:d4:78:31:a9:76:27:
         b3:d5:82:51:c2:0a:02:95:45:f1:5e:11:58:73:23:82:a2:e4:
         9c:8d:fc:b9:30:d2:42:21:96:69:c5:bb:58:af:77:f5:36:82:
         2b:ac:28:cd:7d:92:1f:9f:f0:c5:13:d0:85:92:5b:20:ba:2a:
         19:07:e0:13:62:a5:fc:5d:ce:14:ed:71:09:5d:c9:a1:f8:a0:
         f4:6c:66:27:9d:07:79:d4:a3:9e:c0:63:f8:18:f4:40:3c:d9:
         a4:ea:45:12:46:b0:45:fa
-----BEGIN CERTIFICATE-----
MIIHSDCCBTCgAwIBAgICA88wDQYJKoZIhvcNAQEFBQAwgbQxCzAJBgNVBAYTAlVT
MQswCQYDVQQIEwJDQTEVMBMGA1UEBxMMU2FuRnJhbmNpc2NvMRUwEwYDVQQKEwxQ
aXhnbG8sIEluYy4xEDAOBgNVBAsTB1ZQTi1DSUUxGjAYBgNVBAMTEXR1bm5lbC5w
aXhnbG8uY29tMRwwGgYDVQQpExNCYWxhIENoYW5kcmFzZWthcmFuMR4wHAYJKoZI
hvcNAQkBFg9iYWxhQHBpeGdsby5jb20wHhcNMTgwMjE0MDY0OTQ2WhcNMjgwMjEy
MDY0OTQ2WjCBqTELMAkGA1UEBhMCVVMxCzAJBgNVBAgTAkNBMRUwEwYDVQQHEwxT
YW5GcmFuY2lzY28xFTATBgNVBAoTDFBpeGdsbywgSW5jLjEQMA4GA1UECxMHVlBO
LUNJRTEPMA0GA1UEAxMGY2llOTc0MRwwGgYDVQQpExNCYWxhIENoYW5kcmFzZWth
cmFuMR4wHAYJKoZIhvcNAQkBFg9iYWxhQHBpeGdsby5jb20wggIiMA0GCSqGSIb3
DQEBAQUAA4ICDwAwggIKAoICAQC4hWMjEPp8jjwOa4RQonoWZRcb3b4u6dpJLXLW
/J58S7MoWyV9BbbqnfP+cCKQFBNbTfa26wl2/XX+HX3BLRPVsmZMTXa13bHw0jLC
jmVFWFAADrMlhHpIUvTpLgbIrF3n3xTxjK99FE/5w1gxcmFR0wBRoipoqtR4eixa
kkNWm1pI83iINxUk4N1Bfsi5mCzAor9bjnpbbw5ONdSq8Ge26HlqaArQGDuzuLey
yQ6MU8wE/mFZWA1E4rf9sgEUG7tcJLbviwk20VE0PbGLa/cnHZ1dpedZkKDD4yYG
pjcfF355t8taIFu8GQy55FbfOtpdzignFNnY6zatgDCcNQnib7r+sYZTFR9epa/3
bCmJIM/5xPm0HgeLAsOWUUlk+CdUWgSxdruP+4oWKy+PBe7TPJAYcj7c3dtBtjsy
X5woXsnNEeNj2XXBeKyrg2uWso3yu95Q8BAaP+BBgcQveHaTJb6nes6Mwy5BfsVV
vX29IHM9MpFfQY1ZBjAI0pdiUGvhb2mZB0HrlGebuMykO3GSigcsfPgQ7zxAXUa7
nIM6yTeSO1BXKvRKP1p6zTAXzLhKMGJDrXbnUVKIjCxGRk8M70rhp35P6rKz41QJ
0GA8xx8knSs4EGQWe/hwdxO6E2w8/kzPctWK8F7CUWLsQHmdbVfwzcdwVnHipx9X
/J3JpQIDAQABo4IBazCCAWcwCQYDVR0TBAIwADAtBglghkgBhvhCAQ0EIBYeRWFz
eS1SU0EgR2VuZXJhdGVkIENlcnRpZmljYXRlMB0GA1UdDgQWBBQGafsNmTZ0DkrG
+5oYH4dXfannwDCB6QYDVR0jBIHhMIHegBTvOI0UUFinW02cF3L837msp1GwEKGB
uqSBtzCBtDELMAkGA1UEBhMCVVMxCzAJBgNVBAgTAkNBMRUwEwYDVQQHEwxTYW5G
cmFuY2lzY28xFTATBgNVBAoTDFBpeGdsbywgSW5jLjEQMA4GA1UECxMHVlBOLUNJ
RTEaMBgGA1UEAxMRdHVubmVsLnBpeGdsby5jb20xHDAaBgNVBCkTE0JhbGEgQ2hh
bmRyYXNla2FyYW4xHjAcBgkqhkiG9w0BCQEWD2JhbGFAcGl4Z2xvLmNvbYIJAKbb
xoOA5qB5MBMGA1UdJQQMMAoGCCsGAQUFBwMCMAsGA1UdDwQEAwIHgDANBgkqhkiG
9w0BAQUFAAOCAgEAa80j5zg7k7uKb/bYdEdP1iyAyeetf/IsvIrn9H+lH/AqnzaX
x7pIdEE0ACfFbqdQTH2ptMgCcRCDouy1TPEzhmB7jPtkskAfRZyKvGZPAqo0V2M4
hiGPm2Q+poOXr2epGxevFLc2SvGJtw4gagDsObDEZNoD86wURTTsveOEJXhpHuiA
f4r44WhqmywHFHKcH3Hxez7OjkQoBH6XzGeMI6qp6nX9Xscv9PvphuauUOToZqwv
VOdeTwz3rmWSprDMbpkYKhenYheuMoLOVHp1oLNV5QLxKD7O9FDEg5DdcAS4yNMS
10BHbEENcHpe8Yr+uRzTzJ9Q26LbryWDKDQN5iEqlcbpll2L6WsuANvcmg7xvkFw
UnS5QiFqpR0ioTBubHjhzwrTDirXxWBE+52eYgHYLA7ZCVVCa89CblUBwr0NFIqA
fgcF1+sV5wfHI9zdz+LAjCoL5TjR3byVg80qS3sBz8BbHJV/K0GGUiuy/lhseecP
kCdwcaxkk/ysUfAkxX03kiSsLvztaT4J/yXx1S26FPakEeeM1HgxqXYns9WCUcIK
ApVF8V4RWHMjgqLknI38uTDSQiGWacW7WK939TaCK6wozX2SH5/wxRPQhZJbILoq
GQfgE2Kl/F3OFO1xCV3Jofig9GxmJ50HedSjnsBj+Bj0QDzZpOpFEkawRfo=
-----END CERTIFICATE-----
