Certificate:
    Data:
        Version: 3 (0x2)
        Serial Number: 978 (0x3d2)
    Signature Algorithm: sha1WithRSAEncryption
        Issuer: C=US, ST=CA, L=SanFrancisco, O=Pixglo, Inc., OU=VPN-CIE, CN=tunnel.pixglo.com/name=Bala Chandrasekaran/emailAddress=bala@pixglo.com
        Validity
            Not Before: Feb 14 06:49:50 2018 GMT
            Not After : Feb 12 06:49:50 2028 GMT
        Subject: C=US, ST=CA, L=SanFrancisco, O=Pixglo, Inc., OU=VPN-CIE, CN=cie977/name=Bala Chandrasekaran/emailAddress=bala@pixglo.com
        Subject Public Key Info:
            Public Key Algorithm: rsaEncryption
                Public-Key: (4096 bit)
                Modulus:
                    00:c0:5b:b0:8b:8f:c6:5f:8c:d9:02:c8:36:42:72:
                    1f:6b:d7:3e:d6:c1:f8:3d:54:0f:f3:40:0f:01:0b:
                    4c:ef:40:99:c7:7a:a2:69:4f:89:61:c4:19:36:4f:
                    39:29:fb:3a:21:16:5d:cc:28:8c:d3:b1:b9:c1:20:
                    41:73:5c:74:11:5d:96:01:e7:a6:55:d7:22:ca:e1:
                    ed:4c:2e:f1:3c:b4:27:68:13:24:f0:87:46:7a:1d:
                    7a:28:5b:d0:ae:96:cb:2f:1b:b0:16:1b:47:ba:e2:
                    ce:08:00:68:e8:b6:22:0a:1c:27:f5:b7:8c:40:e3:
                    e1:c8:6e:1c:42:67:f6:ee:bb:64:12:42:64:7a:ea:
                    22:6d:bc:ad:a4:fb:5e:d9:97:4f:53:05:d0:85:02:
                    52:e8:90:50:e9:64:56:be:f6:65:fb:a3:1a:61:01:
                    e8:01:12:74:75:3d:da:e5:29:be:6d:93:69:27:79:
                    3d:b3:ce:c1:1d:f2:b2:5e:91:ec:a8:e3:4e:34:50:
                    6f:82:f0:15:bc:2d:eb:fb:de:c0:3d:c7:00:0a:fc:
                    4e:8b:a2:45:24:75:c4:70:ec:00:94:1c:8c:75:41:
                    1e:12:04:a4:e8:75:5b:45:be:b3:ae:d2:5b:e6:33:
                    31:13:5b:7e:54:b0:4a:a1:67:fd:6d:7c:ad:51:5b:
                    e4:ea:e8:90:1f:fc:eb:f1:4e:0d:69:e8:75:e9:1a:
                    a0:4e:72:88:1d:c5:98:79:46:3a:94:5a:ff:10:cc:
                    79:d4:4c:86:52:ec:d7:fa:38:13:1f:04:24:cd:52:
                    3d:2d:0f:e0:c9:4d:64:49:f5:95:36:f6:e1:43:6e:
                    a5:28:ad:0e:65:11:ae:ff:f9:2d:76:ed:9c:cd:d2:
                    48:4e:12:41:04:ba:1e:0d:b1:d4:27:71:d2:fd:40:
                    9e:42:96:95:c7:28:1b:68:f9:5c:76:78:cd:15:81:
                    d3:5f:b3:68:9d:0c:0e:db:7d:b8:3c:47:06:c2:fe:
                    9f:8d:40:94:9b:6c:78:c0:e3:48:a8:c5:ed:b9:75:
                    be:8b:c8:cb:ba:5a:c8:89:b4:0b:89:37:61:31:99:
                    9e:4c:94:b6:46:54:f2:26:3f:4e:07:34:3e:cc:96:
                    4e:83:f2:bc:71:bd:78:c7:7f:b9:ac:f7:27:02:c1:
                    db:a3:47:2c:55:ae:b2:46:24:e3:a5:a4:bf:0b:7d:
                    cd:2a:31:30:2b:59:79:5b:38:99:b2:6f:7b:72:e4:
                    9e:00:22:67:31:2c:29:f1:5d:b5:b1:78:38:00:99:
                    40:cd:10:11:dd:28:d9:19:7f:d6:0a:a6:18:c1:fe:
                    4a:96:48:17:6b:81:cd:b8:14:ca:5e:d8:db:36:84:
                    54:fd:eb
                Exponent: 65537 (0x10001)
        X509v3 extensions:
            X509v3 Basic Constraints: 
                CA:FALSE
            Netscape Comment: 
                Easy-RSA Generated Certificate
            X509v3 Subject Key Identifier: 
                A5:D3:DD:4A:8A:3E:14:91:F9:A8:ED:C0:67:B3:2B:60:63:CE:B2:21
            X509v3 Authority Key Identifier: 
                keyid:EF:38:8D:14:50:58:A7:5B:4D:9C:17:72:FC:DF:B9:AC:A7:51:B0:10
                DirName:/C=US/ST=CA/L=SanFrancisco/O=Pixglo, Inc./OU=VPN-CIE/CN=tunnel.pixglo.com/name=Bala Chandrasekaran/emailAddress=bala@pixglo.com
                serial:A6:DB:C6:83:80:E6:A0:79

            X509v3 Extended Key Usage: 
                TLS Web Client Authentication
            X509v3 Key Usage: 
                Digital Signature
    Signature Algorithm: sha1WithRSAEncryption
         7c:17:5e:69:ae:2b:e8:36:1a:48:5b:d9:09:23:28:5a:a4:ee:
         3c:16:da:c2:39:9a:9f:69:7f:7d:78:da:a3:e9:e2:18:8f:14:
         bc:95:6b:8d:1e:59:42:16:dd:cd:7f:c6:9d:14:cf:e3:21:bf:
         6b:ce:77:f1:cd:64:75:c6:f2:e3:88:64:b5:d2:48:5a:a1:cd:
         85:65:fb:30:c1:98:9f:7b:00:e5:f1:09:0f:25:30:ad:b3:77:
         b5:fc:e9:c4:2e:60:67:9c:44:5f:c1:83:97:84:92:84:13:08:
         11:fb:21:2d:0e:11:20:79:58:70:b4:74:fb:32:62:09:ce:dd:
         47:18:eb:69:61:f5:03:fc:d4:13:d0:79:56:54:48:93:9a:63:
         5e:f3:55:06:a8:71:04:b3:42:30:60:8f:82:9b:fb:97:ba:e4:
         53:94:51:61:7e:b7:e9:23:21:d2:31:12:7b:bb:16:84:a2:37:
         a8:74:09:13:b1:70:c0:ee:73:31:17:f7:ed:54:18:19:01:c6:
         4b:cf:3c:02:58:d6:9b:0e:c9:91:b7:6a:b2:49:1e:5b:ef:2a:
         ff:2a:7d:0d:ce:95:14:19:f9:52:e6:3f:71:1f:29:36:fe:a8:
         33:70:f1:b1:12:59:24:ee:fc:eb:37:87:55:d2:45:84:cf:6d:
         c2:40:95:62:6a:97:08:cb:01:a7:18:21:37:98:16:1f:02:34:
         83:60:af:f7:fe:68:a0:94:58:84:87:9d:ed:3a:a0:8a:1f:2e:
         f5:2a:39:8f:60:22:c6:d8:da:45:c0:3a:b3:8a:84:18:a8:f7:
         ea:6d:32:eb:4f:12:5f:cf:20:3e:64:61:37:c2:d6:52:3f:31:
         ae:45:d5:8d:f6:02:d3:cf:77:1d:7c:cb:99:5f:8d:71:7a:96:
         31:b0:02:c0:6f:b9:e2:b8:70:7c:aa:97:30:ef:59:51:65:e1:
         de:02:1b:9a:6a:c6:ef:71:1d:ec:15:bd:3b:54:01:63:42:cf:
         9c:6a:d7:05:55:09:76:40:b5:27:c2:b3:44:98:e7:f4:1c:94:
         f9:57:bf:3c:de:a8:7b:02:20:da:e8:2b:c9:3f:f8:e3:03:79:
         e1:1c:c6:bf:b1:ce:6c:b0:2e:c2:9d:1f:50:3e:f0:f1:9d:4b:
         c5:ad:7d:6f:b0:d0:3e:eb:f9:e5:c8:cf:01:b2:28:73:1e:05:
         13:e4:4a:63:8e:b3:f7:f0:bb:16:cc:0c:54:bf:4d:85:9d:6f:
         e2:cf:2b:2b:30:2d:fb:c1:0b:fb:09:6e:98:52:16:09:f8:00:
         77:2f:09:6d:de:0c:57:2e:3e:8b:a0:47:7d:f3:06:ea:4d:7b:
         51:36:7e:b0:b7:ed:67:33
-----BEGIN CERTIFICATE-----
MIIHSDCCBTCgAwIBAgICA9IwDQYJKoZIhvcNAQEFBQAwgbQxCzAJBgNVBAYTAlVT
MQswCQYDVQQIEwJDQTEVMBMGA1UEBxMMU2FuRnJhbmNpc2NvMRUwEwYDVQQKEwxQ
aXhnbG8sIEluYy4xEDAOBgNVBAsTB1ZQTi1DSUUxGjAYBgNVBAMTEXR1bm5lbC5w
aXhnbG8uY29tMRwwGgYDVQQpExNCYWxhIENoYW5kcmFzZWthcmFuMR4wHAYJKoZI
hvcNAQkBFg9iYWxhQHBpeGdsby5jb20wHhcNMTgwMjE0MDY0OTUwWhcNMjgwMjEy
MDY0OTUwWjCBqTELMAkGA1UEBhMCVVMxCzAJBgNVBAgTAkNBMRUwEwYDVQQHEwxT
YW5GcmFuY2lzY28xFTATBgNVBAoTDFBpeGdsbywgSW5jLjEQMA4GA1UECxMHVlBO
LUNJRTEPMA0GA1UEAxMGY2llOTc3MRwwGgYDVQQpExNCYWxhIENoYW5kcmFzZWth
cmFuMR4wHAYJKoZIhvcNAQkBFg9iYWxhQHBpeGdsby5jb20wggIiMA0GCSqGSIb3
DQEBAQUAA4ICDwAwggIKAoICAQDAW7CLj8ZfjNkCyDZCch9r1z7Wwfg9VA/zQA8B
C0zvQJnHeqJpT4lhxBk2Tzkp+zohFl3MKIzTsbnBIEFzXHQRXZYB56ZV1yLK4e1M
LvE8tCdoEyTwh0Z6HXooW9CulssvG7AWG0e64s4IAGjotiIKHCf1t4xA4+HIbhxC
Z/buu2QSQmR66iJtvK2k+17Zl09TBdCFAlLokFDpZFa+9mX7oxphAegBEnR1Pdrl
Kb5tk2kneT2zzsEd8rJekeyo4040UG+C8BW8Lev73sA9xwAK/E6LokUkdcRw7ACU
HIx1QR4SBKTodVtFvrOu0lvmMzETW35UsEqhZ/1tfK1RW+Tq6JAf/OvxTg1p6HXp
GqBOcogdxZh5RjqUWv8QzHnUTIZS7Nf6OBMfBCTNUj0tD+DJTWRJ9ZU29uFDbqUo
rQ5lEa7/+S127ZzN0khOEkEEuh4NsdQncdL9QJ5ClpXHKBto+Vx2eM0VgdNfs2id
DA7bfbg8RwbC/p+NQJSbbHjA40ioxe25db6LyMu6WsiJtAuJN2ExmZ5MlLZGVPIm
P04HND7Mlk6D8rxxvXjHf7ms9ycCwdujRyxVrrJGJOOlpL8Lfc0qMTArWXlbOJmy
b3ty5J4AImcxLCnxXbWxeDgAmUDNEBHdKNkZf9YKphjB/kqWSBdrgc24FMpe2Ns2
hFT96wIDAQABo4IBazCCAWcwCQYDVR0TBAIwADAtBglghkgBhvhCAQ0EIBYeRWFz
eS1SU0EgR2VuZXJhdGVkIENlcnRpZmljYXRlMB0GA1UdDgQWBBSl091Kij4Ukfmo
7cBnsytgY86yITCB6QYDVR0jBIHhMIHegBTvOI0UUFinW02cF3L837msp1GwEKGB
uqSBtzCBtDELMAkGA1UEBhMCVVMxCzAJBgNVBAgTAkNBMRUwEwYDVQQHEwxTYW5G
cmFuY2lzY28xFTATBgNVBAoTDFBpeGdsbywgSW5jLjEQMA4GA1UECxMHVlBOLUNJ
RTEaMBgGA1UEAxMRdHVubmVsLnBpeGdsby5jb20xHDAaBgNVBCkTE0JhbGEgQ2hh
bmRyYXNla2FyYW4xHjAcBgkqhkiG9w0BCQEWD2JhbGFAcGl4Z2xvLmNvbYIJAKbb
xoOA5qB5MBMGA1UdJQQMMAoGCCsGAQUFBwMCMAsGA1UdDwQEAwIHgDANBgkqhkiG
9w0BAQUFAAOCAgEAfBdeaa4r6DYaSFvZCSMoWqTuPBbawjman2l/fXjao+niGI8U
vJVrjR5ZQhbdzX/GnRTP4yG/a8538c1kdcby44hktdJIWqHNhWX7MMGYn3sA5fEJ
DyUwrbN3tfzpxC5gZ5xEX8GDl4SShBMIEfshLQ4RIHlYcLR0+zJiCc7dRxjraWH1
A/zUE9B5VlRIk5pjXvNVBqhxBLNCMGCPgpv7l7rkU5RRYX636SMh0jESe7sWhKI3
qHQJE7FwwO5zMRf37VQYGQHGS888AljWmw7JkbdqskkeW+8q/yp9Dc6VFBn5UuY/
cR8pNv6oM3DxsRJZJO786zeHVdJFhM9twkCVYmqXCMsBpxghN5gWHwI0g2Cv9/5o
oJRYhIed7Tqgih8u9So5j2AixtjaRcA6s4qEGKj36m0y608SX88gPmRhN8LWUj8x
rkXVjfYC0893HXzLmV+NcXqWMbACwG+54rhwfKqXMO9ZUWXh3gIbmmrG73Ed7BW9
O1QBY0LPnGrXBVUJdkC1J8KzRJjn9ByU+Ve/PN6oewIg2ugryT/44wN54RzGv7HO
bLAuwp0fUD7w8Z1Lxa19b7DQPuv55cjPAbIocx4FE+RKY46z9/C7FswMVL9NhZ1v
4s8rKzAt+8EL+wlumFIWCfgAdy8Jbd4MVy4+i6BHffMG6k17UTZ+sLftZzM=
-----END CERTIFICATE-----
