Certificate:
    Data:
        Version: 3 (0x2)
        Serial Number: 983 (0x3d7)
    Signature Algorithm: sha1WithRSAEncryption
        Issuer: C=US, ST=CA, L=SanFrancisco, O=Pixglo, Inc., OU=VPN-CIE, CN=tunnel.pixglo.com/name=Bala Chandrasekaran/emailAddress=bala@pixglo.com
        Validity
            Not Before: Feb 14 06:49:56 2018 GMT
            Not After : Feb 12 06:49:56 2028 GMT
        Subject: C=US, ST=CA, L=SanFrancisco, O=Pixglo, Inc., OU=VPN-CIE, CN=cie982/name=Bala Chandrasekaran/emailAddress=bala@pixglo.com
        Subject Public Key Info:
            Public Key Algorithm: rsaEncryption
                Public-Key: (4096 bit)
                Modulus:
                    00:dd:28:51:75:0f:15:c4:18:9f:07:e0:e0:49:a7:
                    88:43:5a:9c:18:97:f9:86:9c:0d:77:db:87:5d:8a:
                    12:04:ea:b0:89:e1:bd:d8:40:58:13:66:fb:e9:92:
                    86:df:39:a2:6b:6e:28:ec:90:03:f8:4f:47:04:e8:
                    f8:e1:3a:85:cf:e0:07:b5:c5:e5:08:09:06:93:f3:
                    69:bd:77:24:3b:7b:8d:30:98:a8:3e:35:eb:55:a8:
                    5c:81:a3:cb:aa:29:24:06:b8:73:9c:47:6b:97:ce:
                    c1:5e:32:c1:f2:c5:4f:c6:ae:0c:a0:f1:65:29:ca:
                    40:e3:0e:cc:54:91:6b:8e:e4:ad:2a:fa:f3:b1:5e:
                    ad:09:99:49:56:3c:0a:3d:67:8f:42:d0:ff:de:7f:
                    d7:d2:2a:32:fc:d7:e2:d2:1c:de:3e:d7:86:f4:41:
                    ad:b5:f4:62:2e:53:4e:9d:cb:c1:30:e8:93:98:8b:
                    1d:6d:9a:c7:f5:43:52:c8:4c:7f:d9:df:d0:54:6e:
                    ee:c0:ac:8a:23:cd:26:20:d7:ef:46:1b:02:5d:f0:
                    75:75:4b:0c:ca:6f:f0:05:28:38:04:50:8c:2f:a2:
                    b0:e2:35:b6:09:cb:f1:b4:c2:ca:a5:2a:f8:f5:4f:
                    79:fc:1d:c7:d0:fc:ce:8f:3a:1b:77:cc:9a:66:c3:
                    64:ff:a4:e8:48:ff:9f:d7:db:42:44:75:be:d6:3b:
                    79:2b:49:7b:18:3e:af:26:a9:d1:c6:ac:ee:0e:38:
                    05:81:84:5c:df:64:a3:8f:ac:bf:37:fa:f4:96:5e:
                    3b:cd:9b:44:e1:05:00:ef:93:19:27:e9:33:d6:b5:
                    04:98:4c:fc:de:fa:6b:6f:4a:23:22:fb:eb:4e:da:
                    f0:94:c3:96:aa:6a:ac:9f:31:cc:ae:e1:11:2a:0f:
                    ee:09:ef:75:c6:1f:e0:a5:33:fa:20:f2:5b:3e:0c:
                    1a:e1:6d:04:b6:5d:4d:81:69:d3:58:fd:ba:fc:eb:
                    db:66:f9:5f:ee:db:df:d5:4c:4f:20:53:99:a6:b9:
                    39:c0:86:8c:cb:3d:e6:60:3c:34:46:da:5a:15:94:
                    1a:2d:03:ac:bb:75:a6:2a:4e:73:fc:8a:c5:05:cf:
                    92:5f:57:01:18:fa:25:b3:63:04:d6:72:b3:97:87:
                    21:cd:8c:57:f1:14:e7:38:a2:f6:93:6c:4b:00:e6:
                    c2:d1:68:d6:02:17:09:6a:bb:59:01:21:46:ea:6b:
                    47:df:d5:99:b9:29:6a:46:f9:23:7b:70:cd:ac:a4:
                    31:7c:2d:cb:f3:cc:80:1e:56:26:cb:73:ba:66:b0:
                    28:75:ab:5c:04:fa:30:e5:55:04:ca:5d:bc:d6:6d:
                    15:df:ef
                Exponent: 65537 (0x10001)
        X509v3 extensions:
            X509v3 Basic Constraints: 
                CA:FALSE
            Netscape Comment: 
                Easy-RSA Generated Certificate
            X509v3 Subject Key Identifier: 
                AF:EC:5F:3A:1F:1C:B1:5F:3E:4B:00:A2:65:22:09:59:D6:70:40:DA
            X509v3 Authority Key Identifier: 
                keyid:EF:38:8D:14:50:58:A7:5B:4D:9C:17:72:FC:DF:B9:AC:A7:51:B0:10
                DirName:/C=US/ST=CA/L=SanFrancisco/O=Pixglo, Inc./OU=VPN-CIE/CN=tunnel.pixglo.com/name=Bala Chandrasekaran/emailAddress=bala@pixglo.com
                serial:A6:DB:C6:83:80:E6:A0:79

            X509v3 Extended Key Usage: 
                TLS Web Client Authentication
            X509v3 Key Usage: 
                Digital Signature
    Signature Algorithm: sha1WithRSAEncryption
         b6:9f:45:50:ff:3f:dc:5d:bb:29:d6:8e:ca:86:55:5f:7e:b1:
         88:86:2a:ec:2c:10:cd:f5:09:1f:df:07:a1:e3:97:f7:32:4e:
         36:d5:6f:fe:7d:99:eb:26:d5:92:91:92:83:b2:29:b1:fc:83:
         13:cc:73:fb:dd:b0:35:2d:18:17:2e:a1:63:87:36:bf:ce:79:
         46:d0:fe:50:ac:5e:17:c0:8c:b1:89:21:dd:9f:d8:e5:c0:5f:
         d5:3c:9a:0f:f2:53:17:84:7c:a6:8d:4c:ed:10:d2:af:a7:81:
         2b:39:71:1e:d3:8d:37:2e:85:8e:a4:55:5f:7a:df:84:92:bb:
         d2:70:28:6a:45:b1:bf:50:07:84:7b:7b:44:c3:12:bf:4e:ab:
         a1:25:64:72:eb:6a:1a:5c:68:ad:9c:ea:ae:2d:b1:e2:f9:bb:
         96:2a:68:0a:68:38:6c:7e:e6:f0:e2:dc:cc:5f:32:3f:6e:cc:
         a4:40:31:c5:5a:a7:d5:38:04:df:3a:2f:74:20:4c:e5:26:0f:
         bd:3f:e3:56:65:8a:32:6b:70:94:eb:a5:3e:0a:7e:cc:fe:b9:
         85:72:db:60:6f:06:f6:5e:c9:b5:a9:50:49:81:68:00:9c:69:
         88:0c:06:bb:46:a4:4d:a5:4d:ab:df:58:ab:bc:cb:65:19:44:
         85:dc:69:0d:62:76:57:5a:c2:80:0c:84:ef:74:39:60:b0:ca:
         1a:9a:c6:3c:7e:a9:ec:74:28:ed:d2:f1:73:fc:c4:d8:c5:fd:
         ec:e5:54:69:6d:03:db:38:e1:2b:87:43:47:44:f6:88:1d:81:
         de:f4:ef:80:1b:55:2a:4a:12:a1:6c:68:f6:cd:5b:e5:ff:b0:
         da:1c:c1:97:77:a9:ad:7d:c7:66:f5:db:56:e0:ad:d9:22:bc:
         24:d9:37:2b:5f:cb:83:8b:77:02:83:d8:a6:59:8c:3d:40:ca:
         3e:9d:1d:41:4f:36:50:7e:5c:00:f6:c4:d5:ea:33:64:5c:81:
         3e:e7:28:fa:67:1a:f1:92:e3:3c:fd:b8:76:9c:e2:7f:31:45:
         56:53:c8:20:ec:ee:ab:8a:9e:6a:23:7d:f8:3e:a2:21:88:c8:
         4e:ee:0b:96:ec:6f:1c:a6:65:03:0a:54:78:7c:5f:66:5b:e9:
         4e:bd:a4:bb:3f:93:2b:9d:85:0e:69:8b:1d:76:37:0d:47:1a:
         25:4f:ec:71:80:a0:b8:a8:97:f9:e3:8d:78:64:1a:02:26:20:
         68:cf:98:4e:1b:db:08:9d:9c:e8:27:2c:2d:43:87:9c:b1:31:
         0b:33:a3:2a:65:09:7d:3d:7b:a9:ff:02:f3:20:49:1a:39:6a:
         c7:a2:3b:d1:a4:91:85:c6
-----BEGIN CERTIFICATE-----
MIIHSDCCBTCgAwIBAgICA9cwDQYJKoZIhvcNAQEFBQAwgbQxCzAJBgNVBAYTAlVT
MQswCQYDVQQIEwJDQTEVMBMGA1UEBxMMU2FuRnJhbmNpc2NvMRUwEwYDVQQKEwxQ
aXhnbG8sIEluYy4xEDAOBgNVBAsTB1ZQTi1DSUUxGjAYBgNVBAMTEXR1bm5lbC5w
aXhnbG8uY29tMRwwGgYDVQQpExNCYWxhIENoYW5kcmFzZWthcmFuMR4wHAYJKoZI
hvcNAQkBFg9iYWxhQHBpeGdsby5jb20wHhcNMTgwMjE0MDY0OTU2WhcNMjgwMjEy
MDY0OTU2WjCBqTELMAkGA1UEBhMCVVMxCzAJBgNVBAgTAkNBMRUwEwYDVQQHEwxT
YW5GcmFuY2lzY28xFTATBgNVBAoTDFBpeGdsbywgSW5jLjEQMA4GA1UECxMHVlBO
LUNJRTEPMA0GA1UEAxMGY2llOTgyMRwwGgYDVQQpExNCYWxhIENoYW5kcmFzZWth
cmFuMR4wHAYJKoZIhvcNAQkBFg9iYWxhQHBpeGdsby5jb20wggIiMA0GCSqGSIb3
DQEBAQUAA4ICDwAwggIKAoICAQDdKFF1DxXEGJ8H4OBJp4hDWpwYl/mGnA1324dd
ihIE6rCJ4b3YQFgTZvvpkobfOaJrbijskAP4T0cE6PjhOoXP4Ae1xeUICQaT82m9
dyQ7e40wmKg+NetVqFyBo8uqKSQGuHOcR2uXzsFeMsHyxU/Grgyg8WUpykDjDsxU
kWuO5K0q+vOxXq0JmUlWPAo9Z49C0P/ef9fSKjL81+LSHN4+14b0Qa219GIuU06d
y8Ew6JOYix1tmsf1Q1LITH/Z39BUbu7ArIojzSYg1+9GGwJd8HV1SwzKb/AFKDgE
UIwvorDiNbYJy/G0wsqlKvj1T3n8HcfQ/M6POht3zJpmw2T/pOhI/5/X20JEdb7W
O3krSXsYPq8mqdHGrO4OOAWBhFzfZKOPrL83+vSWXjvNm0ThBQDvkxkn6TPWtQSY
TPze+mtvSiMi++tO2vCUw5aqaqyfMcyu4REqD+4J73XGH+ClM/og8ls+DBrhbQS2
XU2BadNY/br869tm+V/u29/VTE8gU5mmuTnAhozLPeZgPDRG2loVlBotA6y7daYq
TnP8isUFz5JfVwEY+iWzYwTWcrOXhyHNjFfxFOc4ovaTbEsA5sLRaNYCFwlqu1kB
IUbqa0ff1Zm5KWpG+SN7cM2spDF8LcvzzIAeVibLc7pmsCh1q1wE+jDlVQTKXbzW
bRXf7wIDAQABo4IBazCCAWcwCQYDVR0TBAIwADAtBglghkgBhvhCAQ0EIBYeRWFz
eS1SU0EgR2VuZXJhdGVkIENlcnRpZmljYXRlMB0GA1UdDgQWBBSv7F86HxyxXz5L
AKJlIglZ1nBA2jCB6QYDVR0jBIHhMIHegBTvOI0UUFinW02cF3L837msp1GwEKGB
uqSBtzCBtDELMAkGA1UEBhMCVVMxCzAJBgNVBAgTAkNBMRUwEwYDVQQHEwxTYW5G
cmFuY2lzY28xFTATBgNVBAoTDFBpeGdsbywgSW5jLjEQMA4GA1UECxMHVlBOLUNJ
RTEaMBgGA1UEAxMRdHVubmVsLnBpeGdsby5jb20xHDAaBgNVBCkTE0JhbGEgQ2hh
bmRyYXNla2FyYW4xHjAcBgkqhkiG9w0BCQEWD2JhbGFAcGl4Z2xvLmNvbYIJAKbb
xoOA5qB5MBMGA1UdJQQMMAoGCCsGAQUFBwMCMAsGA1UdDwQEAwIHgDANBgkqhkiG
9w0BAQUFAAOCAgEAtp9FUP8/3F27KdaOyoZVX36xiIYq7CwQzfUJH98HoeOX9zJO
NtVv/n2Z6ybVkpGSg7IpsfyDE8xz+92wNS0YFy6hY4c2v855RtD+UKxeF8CMsYkh
3Z/Y5cBf1TyaD/JTF4R8po1M7RDSr6eBKzlxHtONNy6FjqRVX3rfhJK70nAoakWx
v1AHhHt7RMMSv06roSVkcutqGlxorZzqri2x4vm7lipoCmg4bH7m8OLczF8yP27M
pEAxxVqn1TgE3zovdCBM5SYPvT/jVmWKMmtwlOulPgp+zP65hXLbYG8G9l7JtalQ
SYFoAJxpiAwGu0akTaVNq99Yq7zLZRlEhdxpDWJ2V1rCgAyE73Q5YLDKGprGPH6p
7HQo7dLxc/zE2MX97OVUaW0D2zjhK4dDR0T2iB2B3vTvgBtVKkoSoWxo9s1b5f+w
2hzBl3eprX3HZvXbVuCt2SK8JNk3K1/Lg4t3AoPYplmMPUDKPp0dQU82UH5cAPbE
1eozZFyBPuco+mca8ZLjPP24dpzifzFFVlPIIOzuq4qeaiN9+D6iIYjITu4Lluxv
HKZlAwpUeHxfZlvpTr2kuz+TK52FDmmLHXY3DUcaJU/scYCguKiX+eONeGQaAiYg
aM+YThvbCJ2c6CcsLUOHnLExCzOjKmUJfT17qf8C8yBJGjlqx6I70aSRhcY=
-----END CERTIFICATE-----
