Certificate:
    Data:
        Version: 3 (0x2)
        Serial Number: 985 (0x3d9)
    Signature Algorithm: sha1WithRSAEncryption
        Issuer: C=US, ST=CA, L=SanFrancisco, O=Pixglo, Inc., OU=VPN-CIE, CN=tunnel.pixglo.com/name=Bala Chandrasekaran/emailAddress=bala@pixglo.com
        Validity
            Not Before: Feb 14 06:50:02 2018 GMT
            Not After : Feb 12 06:50:02 2028 GMT
        Subject: C=US, ST=CA, L=SanFrancisco, O=Pixglo, Inc., OU=VPN-CIE, CN=cie984/name=Bala Chandrasekaran/emailAddress=bala@pixglo.com
        Subject Public Key Info:
            Public Key Algorithm: rsaEncryption
                Public-Key: (4096 bit)
                Modulus:
                    00:dc:f9:8b:e4:7d:1b:29:21:69:59:e0:89:f6:50:
                    8f:1e:56:23:ad:6e:53:3f:3c:2e:d1:a1:66:33:c0:
                    67:5d:5d:fd:69:ba:d4:53:5f:28:25:d0:f7:59:28:
                    ac:3e:9a:3f:21:b6:82:01:5e:14:7a:77:f2:b1:35:
                    e8:b5:2a:d2:51:a1:58:c6:b1:6b:ad:94:b0:51:f1:
                    70:15:f1:2e:02:df:50:50:d5:ec:2c:73:10:c4:b6:
                    59:22:3f:4e:a3:66:d9:51:c9:36:7e:bb:41:78:a8:
                    20:8c:17:8b:fd:60:6b:63:76:81:06:00:9d:d9:9a:
                    06:34:a8:32:f0:95:a2:cd:50:59:89:b2:5c:6b:43:
                    e0:40:9a:3b:80:5c:13:1a:ff:b9:0b:93:65:fb:8b:
                    5e:5d:80:cf:67:50:d5:a5:43:7f:98:c3:51:8e:42:
                    b4:3a:6b:2b:e1:6b:f6:2b:0e:d8:f1:36:25:73:00:
                    ee:bc:0c:0b:29:33:b2:11:1c:ec:b2:f0:0c:0b:3b:
                    e6:eb:c9:0b:ec:52:c9:d7:e5:b4:61:ec:be:ba:54:
                    6a:7c:42:af:29:93:e8:b7:74:95:40:62:5f:1a:21:
                    ca:25:d6:a7:ca:5c:0d:05:ba:ca:f0:3d:cd:6b:15:
                    42:39:0b:2b:45:9a:ac:12:85:48:a2:e7:15:2b:f6:
                    bd:9f:15:bf:6b:2c:23:4f:ee:3e:fa:c7:ad:be:b3:
                    fb:87:f1:d8:c6:b2:c0:3d:55:ef:3c:47:1f:b4:36:
                    4d:b8:c8:8b:50:20:f2:42:4c:76:7a:fc:aa:e2:07:
                    c3:5f:11:01:6b:d0:e8:56:91:ed:16:ed:e9:99:7e:
                    6a:64:e4:27:aa:88:0f:47:6b:f4:07:04:71:30:35:
                    18:21:fc:a9:1d:87:ed:e9:b3:3f:f8:91:a2:2d:52:
                    7b:58:58:a1:3e:20:19:64:2e:68:70:5c:06:ce:30:
                    cc:22:fd:5f:83:f0:01:04:2f:4c:09:cf:b8:55:d3:
                    9e:0f:7d:4a:96:d5:c9:e6:da:a4:54:b0:9f:16:eb:
                    70:67:44:d9:5d:5d:4b:df:73:ca:d8:9a:2e:f9:33:
                    cd:c2:9b:2e:68:24:99:6a:53:04:8f:c8:48:13:86:
                    89:65:ae:cf:06:82:da:ff:46:53:50:5e:de:c6:9a:
                    0f:c0:2e:03:e4:f9:d3:fe:c4:0d:ef:9d:32:1a:5e:
                    2b:a2:88:2e:7c:fa:7f:95:db:32:f3:24:13:2b:46:
                    8a:26:53:5d:8f:62:c4:7c:a3:a0:54:a3:99:5e:b2:
                    e7:83:80:4a:28:ad:9a:4a:f5:b6:5f:b1:df:45:ae:
                    30:3f:f6:af:26:2d:e1:24:cd:ac:8b:8a:2b:8c:cd:
                    88:18:3d
                Exponent: 65537 (0x10001)
        X509v3 extensions:
            X509v3 Basic Constraints: 
                CA:FALSE
            Netscape Comment: 
                Easy-RSA Generated Certificate
            X509v3 Subject Key Identifier: 
                E5:D5:82:FB:79:27:4B:04:6E:7C:69:33:9B:99:62:46:89:93:14:FE
            X509v3 Authority Key Identifier: 
                keyid:EF:38:8D:14:50:58:A7:5B:4D:9C:17:72:FC:DF:B9:AC:A7:51:B0:10
                DirName:/C=US/ST=CA/L=SanFrancisco/O=Pixglo, Inc./OU=VPN-CIE/CN=tunnel.pixglo.com/name=Bala Chandrasekaran/emailAddress=bala@pixglo.com
                serial:A6:DB:C6:83:80:E6:A0:79

            X509v3 Extended Key Usage: 
                TLS Web Client Authentication
            X509v3 Key Usage: 
                Digital Signature
    Signature Algorithm: sha1WithRSAEncryption
         d8:d5:08:01:21:ed:89:48:72:2f:3c:1d:72:a4:08:70:fa:e4:
         b9:c1:28:37:7d:10:47:96:07:e8:c7:50:e4:51:20:8d:c1:58:
         1d:1d:01:44:77:0b:8a:ae:22:9f:6a:d2:0d:73:18:54:75:3f:
         8c:96:fd:71:e6:11:b8:91:5d:90:b7:1a:e2:33:85:ac:8e:74:
         e6:32:f9:db:17:b3:42:c8:0f:fb:fa:92:57:37:c5:4e:cc:1d:
         e0:f7:19:62:f0:3d:8b:85:2e:22:34:f0:fa:58:85:4c:73:ac:
         75:9f:4f:09:4c:01:3f:72:ad:41:30:9c:e7:8c:5c:b4:7c:42:
         2d:ce:6a:38:ec:79:6b:06:58:58:26:dc:d4:1c:07:11:73:23:
         07:04:35:bb:42:70:3f:81:44:aa:30:1b:33:78:0d:a2:48:75:
         b2:9f:9c:94:10:21:23:5d:30:e5:01:0c:45:0b:79:c5:32:98:
         ff:1c:9a:b2:b6:43:30:77:8b:7f:1b:52:d3:d8:18:5c:af:e6:
         8d:b0:81:9f:02:8d:cb:ff:6f:08:cb:97:32:8d:26:82:63:6d:
         c4:f5:fd:5b:e8:25:cb:79:9c:ed:9a:24:4e:77:72:c1:cd:b8:
         89:2d:da:41:af:00:ed:81:c3:31:ae:8a:fe:c2:4b:23:07:34:
         97:dc:1f:dd:1f:c7:18:4e:87:e1:c4:c9:7e:71:31:2a:08:12:
         ef:85:4e:6d:d7:fe:c7:36:12:3c:72:88:55:8d:dc:26:e8:4c:
         d3:72:ac:e6:4c:5f:5c:72:f3:73:6e:c2:15:77:d2:fa:aa:1d:
         53:a2:b0:f6:6d:ba:42:2d:68:c5:76:e7:b2:8b:82:54:77:54:
         9b:3e:b2:bc:07:ac:4b:d9:1d:19:66:d6:8c:70:ff:62:af:4a:
         8a:88:4f:c8:fe:15:e8:01:f5:55:b1:94:47:96:76:fb:42:6e:
         a8:7c:f1:84:48:1f:68:c6:2f:62:b7:3b:f3:89:c5:e8:9a:d3:
         e3:f8:b5:b4:61:45:2c:0f:2c:8b:6f:e0:17:1d:a4:a2:43:dc:
         e7:79:0e:9f:79:0e:3c:25:1e:3f:ef:5f:5b:c9:70:17:95:29:
         57:4c:f3:5b:77:39:f4:e0:f5:2a:93:fc:e5:86:e1:dc:b7:75:
         6e:b2:c0:2c:d0:99:59:13:7c:ae:91:c0:29:a5:bf:9e:ba:38:
         d2:2e:22:2d:2f:c5:30:ee:10:28:1b:6d:ed:3e:e9:3d:3d:c8:
         bc:0f:af:7d:af:d2:85:ad:e8:8b:f9:4b:47:e3:8c:4b:bc:58:
         8a:43:08:d6:7c:88:e6:24:5c:9d:cc:a6:ec:26:08:87:85:5b:
         56:04:52:72:76:24:d6:9d
-----BEGIN CERTIFICATE-----
MIIHSDCCBTCgAwIBAgICA9kwDQYJKoZIhvcNAQEFBQAwgbQxCzAJBgNVBAYTAlVT
MQswCQYDVQQIEwJDQTEVMBMGA1UEBxMMU2FuRnJhbmNpc2NvMRUwEwYDVQQKEwxQ
aXhnbG8sIEluYy4xEDAOBgNVBAsTB1ZQTi1DSUUxGjAYBgNVBAMTEXR1bm5lbC5w
aXhnbG8uY29tMRwwGgYDVQQpExNCYWxhIENoYW5kcmFzZWthcmFuMR4wHAYJKoZI
hvcNAQkBFg9iYWxhQHBpeGdsby5jb20wHhcNMTgwMjE0MDY1MDAyWhcNMjgwMjEy
MDY1MDAyWjCBqTELMAkGA1UEBhMCVVMxCzAJBgNVBAgTAkNBMRUwEwYDVQQHEwxT
YW5GcmFuY2lzY28xFTATBgNVBAoTDFBpeGdsbywgSW5jLjEQMA4GA1UECxMHVlBO
LUNJRTEPMA0GA1UEAxMGY2llOTg0MRwwGgYDVQQpExNCYWxhIENoYW5kcmFzZWth
cmFuMR4wHAYJKoZIhvcNAQkBFg9iYWxhQHBpeGdsby5jb20wggIiMA0GCSqGSIb3
DQEBAQUAA4ICDwAwggIKAoICAQDc+YvkfRspIWlZ4In2UI8eViOtblM/PC7RoWYz
wGddXf1putRTXygl0PdZKKw+mj8htoIBXhR6d/KxNei1KtJRoVjGsWutlLBR8XAV
8S4C31BQ1ewscxDEtlkiP06jZtlRyTZ+u0F4qCCMF4v9YGtjdoEGAJ3ZmgY0qDLw
laLNUFmJslxrQ+BAmjuAXBMa/7kLk2X7i15dgM9nUNWlQ3+Yw1GOQrQ6ayvha/Yr
DtjxNiVzAO68DAspM7IRHOyy8AwLO+bryQvsUsnX5bRh7L66VGp8Qq8pk+i3dJVA
Yl8aIcol1qfKXA0FusrwPc1rFUI5CytFmqwShUii5xUr9r2fFb9rLCNP7j76x62+
s/uH8djGssA9Ve88Rx+0Nk24yItQIPJCTHZ6/KriB8NfEQFr0OhWke0W7emZfmpk
5CeqiA9Ha/QHBHEwNRgh/Kkdh+3psz/4kaItUntYWKE+IBlkLmhwXAbOMMwi/V+D
8AEEL0wJz7hV054PfUqW1cnm2qRUsJ8W63BnRNldXUvfc8rYmi75M83Cmy5oJJlq
UwSPyEgThollrs8Ggtr/RlNQXt7Gmg/ALgPk+dP+xA3vnTIaXiuiiC58+n+V2zLz
JBMrRoomU12PYsR8o6BUo5lesueDgEoorZpK9bZfsd9FrjA/9q8mLeEkzayLiiuM
zYgYPQIDAQABo4IBazCCAWcwCQYDVR0TBAIwADAtBglghkgBhvhCAQ0EIBYeRWFz
eS1SU0EgR2VuZXJhdGVkIENlcnRpZmljYXRlMB0GA1UdDgQWBBTl1YL7eSdLBG58
aTObmWJGiZMU/jCB6QYDVR0jBIHhMIHegBTvOI0UUFinW02cF3L837msp1GwEKGB
uqSBtzCBtDELMAkGA1UEBhMCVVMxCzAJBgNVBAgTAkNBMRUwEwYDVQQHEwxTYW5G
cmFuY2lzY28xFTATBgNVBAoTDFBpeGdsbywgSW5jLjEQMA4GA1UECxMHVlBOLUNJ
RTEaMBgGA1UEAxMRdHVubmVsLnBpeGdsby5jb20xHDAaBgNVBCkTE0JhbGEgQ2hh
bmRyYXNla2FyYW4xHjAcBgkqhkiG9w0BCQEWD2JhbGFAcGl4Z2xvLmNvbYIJAKbb
xoOA5qB5MBMGA1UdJQQMMAoGCCsGAQUFBwMCMAsGA1UdDwQEAwIHgDANBgkqhkiG
9w0BAQUFAAOCAgEA2NUIASHtiUhyLzwdcqQIcPrkucEoN30QR5YH6MdQ5FEgjcFY
HR0BRHcLiq4in2rSDXMYVHU/jJb9ceYRuJFdkLca4jOFrI505jL52xezQsgP+/qS
VzfFTswd4PcZYvA9i4UuIjTw+liFTHOsdZ9PCUwBP3KtQTCc54xctHxCLc5qOOx5
awZYWCbc1BwHEXMjBwQ1u0JwP4FEqjAbM3gNokh1sp+clBAhI10w5QEMRQt5xTKY
/xyasrZDMHeLfxtS09gYXK/mjbCBnwKNy/9vCMuXMo0mgmNtxPX9W+gly3mc7Zok
Tndywc24iS3aQa8A7YHDMa6K/sJLIwc0l9wf3R/HGE6H4cTJfnExKggS74VObdf+
xzYSPHKIVY3cJuhM03Ks5kxfXHLzc27CFXfS+qodU6Kw9m26Qi1oxXbnsouCVHdU
mz6yvAesS9kdGWbWjHD/Yq9KiohPyP4V6AH1VbGUR5Z2+0JuqHzxhEgfaMYvYrc7
84nF6JrT4/i1tGFFLA8si2/gFx2kokPc53kOn3kOPCUeP+9fW8lwF5UpV0zzW3c5
9OD1KpP85Ybh3Ld1brLALNCZWRN8rpHAKaW/nro40i4iLS/FMO4QKBtt7T7pPT3I
vA+vfa/Sha3oi/lLR+OMS7xYikMI1nyI5iRcncym7CYIh4VbVgRScnYk1p0=
-----END CERTIFICATE-----
