Certificate:
    Data:
        Version: 3 (0x2)
        Serial Number: 986 (0x3da)
    Signature Algorithm: sha1WithRSAEncryption
        Issuer: C=US, ST=CA, L=SanFrancisco, O=Pixglo, Inc., OU=VPN-CIE, CN=tunnel.pixglo.com/name=Bala Chandrasekaran/emailAddress=bala@pixglo.com
        Validity
            Not Before: Feb 14 06:50:04 2018 GMT
            Not After : Feb 12 06:50:04 2028 GMT
        Subject: C=US, ST=CA, L=SanFrancisco, O=Pixglo, Inc., OU=VPN-CIE, CN=cie985/name=Bala Chandrasekaran/emailAddress=bala@pixglo.com
        Subject Public Key Info:
            Public Key Algorithm: rsaEncryption
                Public-Key: (4096 bit)
                Modulus:
                    00:cf:1c:1e:8c:75:e0:a4:f5:33:20:33:13:9f:87:
                    69:7e:10:bc:06:1c:94:d6:94:69:2a:6d:99:7d:d1:
                    09:94:42:a7:10:1e:80:5b:14:93:d3:6e:55:af:06:
                    ab:cc:50:d3:68:5a:25:7e:4a:3f:5f:3c:0e:a1:e6:
                    78:4e:57:db:02:09:70:79:48:80:6c:20:d1:3a:b8:
                    17:5c:3f:32:14:66:3d:4d:5d:a1:5b:a9:b2:a6:40:
                    14:3a:81:5a:76:b5:0f:8d:01:9f:57:e2:9c:80:e3:
                    a6:88:bc:fa:08:a9:a2:0a:eb:d8:7e:1e:a9:af:44:
                    db:17:6a:ba:78:c0:5d:e4:b3:90:4a:04:6a:19:41:
                    29:cf:f0:57:d1:1f:d5:35:a6:b0:b2:4c:82:6c:e8:
                    df:22:bb:b2:8d:e0:89:2b:3f:f0:f7:28:d9:89:8e:
                    26:0e:7c:bf:2b:9b:9b:81:ee:e9:7a:3c:f1:43:aa:
                    28:97:c9:32:21:ae:67:98:f9:ef:18:82:7c:46:bf:
                    b7:51:c2:e9:9f:d2:37:35:94:41:ec:69:12:dd:05:
                    30:4c:f7:ab:76:8c:80:63:82:db:2a:fa:4d:a1:6b:
                    00:de:4b:f9:0e:72:20:bc:53:00:5d:ae:6f:19:56:
                    c5:8f:af:d2:eb:74:0c:43:60:d3:90:71:03:9e:0a:
                    70:04:b7:6b:38:16:af:ec:42:7d:c2:39:64:2d:16:
                    3b:5a:ab:83:a8:7a:dc:ea:74:6f:20:0d:9b:9d:e0:
                    58:07:90:bf:ab:53:dc:10:7e:21:60:2e:7f:2f:d5:
                    d1:26:9d:3e:43:17:fd:bf:72:a6:9b:39:12:cb:34:
                    58:cd:3c:71:b8:6b:a0:41:25:75:96:c8:53:71:60:
                    24:28:59:ef:c9:7d:fe:2b:cd:70:fc:93:87:6b:11:
                    ca:f8:6c:eb:58:49:5c:fe:0b:61:15:98:1f:44:50:
                    d6:51:cb:cd:24:c8:36:6d:84:8d:8b:f9:b3:7f:af:
                    4c:44:3f:2c:61:e6:50:96:9b:35:e1:da:62:0d:2f:
                    97:c1:fd:0d:ec:41:31:9b:b5:79:c5:aa:b9:71:c6:
                    ce:c6:7b:98:13:b5:e4:46:ca:63:f5:b8:45:95:68:
                    ef:32:86:57:2e:f2:37:dd:b4:3a:cc:d4:8d:cf:dd:
                    20:ca:a4:b5:02:7c:4e:0e:87:9f:7d:4b:64:22:8f:
                    1b:61:f6:fd:15:5e:0c:1e:56:31:7e:73:72:81:e0:
                    a5:d2:a4:17:7c:66:c7:2c:42:d9:2f:63:09:fe:f7:
                    1b:21:6a:dd:ef:1f:7d:aa:2b:41:3b:7f:14:5b:d1:
                    c8:c9:ef:75:40:95:53:6b:6c:b0:12:ea:99:d8:3b:
                    43:1d:47
                Exponent: 65537 (0x10001)
        X509v3 extensions:
            X509v3 Basic Constraints: 
                CA:FALSE
            Netscape Comment: 
                Easy-RSA Generated Certificate
            X509v3 Subject Key Identifier: 
                26:AD:DA:95:76:EA:FE:9F:AF:2F:44:34:DD:80:77:DD:CE:B1:68:1D
            X509v3 Authority Key Identifier: 
                keyid:EF:38:8D:14:50:58:A7:5B:4D:9C:17:72:FC:DF:B9:AC:A7:51:B0:10
                DirName:/C=US/ST=CA/L=SanFrancisco/O=Pixglo, Inc./OU=VPN-CIE/CN=tunnel.pixglo.com/name=Bala Chandrasekaran/emailAddress=bala@pixglo.com
                serial:A6:DB:C6:83:80:E6:A0:79

            X509v3 Extended Key Usage: 
                TLS Web Client Authentication
            X509v3 Key Usage: 
                Digital Signature
    Signature Algorithm: sha1WithRSAEncryption
         d4:23:7f:18:0b:c5:54:2e:dd:5a:60:b2:61:4c:4e:4b:0f:f4:
         60:7a:b4:e2:6e:e1:c2:1a:1f:ca:da:2c:04:12:63:0f:ec:74:
         f7:ce:a1:06:01:00:5d:78:97:da:44:02:a7:fc:40:c9:ba:4c:
         45:46:dc:40:0a:41:cb:36:d9:ef:dc:f6:25:0e:15:b0:d7:a7:
         56:1a:49:34:24:c6:7f:a3:19:d9:b8:64:62:f4:d1:41:e0:f2:
         ac:10:50:65:11:d0:1a:88:5c:28:5b:97:a4:49:ee:23:42:66:
         9c:e0:e4:44:b1:a1:60:b7:b4:12:bc:da:b9:7c:67:ae:e1:d3:
         70:30:f5:e6:4d:11:b1:7d:54:9c:dd:83:33:03:e2:a5:5a:01:
         69:78:70:67:3e:95:8d:32:76:1b:d2:23:61:75:33:fd:99:7f:
         f2:91:d1:35:4e:d8:d0:bd:fd:6e:cb:4e:de:6a:e9:16:6a:8c:
         5c:91:bd:eb:07:50:5f:01:09:74:1c:1c:75:cd:40:e4:b5:24:
         e2:f5:5c:2d:70:56:a0:65:c3:d8:54:c9:b9:21:ad:cc:e6:df:
         53:f9:0d:9c:6b:20:d1:80:07:dd:60:cc:cc:71:83:c7:30:7e:
         6a:d5:8c:44:ef:bf:8d:c2:d9:3b:49:64:40:41:fa:a4:97:24:
         8c:ff:22:bc:c9:70:10:50:2c:51:59:e0:5d:55:a0:03:4c:79:
         e4:6d:60:47:43:53:df:70:08:6b:45:3d:fe:23:a4:7c:2c:66:
         92:eb:31:28:3c:32:ff:23:99:7d:52:e7:66:ce:b3:9b:a7:27:
         16:c5:74:66:44:2a:ba:e5:df:9b:6e:b1:b2:db:e9:9e:06:57:
         41:5b:cb:12:ee:64:ca:dd:68:85:45:ee:aa:3d:00:8b:e1:1e:
         08:7b:b1:7b:79:ef:b3:33:14:b8:70:6b:e1:c2:20:1a:2f:55:
         01:4b:9a:6c:76:d6:45:24:34:ff:84:b6:4e:e9:a8:26:dc:bc:
         3b:ab:42:70:80:f5:60:8f:a6:a0:9d:ef:eb:de:fe:b6:ec:c3:
         f3:68:27:61:98:17:a3:4c:da:fa:53:72:1a:40:bc:55:a4:d6:
         31:31:eb:69:d0:68:8f:37:4b:ea:07:62:72:c0:4c:09:35:09:
         46:0c:29:f0:24:d2:04:51:77:8f:08:11:93:6b:76:ed:49:ca:
         28:35:26:65:cd:91:93:e2:68:c1:74:76:e3:b0:5b:f1:79:1e:
         87:72:2f:57:21:02:4a:c8:d6:7b:f0:52:2c:af:bc:d5:81:13:
         29:1a:4e:e4:75:29:30:eb:9a:0a:f9:81:87:4e:96:b3:9a:be:
         4d:e4:18:51:50:41:6a:21
-----BEGIN CERTIFICATE-----
MIIHSDCCBTCgAwIBAgICA9owDQYJKoZIhvcNAQEFBQAwgbQxCzAJBgNVBAYTAlVT
MQswCQYDVQQIEwJDQTEVMBMGA1UEBxMMU2FuRnJhbmNpc2NvMRUwEwYDVQQKEwxQ
aXhnbG8sIEluYy4xEDAOBgNVBAsTB1ZQTi1DSUUxGjAYBgNVBAMTEXR1bm5lbC5w
aXhnbG8uY29tMRwwGgYDVQQpExNCYWxhIENoYW5kcmFzZWthcmFuMR4wHAYJKoZI
hvcNAQkBFg9iYWxhQHBpeGdsby5jb20wHhcNMTgwMjE0MDY1MDA0WhcNMjgwMjEy
MDY1MDA0WjCBqTELMAkGA1UEBhMCVVMxCzAJBgNVBAgTAkNBMRUwEwYDVQQHEwxT
YW5GcmFuY2lzY28xFTATBgNVBAoTDFBpeGdsbywgSW5jLjEQMA4GA1UECxMHVlBO
LUNJRTEPMA0GA1UEAxMGY2llOTg1MRwwGgYDVQQpExNCYWxhIENoYW5kcmFzZWth
cmFuMR4wHAYJKoZIhvcNAQkBFg9iYWxhQHBpeGdsby5jb20wggIiMA0GCSqGSIb3
DQEBAQUAA4ICDwAwggIKAoICAQDPHB6MdeCk9TMgMxOfh2l+ELwGHJTWlGkqbZl9
0QmUQqcQHoBbFJPTblWvBqvMUNNoWiV+Sj9fPA6h5nhOV9sCCXB5SIBsINE6uBdc
PzIUZj1NXaFbqbKmQBQ6gVp2tQ+NAZ9X4pyA46aIvPoIqaIK69h+HqmvRNsXarp4
wF3ks5BKBGoZQSnP8FfRH9U1prCyTIJs6N8iu7KN4IkrP/D3KNmJjiYOfL8rm5uB
7ul6PPFDqiiXyTIhrmeY+e8YgnxGv7dRwumf0jc1lEHsaRLdBTBM96t2jIBjgtsq
+k2hawDeS/kOciC8UwBdrm8ZVsWPr9LrdAxDYNOQcQOeCnAEt2s4Fq/sQn3COWQt
Fjtaq4OoetzqdG8gDZud4FgHkL+rU9wQfiFgLn8v1dEmnT5DF/2/cqabORLLNFjN
PHG4a6BBJXWWyFNxYCQoWe/Jff4rzXD8k4drEcr4bOtYSVz+C2EVmB9EUNZRy80k
yDZthI2L+bN/r0xEPyxh5lCWmzXh2mINL5fB/Q3sQTGbtXnFqrlxxs7Ge5gTteRG
ymP1uEWVaO8yhlcu8jfdtDrM1I3P3SDKpLUCfE4Oh599S2Qijxth9v0VXgweVjF+
c3KB4KXSpBd8ZscsQtkvYwn+9xshat3vH32qK0E7fxRb0cjJ73VAlVNrbLAS6pnY
O0MdRwIDAQABo4IBazCCAWcwCQYDVR0TBAIwADAtBglghkgBhvhCAQ0EIBYeRWFz
eS1SU0EgR2VuZXJhdGVkIENlcnRpZmljYXRlMB0GA1UdDgQWBBQmrdqVdur+n68v
RDTdgHfdzrFoHTCB6QYDVR0jBIHhMIHegBTvOI0UUFinW02cF3L837msp1GwEKGB
uqSBtzCBtDELMAkGA1UEBhMCVVMxCzAJBgNVBAgTAkNBMRUwEwYDVQQHEwxTYW5G
cmFuY2lzY28xFTATBgNVBAoTDFBpeGdsbywgSW5jLjEQMA4GA1UECxMHVlBOLUNJ
RTEaMBgGA1UEAxMRdHVubmVsLnBpeGdsby5jb20xHDAaBgNVBCkTE0JhbGEgQ2hh
bmRyYXNla2FyYW4xHjAcBgkqhkiG9w0BCQEWD2JhbGFAcGl4Z2xvLmNvbYIJAKbb
xoOA5qB5MBMGA1UdJQQMMAoGCCsGAQUFBwMCMAsGA1UdDwQEAwIHgDANBgkqhkiG
9w0BAQUFAAOCAgEA1CN/GAvFVC7dWmCyYUxOSw/0YHq04m7hwhofytosBBJjD+x0
986hBgEAXXiX2kQCp/xAybpMRUbcQApByzbZ79z2JQ4VsNenVhpJNCTGf6MZ2bhk
YvTRQeDyrBBQZRHQGohcKFuXpEnuI0JmnODkRLGhYLe0ErzauXxnruHTcDD15k0R
sX1UnN2DMwPipVoBaXhwZz6VjTJ2G9IjYXUz/Zl/8pHRNU7Y0L39bstO3mrpFmqM
XJG96wdQXwEJdBwcdc1A5LUk4vVcLXBWoGXD2FTJuSGtzObfU/kNnGsg0YAH3WDM
zHGDxzB+atWMRO+/jcLZO0lkQEH6pJckjP8ivMlwEFAsUVngXVWgA0x55G1gR0NT
33AIa0U9/iOkfCxmkusxKDwy/yOZfVLnZs6zm6cnFsV0ZkQquuXfm26xstvpngZX
QVvLEu5kyt1ohUXuqj0Ai+EeCHuxe3nvszMUuHBr4cIgGi9VAUuabHbWRSQ0/4S2
TumoJty8O6tCcID1YI+moJ3v697+tuzD82gnYZgXo0za+lNyGkC8VaTWMTHradBo
jzdL6gdicsBMCTUJRgwp8CTSBFF3jwgRk2t27UnKKDUmZc2Rk+JowXR247Bb8Xke
h3IvVyECSsjWe/BSLK+81YETKRpO5HUpMOuaCvmBh06Ws5q+TeQYUVBBaiE=
-----END CERTIFICATE-----
