Certificate:
    Data:
        Version: 3 (0x2)
        Serial Number: 988 (0x3dc)
    Signature Algorithm: sha1WithRSAEncryption
        Issuer: C=US, ST=CA, L=SanFrancisco, O=Pixglo, Inc., OU=VPN-CIE, CN=tunnel.pixglo.com/name=Bala Chandrasekaran/emailAddress=bala@pixglo.com
        Validity
            Not Before: Feb 14 06:50:06 2018 GMT
            Not After : Feb 12 06:50:06 2028 GMT
        Subject: C=US, ST=CA, L=SanFrancisco, O=Pixglo, Inc., OU=VPN-CIE, CN=cie987/name=Bala Chandrasekaran/emailAddress=bala@pixglo.com
        Subject Public Key Info:
            Public Key Algorithm: rsaEncryption
                Public-Key: (4096 bit)
                Modulus:
                    00:a9:8a:fe:98:24:24:08:26:f5:79:50:0e:7a:e7:
                    15:11:33:77:4b:05:ca:81:0d:ed:4e:19:11:f4:07:
                    b7:a4:94:fe:76:ff:5e:5b:9f:9d:60:ef:0d:e0:93:
                    c4:ba:fa:64:e2:af:9a:85:d7:3e:71:df:a1:c0:21:
                    10:e8:2f:9c:3c:df:7a:00:93:e1:ed:66:d9:d8:15:
                    c2:58:25:4a:4b:51:52:a4:16:11:1b:24:aa:05:c1:
                    48:1b:22:28:af:f7:36:39:9d:bb:c0:d3:72:df:64:
                    2f:a7:a6:b5:62:6e:9a:df:f0:97:15:77:e1:49:71:
                    e6:0c:a4:33:95:34:5d:7b:94:4a:6a:4c:a4:b5:90:
                    31:84:f9:a0:96:2b:f8:78:2f:93:ef:2d:44:90:1c:
                    0d:0a:5f:8c:ce:99:cf:d2:41:2c:b7:2f:a9:c3:f0:
                    ff:ea:19:fe:4a:46:80:98:b9:c6:d9:b9:fd:fd:f5:
                    ae:14:62:4b:51:d6:68:b7:0f:28:e3:95:17:f9:68:
                    85:52:07:4b:8d:c4:65:31:a2:c2:7e:1c:62:f3:67:
                    fa:a7:28:d6:3c:70:05:9a:ad:5c:71:51:f3:98:0e:
                    df:76:bc:ee:eb:21:fa:0a:a1:36:05:fc:46:0d:a8:
                    eb:7a:e5:1c:e1:90:fc:17:7c:79:db:df:61:09:9c:
                    9c:3d:5e:6c:d0:d0:2f:d9:a5:09:05:c0:f2:14:14:
                    ee:36:fa:81:8a:8d:86:72:30:db:5f:2e:de:9a:43:
                    c4:24:3b:21:4b:3d:c5:3c:9b:28:29:1c:61:49:99:
                    83:3f:97:95:d4:ac:2d:cf:14:c9:f0:20:89:36:a6:
                    a3:fd:14:c5:ef:5e:f2:dd:65:c9:7f:dd:8c:89:cd:
                    43:06:f5:4c:7b:b0:f7:4e:72:0c:1f:30:82:40:56:
                    d9:43:82:c4:9e:4b:d2:c7:58:1a:03:fb:7c:42:a5:
                    b5:3c:14:a0:01:e7:45:e4:31:be:58:a0:01:a1:d9:
                    42:34:42:8d:c6:6e:04:03:06:cd:b6:86:d5:58:cf:
                    8b:86:0c:f7:90:8a:9a:e0:e1:01:a1:9d:7d:ec:35:
                    6f:18:12:07:75:79:55:ed:06:eb:12:25:80:98:51:
                    00:6f:07:55:98:e7:72:b1:22:bd:d2:6a:d9:ae:50:
                    99:f0:65:c1:5d:66:fa:9f:55:0d:db:10:81:11:20:
                    7f:6f:88:23:0d:ca:87:43:71:3e:61:14:c3:6a:c5:
                    6d:42:ad:fe:a8:88:6c:25:be:c6:5b:93:ce:a1:a2:
                    20:f9:7c:f2:01:e2:14:97:9a:d7:b4:87:ca:78:a6:
                    ef:0d:6d:48:cb:7b:2d:72:6a:c8:83:5e:2d:48:fa:
                    7e:42:1b
                Exponent: 65537 (0x10001)
        X509v3 extensions:
            X509v3 Basic Constraints: 
                CA:FALSE
            Netscape Comment: 
                Easy-RSA Generated Certificate
            X509v3 Subject Key Identifier: 
                7D:3A:93:7A:15:1F:BD:43:2E:2C:6F:AF:F9:1F:A1:C9:44:98:10:B2
            X509v3 Authority Key Identifier: 
                keyid:EF:38:8D:14:50:58:A7:5B:4D:9C:17:72:FC:DF:B9:AC:A7:51:B0:10
                DirName:/C=US/ST=CA/L=SanFrancisco/O=Pixglo, Inc./OU=VPN-CIE/CN=tunnel.pixglo.com/name=Bala Chandrasekaran/emailAddress=bala@pixglo.com
                serial:A6:DB:C6:83:80:E6:A0:79

            X509v3 Extended Key Usage: 
                TLS Web Client Authentication
            X509v3 Key Usage: 
                Digital Signature
    Signature Algorithm: sha1WithRSAEncryption
         a4:c7:5c:20:f7:55:0c:9b:56:88:13:2d:b5:d4:80:b9:3f:01:
         c1:ae:b6:f8:95:3b:dd:e3:09:c6:0a:a9:1e:37:21:de:72:b1:
         07:88:fb:22:25:e2:a0:a0:59:0c:c2:91:17:79:38:da:06:c9:
         0d:38:34:ce:eb:60:60:e7:4e:8f:63:00:e2:4f:e2:e5:2f:a6:
         8c:07:57:8f:71:19:10:9a:ea:bf:b5:c2:7e:75:3b:4f:98:24:
         e7:eb:14:74:b5:c5:73:c7:fb:89:fb:e8:8c:d5:81:2a:22:c0:
         f6:2a:17:61:00:17:af:0e:7c:e1:7b:e0:a3:00:4f:1d:4f:d8:
         20:29:dd:8c:da:d6:31:d8:b7:d1:86:c1:21:b3:b3:b9:b1:df:
         26:9a:ea:82:a9:e5:42:33:bf:51:af:0b:48:aa:1d:09:6e:b2:
         8c:f1:5d:7d:a4:54:e0:8b:18:da:3d:6c:4a:3f:62:ad:66:d7:
         32:22:c1:ab:59:d0:00:e0:6d:55:b0:f0:1f:3d:f0:5b:be:72:
         77:c9:80:7b:a3:04:75:ba:80:d3:22:3b:5c:49:ef:c8:d5:1e:
         22:c4:bc:34:b6:a3:e2:9a:fb:25:aa:fe:99:27:7c:a3:78:65:
         77:74:b8:86:f3:68:2d:5b:bc:7b:8c:c9:be:ec:51:10:ea:50:
         7e:73:0b:01:9a:f7:de:5d:de:06:83:d7:a0:75:f8:d9:3d:62:
         eb:b9:df:34:40:ed:98:58:20:06:e6:5a:6c:a8:dd:8e:66:86:
         36:68:75:17:ca:ff:73:31:ac:4a:56:1e:be:f8:bb:39:99:4e:
         af:82:a3:4d:09:85:7b:1a:dc:1e:9c:15:e2:b5:9e:77:b6:04:
         22:dd:45:18:e7:dd:09:9c:60:e8:61:79:5b:99:34:2e:54:85:
         25:f0:8f:cd:1e:e7:33:6a:91:b0:50:f1:a3:d7:cd:5f:31:d7:
         f9:f1:b1:77:2c:76:e4:42:6d:97:4c:6e:04:a9:6e:9c:29:32:
         e6:2f:77:aa:ce:5d:e1:ae:ec:08:9e:1f:f4:db:fd:18:89:92:
         d9:34:e2:54:9a:ad:6b:29:40:94:45:cf:02:98:6a:6b:4d:b7:
         e8:35:b0:43:c9:13:51:8e:a3:e4:2c:82:ee:54:62:10:74:18:
         d0:0c:a8:78:1c:aa:b3:ae:ae:8f:0e:c0:9d:ea:f6:dd:78:60:
         fc:be:7b:ca:64:a5:0d:e6:bc:83:fc:a6:b8:3f:23:e7:11:90:
         65:85:a9:1d:71:f1:c5:29:72:cc:59:30:75:9c:b3:51:48:63:
         5d:9e:58:6c:7d:6e:e7:54:d6:e7:23:10:2a:74:d1:4b:07:81:
         c9:24:8f:ed:41:f2:91:da
-----BEGIN CERTIFICATE-----
MIIHSDCCBTCgAwIBAgICA9wwDQYJKoZIhvcNAQEFBQAwgbQxCzAJBgNVBAYTAlVT
MQswCQYDVQQIEwJDQTEVMBMGA1UEBxMMU2FuRnJhbmNpc2NvMRUwEwYDVQQKEwxQ
aXhnbG8sIEluYy4xEDAOBgNVBAsTB1ZQTi1DSUUxGjAYBgNVBAMTEXR1bm5lbC5w
aXhnbG8uY29tMRwwGgYDVQQpExNCYWxhIENoYW5kcmFzZWthcmFuMR4wHAYJKoZI
hvcNAQkBFg9iYWxhQHBpeGdsby5jb20wHhcNMTgwMjE0MDY1MDA2WhcNMjgwMjEy
MDY1MDA2WjCBqTELMAkGA1UEBhMCVVMxCzAJBgNVBAgTAkNBMRUwEwYDVQQHEwxT
YW5GcmFuY2lzY28xFTATBgNVBAoTDFBpeGdsbywgSW5jLjEQMA4GA1UECxMHVlBO
LUNJRTEPMA0GA1UEAxMGY2llOTg3MRwwGgYDVQQpExNCYWxhIENoYW5kcmFzZWth
cmFuMR4wHAYJKoZIhvcNAQkBFg9iYWxhQHBpeGdsby5jb20wggIiMA0GCSqGSIb3
DQEBAQUAA4ICDwAwggIKAoICAQCpiv6YJCQIJvV5UA565xURM3dLBcqBDe1OGRH0
B7eklP52/15bn51g7w3gk8S6+mTir5qF1z5x36HAIRDoL5w833oAk+HtZtnYFcJY
JUpLUVKkFhEbJKoFwUgbIiiv9zY5nbvA03LfZC+nprVibprf8JcVd+FJceYMpDOV
NF17lEpqTKS1kDGE+aCWK/h4L5PvLUSQHA0KX4zOmc/SQSy3L6nD8P/qGf5KRoCY
ucbZuf399a4UYktR1mi3DyjjlRf5aIVSB0uNxGUxosJ+HGLzZ/qnKNY8cAWarVxx
UfOYDt92vO7rIfoKoTYF/EYNqOt65RzhkPwXfHnb32EJnJw9XmzQ0C/ZpQkFwPIU
FO42+oGKjYZyMNtfLt6aQ8QkOyFLPcU8mygpHGFJmYM/l5XUrC3PFMnwIIk2pqP9
FMXvXvLdZcl/3YyJzUMG9Ux7sPdOcgwfMIJAVtlDgsSeS9LHWBoD+3xCpbU8FKAB
50XkMb5YoAGh2UI0Qo3GbgQDBs22htVYz4uGDPeQiprg4QGhnX3sNW8YEgd1eVXt
BusSJYCYUQBvB1WY53KxIr3SatmuUJnwZcFdZvqfVQ3bEIERIH9viCMNyodDcT5h
FMNqxW1Crf6oiGwlvsZbk86hoiD5fPIB4hSXmte0h8p4pu8NbUjLey1yasiDXi1I
+n5CGwIDAQABo4IBazCCAWcwCQYDVR0TBAIwADAtBglghkgBhvhCAQ0EIBYeRWFz
eS1SU0EgR2VuZXJhdGVkIENlcnRpZmljYXRlMB0GA1UdDgQWBBR9OpN6FR+9Qy4s
b6/5H6HJRJgQsjCB6QYDVR0jBIHhMIHegBTvOI0UUFinW02cF3L837msp1GwEKGB
uqSBtzCBtDELMAkGA1UEBhMCVVMxCzAJBgNVBAgTAkNBMRUwEwYDVQQHEwxTYW5G
cmFuY2lzY28xFTATBgNVBAoTDFBpeGdsbywgSW5jLjEQMA4GA1UECxMHVlBOLUNJ
RTEaMBgGA1UEAxMRdHVubmVsLnBpeGdsby5jb20xHDAaBgNVBCkTE0JhbGEgQ2hh
bmRyYXNla2FyYW4xHjAcBgkqhkiG9w0BCQEWD2JhbGFAcGl4Z2xvLmNvbYIJAKbb
xoOA5qB5MBMGA1UdJQQMMAoGCCsGAQUFBwMCMAsGA1UdDwQEAwIHgDANBgkqhkiG
9w0BAQUFAAOCAgEApMdcIPdVDJtWiBMttdSAuT8Bwa62+JU73eMJxgqpHjch3nKx
B4j7IiXioKBZDMKRF3k42gbJDTg0zutgYOdOj2MA4k/i5S+mjAdXj3EZEJrqv7XC
fnU7T5gk5+sUdLXFc8f7ifvojNWBKiLA9ioXYQAXrw584XvgowBPHU/YICndjNrW
Mdi30YbBIbOzubHfJprqgqnlQjO/Ua8LSKodCW6yjPFdfaRU4IsY2j1sSj9irWbX
MiLBq1nQAOBtVbDwHz3wW75yd8mAe6MEdbqA0yI7XEnvyNUeIsS8NLaj4pr7Jar+
mSd8o3hld3S4hvNoLVu8e4zJvuxREOpQfnMLAZr33l3eBoPXoHX42T1i67nfNEDt
mFggBuZabKjdjmaGNmh1F8r/czGsSlYevvi7OZlOr4KjTQmFexrcHpwV4rWed7YE
It1FGOfdCZxg6GF5W5k0LlSFJfCPzR7nM2qRsFDxo9fNXzHX+fGxdyx25EJtl0xu
BKlunCky5i93qs5d4a7sCJ4f9Nv9GImS2TTiVJqtaylAlEXPAphqa0236DWwQ8kT
UY6j5CyC7lRiEHQY0AyoeByqs66ujw7Aner23Xhg/L57ymSlDea8g/ymuD8j5xGQ
ZYWpHXHxxSlyzFkwdZyzUUhjXZ5YbH1u51TW5yMQKnTRSweBySSP7UHykdo=
-----END CERTIFICATE-----
