Certificate:
    Data:
        Version: 3 (0x2)
        Serial Number: 992 (0x3e0)
    Signature Algorithm: sha1WithRSAEncryption
        Issuer: C=US, ST=CA, L=SanFrancisco, O=Pixglo, Inc., OU=VPN-CIE, CN=tunnel.pixglo.com/name=Bala Chandrasekaran/emailAddress=bala@pixglo.com
        Validity
            Not Before: Feb 14 06:50:14 2018 GMT
            Not After : Feb 12 06:50:14 2028 GMT
        Subject: C=US, ST=CA, L=SanFrancisco, O=Pixglo, Inc., OU=VPN-CIE, CN=cie991/name=Bala Chandrasekaran/emailAddress=bala@pixglo.com
        Subject Public Key Info:
            Public Key Algorithm: rsaEncryption
                Public-Key: (4096 bit)
                Modulus:
                    00:c8:36:c1:b9:ea:bc:a5:2e:8a:99:d1:39:5d:fa:
                    04:9d:cf:fd:2d:ae:46:0d:3e:8e:a3:6d:ef:e7:f4:
                    f0:e0:c7:c8:4a:e1:ad:7f:cb:69:3c:a4:f3:3d:1e:
                    a7:25:d8:76:79:6f:8a:9d:6c:34:d8:f8:a1:4f:24:
                    6b:a9:c5:5b:65:10:df:bc:dd:99:3a:3b:41:7c:ef:
                    e2:f2:1e:39:a7:6f:28:8c:e0:af:a4:98:2d:71:bb:
                    66:71:bf:c5:75:91:09:61:f5:61:55:96:94:2a:96:
                    74:11:0d:e0:c6:be:82:11:78:7a:f8:e3:6d:59:3c:
                    8b:e3:ee:24:47:fc:f1:be:3f:47:3c:9f:26:b6:27:
                    ac:3b:bf:de:b4:3c:64:27:fa:1a:81:f8:98:39:a7:
                    62:7d:ee:db:4e:3b:07:66:0b:ac:7c:bb:04:e5:d6:
                    02:a4:60:d3:33:e5:ca:41:01:0e:25:ad:08:cc:0a:
                    3c:81:8e:ce:ad:ed:2b:a8:a7:e2:9f:b3:b1:8e:4c:
                    50:56:67:5a:6f:11:f1:c2:85:e5:06:65:ec:b9:46:
                    a3:ae:d1:b4:93:4e:0d:b1:75:06:ea:fa:13:91:97:
                    53:a0:8e:e3:18:e1:8a:8d:d5:47:56:c1:7d:c9:01:
                    e1:aa:d8:fd:2e:5d:ed:55:2c:d0:4e:90:25:a8:82:
                    06:e6:40:25:3a:94:c6:5f:8d:70:66:2d:8c:93:ac:
                    33:f7:d2:46:52:51:97:d0:5e:4a:41:dc:2a:67:a4:
                    71:44:da:32:dc:10:9f:ee:97:79:39:9b:c5:7f:60:
                    2b:ab:17:7c:56:8a:16:d7:e1:b6:13:f8:b8:50:ef:
                    5e:34:76:ae:ff:ec:24:ef:03:c6:33:19:30:35:1f:
                    10:2d:1b:d4:26:1c:1d:b5:19:71:c1:fc:7d:71:4c:
                    b6:c1:be:a4:b4:e1:47:8a:89:b7:3e:e7:20:b0:26:
                    b2:a7:28:e9:38:f2:6a:c9:ee:9d:9a:ce:bb:c4:9d:
                    39:e2:7e:ae:3e:9e:a3:1b:9a:d2:3b:ad:01:b3:09:
                    d7:41:47:0d:c7:0a:90:86:8c:4b:61:67:23:fa:c1:
                    d6:14:e3:9a:8d:ed:14:4d:7f:4c:a7:62:87:80:72:
                    b4:20:d2:06:a9:40:7e:a1:94:95:20:0c:d0:4e:da:
                    48:12:b0:ed:98:e6:c0:68:06:a2:d3:6b:1c:10:20:
                    a0:30:91:70:9b:a8:f5:a1:7f:d1:9d:70:34:54:24:
                    c0:1a:f5:71:65:f6:18:7f:c9:01:47:11:c0:da:c9:
                    d8:8a:5b:b9:f7:59:1b:38:d9:5e:ef:72:4c:78:5b:
                    f5:29:9c:a3:f6:4f:43:1e:0b:7b:fa:6a:20:fb:3e:
                    ad:06:11
                Exponent: 65537 (0x10001)
        X509v3 extensions:
            X509v3 Basic Constraints: 
                CA:FALSE
            Netscape Comment: 
                Easy-RSA Generated Certificate
            X509v3 Subject Key Identifier: 
                4F:70:B7:A6:E6:18:63:24:C4:AF:0B:80:DD:86:AF:45:FD:45:A6:7B
            X509v3 Authority Key Identifier: 
                keyid:EF:38:8D:14:50:58:A7:5B:4D:9C:17:72:FC:DF:B9:AC:A7:51:B0:10
                DirName:/C=US/ST=CA/L=SanFrancisco/O=Pixglo, Inc./OU=VPN-CIE/CN=tunnel.pixglo.com/name=Bala Chandrasekaran/emailAddress=bala@pixglo.com
                serial:A6:DB:C6:83:80:E6:A0:79

            X509v3 Extended Key Usage: 
                TLS Web Client Authentication
            X509v3 Key Usage: 
                Digital Signature
    Signature Algorithm: sha1WithRSAEncryption
         9d:3d:ef:79:52:cc:15:47:d4:31:80:23:08:1a:58:8d:5a:0e:
         6a:ed:a2:ce:73:35:8a:0c:2d:9f:c0:ed:f6:d5:83:18:81:f1:
         18:ae:6f:3e:16:f2:94:85:2f:7a:fb:22:d8:48:ea:2d:4a:30:
         82:b0:97:58:97:60:f5:e8:ab:d4:39:80:00:06:59:07:a0:c2:
         b4:fb:31:f3:9f:37:1a:fa:55:cd:8e:80:8a:36:dd:85:73:4a:
         bc:fe:3a:cc:10:86:b8:dc:c0:b6:a9:06:3c:c7:dc:b6:59:1f:
         ba:9b:b9:95:2d:74:3c:ca:31:f0:c5:4a:9b:16:e2:67:50:0b:
         71:fd:4c:fd:9c:4a:d2:0d:e9:84:d6:b8:d9:8b:7f:82:53:32:
         9d:2e:de:21:2b:84:28:85:cf:e9:ff:2c:a6:cf:a8:f6:44:0f:
         00:f7:d5:06:89:5b:e5:81:d2:0b:c1:ce:90:a6:3e:a3:26:ba:
         b6:49:39:fd:81:8f:54:39:95:60:8d:4a:49:80:a1:8a:bc:65:
         86:28:62:6d:fe:39:0a:48:cc:1a:1c:8b:40:a0:6d:b7:ee:40:
         dc:10:e5:81:e1:dc:ed:1f:d0:ee:6f:da:e3:c5:b8:c3:6c:ef:
         95:f6:7d:a9:4e:32:49:bc:41:4b:57:f2:e2:28:34:50:ba:7b:
         ea:18:2a:e6:45:e6:e7:99:ac:3d:bf:19:80:4b:3e:69:b8:52:
         c6:4f:a9:05:c9:91:97:7a:e9:92:88:f4:a0:7f:65:23:53:4f:
         11:96:5a:d5:07:50:a7:88:45:4d:0b:ad:e0:c0:47:04:31:c0:
         88:f2:5b:73:7d:39:36:95:83:79:50:22:fb:87:69:23:c1:7a:
         92:52:1d:44:5b:dd:b7:f5:9e:7b:ca:ce:8c:2e:6e:8e:5d:ff:
         ac:46:28:aa:e8:8c:70:cd:7a:33:58:7e:65:0f:b9:55:e2:93:
         df:9f:8b:77:aa:a3:6e:5b:ae:1a:fc:d7:14:58:4d:9d:92:78:
         56:81:e9:44:1e:aa:2f:92:cb:27:a2:6f:c3:5a:d3:c8:68:af:
         68:0e:a3:67:28:7f:cf:c9:3d:8a:cd:8b:bd:01:0d:3d:f0:3b:
         f9:5d:43:fc:bb:e7:9a:bf:86:8d:ff:bb:6e:72:17:9a:6f:04:
         d2:f9:63:e8:73:17:06:5a:63:8e:3a:c7:e6:b9:42:2e:ec:e4:
         dc:93:7c:90:71:b3:bc:1f:42:ee:f2:6a:18:0e:0a:4b:d4:0e:
         e5:c7:b8:9f:64:7f:7d:45:29:49:a1:13:c5:8b:78:42:73:e0:
         58:d4:ef:ba:b0:62:b3:bc:16:1d:e3:34:24:43:d5:cc:1b:ed:
         5f:50:05:ec:ac:da:25:ab
-----BEGIN CERTIFICATE-----
MIIHSDCCBTCgAwIBAgICA+AwDQYJKoZIhvcNAQEFBQAwgbQxCzAJBgNVBAYTAlVT
MQswCQYDVQQIEwJDQTEVMBMGA1UEBxMMU2FuRnJhbmNpc2NvMRUwEwYDVQQKEwxQ
aXhnbG8sIEluYy4xEDAOBgNVBAsTB1ZQTi1DSUUxGjAYBgNVBAMTEXR1bm5lbC5w
aXhnbG8uY29tMRwwGgYDVQQpExNCYWxhIENoYW5kcmFzZWthcmFuMR4wHAYJKoZI
hvcNAQkBFg9iYWxhQHBpeGdsby5jb20wHhcNMTgwMjE0MDY1MDE0WhcNMjgwMjEy
MDY1MDE0WjCBqTELMAkGA1UEBhMCVVMxCzAJBgNVBAgTAkNBMRUwEwYDVQQHEwxT
YW5GcmFuY2lzY28xFTATBgNVBAoTDFBpeGdsbywgSW5jLjEQMA4GA1UECxMHVlBO
LUNJRTEPMA0GA1UEAxMGY2llOTkxMRwwGgYDVQQpExNCYWxhIENoYW5kcmFzZWth
cmFuMR4wHAYJKoZIhvcNAQkBFg9iYWxhQHBpeGdsby5jb20wggIiMA0GCSqGSIb3
DQEBAQUAA4ICDwAwggIKAoICAQDINsG56rylLoqZ0Tld+gSdz/0trkYNPo6jbe/n
9PDgx8hK4a1/y2k8pPM9Hqcl2HZ5b4qdbDTY+KFPJGupxVtlEN+83Zk6O0F87+Ly
HjmnbyiM4K+kmC1xu2Zxv8V1kQlh9WFVlpQqlnQRDeDGvoIReHr4421ZPIvj7iRH
/PG+P0c8nya2J6w7v960PGQn+hqB+Jg5p2J97ttOOwdmC6x8uwTl1gKkYNMz5cpB
AQ4lrQjMCjyBjs6t7Suop+Kfs7GOTFBWZ1pvEfHCheUGZey5RqOu0bSTTg2xdQbq
+hORl1OgjuMY4YqN1UdWwX3JAeGq2P0uXe1VLNBOkCWoggbmQCU6lMZfjXBmLYyT
rDP30kZSUZfQXkpB3CpnpHFE2jLcEJ/ul3k5m8V/YCurF3xWihbX4bYT+LhQ7140
dq7/7CTvA8YzGTA1HxAtG9QmHB21GXHB/H1xTLbBvqS04UeKibc+5yCwJrKnKOk4
8mrJ7p2azrvEnTnifq4+nqMbmtI7rQGzCddBRw3HCpCGjEthZyP6wdYU45qN7RRN
f0ynYoeAcrQg0gapQH6hlJUgDNBO2kgSsO2Y5sBoBqLTaxwQIKAwkXCbqPWhf9Gd
cDRUJMAa9XFl9hh/yQFHEcDaydiKW7n3WRs42V7vckx4W/UpnKP2T0MeC3v6aiD7
Pq0GEQIDAQABo4IBazCCAWcwCQYDVR0TBAIwADAtBglghkgBhvhCAQ0EIBYeRWFz
eS1SU0EgR2VuZXJhdGVkIENlcnRpZmljYXRlMB0GA1UdDgQWBBRPcLem5hhjJMSv
C4Ddhq9F/UWmezCB6QYDVR0jBIHhMIHegBTvOI0UUFinW02cF3L837msp1GwEKGB
uqSBtzCBtDELMAkGA1UEBhMCVVMxCzAJBgNVBAgTAkNBMRUwEwYDVQQHEwxTYW5G
cmFuY2lzY28xFTATBgNVBAoTDFBpeGdsbywgSW5jLjEQMA4GA1UECxMHVlBOLUNJ
RTEaMBgGA1UEAxMRdHVubmVsLnBpeGdsby5jb20xHDAaBgNVBCkTE0JhbGEgQ2hh
bmRyYXNla2FyYW4xHjAcBgkqhkiG9w0BCQEWD2JhbGFAcGl4Z2xvLmNvbYIJAKbb
xoOA5qB5MBMGA1UdJQQMMAoGCCsGAQUFBwMCMAsGA1UdDwQEAwIHgDANBgkqhkiG
9w0BAQUFAAOCAgEAnT3veVLMFUfUMYAjCBpYjVoOau2iznM1igwtn8Dt9tWDGIHx
GK5vPhbylIUvevsi2EjqLUowgrCXWJdg9eir1DmAAAZZB6DCtPsx8583GvpVzY6A
ijbdhXNKvP46zBCGuNzAtqkGPMfctlkfupu5lS10PMox8MVKmxbiZ1ALcf1M/ZxK
0g3phNa42Yt/glMynS7eISuEKIXP6f8sps+o9kQPAPfVBolb5YHSC8HOkKY+oya6
tkk5/YGPVDmVYI1KSYChirxlhihibf45CkjMGhyLQKBtt+5A3BDlgeHc7R/Q7m/a
48W4w2zvlfZ9qU4ySbxBS1fy4ig0ULp76hgq5kXm55msPb8ZgEs+abhSxk+pBcmR
l3rpkoj0oH9lI1NPEZZa1QdQp4hFTQut4MBHBDHAiPJbc305NpWDeVAi+4dpI8F6
klIdRFvdt/Wee8rOjC5ujl3/rEYoquiMcM16M1h+ZQ+5VeKT35+Ld6qjbluuGvzX
FFhNnZJ4VoHpRB6qL5LLJ6Jvw1rTyGivaA6jZyh/z8k9is2LvQENPfA7+V1D/Lvn
mr+Gjf+7bnIXmm8E0vlj6HMXBlpjjjrH5rlCLuzk3JN8kHGzvB9C7vJqGA4KS9QO
5ce4n2R/fUUpSaETxYt4QnPgWNTvurBis7wWHeM0JEPVzBvtX1AF7KzaJas=
-----END CERTIFICATE-----
