Certificate:
    Data:
        Version: 3 (0x2)
        Serial Number: 993 (0x3e1)
    Signature Algorithm: sha1WithRSAEncryption
        Issuer: C=US, ST=CA, L=SanFrancisco, O=Pixglo, Inc., OU=VPN-CIE, CN=tunnel.pixglo.com/name=Bala Chandrasekaran/emailAddress=bala@pixglo.com
        Validity
            Not Before: Feb 14 06:50:16 2018 GMT
            Not After : Feb 12 06:50:16 2028 GMT
        Subject: C=US, ST=CA, L=SanFrancisco, O=Pixglo, Inc., OU=VPN-CIE, CN=cie992/name=Bala Chandrasekaran/emailAddress=bala@pixglo.com
        Subject Public Key Info:
            Public Key Algorithm: rsaEncryption
                Public-Key: (4096 bit)
                Modulus:
                    00:b5:9b:2e:55:fb:5c:7e:82:9e:55:cd:19:61:d2:
                    2a:7d:8a:92:8b:b1:75:cb:bb:c1:4c:83:65:cf:1f:
                    5e:f4:59:1c:08:bb:d1:d4:6f:e0:82:dd:c9:a2:73:
                    ae:45:7c:13:f9:4e:56:2a:c0:2e:04:3d:f3:3d:b4:
                    8f:4c:b0:f2:3e:cd:dc:f0:ac:f2:ec:56:de:b1:d7:
                    3f:dc:fa:81:8f:4c:4c:b7:fd:96:8f:c6:10:57:4f:
                    73:a1:08:b4:b9:9e:a1:5e:df:ab:a4:68:a1:6f:ee:
                    e7:bf:b1:96:8a:b8:c7:f1:19:7f:a7:91:12:21:ef:
                    0e:d0:69:d9:42:f5:f3:14:1c:a3:37:b6:ac:3f:bc:
                    1d:0d:e6:1b:0b:f3:81:f2:47:5b:9e:ee:4a:9e:ac:
                    a0:28:61:e7:0a:c8:ff:7c:bf:8e:bc:93:c6:1a:c6:
                    24:e3:5e:1c:00:23:b9:bb:b9:e5:b2:d6:bc:35:99:
                    53:87:ac:5e:89:8c:18:2f:b9:0d:7c:c4:d4:07:43:
                    67:e8:37:16:94:78:77:f3:f1:96:9f:f2:04:ca:ca:
                    6c:e8:5b:cf:11:b9:ea:0b:ac:82:e3:40:4e:d3:cd:
                    9c:32:63:bf:7d:f2:68:9b:bb:31:9a:64:e7:50:b0:
                    2f:09:6f:bd:06:eb:97:c1:fe:2e:96:25:be:af:62:
                    86:f7:5e:49:9e:b3:b3:77:14:6c:65:8a:09:4d:33:
                    52:cc:9b:02:14:1f:11:cc:52:06:e8:f2:19:c2:e2:
                    85:de:f5:f7:7d:b1:5a:60:6b:d6:84:5f:af:ec:cd:
                    4b:1f:ed:0a:0a:ed:73:d6:8f:68:33:cc:c8:82:28:
                    bf:06:65:bf:ff:db:04:9f:49:60:d8:35:a7:cd:9f:
                    ba:e5:f2:1f:b5:f6:28:27:d1:b7:00:1a:9f:40:87:
                    f4:01:97:5b:57:dd:cf:4c:47:1a:7a:04:4b:17:86:
                    25:1c:25:84:5b:49:06:26:6f:4f:fa:91:33:df:54:
                    7b:f7:aa:d0:f3:b8:18:1b:29:85:3d:f9:3b:6e:7c:
                    e8:e5:78:ad:b2:7c:30:5e:a1:50:2a:a3:06:65:9b:
                    1b:94:ad:c0:f8:af:87:98:3b:61:af:88:89:a2:4b:
                    28:e6:cf:36:d0:6d:b3:8d:94:dd:d5:45:3f:87:20:
                    90:7e:3e:f8:9a:e1:77:ff:74:85:a7:46:6d:2c:a9:
                    d9:09:68:e2:5b:eb:3c:5b:eb:29:8b:20:8c:18:1a:
                    a3:f8:66:9c:4b:e7:12:50:34:ca:92:7b:85:3d:da:
                    b6:ce:59:bb:aa:a0:66:b1:2e:90:a3:71:04:a5:3c:
                    8c:08:42:4c:49:6e:dd:38:f4:d2:f5:35:43:69:6b:
                    97:22:e9
                Exponent: 65537 (0x10001)
        X509v3 extensions:
            X509v3 Basic Constraints: 
                CA:FALSE
            Netscape Comment: 
                Easy-RSA Generated Certificate
            X509v3 Subject Key Identifier: 
                47:D4:94:A1:AD:BA:1B:5D:68:98:E0:97:29:66:9C:4C:ED:D7:C6:AC
            X509v3 Authority Key Identifier: 
                keyid:EF:38:8D:14:50:58:A7:5B:4D:9C:17:72:FC:DF:B9:AC:A7:51:B0:10
                DirName:/C=US/ST=CA/L=SanFrancisco/O=Pixglo, Inc./OU=VPN-CIE/CN=tunnel.pixglo.com/name=Bala Chandrasekaran/emailAddress=bala@pixglo.com
                serial:A6:DB:C6:83:80:E6:A0:79

            X509v3 Extended Key Usage: 
                TLS Web Client Authentication
            X509v3 Key Usage: 
                Digital Signature
    Signature Algorithm: sha1WithRSAEncryption
         7e:a1:11:d2:79:82:a1:26:73:d3:d2:81:ab:4a:1f:c3:36:03:
         dd:79:9b:fc:15:2e:8b:24:66:8e:17:0c:b6:71:a2:e7:ae:51:
         60:49:a9:be:1b:26:55:62:60:dc:e8:d2:ec:6d:0d:51:e7:6a:
         a7:96:66:65:a7:a3:ea:32:b6:5d:2b:11:20:6a:21:4e:ed:e2:
         68:56:db:17:1d:04:b6:26:2e:b9:bc:10:16:e9:6f:21:03:b0:
         d1:17:0d:1d:28:7f:a2:01:13:a5:c3:8f:0c:26:ad:f2:85:32:
         d7:a3:4a:82:c2:a1:f6:77:06:fd:ec:c3:b1:f3:fa:d1:73:50:
         25:73:72:1d:bb:f1:ee:b4:4c:b8:a2:cf:2a:8d:ef:80:2b:a3:
         cd:4a:92:4c:0c:8a:df:86:c9:26:1a:2a:ae:b2:c5:2a:7b:91:
         cd:aa:72:88:0a:1f:d4:ec:bf:f0:9a:ea:ce:f2:61:92:04:67:
         d8:f9:d0:79:bb:7e:7c:d1:f9:90:21:77:80:c0:57:58:79:cd:
         53:7b:33:8e:1c:3c:32:11:5d:bd:85:6a:c9:75:ba:a8:22:b0:
         e6:16:77:05:ab:c3:4a:60:58:d0:46:20:9b:c8:6c:e8:3a:33:
         df:c1:fe:71:6b:8c:32:f5:ed:23:14:32:1b:57:34:9e:af:b4:
         9b:15:2d:f4:88:84:00:cf:85:98:e9:ad:c3:4d:39:e6:67:8e:
         bf:3a:bd:02:84:2f:cd:65:c6:28:b7:28:1f:d8:89:1f:a7:33:
         a0:da:ff:9f:46:d0:8a:50:72:dd:47:2f:a7:6c:99:a9:dd:1f:
         90:e6:5a:b7:cd:75:dc:ed:8f:dc:98:88:5d:4c:64:9c:1a:dc:
         e6:a7:be:c4:e0:8b:09:40:43:14:36:d7:0c:36:ae:4d:14:4a:
         10:83:ee:e7:26:b6:01:65:54:50:f8:d6:17:8e:fd:b4:58:48:
         e2:85:b6:83:48:ef:dd:d8:68:90:44:2f:e5:fe:2b:a1:c2:b1:
         a3:b4:68:65:15:63:cd:8c:ec:0d:16:8e:bf:d8:d0:83:45:80:
         90:61:51:e4:77:82:94:ea:fd:9b:11:60:e2:e3:1c:b6:93:b7:
         67:2b:77:1e:c1:1e:5a:7c:37:06:1b:cd:e1:e1:5e:55:0b:86:
         ed:02:69:60:ae:c1:a5:5f:c4:f0:3a:b8:34:2e:af:ff:e6:1b:
         56:70:b4:f2:e5:c6:79:57:5d:1c:8b:ae:7a:64:93:bd:a5:11:
         b2:1c:77:d4:fe:76:7d:ad:91:91:36:6c:c1:d8:34:28:22:32:
         56:64:a9:aa:10:a3:5e:ff:87:77:2d:1b:4e:54:f2:83:34:bd:
         0e:80:6c:9a:89:c4:1c:2e
-----BEGIN CERTIFICATE-----
MIIHSDCCBTCgAwIBAgICA+EwDQYJKoZIhvcNAQEFBQAwgbQxCzAJBgNVBAYTAlVT
MQswCQYDVQQIEwJDQTEVMBMGA1UEBxMMU2FuRnJhbmNpc2NvMRUwEwYDVQQKEwxQ
aXhnbG8sIEluYy4xEDAOBgNVBAsTB1ZQTi1DSUUxGjAYBgNVBAMTEXR1bm5lbC5w
aXhnbG8uY29tMRwwGgYDVQQpExNCYWxhIENoYW5kcmFzZWthcmFuMR4wHAYJKoZI
hvcNAQkBFg9iYWxhQHBpeGdsby5jb20wHhcNMTgwMjE0MDY1MDE2WhcNMjgwMjEy
MDY1MDE2WjCBqTELMAkGA1UEBhMCVVMxCzAJBgNVBAgTAkNBMRUwEwYDVQQHEwxT
YW5GcmFuY2lzY28xFTATBgNVBAoTDFBpeGdsbywgSW5jLjEQMA4GA1UECxMHVlBO
LUNJRTEPMA0GA1UEAxMGY2llOTkyMRwwGgYDVQQpExNCYWxhIENoYW5kcmFzZWth
cmFuMR4wHAYJKoZIhvcNAQkBFg9iYWxhQHBpeGdsby5jb20wggIiMA0GCSqGSIb3
DQEBAQUAA4ICDwAwggIKAoICAQC1my5V+1x+gp5VzRlh0ip9ipKLsXXLu8FMg2XP
H170WRwIu9HUb+CC3cmic65FfBP5TlYqwC4EPfM9tI9MsPI+zdzwrPLsVt6x1z/c
+oGPTEy3/ZaPxhBXT3OhCLS5nqFe36ukaKFv7ue/sZaKuMfxGX+nkRIh7w7QadlC
9fMUHKM3tqw/vB0N5hsL84HyR1ue7kqerKAoYecKyP98v468k8YaxiTjXhwAI7m7
ueWy1rw1mVOHrF6JjBgvuQ18xNQHQ2foNxaUeHfz8Zaf8gTKymzoW88RueoLrILj
QE7TzZwyY7998mibuzGaZOdQsC8Jb70G65fB/i6WJb6vYob3Xkmes7N3FGxliglN
M1LMmwIUHxHMUgbo8hnC4oXe9fd9sVpga9aEX6/szUsf7QoK7XPWj2gzzMiCKL8G
Zb//2wSfSWDYNafNn7rl8h+19ign0bcAGp9Ah/QBl1tX3c9MRxp6BEsXhiUcJYRb
SQYmb0/6kTPfVHv3qtDzuBgbKYU9+TtufOjleK2yfDBeoVAqowZlmxuUrcD4r4eY
O2GviImiSyjmzzbQbbONlN3VRT+HIJB+Pvia4Xf/dIWnRm0sqdkJaOJb6zxb6ymL
IIwYGqP4ZpxL5xJQNMqSe4U92rbOWbuqoGaxLpCjcQSlPIwIQkxJbt049NL1NUNp
a5ci6QIDAQABo4IBazCCAWcwCQYDVR0TBAIwADAtBglghkgBhvhCAQ0EIBYeRWFz
eS1SU0EgR2VuZXJhdGVkIENlcnRpZmljYXRlMB0GA1UdDgQWBBRH1JShrbobXWiY
4JcpZpxM7dfGrDCB6QYDVR0jBIHhMIHegBTvOI0UUFinW02cF3L837msp1GwEKGB
uqSBtzCBtDELMAkGA1UEBhMCVVMxCzAJBgNVBAgTAkNBMRUwEwYDVQQHEwxTYW5G
cmFuY2lzY28xFTATBgNVBAoTDFBpeGdsbywgSW5jLjEQMA4GA1UECxMHVlBOLUNJ
RTEaMBgGA1UEAxMRdHVubmVsLnBpeGdsby5jb20xHDAaBgNVBCkTE0JhbGEgQ2hh
bmRyYXNla2FyYW4xHjAcBgkqhkiG9w0BCQEWD2JhbGFAcGl4Z2xvLmNvbYIJAKbb
xoOA5qB5MBMGA1UdJQQMMAoGCCsGAQUFBwMCMAsGA1UdDwQEAwIHgDANBgkqhkiG
9w0BAQUFAAOCAgEAfqER0nmCoSZz09KBq0ofwzYD3Xmb/BUuiyRmjhcMtnGi565R
YEmpvhsmVWJg3OjS7G0NUedqp5ZmZaej6jK2XSsRIGohTu3iaFbbFx0EtiYuubwQ
FulvIQOw0RcNHSh/ogETpcOPDCat8oUy16NKgsKh9ncG/ezDsfP60XNQJXNyHbvx
7rRMuKLPKo3vgCujzUqSTAyK34bJJhoqrrLFKnuRzapyiAof1Oy/8JrqzvJhkgRn
2PnQebt+fNH5kCF3gMBXWHnNU3szjhw8MhFdvYVqyXW6qCKw5hZ3BavDSmBY0EYg
m8hs6Doz38H+cWuMMvXtIxQyG1c0nq+0mxUt9IiEAM+FmOmtw0055meOvzq9AoQv
zWXGKLcoH9iJH6czoNr/n0bQilBy3Ucvp2yZqd0fkOZat8113O2P3JiIXUxknBrc
5qe+xOCLCUBDFDbXDDauTRRKEIPu5ya2AWVUUPjWF479tFhI4oW2g0jv3dhokEQv
5f4rocKxo7RoZRVjzYzsDRaOv9jQg0WAkGFR5HeClOr9mxFg4uMctpO3Zyt3HsEe
Wnw3BhvN4eFeVQuG7QJpYK7BpV/E8Dq4NC6v/+YbVnC08uXGeVddHIuuemSTvaUR
shx31P52fa2RkTZswdg0KCIyVmSpqhCjXv+Hdy0bTlTygzS9DoBsmonEHC4=
-----END CERTIFICATE-----
