Certificate:
    Data:
        Version: 3 (0x2)
        Serial Number: 995 (0x3e3)
    Signature Algorithm: sha1WithRSAEncryption
        Issuer: C=US, ST=CA, L=SanFrancisco, O=Pixglo, Inc., OU=VPN-CIE, CN=tunnel.pixglo.com/name=Bala Chandrasekaran/emailAddress=bala@pixglo.com
        Validity
            Not Before: Feb 14 06:50:20 2018 GMT
            Not After : Feb 12 06:50:20 2028 GMT
        Subject: C=US, ST=CA, L=SanFrancisco, O=Pixglo, Inc., OU=VPN-CIE, CN=cie994/name=Bala Chandrasekaran/emailAddress=bala@pixglo.com
        Subject Public Key Info:
            Public Key Algorithm: rsaEncryption
                Public-Key: (4096 bit)
                Modulus:
                    00:de:9b:c9:56:13:95:12:3b:4d:b4:3c:4d:85:f1:
                    1d:1f:92:0e:99:45:18:c5:68:92:09:e4:bd:3f:5e:
                    57:8b:13:81:5a:84:1b:df:59:9c:06:e3:fa:b8:92:
                    81:9d:c4:58:a2:d0:72:9b:d4:20:ba:93:84:d0:47:
                    a8:8c:fa:38:fb:cc:bd:db:18:b4:12:59:03:d7:3f:
                    38:4a:d0:eb:25:b6:63:b0:fb:d6:8e:60:73:b6:1a:
                    1d:c0:ba:13:8a:a5:eb:6c:a7:ae:63:e5:67:b3:59:
                    57:50:a4:3d:d1:02:16:7a:68:79:bb:6f:5c:77:08:
                    de:46:6b:0d:f2:01:61:f3:f6:56:c4:ab:9b:d9:4f:
                    49:8b:98:46:45:90:6f:e3:c4:06:55:f5:42:3a:c6:
                    f6:71:12:f9:3c:3c:c0:7c:30:7c:c3:db:6b:fd:48:
                    43:d1:b1:b8:8e:eb:b7:71:69:8d:66:9d:8d:16:65:
                    81:f2:de:58:70:87:c1:9b:cc:9d:ba:e9:b0:52:03:
                    1d:d9:70:a9:5b:39:e1:ef:2e:15:eb:f9:25:c4:25:
                    d9:16:b5:42:5f:8a:06:7c:28:4a:29:8b:2a:7e:82:
                    32:20:eb:a6:14:7b:aa:e2:c2:6c:e5:ac:05:70:01:
                    07:81:42:33:45:6f:41:8e:7e:f9:30:e9:3d:ce:b7:
                    c1:e8:e5:10:7d:80:ea:45:74:c2:65:10:ac:7f:2f:
                    18:f1:be:db:0c:ae:c4:1e:8a:fd:dd:f8:15:8c:e1:
                    32:54:d5:f8:cf:d7:46:09:57:a1:47:a5:22:17:ac:
                    e2:25:f9:30:99:4c:c3:3c:a9:5d:bc:39:aa:48:ae:
                    53:a1:0d:6b:a6:f8:c5:17:b6:4c:7d:1a:4a:43:a9:
                    13:45:28:00:f2:bd:0d:dd:fa:59:10:74:8a:8b:d9:
                    ee:88:d0:50:9b:4b:30:3b:05:74:f1:10:17:2c:52:
                    73:79:02:82:62:19:f6:5d:b0:78:84:ed:60:0a:4b:
                    56:f8:91:d8:ac:93:23:de:20:62:d3:e1:90:ca:63:
                    98:cb:c2:06:bb:43:1b:e4:d0:93:8a:4d:f6:3d:d7:
                    e3:90:65:0a:e3:27:9e:07:8f:ec:ba:d1:04:ff:a4:
                    1e:0f:8c:f4:23:d2:53:69:a4:c6:a5:26:d0:a9:74:
                    a4:a3:39:c9:2b:38:e0:be:cb:7c:cc:63:64:a6:55:
                    61:8b:bc:6e:f2:5c:9f:7e:ec:75:17:10:dc:2c:c1:
                    02:52:06:05:3d:25:1f:7e:49:e4:44:cb:05:75:fd:
                    9e:3c:d2:18:80:bc:63:16:c1:cb:3e:f5:a3:42:79:
                    88:a5:2c:ae:01:03:92:c1:94:16:ad:36:06:9c:6b:
                    3f:83:e9
                Exponent: 65537 (0x10001)
        X509v3 extensions:
            X509v3 Basic Constraints: 
                CA:FALSE
            Netscape Comment: 
                Easy-RSA Generated Certificate
            X509v3 Subject Key Identifier: 
                02:C9:71:B7:DB:45:0B:2F:11:12:12:8D:07:2C:BC:68:0B:71:3A:DC
            X509v3 Authority Key Identifier: 
                keyid:EF:38:8D:14:50:58:A7:5B:4D:9C:17:72:FC:DF:B9:AC:A7:51:B0:10
                DirName:/C=US/ST=CA/L=SanFrancisco/O=Pixglo, Inc./OU=VPN-CIE/CN=tunnel.pixglo.com/name=Bala Chandrasekaran/emailAddress=bala@pixglo.com
                serial:A6:DB:C6:83:80:E6:A0:79

            X509v3 Extended Key Usage: 
                TLS Web Client Authentication
            X509v3 Key Usage: 
                Digital Signature
    Signature Algorithm: sha1WithRSAEncryption
         e1:f7:7e:8c:89:4b:2e:05:90:65:ef:0c:9e:15:3f:f3:b7:9a:
         e7:e3:c2:49:59:06:e3:45:11:0a:f3:f4:86:a7:03:88:5c:2d:
         e8:d1:ca:c7:73:c6:85:c7:17:92:39:da:43:f1:26:26:5e:80:
         d3:ff:f3:97:f6:24:c5:0b:35:a9:c7:96:5b:09:71:c9:2c:c0:
         f6:f1:ca:20:67:5a:49:4c:b3:e6:3a:65:f8:b8:a2:f2:98:7d:
         95:4d:7e:5b:14:9c:14:80:54:02:32:dd:78:5b:fa:7c:cf:30:
         f3:9a:6a:69:3d:96:fd:bb:51:2f:57:1f:a3:00:80:21:c3:c1:
         c0:d9:18:21:5d:d3:2e:1c:9b:a2:66:c7:7f:0b:f1:97:1c:86:
         05:1b:cd:b8:1f:a2:b5:b1:ab:2b:18:2e:fc:35:79:df:e0:8a:
         de:5d:7e:cb:db:07:1c:a7:e7:f3:62:cd:e2:56:5b:8a:c6:98:
         2a:e3:bd:58:24:32:2a:60:9a:9f:a3:0f:bb:bc:6f:74:8a:3d:
         07:f6:ae:aa:d2:93:5f:7b:a4:ed:c9:22:67:9e:a8:77:28:f2:
         5d:de:c6:58:ef:d7:d4:93:c0:d3:47:33:b4:c7:59:9f:1c:65:
         c5:f7:7c:e9:1b:54:29:73:d3:93:71:9d:c1:6b:71:f3:5f:07:
         ec:67:93:6c:47:6e:0d:5c:77:a0:37:e1:95:a4:3f:de:86:26:
         ed:e0:a4:08:e5:19:d8:29:2c:62:7b:7b:cd:e6:22:f6:51:30:
         26:3d:2d:f5:5b:63:a5:07:0e:3d:15:80:52:73:18:a5:07:25:
         ee:c1:63:d3:53:43:66:18:d8:b0:1b:2c:3f:dd:30:5a:56:0f:
         85:90:7c:14:a3:da:7b:a8:b6:79:86:8d:3f:ec:b7:16:e8:b4:
         f0:3b:d5:e1:53:5a:2e:88:17:bb:b4:98:f7:e7:e2:a0:2b:02:
         b1:74:4f:44:66:47:54:3d:c2:19:33:f8:a2:f3:8a:26:00:b8:
         15:62:62:57:73:14:86:d0:19:e6:37:2a:60:d0:ee:9c:ab:a5:
         7d:28:f6:1f:2f:f2:c0:dd:34:bf:a2:27:5f:e3:36:60:3e:0e:
         ca:2f:33:1a:03:d6:c3:53:27:31:fa:94:64:f0:15:ea:7e:cd:
         d8:b5:7e:a0:1a:52:ac:fe:9b:a1:7b:bf:61:33:b2:17:79:a3:
         8d:d1:bd:21:a1:d4:e4:c4:f0:c4:7c:b0:a3:f6:05:8d:c5:0a:
         7c:f8:98:bf:e8:7a:21:8c:e9:5a:72:9f:fb:64:d2:30:ef:8e:
         87:9f:1e:0d:cd:75:66:33:54:be:9a:5c:bd:d1:1a:89:0c:11:
         a7:0c:31:95:27:4f:fd:96
-----BEGIN CERTIFICATE-----
MIIHSDCCBTCgAwIBAgICA+MwDQYJKoZIhvcNAQEFBQAwgbQxCzAJBgNVBAYTAlVT
MQswCQYDVQQIEwJDQTEVMBMGA1UEBxMMU2FuRnJhbmNpc2NvMRUwEwYDVQQKEwxQ
aXhnbG8sIEluYy4xEDAOBgNVBAsTB1ZQTi1DSUUxGjAYBgNVBAMTEXR1bm5lbC5w
aXhnbG8uY29tMRwwGgYDVQQpExNCYWxhIENoYW5kcmFzZWthcmFuMR4wHAYJKoZI
hvcNAQkBFg9iYWxhQHBpeGdsby5jb20wHhcNMTgwMjE0MDY1MDIwWhcNMjgwMjEy
MDY1MDIwWjCBqTELMAkGA1UEBhMCVVMxCzAJBgNVBAgTAkNBMRUwEwYDVQQHEwxT
YW5GcmFuY2lzY28xFTATBgNVBAoTDFBpeGdsbywgSW5jLjEQMA4GA1UECxMHVlBO
LUNJRTEPMA0GA1UEAxMGY2llOTk0MRwwGgYDVQQpExNCYWxhIENoYW5kcmFzZWth
cmFuMR4wHAYJKoZIhvcNAQkBFg9iYWxhQHBpeGdsby5jb20wggIiMA0GCSqGSIb3
DQEBAQUAA4ICDwAwggIKAoICAQDem8lWE5USO020PE2F8R0fkg6ZRRjFaJIJ5L0/
XleLE4FahBvfWZwG4/q4koGdxFii0HKb1CC6k4TQR6iM+jj7zL3bGLQSWQPXPzhK
0OsltmOw+9aOYHO2Gh3AuhOKpetsp65j5WezWVdQpD3RAhZ6aHm7b1x3CN5Gaw3y
AWHz9lbEq5vZT0mLmEZFkG/jxAZV9UI6xvZxEvk8PMB8MHzD22v9SEPRsbiO67dx
aY1mnY0WZYHy3lhwh8GbzJ266bBSAx3ZcKlbOeHvLhXr+SXEJdkWtUJfigZ8KEop
iyp+gjIg66YUe6riwmzlrAVwAQeBQjNFb0GOfvkw6T3Ot8Ho5RB9gOpFdMJlEKx/
LxjxvtsMrsQeiv3d+BWM4TJU1fjP10YJV6FHpSIXrOIl+TCZTMM8qV28OapIrlOh
DWum+MUXtkx9GkpDqRNFKADyvQ3d+lkQdIqL2e6I0FCbSzA7BXTxEBcsUnN5AoJi
GfZdsHiE7WAKS1b4kdiskyPeIGLT4ZDKY5jLwga7Qxvk0JOKTfY91+OQZQrjJ54H
j+y60QT/pB4PjPQj0lNppMalJtCpdKSjOckrOOC+y3zMY2SmVWGLvG7yXJ9+7HUX
ENwswQJSBgU9JR9+SeREywV1/Z480hiAvGMWwcs+9aNCeYilLK4BA5LBlBatNgac
az+D6QIDAQABo4IBazCCAWcwCQYDVR0TBAIwADAtBglghkgBhvhCAQ0EIBYeRWFz
eS1SU0EgR2VuZXJhdGVkIENlcnRpZmljYXRlMB0GA1UdDgQWBBQCyXG320ULLxES
Eo0HLLxoC3E63DCB6QYDVR0jBIHhMIHegBTvOI0UUFinW02cF3L837msp1GwEKGB
uqSBtzCBtDELMAkGA1UEBhMCVVMxCzAJBgNVBAgTAkNBMRUwEwYDVQQHEwxTYW5G
cmFuY2lzY28xFTATBgNVBAoTDFBpeGdsbywgSW5jLjEQMA4GA1UECxMHVlBOLUNJ
RTEaMBgGA1UEAxMRdHVubmVsLnBpeGdsby5jb20xHDAaBgNVBCkTE0JhbGEgQ2hh
bmRyYXNla2FyYW4xHjAcBgkqhkiG9w0BCQEWD2JhbGFAcGl4Z2xvLmNvbYIJAKbb
xoOA5qB5MBMGA1UdJQQMMAoGCCsGAQUFBwMCMAsGA1UdDwQEAwIHgDANBgkqhkiG
9w0BAQUFAAOCAgEA4fd+jIlLLgWQZe8MnhU/87ea5+PCSVkG40URCvP0hqcDiFwt
6NHKx3PGhccXkjnaQ/EmJl6A0//zl/YkxQs1qceWWwlxySzA9vHKIGdaSUyz5jpl
+Lii8ph9lU1+WxScFIBUAjLdeFv6fM8w85pqaT2W/btRL1cfowCAIcPBwNkYIV3T
LhybombHfwvxlxyGBRvNuB+itbGrKxgu/DV53+CK3l1+y9sHHKfn82LN4lZbisaY
KuO9WCQyKmCan6MPu7xvdIo9B/auqtKTX3uk7ckiZ56odyjyXd7GWO/X1JPA00cz
tMdZnxxlxfd86RtUKXPTk3GdwWtx818H7GeTbEduDVx3oDfhlaQ/3oYm7eCkCOUZ
2CksYnt7zeYi9lEwJj0t9VtjpQcOPRWAUnMYpQcl7sFj01NDZhjYsBssP90wWlYP
hZB8FKPae6i2eYaNP+y3Fui08DvV4VNaLogXu7SY9+fioCsCsXRPRGZHVD3CGTP4
ovOKJgC4FWJiV3MUhtAZ5jcqYNDunKulfSj2Hy/ywN00v6InX+M2YD4Oyi8zGgPW
w1MnMfqUZPAV6n7N2LV+oBpSrP6boXu/YTOyF3mjjdG9IaHU5MTwxHywo/YFjcUK
fPiYv+h6IYzpWnKf+2TSMO+Oh58eDc11ZjNUvppcvdEaiQwRpwwxlSdP/ZY=
-----END CERTIFICATE-----
