Certificate:
    Data:
        Version: 3 (0x2)
        Serial Number: 999 (0x3e7)
    Signature Algorithm: sha1WithRSAEncryption
        Issuer: C=US, ST=CA, L=SanFrancisco, O=Pixglo, Inc., OU=VPN-CIE, CN=tunnel.pixglo.com/name=Bala Chandrasekaran/emailAddress=bala@pixglo.com
        Validity
            Not Before: Feb 14 06:50:30 2018 GMT
            Not After : Feb 12 06:50:30 2028 GMT
        Subject: C=US, ST=CA, L=SanFrancisco, O=Pixglo, Inc., OU=VPN-CIE, CN=cie998/name=Bala Chandrasekaran/emailAddress=bala@pixglo.com
        Subject Public Key Info:
            Public Key Algorithm: rsaEncryption
                Public-Key: (4096 bit)
                Modulus:
                    00:c0:74:eb:2d:71:e8:ee:8a:28:a0:fa:3d:d6:96:
                    f7:5a:2a:02:52:b3:22:0f:1c:05:a1:99:c8:22:f8:
                    b9:8d:5c:01:e5:f8:94:41:02:53:a7:7c:be:e2:a0:
                    10:70:74:b0:d5:8a:e5:a9:7a:c4:35:7f:a8:c7:e9:
                    9a:79:b1:cc:0c:fb:49:82:61:c6:e4:03:25:90:3d:
                    24:2e:3d:87:d6:65:c2:b4:2b:a0:f4:5e:27:87:f0:
                    27:62:77:a7:72:6f:a9:20:7e:bd:b1:f6:44:92:ba:
                    76:2a:bc:52:62:9a:ed:5b:f7:d2:7e:a2:4b:f9:7c:
                    02:08:a9:e8:56:95:04:40:04:4d:d4:df:b3:ce:ee:
                    56:de:cc:b7:ee:2f:07:a8:77:b5:0d:1a:16:95:72:
                    c6:61:e2:30:ab:39:ba:be:f6:c0:17:ce:ec:b0:d9:
                    e1:ab:51:c1:1a:13:43:30:fb:a1:8b:f8:77:c9:5b:
                    ab:cb:61:ae:24:59:8b:6e:bf:59:ca:71:b2:13:98:
                    70:3a:7a:43:0c:a2:d6:32:b8:8d:a5:0c:f1:96:2e:
                    37:a7:04:c7:c8:a0:3f:ee:4d:b7:87:88:7d:53:08:
                    7b:23:d9:06:54:61:ca:f1:01:7e:b0:c5:f9:61:cd:
                    49:b7:90:52:4d:72:d2:80:24:08:02:7f:f0:75:0b:
                    52:58:e3:f8:c9:1e:a1:ff:48:4d:75:5a:a9:12:6c:
                    12:31:ad:c1:c0:3b:5a:5b:7e:79:1f:c6:6d:06:c0:
                    ed:d3:ab:7b:06:13:99:81:a1:c5:a6:12:6e:ed:3f:
                    d3:7b:5c:0e:9b:50:07:75:26:30:40:3d:5f:ce:2d:
                    fa:94:56:c5:92:12:03:43:bc:a6:41:b5:29:1d:b7:
                    0a:ab:5d:3b:b6:f7:a5:b9:76:90:ce:f2:5e:93:36:
                    cc:b4:4f:95:87:0d:30:9b:02:f1:a4:22:07:5c:71:
                    9b:8d:b5:9c:31:39:22:bd:ec:30:e0:4f:0d:d1:e2:
                    a4:df:95:ef:1b:88:a1:76:b4:16:2d:66:80:4e:70:
                    cb:5e:53:84:41:22:b8:6d:5d:08:9e:78:f3:5e:a9:
                    c7:65:bb:2a:bc:22:7e:d4:51:ad:b9:6e:f8:04:80:
                    e0:9d:30:7b:a3:bb:ca:0b:f9:d1:76:08:ef:b9:c1:
                    fc:71:22:de:13:29:94:04:6c:27:9f:0f:a3:f1:3e:
                    78:55:84:36:d0:47:54:77:96:79:bb:5f:64:0e:8d:
                    b1:52:64:a2:ff:01:60:ff:ea:eb:f4:65:8b:9c:94:
                    e1:47:27:21:52:80:cd:ae:2e:c7:ac:7c:13:66:38:
                    87:ad:4d:80:68:ff:9c:6c:be:44:d3:49:44:fe:ef:
                    4e:f1:4d
                Exponent: 65537 (0x10001)
        X509v3 extensions:
            X509v3 Basic Constraints: 
                CA:FALSE
            Netscape Comment: 
                Easy-RSA Generated Certificate
            X509v3 Subject Key Identifier: 
                60:A4:E9:4A:BA:D6:80:38:6A:39:90:27:8F:10:FD:DB:04:8E:2E:FC
            X509v3 Authority Key Identifier: 
                keyid:EF:38:8D:14:50:58:A7:5B:4D:9C:17:72:FC:DF:B9:AC:A7:51:B0:10
                DirName:/C=US/ST=CA/L=SanFrancisco/O=Pixglo, Inc./OU=VPN-CIE/CN=tunnel.pixglo.com/name=Bala Chandrasekaran/emailAddress=bala@pixglo.com
                serial:A6:DB:C6:83:80:E6:A0:79

            X509v3 Extended Key Usage: 
                TLS Web Client Authentication
            X509v3 Key Usage: 
                Digital Signature
    Signature Algorithm: sha1WithRSAEncryption
         c9:1f:1c:ca:55:cf:9f:e9:c3:49:b2:66:99:5c:77:50:73:ab:
         bf:af:89:dc:44:95:d8:ab:8c:84:98:ab:11:9e:98:23:55:7c:
         04:74:37:2c:61:68:ae:e6:23:d6:ab:59:e7:1a:84:c4:46:16:
         8c:ef:49:3f:4d:ff:53:a2:55:7d:08:02:2d:5b:35:34:58:1c:
         2f:40:99:f2:89:91:a9:2d:88:51:4e:94:35:c3:08:99:71:37:
         3e:a8:25:ee:16:a0:0e:77:55:c4:2c:4a:47:5b:4d:5d:3d:96:
         4e:00:a9:12:78:e7:68:8f:9f:88:df:cd:f1:bc:1b:1f:bb:7d:
         a6:a9:3d:e5:85:19:ef:09:92:d9:86:c1:dc:b9:61:cd:d6:85:
         af:61:84:8e:a3:09:b4:36:6d:37:bb:5b:19:c9:a3:98:92:6a:
         ed:07:07:bb:65:a4:26:e8:04:b1:17:f1:1d:b1:3c:c4:3c:21:
         5e:1a:ee:b8:b8:fb:e9:9b:c0:de:a9:a2:7e:fc:24:ea:b7:d4:
         91:89:fd:82:0c:b5:98:fa:d5:46:b1:eb:b6:5e:4e:e8:65:d6:
         81:45:be:64:e9:83:91:bb:ca:37:fe:e6:aa:b1:40:8f:0f:a0:
         f4:8d:6a:3c:9c:77:3b:bc:23:9a:b8:5c:45:ba:79:c5:9f:05:
         16:cf:4b:30:1e:3a:85:0c:ae:35:d6:94:f1:90:16:96:01:7a:
         18:37:94:cc:ab:fe:a1:18:9f:f5:e3:b9:71:ef:ef:31:59:d5:
         3a:f0:f3:d0:20:b3:0c:a6:cc:37:33:7d:70:31:f3:c4:1f:f0:
         43:59:45:0d:8c:df:c4:f9:c9:c8:4d:cd:00:e7:8a:7b:e5:03:
         0b:31:9d:c6:a3:8f:67:60:b5:1a:6c:1b:a0:ca:22:db:e0:bb:
         f0:92:a0:6c:4f:60:ec:85:1b:ef:86:8c:ff:fc:44:05:04:10:
         19:3e:1f:d5:e9:8e:8c:e5:12:b1:0d:7c:cc:0c:ce:c6:ad:78:
         d4:10:29:2d:3e:77:08:61:d3:1f:2a:69:ff:0d:aa:28:24:66:
         c1:dd:50:bc:b3:fd:0e:32:a2:6e:c1:20:9b:c3:77:44:3c:9d:
         c6:52:83:d8:72:2b:04:05:d7:07:23:6a:05:6c:09:53:16:60:
         db:1e:80:94:60:21:3b:cf:2b:77:ca:20:4f:5d:4b:2e:01:cd:
         ea:17:3c:4b:5e:9e:c8:20:03:93:4c:ff:8c:a9:b9:19:d9:32:
         71:a4:e3:84:35:40:b1:e7:ab:fb:1b:7a:9c:36:3e:43:88:96:
         05:b5:24:79:31:01:d9:f1:ef:6e:7d:06:56:04:85:d7:be:dd:
         a4:9b:eb:89:a9:04:73:8a
-----BEGIN CERTIFICATE-----
MIIHSDCCBTCgAwIBAgICA+cwDQYJKoZIhvcNAQEFBQAwgbQxCzAJBgNVBAYTAlVT
MQswCQYDVQQIEwJDQTEVMBMGA1UEBxMMU2FuRnJhbmNpc2NvMRUwEwYDVQQKEwxQ
aXhnbG8sIEluYy4xEDAOBgNVBAsTB1ZQTi1DSUUxGjAYBgNVBAMTEXR1bm5lbC5w
aXhnbG8uY29tMRwwGgYDVQQpExNCYWxhIENoYW5kcmFzZWthcmFuMR4wHAYJKoZI
hvcNAQkBFg9iYWxhQHBpeGdsby5jb20wHhcNMTgwMjE0MDY1MDMwWhcNMjgwMjEy
MDY1MDMwWjCBqTELMAkGA1UEBhMCVVMxCzAJBgNVBAgTAkNBMRUwEwYDVQQHEwxT
YW5GcmFuY2lzY28xFTATBgNVBAoTDFBpeGdsbywgSW5jLjEQMA4GA1UECxMHVlBO
LUNJRTEPMA0GA1UEAxMGY2llOTk4MRwwGgYDVQQpExNCYWxhIENoYW5kcmFzZWth
cmFuMR4wHAYJKoZIhvcNAQkBFg9iYWxhQHBpeGdsby5jb20wggIiMA0GCSqGSIb3
DQEBAQUAA4ICDwAwggIKAoICAQDAdOstcejuiiig+j3WlvdaKgJSsyIPHAWhmcgi
+LmNXAHl+JRBAlOnfL7ioBBwdLDViuWpesQ1f6jH6Zp5scwM+0mCYcbkAyWQPSQu
PYfWZcK0K6D0XieH8Cdid6dyb6kgfr2x9kSSunYqvFJimu1b99J+okv5fAIIqehW
lQRABE3U37PO7lbezLfuLweod7UNGhaVcsZh4jCrObq+9sAXzuyw2eGrUcEaE0Mw
+6GL+HfJW6vLYa4kWYtuv1nKcbITmHA6ekMMotYyuI2lDPGWLjenBMfIoD/uTbeH
iH1TCHsj2QZUYcrxAX6wxflhzUm3kFJNctKAJAgCf/B1C1JY4/jJHqH/SE11WqkS
bBIxrcHAO1pbfnkfxm0GwO3Tq3sGE5mBocWmEm7tP9N7XA6bUAd1JjBAPV/OLfqU
VsWSEgNDvKZBtSkdtwqrXTu296W5dpDO8l6TNsy0T5WHDTCbAvGkIgdccZuNtZwx
OSK97DDgTw3R4qTfle8biKF2tBYtZoBOcMteU4RBIrhtXQieePNeqcdluyq8In7U
Ua25bvgEgOCdMHuju8oL+dF2CO+5wfxxIt4TKZQEbCefD6PxPnhVhDbQR1R3lnm7
X2QOjbFSZKL/AWD/6uv0ZYuclOFHJyFSgM2uLsesfBNmOIetTYBo/5xsvkTTSUT+
707xTQIDAQABo4IBazCCAWcwCQYDVR0TBAIwADAtBglghkgBhvhCAQ0EIBYeRWFz
eS1SU0EgR2VuZXJhdGVkIENlcnRpZmljYXRlMB0GA1UdDgQWBBRgpOlKutaAOGo5
kCePEP3bBI4u/DCB6QYDVR0jBIHhMIHegBTvOI0UUFinW02cF3L837msp1GwEKGB
uqSBtzCBtDELMAkGA1UEBhMCVVMxCzAJBgNVBAgTAkNBMRUwEwYDVQQHEwxTYW5G
cmFuY2lzY28xFTATBgNVBAoTDFBpeGdsbywgSW5jLjEQMA4GA1UECxMHVlBOLUNJ
RTEaMBgGA1UEAxMRdHVubmVsLnBpeGdsby5jb20xHDAaBgNVBCkTE0JhbGEgQ2hh
bmRyYXNla2FyYW4xHjAcBgkqhkiG9w0BCQEWD2JhbGFAcGl4Z2xvLmNvbYIJAKbb
xoOA5qB5MBMGA1UdJQQMMAoGCCsGAQUFBwMCMAsGA1UdDwQEAwIHgDANBgkqhkiG
9w0BAQUFAAOCAgEAyR8cylXPn+nDSbJmmVx3UHOrv6+J3ESV2KuMhJirEZ6YI1V8
BHQ3LGForuYj1qtZ5xqExEYWjO9JP03/U6JVfQgCLVs1NFgcL0CZ8omRqS2IUU6U
NcMImXE3Pqgl7hagDndVxCxKR1tNXT2WTgCpEnjnaI+fiN/N8bwbH7t9pqk95YUZ
7wmS2YbB3LlhzdaFr2GEjqMJtDZtN7tbGcmjmJJq7QcHu2WkJugEsRfxHbE8xDwh
XhruuLj76ZvA3qmifvwk6rfUkYn9ggy1mPrVRrHrtl5O6GXWgUW+ZOmDkbvKN/7m
qrFAjw+g9I1qPJx3O7wjmrhcRbp5xZ8FFs9LMB46hQyuNdaU8ZAWlgF6GDeUzKv+
oRif9eO5ce/vMVnVOvDz0CCzDKbMNzN9cDHzxB/wQ1lFDYzfxPnJyE3NAOeKe+UD
CzGdxqOPZ2C1GmwboMoi2+C78JKgbE9g7IUb74aM//xEBQQQGT4f1emOjOUSsQ18
zAzOxq141BApLT53CGHTHypp/w2qKCRmwd1QvLP9DjKibsEgm8N3RDydxlKD2HIr
BAXXByNqBWwJUxZg2x6AlGAhO88rd8ogT11LLgHN6hc8S16eyCADk0z/jKm5Gdky
caTjhDVAseer+xt6nDY+Q4iWBbUkeTEB2fHvbn0GVgSF177dpJvriakEc4o=
-----END CERTIFICATE-----
