Certificate:
    Data:
        Version: 3 (0x2)
        Serial Number: 1000 (0x3e8)
    Signature Algorithm: sha1WithRSAEncryption
        Issuer: C=US, ST=CA, L=SanFrancisco, O=Pixglo, Inc., OU=VPN-CIE, CN=tunnel.pixglo.com/name=Bala Chandrasekaran/emailAddress=bala@pixglo.com
        Validity
            Not Before: Feb 14 06:50:31 2018 GMT
            Not After : Feb 12 06:50:31 2028 GMT
        Subject: C=US, ST=CA, L=SanFrancisco, O=Pixglo, Inc., OU=VPN-CIE, CN=cie999/name=Bala Chandrasekaran/emailAddress=bala@pixglo.com
        Subject Public Key Info:
            Public Key Algorithm: rsaEncryption
                Public-Key: (4096 bit)
                Modulus:
                    00:90:ed:1e:da:2a:21:1a:f3:95:d1:c7:1a:68:f8:
                    6a:f9:9c:96:bc:a8:9e:81:8a:93:11:a5:38:5c:bf:
                    13:a2:15:79:4e:dc:db:94:07:9c:65:90:96:7f:af:
                    6d:53:97:16:50:58:17:00:e6:ec:f6:43:fb:39:09:
                    6d:41:e9:9c:e9:01:46:1f:3f:a3:a2:89:da:da:f3:
                    83:a2:cd:39:75:40:13:37:92:ee:4e:c7:9a:a7:dd:
                    2f:5a:8e:d5:43:1a:b8:9a:d5:0a:08:75:76:a3:da:
                    ce:ca:56:ee:3f:4e:a4:9e:59:76:86:c7:45:59:30:
                    c7:ab:de:03:ab:c1:cd:3c:5d:20:45:62:3e:d1:06:
                    40:ab:00:40:80:05:82:dd:e5:ac:80:9f:cf:c9:ba:
                    40:d9:80:8a:85:88:ce:89:ec:e7:db:37:d4:94:f6:
                    22:a8:6b:02:26:05:95:2a:58:4a:47:c7:84:ac:76:
                    cd:26:5a:7b:9f:20:da:23:e4:d8:ac:68:76:e1:28:
                    fa:85:d8:97:8d:c1:b7:25:44:a2:32:22:b3:18:91:
                    63:a4:4b:05:16:e8:9b:a1:e7:a3:d5:18:ad:69:d4:
                    09:ec:44:94:12:a5:f9:9f:8d:64:83:0f:9d:53:45:
                    42:70:58:ec:69:b1:c8:24:79:fa:21:f7:e1:8a:54:
                    cd:30:80:e5:c3:e9:b0:f9:be:27:42:4a:94:7b:37:
                    19:cd:3f:67:c5:15:3e:74:21:e1:85:b2:3d:0f:2a:
                    79:f7:7e:1b:fa:02:b0:4f:06:b5:aa:65:f8:c2:a3:
                    32:98:26:ed:8c:1f:ff:8f:33:4f:65:ad:48:9d:d1:
                    20:75:71:c9:8c:92:bd:61:c4:b9:6f:e8:9f:e6:9d:
                    f5:6b:29:5b:e5:5c:49:2f:18:5e:f3:e0:a1:17:02:
                    f5:3b:25:bd:b5:21:de:ec:03:88:f0:a6:55:51:90:
                    27:71:4e:16:fd:fb:ce:40:86:44:05:2b:5b:d6:f6:
                    c5:8c:42:9e:b8:06:ef:93:69:a6:ed:e4:83:d5:10:
                    0e:74:15:cf:df:30:2c:b5:e0:92:e8:c8:2f:d3:60:
                    a1:28:f0:53:96:d8:fd:79:2f:88:b3:ad:d3:36:7e:
                    c4:2b:06:07:e5:18:36:f6:e6:9d:cd:19:0a:45:b5:
                    12:af:61:96:3a:35:41:62:09:a5:cb:54:51:00:f6:
                    cc:e4:92:fe:28:c7:dd:51:1b:b3:b3:8b:44:2f:eb:
                    fe:89:20:f0:6f:ce:03:c8:85:5d:6a:b1:b4:60:1d:
                    bc:37:48:cd:98:3b:02:fc:4b:ac:48:a2:b9:c5:85:
                    4a:e1:18:77:ea:ad:fd:b2:0e:25:57:8f:2d:77:92:
                    db:75:1b
                Exponent: 65537 (0x10001)
        X509v3 extensions:
            X509v3 Basic Constraints: 
                CA:FALSE
            Netscape Comment: 
                Easy-RSA Generated Certificate
            X509v3 Subject Key Identifier: 
                6A:C6:77:15:D9:55:42:84:62:E2:BA:E7:0F:A8:40:65:BC:0F:AD:27
            X509v3 Authority Key Identifier: 
                keyid:EF:38:8D:14:50:58:A7:5B:4D:9C:17:72:FC:DF:B9:AC:A7:51:B0:10
                DirName:/C=US/ST=CA/L=SanFrancisco/O=Pixglo, Inc./OU=VPN-CIE/CN=tunnel.pixglo.com/name=Bala Chandrasekaran/emailAddress=bala@pixglo.com
                serial:A6:DB:C6:83:80:E6:A0:79

            X509v3 Extended Key Usage: 
                TLS Web Client Authentication
            X509v3 Key Usage: 
                Digital Signature
    Signature Algorithm: sha1WithRSAEncryption
         e1:ed:ac:b3:52:80:73:dd:c1:d1:5b:45:d7:f2:4b:49:d5:4b:
         88:ab:35:65:64:4f:d7:8f:d1:4c:da:b9:13:88:f5:f6:94:aa:
         85:55:73:89:d0:a5:53:9a:c2:c7:85:6c:ab:7e:93:76:81:30:
         22:18:3a:64:6e:af:59:1b:bd:39:a4:2c:f8:da:ae:0d:df:ab:
         b3:8e:83:6d:e9:dc:11:ef:53:bc:50:6d:8c:91:c6:1b:15:fa:
         cb:53:94:df:9a:ce:b1:b7:84:91:4a:69:af:a3:d7:83:a1:26:
         74:fe:0f:93:6e:f9:3d:4a:c2:8e:e0:98:ef:a2:b1:60:45:ea:
         59:12:66:45:26:3d:6b:ad:37:79:12:e3:bb:90:3b:72:2a:84:
         df:2e:2c:7b:cc:88:10:ed:0f:d7:3a:e8:4c:d2:bb:3c:03:0b:
         a0:1b:67:d9:85:11:04:3a:bf:42:40:4e:3d:c4:ef:2b:61:d9:
         a7:36:15:38:e1:de:51:29:62:35:5f:68:44:ab:d8:4c:03:0a:
         9c:44:ae:ad:78:ec:c9:a3:fb:9d:04:42:9a:40:55:d6:7a:f8:
         d3:6d:d3:82:cb:fe:79:3c:7d:e7:45:f3:98:0e:61:fb:8d:1b:
         75:c7:61:31:0e:15:18:6a:b5:a4:29:7c:64:40:19:4f:7f:4a:
         e6:8b:52:6b:55:49:d4:0f:87:32:1d:6e:e0:8a:1a:9c:72:45:
         61:1e:90:f7:1a:47:a6:4c:ce:2b:38:17:97:1a:b3:ff:81:e2:
         23:d8:0f:cd:7c:51:6d:09:47:b6:ee:ac:2f:13:8c:3b:75:2c:
         a0:62:0f:9f:ec:67:03:4c:76:32:37:d4:e1:c0:96:8d:21:af:
         02:21:e9:d1:90:d2:a8:ed:21:c2:81:76:37:64:f8:b9:6d:db:
         72:09:b6:a5:48:81:bb:4c:c7:77:bc:93:23:e8:ac:0c:34:42:
         a7:29:1d:ed:00:56:b3:e0:f3:0f:de:74:40:6c:95:5f:9a:12:
         ca:03:e5:53:d6:c8:df:dd:6e:67:f9:fa:11:d2:3a:d0:9d:dd:
         a1:ad:36:64:99:91:d8:61:e3:ef:53:c0:1c:ef:5f:43:f6:82:
         1d:f9:fb:62:55:23:1b:2c:14:d0:7a:2d:f3:6f:f4:80:4f:58:
         4e:1e:b9:be:52:c1:83:2e:4f:b5:87:a4:ba:a3:3b:f3:02:f2:
         26:f1:cc:fc:3b:53:17:5c:9a:53:d6:41:af:03:3f:b3:c7:ca:
         56:3b:8e:5b:06:40:72:23:74:9d:6b:bd:41:fd:28:55:87:e7:
         48:2f:ee:eb:89:94:4e:da:6a:7c:61:6c:ff:f6:1a:1b:92:a2:
         e5:79:c3:29:44:a8:e9:3f
-----BEGIN CERTIFICATE-----
MIIHSDCCBTCgAwIBAgICA+gwDQYJKoZIhvcNAQEFBQAwgbQxCzAJBgNVBAYTAlVT
MQswCQYDVQQIEwJDQTEVMBMGA1UEBxMMU2FuRnJhbmNpc2NvMRUwEwYDVQQKEwxQ
aXhnbG8sIEluYy4xEDAOBgNVBAsTB1ZQTi1DSUUxGjAYBgNVBAMTEXR1bm5lbC5w
aXhnbG8uY29tMRwwGgYDVQQpExNCYWxhIENoYW5kcmFzZWthcmFuMR4wHAYJKoZI
hvcNAQkBFg9iYWxhQHBpeGdsby5jb20wHhcNMTgwMjE0MDY1MDMxWhcNMjgwMjEy
MDY1MDMxWjCBqTELMAkGA1UEBhMCVVMxCzAJBgNVBAgTAkNBMRUwEwYDVQQHEwxT
YW5GcmFuY2lzY28xFTATBgNVBAoTDFBpeGdsbywgSW5jLjEQMA4GA1UECxMHVlBO
LUNJRTEPMA0GA1UEAxMGY2llOTk5MRwwGgYDVQQpExNCYWxhIENoYW5kcmFzZWth
cmFuMR4wHAYJKoZIhvcNAQkBFg9iYWxhQHBpeGdsby5jb20wggIiMA0GCSqGSIb3
DQEBAQUAA4ICDwAwggIKAoICAQCQ7R7aKiEa85XRxxpo+Gr5nJa8qJ6BipMRpThc
vxOiFXlO3NuUB5xlkJZ/r21TlxZQWBcA5uz2Q/s5CW1B6ZzpAUYfP6Oiidra84Oi
zTl1QBM3ku5Ox5qn3S9ajtVDGria1QoIdXaj2s7KVu4/TqSeWXaGx0VZMMer3gOr
wc08XSBFYj7RBkCrAECABYLd5ayAn8/JukDZgIqFiM6J7OfbN9SU9iKoawImBZUq
WEpHx4Ssds0mWnufINoj5NisaHbhKPqF2JeNwbclRKIyIrMYkWOkSwUW6Juh56PV
GK1p1AnsRJQSpfmfjWSDD51TRUJwWOxpscgkefoh9+GKVM0wgOXD6bD5vidCSpR7
NxnNP2fFFT50IeGFsj0PKnn3fhv6ArBPBrWqZfjCozKYJu2MH/+PM09lrUid0SB1
ccmMkr1hxLlv6J/mnfVrKVvlXEkvGF7z4KEXAvU7Jb21Id7sA4jwplVRkCdxThb9
+85AhkQFK1vW9sWMQp64Bu+Taabt5IPVEA50Fc/fMCy14JLoyC/TYKEo8FOW2P15
L4izrdM2fsQrBgflGDb25p3NGQpFtRKvYZY6NUFiCaXLVFEA9szkkv4ox91RG7Oz
i0Qv6/6JIPBvzgPIhV1qsbRgHbw3SM2YOwL8S6xIornFhUrhGHfqrf2yDiVXjy13
ktt1GwIDAQABo4IBazCCAWcwCQYDVR0TBAIwADAtBglghkgBhvhCAQ0EIBYeRWFz
eS1SU0EgR2VuZXJhdGVkIENlcnRpZmljYXRlMB0GA1UdDgQWBBRqxncV2VVChGLi
uucPqEBlvA+tJzCB6QYDVR0jBIHhMIHegBTvOI0UUFinW02cF3L837msp1GwEKGB
uqSBtzCBtDELMAkGA1UEBhMCVVMxCzAJBgNVBAgTAkNBMRUwEwYDVQQHEwxTYW5G
cmFuY2lzY28xFTATBgNVBAoTDFBpeGdsbywgSW5jLjEQMA4GA1UECxMHVlBOLUNJ
RTEaMBgGA1UEAxMRdHVubmVsLnBpeGdsby5jb20xHDAaBgNVBCkTE0JhbGEgQ2hh
bmRyYXNla2FyYW4xHjAcBgkqhkiG9w0BCQEWD2JhbGFAcGl4Z2xvLmNvbYIJAKbb
xoOA5qB5MBMGA1UdJQQMMAoGCCsGAQUFBwMCMAsGA1UdDwQEAwIHgDANBgkqhkiG
9w0BAQUFAAOCAgEA4e2ss1KAc93B0VtF1/JLSdVLiKs1ZWRP14/RTNq5E4j19pSq
hVVzidClU5rCx4Vsq36TdoEwIhg6ZG6vWRu9OaQs+NquDd+rs46DbencEe9TvFBt
jJHGGxX6y1OU35rOsbeEkUppr6PXg6EmdP4Pk275PUrCjuCY76KxYEXqWRJmRSY9
a603eRLju5A7ciqE3y4se8yIEO0P1zroTNK7PAMLoBtn2YURBDq/QkBOPcTvK2HZ
pzYVOOHeUSliNV9oRKvYTAMKnESurXjsyaP7nQRCmkBV1nr4023Tgsv+eTx950Xz
mA5h+40bdcdhMQ4VGGq1pCl8ZEAZT39K5otSa1VJ1A+HMh1u4IoanHJFYR6Q9xpH
pkzOKzgXlxqz/4HiI9gPzXxRbQlHtu6sLxOMO3UsoGIPn+xnA0x2MjfU4cCWjSGv
AiHp0ZDSqO0hwoF2N2T4uW3bcgm2pUiBu0zHd7yTI+isDDRCpykd7QBWs+DzD950
QGyVX5oSygPlU9bI391uZ/n6EdI60J3doa02ZJmR2GHj71PAHO9fQ/aCHfn7YlUj
GywU0Hot82/0gE9YTh65vlLBgy5PtYekuqM78wLyJvHM/DtTF1yaU9ZBrwM/s8fK
VjuOWwZAciN0nWu9Qf0oVYfnSC/u64mUTtpqfGFs//YaG5Ki5XnDKUSo6T8=
-----END CERTIFICATE-----
