Certificate:
    Data:
        Version: 3 (0x2)
        Serial Number: 1001 (0x3e9)
    Signature Algorithm: sha1WithRSAEncryption
        Issuer: C=US, ST=CA, L=SanFrancisco, O=Pixglo, Inc., OU=VPN-CIE, CN=tunnel.pixglo.com/name=Bala Chandrasekaran/emailAddress=bala@pixglo.com
        Validity
            Not Before: Feb 14 06:50:32 2018 GMT
            Not After : Feb 12 06:50:32 2028 GMT
        Subject: C=US, ST=CA, L=SanFrancisco, O=Pixglo, Inc., OU=VPN-CIE, CN=cie1000/name=Bala Chandrasekaran/emailAddress=bala@pixglo.com
        Subject Public Key Info:
            Public Key Algorithm: rsaEncryption
                Public-Key: (4096 bit)
                Modulus:
                    00:bd:e7:18:ab:f2:8c:1d:be:1e:b3:04:0f:25:19:
                    b4:ea:e6:1f:b8:cc:0a:24:0f:cc:8e:41:28:0f:72:
                    c5:c9:52:c1:74:0b:23:1d:cf:75:37:30:09:b9:cd:
                    7d:b1:65:26:f9:37:00:cf:46:b7:66:9d:d8:2a:05:
                    31:02:2e:29:82:18:38:8f:19:21:c2:35:f0:ff:15:
                    40:fb:56:71:ae:dd:61:66:5a:99:70:eb:e0:71:c9:
                    6a:de:7b:06:bd:d8:b4:f3:2c:fe:b3:78:70:6a:df:
                    e5:a8:f0:c6:b4:72:41:63:15:dd:f8:e7:9a:6f:2a:
                    34:17:8d:29:93:50:eb:09:81:60:36:36:63:62:e8:
                    e4:ed:e5:0e:51:72:f9:c6:c5:d6:f3:c8:62:ac:dd:
                    97:71:0b:fe:25:1a:35:8a:9e:b1:24:06:45:4a:e2:
                    12:c0:5b:5f:cf:3d:98:f6:b4:eb:ce:66:b5:21:3a:
                    4e:9d:c5:62:18:02:5b:a6:72:96:9c:a1:17:d4:35:
                    28:fb:14:8f:7d:07:8a:d4:79:00:58:d8:7d:10:91:
                    89:c2:97:67:07:7a:77:e3:8a:75:a3:b1:10:29:21:
                    40:fc:81:bd:2f:68:27:ab:8b:91:5b:a3:bc:01:5a:
                    23:19:e1:ab:f9:78:00:2c:4a:93:fc:fa:a4:8a:1d:
                    44:67:d5:d5:a4:a6:9a:c5:73:d9:42:00:2d:c5:95:
                    b5:37:b7:ff:4b:91:13:1e:fc:a2:e8:30:67:22:40:
                    6b:12:6e:3a:f3:e7:a3:b4:00:3b:0e:e6:49:5c:a9:
                    7b:49:92:6f:e1:23:f5:36:be:e9:a0:b8:9c:61:a5:
                    5d:9a:f5:96:1b:a6:93:75:a5:f2:fb:30:54:29:3b:
                    7d:62:d8:fa:05:61:65:6c:f1:0e:ec:04:c5:f8:a6:
                    2c:d5:80:1f:60:9b:14:da:b7:fe:ba:9d:84:ce:0b:
                    be:34:ac:94:08:a3:05:6b:a9:44:32:82:65:bb:8f:
                    ae:93:ad:d7:e6:ad:a8:dc:34:29:0d:5c:22:39:c4:
                    85:f8:7e:84:c7:86:e5:4f:61:48:8b:59:e6:2a:8a:
                    f1:97:1d:0c:af:f1:c9:ba:b9:58:f8:db:03:53:a4:
                    01:92:4e:a6:d6:50:ea:55:de:b9:7a:f7:2d:a0:c3:
                    6e:30:3b:f8:7a:3e:50:92:f7:c3:32:f4:7f:14:90:
                    0c:c2:54:cb:a0:12:32:99:79:ed:22:45:6b:0d:00:
                    4f:20:6d:31:8d:c7:87:54:fa:4d:ca:06:35:80:32:
                    76:32:77:18:bf:4f:fd:4e:c5:6a:ce:aa:0f:d5:82:
                    c9:72:d9:6b:8d:01:dc:d3:75:e2:87:d2:6a:c0:59:
                    dc:2a:83
                Exponent: 65537 (0x10001)
        X509v3 extensions:
            X509v3 Basic Constraints: 
                CA:FALSE
            Netscape Comment: 
                Easy-RSA Generated Certificate
            X509v3 Subject Key Identifier: 
                29:B5:B8:F7:3F:36:AC:F0:FE:96:39:9F:68:7B:89:35:87:AF:21:94
            X509v3 Authority Key Identifier: 
                keyid:EF:38:8D:14:50:58:A7:5B:4D:9C:17:72:FC:DF:B9:AC:A7:51:B0:10
                DirName:/C=US/ST=CA/L=SanFrancisco/O=Pixglo, Inc./OU=VPN-CIE/CN=tunnel.pixglo.com/name=Bala Chandrasekaran/emailAddress=bala@pixglo.com
                serial:A6:DB:C6:83:80:E6:A0:79

            X509v3 Extended Key Usage: 
                TLS Web Client Authentication
            X509v3 Key Usage: 
                Digital Signature
    Signature Algorithm: sha1WithRSAEncryption
         00:79:b9:e0:da:73:8d:1a:30:b9:df:05:67:95:6e:21:7a:3c:
         2c:65:ac:18:0d:88:2e:52:a4:03:23:cd:f5:b5:31:30:b3:28:
         65:19:6e:25:4b:b2:97:cc:a0:78:bf:2a:fe:1a:c8:0f:bf:72:
         9b:c1:2f:0b:77:2a:b6:6c:f1:f3:e4:a5:7a:bd:67:6d:22:77:
         da:72:9f:af:d1:77:5c:77:a0:1c:f5:11:2d:a3:05:a9:67:6e:
         bd:b3:da:03:6f:5f:5e:6c:8c:d0:64:37:28:1a:c4:6d:f1:16:
         e1:c8:17:90:e7:07:87:24:76:f2:40:ab:5f:61:68:c2:4a:28:
         4b:c8:ba:d2:d3:20:2c:e9:0f:c5:34:b9:bb:f1:9b:b6:57:cd:
         a6:d2:87:cf:77:80:20:ca:b7:5e:dc:ed:17:45:f0:13:15:0f:
         93:5f:36:aa:4c:b6:be:79:12:ff:f0:a9:be:09:66:e6:62:8e:
         1b:85:13:86:9a:b4:e2:e4:d9:86:08:6d:d5:ab:66:12:3c:4e:
         eb:a7:3c:0c:43:af:0f:a6:61:d3:c1:ed:27:17:e7:45:1b:a5:
         a8:8b:eb:3e:85:e3:5d:81:ed:f9:50:95:3b:44:cd:71:7b:ad:
         ce:5e:a9:2c:e8:bb:b1:be:13:4a:05:21:26:6a:48:8d:86:33:
         b0:36:b4:36:95:cd:09:79:4f:7a:c1:e6:65:30:06:da:42:f3:
         73:49:82:22:09:75:37:ad:5c:95:42:dd:c7:f3:89:c3:46:f1:
         f5:99:12:81:bd:82:af:d0:34:a5:4b:89:cb:7f:00:2f:e3:27:
         9c:e9:c9:3f:1a:ef:5b:c3:c2:63:18:b0:6a:99:d6:78:99:a0:
         08:81:eb:1b:de:7a:5b:2d:e6:a8:2c:d0:cc:a0:35:17:95:04:
         26:89:23:d3:cf:71:d8:dc:6a:60:0d:48:b9:4f:ab:a5:b2:59:
         7a:ac:1b:dc:4b:f3:ac:26:df:a4:c8:db:61:a6:b5:4e:cd:8e:
         d9:70:1e:9d:ce:4a:c5:a4:7c:1d:28:57:cc:80:e7:fb:4d:51:
         bb:23:20:27:65:ac:ef:2c:32:ad:5a:bc:ae:89:db:90:c4:3d:
         db:e2:2f:f8:a5:52:14:fc:36:91:87:67:54:db:a4:a6:6b:33:
         a4:fb:ec:ce:e6:88:46:b7:61:9a:98:b0:90:f7:10:78:d7:4d:
         24:f3:2b:18:32:bf:72:cd:36:bf:34:c5:20:35:d2:99:79:9b:
         ea:08:d9:50:58:a8:33:44:ef:27:e2:93:4f:8a:d9:01:5c:03:
         ed:ad:76:8c:10:76:ce:f0:17:ab:11:d2:05:45:03:ef:52:9a:
         1e:fb:a1:ec:01:8d:d2:25
-----BEGIN CERTIFICATE-----
MIIHSTCCBTGgAwIBAgICA+kwDQYJKoZIhvcNAQEFBQAwgbQxCzAJBgNVBAYTAlVT
MQswCQYDVQQIEwJDQTEVMBMGA1UEBxMMU2FuRnJhbmNpc2NvMRUwEwYDVQQKEwxQ
aXhnbG8sIEluYy4xEDAOBgNVBAsTB1ZQTi1DSUUxGjAYBgNVBAMTEXR1bm5lbC5w
aXhnbG8uY29tMRwwGgYDVQQpExNCYWxhIENoYW5kcmFzZWthcmFuMR4wHAYJKoZI
hvcNAQkBFg9iYWxhQHBpeGdsby5jb20wHhcNMTgwMjE0MDY1MDMyWhcNMjgwMjEy
MDY1MDMyWjCBqjELMAkGA1UEBhMCVVMxCzAJBgNVBAgTAkNBMRUwEwYDVQQHEwxT
YW5GcmFuY2lzY28xFTATBgNVBAoTDFBpeGdsbywgSW5jLjEQMA4GA1UECxMHVlBO
LUNJRTEQMA4GA1UEAxMHY2llMTAwMDEcMBoGA1UEKRMTQmFsYSBDaGFuZHJhc2Vr
YXJhbjEeMBwGCSqGSIb3DQEJARYPYmFsYUBwaXhnbG8uY29tMIICIjANBgkqhkiG
9w0BAQEFAAOCAg8AMIICCgKCAgEAvecYq/KMHb4eswQPJRm06uYfuMwKJA/MjkEo
D3LFyVLBdAsjHc91NzAJuc19sWUm+TcAz0a3Zp3YKgUxAi4pghg4jxkhwjXw/xVA
+1Zxrt1hZlqZcOvgcclq3nsGvdi08yz+s3hwat/lqPDGtHJBYxXd+Oeabyo0F40p
k1DrCYFgNjZjYujk7eUOUXL5xsXW88hirN2XcQv+JRo1ip6xJAZFSuISwFtfzz2Y
9rTrzma1ITpOncViGAJbpnKWnKEX1DUo+xSPfQeK1HkAWNh9EJGJwpdnB3p344p1
o7EQKSFA/IG9L2gnq4uRW6O8AVojGeGr+XgALEqT/Pqkih1EZ9XVpKaaxXPZQgAt
xZW1N7f/S5ETHvyi6DBnIkBrEm468+ejtAA7DuZJXKl7SZJv4SP1Nr7poLicYaVd
mvWWG6aTdaXy+zBUKTt9Ytj6BWFlbPEO7ATF+KYs1YAfYJsU2rf+up2Ezgu+NKyU
CKMFa6lEMoJlu4+uk63X5q2o3DQpDVwiOcSF+H6Ex4blT2FIi1nmKorxlx0Mr/HJ
urlY+NsDU6QBkk6m1lDqVd65evctoMNuMDv4ej5QkvfDMvR/FJAMwlTLoBIymXnt
IkVrDQBPIG0xjceHVPpNygY1gDJ2MncYv0/9TsVqzqoP1YLJctlrjQHc03Xih9Jq
wFncKoMCAwEAAaOCAWswggFnMAkGA1UdEwQCMAAwLQYJYIZIAYb4QgENBCAWHkVh
c3ktUlNBIEdlbmVyYXRlZCBDZXJ0aWZpY2F0ZTAdBgNVHQ4EFgQUKbW49z82rPD+
ljmfaHuJNYevIZQwgekGA1UdIwSB4TCB3oAU7ziNFFBYp1tNnBdy/N+5rKdRsBCh
gbqkgbcwgbQxCzAJBgNVBAYTAlVTMQswCQYDVQQIEwJDQTEVMBMGA1UEBxMMU2Fu
RnJhbmNpc2NvMRUwEwYDVQQKEwxQaXhnbG8sIEluYy4xEDAOBgNVBAsTB1ZQTi1D
SUUxGjAYBgNVBAMTEXR1bm5lbC5waXhnbG8uY29tMRwwGgYDVQQpExNCYWxhIENo
YW5kcmFzZWthcmFuMR4wHAYJKoZIhvcNAQkBFg9iYWxhQHBpeGdsby5jb22CCQCm
28aDgOageTATBgNVHSUEDDAKBggrBgEFBQcDAjALBgNVHQ8EBAMCB4AwDQYJKoZI
hvcNAQEFBQADggIBAAB5ueDac40aMLnfBWeVbiF6PCxlrBgNiC5SpAMjzfW1MTCz
KGUZbiVLspfMoHi/Kv4ayA+/cpvBLwt3KrZs8fPkpXq9Z20id9pyn6/Rd1x3oBz1
ES2jBalnbr2z2gNvX15sjNBkNygaxG3xFuHIF5DnB4ckdvJAq19haMJKKEvIutLT
ICzpD8U0ubvxm7ZXzabSh893gCDKt17c7RdF8BMVD5NfNqpMtr55Ev/wqb4JZuZi
jhuFE4aatOLk2YYIbdWrZhI8TuunPAxDrw+mYdPB7ScX50UbpaiL6z6F412B7flQ
lTtEzXF7rc5eqSzou7G+E0oFISZqSI2GM7A2tDaVzQl5T3rB5mUwBtpC83NJgiIJ
dTetXJVC3cfzicNG8fWZEoG9gq/QNKVLict/AC/jJ5zpyT8a71vDwmMYsGqZ1niZ
oAiB6xveelst5qgs0MygNReVBCaJI9PPcdjcamANSLlPq6WyWXqsG9xL86wm36TI
22GmtU7NjtlwHp3OSsWkfB0oV8yA5/tNUbsjICdlrO8sMq1avK6J25DEPdviL/il
UhT8NpGHZ1TbpKZrM6T77M7miEa3YZqYsJD3EHjXTSTzKxgyv3LNNr80xSA10pl5
m+oI2VBYqDNE7yfik0+K2QFcA+2tdowQds7wF6sR0gVFA+9Smh77oewBjdIl
-----END CERTIFICATE-----
