Certificate:
    Data:
        Version: 3 (0x2)
        Serial Number: 4 (0x4)
    Signature Algorithm: sha1WithRSAEncryption
        Issuer: C=US, ST=CA, L=SanFrancisco, O=Pixglo, Inc., OU=VPN-CIE, CN=tunnel.pixglo.com/name=Bala Chandrasekaran/emailAddress=bala@pixglo.com
        Validity
            Not Before: Feb 14 06:24:12 2018 GMT
            Not After : Feb 12 06:24:12 2028 GMT
        Subject: C=US, ST=CA, L=SanFrancisco, O=Pixglo, Inc., OU=VPN-CIE, CN=cie3/name=Bala Chandrasekaran/emailAddress=bala@pixglo.com
        Subject Public Key Info:
            Public Key Algorithm: rsaEncryption
                Public-Key: (4096 bit)
                Modulus:
                    00:bd:81:12:b2:0e:be:43:49:e1:0a:1a:01:5b:3c:
                    70:38:0e:c1:b8:bf:53:de:66:c7:bc:85:59:85:7d:
                    e8:c2:6a:d6:31:6b:5d:0d:ea:49:f8:18:28:e2:9c:
                    c4:17:dc:87:dc:22:c8:73:49:ea:82:16:87:20:2f:
                    01:6e:57:12:1d:62:4e:07:c0:af:d3:c8:d9:73:76:
                    01:6c:09:40:22:f1:76:39:13:b8:f3:18:bf:06:d5:
                    8a:25:bd:d4:df:c4:03:ce:3f:fa:ce:70:12:74:cf:
                    54:3b:76:e1:59:39:eb:98:17:a2:20:41:eb:35:f5:
                    d1:7a:39:98:df:99:fe:2c:78:5b:e6:d6:10:10:9a:
                    f8:bb:fa:14:2f:8b:64:8f:74:cb:a5:00:bc:5a:92:
                    fd:2a:2c:c0:3c:91:a7:a7:ab:74:b6:cd:75:76:88:
                    10:c2:64:88:85:ee:9f:f7:48:17:6f:33:49:7a:7d:
                    92:2a:ae:1f:b4:fb:43:4c:0e:e2:70:e7:2f:df:60:
                    50:64:d5:ac:4c:e4:8d:04:ef:29:14:73:c9:e2:c7:
                    c0:b9:9a:98:8b:ea:3f:58:e5:f9:1a:aa:b9:78:a4:
                    22:c6:67:a8:09:8f:54:0b:31:cf:cd:9d:83:8e:bc:
                    f5:cf:ed:7d:2e:e0:aa:c2:c9:f9:fa:54:d8:7c:c9:
                    a3:58:05:f4:e2:d0:d7:7c:b9:88:86:1b:9d:40:28:
                    96:de:cc:65:42:a1:07:bd:1a:41:87:42:82:ca:bb:
                    fb:67:b1:1f:f2:3b:4a:e0:90:fd:b8:dc:56:48:f0:
                    ba:0d:4a:9d:f9:0a:1c:05:2b:4d:36:24:6a:a1:7f:
                    35:de:c8:75:0b:4b:9c:8b:54:f8:b0:4e:f3:ec:1c:
                    d4:e6:c2:b5:f2:2a:80:57:65:f3:4a:9c:76:3c:ea:
                    9d:1f:0b:ba:13:9a:1b:66:b9:4a:8b:68:9c:4a:4b:
                    0f:f2:ea:66:0c:2c:d2:d5:44:59:19:bb:08:6f:5f:
                    b7:d7:90:96:33:cb:0a:34:db:c3:63:04:6d:24:c9:
                    41:af:d0:bf:62:dd:62:54:30:1b:8d:d3:98:da:1d:
                    07:af:95:b5:90:37:8f:8d:d9:d5:71:dc:ad:3e:2b:
                    70:8e:95:a1:07:20:94:d7:ba:b0:5c:02:c0:8a:72:
                    fd:59:c8:bc:69:9d:6d:a7:84:1d:38:15:0e:bb:4a:
                    e8:7d:57:f5:fd:b1:6b:3b:c9:ad:8c:cb:2c:f9:10:
                    e8:ba:af:7e:94:45:5a:79:c6:c4:df:a6:7b:8a:ed:
                    f2:33:07:d3:f3:2d:9d:7d:02:a0:3e:5a:ad:5f:74:
                    11:37:8c:b6:b3:d0:29:2a:33:4d:62:72:e0:0c:4f:
                    ed:8b:35
                Exponent: 65537 (0x10001)
        X509v3 extensions:
            X509v3 Basic Constraints: 
                CA:FALSE
            Netscape Comment: 
                Easy-RSA Generated Certificate
            X509v3 Subject Key Identifier: 
                84:E3:FC:FA:8F:6D:41:14:7F:89:25:EA:FD:CC:F3:7C:28:84:ED:D6
            X509v3 Authority Key Identifier: 
                keyid:EF:38:8D:14:50:58:A7:5B:4D:9C:17:72:FC:DF:B9:AC:A7:51:B0:10
                DirName:/C=US/ST=CA/L=SanFrancisco/O=Pixglo, Inc./OU=VPN-CIE/CN=tunnel.pixglo.com/name=Bala Chandrasekaran/emailAddress=bala@pixglo.com
                serial:A6:DB:C6:83:80:E6:A0:79

            X509v3 Extended Key Usage: 
                TLS Web Client Authentication
            X509v3 Key Usage: 
                Digital Signature
    Signature Algorithm: sha1WithRSAEncryption
         45:16:90:7c:ae:b2:b6:6c:3e:ca:c9:c9:96:2f:51:fc:8e:f7:
         21:c1:02:a3:97:21:42:4a:66:dc:ff:eb:41:b5:77:fc:c7:b0:
         67:e7:ce:54:12:84:3c:a3:bd:46:f8:33:1c:66:f2:8a:f3:75:
         20:0d:28:48:26:20:07:77:63:1d:c4:bb:2f:ce:c7:c8:60:2c:
         75:10:8e:8d:2b:fc:8c:60:81:35:1c:8b:fc:fe:0e:5d:8b:b7:
         a4:8d:62:66:19:64:ba:22:5b:83:fe:cf:6e:94:74:d3:58:b0:
         4e:d5:37:2f:64:3d:10:cb:23:80:ba:41:b9:5d:74:56:81:a9:
         ea:c7:0a:ca:0a:5b:49:f0:b2:d0:3e:25:c7:e6:f3:e3:ab:da:
         10:55:c7:52:32:32:af:46:f1:d3:c1:7b:7c:da:48:17:e6:59:
         af:7d:c5:ee:98:bd:da:0a:24:19:cc:8e:d3:cb:ec:01:55:69:
         ca:91:48:e3:a2:1a:b1:c5:84:57:ec:cb:b4:6a:ff:37:66:56:
         1c:41:e7:6a:62:34:9e:66:1d:54:8e:aa:84:5e:95:84:ab:c0:
         b0:fc:c6:ed:d5:b4:d0:55:2d:db:65:3e:4f:b0:b7:cb:14:53:
         39:f3:c7:dc:fb:9c:0c:c8:3f:9e:69:a9:83:19:7d:22:0a:96:
         33:58:d1:6d:3c:9f:02:62:97:70:38:f5:8c:b2:16:61:d4:6b:
         50:19:d5:96:20:f7:ed:df:73:52:21:1d:f5:26:5a:b9:19:73:
         1e:3d:89:0a:dd:39:a0:47:cb:2d:db:63:1d:b3:5d:06:10:a7:
         47:6f:32:9b:c8:a7:1c:d9:9c:2c:13:2e:60:b6:a7:71:49:cc:
         48:ca:55:12:dc:56:b7:d4:4f:e6:60:29:c0:b5:30:32:93:bf:
         a3:67:fe:3b:39:72:74:97:6c:89:de:ed:26:8e:a5:7b:97:86:
         3d:fc:81:79:17:84:c8:8a:87:c2:dc:74:32:17:6e:df:23:c7:
         ed:a6:93:d9:23:da:07:e8:46:99:41:a7:e4:06:df:31:a7:4e:
         e5:c5:68:7f:2a:80:59:0f:ca:68:f2:db:d3:9e:c1:2e:a1:7a:
         bf:13:f9:6a:a7:55:bb:cc:ba:30:2b:ea:76:b8:46:6b:96:7c:
         05:23:8a:e8:cf:d3:c1:68:0f:aa:8f:30:00:e4:4d:33:84:82:
         42:bb:a7:84:da:5b:76:56:48:ef:71:20:69:95:46:30:8f:66:
         25:a4:21:9a:06:d8:f7:b8:5a:d2:91:bb:b6:0b:4e:d8:26:55:
         02:cf:7c:d7:8c:aa:de:46:a3:20:e9:80:0a:a0:6d:e6:3c:5e:
         a9:ae:ce:df:60:d9:0a:d2
-----BEGIN CERTIFICATE-----
MIIHRTCCBS2gAwIBAgIBBDANBgkqhkiG9w0BAQUFADCBtDELMAkGA1UEBhMCVVMx
CzAJBgNVBAgTAkNBMRUwEwYDVQQHEwxTYW5GcmFuY2lzY28xFTATBgNVBAoTDFBp
eGdsbywgSW5jLjEQMA4GA1UECxMHVlBOLUNJRTEaMBgGA1UEAxMRdHVubmVsLnBp
eGdsby5jb20xHDAaBgNVBCkTE0JhbGEgQ2hhbmRyYXNla2FyYW4xHjAcBgkqhkiG
9w0BCQEWD2JhbGFAcGl4Z2xvLmNvbTAeFw0xODAyMTQwNjI0MTJaFw0yODAyMTIw
NjI0MTJaMIGnMQswCQYDVQQGEwJVUzELMAkGA1UECBMCQ0ExFTATBgNVBAcTDFNh
bkZyYW5jaXNjbzEVMBMGA1UEChMMUGl4Z2xvLCBJbmMuMRAwDgYDVQQLEwdWUE4t
Q0lFMQ0wCwYDVQQDEwRjaWUzMRwwGgYDVQQpExNCYWxhIENoYW5kcmFzZWthcmFu
MR4wHAYJKoZIhvcNAQkBFg9iYWxhQHBpeGdsby5jb20wggIiMA0GCSqGSIb3DQEB
AQUAA4ICDwAwggIKAoICAQC9gRKyDr5DSeEKGgFbPHA4DsG4v1PeZse8hVmFfejC
atYxa10N6kn4GCjinMQX3IfcIshzSeqCFocgLwFuVxIdYk4HwK/TyNlzdgFsCUAi
8XY5E7jzGL8G1YolvdTfxAPOP/rOcBJ0z1Q7duFZOeuYF6IgQes19dF6OZjfmf4s
eFvm1hAQmvi7+hQvi2SPdMulALxakv0qLMA8kaenq3S2zXV2iBDCZIiF7p/3SBdv
M0l6fZIqrh+0+0NMDuJw5y/fYFBk1axM5I0E7ykUc8nix8C5mpiL6j9Y5fkaqrl4
pCLGZ6gJj1QLMc/NnYOOvPXP7X0u4KrCyfn6VNh8yaNYBfTi0Nd8uYiGG51AKJbe
zGVCoQe9GkGHQoLKu/tnsR/yO0rgkP243FZI8LoNSp35ChwFK002JGqhfzXeyHUL
S5yLVPiwTvPsHNTmwrXyKoBXZfNKnHY86p0fC7oTmhtmuUqLaJxKSw/y6mYMLNLV
RFkZuwhvX7fXkJYzywo028NjBG0kyUGv0L9i3WJUMBuN05jaHQevlbWQN4+N2dVx
3K0+K3COlaEHIJTXurBcAsCKcv1ZyLxpnW2nhB04FQ67Suh9V/X9sWs7ya2Myyz5
EOi6r36URVp5xsTfpnuK7fIzB9PzLZ19AqA+Wq1fdBE3jLaz0CkqM01icuAMT+2L
NQIDAQABo4IBazCCAWcwCQYDVR0TBAIwADAtBglghkgBhvhCAQ0EIBYeRWFzeS1S
U0EgR2VuZXJhdGVkIENlcnRpZmljYXRlMB0GA1UdDgQWBBSE4/z6j21BFH+JJer9
zPN8KITt1jCB6QYDVR0jBIHhMIHegBTvOI0UUFinW02cF3L837msp1GwEKGBuqSB
tzCBtDELMAkGA1UEBhMCVVMxCzAJBgNVBAgTAkNBMRUwEwYDVQQHEwxTYW5GcmFu
Y2lzY28xFTATBgNVBAoTDFBpeGdsbywgSW5jLjEQMA4GA1UECxMHVlBOLUNJRTEa
MBgGA1UEAxMRdHVubmVsLnBpeGdsby5jb20xHDAaBgNVBCkTE0JhbGEgQ2hhbmRy
YXNla2FyYW4xHjAcBgkqhkiG9w0BCQEWD2JhbGFAcGl4Z2xvLmNvbYIJAKbbxoOA
5qB5MBMGA1UdJQQMMAoGCCsGAQUFBwMCMAsGA1UdDwQEAwIHgDANBgkqhkiG9w0B
AQUFAAOCAgEARRaQfK6ytmw+ysnJli9R/I73IcECo5chQkpm3P/rQbV3/MewZ+fO
VBKEPKO9RvgzHGbyivN1IA0oSCYgB3djHcS7L87HyGAsdRCOjSv8jGCBNRyL/P4O
XYu3pI1iZhlkuiJbg/7PbpR001iwTtU3L2Q9EMsjgLpBuV10VoGp6scKygpbSfCy
0D4lx+bz46vaEFXHUjIyr0bx08F7fNpIF+ZZr33F7pi92gokGcyO08vsAVVpypFI
46IascWEV+zLtGr/N2ZWHEHnamI0nmYdVI6qhF6VhKvAsPzG7dW00FUt22U+T7C3
yxRTOfPH3PucDMg/nmmpgxl9IgqWM1jRbTyfAmKXcDj1jLIWYdRrUBnVliD37d9z
UiEd9SZauRlzHj2JCt05oEfLLdtjHbNdBhCnR28ym8inHNmcLBMuYLancUnMSMpV
EtxWt9RP5mApwLUwMpO/o2f+OzlydJdsid7tJo6le5eGPfyBeReEyIqHwtx0Mhdu
3yPH7aaT2SPaB+hGmUGn5AbfMadO5cVofyqAWQ/KaPLb057BLqF6vxP5aqdVu8y6
MCvqdrhGa5Z8BSOK6M/TwWgPqo8wAORNM4SCQrunhNpbdlZI73EgaZVGMI9mJaQh
mgbY97ha0pG7tgtO2CZVAs9814yq3kajIOmACqBt5jxeqa7O32DZCtI=
-----END CERTIFICATE-----
