Certificate:
    Data:
        Version: 3 (0x2)
        Serial Number: 7 (0x7)
    Signature Algorithm: sha1WithRSAEncryption
        Issuer: C=US, ST=CA, L=SanFrancisco, O=Pixglo, Inc., OU=VPN-CIE, CN=tunnel.pixglo.com/name=Bala Chandrasekaran/emailAddress=bala@pixglo.com
        Validity
            Not Before: Feb 14 06:24:14 2018 GMT
            Not After : Feb 12 06:24:14 2028 GMT
        Subject: C=US, ST=CA, L=SanFrancisco, O=Pixglo, Inc., OU=VPN-CIE, CN=cie6/name=Bala Chandrasekaran/emailAddress=bala@pixglo.com
        Subject Public Key Info:
            Public Key Algorithm: rsaEncryption
                Public-Key: (4096 bit)
                Modulus:
                    00:c6:c1:66:90:82:09:b1:41:4f:c0:17:57:28:4a:
                    b8:7d:9d:8b:34:f6:99:48:c3:7b:a8:ea:3b:1c:88:
                    f8:fc:81:e4:ba:a7:6a:36:20:82:08:e7:f8:57:98:
                    f2:e0:f3:75:2a:db:1e:a2:1c:ed:0f:71:42:1d:8b:
                    1d:bf:07:1a:1f:dc:25:84:a7:b7:96:95:92:b4:61:
                    38:d1:f5:a1:14:13:7f:85:a7:eb:a5:1a:07:0b:82:
                    ee:36:cf:f3:e1:3d:fd:6e:24:7a:6b:21:dc:ab:0b:
                    fd:e0:89:6d:e0:a2:c6:5d:ed:4f:66:5b:c1:e7:9b:
                    a2:fe:7e:db:a1:05:96:75:c6:f7:11:ab:b7:ee:24:
                    f8:25:81:85:31:aa:14:0f:b1:3a:e0:11:10:14:36:
                    2c:ba:6d:f2:a5:79:b3:e9:62:d6:72:72:02:52:7f:
                    b2:f2:96:a8:e9:4b:35:f7:53:a7:1c:e9:a0:64:6f:
                    d6:09:00:42:5e:21:fe:bb:97:02:59:fc:99:b4:42:
                    3f:56:67:cd:6f:7d:a8:f2:05:a6:11:bf:76:98:65:
                    56:d5:c1:93:27:2b:d0:fd:45:25:0a:cf:c5:39:a8:
                    52:4a:37:08:5b:eb:b3:ac:ef:26:13:10:1a:fa:30:
                    d1:8d:3d:69:83:3b:15:1d:22:46:20:a8:e2:b2:bb:
                    ed:9b:96:82:24:33:a0:0f:cc:20:fc:36:37:ed:66:
                    06:88:7c:75:bf:fa:4c:da:8c:6d:0e:7b:4c:b4:e7:
                    45:ad:f2:6b:13:71:af:2e:ec:4d:6b:d6:c2:fa:66:
                    dc:fe:54:38:fb:b7:c5:42:dc:22:46:c7:e7:c0:8a:
                    04:f4:46:d2:11:0e:7c:2c:b0:a2:97:04:c9:2d:15:
                    bd:41:13:e0:86:de:c0:2f:64:35:c2:3b:23:94:c5:
                    ac:ea:f9:5c:e2:67:11:8e:20:9c:7c:be:ea:2f:a8:
                    71:35:a2:b7:47:ae:8e:aa:7d:e1:a6:a4:91:ed:78:
                    c0:08:c9:03:bf:54:41:f4:08:66:b5:6d:b6:3d:45:
                    d9:6e:d3:15:f4:78:b2:0f:ad:3c:a6:e8:ca:b6:7f:
                    9b:58:e1:53:69:58:c3:58:a0:4f:59:f7:98:49:47:
                    e9:16:d9:7e:94:9d:6c:ac:a9:ed:82:0f:d3:01:63:
                    82:ea:64:33:79:08:fd:50:4f:01:ed:b4:8b:23:28:
                    01:8f:56:fb:d3:76:bd:77:30:fa:cc:f8:f4:18:02:
                    be:c1:cb:ce:80:26:61:4c:67:db:39:5f:88:ba:cf:
                    e9:43:7d:17:71:5f:2a:62:01:be:ae:f7:f9:56:e6:
                    16:a9:6d:cb:57:28:c3:e7:85:2b:a6:07:64:a1:15:
                    9a:29:e3
                Exponent: 65537 (0x10001)
        X509v3 extensions:
            X509v3 Basic Constraints: 
                CA:FALSE
            Netscape Comment: 
                Easy-RSA Generated Certificate
            X509v3 Subject Key Identifier: 
                2A:5E:27:40:D9:92:4F:83:86:FC:CF:80:31:11:C3:A8:7D:C1:65:26
            X509v3 Authority Key Identifier: 
                keyid:EF:38:8D:14:50:58:A7:5B:4D:9C:17:72:FC:DF:B9:AC:A7:51:B0:10
                DirName:/C=US/ST=CA/L=SanFrancisco/O=Pixglo, Inc./OU=VPN-CIE/CN=tunnel.pixglo.com/name=Bala Chandrasekaran/emailAddress=bala@pixglo.com
                serial:A6:DB:C6:83:80:E6:A0:79

            X509v3 Extended Key Usage: 
                TLS Web Client Authentication
            X509v3 Key Usage: 
                Digital Signature
    Signature Algorithm: sha1WithRSAEncryption
         7e:0f:5a:2f:c1:a8:fc:5b:de:ad:26:35:29:ff:8f:67:81:b0:
         87:60:90:e4:52:84:b7:72:4a:ea:13:c7:6f:3e:87:3c:19:4c:
         37:68:a5:7c:9b:91:e6:a9:96:2a:a4:08:6a:bf:1f:aa:63:46:
         51:31:c4:a5:de:2a:ed:d8:06:e2:9d:6e:a6:68:1e:50:66:29:
         3d:18:36:f1:0f:1a:53:41:ad:c9:24:cb:8d:ff:41:49:7d:48:
         78:a6:66:65:06:44:ba:f9:dd:71:35:c3:f0:b5:d2:0d:21:39:
         9b:22:a1:a7:33:51:47:86:34:3c:bb:0e:57:e7:3c:31:01:30:
         1e:de:22:e5:59:f6:16:e4:79:9d:f9:5d:51:02:73:bf:ca:1f:
         4b:77:ba:33:f9:57:45:09:3d:e4:7e:44:17:40:bf:5b:73:41:
         d3:91:d9:5d:68:aa:f3:3f:58:fc:7c:48:80:7d:29:9a:2e:b4:
         a6:69:dc:7f:c9:2f:7e:19:8f:41:dc:03:31:5b:05:53:05:d6:
         59:ad:47:0d:d1:20:fe:49:99:9b:5e:a5:a2:3e:fa:80:71:e2:
         78:38:6f:dc:5d:24:1e:eb:1b:30:c8:28:14:e7:0f:38:b9:63:
         7e:85:5b:fa:45:96:1a:bd:c1:1d:81:f0:d0:7b:1b:f9:87:61:
         35:a1:7e:94:16:a1:27:f5:87:09:01:63:23:e2:ea:f3:e5:ec:
         40:dc:fd:52:3d:f9:c3:04:8a:7a:14:7a:3e:14:ae:51:17:eb:
         49:8f:22:2c:9e:45:2f:df:8a:9a:5a:05:3e:ff:a5:1d:c6:cc:
         c9:ef:7b:81:c4:bc:ab:40:be:8b:42:0d:e7:37:0b:66:3a:0b:
         78:7b:62:78:db:03:0f:91:ea:4d:83:8f:e3:96:ac:d7:c6:fb:
         df:2b:16:4b:c9:b9:80:30:41:7b:31:ec:66:46:45:6b:19:76:
         ff:f5:38:a1:0f:a0:c9:de:2c:af:76:e8:9b:0c:06:25:16:3d:
         98:2d:67:e1:b0:75:71:a4:1e:37:6e:5b:f9:ab:57:96:44:c3:
         a1:bc:81:ad:b6:78:95:ce:49:52:dd:8f:84:07:3f:50:6c:cd:
         5d:aa:45:c6:41:fb:a3:4d:76:14:69:af:df:38:0a:7d:57:6f:
         bf:66:3d:2c:67:d1:71:1b:99:96:b6:36:f0:d5:0e:33:b4:a0:
         17:8b:56:cd:1a:30:19:d0:7a:ec:f4:cb:fe:f7:80:08:1a:59:
         da:fe:41:48:94:7f:c5:51:c7:76:63:fc:f5:3d:b2:97:6e:29:
         ed:eb:ae:5c:48:5b:1a:d0:1f:99:1e:ee:65:c0:50:80:37:b7:
         37:f3:b2:48:70:0a:ac:a2
-----BEGIN CERTIFICATE-----
MIIHRTCCBS2gAwIBAgIBBzANBgkqhkiG9w0BAQUFADCBtDELMAkGA1UEBhMCVVMx
CzAJBgNVBAgTAkNBMRUwEwYDVQQHEwxTYW5GcmFuY2lzY28xFTATBgNVBAoTDFBp
eGdsbywgSW5jLjEQMA4GA1UECxMHVlBOLUNJRTEaMBgGA1UEAxMRdHVubmVsLnBp
eGdsby5jb20xHDAaBgNVBCkTE0JhbGEgQ2hhbmRyYXNla2FyYW4xHjAcBgkqhkiG
9w0BCQEWD2JhbGFAcGl4Z2xvLmNvbTAeFw0xODAyMTQwNjI0MTRaFw0yODAyMTIw
NjI0MTRaMIGnMQswCQYDVQQGEwJVUzELMAkGA1UECBMCQ0ExFTATBgNVBAcTDFNh
bkZyYW5jaXNjbzEVMBMGA1UEChMMUGl4Z2xvLCBJbmMuMRAwDgYDVQQLEwdWUE4t
Q0lFMQ0wCwYDVQQDEwRjaWU2MRwwGgYDVQQpExNCYWxhIENoYW5kcmFzZWthcmFu
MR4wHAYJKoZIhvcNAQkBFg9iYWxhQHBpeGdsby5jb20wggIiMA0GCSqGSIb3DQEB
AQUAA4ICDwAwggIKAoICAQDGwWaQggmxQU/AF1coSrh9nYs09plIw3uo6jsciPj8
geS6p2o2IIII5/hXmPLg83Uq2x6iHO0PcUIdix2/Bxof3CWEp7eWlZK0YTjR9aEU
E3+Fp+ulGgcLgu42z/PhPf1uJHprIdyrC/3giW3gosZd7U9mW8Hnm6L+ftuhBZZ1
xvcRq7fuJPglgYUxqhQPsTrgERAUNiy6bfKlebPpYtZycgJSf7LylqjpSzX3U6cc
6aBkb9YJAEJeIf67lwJZ/Jm0Qj9WZ81vfajyBaYRv3aYZVbVwZMnK9D9RSUKz8U5
qFJKNwhb67Os7yYTEBr6MNGNPWmDOxUdIkYgqOKyu+2bloIkM6APzCD8NjftZgaI
fHW/+kzajG0Oe0y050Wt8msTca8u7E1r1sL6Ztz+VDj7t8VC3CJGx+fAigT0RtIR
DnwssKKXBMktFb1BE+CG3sAvZDXCOyOUxazq+VziZxGOIJx8vuovqHE1ordHro6q
feGmpJHteMAIyQO/VEH0CGa1bbY9Rdlu0xX0eLIPrTym6Mq2f5tY4VNpWMNYoE9Z
95hJR+kW2X6UnWysqe2CD9MBY4LqZDN5CP1QTwHttIsjKAGPVvvTdr13MPrM+PQY
Ar7By86AJmFMZ9s5X4i6z+lDfRdxXypiAb6u9/lW5hapbctXKMPnhSumB2ShFZop
4wIDAQABo4IBazCCAWcwCQYDVR0TBAIwADAtBglghkgBhvhCAQ0EIBYeRWFzeS1S
U0EgR2VuZXJhdGVkIENlcnRpZmljYXRlMB0GA1UdDgQWBBQqXidA2ZJPg4b8z4Ax
EcOofcFlJjCB6QYDVR0jBIHhMIHegBTvOI0UUFinW02cF3L837msp1GwEKGBuqSB
tzCBtDELMAkGA1UEBhMCVVMxCzAJBgNVBAgTAkNBMRUwEwYDVQQHEwxTYW5GcmFu
Y2lzY28xFTATBgNVBAoTDFBpeGdsbywgSW5jLjEQMA4GA1UECxMHVlBOLUNJRTEa
MBgGA1UEAxMRdHVubmVsLnBpeGdsby5jb20xHDAaBgNVBCkTE0JhbGEgQ2hhbmRy
YXNla2FyYW4xHjAcBgkqhkiG9w0BCQEWD2JhbGFAcGl4Z2xvLmNvbYIJAKbbxoOA
5qB5MBMGA1UdJQQMMAoGCCsGAQUFBwMCMAsGA1UdDwQEAwIHgDANBgkqhkiG9w0B
AQUFAAOCAgEAfg9aL8Go/FverSY1Kf+PZ4Gwh2CQ5FKEt3JK6hPHbz6HPBlMN2il
fJuR5qmWKqQIar8fqmNGUTHEpd4q7dgG4p1upmgeUGYpPRg28Q8aU0GtySTLjf9B
SX1IeKZmZQZEuvndcTXD8LXSDSE5myKhpzNRR4Y0PLsOV+c8MQEwHt4i5Vn2FuR5
nfldUQJzv8ofS3e6M/lXRQk95H5EF0C/W3NB05HZXWiq8z9Y/HxIgH0pmi60pmnc
f8kvfhmPQdwDMVsFUwXWWa1HDdEg/kmZm16loj76gHHieDhv3F0kHusbMMgoFOcP
OLljfoVb+kWWGr3BHYHw0Hsb+YdhNaF+lBahJ/WHCQFjI+Lq8+XsQNz9Uj35wwSK
ehR6PhSuURfrSY8iLJ5FL9+KmloFPv+lHcbMye97gcS8q0C+i0IN5zcLZjoLeHti
eNsDD5HqTYOP45as18b73ysWS8m5gDBBezHsZkZFaxl2//U4oQ+gyd4sr3bomwwG
JRY9mC1n4bB1caQeN25b+atXlkTDobyBrbZ4lc5JUt2PhAc/UGzNXapFxkH7o012
FGmv3zgKfVdvv2Y9LGfRcRuZlrY28NUOM7SgF4tWzRowGdB67PTL/veACBpZ2v5B
SJR/xVHHdmP89T2yl24p7euuXEhbGtAfmR7uZcBQgDe3N/OySHAKrKI=
-----END CERTIFICATE-----
