Certificate:
    Data:
        Version: 3 (0x2)
        Serial Number: 8 (0x8)
    Signature Algorithm: sha1WithRSAEncryption
        Issuer: C=US, ST=CA, L=SanFrancisco, O=Pixglo, Inc., OU=VPN-CIE, CN=tunnel.pixglo.com/name=Bala Chandrasekaran/emailAddress=bala@pixglo.com
        Validity
            Not Before: Feb 14 06:24:14 2018 GMT
            Not After : Feb 12 06:24:14 2028 GMT
        Subject: C=US, ST=CA, L=SanFrancisco, O=Pixglo, Inc., OU=VPN-CIE, CN=cie7/name=Bala Chandrasekaran/emailAddress=bala@pixglo.com
        Subject Public Key Info:
            Public Key Algorithm: rsaEncryption
                Public-Key: (4096 bit)
                Modulus:
                    00:c8:3c:30:6f:72:64:b8:ab:a1:9c:53:d6:c6:64:
                    8e:0c:0c:ef:0f:20:bc:ca:60:c6:64:b3:50:9d:c3:
                    ee:44:06:8e:55:9e:e3:bb:16:fb:6b:61:f8:93:37:
                    b7:03:76:d1:6c:24:dc:bf:97:0b:ef:91:e4:b3:94:
                    e6:7e:6a:04:3c:92:f0:a5:d5:22:87:c0:62:f2:a8:
                    1d:91:46:c3:fd:0a:da:ec:87:65:04:29:33:d3:1d:
                    32:70:02:b8:7c:e1:66:79:8c:94:35:db:89:3b:30:
                    c6:30:2e:53:b9:82:ce:26:c2:e1:fc:ac:79:82:35:
                    af:34:91:b2:96:16:fa:bf:db:7c:43:41:86:31:1e:
                    b5:1b:ab:f9:19:b3:5d:aa:60:94:50:fd:e5:c5:53:
                    75:54:ac:10:20:38:98:c1:a1:85:28:a1:da:6b:ed:
                    ff:de:e1:d9:d0:19:bb:f6:62:06:2f:f7:fe:a0:29:
                    2f:45:7a:83:52:3f:03:0f:d4:36:89:3b:64:08:97:
                    74:d7:ce:a7:9f:f6:dd:7f:fe:f3:83:59:39:a1:e6:
                    11:4c:be:ea:e4:f4:64:8a:4b:72:62:ae:19:84:19:
                    16:a9:d1:0a:30:59:e0:d3:0a:33:02:1b:0d:56:2d:
                    1c:d6:20:a5:d4:32:8a:27:40:f5:8d:2b:ef:85:f5:
                    2c:7b:d9:c1:87:7c:4c:98:be:60:24:0a:a1:bb:72:
                    60:b6:58:a6:45:6b:8e:68:a3:53:94:07:19:3e:15:
                    3b:81:e9:02:b5:04:9c:f4:59:81:13:f3:54:1f:47:
                    8e:75:1e:fe:f2:be:99:10:a5:8f:45:de:58:43:2c:
                    37:d6:60:54:bf:5c:2f:ad:ba:a9:26:56:a2:c9:0f:
                    28:a2:cb:af:73:64:e8:c4:87:be:5b:e7:ff:57:5d:
                    90:9e:1c:e7:1d:c2:3a:ff:9a:7c:09:71:dd:a6:ef:
                    d7:59:36:17:5b:c2:47:1b:e3:74:0d:e1:5c:d5:dc:
                    39:77:89:7e:b6:81:6b:c8:66:de:0d:2c:f8:f8:f2:
                    14:e5:48:64:7a:08:f2:59:3b:0e:2a:e1:7e:c5:af:
                    46:5e:cf:db:53:85:58:54:06:0c:b4:60:a3:59:d9:
                    2a:2b:04:0b:59:29:b4:af:10:05:2e:a9:62:50:50:
                    42:7c:7a:82:38:79:29:45:e2:66:58:48:09:07:68:
                    88:e1:f4:e2:b1:7b:08:47:40:fe:bc:c5:8c:be:66:
                    65:7c:44:cb:90:1c:95:5b:97:3a:23:03:65:72:73:
                    7f:72:0e:3a:91:d0:60:bb:59:54:04:a9:3f:5a:36:
                    3e:20:51:a9:c2:6e:d4:e8:20:76:86:fd:59:b0:90:
                    c9:88:03
                Exponent: 65537 (0x10001)
        X509v3 extensions:
            X509v3 Basic Constraints: 
                CA:FALSE
            Netscape Comment: 
                Easy-RSA Generated Certificate
            X509v3 Subject Key Identifier: 
                3F:53:18:4E:E5:21:E7:85:05:62:47:AD:C0:EF:0C:3D:25:1D:DE:1B
            X509v3 Authority Key Identifier: 
                keyid:EF:38:8D:14:50:58:A7:5B:4D:9C:17:72:FC:DF:B9:AC:A7:51:B0:10
                DirName:/C=US/ST=CA/L=SanFrancisco/O=Pixglo, Inc./OU=VPN-CIE/CN=tunnel.pixglo.com/name=Bala Chandrasekaran/emailAddress=bala@pixglo.com
                serial:A6:DB:C6:83:80:E6:A0:79

            X509v3 Extended Key Usage: 
                TLS Web Client Authentication
            X509v3 Key Usage: 
                Digital Signature
    Signature Algorithm: sha1WithRSAEncryption
         28:5d:53:f6:5a:3e:42:be:a6:6d:b8:4c:24:e4:a7:ff:08:7a:
         f4:9b:29:6b:bd:43:b7:e1:e2:2b:b6:c1:84:6b:77:19:a2:f8:
         93:b3:69:9c:d8:d4:ee:f8:df:64:e7:41:86:21:38:a5:32:66:
         28:2f:36:72:eb:20:7a:ac:96:97:95:62:a7:22:68:88:37:2f:
         f4:8b:fb:ee:86:cb:09:2e:65:b6:a7:8d:2b:2a:b3:ae:8f:a6:
         89:a0:7e:f9:aa:f4:eb:3e:68:03:d2:0b:32:ac:f9:4d:86:46:
         20:b9:16:11:5f:81:81:34:aa:95:48:83:71:c9:b9:55:22:d3:
         d1:07:c1:d1:fb:4a:d6:bd:8d:87:54:54:e9:96:b4:94:a9:87:
         f4:29:62:04:38:c0:f0:81:d6:31:c8:d4:56:f1:27:6d:bb:1e:
         87:c4:a4:c7:b4:36:cb:47:cf:28:4a:53:3f:66:c8:75:b0:9c:
         4d:e3:63:8c:cf:e0:2c:d4:4c:07:cc:0a:8d:46:22:da:a2:ad:
         4d:af:57:e6:fb:d4:0d:c6:c4:a0:b0:48:79:78:dc:73:41:cb:
         7c:1d:73:b4:5c:4b:3a:a0:fe:97:86:9f:f1:5a:4f:00:2e:5e:
         2f:5f:c0:40:3a:12:7c:c2:46:ae:4b:00:a5:85:ec:e1:21:99:
         de:06:3d:9d:19:7b:ad:6d:f0:18:3e:76:15:25:d1:f0:f4:b0:
         d7:cd:14:0c:43:93:19:03:fd:85:88:42:c5:52:f0:0b:3a:ed:
         d1:b4:d4:0f:44:07:ea:2f:97:b4:66:19:5b:ef:c8:31:37:c1:
         6e:35:c8:a2:7d:70:c7:86:e7:04:fa:47:92:18:79:f3:e7:85:
         f6:2f:ca:e1:4f:ca:08:a7:e8:98:ff:dc:a4:9b:5a:97:34:ac:
         0c:a2:6f:ec:02:17:7b:3d:8e:41:97:dd:c9:db:df:7f:89:1e:
         a9:f6:6b:2d:69:6e:21:f6:1d:70:8e:e8:ac:d5:d2:a4:a6:37:
         11:d6:d6:ae:a1:81:2a:0c:b3:d4:9c:37:28:4f:06:19:ff:c5:
         87:06:34:ca:32:7e:30:6c:db:64:84:31:a1:f0:37:60:bb:00:
         7e:4c:0e:3f:49:01:a2:a7:2b:c5:b8:de:cd:8c:fd:cc:f1:2b:
         6e:46:09:b1:93:6c:31:c1:e9:34:59:f6:15:fd:2a:04:41:c7:
         eb:a7:c5:a9:3c:e0:71:19:28:56:9d:3e:b2:5a:f8:7b:ac:7d:
         e2:f4:07:9e:6d:80:b6:da:06:8d:09:3a:74:c3:3c:41:59:97:
         bd:a7:74:9c:a8:24:42:2f:49:1b:fd:cd:8a:e5:94:81:c0:30:
         31:12:67:35:cf:b6:56:d9
-----BEGIN CERTIFICATE-----
MIIHRTCCBS2gAwIBAgIBCDANBgkqhkiG9w0BAQUFADCBtDELMAkGA1UEBhMCVVMx
CzAJBgNVBAgTAkNBMRUwEwYDVQQHEwxTYW5GcmFuY2lzY28xFTATBgNVBAoTDFBp
eGdsbywgSW5jLjEQMA4GA1UECxMHVlBOLUNJRTEaMBgGA1UEAxMRdHVubmVsLnBp
eGdsby5jb20xHDAaBgNVBCkTE0JhbGEgQ2hhbmRyYXNla2FyYW4xHjAcBgkqhkiG
9w0BCQEWD2JhbGFAcGl4Z2xvLmNvbTAeFw0xODAyMTQwNjI0MTRaFw0yODAyMTIw
NjI0MTRaMIGnMQswCQYDVQQGEwJVUzELMAkGA1UECBMCQ0ExFTATBgNVBAcTDFNh
bkZyYW5jaXNjbzEVMBMGA1UEChMMUGl4Z2xvLCBJbmMuMRAwDgYDVQQLEwdWUE4t
Q0lFMQ0wCwYDVQQDEwRjaWU3MRwwGgYDVQQpExNCYWxhIENoYW5kcmFzZWthcmFu
MR4wHAYJKoZIhvcNAQkBFg9iYWxhQHBpeGdsby5jb20wggIiMA0GCSqGSIb3DQEB
AQUAA4ICDwAwggIKAoICAQDIPDBvcmS4q6GcU9bGZI4MDO8PILzKYMZks1Cdw+5E
Bo5VnuO7FvtrYfiTN7cDdtFsJNy/lwvvkeSzlOZ+agQ8kvCl1SKHwGLyqB2RRsP9
Ctrsh2UEKTPTHTJwArh84WZ5jJQ124k7MMYwLlO5gs4mwuH8rHmCNa80kbKWFvq/
23xDQYYxHrUbq/kZs12qYJRQ/eXFU3VUrBAgOJjBoYUoodpr7f/e4dnQGbv2YgYv
9/6gKS9FeoNSPwMP1DaJO2QIl3TXzqef9t1//vODWTmh5hFMvurk9GSKS3JirhmE
GRap0QowWeDTCjMCGw1WLRzWIKXUMoonQPWNK++F9Sx72cGHfEyYvmAkCqG7cmC2
WKZFa45oo1OUBxk+FTuB6QK1BJz0WYET81QfR451Hv7yvpkQpY9F3lhDLDfWYFS/
XC+tuqkmVqLJDyiiy69zZOjEh75b5/9XXZCeHOcdwjr/mnwJcd2m79dZNhdbwkcb
43QN4VzV3Dl3iX62gWvIZt4NLPj48hTlSGR6CPJZOw4q4X7Fr0Zez9tThVhUBgy0
YKNZ2SorBAtZKbSvEAUuqWJQUEJ8eoI4eSlF4mZYSAkHaIjh9OKxewhHQP68xYy+
ZmV8RMuQHJVblzojA2Vyc39yDjqR0GC7WVQEqT9aNj4gUanCbtToIHaG/VmwkMmI
AwIDAQABo4IBazCCAWcwCQYDVR0TBAIwADAtBglghkgBhvhCAQ0EIBYeRWFzeS1S
U0EgR2VuZXJhdGVkIENlcnRpZmljYXRlMB0GA1UdDgQWBBQ/UxhO5SHnhQViR63A
7ww9JR3eGzCB6QYDVR0jBIHhMIHegBTvOI0UUFinW02cF3L837msp1GwEKGBuqSB
tzCBtDELMAkGA1UEBhMCVVMxCzAJBgNVBAgTAkNBMRUwEwYDVQQHEwxTYW5GcmFu
Y2lzY28xFTATBgNVBAoTDFBpeGdsbywgSW5jLjEQMA4GA1UECxMHVlBOLUNJRTEa
MBgGA1UEAxMRdHVubmVsLnBpeGdsby5jb20xHDAaBgNVBCkTE0JhbGEgQ2hhbmRy
YXNla2FyYW4xHjAcBgkqhkiG9w0BCQEWD2JhbGFAcGl4Z2xvLmNvbYIJAKbbxoOA
5qB5MBMGA1UdJQQMMAoGCCsGAQUFBwMCMAsGA1UdDwQEAwIHgDANBgkqhkiG9w0B
AQUFAAOCAgEAKF1T9lo+Qr6mbbhMJOSn/wh69Jspa71Dt+HiK7bBhGt3GaL4k7Np
nNjU7vjfZOdBhiE4pTJmKC82cusgeqyWl5VipyJoiDcv9Iv77obLCS5ltqeNKyqz
ro+miaB++ar06z5oA9ILMqz5TYZGILkWEV+BgTSqlUiDccm5VSLT0QfB0ftK1r2N
h1RU6Za0lKmH9CliBDjA8IHWMcjUVvEnbbseh8Skx7Q2y0fPKEpTP2bIdbCcTeNj
jM/gLNRMB8wKjUYi2qKtTa9X5vvUDcbEoLBIeXjcc0HLfB1ztFxLOqD+l4af8VpP
AC5eL1/AQDoSfMJGrksApYXs4SGZ3gY9nRl7rW3wGD52FSXR8PSw180UDEOTGQP9
hYhCxVLwCzrt0bTUD0QH6i+XtGYZW+/IMTfBbjXIon1wx4bnBPpHkhh58+eF9i/K
4U/KCKfomP/cpJtalzSsDKJv7AIXez2OQZfdydvff4keqfZrLWluIfYdcI7orNXS
pKY3EdbWrqGBKgyz1Jw3KE8GGf/FhwY0yjJ+MGzbZIQxofA3YLsAfkwOP0kBoqcr
xbjezYz9zPErbkYJsZNsMcHpNFn2Ff0qBEHH66fFqTzgcRkoVp0+slr4e6x94vQH
nm2AttoGjQk6dMM8QVmXvad0nKgkQi9JG/3NiuWUgcAwMRJnNc+2Vtk=
-----END CERTIFICATE-----
