Certificate:
    Data:
        Version: 3 (0x2)
        Serial Number: 10 (0xa)
    Signature Algorithm: sha1WithRSAEncryption
        Issuer: C=US, ST=CA, L=SanFrancisco, O=Pixglo, Inc., OU=VPN-CIE, CN=tunnel.pixglo.com/name=Bala Chandrasekaran/emailAddress=bala@pixglo.com
        Validity
            Not Before: Feb 14 06:24:16 2018 GMT
            Not After : Feb 12 06:24:16 2028 GMT
        Subject: C=US, ST=CA, L=SanFrancisco, O=Pixglo, Inc., OU=VPN-CIE, CN=cie9/name=Bala Chandrasekaran/emailAddress=bala@pixglo.com
        Subject Public Key Info:
            Public Key Algorithm: rsaEncryption
                Public-Key: (4096 bit)
                Modulus:
                    00:a5:7d:90:47:70:99:97:2a:c3:80:b6:21:28:da:
                    fe:15:88:0a:5f:3f:f3:4e:50:26:b1:f0:21:93:5c:
                    ba:d9:77:35:1f:45:c4:f4:08:e1:06:4e:b7:0f:cb:
                    a5:07:f3:2e:82:bb:0d:36:63:ab:c7:45:99:4f:73:
                    4b:12:a6:56:d9:da:78:7f:27:18:08:3d:4f:e7:14:
                    17:45:6b:01:12:72:17:d7:fe:63:51:cc:a5:c2:9b:
                    fd:73:0f:91:6a:b5:88:51:c9:79:26:7a:f4:ec:a0:
                    7d:f2:25:98:19:74:89:9d:41:f2:94:50:f4:af:c9:
                    b7:78:2d:f9:b1:56:e9:bc:d7:3d:a3:7d:4a:0c:ad:
                    f9:48:19:8a:1f:85:7f:90:58:3a:a2:fd:41:7f:ae:
                    69:01:31:bb:e3:a1:9a:a5:3a:a2:ae:5e:d8:b7:5c:
                    b8:58:f9:0a:b2:5c:56:ae:e4:bd:ad:2c:ad:a5:a1:
                    70:a3:81:ca:ba:cc:12:f2:b6:49:34:98:c4:3c:13:
                    b0:ec:f9:f5:fa:3d:9d:0e:13:c2:39:6f:4b:ba:45:
                    ff:f9:22:34:17:bf:a4:05:d7:48:d9:3d:1c:54:1c:
                    17:9e:c5:3f:2f:73:1a:aa:66:ac:ab:39:49:39:f8:
                    0d:c9:0a:e8:d1:7c:46:8a:83:44:f9:b1:29:12:15:
                    0e:98:d4:20:53:03:ef:32:32:06:1d:1b:e9:71:3a:
                    3f:d4:ff:76:5c:b0:b3:e1:78:ca:f7:cf:49:eb:5d:
                    46:7b:17:cc:5c:33:72:15:b9:eb:b1:3a:aa:03:d3:
                    0b:d4:db:81:7b:07:77:fc:db:96:62:c4:24:9c:21:
                    a8:16:12:c9:c4:db:6a:f9:f6:5f:be:2f:92:bd:ac:
                    7c:98:ee:d5:06:57:24:5b:44:bd:f2:48:74:3e:c0:
                    07:54:09:c8:f5:c3:f7:eb:1f:0d:52:dd:be:06:44:
                    b6:a0:e5:3f:d9:ba:30:b1:66:f0:a6:33:eb:7b:7b:
                    65:73:97:a5:ba:dd:72:9a:97:66:c5:ad:45:a4:7a:
                    99:9d:ad:0e:5f:8d:39:66:da:72:dc:aa:e9:74:e4:
                    ca:f3:9b:82:41:e0:58:ca:f8:e9:79:72:1a:2f:e5:
                    25:45:50:7f:85:45:b9:6d:57:d5:18:f9:b3:56:ab:
                    3a:17:b9:bb:68:7d:27:fb:98:bd:a4:a0:b5:ee:d9:
                    08:2c:04:d8:71:9e:34:6c:d6:8a:a4:1c:1f:93:fd:
                    e5:34:cc:bc:47:31:c9:a0:34:f5:fe:fb:a4:d4:86:
                    a3:2f:f0:d6:e1:56:0d:9f:95:54:1d:e9:3f:39:f3:
                    d4:56:bf:66:e2:11:d0:d0:86:cc:19:20:6a:db:6d:
                    a6:ed:d7
                Exponent: 65537 (0x10001)
        X509v3 extensions:
            X509v3 Basic Constraints: 
                CA:FALSE
            Netscape Comment: 
                Easy-RSA Generated Certificate
            X509v3 Subject Key Identifier: 
                84:75:77:F7:03:41:19:E0:24:2E:48:F8:90:77:EA:FD:B7:F3:FD:25
            X509v3 Authority Key Identifier: 
                keyid:EF:38:8D:14:50:58:A7:5B:4D:9C:17:72:FC:DF:B9:AC:A7:51:B0:10
                DirName:/C=US/ST=CA/L=SanFrancisco/O=Pixglo, Inc./OU=VPN-CIE/CN=tunnel.pixglo.com/name=Bala Chandrasekaran/emailAddress=bala@pixglo.com
                serial:A6:DB:C6:83:80:E6:A0:79

            X509v3 Extended Key Usage: 
                TLS Web Client Authentication
            X509v3 Key Usage: 
                Digital Signature
    Signature Algorithm: sha1WithRSAEncryption
         da:81:37:45:9f:3c:69:65:9b:ba:96:33:ed:3d:4f:95:29:87:
         34:eb:a5:88:ee:40:22:b3:86:1a:c4:5f:c2:c9:f0:5a:bf:16:
         9e:a4:95:1d:dc:88:4f:1b:9d:a2:78:43:d6:58:83:2e:ad:97:
         49:bb:f9:d2:75:76:dd:99:1f:8d:b1:13:e5:60:7d:fe:90:c0:
         bc:fc:9a:fd:7c:f7:f1:b5:3c:17:35:7c:b9:83:e2:8f:a1:5c:
         fe:e1:93:26:28:3d:47:3b:c8:c0:65:ae:6a:50:6f:fc:8b:bd:
         7e:03:fe:4a:1c:db:01:55:ad:95:18:5a:9f:32:3a:da:8f:79:
         d3:04:d2:f2:06:42:3c:c1:74:5c:bf:19:50:98:f5:7a:cf:71:
         c5:5e:84:76:00:08:20:9a:a0:6e:42:67:3d:59:0b:98:2c:3b:
         af:65:98:b2:bf:4a:e5:30:72:eb:c0:71:6f:12:eb:1a:1b:fb:
         54:a0:70:bf:5b:88:4e:95:ae:ed:df:80:7b:f4:08:08:9a:bb:
         89:65:97:fe:bf:a2:b9:67:66:71:80:42:71:a2:11:53:4d:c3:
         34:aa:b8:bf:a0:74:3e:c4:1c:d5:de:aa:09:2e:f1:1c:92:fb:
         82:56:3d:20:11:84:bc:ce:b5:69:70:37:0c:a0:65:35:18:9d:
         89:69:e2:1d:1c:19:11:1c:dd:e2:0e:b1:ae:4d:d8:ff:22:1b:
         84:ea:84:20:be:e2:44:54:b3:c3:6b:e6:74:90:aa:be:c1:22:
         1e:07:4e:7f:4b:f9:d0:58:38:d1:a9:ba:37:89:f8:dd:62:0d:
         8f:12:e2:4d:07:81:e6:0f:27:85:90:4a:b1:ba:36:84:f6:72:
         a3:61:0c:b9:84:0f:91:63:68:c3:61:12:ec:fa:5a:72:5a:5e:
         1a:70:d4:c6:20:bb:77:87:7b:58:97:6a:03:2b:2f:46:88:ee:
         b2:0e:ce:73:48:a9:ce:c8:9f:85:19:df:66:32:1e:3e:10:cf:
         d8:34:4d:da:50:ee:db:d0:ee:7a:e9:ff:c3:98:58:0a:cf:f2:
         d6:2a:93:c7:67:65:32:33:29:31:db:51:1c:18:a5:3e:8e:03:
         0e:d7:39:7a:d0:89:37:67:31:c2:98:79:69:2e:ba:30:79:5a:
         2c:f8:fd:57:fb:14:48:1e:0d:0e:6a:58:82:71:b0:4b:ad:30:
         f0:29:86:ac:b6:c6:44:9c:3f:34:65:c8:06:4d:a5:42:0d:d8:
         3d:ab:1d:b4:d3:c2:f5:2d:06:3e:ff:a5:25:c9:d2:1f:61:10:
         c9:61:37:56:74:33:bd:6d:12:d1:c4:ef:72:86:f2:5c:fe:79:
         6c:d3:dc:a3:42:5b:5a:91
-----BEGIN CERTIFICATE-----
MIIHRTCCBS2gAwIBAgIBCjANBgkqhkiG9w0BAQUFADCBtDELMAkGA1UEBhMCVVMx
CzAJBgNVBAgTAkNBMRUwEwYDVQQHEwxTYW5GcmFuY2lzY28xFTATBgNVBAoTDFBp
eGdsbywgSW5jLjEQMA4GA1UECxMHVlBOLUNJRTEaMBgGA1UEAxMRdHVubmVsLnBp
eGdsby5jb20xHDAaBgNVBCkTE0JhbGEgQ2hhbmRyYXNla2FyYW4xHjAcBgkqhkiG
9w0BCQEWD2JhbGFAcGl4Z2xvLmNvbTAeFw0xODAyMTQwNjI0MTZaFw0yODAyMTIw
NjI0MTZaMIGnMQswCQYDVQQGEwJVUzELMAkGA1UECBMCQ0ExFTATBgNVBAcTDFNh
bkZyYW5jaXNjbzEVMBMGA1UEChMMUGl4Z2xvLCBJbmMuMRAwDgYDVQQLEwdWUE4t
Q0lFMQ0wCwYDVQQDEwRjaWU5MRwwGgYDVQQpExNCYWxhIENoYW5kcmFzZWthcmFu
MR4wHAYJKoZIhvcNAQkBFg9iYWxhQHBpeGdsby5jb20wggIiMA0GCSqGSIb3DQEB
AQUAA4ICDwAwggIKAoICAQClfZBHcJmXKsOAtiEo2v4ViApfP/NOUCax8CGTXLrZ
dzUfRcT0COEGTrcPy6UH8y6Cuw02Y6vHRZlPc0sSplbZ2nh/JxgIPU/nFBdFawES
chfX/mNRzKXCm/1zD5FqtYhRyXkmevTsoH3yJZgZdImdQfKUUPSvybd4LfmxVum8
1z2jfUoMrflIGYofhX+QWDqi/UF/rmkBMbvjoZqlOqKuXti3XLhY+QqyXFau5L2t
LK2loXCjgcq6zBLytkk0mMQ8E7Ds+fX6PZ0OE8I5b0u6Rf/5IjQXv6QF10jZPRxU
HBeexT8vcxqqZqyrOUk5+A3JCujRfEaKg0T5sSkSFQ6Y1CBTA+8yMgYdG+lxOj/U
/3ZcsLPheMr3z0nrXUZ7F8xcM3IVueuxOqoD0wvU24F7B3f825ZixCScIagWEsnE
22r59l++L5K9rHyY7tUGVyRbRL3ySHQ+wAdUCcj1w/frHw1S3b4GRLag5T/ZujCx
ZvCmM+t7e2Vzl6W63XKal2bFrUWkepmdrQ5fjTlm2nLcqul05Mrzm4JB4FjK+Ol5
chov5SVFUH+FRbltV9UY+bNWqzoXubtofSf7mL2koLXu2QgsBNhxnjRs1oqkHB+T
/eU0zLxHMcmgNPX++6TUhqMv8NbhVg2flVQd6T8589RWv2biEdDQhswZIGrbbabt
1wIDAQABo4IBazCCAWcwCQYDVR0TBAIwADAtBglghkgBhvhCAQ0EIBYeRWFzeS1S
U0EgR2VuZXJhdGVkIENlcnRpZmljYXRlMB0GA1UdDgQWBBSEdXf3A0EZ4CQuSPiQ
d+r9t/P9JTCB6QYDVR0jBIHhMIHegBTvOI0UUFinW02cF3L837msp1GwEKGBuqSB
tzCBtDELMAkGA1UEBhMCVVMxCzAJBgNVBAgTAkNBMRUwEwYDVQQHEwxTYW5GcmFu
Y2lzY28xFTATBgNVBAoTDFBpeGdsbywgSW5jLjEQMA4GA1UECxMHVlBOLUNJRTEa
MBgGA1UEAxMRdHVubmVsLnBpeGdsby5jb20xHDAaBgNVBCkTE0JhbGEgQ2hhbmRy
YXNla2FyYW4xHjAcBgkqhkiG9w0BCQEWD2JhbGFAcGl4Z2xvLmNvbYIJAKbbxoOA
5qB5MBMGA1UdJQQMMAoGCCsGAQUFBwMCMAsGA1UdDwQEAwIHgDANBgkqhkiG9w0B
AQUFAAOCAgEA2oE3RZ88aWWbupYz7T1PlSmHNOuliO5AIrOGGsRfwsnwWr8WnqSV
HdyITxudonhD1liDLq2XSbv50nV23ZkfjbET5WB9/pDAvPya/Xz38bU8FzV8uYPi
j6Fc/uGTJig9RzvIwGWualBv/Iu9fgP+ShzbAVWtlRhanzI62o950wTS8gZCPMF0
XL8ZUJj1es9xxV6EdgAIIJqgbkJnPVkLmCw7r2WYsr9K5TBy68BxbxLrGhv7VKBw
v1uITpWu7d+Ae/QICJq7iWWX/r+iuWdmcYBCcaIRU03DNKq4v6B0PsQc1d6qCS7x
HJL7glY9IBGEvM61aXA3DKBlNRidiWniHRwZERzd4g6xrk3Y/yIbhOqEIL7iRFSz
w2vmdJCqvsEiHgdOf0v50Fg40am6N4n43WINjxLiTQeB5g8nhZBKsbo2hPZyo2EM
uYQPkWNow2ES7PpaclpeGnDUxiC7d4d7WJdqAysvRojusg7Oc0ipzsifhRnfZjIe
PhDP2DRN2lDu29Dueun/w5hYCs/y1iqTx2dlMjMpMdtRHBilPo4DDtc5etCJN2cx
wph5aS66MHlaLPj9V/sUSB4NDmpYgnGwS60w8CmGrLbGRJw/NGXIBk2lQg3YPasd
tNPC9S0GPv+lJcnSH2EQyWE3VnQzvW0S0cTvcobyXP55bNPco0JbWpE=
-----END CERTIFICATE-----
