Certificate:
    Data:
        Version: 3 (0x2)
        Serial Number: 11 (0xb)
    Signature Algorithm: sha1WithRSAEncryption
        Issuer: C=US, ST=CA, L=SanFrancisco, O=Pixglo, Inc., OU=VPN-CIE, CN=tunnel.pixglo.com/name=Bala Chandrasekaran/emailAddress=bala@pixglo.com
        Validity
            Not Before: Feb 14 06:24:17 2018 GMT
            Not After : Feb 12 06:24:17 2028 GMT
        Subject: C=US, ST=CA, L=SanFrancisco, O=Pixglo, Inc., OU=VPN-CIE, CN=cie10/name=Bala Chandrasekaran/emailAddress=bala@pixglo.com
        Subject Public Key Info:
            Public Key Algorithm: rsaEncryption
                Public-Key: (4096 bit)
                Modulus:
                    00:a6:3f:39:f7:49:59:1f:aa:46:ab:bc:cc:0d:97:
                    a1:7f:19:a1:e6:13:87:71:64:25:b7:65:93:46:fa:
                    d9:15:55:27:ed:1c:ac:05:47:98:ee:37:76:1b:11:
                    5f:a9:f1:c3:7b:e4:27:29:24:9d:ee:4f:aa:f5:2b:
                    27:68:80:c8:fc:fe:7b:1a:fd:90:15:90:fc:41:fe:
                    a9:73:00:2a:5a:ea:0f:e6:9f:e5:cb:33:8b:58:6d:
                    b9:1a:4d:17:fd:16:3b:79:5d:bb:c3:f4:1f:45:42:
                    4f:f9:9d:14:a2:25:ff:3d:cd:13:b1:61:16:af:c1:
                    a3:a2:3b:96:fb:44:6b:58:8b:45:ae:97:94:e5:04:
                    af:d9:ad:f1:d2:68:15:06:f1:13:0d:97:4a:03:eb:
                    b6:c2:2c:fe:1d:4e:a6:27:ca:53:07:d5:81:15:4f:
                    3f:6e:76:bb:f9:d8:89:52:e7:75:2d:af:cb:2c:ee:
                    4a:cf:95:34:31:5c:b5:f9:e5:47:ab:e8:a1:4a:35:
                    f9:47:8e:75:4c:b2:2c:21:c3:10:80:05:88:b0:41:
                    7d:51:16:c9:e5:fa:d6:ef:81:3b:73:cd:5c:8d:50:
                    51:ed:5a:ff:f9:2a:fb:19:51:f7:81:73:0d:df:b2:
                    56:bd:21:0f:61:9c:98:5d:70:a8:65:5a:19:70:0b:
                    04:01:a3:13:74:f2:80:db:a4:50:10:5a:b1:52:e3:
                    bd:55:a8:0f:de:4b:d8:57:bc:4a:00:b9:b6:9f:55:
                    70:69:21:7e:f2:18:f4:13:84:0b:07:6a:9c:ca:ad:
                    54:cc:06:8b:1b:44:ab:61:60:e0:2d:02:ea:4c:58:
                    28:15:a4:cd:56:a9:4b:54:d6:74:f8:1b:31:ee:90:
                    be:33:06:98:4c:63:3b:3b:62:d6:fc:ba:1d:07:4f:
                    10:9b:20:0c:23:76:0e:8f:74:68:8c:fa:bb:da:bf:
                    7e:60:d4:82:49:ac:62:aa:18:98:03:bd:b0:0c:88:
                    79:7f:48:d3:81:85:4d:e5:a4:0f:c3:18:9a:4f:cc:
                    fa:85:b8:f0:9d:e4:54:fe:1d:ea:7d:b7:03:76:fe:
                    e4:58:53:14:5a:0a:23:13:c7:ca:ff:77:1a:6d:59:
                    86:80:f8:a7:5f:70:1f:10:59:d8:dd:17:9f:c5:d2:
                    9b:f3:b9:d6:1e:70:a7:b1:85:d8:02:25:5a:f4:c6:
                    8e:76:1a:84:47:a2:22:82:e7:92:a5:8f:c7:d8:96:
                    09:70:fd:4f:fd:70:5b:2f:c2:da:7d:9d:db:5b:87:
                    41:b6:be:2c:c7:3d:83:60:c3:0c:8c:01:20:1a:0a:
                    49:ad:bc:25:03:11:5a:44:9e:75:7e:e9:3b:8a:04:
                    98:bf:79
                Exponent: 65537 (0x10001)
        X509v3 extensions:
            X509v3 Basic Constraints: 
                CA:FALSE
            Netscape Comment: 
                Easy-RSA Generated Certificate
            X509v3 Subject Key Identifier: 
                53:FD:58:F3:1F:6E:49:78:F7:F9:C7:2B:B5:44:A1:42:EA:2A:A2:5A
            X509v3 Authority Key Identifier: 
                keyid:EF:38:8D:14:50:58:A7:5B:4D:9C:17:72:FC:DF:B9:AC:A7:51:B0:10
                DirName:/C=US/ST=CA/L=SanFrancisco/O=Pixglo, Inc./OU=VPN-CIE/CN=tunnel.pixglo.com/name=Bala Chandrasekaran/emailAddress=bala@pixglo.com
                serial:A6:DB:C6:83:80:E6:A0:79

            X509v3 Extended Key Usage: 
                TLS Web Client Authentication
            X509v3 Key Usage: 
                Digital Signature
    Signature Algorithm: sha1WithRSAEncryption
         04:91:11:05:19:77:90:85:90:99:dc:48:c5:2f:51:23:66:e8:
         42:13:0c:a6:b9:75:9c:af:de:32:41:eb:c7:9e:aa:3a:8b:4a:
         b7:cb:3e:21:e1:5d:4c:9f:de:88:42:46:f1:09:d0:ec:f2:41:
         96:9c:fa:fc:5c:28:b8:63:42:ad:13:05:b8:5d:7e:29:06:f4:
         5a:95:33:7d:21:c8:54:99:83:ac:34:4a:16:0a:17:9f:47:76:
         c1:b0:ae:5e:06:62:09:bb:f7:f3:eb:b9:7b:5c:ca:ed:a9:b1:
         ae:aa:52:ea:61:1e:9b:a1:07:17:dc:54:84:ec:e2:11:c9:f0:
         18:a3:d8:00:46:ee:1c:84:58:c3:07:ab:ba:9b:e1:25:a1:75:
         91:60:df:06:63:67:85:43:9c:9a:25:2f:36:b6:ee:23:2d:cf:
         c6:1d:bc:41:f5:f6:7e:d5:fc:f2:f2:ac:28:11:a7:eb:03:7c:
         17:bc:e0:26:d5:90:d0:df:b2:58:1f:ee:7e:f3:1b:51:d9:d8:
         dd:b2:63:01:9b:20:ea:db:58:45:3d:6e:f6:34:99:1d:42:5e:
         40:e2:16:57:10:31:04:db:41:cf:74:cf:0d:dc:9f:6b:90:6b:
         ae:64:2f:c4:0c:a4:97:d0:05:83:c6:54:9d:38:31:70:3f:c6:
         df:fa:00:d1:e8:fa:1e:12:26:18:23:5e:b6:f6:d8:ae:5c:3d:
         df:fb:53:c3:07:2e:c1:fb:cf:1b:17:77:b0:ab:03:0a:e0:26:
         69:d4:5f:16:11:32:02:c3:c6:bb:ce:70:31:8b:7f:04:93:ca:
         02:15:a3:21:0e:f0:21:42:1b:2c:d8:39:9d:08:53:79:7e:ea:
         ef:69:16:d9:45:0b:15:ea:98:78:88:57:65:0c:69:3b:0c:8d:
         8d:f7:6b:23:fc:43:9e:c4:8f:f5:87:92:99:c5:78:f9:8c:be:
         e8:54:f1:fb:34:27:19:7b:50:7a:35:fb:8c:94:24:69:10:81:
         7d:9b:33:85:cc:0e:76:80:df:39:46:0b:e2:42:2a:99:9a:0c:
         82:31:a1:f3:df:3e:4e:83:c8:c3:b1:53:8d:f6:94:b0:58:6c:
         e5:5e:2a:82:1d:8d:e7:2d:dd:17:39:7d:43:17:91:88:50:7a:
         1e:18:da:11:e0:72:75:62:69:3f:49:41:4e:f0:31:af:29:a7:
         e8:50:3b:93:82:f6:63:1e:88:60:e9:85:fe:d9:33:a6:d6:d4:
         58:fe:e6:20:1b:d6:a0:a9:05:69:51:2d:fa:17:e0:c5:13:e4:
         5f:1d:94:6c:89:7a:f4:3a:0c:45:6a:64:29:4f:8f:d0:1a:f5:
         a4:c5:8d:0d:fa:86:9d:97
-----BEGIN CERTIFICATE-----
MIIHRjCCBS6gAwIBAgIBCzANBgkqhkiG9w0BAQUFADCBtDELMAkGA1UEBhMCVVMx
CzAJBgNVBAgTAkNBMRUwEwYDVQQHEwxTYW5GcmFuY2lzY28xFTATBgNVBAoTDFBp
eGdsbywgSW5jLjEQMA4GA1UECxMHVlBOLUNJRTEaMBgGA1UEAxMRdHVubmVsLnBp
eGdsby5jb20xHDAaBgNVBCkTE0JhbGEgQ2hhbmRyYXNla2FyYW4xHjAcBgkqhkiG
9w0BCQEWD2JhbGFAcGl4Z2xvLmNvbTAeFw0xODAyMTQwNjI0MTdaFw0yODAyMTIw
NjI0MTdaMIGoMQswCQYDVQQGEwJVUzELMAkGA1UECBMCQ0ExFTATBgNVBAcTDFNh
bkZyYW5jaXNjbzEVMBMGA1UEChMMUGl4Z2xvLCBJbmMuMRAwDgYDVQQLEwdWUE4t
Q0lFMQ4wDAYDVQQDEwVjaWUxMDEcMBoGA1UEKRMTQmFsYSBDaGFuZHJhc2VrYXJh
bjEeMBwGCSqGSIb3DQEJARYPYmFsYUBwaXhnbG8uY29tMIICIjANBgkqhkiG9w0B
AQEFAAOCAg8AMIICCgKCAgEApj8590lZH6pGq7zMDZehfxmh5hOHcWQlt2WTRvrZ
FVUn7RysBUeY7jd2GxFfqfHDe+QnKSSd7k+q9SsnaIDI/P57Gv2QFZD8Qf6pcwAq
WuoP5p/lyzOLWG25Gk0X/RY7eV27w/QfRUJP+Z0UoiX/Pc0TsWEWr8GjojuW+0Rr
WItFrpeU5QSv2a3x0mgVBvETDZdKA+u2wiz+HU6mJ8pTB9WBFU8/bna7+diJUud1
La/LLO5Kz5U0MVy1+eVHq+ihSjX5R451TLIsIcMQgAWIsEF9URbJ5frW74E7c81c
jVBR7Vr/+Sr7GVH3gXMN37JWvSEPYZyYXXCoZVoZcAsEAaMTdPKA26RQEFqxUuO9
VagP3kvYV7xKALm2n1VwaSF+8hj0E4QLB2qcyq1UzAaLG0SrYWDgLQLqTFgoFaTN
VqlLVNZ0+Bsx7pC+MwaYTGM7O2LW/LodB08QmyAMI3YOj3RojPq72r9+YNSCSaxi
qhiYA72wDIh5f0jTgYVN5aQPwxiaT8z6hbjwneRU/h3qfbcDdv7kWFMUWgojE8fK
/3cabVmGgPinX3AfEFnY3RefxdKb87nWHnCnsYXYAiVa9MaOdhqER6IigueSpY/H
2JYJcP1P/XBbL8LafZ3bW4dBtr4sxz2DYMMMjAEgGgpJrbwlAxFaRJ51fuk7igSY
v3kCAwEAAaOCAWswggFnMAkGA1UdEwQCMAAwLQYJYIZIAYb4QgENBCAWHkVhc3kt
UlNBIEdlbmVyYXRlZCBDZXJ0aWZpY2F0ZTAdBgNVHQ4EFgQUU/1Y8x9uSXj3+ccr
tUShQuoqolowgekGA1UdIwSB4TCB3oAU7ziNFFBYp1tNnBdy/N+5rKdRsBChgbqk
gbcwgbQxCzAJBgNVBAYTAlVTMQswCQYDVQQIEwJDQTEVMBMGA1UEBxMMU2FuRnJh
bmNpc2NvMRUwEwYDVQQKEwxQaXhnbG8sIEluYy4xEDAOBgNVBAsTB1ZQTi1DSUUx
GjAYBgNVBAMTEXR1bm5lbC5waXhnbG8uY29tMRwwGgYDVQQpExNCYWxhIENoYW5k
cmFzZWthcmFuMR4wHAYJKoZIhvcNAQkBFg9iYWxhQHBpeGdsby5jb22CCQCm28aD
gOageTATBgNVHSUEDDAKBggrBgEFBQcDAjALBgNVHQ8EBAMCB4AwDQYJKoZIhvcN
AQEFBQADggIBAASREQUZd5CFkJncSMUvUSNm6EITDKa5dZyv3jJB68eeqjqLSrfL
PiHhXUyf3ohCRvEJ0OzyQZac+vxcKLhjQq0TBbhdfikG9FqVM30hyFSZg6w0ShYK
F59HdsGwrl4GYgm79/PruXtcyu2psa6qUuphHpuhBxfcVITs4hHJ8Bij2ABG7hyE
WMMHq7qb4SWhdZFg3wZjZ4VDnJolLza27iMtz8YdvEH19n7V/PLyrCgRp+sDfBe8
4CbVkNDfslgf7n7zG1HZ2N2yYwGbIOrbWEU9bvY0mR1CXkDiFlcQMQTbQc90zw3c
n2uQa65kL8QMpJfQBYPGVJ04MXA/xt/6ANHo+h4SJhgjXrb22K5cPd/7U8MHLsH7
zxsXd7CrAwrgJmnUXxYRMgLDxrvOcDGLfwSTygIVoyEO8CFCGyzYOZ0IU3l+6u9p
FtlFCxXqmHiIV2UMaTsMjY33ayP8Q57Ej/WHkpnFePmMvuhU8fs0Jxl7UHo1+4yU
JGkQgX2bM4XMDnaA3zlGC+JCKpmaDIIxofPfPk6DyMOxU432lLBYbOVeKoIdject
3Rc5fUMXkYhQeh4Y2hHgcnViaT9JQU7wMa8pp+hQO5OC9mMeiGDphf7ZM6bW1Fj+
5iAb1qCpBWlRLfoX4MUT5F8dlGyJevQ6DEVqZClPj9Aa9aTFjQ36hp2X
-----END CERTIFICATE-----
