Certificate:
    Data:
        Version: 3 (0x2)
        Serial Number: 12 (0xc)
    Signature Algorithm: sha1WithRSAEncryption
        Issuer: C=US, ST=CA, L=SanFrancisco, O=Pixglo, Inc., OU=VPN-CIE, CN=tunnel.pixglo.com/name=Bala Chandrasekaran/emailAddress=bala@pixglo.com
        Validity
            Not Before: Feb 14 06:24:18 2018 GMT
            Not After : Feb 12 06:24:18 2028 GMT
        Subject: C=US, ST=CA, L=SanFrancisco, O=Pixglo, Inc., OU=VPN-CIE, CN=cie11/name=Bala Chandrasekaran/emailAddress=bala@pixglo.com
        Subject Public Key Info:
            Public Key Algorithm: rsaEncryption
                Public-Key: (4096 bit)
                Modulus:
                    00:a5:a1:36:0c:79:1e:2b:61:07:c2:8c:20:9e:4b:
                    4f:eb:df:aa:38:e9:d5:e5:f4:78:0e:bf:5f:18:39:
                    19:99:a8:b7:e0:1a:68:09:85:cc:a5:db:8d:9f:44:
                    e6:fb:95:5c:e1:0b:2c:76:1a:0f:a2:cf:8b:51:bf:
                    5c:7f:8d:28:50:0d:8d:2c:ab:75:2f:49:ee:1e:30:
                    bc:28:3d:39:a8:42:ef:3b:be:4e:ce:6d:e3:9d:4a:
                    a8:4b:6a:21:90:62:b8:d2:06:64:ca:3f:0b:db:f6:
                    fa:44:f7:49:7e:de:50:09:e0:d9:7a:de:79:a0:9b:
                    d8:71:c5:05:6c:af:8e:c3:74:9d:3d:7f:96:38:6d:
                    6f:b9:d5:d8:98:0a:86:90:17:b3:1b:ff:83:ca:7a:
                    57:20:ee:eb:95:1b:27:f9:d6:0a:eb:81:ac:f1:4e:
                    fe:6d:1b:4f:83:58:a6:e3:6d:2b:c4:b5:d4:70:45:
                    d0:dd:9f:23:92:a6:cc:41:cc:d2:40:aa:25:84:b7:
                    97:a0:33:77:b3:52:3e:0c:2a:4f:8f:86:0f:9f:b8:
                    4c:f9:f2:92:5a:8c:ba:07:a6:93:a3:d9:db:3d:88:
                    94:87:b7:6b:9f:98:ce:a8:f0:04:6f:ef:58:a4:6b:
                    f1:46:d8:f8:5e:32:7f:da:b0:6f:16:b5:6b:b5:38:
                    c1:f9:e7:ab:0a:07:26:66:f0:48:cc:f5:f5:32:15:
                    ba:41:04:ad:e8:83:5e:c6:40:12:d6:00:31:c8:52:
                    20:36:ea:00:89:35:d0:05:0f:4a:44:72:70:cf:72:
                    42:89:65:cd:e7:40:98:51:8b:7f:36:84:dd:41:bb:
                    12:91:4d:9f:2c:8a:7e:cd:40:af:87:04:5e:45:7b:
                    47:25:f7:b3:ab:5a:de:8b:1f:0e:7a:81:b5:36:bc:
                    1a:db:a3:f0:9f:7d:12:b4:b0:31:b0:6c:22:6e:23:
                    49:bc:35:d4:b3:e9:49:d7:ce:1e:0c:a9:fb:9f:b3:
                    72:a6:6e:e1:ba:61:17:8e:33:72:c4:be:71:c0:d4:
                    af:d1:a2:47:30:5d:42:f1:91:36:60:21:9a:00:15:
                    61:d4:f2:fa:bf:b0:34:fa:f9:41:40:18:1d:78:44:
                    82:6c:4d:56:b4:d9:a5:20:08:dc:51:ed:80:61:62:
                    04:a5:c2:94:f0:f5:ab:6b:6d:c7:16:db:e8:9d:f1:
                    76:ed:52:28:aa:90:56:20:a9:08:01:cb:76:fb:6b:
                    76:e8:de:2a:a7:cf:54:56:c0:0f:8e:6f:6c:39:0f:
                    3c:97:0e:4c:2d:73:e0:53:c9:85:7c:3a:b4:8f:3c:
                    f1:98:ca:de:15:44:00:56:09:33:38:90:66:ab:8e:
                    e4:d8:1b
                Exponent: 65537 (0x10001)
        X509v3 extensions:
            X509v3 Basic Constraints: 
                CA:FALSE
            Netscape Comment: 
                Easy-RSA Generated Certificate
            X509v3 Subject Key Identifier: 
                12:18:FA:07:9F:94:DD:CD:E0:9E:B6:53:FF:FC:F6:10:8C:D1:76:55
            X509v3 Authority Key Identifier: 
                keyid:EF:38:8D:14:50:58:A7:5B:4D:9C:17:72:FC:DF:B9:AC:A7:51:B0:10
                DirName:/C=US/ST=CA/L=SanFrancisco/O=Pixglo, Inc./OU=VPN-CIE/CN=tunnel.pixglo.com/name=Bala Chandrasekaran/emailAddress=bala@pixglo.com
                serial:A6:DB:C6:83:80:E6:A0:79

            X509v3 Extended Key Usage: 
                TLS Web Client Authentication
            X509v3 Key Usage: 
                Digital Signature
    Signature Algorithm: sha1WithRSAEncryption
         08:b4:66:60:8f:f0:b7:90:a7:6b:63:c8:ce:cd:64:69:d3:a7:
         84:27:5d:37:4e:8a:8c:9d:72:2f:4d:62:77:a1:55:1f:e6:d4:
         be:2b:7d:9a:21:52:4a:1d:20:8b:07:5c:21:b0:ab:bb:1b:76:
         ae:2b:10:7d:55:00:a3:f7:a1:57:58:84:4a:9a:9c:12:56:55:
         34:0a:e6:13:d9:38:55:b8:89:e7:10:9d:22:3a:18:88:df:bc:
         79:af:58:84:e3:37:7b:96:b2:a9:4a:5f:00:89:95:c5:2e:af:
         46:31:43:1e:17:18:6d:29:a7:8a:50:5c:24:36:ce:a9:d2:2e:
         63:b9:c3:7c:f8:b1:90:d0:54:f3:22:c0:e0:5a:80:e2:35:aa:
         15:d3:86:d0:f3:5d:ce:2f:91:15:7f:6b:ef:2e:c1:83:75:60:
         74:3d:5b:b9:33:27:d9:ab:26:e0:e1:c3:37:24:56:01:e3:d1:
         de:da:7e:bb:69:88:98:e5:38:7e:80:ee:f9:0f:80:ac:64:9c:
         c3:5f:65:cf:9a:ab:7e:22:81:ac:5e:b8:d7:6e:f0:30:34:da:
         91:6a:46:1f:f5:d5:c8:de:03:a6:89:d4:b7:28:5d:5a:73:2e:
         fa:71:3f:59:2b:60:7a:e5:49:3f:62:15:d3:ac:7e:27:5e:f7:
         da:5e:15:7d:7e:6d:9f:c5:f5:ef:f3:78:da:7a:ea:00:e4:d8:
         1c:38:cc:11:f5:7c:2a:8b:ce:55:67:cc:01:c3:1d:bb:39:49:
         fe:9c:cd:bc:ac:99:e0:87:49:26:e8:a3:1e:ee:51:1c:82:44:
         1e:c9:a4:55:13:2f:9a:c4:ad:8f:f6:6f:6d:3a:e5:34:d0:41:
         6b:77:f4:7a:26:70:f4:b5:5f:c1:2e:91:54:2b:6e:ec:53:b2:
         71:03:7d:a3:5c:ef:17:1c:b1:15:91:6e:68:f7:a2:75:43:c5:
         ff:6d:70:b4:2b:ed:c6:a8:65:d9:38:97:cd:2e:69:2b:45:e7:
         2c:76:be:64:9e:f4:bd:54:74:6c:14:35:88:30:08:bd:f8:d9:
         f2:20:c1:7e:ea:ee:c7:b0:87:de:5e:ec:c0:a2:84:1c:13:18:
         a4:83:96:38:3e:9c:f6:7b:b2:04:fb:2c:e9:e8:36:45:8b:8d:
         38:ad:82:e8:ef:33:18:c0:d9:27:6b:0b:57:58:05:1f:c3:d2:
         67:23:ae:23:98:51:c3:e4:91:b6:b0:d1:0b:e7:ce:33:77:da:
         7a:b9:e3:8c:11:a2:39:13:4e:02:50:43:88:18:09:5f:bf:46:
         0c:7e:48:d7:cb:85:ef:88:eb:bb:c6:22:bc:58:63:44:f6:61:
         5e:f9:7c:d7:d1:0b:4e:0c
-----BEGIN CERTIFICATE-----
MIIHRjCCBS6gAwIBAgIBDDANBgkqhkiG9w0BAQUFADCBtDELMAkGA1UEBhMCVVMx
CzAJBgNVBAgTAkNBMRUwEwYDVQQHEwxTYW5GcmFuY2lzY28xFTATBgNVBAoTDFBp
eGdsbywgSW5jLjEQMA4GA1UECxMHVlBOLUNJRTEaMBgGA1UEAxMRdHVubmVsLnBp
eGdsby5jb20xHDAaBgNVBCkTE0JhbGEgQ2hhbmRyYXNla2FyYW4xHjAcBgkqhkiG
9w0BCQEWD2JhbGFAcGl4Z2xvLmNvbTAeFw0xODAyMTQwNjI0MThaFw0yODAyMTIw
NjI0MThaMIGoMQswCQYDVQQGEwJVUzELMAkGA1UECBMCQ0ExFTATBgNVBAcTDFNh
bkZyYW5jaXNjbzEVMBMGA1UEChMMUGl4Z2xvLCBJbmMuMRAwDgYDVQQLEwdWUE4t
Q0lFMQ4wDAYDVQQDEwVjaWUxMTEcMBoGA1UEKRMTQmFsYSBDaGFuZHJhc2VrYXJh
bjEeMBwGCSqGSIb3DQEJARYPYmFsYUBwaXhnbG8uY29tMIICIjANBgkqhkiG9w0B
AQEFAAOCAg8AMIICCgKCAgEApaE2DHkeK2EHwowgnktP69+qOOnV5fR4Dr9fGDkZ
mai34BpoCYXMpduNn0Tm+5Vc4QssdhoPos+LUb9cf40oUA2NLKt1L0nuHjC8KD05
qELvO75Ozm3jnUqoS2ohkGK40gZkyj8L2/b6RPdJft5QCeDZet55oJvYccUFbK+O
w3SdPX+WOG1vudXYmAqGkBezG/+DynpXIO7rlRsn+dYK64Gs8U7+bRtPg1im420r
xLXUcEXQ3Z8jkqbMQczSQKolhLeXoDN3s1I+DCpPj4YPn7hM+fKSWoy6B6aTo9nb
PYiUh7drn5jOqPAEb+9YpGvxRtj4XjJ/2rBvFrVrtTjB+eerCgcmZvBIzPX1MhW6
QQSt6INexkAS1gAxyFIgNuoAiTXQBQ9KRHJwz3JCiWXN50CYUYt/NoTdQbsSkU2f
LIp+zUCvhwReRXtHJfezq1reix8OeoG1Nrwa26Pwn30StLAxsGwibiNJvDXUs+lJ
184eDKn7n7Nypm7humEXjjNyxL5xwNSv0aJHMF1C8ZE2YCGaABVh1PL6v7A0+vlB
QBgdeESCbE1WtNmlIAjcUe2AYWIEpcKU8PWra23HFtvonfF27VIoqpBWIKkIAct2
+2t26N4qp89UVsAPjm9sOQ88lw5MLXPgU8mFfDq0jzzxmMreFUQAVgkzOJBmq47k
2BsCAwEAAaOCAWswggFnMAkGA1UdEwQCMAAwLQYJYIZIAYb4QgENBCAWHkVhc3kt
UlNBIEdlbmVyYXRlZCBDZXJ0aWZpY2F0ZTAdBgNVHQ4EFgQUEhj6B5+U3c3gnrZT
//z2EIzRdlUwgekGA1UdIwSB4TCB3oAU7ziNFFBYp1tNnBdy/N+5rKdRsBChgbqk
gbcwgbQxCzAJBgNVBAYTAlVTMQswCQYDVQQIEwJDQTEVMBMGA1UEBxMMU2FuRnJh
bmNpc2NvMRUwEwYDVQQKEwxQaXhnbG8sIEluYy4xEDAOBgNVBAsTB1ZQTi1DSUUx
GjAYBgNVBAMTEXR1bm5lbC5waXhnbG8uY29tMRwwGgYDVQQpExNCYWxhIENoYW5k
cmFzZWthcmFuMR4wHAYJKoZIhvcNAQkBFg9iYWxhQHBpeGdsby5jb22CCQCm28aD
gOageTATBgNVHSUEDDAKBggrBgEFBQcDAjALBgNVHQ8EBAMCB4AwDQYJKoZIhvcN
AQEFBQADggIBAAi0ZmCP8LeQp2tjyM7NZGnTp4QnXTdOioydci9NYnehVR/m1L4r
fZohUkodIIsHXCGwq7sbdq4rEH1VAKP3oVdYhEqanBJWVTQK5hPZOFW4iecQnSI6
GIjfvHmvWITjN3uWsqlKXwCJlcUur0YxQx4XGG0pp4pQXCQ2zqnSLmO5w3z4sZDQ
VPMiwOBagOI1qhXThtDzXc4vkRV/a+8uwYN1YHQ9W7kzJ9mrJuDhwzckVgHj0d7a
frtpiJjlOH6A7vkPgKxknMNfZc+aq34igaxeuNdu8DA02pFqRh/11cjeA6aJ1Lco
XVpzLvpxP1krYHrlST9iFdOsfide99peFX1+bZ/F9e/zeNp66gDk2Bw4zBH1fCqL
zlVnzAHDHbs5Sf6czbysmeCHSSboox7uURyCRB7JpFUTL5rErY/2b2065TTQQWt3
9HomcPS1X8EukVQrbuxTsnEDfaNc7xccsRWRbmj3onVDxf9tcLQr7caoZdk4l80u
aStF5yx2vmSe9L1UdGwUNYgwCL342fIgwX7q7sewh95e7MCihBwTGKSDljg+nPZ7
sgT7LOnoNkWLjTitgujvMxjA2SdrC1dYBR/D0mcjriOYUcPkkbaw0QvnzjN32nq5
44wRojkTTgJQQ4gYCV+/Rgx+SNfLhe+I67vGIrxYY0T2YV75fNfRC04M
-----END CERTIFICATE-----
