Certificate:
    Data:
        Version: 3 (0x2)
        Serial Number: 13 (0xd)
    Signature Algorithm: sha1WithRSAEncryption
        Issuer: C=US, ST=CA, L=SanFrancisco, O=Pixglo, Inc., OU=VPN-CIE, CN=tunnel.pixglo.com/name=Bala Chandrasekaran/emailAddress=bala@pixglo.com
        Validity
            Not Before: Feb 14 06:24:20 2018 GMT
            Not After : Feb 12 06:24:20 2028 GMT
        Subject: C=US, ST=CA, L=SanFrancisco, O=Pixglo, Inc., OU=VPN-CIE, CN=cie12/name=Bala Chandrasekaran/emailAddress=bala@pixglo.com
        Subject Public Key Info:
            Public Key Algorithm: rsaEncryption
                Public-Key: (4096 bit)
                Modulus:
                    00:cc:3a:5b:76:8f:d8:6f:e2:6c:df:cc:39:bc:f7:
                    c0:d1:12:d4:10:71:95:6f:bb:0a:2e:9a:b1:3f:d5:
                    c4:84:d6:fc:fd:ad:a4:e0:89:a1:61:f1:66:bc:c6:
                    35:fb:1d:66:7d:43:7d:dc:69:62:f4:6b:d7:34:99:
                    c0:fa:e5:14:de:c0:6a:2a:a4:80:ed:f1:14:6c:81:
                    d6:e2:ec:1a:78:41:84:5b:38:f0:2a:78:1f:06:1f:
                    34:96:6b:eb:f8:52:0e:85:7a:4f:04:99:bf:ad:20:
                    e7:04:82:d7:d8:d4:ec:70:36:2b:95:e4:e1:d7:9e:
                    3e:96:12:15:f1:e9:e1:de:7c:c7:9a:2e:89:3b:e2:
                    4c:f5:63:69:a8:5c:00:09:1f:aa:63:a1:2f:ba:9b:
                    cd:c3:57:d8:07:09:18:39:ad:09:31:96:82:de:4f:
                    3a:bb:f9:94:c4:6a:e2:e9:0b:55:dc:3b:b3:58:95:
                    aa:2c:45:c4:77:ec:32:b8:cc:09:fd:5b:11:b5:94:
                    0e:e3:70:70:a6:70:e6:a8:c9:08:70:ba:cd:04:11:
                    bc:7f:eb:29:68:9d:f8:59:51:d0:78:17:89:fd:bc:
                    b1:95:43:eb:b5:a1:76:3f:dc:df:54:ae:60:d9:63:
                    7b:1a:78:a1:eb:33:c4:64:60:46:22:3b:34:0b:ea:
                    21:4b:6d:dc:20:b7:04:c0:54:73:23:4e:71:3a:d0:
                    72:c4:09:9c:9c:f9:1c:a6:d9:8a:30:13:bf:17:1e:
                    25:ee:68:1e:ed:da:08:03:a5:d9:9a:bb:e7:79:b3:
                    78:23:91:40:12:07:ac:54:20:f0:40:e5:c2:b2:37:
                    3f:1b:7b:f0:41:3e:ac:af:db:24:f3:48:db:11:48:
                    0d:f3:e0:c0:b0:62:ec:4f:68:5d:f0:85:4f:e1:d9:
                    2e:d5:18:5f:87:0c:54:27:37:a0:d0:8a:a0:d9:37:
                    11:51:d2:08:94:ca:ab:fc:d3:95:15:48:3e:e0:b4:
                    f7:4c:57:b1:a7:6b:75:9c:9b:ff:12:45:0c:17:cc:
                    75:d7:4f:4a:f1:b2:52:01:cf:98:3a:33:6b:22:3d:
                    5e:04:af:24:da:8f:32:43:b0:c7:66:fa:7a:cb:e7:
                    89:56:e7:fc:f4:48:02:0d:5e:db:ff:97:f3:75:d5:
                    e9:23:ea:96:55:70:f4:26:0e:c2:89:2b:3e:b2:e3:
                    d5:05:49:3b:cc:bb:e1:0e:48:4f:c7:a6:84:9c:c6:
                    10:2b:c4:29:41:88:7e:d5:0c:43:05:6d:51:06:e1:
                    e8:45:d0:6b:ba:05:69:8f:49:c6:30:8e:66:61:81:
                    01:3d:b1:4e:f7:c0:65:b1:ab:e2:9b:76:50:15:db:
                    cf:87:4d
                Exponent: 65537 (0x10001)
        X509v3 extensions:
            X509v3 Basic Constraints: 
                CA:FALSE
            Netscape Comment: 
                Easy-RSA Generated Certificate
            X509v3 Subject Key Identifier: 
                0D:D7:65:B5:6C:FC:05:63:38:94:65:E2:55:A3:F8:D0:58:8C:B2:C9
            X509v3 Authority Key Identifier: 
                keyid:EF:38:8D:14:50:58:A7:5B:4D:9C:17:72:FC:DF:B9:AC:A7:51:B0:10
                DirName:/C=US/ST=CA/L=SanFrancisco/O=Pixglo, Inc./OU=VPN-CIE/CN=tunnel.pixglo.com/name=Bala Chandrasekaran/emailAddress=bala@pixglo.com
                serial:A6:DB:C6:83:80:E6:A0:79

            X509v3 Extended Key Usage: 
                TLS Web Client Authentication
            X509v3 Key Usage: 
                Digital Signature
    Signature Algorithm: sha1WithRSAEncryption
         b0:54:20:d8:be:9b:7b:24:c0:b4:4f:7c:76:b8:09:ae:91:c2:
         fb:36:63:5d:dd:b6:4c:42:a1:f8:39:72:10:3e:8f:e4:47:02:
         3a:a7:38:cf:c0:68:c5:6d:d3:57:30:23:0b:74:7a:d7:05:23:
         37:7c:e6:47:b7:f7:b3:97:c6:59:9b:6e:82:83:74:db:28:78:
         60:52:d6:92:59:9d:1f:01:d0:05:ea:b7:95:00:b4:ab:9e:3d:
         6a:65:ff:90:29:2e:ee:ac:34:6d:82:e8:66:33:20:07:f7:2d:
         84:2f:a2:fb:a7:88:96:5f:45:15:03:13:32:df:8c:d2:06:d4:
         4a:fc:ae:5b:8c:9b:10:db:f1:52:84:2a:c7:1b:7e:6b:38:3e:
         f1:d7:62:d0:8b:51:21:a6:ec:db:fa:96:39:6f:41:6d:6a:49:
         dd:73:f2:84:e8:f1:59:43:f4:a8:f4:07:26:96:1f:61:2f:d9:
         30:20:9e:b9:5c:7a:d9:59:09:52:08:38:41:66:21:c3:9e:83:
         09:53:51:dd:a2:fb:14:3f:a1:1a:14:a8:67:76:22:a7:33:21:
         b1:03:b8:71:db:e4:01:9f:ef:d0:4a:99:6e:a4:73:33:c1:03:
         61:43:b8:5a:c7:8a:af:d6:c1:21:15:6c:85:1a:8b:bf:d5:86:
         54:4a:27:8e:55:91:b6:2f:d4:b8:c5:45:e4:de:7f:1e:32:24:
         8c:32:ee:ac:3f:30:35:a0:40:b6:72:f3:65:86:68:e7:45:e3:
         8f:d3:15:b6:fe:45:04:7e:2c:14:ba:c3:d8:86:ae:08:50:20:
         7c:16:14:18:84:a0:3f:7b:ce:39:d7:fe:0a:41:15:0d:0b:f3:
         bd:33:9d:13:9c:55:3a:bb:b9:a6:85:bd:21:09:4d:2d:eb:78:
         6e:d6:c3:78:a0:d5:59:df:c9:98:d7:7f:73:e6:74:22:b6:22:
         58:d6:81:9c:8d:e7:1a:31:3c:6b:f2:6c:0b:d3:62:60:c8:dd:
         a0:03:2d:32:4c:c4:a5:11:e3:70:c8:68:c9:c6:a7:29:0f:11:
         db:5f:50:3c:b1:d1:31:3f:38:4d:1a:f8:d0:1e:be:f4:83:b2:
         6b:91:e1:eb:70:68:0d:ea:de:57:9a:80:a3:8a:4e:71:59:42:
         57:62:cf:61:b7:97:67:fd:63:77:4c:b4:38:5c:fe:39:17:78:
         fe:ef:01:20:3f:22:40:60:b7:a2:2e:db:55:e1:1c:0a:ab:64:
         94:9f:00:71:10:91:e6:02:46:e2:a6:2f:06:b3:44:25:7d:b6:
         97:dd:91:11:f7:12:d6:a3:50:5d:a0:07:b7:35:69:50:de:05:
         11:e3:0a:0a:0a:be:2c:1c
-----BEGIN CERTIFICATE-----
MIIHRjCCBS6gAwIBAgIBDTANBgkqhkiG9w0BAQUFADCBtDELMAkGA1UEBhMCVVMx
CzAJBgNVBAgTAkNBMRUwEwYDVQQHEwxTYW5GcmFuY2lzY28xFTATBgNVBAoTDFBp
eGdsbywgSW5jLjEQMA4GA1UECxMHVlBOLUNJRTEaMBgGA1UEAxMRdHVubmVsLnBp
eGdsby5jb20xHDAaBgNVBCkTE0JhbGEgQ2hhbmRyYXNla2FyYW4xHjAcBgkqhkiG
9w0BCQEWD2JhbGFAcGl4Z2xvLmNvbTAeFw0xODAyMTQwNjI0MjBaFw0yODAyMTIw
NjI0MjBaMIGoMQswCQYDVQQGEwJVUzELMAkGA1UECBMCQ0ExFTATBgNVBAcTDFNh
bkZyYW5jaXNjbzEVMBMGA1UEChMMUGl4Z2xvLCBJbmMuMRAwDgYDVQQLEwdWUE4t
Q0lFMQ4wDAYDVQQDEwVjaWUxMjEcMBoGA1UEKRMTQmFsYSBDaGFuZHJhc2VrYXJh
bjEeMBwGCSqGSIb3DQEJARYPYmFsYUBwaXhnbG8uY29tMIICIjANBgkqhkiG9w0B
AQEFAAOCAg8AMIICCgKCAgEAzDpbdo/Yb+Js38w5vPfA0RLUEHGVb7sKLpqxP9XE
hNb8/a2k4ImhYfFmvMY1+x1mfUN93Gli9GvXNJnA+uUU3sBqKqSA7fEUbIHW4uwa
eEGEWzjwKngfBh80lmvr+FIOhXpPBJm/rSDnBILX2NTscDYrleTh154+lhIV8enh
3nzHmi6JO+JM9WNpqFwACR+qY6EvupvNw1fYBwkYOa0JMZaC3k86u/mUxGri6QtV
3DuzWJWqLEXEd+wyuMwJ/VsRtZQO43BwpnDmqMkIcLrNBBG8f+spaJ34WVHQeBeJ
/byxlUPrtaF2P9zfVK5g2WN7Gnih6zPEZGBGIjs0C+ohS23cILcEwFRzI05xOtBy
xAmcnPkcptmKMBO/Fx4l7mge7doIA6XZmrvnebN4I5FAEgesVCDwQOXCsjc/G3vw
QT6sr9sk80jbEUgN8+DAsGLsT2hd8IVP4dku1RhfhwxUJzeg0Iqg2TcRUdIIlMqr
/NOVFUg+4LT3TFexp2t1nJv/EkUMF8x1109K8bJSAc+YOjNrIj1eBK8k2o8yQ7DH
Zvp6y+eJVuf89EgCDV7b/5fzddXpI+qWVXD0Jg7CiSs+suPVBUk7zLvhDkhPx6aE
nMYQK8QpQYh+1QxDBW1RBuHoRdBrugVpj0nGMI5mYYEBPbFO98Blsavim3ZQFdvP
h00CAwEAAaOCAWswggFnMAkGA1UdEwQCMAAwLQYJYIZIAYb4QgENBCAWHkVhc3kt
UlNBIEdlbmVyYXRlZCBDZXJ0aWZpY2F0ZTAdBgNVHQ4EFgQUDddltWz8BWM4lGXi
VaP40FiMsskwgekGA1UdIwSB4TCB3oAU7ziNFFBYp1tNnBdy/N+5rKdRsBChgbqk
gbcwgbQxCzAJBgNVBAYTAlVTMQswCQYDVQQIEwJDQTEVMBMGA1UEBxMMU2FuRnJh
bmNpc2NvMRUwEwYDVQQKEwxQaXhnbG8sIEluYy4xEDAOBgNVBAsTB1ZQTi1DSUUx
GjAYBgNVBAMTEXR1bm5lbC5waXhnbG8uY29tMRwwGgYDVQQpExNCYWxhIENoYW5k
cmFzZWthcmFuMR4wHAYJKoZIhvcNAQkBFg9iYWxhQHBpeGdsby5jb22CCQCm28aD
gOageTATBgNVHSUEDDAKBggrBgEFBQcDAjALBgNVHQ8EBAMCB4AwDQYJKoZIhvcN
AQEFBQADggIBALBUINi+m3skwLRPfHa4Ca6Rwvs2Y13dtkxCofg5chA+j+RHAjqn
OM/AaMVt01cwIwt0etcFIzd85ke397OXxlmbboKDdNsoeGBS1pJZnR8B0AXqt5UA
tKuePWpl/5ApLu6sNG2C6GYzIAf3LYQvovuniJZfRRUDEzLfjNIG1Er8rluMmxDb
8VKEKscbfms4PvHXYtCLUSGm7Nv6ljlvQW1qSd1z8oTo8VlD9Kj0ByaWH2Ev2TAg
nrlcetlZCVIIOEFmIcOegwlTUd2i+xQ/oRoUqGd2IqczIbEDuHHb5AGf79BKmW6k
czPBA2FDuFrHiq/WwSEVbIUai7/VhlRKJ45VkbYv1LjFReTefx4yJIwy7qw/MDWg
QLZy82WGaOdF44/TFbb+RQR+LBS6w9iGrghQIHwWFBiEoD97zjnX/gpBFQ0L870z
nROcVTq7uaaFvSEJTS3reG7Ww3ig1VnfyZjXf3PmdCK2IljWgZyN5xoxPGvybAvT
YmDI3aADLTJMxKUR43DIaMnGpykPEdtfUDyx0TE/OE0a+NAevvSDsmuR4etwaA3q
3leagKOKTnFZQldiz2G3l2f9Y3dMtDhc/jkXeP7vASA/IkBgt6Iu21XhHAqrZJSf
AHEQkeYCRuKmLwazRCV9tpfdkRH3EtajUF2gB7c1aVDeBRHjCgoKviwc
-----END CERTIFICATE-----
