Certificate:
    Data:
        Version: 3 (0x2)
        Serial Number: 14 (0xe)
    Signature Algorithm: sha1WithRSAEncryption
        Issuer: C=US, ST=CA, L=SanFrancisco, O=Pixglo, Inc., OU=VPN-CIE, CN=tunnel.pixglo.com/name=Bala Chandrasekaran/emailAddress=bala@pixglo.com
        Validity
            Not Before: Feb 14 06:24:21 2018 GMT
            Not After : Feb 12 06:24:21 2028 GMT
        Subject: C=US, ST=CA, L=SanFrancisco, O=Pixglo, Inc., OU=VPN-CIE, CN=cie13/name=Bala Chandrasekaran/emailAddress=bala@pixglo.com
        Subject Public Key Info:
            Public Key Algorithm: rsaEncryption
                Public-Key: (4096 bit)
                Modulus:
                    00:d9:fb:91:b1:d6:94:e2:ca:24:dc:a0:be:bd:7e:
                    a2:15:be:cd:b0:26:7c:0a:8d:ae:b7:83:a0:65:a5:
                    a9:f4:0e:a9:1f:f2:db:f8:13:40:49:45:60:58:4a:
                    80:86:da:cf:5e:f3:aa:4f:7d:8d:49:4c:e2:15:2f:
                    20:a2:e6:2d:99:07:89:38:cd:3d:bd:1d:c7:01:7e:
                    7d:77:77:f2:16:2c:86:91:ed:64:e7:68:c9:ef:60:
                    07:0d:3a:d4:27:be:fb:1b:2d:0c:e8:49:dc:aa:20:
                    b8:60:22:cf:f3:10:5c:b7:50:c9:be:a8:58:bf:ee:
                    f8:47:d0:b3:93:cd:44:ea:da:ce:e7:5f:ad:b0:85:
                    08:96:d9:ff:fe:eb:e8:ed:a9:9b:b4:bd:d4:d8:42:
                    e0:d6:ce:83:55:24:bf:6d:62:49:2f:bb:07:02:bb:
                    a3:bf:78:34:94:c4:c7:4a:c7:d3:cc:54:73:90:4c:
                    dd:3a:19:5b:51:2e:c3:d1:b6:f5:d2:af:09:57:50:
                    e2:02:9b:d2:7c:52:86:63:6c:cf:98:d0:02:b9:de:
                    c4:fe:c6:db:d5:6a:7c:c3:6d:fb:cb:86:b2:48:9b:
                    91:a6:f1:50:e8:c0:77:0f:83:ad:f9:02:5e:c0:40:
                    b1:dd:f8:91:c6:e5:a5:6f:9c:ef:09:f7:1f:95:1f:
                    79:58:3a:cc:dd:c8:c6:34:6d:24:1d:9e:f3:6d:93:
                    ea:f7:4b:0b:fa:c7:bc:fd:d0:d9:e1:76:23:c0:43:
                    02:cd:58:08:28:0c:ee:b1:d4:8a:ff:79:31:32:93:
                    7d:65:6a:88:69:a0:1c:e0:0a:fd:de:7a:a0:d4:88:
                    34:8d:75:0a:90:e7:23:2c:9e:27:91:64:06:cb:99:
                    92:e7:83:b3:d7:0b:ab:0b:bf:db:66:d1:a5:e6:c2:
                    1a:d5:bf:e3:5d:fa:b7:68:ee:42:bb:fe:e6:d1:ab:
                    cd:97:5f:6e:f3:32:ab:7e:19:06:81:4e:88:ef:0a:
                    f5:87:01:bd:d2:87:cd:ca:32:b6:86:b4:2d:1b:77:
                    94:ff:91:6f:8e:2f:8e:be:ed:3c:87:94:7c:e0:b6:
                    41:0a:52:e6:8e:b5:ff:d9:8b:fb:df:1c:92:4a:b6:
                    0d:59:b0:f5:07:08:6e:c5:04:15:4c:fa:eb:ed:6f:
                    ec:40:83:a9:5d:57:20:c0:79:a9:f3:fe:8b:86:b2:
                    0f:5d:cb:0a:fc:13:9a:45:e4:13:1b:06:cc:76:37:
                    a2:27:d9:a1:27:e0:ed:c7:8f:29:eb:0e:b5:32:c2:
                    f6:67:ba:38:0e:dc:d0:28:74:da:f9:70:a6:36:db:
                    fe:05:f1:9b:25:aa:82:7b:e0:44:08:ec:c7:c9:ee:
                    ef:be:4b
                Exponent: 65537 (0x10001)
        X509v3 extensions:
            X509v3 Basic Constraints: 
                CA:FALSE
            Netscape Comment: 
                Easy-RSA Generated Certificate
            X509v3 Subject Key Identifier: 
                58:72:E0:14:CA:AA:EF:26:5A:AC:E2:5D:B8:C2:BE:D5:25:2E:87:30
            X509v3 Authority Key Identifier: 
                keyid:EF:38:8D:14:50:58:A7:5B:4D:9C:17:72:FC:DF:B9:AC:A7:51:B0:10
                DirName:/C=US/ST=CA/L=SanFrancisco/O=Pixglo, Inc./OU=VPN-CIE/CN=tunnel.pixglo.com/name=Bala Chandrasekaran/emailAddress=bala@pixglo.com
                serial:A6:DB:C6:83:80:E6:A0:79

            X509v3 Extended Key Usage: 
                TLS Web Client Authentication
            X509v3 Key Usage: 
                Digital Signature
    Signature Algorithm: sha1WithRSAEncryption
         3a:cc:a9:5b:8c:75:9a:a0:b9:f4:bd:c6:80:90:2a:a8:12:51:
         80:f0:8b:93:d4:b4:cd:00:50:1b:25:d1:7a:14:75:cc:8a:b2:
         f5:82:68:b0:25:c8:9e:bd:1c:3a:be:cb:64:7a:26:35:20:b6:
         84:ee:0a:77:76:ea:b0:e1:cf:c8:d6:80:db:0e:b8:17:b0:40:
         c6:2b:42:e8:4c:cc:19:93:fb:36:93:fb:be:95:fe:00:d8:99:
         71:0d:a2:be:43:cd:65:50:f1:91:fc:1c:49:35:a4:5c:0f:a8:
         bf:7b:95:1f:26:7f:35:f5:27:05:d7:e3:f6:1c:1b:06:c0:06:
         53:15:2e:fe:77:55:3e:ea:7b:c8:33:6e:de:10:de:62:c3:52:
         c4:10:c3:6b:20:15:4f:75:d0:65:93:c5:44:dd:f8:c9:3c:18:
         79:12:83:7d:a9:a8:61:71:51:87:32:b8:48:49:c3:7d:e0:44:
         1c:a7:22:42:22:b6:07:71:20:2c:57:e7:88:28:bb:70:ad:ef:
         b5:0b:55:ae:d8:f3:56:2a:0e:50:61:a2:a2:4f:bd:2d:4b:b6:
         63:59:1c:34:b9:5e:ad:59:e3:90:3d:35:69:83:e7:86:de:eb:
         86:02:e2:99:6f:e8:3f:e3:f1:43:82:70:29:21:fd:96:c2:5f:
         ba:0e:0c:d6:f8:a0:81:3b:d1:e1:06:96:79:eb:5e:01:46:6d:
         5a:80:12:78:ef:dc:08:4f:3b:8f:dc:ab:9a:60:05:17:ca:f4:
         ab:fa:ce:a6:68:fe:ef:90:ea:74:d4:6b:6f:e8:49:8f:5c:4a:
         c9:95:11:4c:c2:22:1b:5f:bb:c8:0b:5c:b7:d1:6a:18:6c:28:
         5a:02:67:2c:75:9f:6a:4c:53:ce:e2:59:50:75:52:12:ce:77:
         52:59:8a:85:21:2a:94:bd:97:02:1f:73:b0:64:ba:60:06:c1:
         3d:2a:4d:30:85:83:ec:0f:40:63:e7:63:f1:00:cd:83:f3:5d:
         7e:df:6d:04:30:f9:9c:c5:7d:7f:14:fa:89:9b:60:27:3d:02:
         6e:50:d1:06:cd:32:2d:67:70:d1:10:90:02:c1:a1:11:04:a9:
         60:29:4f:86:59:69:52:87:c1:1d:26:46:4a:9d:c7:2b:26:10:
         89:d8:a8:fe:99:84:bc:ec:1f:43:e9:09:ab:dc:71:89:9a:7e:
         91:35:16:55:fe:ff:f5:d4:ec:7e:60:56:ec:3d:33:0a:f5:06:
         9b:9c:fc:16:62:b7:92:07:0e:6b:e3:78:f0:9f:8b:e5:5c:13:
         66:2f:ad:d1:5f:e8:c9:47:75:b2:fb:6c:4e:d3:f0:b8:64:d5:
         9e:57:83:b5:b7:57:d8:4e
-----BEGIN CERTIFICATE-----
MIIHRjCCBS6gAwIBAgIBDjANBgkqhkiG9w0BAQUFADCBtDELMAkGA1UEBhMCVVMx
CzAJBgNVBAgTAkNBMRUwEwYDVQQHEwxTYW5GcmFuY2lzY28xFTATBgNVBAoTDFBp
eGdsbywgSW5jLjEQMA4GA1UECxMHVlBOLUNJRTEaMBgGA1UEAxMRdHVubmVsLnBp
eGdsby5jb20xHDAaBgNVBCkTE0JhbGEgQ2hhbmRyYXNla2FyYW4xHjAcBgkqhkiG
9w0BCQEWD2JhbGFAcGl4Z2xvLmNvbTAeFw0xODAyMTQwNjI0MjFaFw0yODAyMTIw
NjI0MjFaMIGoMQswCQYDVQQGEwJVUzELMAkGA1UECBMCQ0ExFTATBgNVBAcTDFNh
bkZyYW5jaXNjbzEVMBMGA1UEChMMUGl4Z2xvLCBJbmMuMRAwDgYDVQQLEwdWUE4t
Q0lFMQ4wDAYDVQQDEwVjaWUxMzEcMBoGA1UEKRMTQmFsYSBDaGFuZHJhc2VrYXJh
bjEeMBwGCSqGSIb3DQEJARYPYmFsYUBwaXhnbG8uY29tMIICIjANBgkqhkiG9w0B
AQEFAAOCAg8AMIICCgKCAgEA2fuRsdaU4sok3KC+vX6iFb7NsCZ8Co2ut4OgZaWp
9A6pH/Lb+BNASUVgWEqAhtrPXvOqT32NSUziFS8gouYtmQeJOM09vR3HAX59d3fy
FiyGke1k52jJ72AHDTrUJ777Gy0M6EncqiC4YCLP8xBct1DJvqhYv+74R9Czk81E
6trO51+tsIUIltn//uvo7ambtL3U2ELg1s6DVSS/bWJJL7sHArujv3g0lMTHSsfT
zFRzkEzdOhlbUS7D0bb10q8JV1DiApvSfFKGY2zPmNACud7E/sbb1Wp8w237y4ay
SJuRpvFQ6MB3D4Ot+QJewECx3fiRxuWlb5zvCfcflR95WDrM3cjGNG0kHZ7zbZPq
90sL+se8/dDZ4XYjwEMCzVgIKAzusdSK/3kxMpN9ZWqIaaAc4Ar93nqg1Ig0jXUK
kOcjLJ4nkWQGy5mS54Oz1wurC7/bZtGl5sIa1b/jXfq3aO5Cu/7m0avNl19u8zKr
fhkGgU6I7wr1hwG90ofNyjK2hrQtG3eU/5Fvji+Ovu08h5R84LZBClLmjrX/2Yv7
3xySSrYNWbD1BwhuxQQVTPrr7W/sQIOpXVcgwHmp8/6LhrIPXcsK/BOaReQTGwbM
djeiJ9mhJ+Dtx48p6w61MsL2Z7o4DtzQKHTa+XCmNtv+BfGbJaqCe+BECOzHye7v
vksCAwEAAaOCAWswggFnMAkGA1UdEwQCMAAwLQYJYIZIAYb4QgENBCAWHkVhc3kt
UlNBIEdlbmVyYXRlZCBDZXJ0aWZpY2F0ZTAdBgNVHQ4EFgQUWHLgFMqq7yZarOJd
uMK+1SUuhzAwgekGA1UdIwSB4TCB3oAU7ziNFFBYp1tNnBdy/N+5rKdRsBChgbqk
gbcwgbQxCzAJBgNVBAYTAlVTMQswCQYDVQQIEwJDQTEVMBMGA1UEBxMMU2FuRnJh
bmNpc2NvMRUwEwYDVQQKEwxQaXhnbG8sIEluYy4xEDAOBgNVBAsTB1ZQTi1DSUUx
GjAYBgNVBAMTEXR1bm5lbC5waXhnbG8uY29tMRwwGgYDVQQpExNCYWxhIENoYW5k
cmFzZWthcmFuMR4wHAYJKoZIhvcNAQkBFg9iYWxhQHBpeGdsby5jb22CCQCm28aD
gOageTATBgNVHSUEDDAKBggrBgEFBQcDAjALBgNVHQ8EBAMCB4AwDQYJKoZIhvcN
AQEFBQADggIBADrMqVuMdZqgufS9xoCQKqgSUYDwi5PUtM0AUBsl0XoUdcyKsvWC
aLAlyJ69HDq+y2R6JjUgtoTuCnd26rDhz8jWgNsOuBewQMYrQuhMzBmT+zaT+76V
/gDYmXENor5DzWVQ8ZH8HEk1pFwPqL97lR8mfzX1JwXX4/YcGwbABlMVLv53VT7q
e8gzbt4Q3mLDUsQQw2sgFU910GWTxUTd+Mk8GHkSg32pqGFxUYcyuEhJw33gRByn
IkIitgdxICxX54gou3Ct77ULVa7Y81YqDlBhoqJPvS1LtmNZHDS5Xq1Z45A9NWmD
54be64YC4plv6D/j8UOCcCkh/ZbCX7oODNb4oIE70eEGlnnrXgFGbVqAEnjv3AhP
O4/cq5pgBRfK9Kv6zqZo/u+Q6nTUa2/oSY9cSsmVEUzCIhtfu8gLXLfRahhsKFoC
Zyx1n2pMU87iWVB1UhLOd1JZioUhKpS9lwIfc7BkumAGwT0qTTCFg+wPQGPnY/EA
zYPzXX7fbQQw+ZzFfX8U+ombYCc9Am5Q0QbNMi1ncNEQkALBoREEqWApT4ZZaVKH
wR0mRkqdxysmEInYqP6ZhLzsH0PpCavccYmafpE1FlX+//XU7H5gVuw9Mwr1Bpuc
/BZit5IHDmvjePCfi+VcE2YvrdFf6MlHdbL7bE7T8Lhk1Z5Xg7W3V9hO
-----END CERTIFICATE-----
