Certificate:
    Data:
        Version: 3 (0x2)
        Serial Number: 15 (0xf)
    Signature Algorithm: sha1WithRSAEncryption
        Issuer: C=US, ST=CA, L=SanFrancisco, O=Pixglo, Inc., OU=VPN-CIE, CN=tunnel.pixglo.com/name=Bala Chandrasekaran/emailAddress=bala@pixglo.com
        Validity
            Not Before: Feb 14 06:24:22 2018 GMT
            Not After : Feb 12 06:24:22 2028 GMT
        Subject: C=US, ST=CA, L=SanFrancisco, O=Pixglo, Inc., OU=VPN-CIE, CN=cie14/name=Bala Chandrasekaran/emailAddress=bala@pixglo.com
        Subject Public Key Info:
            Public Key Algorithm: rsaEncryption
                Public-Key: (4096 bit)
                Modulus:
                    00:a3:77:1e:23:ca:f8:fc:ad:c5:72:4b:44:cf:02:
                    f4:c7:a9:20:b6:bd:7b:77:0c:f7:68:7a:2e:6b:85:
                    86:89:90:fb:4d:fa:60:18:bb:1b:c1:a7:48:0e:12:
                    3e:f0:ce:29:de:c8:33:53:e6:ca:54:b4:69:67:94:
                    45:d1:9a:42:f9:2d:81:c7:53:55:f9:1f:af:62:3c:
                    4e:22:3c:35:67:04:d4:07:d0:5a:d7:19:8a:da:d4:
                    f0:f4:9b:b4:b0:e0:72:0b:ca:e7:7b:4c:a9:05:72:
                    f0:09:da:8b:b0:97:eb:6b:c2:6a:16:50:45:ee:c6:
                    ba:53:ac:55:de:1f:64:dd:26:17:63:5a:72:30:84:
                    17:39:37:90:fe:3c:57:a2:96:4f:40:da:7e:07:7e:
                    d1:60:72:aa:a5:50:43:13:b8:59:e3:47:4f:19:04:
                    66:65:24:8c:59:c0:ae:ec:b8:0e:ba:ac:32:88:97:
                    70:3e:dc:8b:af:c3:a6:de:38:a0:4d:75:5c:f1:e8:
                    ee:ac:18:59:30:66:41:e4:07:f9:64:5a:cc:9b:3b:
                    19:61:6d:70:80:e8:65:0a:07:eb:92:98:53:2f:a9:
                    a5:a5:ae:93:80:27:50:8d:59:18:f7:89:f3:89:23:
                    62:fa:5d:66:1a:44:e2:8a:74:4e:c6:45:81:7d:3e:
                    17:8f:e0:0a:70:03:23:21:14:b4:8d:d0:1a:53:ff:
                    e3:f9:e1:fd:0e:8a:54:9b:65:4b:96:d2:ae:1b:9e:
                    ad:9a:a5:73:ba:fe:1a:ad:98:35:34:8f:26:8e:cc:
                    f0:b3:86:51:94:e8:a0:56:63:9b:00:6b:ab:e9:2d:
                    03:24:1e:93:97:88:a2:0e:f8:43:2f:3f:95:af:6e:
                    49:df:6e:db:cc:e1:71:12:52:63:78:ac:34:8f:01:
                    5a:0c:14:0d:4e:58:f9:f2:2c:23:12:1b:d4:e3:a6:
                    b2:b4:5b:56:0d:66:9a:13:6b:9d:c0:e7:05:66:e3:
                    51:e3:97:f1:e4:66:66:0f:d0:5a:11:05:03:3e:81:
                    0e:0d:6e:dc:7d:17:74:17:11:52:02:de:d0:b6:83:
                    5d:37:6f:59:8d:db:08:7e:df:3a:90:f2:d0:fc:0f:
                    7b:d1:b1:b1:36:36:c2:a7:e4:a1:34:e1:e2:6a:74:
                    5d:34:1b:b2:42:0d:34:26:d6:d9:9d:22:6c:69:c9:
                    16:6b:f2:cd:77:6d:bd:89:e4:ab:13:58:ec:ce:2d:
                    94:a7:cf:05:62:4b:ab:06:7f:38:7f:77:fb:75:a5:
                    fe:16:4a:4c:f4:bf:4c:2b:5c:20:84:37:ec:ac:f0:
                    21:cf:55:80:11:37:8d:4e:9c:df:48:44:4a:53:39:
                    2a:03:5f
                Exponent: 65537 (0x10001)
        X509v3 extensions:
            X509v3 Basic Constraints: 
                CA:FALSE
            Netscape Comment: 
                Easy-RSA Generated Certificate
            X509v3 Subject Key Identifier: 
                51:08:A2:09:6A:0A:24:22:F2:E5:0E:08:BB:43:F2:7E:68:7B:96:B2
            X509v3 Authority Key Identifier: 
                keyid:EF:38:8D:14:50:58:A7:5B:4D:9C:17:72:FC:DF:B9:AC:A7:51:B0:10
                DirName:/C=US/ST=CA/L=SanFrancisco/O=Pixglo, Inc./OU=VPN-CIE/CN=tunnel.pixglo.com/name=Bala Chandrasekaran/emailAddress=bala@pixglo.com
                serial:A6:DB:C6:83:80:E6:A0:79

            X509v3 Extended Key Usage: 
                TLS Web Client Authentication
            X509v3 Key Usage: 
                Digital Signature
    Signature Algorithm: sha1WithRSAEncryption
         8b:c8:1b:60:a5:ad:e1:e2:15:5c:49:62:22:e2:7e:ee:67:fa:
         1f:49:66:c3:5c:18:5c:91:4a:42:64:4e:1e:f1:e6:bc:67:db:
         2c:79:c9:1c:25:50:2f:7c:cf:e6:ae:f4:97:5d:7a:22:69:b4:
         80:0d:9f:28:64:ff:66:70:59:3f:0d:33:cb:a9:b3:3e:58:95:
         ed:9d:34:a1:66:73:d5:49:b8:79:55:ab:cb:1a:e1:46:cb:80:
         f7:27:32:ed:e7:14:52:e8:53:39:e9:56:e2:61:5d:b0:ec:0a:
         9e:d3:9f:ab:5c:36:d5:3a:b0:4b:0d:d1:45:ae:18:c7:e1:26:
         29:d8:8d:a2:2a:67:3b:22:44:76:fa:28:88:7e:d7:d3:a0:80:
         39:88:62:ad:b6:f6:db:08:33:fb:4c:6b:67:07:4f:21:77:93:
         bb:80:8e:2a:0a:79:93:14:e5:1f:7e:49:dd:35:22:b2:3f:b4:
         41:41:7a:94:83:93:bc:68:5a:b9:53:1b:f5:e8:3a:12:4a:09:
         fc:0d:66:fe:24:bd:c1:82:e8:6a:39:bb:fb:dc:0a:e4:05:09:
         ab:c7:e0:08:a5:18:50:08:32:84:e6:06:7e:35:2d:53:14:af:
         ba:37:59:9c:4f:18:8c:95:79:f0:f9:fa:a9:3b:d2:2e:80:14:
         cc:bb:4d:a6:63:8d:22:50:fd:bb:f4:10:d3:09:09:5a:63:71:
         47:51:a3:de:67:de:e8:41:88:e9:c5:dd:8d:4e:9d:58:4b:34:
         9c:65:43:8b:ea:6c:3d:42:e3:ba:1e:56:cc:ea:ca:84:1e:b0:
         0c:14:32:45:04:b6:3a:53:68:90:91:60:f7:5d:f2:a2:25:bc:
         cc:5f:73:1c:b5:28:bf:81:84:b0:e3:78:9d:61:9f:b1:b1:1c:
         a2:3b:5a:0a:28:63:85:84:ad:74:93:c8:16:27:49:04:31:e9:
         6f:70:05:9a:0d:9f:e2:04:dd:6b:60:55:f6:fc:92:51:d9:ba:
         5f:c6:0b:c2:1c:56:dc:ed:31:7c:f5:33:d8:67:80:de:3f:61:
         4d:84:68:32:8f:85:c0:84:59:29:97:81:1e:55:fa:0e:a6:2e:
         2c:42:c4:09:1e:a3:ff:f0:3a:d6:ff:1f:fa:e4:76:27:47:22:
         6c:71:4d:a0:dd:9c:0d:d6:ab:85:f7:f6:81:59:32:8a:e6:46:
         81:f3:0f:60:a2:d2:19:10:0e:c9:81:8f:20:b6:0b:cd:4c:45:
         3b:04:89:89:0a:5a:ec:03:25:25:62:82:d9:00:34:d0:a4:f7:
         f8:6a:23:20:06:6e:61:97:c7:a7:ba:20:49:f3:24:b0:e4:ae:
         6b:40:48:f1:ab:b7:ad:7d
-----BEGIN CERTIFICATE-----
MIIHRjCCBS6gAwIBAgIBDzANBgkqhkiG9w0BAQUFADCBtDELMAkGA1UEBhMCVVMx
CzAJBgNVBAgTAkNBMRUwEwYDVQQHEwxTYW5GcmFuY2lzY28xFTATBgNVBAoTDFBp
eGdsbywgSW5jLjEQMA4GA1UECxMHVlBOLUNJRTEaMBgGA1UEAxMRdHVubmVsLnBp
eGdsby5jb20xHDAaBgNVBCkTE0JhbGEgQ2hhbmRyYXNla2FyYW4xHjAcBgkqhkiG
9w0BCQEWD2JhbGFAcGl4Z2xvLmNvbTAeFw0xODAyMTQwNjI0MjJaFw0yODAyMTIw
NjI0MjJaMIGoMQswCQYDVQQGEwJVUzELMAkGA1UECBMCQ0ExFTATBgNVBAcTDFNh
bkZyYW5jaXNjbzEVMBMGA1UEChMMUGl4Z2xvLCBJbmMuMRAwDgYDVQQLEwdWUE4t
Q0lFMQ4wDAYDVQQDEwVjaWUxNDEcMBoGA1UEKRMTQmFsYSBDaGFuZHJhc2VrYXJh
bjEeMBwGCSqGSIb3DQEJARYPYmFsYUBwaXhnbG8uY29tMIICIjANBgkqhkiG9w0B
AQEFAAOCAg8AMIICCgKCAgEAo3ceI8r4/K3FcktEzwL0x6kgtr17dwz3aHoua4WG
iZD7TfpgGLsbwadIDhI+8M4p3sgzU+bKVLRpZ5RF0ZpC+S2Bx1NV+R+vYjxOIjw1
ZwTUB9Ba1xmK2tTw9Ju0sOByC8rne0ypBXLwCdqLsJfra8JqFlBF7sa6U6xV3h9k
3SYXY1pyMIQXOTeQ/jxXopZPQNp+B37RYHKqpVBDE7hZ40dPGQRmZSSMWcCu7LgO
uqwyiJdwPtyLr8Om3jigTXVc8ejurBhZMGZB5Af5ZFrMmzsZYW1wgOhlCgfrkphT
L6mlpa6TgCdQjVkY94nziSNi+l1mGkTiinROxkWBfT4Xj+AKcAMjIRS0jdAaU//j
+eH9DopUm2VLltKuG56tmqVzuv4arZg1NI8mjszws4ZRlOigVmObAGur6S0DJB6T
l4iiDvhDLz+Vr25J327bzOFxElJjeKw0jwFaDBQNTlj58iwjEhvU46aytFtWDWaa
E2udwOcFZuNR45fx5GZmD9BaEQUDPoEODW7cfRd0FxFSAt7QtoNdN29ZjdsIft86
kPLQ/A970bGxNjbCp+ShNOHianRdNBuyQg00JtbZnSJsackWa/LNd229ieSrE1js
zi2Up88FYkurBn84f3f7daX+FkpM9L9MK1wghDfsrPAhz1WAETeNTpzfSERKUzkq
A18CAwEAAaOCAWswggFnMAkGA1UdEwQCMAAwLQYJYIZIAYb4QgENBCAWHkVhc3kt
UlNBIEdlbmVyYXRlZCBDZXJ0aWZpY2F0ZTAdBgNVHQ4EFgQUUQiiCWoKJCLy5Q4I
u0Pyfmh7lrIwgekGA1UdIwSB4TCB3oAU7ziNFFBYp1tNnBdy/N+5rKdRsBChgbqk
gbcwgbQxCzAJBgNVBAYTAlVTMQswCQYDVQQIEwJDQTEVMBMGA1UEBxMMU2FuRnJh
bmNpc2NvMRUwEwYDVQQKEwxQaXhnbG8sIEluYy4xEDAOBgNVBAsTB1ZQTi1DSUUx
GjAYBgNVBAMTEXR1bm5lbC5waXhnbG8uY29tMRwwGgYDVQQpExNCYWxhIENoYW5k
cmFzZWthcmFuMR4wHAYJKoZIhvcNAQkBFg9iYWxhQHBpeGdsby5jb22CCQCm28aD
gOageTATBgNVHSUEDDAKBggrBgEFBQcDAjALBgNVHQ8EBAMCB4AwDQYJKoZIhvcN
AQEFBQADggIBAIvIG2ClreHiFVxJYiLifu5n+h9JZsNcGFyRSkJkTh7x5rxn2yx5
yRwlUC98z+au9JddeiJptIANnyhk/2ZwWT8NM8upsz5Yle2dNKFmc9VJuHlVq8sa
4UbLgPcnMu3nFFLoUznpVuJhXbDsCp7Tn6tcNtU6sEsN0UWuGMfhJinYjaIqZzsi
RHb6KIh+19OggDmIYq229tsIM/tMa2cHTyF3k7uAjioKeZMU5R9+Sd01IrI/tEFB
epSDk7xoWrlTG/XoOhJKCfwNZv4kvcGC6Go5u/vcCuQFCavH4AilGFAIMoTmBn41
LVMUr7o3WZxPGIyVefD5+qk70i6AFMy7TaZjjSJQ/bv0ENMJCVpjcUdRo95n3uhB
iOnF3Y1OnVhLNJxlQ4vqbD1C47oeVszqyoQesAwUMkUEtjpTaJCRYPdd8qIlvMxf
cxy1KL+BhLDjeJ1hn7GxHKI7WgooY4WErXSTyBYnSQQx6W9wBZoNn+IE3WtgVfb8
klHZul/GC8IcVtztMXz1M9hngN4/YU2EaDKPhcCEWSmXgR5V+g6mLixCxAkeo//w
Otb/H/rkdidHImxxTaDdnA3Wq4X39oFZMormRoHzD2Ci0hkQDsmBjyC2C81MRTsE
iYkKWuwDJSVigtkANNCk9/hqIyAGbmGXx6e6IEnzJLDkrmtASPGrt619
-----END CERTIFICATE-----
