Certificate:
    Data:
        Version: 3 (0x2)
        Serial Number: 18 (0x12)
    Signature Algorithm: sha1WithRSAEncryption
        Issuer: C=US, ST=CA, L=SanFrancisco, O=Pixglo, Inc., OU=VPN-CIE, CN=tunnel.pixglo.com/name=Bala Chandrasekaran/emailAddress=bala@pixglo.com
        Validity
            Not Before: Feb 14 06:24:25 2018 GMT
            Not After : Feb 12 06:24:25 2028 GMT
        Subject: C=US, ST=CA, L=SanFrancisco, O=Pixglo, Inc., OU=VPN-CIE, CN=cie17/name=Bala Chandrasekaran/emailAddress=bala@pixglo.com
        Subject Public Key Info:
            Public Key Algorithm: rsaEncryption
                Public-Key: (4096 bit)
                Modulus:
                    00:d8:32:b6:f5:b8:6d:53:f8:34:14:40:b1:ca:7a:
                    39:77:90:3e:a4:7a:7d:f8:1f:b5:10:8b:dc:1a:b1:
                    a9:49:55:4e:4a:79:88:fe:b4:e3:13:9b:d7:67:4e:
                    c8:dc:51:da:dc:d1:0a:96:67:75:75:e5:98:2c:92:
                    6c:59:a4:9e:d1:c3:d9:52:a9:40:17:ad:b5:9f:8c:
                    12:93:67:9a:3b:fc:40:f1:89:08:14:54:79:50:0c:
                    49:68:27:12:31:33:10:41:08:ce:a9:db:f8:39:50:
                    3f:75:c7:a9:ab:67:eb:61:6e:00:1d:2e:1c:aa:b1:
                    33:73:b8:9a:c5:5a:eb:97:f4:a1:0b:3a:dd:d3:78:
                    1d:17:44:44:22:d7:c6:0d:0c:43:eb:16:2b:96:03:
                    d3:f1:bc:66:e3:13:30:ed:51:34:46:cd:90:0d:5e:
                    21:b5:c8:8a:5b:4a:9b:08:94:95:47:37:6e:d4:83:
                    a8:95:23:a3:3f:ca:ae:a1:62:c3:9f:0b:8d:67:10:
                    7e:d4:d2:02:93:b5:cd:47:14:c0:39:28:96:85:9d:
                    3b:9c:00:94:b3:9b:32:98:fa:67:e3:1f:c5:82:76:
                    74:fa:1d:9d:4b:2e:00:30:68:b7:a9:d1:f9:e5:61:
                    b5:6f:32:57:45:6f:98:fa:1f:d5:52:38:82:1b:07:
                    9b:14:a2:a8:d2:01:10:a4:85:64:c8:d0:8d:d1:6f:
                    d7:a3:ac:2c:20:fd:6e:40:2e:46:e5:83:98:a5:6e:
                    d9:43:d7:f6:66:c0:c1:23:95:6f:57:24:0f:b2:88:
                    cd:57:1b:d4:6f:22:82:51:23:0e:c8:3c:84:cf:cd:
                    16:4f:19:e3:1c:59:95:86:09:29:0e:a8:fb:c4:7f:
                    b0:6b:51:6b:17:ba:46:60:8a:2c:6b:cf:f8:ce:c0:
                    27:32:8c:a5:7f:3a:15:d0:8b:94:2d:36:53:ea:b4:
                    13:0a:1d:48:46:46:df:53:19:0e:a8:ef:03:63:92:
                    ac:bd:e8:49:fb:1e:cc:c7:ea:b0:fe:b2:ec:b3:ad:
                    fc:19:d6:84:ad:39:c5:f7:0c:f2:89:14:7c:0d:8f:
                    ed:37:d4:88:6b:24:11:d3:08:2a:b1:99:14:39:87:
                    7e:53:c1:15:68:c4:f6:58:3f:48:e4:7f:77:40:fc:
                    5c:13:0b:57:f1:e3:5f:56:97:38:1a:87:35:89:31:
                    4d:d2:fb:1b:40:81:c4:41:bf:48:fe:9b:28:94:15:
                    8d:43:3d:c9:00:78:a8:a1:d2:63:eb:92:b0:89:5a:
                    fc:2c:be:b7:d9:1b:25:ca:0f:78:f9:ab:39:2e:14:
                    49:a0:31:e2:a9:d7:26:13:53:cc:2d:bf:dc:c5:a2:
                    67:eb:db
                Exponent: 65537 (0x10001)
        X509v3 extensions:
            X509v3 Basic Constraints: 
                CA:FALSE
            Netscape Comment: 
                Easy-RSA Generated Certificate
            X509v3 Subject Key Identifier: 
                1B:75:C2:30:5C:E2:B5:15:38:18:EF:52:E1:85:44:55:2D:17:71:38
            X509v3 Authority Key Identifier: 
                keyid:EF:38:8D:14:50:58:A7:5B:4D:9C:17:72:FC:DF:B9:AC:A7:51:B0:10
                DirName:/C=US/ST=CA/L=SanFrancisco/O=Pixglo, Inc./OU=VPN-CIE/CN=tunnel.pixglo.com/name=Bala Chandrasekaran/emailAddress=bala@pixglo.com
                serial:A6:DB:C6:83:80:E6:A0:79

            X509v3 Extended Key Usage: 
                TLS Web Client Authentication
            X509v3 Key Usage: 
                Digital Signature
    Signature Algorithm: sha1WithRSAEncryption
         c7:21:b7:73:91:a3:a6:38:c4:e2:62:3e:b0:97:d9:99:ad:66:
         5f:cd:a0:5c:9d:78:5b:e0:83:16:94:66:13:c5:aa:bd:e8:f0:
         1b:c8:c4:01:83:db:6d:0a:90:69:5e:82:25:ef:4f:38:11:64:
         b8:f8:e4:d7:ee:c7:fb:9b:83:13:24:fc:6f:38:b5:de:9c:c3:
         10:9d:91:5b:33:b8:2e:1d:9f:8c:15:34:85:22:1a:12:8a:39:
         e6:18:06:20:dc:18:cc:47:f6:2c:3b:4e:7c:7d:da:f5:0b:14:
         02:a3:91:59:81:27:ae:65:0e:43:3b:1e:4c:fc:7b:4d:98:20:
         a6:99:68:8d:0b:1b:0c:ee:8c:be:35:5d:f7:95:db:86:84:81:
         57:60:f2:57:26:c1:2d:30:06:52:6b:7d:24:c1:96:e0:4a:e0:
         64:3d:d6:87:7b:ad:bd:6c:06:a5:d2:fc:e9:19:d0:60:c0:52:
         44:cc:c0:85:99:af:f5:ef:de:10:dc:05:3a:dd:93:e5:71:ad:
         b9:b7:00:82:2f:d6:54:74:12:c9:d2:ea:d5:35:91:b5:c5:a3:
         6b:83:c3:88:7a:6f:60:2d:1b:4e:c7:c0:37:c0:a7:86:89:40:
         19:3b:96:97:a5:6f:af:06:f4:1d:96:98:cf:b2:9e:9b:14:15:
         16:b1:8b:af:aa:89:47:4e:c4:a4:39:09:df:6f:f6:20:e4:57:
         0c:45:0f:86:33:a2:f7:fb:82:b4:5e:8f:38:cd:8e:5e:80:5b:
         ce:4e:a0:c5:65:40:a6:48:db:8a:f9:bc:1f:67:2c:9b:fd:0a:
         a7:e7:8d:4b:6b:d0:d4:16:b8:48:3b:e4:64:0f:ef:f9:65:da:
         8a:64:25:09:8b:93:cc:07:22:35:5f:65:95:1d:2f:73:09:39:
         7b:6d:73:40:37:a4:1b:a4:a4:cc:3e:b0:e8:f5:aa:7a:84:37:
         47:e7:de:7c:41:a9:6b:29:10:3a:4a:c2:86:44:d9:ec:36:d9:
         c6:d5:8e:d8:61:5b:f2:02:35:f7:99:08:1d:d4:87:7a:02:93:
         e2:df:be:4d:39:dd:12:0c:35:e5:f0:7b:a3:31:b3:aa:75:30:
         4e:a7:e9:28:5f:f2:52:e1:5f:ec:5b:01:11:05:5c:78:2d:82:
         16:97:ec:90:64:87:af:83:1c:da:3d:34:32:52:7b:5f:d4:1b:
         86:4e:d3:38:f9:bb:79:7e:d2:5e:8f:8b:c8:9c:77:60:b7:74:
         04:8b:7e:00:9c:84:07:56:56:a0:44:25:a7:4b:a2:88:7a:51:
         43:d6:97:61:20:6b:17:15:19:a2:52:4c:0d:b6:d8:b4:4f:11:
         24:8f:12:c1:19:99:be:7a
-----BEGIN CERTIFICATE-----
MIIHRjCCBS6gAwIBAgIBEjANBgkqhkiG9w0BAQUFADCBtDELMAkGA1UEBhMCVVMx
CzAJBgNVBAgTAkNBMRUwEwYDVQQHEwxTYW5GcmFuY2lzY28xFTATBgNVBAoTDFBp
eGdsbywgSW5jLjEQMA4GA1UECxMHVlBOLUNJRTEaMBgGA1UEAxMRdHVubmVsLnBp
eGdsby5jb20xHDAaBgNVBCkTE0JhbGEgQ2hhbmRyYXNla2FyYW4xHjAcBgkqhkiG
9w0BCQEWD2JhbGFAcGl4Z2xvLmNvbTAeFw0xODAyMTQwNjI0MjVaFw0yODAyMTIw
NjI0MjVaMIGoMQswCQYDVQQGEwJVUzELMAkGA1UECBMCQ0ExFTATBgNVBAcTDFNh
bkZyYW5jaXNjbzEVMBMGA1UEChMMUGl4Z2xvLCBJbmMuMRAwDgYDVQQLEwdWUE4t
Q0lFMQ4wDAYDVQQDEwVjaWUxNzEcMBoGA1UEKRMTQmFsYSBDaGFuZHJhc2VrYXJh
bjEeMBwGCSqGSIb3DQEJARYPYmFsYUBwaXhnbG8uY29tMIICIjANBgkqhkiG9w0B
AQEFAAOCAg8AMIICCgKCAgEA2DK29bhtU/g0FECxyno5d5A+pHp9+B+1EIvcGrGp
SVVOSnmI/rTjE5vXZ07I3FHa3NEKlmd1deWYLJJsWaSe0cPZUqlAF621n4wSk2ea
O/xA8YkIFFR5UAxJaCcSMTMQQQjOqdv4OVA/dcepq2frYW4AHS4cqrEzc7iaxVrr
l/ShCzrd03gdF0REItfGDQxD6xYrlgPT8bxm4xMw7VE0Rs2QDV4htciKW0qbCJSV
Rzdu1IOolSOjP8quoWLDnwuNZxB+1NICk7XNRxTAOSiWhZ07nACUs5symPpn4x/F
gnZ0+h2dSy4AMGi3qdH55WG1bzJXRW+Y+h/VUjiCGwebFKKo0gEQpIVkyNCN0W/X
o6wsIP1uQC5G5YOYpW7ZQ9f2ZsDBI5VvVyQPsojNVxvUbyKCUSMOyDyEz80WTxnj
HFmVhgkpDqj7xH+wa1FrF7pGYIosa8/4zsAnMoylfzoV0IuULTZT6rQTCh1IRkbf
UxkOqO8DY5KsvehJ+x7Mx+qw/rLss638GdaErTnF9wzyiRR8DY/tN9SIayQR0wgq
sZkUOYd+U8EVaMT2WD9I5H93QPxcEwtX8eNfVpc4Goc1iTFN0vsbQIHEQb9I/pso
lBWNQz3JAHioodJj65KwiVr8LL632Rslyg94+as5LhRJoDHiqdcmE1PMLb/cxaJn
69sCAwEAAaOCAWswggFnMAkGA1UdEwQCMAAwLQYJYIZIAYb4QgENBCAWHkVhc3kt
UlNBIEdlbmVyYXRlZCBDZXJ0aWZpY2F0ZTAdBgNVHQ4EFgQUG3XCMFzitRU4GO9S
4YVEVS0XcTgwgekGA1UdIwSB4TCB3oAU7ziNFFBYp1tNnBdy/N+5rKdRsBChgbqk
gbcwgbQxCzAJBgNVBAYTAlVTMQswCQYDVQQIEwJDQTEVMBMGA1UEBxMMU2FuRnJh
bmNpc2NvMRUwEwYDVQQKEwxQaXhnbG8sIEluYy4xEDAOBgNVBAsTB1ZQTi1DSUUx
GjAYBgNVBAMTEXR1bm5lbC5waXhnbG8uY29tMRwwGgYDVQQpExNCYWxhIENoYW5k
cmFzZWthcmFuMR4wHAYJKoZIhvcNAQkBFg9iYWxhQHBpeGdsby5jb22CCQCm28aD
gOageTATBgNVHSUEDDAKBggrBgEFBQcDAjALBgNVHQ8EBAMCB4AwDQYJKoZIhvcN
AQEFBQADggIBAMcht3ORo6Y4xOJiPrCX2ZmtZl/NoFydeFvggxaUZhPFqr3o8BvI
xAGD220KkGlegiXvTzgRZLj45Nfux/ubgxMk/G84td6cwxCdkVszuC4dn4wVNIUi
GhKKOeYYBiDcGMxH9iw7Tnx92vULFAKjkVmBJ65lDkM7Hkz8e02YIKaZaI0LGwzu
jL41XfeV24aEgVdg8lcmwS0wBlJrfSTBluBK4GQ91od7rb1sBqXS/OkZ0GDAUkTM
wIWZr/Xv3hDcBTrdk+Vxrbm3AIIv1lR0EsnS6tU1kbXFo2uDw4h6b2AtG07HwDfA
p4aJQBk7lpelb68G9B2WmM+ynpsUFRaxi6+qiUdOxKQ5Cd9v9iDkVwxFD4Yzovf7
grRejzjNjl6AW85OoMVlQKZI24r5vB9nLJv9CqfnjUtr0NQWuEg75GQP7/ll2opk
JQmLk8wHIjVfZZUdL3MJOXttc0A3pBukpMw+sOj1qnqEN0fn3nxBqWspEDpKwoZE
2ew22cbVjthhW/ICNfeZCB3Uh3oCk+Lfvk053RIMNeXwe6Mxs6p1ME6n6Shf8lLh
X+xbAREFXHgtghaX7JBkh6+DHNo9NDJSe1/UG4ZO0zj5u3l+0l6Pi8icd2C3dASL
fgCchAdWVqBEJadLooh6UUPWl2EgaxcVGaJSTA222LRPESSPEsEZmb56
-----END CERTIFICATE-----
