Certificate:
    Data:
        Version: 3 (0x2)
        Serial Number: 19 (0x13)
    Signature Algorithm: sha1WithRSAEncryption
        Issuer: C=US, ST=CA, L=SanFrancisco, O=Pixglo, Inc., OU=VPN-CIE, CN=tunnel.pixglo.com/name=Bala Chandrasekaran/emailAddress=bala@pixglo.com
        Validity
            Not Before: Feb 14 06:24:25 2018 GMT
            Not After : Feb 12 06:24:25 2028 GMT
        Subject: C=US, ST=CA, L=SanFrancisco, O=Pixglo, Inc., OU=VPN-CIE, CN=cie18/name=Bala Chandrasekaran/emailAddress=bala@pixglo.com
        Subject Public Key Info:
            Public Key Algorithm: rsaEncryption
                Public-Key: (4096 bit)
                Modulus:
                    00:b3:8a:35:27:5f:51:26:88:ff:a9:35:c4:83:da:
                    ca:d8:41:53:a5:c8:dc:d6:6a:a6:23:0b:19:04:06:
                    bf:69:1d:45:16:61:fe:8f:cd:1e:6f:f3:9e:b0:d5:
                    37:55:9b:76:99:9c:ff:96:6c:2a:a6:ac:48:46:0e:
                    f9:ce:08:2c:ee:b7:0f:53:81:5b:6b:cf:30:27:ed:
                    f9:da:0e:38:d4:9b:61:aa:fb:18:0c:e0:25:a6:eb:
                    c7:04:26:3e:11:cc:60:b9:8b:10:b6:fa:e6:f0:5a:
                    7c:9a:23:0c:d5:ac:cc:2d:b7:7f:f9:49:2e:38:dd:
                    10:b4:7f:ee:50:ba:e7:62:83:3d:c7:47:96:6e:74:
                    47:cb:54:ca:7f:9d:57:b5:7f:79:7b:4c:8d:99:40:
                    a7:a4:d4:c5:7b:1e:69:0f:27:f1:f0:fd:4f:46:df:
                    aa:35:30:7f:82:44:a4:95:32:d5:38:d1:44:62:cb:
                    2b:95:a6:58:10:e4:1c:7a:c8:c2:f8:03:df:60:81:
                    54:61:67:b0:2b:96:89:60:09:79:49:ef:39:ac:e7:
                    9f:9d:16:83:d2:9b:a7:66:8f:08:0f:58:02:7d:a9:
                    f2:41:f9:a6:4c:62:c4:1f:86:5f:1c:e8:e2:2f:34:
                    60:a9:a1:49:ca:9e:06:42:7f:f3:94:bb:0f:62:bb:
                    44:f5:09:97:0e:c1:b6:c3:e3:68:6d:97:9d:8a:e5:
                    a5:21:74:30:32:65:9e:0e:01:d4:f6:b1:46:22:a4:
                    a3:65:8e:53:03:c6:dc:40:af:db:de:c7:b1:aa:8b:
                    99:c4:b5:75:06:03:9d:bd:2c:c2:e1:15:4a:08:c8:
                    52:c3:4a:58:9c:dd:0c:e5:5c:03:11:00:3f:fd:22:
                    ad:72:6a:1e:01:ed:b3:26:cd:c7:f1:6a:80:6f:ce:
                    3d:f8:2a:e9:51:5b:ab:94:e3:16:43:e0:ee:77:51:
                    cc:73:26:67:55:97:49:7e:c0:60:4f:0a:91:0f:64:
                    1c:4e:8b:9a:d0:10:c1:65:68:63:b5:ec:b3:54:f2:
                    52:14:1d:5d:d4:f9:23:b6:40:06:ea:35:ff:a1:19:
                    30:fd:14:fa:2c:2d:65:17:ee:42:0d:a2:d6:71:73:
                    c2:61:1e:b9:ba:e1:52:d2:2d:fa:ed:a5:1c:09:df:
                    fc:db:02:cf:e3:84:5f:5c:8c:db:05:ab:13:8a:55:
                    0c:d2:1a:72:f7:03:e9:ad:01:50:5e:5e:6c:a4:2a:
                    4a:fb:9c:8a:79:64:b7:3d:c6:5d:cb:eb:02:20:76:
                    16:69:b8:c1:e6:4a:b2:48:0b:24:b3:7f:3a:d3:00:
                    22:70:74:28:e4:1f:78:59:42:01:24:96:84:4e:d8:
                    a7:d3:39
                Exponent: 65537 (0x10001)
        X509v3 extensions:
            X509v3 Basic Constraints: 
                CA:FALSE
            Netscape Comment: 
                Easy-RSA Generated Certificate
            X509v3 Subject Key Identifier: 
                E0:52:F2:94:13:35:DB:A2:4E:E4:66:94:B4:C3:47:75:74:3E:1B:77
            X509v3 Authority Key Identifier: 
                keyid:EF:38:8D:14:50:58:A7:5B:4D:9C:17:72:FC:DF:B9:AC:A7:51:B0:10
                DirName:/C=US/ST=CA/L=SanFrancisco/O=Pixglo, Inc./OU=VPN-CIE/CN=tunnel.pixglo.com/name=Bala Chandrasekaran/emailAddress=bala@pixglo.com
                serial:A6:DB:C6:83:80:E6:A0:79

            X509v3 Extended Key Usage: 
                TLS Web Client Authentication
            X509v3 Key Usage: 
                Digital Signature
    Signature Algorithm: sha1WithRSAEncryption
         0d:97:4f:68:cd:ff:7c:10:8f:60:be:8a:03:e6:4a:90:5a:a4:
         1a:62:a4:49:20:fc:2b:0b:68:f7:46:9d:12:3a:61:00:ac:b7:
         f4:af:28:d5:5a:d5:6b:0c:5d:90:c5:32:ad:d2:33:d2:3f:ab:
         5c:ad:e4:98:aa:07:37:bc:7a:ef:72:6f:60:b0:6b:40:eb:16:
         7c:8b:da:5c:67:58:64:a7:ae:9d:ac:9b:76:43:3b:48:ed:d9:
         78:14:f3:9d:45:7e:e3:e9:06:62:c8:f0:47:5e:ba:11:33:c5:
         54:da:e0:33:6e:77:63:55:14:82:0b:20:81:e3:4d:25:5f:86:
         9e:79:12:b7:bc:82:d0:0f:27:65:cd:a3:d9:ca:6a:19:4c:35:
         6e:c4:0b:04:3f:e2:7f:f4:06:48:60:2f:8b:cf:ec:3e:5a:03:
         c4:be:02:4e:af:0b:c3:79:26:26:b4:69:b0:79:6a:d8:fb:77:
         12:bb:52:97:64:f8:1e:00:2f:11:01:7c:a4:3b:37:a1:2a:4d:
         f3:76:23:0b:e6:83:89:82:68:9b:a8:bc:4a:ca:18:aa:f6:a7:
         00:6c:72:f5:63:69:e5:8b:da:1e:2b:7b:8c:d9:67:aa:d8:44:
         c9:6f:e5:cd:b3:c4:4f:7e:1a:d7:49:cf:e9:d4:ae:f8:66:6a:
         01:f7:ea:d5:d0:ff:be:e4:10:9f:b9:b9:fb:08:2c:d3:76:10:
         c7:42:d4:87:0a:c7:e3:2a:ba:bc:db:f6:c5:fc:60:23:db:cd:
         b4:f4:11:47:b1:10:85:a3:dc:e3:6b:15:69:50:f9:7b:84:47:
         8e:01:24:62:da:2e:d9:8e:df:f1:5b:b2:da:9c:3e:7e:7c:88:
         25:f0:b3:b6:01:49:58:23:35:8b:6a:d8:7a:48:ee:7b:3e:c2:
         eb:03:56:15:5d:c2:7f:a0:02:c3:1d:c8:a6:5c:bf:da:3c:45:
         3b:69:b5:e8:4d:a9:af:04:a7:b7:e3:78:d6:24:ac:8b:3d:71:
         ad:70:09:9d:a3:b9:32:21:ed:ff:b9:ee:16:31:4f:c6:b7:68:
         52:78:a4:41:cd:37:1a:54:6c:ca:d4:a9:cd:1f:65:08:32:6b:
         f9:8a:32:3e:f9:4a:47:46:db:0a:82:4b:3d:16:c4:f0:f0:43:
         cb:34:2f:ff:70:ba:07:3a:2a:cb:d2:c5:3a:45:5f:18:92:c3:
         15:e7:d6:ac:0d:61:80:79:7c:21:18:5d:49:aa:ef:1d:39:e3:
         27:54:1d:c4:b3:46:05:50:23:3f:41:b2:6f:2d:44:cd:87:17:
         9b:ec:a5:5e:eb:fb:e0:86:79:15:77:e8:2d:5c:c6:4c:08:5f:
         ea:06:bf:d7:05:8d:e6:31
-----BEGIN CERTIFICATE-----
MIIHRjCCBS6gAwIBAgIBEzANBgkqhkiG9w0BAQUFADCBtDELMAkGA1UEBhMCVVMx
CzAJBgNVBAgTAkNBMRUwEwYDVQQHEwxTYW5GcmFuY2lzY28xFTATBgNVBAoTDFBp
eGdsbywgSW5jLjEQMA4GA1UECxMHVlBOLUNJRTEaMBgGA1UEAxMRdHVubmVsLnBp
eGdsby5jb20xHDAaBgNVBCkTE0JhbGEgQ2hhbmRyYXNla2FyYW4xHjAcBgkqhkiG
9w0BCQEWD2JhbGFAcGl4Z2xvLmNvbTAeFw0xODAyMTQwNjI0MjVaFw0yODAyMTIw
NjI0MjVaMIGoMQswCQYDVQQGEwJVUzELMAkGA1UECBMCQ0ExFTATBgNVBAcTDFNh
bkZyYW5jaXNjbzEVMBMGA1UEChMMUGl4Z2xvLCBJbmMuMRAwDgYDVQQLEwdWUE4t
Q0lFMQ4wDAYDVQQDEwVjaWUxODEcMBoGA1UEKRMTQmFsYSBDaGFuZHJhc2VrYXJh
bjEeMBwGCSqGSIb3DQEJARYPYmFsYUBwaXhnbG8uY29tMIICIjANBgkqhkiG9w0B
AQEFAAOCAg8AMIICCgKCAgEAs4o1J19RJoj/qTXEg9rK2EFTpcjc1mqmIwsZBAa/
aR1FFmH+j80eb/OesNU3VZt2mZz/lmwqpqxIRg75zggs7rcPU4Fba88wJ+352g44
1JthqvsYDOAlpuvHBCY+EcxguYsQtvrm8Fp8miMM1azMLbd/+UkuON0QtH/uULrn
YoM9x0eWbnRHy1TKf51XtX95e0yNmUCnpNTFex5pDyfx8P1PRt+qNTB/gkSklTLV
ONFEYssrlaZYEOQcesjC+APfYIFUYWewK5aJYAl5Se85rOefnRaD0punZo8ID1gC
fanyQfmmTGLEH4ZfHOjiLzRgqaFJyp4GQn/zlLsPYrtE9QmXDsG2w+NobZediuWl
IXQwMmWeDgHU9rFGIqSjZY5TA8bcQK/b3sexqouZxLV1BgOdvSzC4RVKCMhSw0pY
nN0M5VwDEQA//SKtcmoeAe2zJs3H8WqAb849+CrpUVurlOMWQ+Dud1HMcyZnVZdJ
fsBgTwqRD2QcToua0BDBZWhjteyzVPJSFB1d1PkjtkAG6jX/oRkw/RT6LC1lF+5C
DaLWcXPCYR65uuFS0i367aUcCd/82wLP44RfXIzbBasTilUM0hpy9wPprQFQXl5s
pCpK+5yKeWS3PcZdy+sCIHYWabjB5kqySAsks3860wAicHQo5B94WUIBJJaETtin
0zkCAwEAAaOCAWswggFnMAkGA1UdEwQCMAAwLQYJYIZIAYb4QgENBCAWHkVhc3kt
UlNBIEdlbmVyYXRlZCBDZXJ0aWZpY2F0ZTAdBgNVHQ4EFgQU4FLylBM126JO5GaU
tMNHdXQ+G3cwgekGA1UdIwSB4TCB3oAU7ziNFFBYp1tNnBdy/N+5rKdRsBChgbqk
gbcwgbQxCzAJBgNVBAYTAlVTMQswCQYDVQQIEwJDQTEVMBMGA1UEBxMMU2FuRnJh
bmNpc2NvMRUwEwYDVQQKEwxQaXhnbG8sIEluYy4xEDAOBgNVBAsTB1ZQTi1DSUUx
GjAYBgNVBAMTEXR1bm5lbC5waXhnbG8uY29tMRwwGgYDVQQpExNCYWxhIENoYW5k
cmFzZWthcmFuMR4wHAYJKoZIhvcNAQkBFg9iYWxhQHBpeGdsby5jb22CCQCm28aD
gOageTATBgNVHSUEDDAKBggrBgEFBQcDAjALBgNVHQ8EBAMCB4AwDQYJKoZIhvcN
AQEFBQADggIBAA2XT2jN/3wQj2C+igPmSpBapBpipEkg/CsLaPdGnRI6YQCst/Sv
KNVa1WsMXZDFMq3SM9I/q1yt5JiqBze8eu9yb2Cwa0DrFnyL2lxnWGSnrp2sm3ZD
O0jt2XgU851FfuPpBmLI8EdeuhEzxVTa4DNud2NVFIILIIHjTSVfhp55Ere8gtAP
J2XNo9nKahlMNW7ECwQ/4n/0BkhgL4vP7D5aA8S+Ak6vC8N5Jia0abB5atj7dxK7
Updk+B4ALxEBfKQ7N6EqTfN2Iwvmg4mCaJuovErKGKr2pwBscvVjaeWL2h4re4zZ
Z6rYRMlv5c2zxE9+GtdJz+nUrvhmagH36tXQ/77kEJ+5ufsILNN2EMdC1IcKx+Mq
urzb9sX8YCPbzbT0EUexEIWj3ONrFWlQ+XuER44BJGLaLtmO3/FbstqcPn58iCXw
s7YBSVgjNYtq2HpI7ns+wusDVhVdwn+gAsMdyKZcv9o8RTtptehNqa8Ep7fjeNYk
rIs9ca1wCZ2juTIh7f+57hYxT8a3aFJ4pEHNNxpUbMrUqc0fZQgya/mKMj75SkdG
2wqCSz0WxPDwQ8s0L/9wugc6KsvSxTpFXxiSwxXn1qwNYYB5fCEYXUmq7x054ydU
HcSzRgVQIz9Bsm8tRM2HF5vspV7r++CGeRV36C1cxkwIX+oGv9cFjeYx
-----END CERTIFICATE-----
