Certificate:
    Data:
        Version: 3 (0x2)
        Serial Number: 20 (0x14)
    Signature Algorithm: sha1WithRSAEncryption
        Issuer: C=US, ST=CA, L=SanFrancisco, O=Pixglo, Inc., OU=VPN-CIE, CN=tunnel.pixglo.com/name=Bala Chandrasekaran/emailAddress=bala@pixglo.com
        Validity
            Not Before: Feb 14 06:24:26 2018 GMT
            Not After : Feb 12 06:24:26 2028 GMT
        Subject: C=US, ST=CA, L=SanFrancisco, O=Pixglo, Inc., OU=VPN-CIE, CN=cie19/name=Bala Chandrasekaran/emailAddress=bala@pixglo.com
        Subject Public Key Info:
            Public Key Algorithm: rsaEncryption
                Public-Key: (4096 bit)
                Modulus:
                    00:d5:5d:4b:3c:d9:e5:14:61:78:40:30:ff:ae:9a:
                    50:47:0e:77:89:83:c6:df:90:a6:70:20:a3:45:53:
                    fc:33:36:09:0c:f9:73:38:7d:ea:93:f3:64:2f:a1:
                    5d:57:30:4c:d8:65:9b:9b:4f:15:3a:f0:a2:31:56:
                    f7:58:77:34:2d:99:d2:7d:38:92:6d:5a:fd:0b:df:
                    fa:d1:46:5c:93:19:6f:dc:46:30:d2:c5:7c:6e:75:
                    ac:7c:d2:00:e2:99:19:08:12:41:b7:a1:21:b9:92:
                    fc:3b:b0:bc:81:df:7d:1c:19:0f:46:54:67:f9:84:
                    52:d3:9d:f0:82:e7:3b:a5:9b:77:2c:85:09:d8:69:
                    21:a3:29:f4:95:b9:8a:e3:7e:8b:91:4a:8a:ab:00:
                    f7:c5:d9:64:e5:8a:0f:7a:b6:b0:c6:32:84:bb:08:
                    b5:38:ca:73:a1:4f:40:70:5c:e4:25:9a:fb:79:7d:
                    e2:d9:3b:d3:e5:27:cb:ed:2d:d0:24:35:e4:c7:cf:
                    a0:22:34:10:58:c7:6e:11:77:81:e6:99:26:33:dc:
                    68:7e:f2:b1:57:be:a7:eb:4a:7c:39:68:0c:08:fa:
                    40:0a:62:e9:f8:fc:8a:dd:5d:c1:91:ae:69:78:fd:
                    22:a5:64:2a:23:4f:12:ff:e1:03:d8:70:42:47:f3:
                    4d:97:fc:39:ba:de:92:c5:e2:28:eb:98:b4:96:5f:
                    c6:9d:14:bb:26:76:e6:2c:15:e6:5e:34:4e:61:a9:
                    ae:06:39:00:d8:8a:2e:0e:e8:b0:96:e4:cf:9f:fa:
                    cc:cb:7b:47:4a:eb:22:5f:d7:89:7c:7a:54:cb:cd:
                    df:9a:b6:50:5f:03:c9:2d:fd:84:a9:40:2a:dd:0b:
                    73:9a:1d:d0:95:97:0f:df:c4:0a:10:4f:b5:19:bd:
                    cc:e0:34:f0:cf:ae:6c:77:bc:b9:09:f0:c8:ce:f5:
                    0a:c4:33:3a:cf:7b:25:5a:79:d3:2d:41:26:b6:22:
                    13:bf:9e:f0:43:0c:de:8a:20:51:e6:19:78:d1:96:
                    2a:c8:2d:77:25:95:5a:d0:30:c8:3d:1b:9f:08:b2:
                    37:7a:7c:c7:ce:48:5c:0d:2f:ab:aa:7c:86:9e:a0:
                    e2:14:27:ac:94:3e:0b:8e:3e:81:aa:e9:ef:4b:97:
                    2d:8f:4c:9c:a0:49:9c:aa:8b:96:ea:6b:ed:d4:55:
                    11:64:3f:9a:8f:74:65:45:24:81:50:36:54:fd:df:
                    0a:76:63:1e:13:20:53:71:37:34:15:f1:14:0c:76:
                    22:d8:15:99:3e:03:a2:31:81:bc:01:2c:b9:1b:c0:
                    a7:a2:b1:bc:83:b5:26:48:d6:fc:73:71:99:84:f2:
                    9d:37:ff
                Exponent: 65537 (0x10001)
        X509v3 extensions:
            X509v3 Basic Constraints: 
                CA:FALSE
            Netscape Comment: 
                Easy-RSA Generated Certificate
            X509v3 Subject Key Identifier: 
                A7:7D:1F:8D:D1:9C:AA:F4:83:D0:38:52:1D:61:C6:11:3E:D2:AD:6A
            X509v3 Authority Key Identifier: 
                keyid:EF:38:8D:14:50:58:A7:5B:4D:9C:17:72:FC:DF:B9:AC:A7:51:B0:10
                DirName:/C=US/ST=CA/L=SanFrancisco/O=Pixglo, Inc./OU=VPN-CIE/CN=tunnel.pixglo.com/name=Bala Chandrasekaran/emailAddress=bala@pixglo.com
                serial:A6:DB:C6:83:80:E6:A0:79

            X509v3 Extended Key Usage: 
                TLS Web Client Authentication
            X509v3 Key Usage: 
                Digital Signature
    Signature Algorithm: sha1WithRSAEncryption
         46:76:13:72:80:2c:74:e4:a7:b5:7b:40:59:71:09:83:21:e0:
         2b:38:68:4e:5f:38:f3:68:d0:3d:0e:8a:4d:06:d6:9e:87:c3:
         09:bc:9d:73:d1:95:53:2a:fd:1a:ad:f8:f7:69:6d:3e:97:4e:
         42:be:d6:97:74:fd:82:82:e9:08:da:03:4e:7b:e6:00:b9:8e:
         ed:71:cd:90:4d:19:b1:c0:e0:df:2c:f1:e3:03:ad:08:b5:c7:
         b3:7d:f4:ba:a7:d2:8f:2a:bd:bc:20:2e:46:a7:92:47:84:66:
         04:21:fc:47:3a:47:14:69:ff:30:e5:c7:c8:42:5f:03:20:85:
         3a:2a:78:7b:74:f9:f4:e9:be:2c:69:0e:54:d4:5f:68:7e:5a:
         87:85:a7:d2:44:2c:1e:1d:6f:02:13:34:5f:fd:bc:8f:b1:0f:
         2f:9a:f4:bd:a9:9c:31:b2:b3:79:a0:be:0d:3c:13:01:f4:78:
         bf:8b:85:46:df:9f:e0:e3:22:b5:fe:15:d9:5d:d5:69:c7:f8:
         cd:4c:db:75:21:ed:37:32:3e:ad:3c:61:8c:78:70:16:0c:e0:
         8b:99:1d:2d:73:81:55:08:cc:9c:f5:51:d1:09:9a:30:4a:bc:
         d1:ba:2f:f2:ea:22:16:c8:e9:19:9b:17:83:04:e7:ac:ff:c2:
         b6:79:9d:da:80:10:20:f5:ac:74:08:29:51:92:1f:f8:ec:d3:
         8c:ab:a7:f5:2d:de:c6:67:c1:65:5b:e0:21:1e:4d:6c:d0:f9:
         c1:68:a4:fa:d9:66:74:59:bd:d7:68:a8:82:5b:6b:ec:93:98:
         7f:d2:4b:0a:44:7d:b4:7d:6d:a2:09:7b:68:f0:ce:5b:73:c0:
         2a:62:12:8c:3c:6c:fd:f8:d7:f6:bd:af:df:96:2a:04:4e:b5:
         ad:52:19:ea:72:90:da:86:80:6f:68:97:bb:10:78:70:ce:cb:
         fa:47:3e:a1:37:52:2b:00:2a:e1:ec:88:ce:c9:c6:95:7c:85:
         45:e1:37:5a:a7:cc:5b:68:f1:61:de:b5:0b:c2:09:cf:e4:fd:
         07:26:bc:5b:d1:36:7c:7c:84:d8:bb:01:d3:c4:52:4e:5b:3c:
         be:75:1f:78:dc:29:77:fe:ce:cc:12:26:30:22:0f:1e:4c:44:
         27:1d:01:90:52:df:77:41:81:70:1f:41:d9:50:67:d9:09:d8:
         12:ba:e5:85:53:04:d2:83:3d:1e:be:3f:f4:54:55:14:c4:20:
         69:61:de:d9:7c:6c:97:ef:11:f5:99:8c:fc:5d:cd:a9:05:23:
         6a:0d:7c:07:14:bc:88:16:e3:5c:9a:a2:97:99:2f:85:cd:dd:
         87:73:3d:c8:22:f4:fd:94
-----BEGIN CERTIFICATE-----
MIIHRjCCBS6gAwIBAgIBFDANBgkqhkiG9w0BAQUFADCBtDELMAkGA1UEBhMCVVMx
CzAJBgNVBAgTAkNBMRUwEwYDVQQHEwxTYW5GcmFuY2lzY28xFTATBgNVBAoTDFBp
eGdsbywgSW5jLjEQMA4GA1UECxMHVlBOLUNJRTEaMBgGA1UEAxMRdHVubmVsLnBp
eGdsby5jb20xHDAaBgNVBCkTE0JhbGEgQ2hhbmRyYXNla2FyYW4xHjAcBgkqhkiG
9w0BCQEWD2JhbGFAcGl4Z2xvLmNvbTAeFw0xODAyMTQwNjI0MjZaFw0yODAyMTIw
NjI0MjZaMIGoMQswCQYDVQQGEwJVUzELMAkGA1UECBMCQ0ExFTATBgNVBAcTDFNh
bkZyYW5jaXNjbzEVMBMGA1UEChMMUGl4Z2xvLCBJbmMuMRAwDgYDVQQLEwdWUE4t
Q0lFMQ4wDAYDVQQDEwVjaWUxOTEcMBoGA1UEKRMTQmFsYSBDaGFuZHJhc2VrYXJh
bjEeMBwGCSqGSIb3DQEJARYPYmFsYUBwaXhnbG8uY29tMIICIjANBgkqhkiG9w0B
AQEFAAOCAg8AMIICCgKCAgEA1V1LPNnlFGF4QDD/rppQRw53iYPG35CmcCCjRVP8
MzYJDPlzOH3qk/NkL6FdVzBM2GWbm08VOvCiMVb3WHc0LZnSfTiSbVr9C9/60UZc
kxlv3EYw0sV8bnWsfNIA4pkZCBJBt6EhuZL8O7C8gd99HBkPRlRn+YRS053wguc7
pZt3LIUJ2Gkhoyn0lbmK436LkUqKqwD3xdlk5YoPerawxjKEuwi1OMpzoU9AcFzk
JZr7eX3i2TvT5SfL7S3QJDXkx8+gIjQQWMduEXeB5pkmM9xofvKxV76n60p8OWgM
CPpACmLp+PyK3V3Bka5peP0ipWQqI08S/+ED2HBCR/NNl/w5ut6SxeIo65i0ll/G
nRS7JnbmLBXmXjROYamuBjkA2IouDuiwluTPn/rMy3tHSusiX9eJfHpUy83fmrZQ
XwPJLf2EqUAq3Qtzmh3QlZcP38QKEE+1Gb3M4DTwz65sd7y5CfDIzvUKxDM6z3sl
WnnTLUEmtiITv57wQwzeiiBR5hl40ZYqyC13JZVa0DDIPRufCLI3enzHzkhcDS+r
qnyGnqDiFCeslD4Ljj6BqunvS5ctj0ycoEmcqouW6mvt1FURZD+aj3RlRSSBUDZU
/d8KdmMeEyBTcTc0FfEUDHYi2BWZPgOiMYG8ASy5G8CnorG8g7UmSNb8c3GZhPKd
N/8CAwEAAaOCAWswggFnMAkGA1UdEwQCMAAwLQYJYIZIAYb4QgENBCAWHkVhc3kt
UlNBIEdlbmVyYXRlZCBDZXJ0aWZpY2F0ZTAdBgNVHQ4EFgQUp30fjdGcqvSD0DhS
HWHGET7SrWowgekGA1UdIwSB4TCB3oAU7ziNFFBYp1tNnBdy/N+5rKdRsBChgbqk
gbcwgbQxCzAJBgNVBAYTAlVTMQswCQYDVQQIEwJDQTEVMBMGA1UEBxMMU2FuRnJh
bmNpc2NvMRUwEwYDVQQKEwxQaXhnbG8sIEluYy4xEDAOBgNVBAsTB1ZQTi1DSUUx
GjAYBgNVBAMTEXR1bm5lbC5waXhnbG8uY29tMRwwGgYDVQQpExNCYWxhIENoYW5k
cmFzZWthcmFuMR4wHAYJKoZIhvcNAQkBFg9iYWxhQHBpeGdsby5jb22CCQCm28aD
gOageTATBgNVHSUEDDAKBggrBgEFBQcDAjALBgNVHQ8EBAMCB4AwDQYJKoZIhvcN
AQEFBQADggIBAEZ2E3KALHTkp7V7QFlxCYMh4Cs4aE5fOPNo0D0Oik0G1p6Hwwm8
nXPRlVMq/Rqt+PdpbT6XTkK+1pd0/YKC6QjaA0575gC5ju1xzZBNGbHA4N8s8eMD
rQi1x7N99Lqn0o8qvbwgLkankkeEZgQh/Ec6RxRp/zDlx8hCXwMghToqeHt0+fTp
vixpDlTUX2h+WoeFp9JELB4dbwITNF/9vI+xDy+a9L2pnDGys3mgvg08EwH0eL+L
hUbfn+DjIrX+Fdld1WnH+M1M23Uh7TcyPq08YYx4cBYM4IuZHS1zgVUIzJz1UdEJ
mjBKvNG6L/LqIhbI6RmbF4ME56z/wrZ5ndqAECD1rHQIKVGSH/js04yrp/Ut3sZn
wWVb4CEeTWzQ+cFopPrZZnRZvddoqIJba+yTmH/SSwpEfbR9baIJe2jwzltzwCpi
Eow8bP341/a9r9+WKgROta1SGepykNqGgG9ol7sQeHDOy/pHPqE3UisAKuHsiM7J
xpV8hUXhN1qnzFto8WHetQvCCc/k/QcmvFvRNnx8hNi7AdPEUk5bPL51H3jcKXf+
zswSJjAiDx5MRCcdAZBS33dBgXAfQdlQZ9kJ2BK65YVTBNKDPR6+P/RUVRTEIGlh
3tl8bJfvEfWZjPxdzakFI2oNfAcUvIgW41yaopeZL4XN3YdzPcgi9P2U
-----END CERTIFICATE-----
