Certificate:
    Data:
        Version: 3 (0x2)
        Serial Number: 24 (0x18)
    Signature Algorithm: sha1WithRSAEncryption
        Issuer: C=US, ST=CA, L=SanFrancisco, O=Pixglo, Inc., OU=VPN-CIE, CN=tunnel.pixglo.com/name=Bala Chandrasekaran/emailAddress=bala@pixglo.com
        Validity
            Not Before: Feb 14 06:24:28 2018 GMT
            Not After : Feb 12 06:24:28 2028 GMT
        Subject: C=US, ST=CA, L=SanFrancisco, O=Pixglo, Inc., OU=VPN-CIE, CN=cie23/name=Bala Chandrasekaran/emailAddress=bala@pixglo.com
        Subject Public Key Info:
            Public Key Algorithm: rsaEncryption
                Public-Key: (4096 bit)
                Modulus:
                    00:c4:92:86:86:aa:f6:dc:8c:36:44:b7:ea:d3:03:
                    ed:d3:92:3e:ff:3c:a6:20:d6:a0:02:a5:94:67:2c:
                    80:93:1e:c7:33:29:c3:34:d6:c2:d3:b3:98:ad:19:
                    f1:2d:5b:ce:d8:09:67:3c:1c:ec:8f:9a:92:f0:79:
                    59:26:df:67:4a:65:21:ce:d3:80:f9:cc:71:93:bc:
                    a7:6d:5d:3a:a5:ed:df:4f:09:1d:b1:11:c5:b2:38:
                    db:34:2f:52:9f:69:6d:54:ae:98:b9:64:58:58:38:
                    01:81:71:ce:80:f3:17:7c:8c:e6:32:99:fa:fb:d0:
                    dd:d8:2a:ef:ee:05:08:94:1f:24:b8:3a:78:be:aa:
                    16:6c:be:81:7c:e3:d6:b5:c0:78:8b:76:a0:f9:2b:
                    be:de:4c:af:70:5c:77:d4:29:2e:43:75:e1:63:14:
                    26:f6:05:af:c0:26:ef:6b:ce:cc:e8:80:01:e3:6b:
                    c9:66:a0:f1:a0:69:ef:44:39:4c:a6:4b:87:0d:05:
                    09:31:be:cf:bd:c3:39:a4:bd:50:84:79:cb:9a:27:
                    bf:f2:47:bd:f9:f9:c7:bf:4f:a6:c6:5a:89:41:f0:
                    b2:43:98:c5:0f:78:86:53:d4:da:cd:fb:d0:db:98:
                    c9:80:4e:ed:7f:45:e6:c1:7b:83:43:fa:17:78:ed:
                    50:64:19:fd:07:c9:bf:21:a2:f8:5e:24:74:6b:99:
                    e4:34:85:72:88:85:1d:5f:91:27:28:3d:c3:8f:b7:
                    b0:8a:c9:25:7c:31:d0:d4:8f:ac:29:df:27:ea:5c:
                    61:8c:b6:a5:28:dd:69:54:9b:73:c8:87:42:a7:10:
                    44:22:b1:75:eb:78:a0:74:79:e7:cb:4e:64:72:5a:
                    f1:43:11:b1:de:3e:66:71:88:85:86:da:fa:1b:86:
                    8f:36:ef:ec:b6:a7:66:6f:a3:90:2e:ea:ec:59:77:
                    75:a4:11:47:94:40:83:72:62:b4:cb:79:42:73:c2:
                    22:9d:e3:67:6b:1a:57:92:78:d8:16:32:2f:b1:2d:
                    8e:17:ed:ba:7e:cf:c1:28:fa:18:18:0e:2a:65:ad:
                    0f:9d:f1:8a:0b:16:2c:ca:6f:12:31:b9:1c:6b:f6:
                    f9:41:0e:2b:bf:39:6e:76:c7:af:1f:6f:03:d2:25:
                    85:45:5c:42:e7:94:f1:44:ab:c7:d7:36:aa:09:7a:
                    db:3c:fe:5e:3a:6c:37:9d:79:b2:4b:fc:bd:89:7b:
                    d4:e0:5f:6d:b7:89:59:d3:6b:9a:e6:76:b1:7d:af:
                    95:a9:9e:53:15:42:e3:a7:56:5e:31:f8:42:cc:5a:
                    d9:68:68:80:ee:b3:87:91:12:af:be:06:70:5f:b3:
                    3b:d5:91
                Exponent: 65537 (0x10001)
        X509v3 extensions:
            X509v3 Basic Constraints: 
                CA:FALSE
            Netscape Comment: 
                Easy-RSA Generated Certificate
            X509v3 Subject Key Identifier: 
                43:4D:F4:F2:3F:29:30:73:A1:2F:C3:7D:AB:D2:36:BD:3E:25:A2:0F
            X509v3 Authority Key Identifier: 
                keyid:EF:38:8D:14:50:58:A7:5B:4D:9C:17:72:FC:DF:B9:AC:A7:51:B0:10
                DirName:/C=US/ST=CA/L=SanFrancisco/O=Pixglo, Inc./OU=VPN-CIE/CN=tunnel.pixglo.com/name=Bala Chandrasekaran/emailAddress=bala@pixglo.com
                serial:A6:DB:C6:83:80:E6:A0:79

            X509v3 Extended Key Usage: 
                TLS Web Client Authentication
            X509v3 Key Usage: 
                Digital Signature
    Signature Algorithm: sha1WithRSAEncryption
         0c:25:2d:1d:47:dd:54:47:36:f3:a9:b4:3f:55:6a:e7:e6:1a:
         ce:93:19:d4:d7:fc:ec:26:0e:08:d5:4a:27:79:00:f2:ba:dd:
         eb:61:b5:1c:6c:56:45:97:c7:8d:89:ea:ed:c9:31:69:3e:7b:
         56:2d:2e:46:7d:32:f5:68:72:96:01:f1:99:65:14:dc:5c:39:
         01:7c:ab:9e:d7:8e:e1:ee:77:fa:20:5d:18:20:ec:8a:36:35:
         9a:14:2f:85:7a:85:13:f4:ba:3d:30:97:73:0c:2b:bc:18:84:
         2d:10:b8:a1:5a:59:43:26:5b:a8:67:63:72:8a:2f:f0:89:d5:
         49:ac:16:f6:16:9b:3a:95:ec:41:66:1f:cb:c7:e9:d1:a1:d9:
         f8:dc:09:55:45:22:e6:1f:38:18:75:ec:e8:48:82:36:28:e6:
         1f:40:71:17:bc:2c:ad:89:93:6f:97:d8:22:45:6a:92:05:d2:
         c9:41:7b:da:97:9b:8b:2d:8f:11:d7:c6:36:ff:76:86:04:f5:
         6e:33:44:a0:53:e0:35:a4:55:1b:9f:36:32:b5:88:d9:6f:d8:
         99:61:c9:72:c4:87:85:d8:51:71:5d:0f:13:9b:56:31:1e:0b:
         5e:5e:47:19:0e:9c:3a:bb:b7:4c:30:ba:41:c6:70:b0:85:7d:
         2d:b6:6f:52:0c:eb:ef:26:32:c5:96:4a:92:0b:78:50:3c:df:
         f0:3c:fa:3b:be:3e:e8:6c:d2:83:e6:c5:c6:bb:48:0a:68:c2:
         a0:bc:d9:e7:ab:81:f4:12:77:77:ab:7f:4f:a4:a9:dc:33:34:
         87:6e:cb:33:52:cf:68:4c:6c:15:a8:21:d2:01:30:2d:8a:41:
         79:15:44:47:e8:42:a0:83:f5:f7:bf:52:b2:21:7b:07:e4:a3:
         ef:de:61:f0:f0:f6:eb:d8:5a:fd:d5:66:a9:74:01:94:a6:37:
         23:a5:43:87:88:9d:db:b0:3c:25:23:24:fc:e4:66:84:42:8d:
         db:f1:be:4d:3a:3e:06:33:ab:ac:0d:db:a3:62:8b:1b:02:cb:
         db:5a:40:b7:1a:0f:29:f2:22:28:9a:86:9e:85:a5:fb:9a:a9:
         80:54:09:39:c3:4d:08:cb:98:c3:1a:35:ec:f9:88:d2:6b:93:
         11:a1:4e:a1:95:9b:49:80:ce:0e:0f:b9:9c:53:ef:c0:0d:b4:
         e3:5c:20:1e:78:5b:26:26:88:f1:b5:3b:b8:ef:4a:8f:97:5b:
         63:31:31:4f:21:2f:1d:42:bb:02:53:41:9c:89:f4:89:61:5c:
         eb:d6:60:96:cc:23:c5:f2:a9:88:72:7d:30:92:84:0c:1f:45:
         f7:f0:93:8c:25:7a:3f:87
-----BEGIN CERTIFICATE-----
MIIHRjCCBS6gAwIBAgIBGDANBgkqhkiG9w0BAQUFADCBtDELMAkGA1UEBhMCVVMx
CzAJBgNVBAgTAkNBMRUwEwYDVQQHEwxTYW5GcmFuY2lzY28xFTATBgNVBAoTDFBp
eGdsbywgSW5jLjEQMA4GA1UECxMHVlBOLUNJRTEaMBgGA1UEAxMRdHVubmVsLnBp
eGdsby5jb20xHDAaBgNVBCkTE0JhbGEgQ2hhbmRyYXNla2FyYW4xHjAcBgkqhkiG
9w0BCQEWD2JhbGFAcGl4Z2xvLmNvbTAeFw0xODAyMTQwNjI0MjhaFw0yODAyMTIw
NjI0MjhaMIGoMQswCQYDVQQGEwJVUzELMAkGA1UECBMCQ0ExFTATBgNVBAcTDFNh
bkZyYW5jaXNjbzEVMBMGA1UEChMMUGl4Z2xvLCBJbmMuMRAwDgYDVQQLEwdWUE4t
Q0lFMQ4wDAYDVQQDEwVjaWUyMzEcMBoGA1UEKRMTQmFsYSBDaGFuZHJhc2VrYXJh
bjEeMBwGCSqGSIb3DQEJARYPYmFsYUBwaXhnbG8uY29tMIICIjANBgkqhkiG9w0B
AQEFAAOCAg8AMIICCgKCAgEAxJKGhqr23Iw2RLfq0wPt05I+/zymINagAqWUZyyA
kx7HMynDNNbC07OYrRnxLVvO2AlnPBzsj5qS8HlZJt9nSmUhztOA+cxxk7ynbV06
pe3fTwkdsRHFsjjbNC9Sn2ltVK6YuWRYWDgBgXHOgPMXfIzmMpn6+9Dd2Crv7gUI
lB8kuDp4vqoWbL6BfOPWtcB4i3ag+Su+3kyvcFx31CkuQ3XhYxQm9gWvwCbva87M
6IAB42vJZqDxoGnvRDlMpkuHDQUJMb7PvcM5pL1QhHnLmie/8ke9+fnHv0+mxlqJ
QfCyQ5jFD3iGU9TazfvQ25jJgE7tf0XmwXuDQ/oXeO1QZBn9B8m/IaL4XiR0a5nk
NIVyiIUdX5EnKD3Dj7ewisklfDHQ1I+sKd8n6lxhjLalKN1pVJtzyIdCpxBEIrF1
63igdHnny05kclrxQxGx3j5mcYiFhtr6G4aPNu/stqdmb6OQLursWXd1pBFHlECD
cmK0y3lCc8IineNnaxpXknjYFjIvsS2OF+26fs/BKPoYGA4qZa0PnfGKCxYsym8S
Mbkca/b5QQ4rvzludsevH28D0iWFRVxC55TxRKvH1zaqCXrbPP5eOmw3nXmyS/y9
iXvU4F9tt4lZ02ua5naxfa+VqZ5TFULjp1ZeMfhCzFrZaGiA7rOHkRKvvgZwX7M7
1ZECAwEAAaOCAWswggFnMAkGA1UdEwQCMAAwLQYJYIZIAYb4QgENBCAWHkVhc3kt
UlNBIEdlbmVyYXRlZCBDZXJ0aWZpY2F0ZTAdBgNVHQ4EFgQUQ0308j8pMHOhL8N9
q9I2vT4log8wgekGA1UdIwSB4TCB3oAU7ziNFFBYp1tNnBdy/N+5rKdRsBChgbqk
gbcwgbQxCzAJBgNVBAYTAlVTMQswCQYDVQQIEwJDQTEVMBMGA1UEBxMMU2FuRnJh
bmNpc2NvMRUwEwYDVQQKEwxQaXhnbG8sIEluYy4xEDAOBgNVBAsTB1ZQTi1DSUUx
GjAYBgNVBAMTEXR1bm5lbC5waXhnbG8uY29tMRwwGgYDVQQpExNCYWxhIENoYW5k
cmFzZWthcmFuMR4wHAYJKoZIhvcNAQkBFg9iYWxhQHBpeGdsby5jb22CCQCm28aD
gOageTATBgNVHSUEDDAKBggrBgEFBQcDAjALBgNVHQ8EBAMCB4AwDQYJKoZIhvcN
AQEFBQADggIBAAwlLR1H3VRHNvOptD9VaufmGs6TGdTX/OwmDgjVSid5APK63eth
tRxsVkWXx42J6u3JMWk+e1YtLkZ9MvVocpYB8ZllFNxcOQF8q57XjuHud/ogXRgg
7Io2NZoUL4V6hRP0uj0wl3MMK7wYhC0QuKFaWUMmW6hnY3KKL/CJ1UmsFvYWmzqV
7EFmH8vH6dGh2fjcCVVFIuYfOBh17OhIgjYo5h9AcRe8LK2Jk2+X2CJFapIF0slB
e9qXm4stjxHXxjb/doYE9W4zRKBT4DWkVRufNjK1iNlv2JlhyXLEh4XYUXFdDxOb
VjEeC15eRxkOnDq7t0wwukHGcLCFfS22b1IM6+8mMsWWSpILeFA83/A8+ju+Puhs
0oPmxca7SApowqC82eergfQSd3erf0+kqdwzNIduyzNSz2hMbBWoIdIBMC2KQXkV
REfoQqCD9fe/UrIhewfko+/eYfDw9uvYWv3VZql0AZSmNyOlQ4eInduwPCUjJPzk
ZoRCjdvxvk06PgYzq6wN26NiixsCy9taQLcaDynyIiiahp6FpfuaqYBUCTnDTQjL
mMMaNez5iNJrkxGhTqGVm0mAzg4PuZxT78ANtONcIB54WyYmiPG1O7jvSo+XW2Mx
MU8hLx1CuwJTQZyJ9IlhXOvWYJbMI8XyqYhyfTCShAwfRffwk4wlej+H
-----END CERTIFICATE-----
