Certificate:
    Data:
        Version: 3 (0x2)
        Serial Number: 26 (0x1a)
    Signature Algorithm: sha1WithRSAEncryption
        Issuer: C=US, ST=CA, L=SanFrancisco, O=Pixglo, Inc., OU=VPN-CIE, CN=tunnel.pixglo.com/name=Bala Chandrasekaran/emailAddress=bala@pixglo.com
        Validity
            Not Before: Feb 14 06:24:29 2018 GMT
            Not After : Feb 12 06:24:29 2028 GMT
        Subject: C=US, ST=CA, L=SanFrancisco, O=Pixglo, Inc., OU=VPN-CIE, CN=cie25/name=Bala Chandrasekaran/emailAddress=bala@pixglo.com
        Subject Public Key Info:
            Public Key Algorithm: rsaEncryption
                Public-Key: (4096 bit)
                Modulus:
                    00:d7:97:bc:d7:2c:dd:00:b0:0a:d0:24:c0:c8:2b:
                    e7:d7:a9:58:68:43:ea:7b:d6:52:89:52:bf:ac:a6:
                    f9:c3:3f:c1:ad:fb:3d:24:63:57:c9:c8:10:5a:81:
                    07:5e:1e:02:d5:83:89:9e:f4:de:25:8f:74:f8:11:
                    30:b8:75:1b:f0:ee:b5:3b:6e:53:9b:e5:5c:e9:d5:
                    b5:8e:52:98:a8:d0:19:30:b5:46:8f:45:b3:3c:2f:
                    ed:af:7e:ef:53:9f:b1:dc:89:0c:a7:6e:06:77:13:
                    d1:a0:5d:80:55:11:b6:e8:fa:6b:c4:a8:84:c0:5a:
                    19:5f:a7:e1:6c:8a:df:f0:8f:ba:d0:c2:cb:bd:a1:
                    41:e7:9b:99:c7:c3:c4:9b:2a:ab:80:78:d0:85:7b:
                    56:a0:ef:5e:75:09:57:cc:1e:d6:90:72:10:77:4f:
                    46:89:d1:b3:d3:e9:49:7d:e2:8b:20:60:86:bd:54:
                    bf:ba:f2:1a:ae:b7:c9:c7:2f:c0:a8:81:a3:ec:3f:
                    1e:0c:d1:a3:9c:7a:0e:df:9b:15:f0:9e:8a:ce:02:
                    69:23:82:8d:44:58:f0:4b:5e:69:a5:15:d7:64:4b:
                    e1:36:ec:3b:59:e6:d3:c1:20:d3:7c:e4:21:5b:ab:
                    ce:15:a0:76:72:cc:3d:1b:e0:52:54:cf:b3:55:1d:
                    62:6d:b6:63:43:eb:a9:6d:bf:91:77:bc:f2:0b:87:
                    6d:c1:05:60:c8:8b:56:e9:3e:d2:e2:da:18:57:87:
                    26:17:f3:01:3e:46:fd:07:fb:e0:d2:90:06:19:ac:
                    85:d3:88:15:19:02:30:da:78:af:e3:35:2a:da:5e:
                    ba:8d:87:b1:c8:7a:a1:7b:57:86:93:9c:98:2c:2d:
                    26:35:e5:8d:d1:5d:47:13:58:bf:ce:fa:1a:45:72:
                    ca:32:e1:12:87:d9:37:d1:9b:b3:32:8b:0a:0a:88:
                    79:5f:5e:59:ea:da:ec:f9:fe:3f:8e:89:d8:c9:e3:
                    6e:da:5b:fd:30:ff:cc:65:ff:70:90:df:13:16:5f:
                    e4:3f:cb:58:58:8e:be:c4:97:b0:28:5c:6b:b9:1a:
                    5d:dc:78:cc:b6:66:0a:36:e8:a9:6e:70:55:94:2e:
                    5c:dd:2d:db:f8:71:03:40:b4:dd:42:f7:a3:4b:cd:
                    63:61:ae:5f:cf:d9:3c:89:54:ec:5e:1e:a3:cf:ea:
                    46:ff:b0:bd:39:fe:53:c8:59:5c:46:02:cf:4b:4e:
                    34:f0:84:3b:4c:c4:0b:30:2e:5b:7c:42:ed:87:c8:
                    ff:30:63:5d:b5:e3:55:cb:78:fb:9b:85:53:16:a6:
                    c9:7b:0a:ea:4b:68:5d:1a:c4:fe:f8:2d:f1:09:d8:
                    9e:56:95
                Exponent: 65537 (0x10001)
        X509v3 extensions:
            X509v3 Basic Constraints: 
                CA:FALSE
            Netscape Comment: 
                Easy-RSA Generated Certificate
            X509v3 Subject Key Identifier: 
                B3:B8:15:0A:39:C2:79:E6:C1:2A:53:55:78:A8:7D:51:61:19:50:3B
            X509v3 Authority Key Identifier: 
                keyid:EF:38:8D:14:50:58:A7:5B:4D:9C:17:72:FC:DF:B9:AC:A7:51:B0:10
                DirName:/C=US/ST=CA/L=SanFrancisco/O=Pixglo, Inc./OU=VPN-CIE/CN=tunnel.pixglo.com/name=Bala Chandrasekaran/emailAddress=bala@pixglo.com
                serial:A6:DB:C6:83:80:E6:A0:79

            X509v3 Extended Key Usage: 
                TLS Web Client Authentication
            X509v3 Key Usage: 
                Digital Signature
    Signature Algorithm: sha1WithRSAEncryption
         60:0d:34:4c:86:24:3c:f0:bd:d2:24:9d:fe:84:1e:2a:09:69:
         89:ae:2d:49:c1:46:b1:b1:7c:dd:1c:cc:6b:42:5a:cc:98:42:
         c1:2d:ae:11:0a:a1:5f:f8:b5:b5:03:a2:ad:b4:47:74:19:b6:
         bf:a9:d1:b3:ff:85:6d:00:24:8f:54:f4:8a:1d:b8:14:8f:b3:
         8c:a2:20:5a:68:da:6d:a5:73:b6:a1:6e:08:20:c7:43:50:d7:
         f8:59:02:d6:f8:f8:8c:46:63:98:a7:24:a6:8b:2e:21:ca:e9:
         01:e7:c9:0e:eb:d1:cf:6a:0d:ab:16:0d:9d:a0:50:25:e3:7a:
         1a:bc:34:21:cf:98:8a:9e:3f:9d:6c:0f:da:f7:1b:17:eb:c4:
         f6:ef:f2:9c:55:7e:2b:9b:dc:85:e0:89:40:c3:64:66:2b:9c:
         7a:47:73:76:27:8c:f0:ca:22:c6:bb:36:3c:88:54:c7:5f:3d:
         26:1c:ca:36:cc:3d:2b:29:46:77:dd:6d:46:98:39:20:ce:3f:
         33:f9:91:cc:45:b2:29:e4:a3:60:4c:52:a9:d0:91:5e:f6:71:
         c3:f6:39:13:6d:de:4d:b2:20:18:1b:a1:2b:9d:97:45:53:a8:
         27:2d:ca:f1:a3:5b:fb:2e:1c:76:e6:70:54:1b:6b:60:98:3d:
         92:b7:2c:6c:48:73:6a:c7:27:12:67:04:66:a1:21:e6:0d:80:
         f6:a6:e5:01:1b:f6:4f:f8:b7:d9:a7:4b:4e:a1:14:5d:30:b8:
         4b:b4:94:52:88:a8:c2:81:82:8e:df:4d:22:b0:af:59:18:7c:
         ba:9e:32:be:d8:74:40:b8:ae:cf:cf:a9:a1:ab:fe:93:4f:20:
         5b:fb:1c:33:c3:0f:5c:8d:21:54:36:d3:c7:26:06:a3:9d:fc:
         d3:08:de:06:9b:f4:d6:20:9c:b7:b0:18:36:26:c9:ab:50:07:
         70:15:e4:4a:15:bf:29:76:2b:56:03:96:c8:4a:dd:cd:34:a2:
         29:74:8a:57:84:54:8e:6b:21:68:43:2d:37:52:0f:f7:84:3e:
         c7:c5:30:58:b1:df:18:db:4b:88:65:66:d2:4f:14:c6:75:01:
         e9:0e:19:50:40:af:9c:5d:f1:5b:aa:4e:11:7e:21:f1:62:33:
         73:28:67:39:df:d1:7f:9f:ac:93:f1:45:ec:48:2d:6d:5e:c0:
         0b:ce:2f:51:e8:fd:72:5c:6e:cf:67:58:ec:b7:fb:e2:e8:29:
         d4:26:02:f5:5b:87:d2:08:61:8c:4f:7f:8e:14:72:d5:9f:fd:
         1a:77:96:0a:bd:f0:66:08:1f:e5:07:1d:00:cc:c7:3b:0f:63:
         c8:0a:a1:5a:0d:b9:0b:db
-----BEGIN CERTIFICATE-----
MIIHRjCCBS6gAwIBAgIBGjANBgkqhkiG9w0BAQUFADCBtDELMAkGA1UEBhMCVVMx
CzAJBgNVBAgTAkNBMRUwEwYDVQQHEwxTYW5GcmFuY2lzY28xFTATBgNVBAoTDFBp
eGdsbywgSW5jLjEQMA4GA1UECxMHVlBOLUNJRTEaMBgGA1UEAxMRdHVubmVsLnBp
eGdsby5jb20xHDAaBgNVBCkTE0JhbGEgQ2hhbmRyYXNla2FyYW4xHjAcBgkqhkiG
9w0BCQEWD2JhbGFAcGl4Z2xvLmNvbTAeFw0xODAyMTQwNjI0MjlaFw0yODAyMTIw
NjI0MjlaMIGoMQswCQYDVQQGEwJVUzELMAkGA1UECBMCQ0ExFTATBgNVBAcTDFNh
bkZyYW5jaXNjbzEVMBMGA1UEChMMUGl4Z2xvLCBJbmMuMRAwDgYDVQQLEwdWUE4t
Q0lFMQ4wDAYDVQQDEwVjaWUyNTEcMBoGA1UEKRMTQmFsYSBDaGFuZHJhc2VrYXJh
bjEeMBwGCSqGSIb3DQEJARYPYmFsYUBwaXhnbG8uY29tMIICIjANBgkqhkiG9w0B
AQEFAAOCAg8AMIICCgKCAgEA15e81yzdALAK0CTAyCvn16lYaEPqe9ZSiVK/rKb5
wz/Brfs9JGNXycgQWoEHXh4C1YOJnvTeJY90+BEwuHUb8O61O25Tm+Vc6dW1jlKY
qNAZMLVGj0WzPC/tr37vU5+x3IkMp24GdxPRoF2AVRG26PprxKiEwFoZX6fhbIrf
8I+60MLLvaFB55uZx8PEmyqrgHjQhXtWoO9edQlXzB7WkHIQd09GidGz0+lJfeKL
IGCGvVS/uvIarrfJxy/AqIGj7D8eDNGjnHoO35sV8J6KzgJpI4KNRFjwS15ppRXX
ZEvhNuw7WebTwSDTfOQhW6vOFaB2csw9G+BSVM+zVR1ibbZjQ+upbb+Rd7zyC4dt
wQVgyItW6T7S4toYV4cmF/MBPkb9B/vg0pAGGayF04gVGQIw2niv4zUq2l66jYex
yHqhe1eGk5yYLC0mNeWN0V1HE1i/zvoaRXLKMuESh9k30ZuzMosKCoh5X15Z6trs
+f4/jonYyeNu2lv9MP/MZf9wkN8TFl/kP8tYWI6+xJewKFxruRpd3HjMtmYKNuip
bnBVlC5c3S3b+HEDQLTdQvejS81jYa5fz9k8iVTsXh6jz+pG/7C9Of5TyFlcRgLP
S0408IQ7TMQLMC5bfELth8j/MGNdteNVy3j7m4VTFqbJewrqS2hdGsT++C3xCdie
VpUCAwEAAaOCAWswggFnMAkGA1UdEwQCMAAwLQYJYIZIAYb4QgENBCAWHkVhc3kt
UlNBIEdlbmVyYXRlZCBDZXJ0aWZpY2F0ZTAdBgNVHQ4EFgQUs7gVCjnCeebBKlNV
eKh9UWEZUDswgekGA1UdIwSB4TCB3oAU7ziNFFBYp1tNnBdy/N+5rKdRsBChgbqk
gbcwgbQxCzAJBgNVBAYTAlVTMQswCQYDVQQIEwJDQTEVMBMGA1UEBxMMU2FuRnJh
bmNpc2NvMRUwEwYDVQQKEwxQaXhnbG8sIEluYy4xEDAOBgNVBAsTB1ZQTi1DSUUx
GjAYBgNVBAMTEXR1bm5lbC5waXhnbG8uY29tMRwwGgYDVQQpExNCYWxhIENoYW5k
cmFzZWthcmFuMR4wHAYJKoZIhvcNAQkBFg9iYWxhQHBpeGdsby5jb22CCQCm28aD
gOageTATBgNVHSUEDDAKBggrBgEFBQcDAjALBgNVHQ8EBAMCB4AwDQYJKoZIhvcN
AQEFBQADggIBAGANNEyGJDzwvdIknf6EHioJaYmuLUnBRrGxfN0czGtCWsyYQsEt
rhEKoV/4tbUDoq20R3QZtr+p0bP/hW0AJI9U9IoduBSPs4yiIFpo2m2lc7ahbggg
x0NQ1/hZAtb4+IxGY5inJKaLLiHK6QHnyQ7r0c9qDasWDZ2gUCXjehq8NCHPmIqe
P51sD9r3GxfrxPbv8pxVfiub3IXgiUDDZGYrnHpHc3YnjPDKIsa7NjyIVMdfPSYc
yjbMPSspRnfdbUaYOSDOPzP5kcxFsinko2BMUqnQkV72ccP2ORNt3k2yIBgboSud
l0VTqCctyvGjW/suHHbmcFQba2CYPZK3LGxIc2rHJxJnBGahIeYNgPam5QEb9k/4
t9mnS06hFF0wuEu0lFKIqMKBgo7fTSKwr1kYfLqeMr7YdEC4rs/PqaGr/pNPIFv7
HDPDD1yNIVQ208cmBqOd/NMI3gab9NYgnLewGDYmyatQB3AV5EoVvyl2K1YDlshK
3c00oil0ileEVI5rIWhDLTdSD/eEPsfFMFix3xjbS4hlZtJPFMZ1AekOGVBAr5xd
8VuqThF+IfFiM3MoZznf0X+frJPxRexILW1ewAvOL1Ho/XJcbs9nWOy3++LoKdQm
AvVbh9IIYYxPf44UctWf/Rp3lgq98GYIH+UHHQDMxzsPY8gKoVoNuQvb
-----END CERTIFICATE-----
