Certificate:
    Data:
        Version: 3 (0x2)
        Serial Number: 29 (0x1d)
    Signature Algorithm: sha1WithRSAEncryption
        Issuer: C=US, ST=CA, L=SanFrancisco, O=Pixglo, Inc., OU=VPN-CIE, CN=tunnel.pixglo.com/name=Bala Chandrasekaran/emailAddress=bala@pixglo.com
        Validity
            Not Before: Feb 14 06:24:31 2018 GMT
            Not After : Feb 12 06:24:31 2028 GMT
        Subject: C=US, ST=CA, L=SanFrancisco, O=Pixglo, Inc., OU=VPN-CIE, CN=cie28/name=Bala Chandrasekaran/emailAddress=bala@pixglo.com
        Subject Public Key Info:
            Public Key Algorithm: rsaEncryption
                Public-Key: (4096 bit)
                Modulus:
                    00:bc:7f:c8:20:45:c7:aa:96:0f:36:95:6e:59:38:
                    0e:35:bc:9f:87:24:4b:5d:27:e2:c6:7f:20:b1:3c:
                    a6:27:e4:4e:8e:a5:6e:30:2e:13:15:fc:0a:ee:c5:
                    f4:72:95:3b:de:74:bf:7f:18:be:17:bf:c4:53:4b:
                    37:c4:6b:24:82:d2:53:ca:d3:ad:cf:22:37:79:59:
                    7c:11:67:ec:7f:2c:69:54:43:1b:ca:4c:0c:1f:10:
                    17:60:98:df:9f:c8:7b:67:42:35:8f:96:f1:ff:6f:
                    ff:a7:44:26:fe:41:35:a2:28:d9:79:50:37:b5:05:
                    9b:65:ad:a3:3d:d0:18:08:48:5c:70:fe:fa:2d:09:
                    ff:32:f7:da:1b:55:d0:72:c5:15:5b:ee:2b:5a:e2:
                    1f:11:0c:84:d4:0c:a2:db:5d:f0:0a:0a:1e:e3:e9:
                    18:e4:01:45:e3:f9:2b:4f:ca:6e:b9:be:f5:80:86:
                    b5:10:28:4c:45:df:34:a5:a9:d6:01:f9:8e:c7:31:
                    a7:c4:67:d8:f0:27:d8:2b:04:76:6d:d7:b7:94:5a:
                    ce:d2:42:ef:82:70:8b:91:f6:76:65:19:c2:2b:33:
                    d0:fd:9e:8c:8b:da:e6:43:15:1d:16:0d:8d:fa:db:
                    d3:29:97:fc:4f:58:02:be:0b:0c:0d:8d:aa:93:13:
                    b3:70:0e:a4:c1:74:38:81:c5:ae:06:a7:f0:33:47:
                    3b:c2:e8:42:ff:3d:06:ad:e2:6d:e6:cb:85:0b:4b:
                    03:02:da:8d:1c:af:9c:eb:19:3e:78:f8:85:53:25:
                    59:f1:bc:ee:0d:bb:1c:d4:d9:c0:e0:d8:54:05:42:
                    10:e6:32:77:cd:3a:9b:6b:21:82:35:6f:2b:c8:8f:
                    03:16:da:60:28:50:22:55:d9:7e:a1:fa:9c:03:9b:
                    2b:fa:4b:0c:35:8e:32:d9:09:16:30:f1:9a:c1:75:
                    4e:3b:92:aa:9a:52:39:bd:28:d1:1a:3f:d7:4f:dc:
                    42:ac:5e:b5:fe:7a:8b:e8:db:ba:8c:1c:8f:77:ab:
                    e2:f5:aa:5a:b8:56:b3:4e:c7:e5:43:76:95:e5:cb:
                    9a:a8:f9:bd:91:2c:da:d2:1a:c8:70:a1:42:f7:36:
                    4b:85:66:ab:3c:05:99:9e:16:e4:4f:9b:ef:62:27:
                    bd:4a:61:d2:d8:25:09:4e:cf:50:1c:31:e4:92:7a:
                    5b:ec:9c:cc:ee:63:8b:ca:c2:ee:32:9f:51:78:01:
                    4b:21:f0:3d:1b:90:ac:db:13:bc:4f:68:26:de:71:
                    a4:c6:e2:ce:66:ef:90:67:85:e5:2a:94:cf:2a:cd:
                    10:db:e0:31:05:c9:ea:9a:0a:14:ce:1e:93:ca:7b:
                    c6:9f:9f
                Exponent: 65537 (0x10001)
        X509v3 extensions:
            X509v3 Basic Constraints: 
                CA:FALSE
            Netscape Comment: 
                Easy-RSA Generated Certificate
            X509v3 Subject Key Identifier: 
                40:C2:8D:91:A2:5E:B7:3D:55:59:5D:FD:1A:60:D9:C0:44:91:65:5E
            X509v3 Authority Key Identifier: 
                keyid:EF:38:8D:14:50:58:A7:5B:4D:9C:17:72:FC:DF:B9:AC:A7:51:B0:10
                DirName:/C=US/ST=CA/L=SanFrancisco/O=Pixglo, Inc./OU=VPN-CIE/CN=tunnel.pixglo.com/name=Bala Chandrasekaran/emailAddress=bala@pixglo.com
                serial:A6:DB:C6:83:80:E6:A0:79

            X509v3 Extended Key Usage: 
                TLS Web Client Authentication
            X509v3 Key Usage: 
                Digital Signature
    Signature Algorithm: sha1WithRSAEncryption
         cb:bb:d0:9c:72:c2:65:00:15:5d:cc:8d:38:98:64:02:1e:4d:
         63:f8:a6:1e:3f:2c:7f:19:1e:ee:8a:4e:94:ac:cb:fc:c3:91:
         6d:30:d4:71:5b:33:8d:1e:9d:6a:b5:0f:49:62:67:df:39:48:
         25:10:9e:5c:2d:42:59:aa:71:a2:4b:16:29:3d:8f:54:26:3f:
         d1:99:30:aa:a1:f0:99:5d:c6:8d:16:db:61:52:92:9a:2d:7f:
         b6:a2:f4:99:d7:8e:72:36:78:e1:e7:15:bd:cd:90:0b:bf:c8:
         da:77:44:6f:0d:57:62:e0:30:59:aa:1e:d1:85:6a:2f:20:1a:
         62:b3:ca:9a:c3:14:7f:ce:62:ec:dd:b5:5e:4a:36:94:d7:f6:
         b8:c6:bc:b3:4f:1c:6c:71:4d:87:92:b6:e4:4d:85:72:5c:55:
         db:79:15:b3:4d:de:21:50:1e:b1:2e:6d:ac:9f:1a:f2:3d:f0:
         27:72:5b:bd:09:28:29:a4:42:8a:77:30:c4:f6:d2:88:05:d3:
         7c:9a:a2:8a:e4:f7:b0:c6:52:a9:b7:5c:95:39:fc:5c:0c:aa:
         03:36:e0:f0:c7:99:4d:70:72:ef:4a:9b:f3:50:8e:d0:58:80:
         79:ea:e4:c2:b0:38:6c:26:88:7f:26:70:bf:56:a6:8b:98:40:
         50:4c:e8:82:0c:94:dd:cc:b4:53:14:82:14:b3:0e:94:22:28:
         fd:ea:22:14:5b:7c:2b:47:03:b0:b4:60:62:17:ba:92:b6:f5:
         fa:90:0b:40:69:51:8f:25:2d:c1:9a:33:83:f6:a9:10:c1:fa:
         e1:fc:13:a5:bb:5c:41:bf:68:b1:f8:53:b7:26:bd:61:68:41:
         62:0b:bd:c0:d3:0d:78:9b:63:66:5c:fc:a5:fd:3a:f8:ca:ff:
         55:f2:55:8d:a7:69:6d:61:ca:6e:c9:be:7d:ab:cd:be:f2:ac:
         7d:4a:b8:ae:00:8b:95:bd:bc:07:e3:32:a4:bf:6a:f2:31:cf:
         d6:36:20:1c:5b:cd:3f:39:1b:86:f6:86:3f:e1:90:ff:ba:cb:
         6f:ba:a5:70:12:2a:f4:bd:d6:97:63:ea:3f:dd:ba:8b:2f:4c:
         42:b1:5e:01:d6:37:ab:4f:e7:0b:35:0c:11:5b:09:4e:e5:b0:
         6b:5c:b1:ef:08:0f:d0:c5:7e:c4:4e:e6:32:5d:1f:20:dc:c8:
         18:69:73:7c:44:af:70:50:ff:6a:1f:be:e1:9a:36:83:f0:d0:
         2d:82:66:fc:67:1d:15:62:90:cb:5e:08:b5:2c:66:2b:62:0f:
         98:36:08:00:0b:13:c7:d5:c2:95:03:2f:bf:c4:b3:57:f1:eb:
         c0:6a:2c:51:f9:86:5d:92
-----BEGIN CERTIFICATE-----
MIIHRjCCBS6gAwIBAgIBHTANBgkqhkiG9w0BAQUFADCBtDELMAkGA1UEBhMCVVMx
CzAJBgNVBAgTAkNBMRUwEwYDVQQHEwxTYW5GcmFuY2lzY28xFTATBgNVBAoTDFBp
eGdsbywgSW5jLjEQMA4GA1UECxMHVlBOLUNJRTEaMBgGA1UEAxMRdHVubmVsLnBp
eGdsby5jb20xHDAaBgNVBCkTE0JhbGEgQ2hhbmRyYXNla2FyYW4xHjAcBgkqhkiG
9w0BCQEWD2JhbGFAcGl4Z2xvLmNvbTAeFw0xODAyMTQwNjI0MzFaFw0yODAyMTIw
NjI0MzFaMIGoMQswCQYDVQQGEwJVUzELMAkGA1UECBMCQ0ExFTATBgNVBAcTDFNh
bkZyYW5jaXNjbzEVMBMGA1UEChMMUGl4Z2xvLCBJbmMuMRAwDgYDVQQLEwdWUE4t
Q0lFMQ4wDAYDVQQDEwVjaWUyODEcMBoGA1UEKRMTQmFsYSBDaGFuZHJhc2VrYXJh
bjEeMBwGCSqGSIb3DQEJARYPYmFsYUBwaXhnbG8uY29tMIICIjANBgkqhkiG9w0B
AQEFAAOCAg8AMIICCgKCAgEAvH/IIEXHqpYPNpVuWTgONbyfhyRLXSfixn8gsTym
J+ROjqVuMC4TFfwK7sX0cpU73nS/fxi+F7/EU0s3xGskgtJTytOtzyI3eVl8EWfs
fyxpVEMbykwMHxAXYJjfn8h7Z0I1j5bx/2//p0Qm/kE1oijZeVA3tQWbZa2jPdAY
CEhccP76LQn/MvfaG1XQcsUVW+4rWuIfEQyE1Ayi213wCgoe4+kY5AFF4/krT8pu
ub71gIa1EChMRd80panWAfmOxzGnxGfY8CfYKwR2bde3lFrO0kLvgnCLkfZ2ZRnC
KzPQ/Z6Mi9rmQxUdFg2N+tvTKZf8T1gCvgsMDY2qkxOzcA6kwXQ4gcWuBqfwM0c7
wuhC/z0GreJt5suFC0sDAtqNHK+c6xk+ePiFUyVZ8bzuDbsc1NnA4NhUBUIQ5jJ3
zTqbayGCNW8ryI8DFtpgKFAiVdl+ofqcA5sr+ksMNY4y2QkWMPGawXVOO5KqmlI5
vSjRGj/XT9xCrF61/nqL6Nu6jByPd6vi9apauFazTsflQ3aV5cuaqPm9kSza0hrI
cKFC9zZLhWarPAWZnhbkT5vvYie9SmHS2CUJTs9QHDHkknpb7JzM7mOLysLuMp9R
eAFLIfA9G5Cs2xO8T2gm3nGkxuLOZu+QZ4XlKpTPKs0Q2+AxBcnqmgoUzh6TynvG
n58CAwEAAaOCAWswggFnMAkGA1UdEwQCMAAwLQYJYIZIAYb4QgENBCAWHkVhc3kt
UlNBIEdlbmVyYXRlZCBDZXJ0aWZpY2F0ZTAdBgNVHQ4EFgQUQMKNkaJetz1VWV39
GmDZwESRZV4wgekGA1UdIwSB4TCB3oAU7ziNFFBYp1tNnBdy/N+5rKdRsBChgbqk
gbcwgbQxCzAJBgNVBAYTAlVTMQswCQYDVQQIEwJDQTEVMBMGA1UEBxMMU2FuRnJh
bmNpc2NvMRUwEwYDVQQKEwxQaXhnbG8sIEluYy4xEDAOBgNVBAsTB1ZQTi1DSUUx
GjAYBgNVBAMTEXR1bm5lbC5waXhnbG8uY29tMRwwGgYDVQQpExNCYWxhIENoYW5k
cmFzZWthcmFuMR4wHAYJKoZIhvcNAQkBFg9iYWxhQHBpeGdsby5jb22CCQCm28aD
gOageTATBgNVHSUEDDAKBggrBgEFBQcDAjALBgNVHQ8EBAMCB4AwDQYJKoZIhvcN
AQEFBQADggIBAMu70JxywmUAFV3MjTiYZAIeTWP4ph4/LH8ZHu6KTpSsy/zDkW0w
1HFbM40enWq1D0liZ985SCUQnlwtQlmqcaJLFik9j1QmP9GZMKqh8Jldxo0W22FS
kpotf7ai9JnXjnI2eOHnFb3NkAu/yNp3RG8NV2LgMFmqHtGFai8gGmKzyprDFH/O
YuzdtV5KNpTX9rjGvLNPHGxxTYeStuRNhXJcVdt5FbNN3iFQHrEubayfGvI98Cdy
W70JKCmkQop3MMT20ogF03yaoork97DGUqm3XJU5/FwMqgM24PDHmU1wcu9Km/NQ
jtBYgHnq5MKwOGwmiH8mcL9WpouYQFBM6IIMlN3MtFMUghSzDpQiKP3qIhRbfCtH
A7C0YGIXupK29fqQC0BpUY8lLcGaM4P2qRDB+uH8E6W7XEG/aLH4U7cmvWFoQWIL
vcDTDXibY2Zc/KX9OvjK/1XyVY2naW1hym7Jvn2rzb7yrH1KuK4Ai5W9vAfjMqS/
avIxz9Y2IBxbzT85G4b2hj/hkP+6y2+6pXASKvS91pdj6j/duosvTEKxXgHWN6tP
5ws1DBFbCU7lsGtcse8ID9DFfsRO5jJdHyDcyBhpc3xEr3BQ/2ofvuGaNoPw0C2C
ZvxnHRVikMteCLUsZitiD5g2CAALE8fVwpUDL7/Es1fx68BqLFH5hl2S
-----END CERTIFICATE-----
