Certificate:
    Data:
        Version: 3 (0x2)
        Serial Number: 31 (0x1f)
    Signature Algorithm: sha1WithRSAEncryption
        Issuer: C=US, ST=CA, L=SanFrancisco, O=Pixglo, Inc., OU=VPN-CIE, CN=tunnel.pixglo.com/name=Bala Chandrasekaran/emailAddress=bala@pixglo.com
        Validity
            Not Before: Feb 14 06:24:32 2018 GMT
            Not After : Feb 12 06:24:32 2028 GMT
        Subject: C=US, ST=CA, L=SanFrancisco, O=Pixglo, Inc., OU=VPN-CIE, CN=cie30/name=Bala Chandrasekaran/emailAddress=bala@pixglo.com
        Subject Public Key Info:
            Public Key Algorithm: rsaEncryption
                Public-Key: (4096 bit)
                Modulus:
                    00:cf:a1:45:00:96:75:00:44:c7:ed:80:2c:ba:0c:
                    b2:e9:2c:32:0e:6e:dd:7c:3f:f5:93:5b:f2:88:0a:
                    cf:7a:95:b2:c4:31:f1:c1:17:ae:b0:7f:87:d1:c9:
                    41:3b:b2:02:c9:9d:88:d1:ce:d8:be:f9:e4:b4:b4:
                    59:15:8e:d3:60:98:9a:35:a3:38:f8:9c:1f:f9:95:
                    30:2e:4c:9b:d9:72:fc:e8:fe:95:9e:9d:19:be:e7:
                    01:cf:79:f0:12:d4:35:3c:f9:e7:84:39:11:2c:5a:
                    df:4a:c9:0c:42:a0:bb:c2:7d:5e:0a:62:95:c9:b4:
                    79:10:5e:4d:6e:9e:c1:3a:f2:02:fd:05:b5:5f:ef:
                    a4:6a:fe:7a:a6:25:83:76:b6:74:45:0e:a1:be:73:
                    ff:b8:b2:39:15:0f:fa:c9:b5:0b:8c:fc:a5:07:b8:
                    96:74:54:53:21:8d:27:f3:7e:30:ff:aa:38:ab:b0:
                    55:cc:29:64:99:99:38:96:e5:90:c8:fb:2d:36:f5:
                    32:bc:4a:9f:56:38:bc:e1:13:09:6c:64:dc:95:ba:
                    53:1d:39:46:2f:52:f1:5d:76:c7:04:34:a3:04:23:
                    ff:6c:93:06:1d:39:53:42:58:f4:47:ce:8a:d2:bb:
                    4f:12:40:01:84:83:3e:ce:af:26:a4:9b:08:d8:36:
                    8e:a5:94:96:29:a9:d8:e8:33:3e:63:d4:48:d3:a3:
                    41:b9:8a:26:22:d7:25:bc:7b:64:d6:12:17:f3:a7:
                    16:d4:df:b6:4f:9d:74:a8:91:f0:dd:d9:cb:48:4d:
                    66:24:97:c0:a7:ce:15:ee:fa:53:ee:1e:3d:37:cf:
                    44:a0:2b:71:b6:59:66:48:a7:26:7f:11:19:5b:93:
                    0f:85:0b:b4:e9:11:73:6b:28:02:53:6a:f4:97:50:
                    ef:4b:28:4a:43:e6:53:1d:a2:68:77:72:6d:c6:95:
                    34:d8:22:ab:91:a2:06:b3:7d:cd:42:f0:d2:1b:23:
                    84:f7:bb:88:07:71:5d:12:da:75:56:d0:1d:62:10:
                    c0:76:8e:6c:94:a4:7e:db:5e:e6:3d:91:df:f4:2b:
                    39:5a:b0:a8:9f:80:c1:57:73:9d:73:ba:20:53:e8:
                    2e:f7:7c:2e:51:ac:74:e5:0b:e3:9a:47:9e:f9:82:
                    12:48:f6:8c:f0:79:15:4c:97:45:19:91:a0:19:c2:
                    26:f2:63:d4:16:83:51:3f:13:e2:df:2c:be:59:05:
                    cd:b2:4f:83:56:ee:a4:d6:6d:06:ee:21:01:cd:ee:
                    d0:e6:a3:69:cb:45:0d:88:dd:1b:62:a7:0f:23:c7:
                    fb:f5:28:1c:24:00:d2:62:ea:a8:75:84:45:ab:58:
                    0d:5b:81
                Exponent: 65537 (0x10001)
        X509v3 extensions:
            X509v3 Basic Constraints: 
                CA:FALSE
            Netscape Comment: 
                Easy-RSA Generated Certificate
            X509v3 Subject Key Identifier: 
                F5:BB:02:38:6E:23:5A:D3:38:40:4B:09:C2:32:7E:34:98:43:C4:4F
            X509v3 Authority Key Identifier: 
                keyid:EF:38:8D:14:50:58:A7:5B:4D:9C:17:72:FC:DF:B9:AC:A7:51:B0:10
                DirName:/C=US/ST=CA/L=SanFrancisco/O=Pixglo, Inc./OU=VPN-CIE/CN=tunnel.pixglo.com/name=Bala Chandrasekaran/emailAddress=bala@pixglo.com
                serial:A6:DB:C6:83:80:E6:A0:79

            X509v3 Extended Key Usage: 
                TLS Web Client Authentication
            X509v3 Key Usage: 
                Digital Signature
    Signature Algorithm: sha1WithRSAEncryption
         96:bb:93:fe:33:ae:61:d8:87:da:d1:e6:38:86:8e:05:25:ba:
         8b:ae:6b:9f:ed:f3:93:04:41:88:a8:81:17:6c:13:9c:ba:2d:
         f0:31:df:09:f8:90:59:88:42:d3:d9:9c:7e:56:08:17:93:6c:
         b8:4d:d0:cb:c6:54:0d:ed:c9:a0:12:00:94:47:e0:05:37:a2:
         00:9b:d1:bb:2b:4d:47:b5:c6:e7:8f:31:69:a8:cd:7e:89:3f:
         f7:40:fc:6c:79:b9:a5:d2:7f:91:a0:16:77:d3:fc:16:0e:24:
         1d:f3:19:a5:c2:91:15:4c:74:36:46:98:1a:15:41:d9:11:c9:
         37:4b:84:6c:93:25:16:78:e7:23:0d:93:ae:9f:3e:70:7a:92:
         e1:42:bc:21:ff:0b:e0:6e:f6:34:dd:80:eb:d4:0a:cd:c1:eb:
         af:4f:ae:2e:1e:9c:c9:cc:bd:d1:72:34:38:11:d9:15:c9:bc:
         b4:9a:b2:fd:48:ea:f4:a7:56:fe:5d:e5:6b:26:41:b9:6f:66:
         c6:91:2c:6e:6b:9d:32:5c:98:a1:0f:37:d7:b9:2a:c4:1c:97:
         38:a5:ae:eb:c1:77:31:13:a9:94:d4:64:39:02:6c:0f:83:fe:
         74:b5:f1:57:ef:e4:23:8c:c2:4c:90:20:0f:52:70:52:cc:60:
         e7:00:db:c3:9f:8a:74:74:b0:7b:49:6e:c6:f6:36:d5:94:33:
         17:2d:ab:35:8a:31:06:71:00:af:88:5f:c0:a5:0a:b3:74:1f:
         4d:be:d9:2d:0a:eb:b4:2b:8f:3c:2c:ba:fd:43:a0:5c:b3:30:
         ac:b5:cf:8e:f0:55:21:19:35:8c:d2:30:b6:bf:7a:f2:1e:8e:
         24:b9:f7:a1:98:36:00:6b:e7:21:cc:9e:39:e7:c2:cd:67:66:
         38:b7:c7:35:54:1b:93:11:33:c7:72:63:23:2f:87:7e:bd:7b:
         e3:7d:4d:f5:b2:e2:3f:58:89:76:b9:6d:05:c7:f1:8d:3f:d1:
         cf:7c:3b:9e:4d:d8:68:4a:86:26:d5:35:bb:ff:c1:20:43:c7:
         9b:71:c0:07:97:c1:a8:8d:42:5f:f8:ee:fc:ca:06:7d:d5:63:
         e9:09:49:9a:80:df:9c:60:c2:c9:ee:0a:29:21:58:8c:a3:56:
         d6:d5:47:af:92:58:27:ba:2e:e4:ec:92:a4:5d:72:cd:c0:0d:
         70:62:d8:d5:d4:15:15:74:5e:78:4a:50:c0:d8:ea:c5:0c:ed:
         76:a4:7d:46:b9:87:29:d3:06:b3:79:85:73:60:e0:bb:4b:45:
         74:59:af:d8:af:2c:c1:da:12:4f:1a:83:dc:a8:27:41:60:59:
         99:f4:ea:30:fa:61:8e:8c
-----BEGIN CERTIFICATE-----
MIIHRjCCBS6gAwIBAgIBHzANBgkqhkiG9w0BAQUFADCBtDELMAkGA1UEBhMCVVMx
CzAJBgNVBAgTAkNBMRUwEwYDVQQHEwxTYW5GcmFuY2lzY28xFTATBgNVBAoTDFBp
eGdsbywgSW5jLjEQMA4GA1UECxMHVlBOLUNJRTEaMBgGA1UEAxMRdHVubmVsLnBp
eGdsby5jb20xHDAaBgNVBCkTE0JhbGEgQ2hhbmRyYXNla2FyYW4xHjAcBgkqhkiG
9w0BCQEWD2JhbGFAcGl4Z2xvLmNvbTAeFw0xODAyMTQwNjI0MzJaFw0yODAyMTIw
NjI0MzJaMIGoMQswCQYDVQQGEwJVUzELMAkGA1UECBMCQ0ExFTATBgNVBAcTDFNh
bkZyYW5jaXNjbzEVMBMGA1UEChMMUGl4Z2xvLCBJbmMuMRAwDgYDVQQLEwdWUE4t
Q0lFMQ4wDAYDVQQDEwVjaWUzMDEcMBoGA1UEKRMTQmFsYSBDaGFuZHJhc2VrYXJh
bjEeMBwGCSqGSIb3DQEJARYPYmFsYUBwaXhnbG8uY29tMIICIjANBgkqhkiG9w0B
AQEFAAOCAg8AMIICCgKCAgEAz6FFAJZ1AETH7YAsugyy6SwyDm7dfD/1k1vyiArP
epWyxDHxwReusH+H0clBO7ICyZ2I0c7YvvnktLRZFY7TYJiaNaM4+Jwf+ZUwLkyb
2XL86P6Vnp0ZvucBz3nwEtQ1PPnnhDkRLFrfSskMQqC7wn1eCmKVybR5EF5Nbp7B
OvIC/QW1X++kav56piWDdrZ0RQ6hvnP/uLI5FQ/6ybULjPylB7iWdFRTIY0n834w
/6o4q7BVzClkmZk4luWQyPstNvUyvEqfVji84RMJbGTclbpTHTlGL1LxXXbHBDSj
BCP/bJMGHTlTQlj0R86K0rtPEkABhIM+zq8mpJsI2DaOpZSWKanY6DM+Y9RI06NB
uYomItclvHtk1hIX86cW1N+2T510qJHw3dnLSE1mJJfAp84V7vpT7h49N89EoCtx
tllmSKcmfxEZW5MPhQu06RFzaygCU2r0l1DvSyhKQ+ZTHaJod3JtxpU02CKrkaIG
s33NQvDSGyOE97uIB3FdEtp1VtAdYhDAdo5slKR+217mPZHf9Cs5WrCon4DBV3Od
c7ogU+gu93wuUax05Qvjmkee+YISSPaM8HkVTJdFGZGgGcIm8mPUFoNRPxPi3yy+
WQXNsk+DVu6k1m0G7iEBze7Q5qNpy0UNiN0bYqcPI8f79SgcJADSYuqodYRFq1gN
W4ECAwEAAaOCAWswggFnMAkGA1UdEwQCMAAwLQYJYIZIAYb4QgENBCAWHkVhc3kt
UlNBIEdlbmVyYXRlZCBDZXJ0aWZpY2F0ZTAdBgNVHQ4EFgQU9bsCOG4jWtM4QEsJ
wjJ+NJhDxE8wgekGA1UdIwSB4TCB3oAU7ziNFFBYp1tNnBdy/N+5rKdRsBChgbqk
gbcwgbQxCzAJBgNVBAYTAlVTMQswCQYDVQQIEwJDQTEVMBMGA1UEBxMMU2FuRnJh
bmNpc2NvMRUwEwYDVQQKEwxQaXhnbG8sIEluYy4xEDAOBgNVBAsTB1ZQTi1DSUUx
GjAYBgNVBAMTEXR1bm5lbC5waXhnbG8uY29tMRwwGgYDVQQpExNCYWxhIENoYW5k
cmFzZWthcmFuMR4wHAYJKoZIhvcNAQkBFg9iYWxhQHBpeGdsby5jb22CCQCm28aD
gOageTATBgNVHSUEDDAKBggrBgEFBQcDAjALBgNVHQ8EBAMCB4AwDQYJKoZIhvcN
AQEFBQADggIBAJa7k/4zrmHYh9rR5jiGjgUluouua5/t85MEQYiogRdsE5y6LfAx
3wn4kFmIQtPZnH5WCBeTbLhN0MvGVA3tyaASAJRH4AU3ogCb0bsrTUe1xuePMWmo
zX6JP/dA/Gx5uaXSf5GgFnfT/BYOJB3zGaXCkRVMdDZGmBoVQdkRyTdLhGyTJRZ4
5yMNk66fPnB6kuFCvCH/C+Bu9jTdgOvUCs3B669Pri4enMnMvdFyNDgR2RXJvLSa
sv1I6vSnVv5d5WsmQblvZsaRLG5rnTJcmKEPN9e5KsQclzilruvBdzETqZTUZDkC
bA+D/nS18Vfv5COMwkyQIA9ScFLMYOcA28OfinR0sHtJbsb2NtWUMxctqzWKMQZx
AK+IX8ClCrN0H02+2S0K67Qrjzwsuv1DoFyzMKy1z47wVSEZNYzSMLa/evIejiS5
96GYNgBr5yHMnjnnws1nZji3xzVUG5MRM8dyYyMvh369e+N9TfWy4j9YiXa5bQXH
8Y0/0c98O55N2GhKhibVNbv/wSBDx5txwAeXwaiNQl/47vzKBn3VY+kJSZqA35xg
wsnuCikhWIyjVtbVR6+SWCe6LuTskqRdcs3ADXBi2NXUFRV0XnhKUMDY6sUM7Xak
fUa5hynTBrN5hXNg4LtLRXRZr9ivLMHaEk8ag9yoJ0FgWZn06jD6YY6M
-----END CERTIFICATE-----
