Certificate:
    Data:
        Version: 3 (0x2)
        Serial Number: 34 (0x22)
    Signature Algorithm: sha1WithRSAEncryption
        Issuer: C=US, ST=CA, L=SanFrancisco, O=Pixglo, Inc., OU=VPN-CIE, CN=tunnel.pixglo.com/name=Bala Chandrasekaran/emailAddress=bala@pixglo.com
        Validity
            Not Before: Feb 14 06:24:34 2018 GMT
            Not After : Feb 12 06:24:34 2028 GMT
        Subject: C=US, ST=CA, L=SanFrancisco, O=Pixglo, Inc., OU=VPN-CIE, CN=cie33/name=Bala Chandrasekaran/emailAddress=bala@pixglo.com
        Subject Public Key Info:
            Public Key Algorithm: rsaEncryption
                Public-Key: (4096 bit)
                Modulus:
                    00:bf:2e:24:25:8e:18:e6:73:44:a6:a4:91:25:a5:
                    eb:a5:fe:17:d4:d9:9f:d4:44:39:95:d1:15:be:83:
                    11:0c:8a:d4:09:01:b1:94:d9:05:7e:f8:36:d0:7f:
                    86:dc:56:63:e6:35:8d:3d:b0:ee:77:f5:9f:4f:bf:
                    00:b0:51:39:0c:06:51:da:9f:8c:fa:64:1b:8b:c6:
                    78:87:e2:23:75:f6:f7:8e:94:c0:da:14:5d:f6:cf:
                    3f:d9:69:99:18:a1:0f:de:12:8c:ac:ab:a4:43:36:
                    19:8f:9d:fe:22:2f:f6:f8:4d:bb:15:d9:b4:47:9d:
                    00:05:f0:15:e3:e0:72:78:78:5a:3c:30:8c:e1:8c:
                    b3:95:d4:5c:05:d7:7a:8a:2b:65:53:d1:0f:82:46:
                    5d:ee:0f:00:2a:e7:37:08:2f:26:34:b1:84:55:ab:
                    b1:8b:bf:b8:c4:64:c3:cc:29:92:21:cc:b5:c2:20:
                    5f:e3:0c:2a:f0:0b:97:03:40:ed:7c:07:a8:e4:0a:
                    bf:ff:35:23:e0:e4:ab:1d:38:a2:2b:32:c1:eb:94:
                    c7:e9:3c:c5:79:c1:00:a4:69:9d:8d:77:24:89:e6:
                    5e:91:ee:76:d8:5a:22:0d:da:b0:21:15:c4:e5:e6:
                    d9:7a:5e:48:8f:21:d5:ae:43:4c:56:da:1a:19:10:
                    ac:4b:05:6c:2e:49:94:a1:f8:fd:6b:54:20:03:59:
                    36:05:af:f3:a0:37:07:42:59:c1:c0:bc:99:4a:08:
                    3d:12:0d:d2:f3:86:5b:57:ec:79:31:8b:48:73:8a:
                    5a:55:b0:49:de:86:2b:27:6d:85:30:0a:63:fd:d9:
                    d6:ce:11:1a:ab:d5:b6:cf:f6:f1:50:7a:b5:65:3c:
                    43:08:1b:60:e6:fb:28:30:57:4b:89:af:02:7a:61:
                    6a:20:95:4b:5c:91:88:be:ee:7f:ba:ab:99:c2:6a:
                    04:4c:54:26:bf:3b:58:ed:61:c3:76:56:de:3f:54:
                    32:d1:5c:27:e7:32:d3:d2:ef:22:57:65:6b:2f:e5:
                    e7:c1:03:aa:17:11:90:1e:12:9f:41:2f:20:e3:88:
                    90:b1:3b:3f:8a:53:66:7f:37:bd:49:69:db:47:15:
                    14:bd:e6:45:fe:be:af:58:28:2a:84:4c:0d:5d:a9:
                    44:3b:73:26:fa:80:57:0b:1f:b9:74:27:4f:aa:ca:
                    3f:8f:c9:9d:dd:28:a1:37:33:72:65:cb:ba:2e:6e:
                    98:01:1c:02:92:08:ae:87:e7:93:a6:fc:ce:60:34:
                    09:d1:b0:81:a4:45:99:83:21:e2:6d:ca:74:1f:0a:
                    f9:f3:77:09:af:92:ad:53:71:76:b1:b2:1f:a1:14:
                    4f:8a:61
                Exponent: 65537 (0x10001)
        X509v3 extensions:
            X509v3 Basic Constraints: 
                CA:FALSE
            Netscape Comment: 
                Easy-RSA Generated Certificate
            X509v3 Subject Key Identifier: 
                6F:FC:23:77:C2:47:B4:6B:01:80:A8:ED:0B:E9:57:61:E8:5A:56:A6
            X509v3 Authority Key Identifier: 
                keyid:EF:38:8D:14:50:58:A7:5B:4D:9C:17:72:FC:DF:B9:AC:A7:51:B0:10
                DirName:/C=US/ST=CA/L=SanFrancisco/O=Pixglo, Inc./OU=VPN-CIE/CN=tunnel.pixglo.com/name=Bala Chandrasekaran/emailAddress=bala@pixglo.com
                serial:A6:DB:C6:83:80:E6:A0:79

            X509v3 Extended Key Usage: 
                TLS Web Client Authentication
            X509v3 Key Usage: 
                Digital Signature
    Signature Algorithm: sha1WithRSAEncryption
         3d:25:09:be:fe:f9:fb:28:22:b4:4d:04:54:c1:18:95:cc:cd:
         0d:1c:55:af:03:c5:97:05:e0:e8:3f:be:fc:d1:de:7d:bf:40:
         45:ee:64:d8:cb:46:0c:c6:47:f0:3b:a6:27:02:39:7c:11:b0:
         70:1c:65:37:c9:2c:9f:c9:f2:77:6d:9c:11:01:dc:31:a4:05:
         97:78:41:72:35:41:da:76:6f:34:20:fc:ef:0e:61:c7:c4:4d:
         de:9b:ed:d4:9b:fd:ac:3a:a6:2c:b7:31:a3:75:0d:d2:64:a3:
         fe:d9:6f:88:63:ff:8a:ea:b9:7d:42:90:47:38:7d:cc:86:7d:
         16:1f:04:ca:03:f0:9c:8a:e8:eb:09:8c:b8:16:c0:8d:8e:c4:
         80:7f:2e:67:59:68:b7:5d:0d:7c:c0:07:bb:3c:e4:5c:a3:b9:
         3d:50:4c:82:c4:e3:7c:7f:27:74:06:29:50:c6:38:24:0a:5c:
         23:29:13:f5:3f:42:4b:ec:93:e2:23:3d:48:92:40:26:25:5e:
         71:f1:1c:db:85:6b:c2:7e:74:6e:3f:30:20:86:42:3e:bb:f8:
         50:0e:cb:ac:78:30:43:ce:a9:9b:cb:2b:8d:a9:83:0d:17:5f:
         df:af:c9:70:91:fd:ec:be:0e:fa:41:4c:9c:2f:56:90:52:01:
         78:5b:95:de:28:a3:98:12:08:be:fe:a8:3e:4b:a3:85:46:f0:
         6f:d1:45:0e:e2:24:7d:f8:be:b0:d0:d8:5e:d8:ed:fd:91:a9:
         79:db:4f:43:3a:fb:50:50:8e:aa:f0:52:cc:4f:06:e8:89:20:
         c8:40:53:a5:c3:38:da:e9:e2:2c:9f:5e:90:51:b8:8f:8a:33:
         72:63:59:01:dc:d3:b4:bb:cc:35:46:0e:30:63:e3:ae:4c:7e:
         51:f6:19:a9:78:da:c6:41:ad:55:ce:e0:9a:2f:cc:f6:6e:e9:
         a6:04:97:7e:b6:d4:8c:20:77:c0:ac:c6:0b:8a:43:0a:e3:b1:
         b2:94:93:19:f2:d7:b2:eb:f4:aa:aa:3e:a9:92:c0:54:e9:9a:
         db:a1:a9:0e:b5:02:b8:1b:c9:51:ad:f8:9b:f0:55:82:7f:7a:
         7e:93:97:4e:46:eb:da:5b:0f:97:ea:b9:c9:6c:5b:85:78:1e:
         33:e5:81:26:ec:42:7b:c4:41:37:f5:10:e6:05:47:39:96:66:
         2d:0a:d0:72:30:39:3a:40:ae:38:93:1a:e2:39:0d:5e:bb:92:
         16:96:a8:4d:4f:62:6e:78:94:ec:c9:9d:17:7e:0a:ab:11:9c:
         f8:50:26:99:c9:fb:1c:ca:b1:61:49:60:7a:d7:62:f5:15:4a:
         24:c2:90:64:73:5d:22:42
-----BEGIN CERTIFICATE-----
MIIHRjCCBS6gAwIBAgIBIjANBgkqhkiG9w0BAQUFADCBtDELMAkGA1UEBhMCVVMx
CzAJBgNVBAgTAkNBMRUwEwYDVQQHEwxTYW5GcmFuY2lzY28xFTATBgNVBAoTDFBp
eGdsbywgSW5jLjEQMA4GA1UECxMHVlBOLUNJRTEaMBgGA1UEAxMRdHVubmVsLnBp
eGdsby5jb20xHDAaBgNVBCkTE0JhbGEgQ2hhbmRyYXNla2FyYW4xHjAcBgkqhkiG
9w0BCQEWD2JhbGFAcGl4Z2xvLmNvbTAeFw0xODAyMTQwNjI0MzRaFw0yODAyMTIw
NjI0MzRaMIGoMQswCQYDVQQGEwJVUzELMAkGA1UECBMCQ0ExFTATBgNVBAcTDFNh
bkZyYW5jaXNjbzEVMBMGA1UEChMMUGl4Z2xvLCBJbmMuMRAwDgYDVQQLEwdWUE4t
Q0lFMQ4wDAYDVQQDEwVjaWUzMzEcMBoGA1UEKRMTQmFsYSBDaGFuZHJhc2VrYXJh
bjEeMBwGCSqGSIb3DQEJARYPYmFsYUBwaXhnbG8uY29tMIICIjANBgkqhkiG9w0B
AQEFAAOCAg8AMIICCgKCAgEAvy4kJY4Y5nNEpqSRJaXrpf4X1Nmf1EQ5ldEVvoMR
DIrUCQGxlNkFfvg20H+G3FZj5jWNPbDud/WfT78AsFE5DAZR2p+M+mQbi8Z4h+Ij
dfb3jpTA2hRd9s8/2WmZGKEP3hKMrKukQzYZj53+Ii/2+E27Fdm0R50ABfAV4+By
eHhaPDCM4YyzldRcBdd6iitlU9EPgkZd7g8AKuc3CC8mNLGEVauxi7+4xGTDzCmS
Icy1wiBf4wwq8AuXA0DtfAeo5Aq//zUj4OSrHTiiKzLB65TH6TzFecEApGmdjXck
ieZeke522FoiDdqwIRXE5ebZel5IjyHVrkNMVtoaGRCsSwVsLkmUofj9a1QgA1k2
Ba/zoDcHQlnBwLyZSgg9Eg3S84ZbV+x5MYtIc4paVbBJ3oYrJ22FMApj/dnWzhEa
q9W2z/bxUHq1ZTxDCBtg5vsoMFdLia8CemFqIJVLXJGIvu5/uquZwmoETFQmvztY
7WHDdlbeP1Qy0Vwn5zLT0u8iV2VrL+XnwQOqFxGQHhKfQS8g44iQsTs/ilNmfze9
SWnbRxUUveZF/r6vWCgqhEwNXalEO3Mm+oBXCx+5dCdPqso/j8md3SihNzNyZcu6
Lm6YARwCkgiuh+eTpvzOYDQJ0bCBpEWZgyHibcp0Hwr583cJr5KtU3F2sbIfoRRP
imECAwEAAaOCAWswggFnMAkGA1UdEwQCMAAwLQYJYIZIAYb4QgENBCAWHkVhc3kt
UlNBIEdlbmVyYXRlZCBDZXJ0aWZpY2F0ZTAdBgNVHQ4EFgQUb/wjd8JHtGsBgKjt
C+lXYehaVqYwgekGA1UdIwSB4TCB3oAU7ziNFFBYp1tNnBdy/N+5rKdRsBChgbqk
gbcwgbQxCzAJBgNVBAYTAlVTMQswCQYDVQQIEwJDQTEVMBMGA1UEBxMMU2FuRnJh
bmNpc2NvMRUwEwYDVQQKEwxQaXhnbG8sIEluYy4xEDAOBgNVBAsTB1ZQTi1DSUUx
GjAYBgNVBAMTEXR1bm5lbC5waXhnbG8uY29tMRwwGgYDVQQpExNCYWxhIENoYW5k
cmFzZWthcmFuMR4wHAYJKoZIhvcNAQkBFg9iYWxhQHBpeGdsby5jb22CCQCm28aD
gOageTATBgNVHSUEDDAKBggrBgEFBQcDAjALBgNVHQ8EBAMCB4AwDQYJKoZIhvcN
AQEFBQADggIBAD0lCb7++fsoIrRNBFTBGJXMzQ0cVa8DxZcF4Og/vvzR3n2/QEXu
ZNjLRgzGR/A7picCOXwRsHAcZTfJLJ/J8ndtnBEB3DGkBZd4QXI1Qdp2bzQg/O8O
YcfETd6b7dSb/aw6piy3MaN1DdJko/7Zb4hj/4rquX1CkEc4fcyGfRYfBMoD8JyK
6OsJjLgWwI2OxIB/LmdZaLddDXzAB7s85FyjuT1QTILE43x/J3QGKVDGOCQKXCMp
E/U/Qkvsk+IjPUiSQCYlXnHxHNuFa8J+dG4/MCCGQj67+FAOy6x4MEPOqZvLK42p
gw0XX9+vyXCR/ey+DvpBTJwvVpBSAXhbld4oo5gSCL7+qD5Lo4VG8G/RRQ7iJH34
vrDQ2F7Y7f2RqXnbT0M6+1BQjqrwUsxPBuiJIMhAU6XDONrp4iyfXpBRuI+KM3Jj
WQHc07S7zDVGDjBj465MflH2Gal42sZBrVXO4JovzPZu6aYEl3621Iwgd8CsxguK
QwrjsbKUkxny17Lr9KqqPqmSwFTpmtuhqQ61ArgbyVGt+JvwVYJ/en6Tl05G69pb
D5fquclsW4V4HjPlgSbsQnvEQTf1EOYFRzmWZi0K0HIwOTpArjiTGuI5DV67khaW
qE1PYm54lOzJnRd+CqsRnPhQJpnJ+xzKsWFJYHrXYvUVSiTCkGRzXSJC
-----END CERTIFICATE-----
