Certificate:
    Data:
        Version: 3 (0x2)
        Serial Number: 35 (0x23)
    Signature Algorithm: sha1WithRSAEncryption
        Issuer: C=US, ST=CA, L=SanFrancisco, O=Pixglo, Inc., OU=VPN-CIE, CN=tunnel.pixglo.com/name=Bala Chandrasekaran/emailAddress=bala@pixglo.com
        Validity
            Not Before: Feb 14 06:24:35 2018 GMT
            Not After : Feb 12 06:24:35 2028 GMT
        Subject: C=US, ST=CA, L=SanFrancisco, O=Pixglo, Inc., OU=VPN-CIE, CN=cie34/name=Bala Chandrasekaran/emailAddress=bala@pixglo.com
        Subject Public Key Info:
            Public Key Algorithm: rsaEncryption
                Public-Key: (4096 bit)
                Modulus:
                    00:b6:bd:45:53:cc:28:4e:df:7f:d6:7c:b1:43:c7:
                    cd:1d:79:80:fb:4d:c9:b9:88:c7:99:fd:c3:b3:61:
                    cd:e9:e8:80:c5:7b:59:e4:52:fe:79:73:43:3b:26:
                    fa:9b:e6:ce:53:8f:bf:84:7f:5e:97:51:20:6e:63:
                    c5:f2:c8:73:6a:2a:6e:aa:06:89:c5:a1:06:0e:6a:
                    8c:21:44:aa:13:f3:94:70:a5:95:03:a3:5b:45:f6:
                    a5:4b:2e:59:46:7a:23:e4:62:25:3e:40:ee:2f:ff:
                    86:1a:73:d0:f4:20:3d:c8:b6:10:66:7f:4b:74:d9:
                    e2:cf:0a:f0:7b:7a:f1:35:fe:e2:3a:2c:d1:1b:62:
                    45:a2:00:01:2e:c2:94:01:84:01:8f:3d:c7:78:b8:
                    a0:7b:1c:6a:10:e9:ef:35:45:16:59:63:82:5b:b8:
                    3f:27:e8:f7:ca:30:42:a7:45:ca:bc:e9:64:6f:72:
                    34:d0:da:6a:dd:b5:00:a8:0b:9c:a5:74:e5:bf:18:
                    66:b9:fc:07:42:c9:15:58:01:bd:5b:e5:2b:82:30:
                    60:05:dd:fb:c5:fc:d0:5d:47:13:84:58:f5:a3:e6:
                    87:ba:4f:17:80:24:e2:8d:03:00:6e:66:0b:87:dd:
                    68:9c:fa:7a:cf:e2:9c:2e:a3:47:b8:f4:b1:8f:56:
                    72:83:1f:99:cc:1f:93:58:00:8d:b6:6f:35:30:a6:
                    1a:a4:ef:6b:60:09:23:7c:6a:11:40:23:f7:08:03:
                    7a:6b:28:82:2a:47:f3:fc:8b:b3:cb:b4:27:e6:bd:
                    8b:12:ab:1f:62:f3:3d:f6:fc:a3:d7:33:21:56:3b:
                    4c:06:57:94:37:bd:29:5c:75:1b:c3:ab:f6:aa:51:
                    f4:55:f3:2f:b2:e0:d1:4a:45:6b:9d:be:ce:bc:1e:
                    bf:cf:8d:b0:75:1d:ac:40:92:65:c0:f1:2e:06:19:
                    af:c2:54:ff:13:db:f4:6b:85:d0:84:5b:e3:50:6f:
                    b4:4f:89:e9:67:38:64:36:99:82:e4:16:1c:7c:49:
                    ae:63:c6:da:50:4d:23:ed:2c:ae:e8:88:10:4d:bb:
                    38:07:f2:22:04:8f:e8:28:18:28:4f:a1:a0:5c:bf:
                    3b:76:c1:da:39:8a:a5:12:23:95:b8:8c:75:39:67:
                    04:66:3c:0c:a0:64:e3:81:33:46:1e:c7:9e:be:5e:
                    68:d4:59:76:9c:7d:3d:17:11:d5:f1:10:fa:65:17:
                    0f:ee:31:78:9c:2d:18:fc:73:00:4a:4b:da:d8:36:
                    0e:8f:0b:06:69:bb:b4:89:e8:18:82:f0:be:df:fc:
                    fb:ae:20:66:20:cc:d6:97:0c:1d:68:dd:5d:cd:a3:
                    c1:c0:11
                Exponent: 65537 (0x10001)
        X509v3 extensions:
            X509v3 Basic Constraints: 
                CA:FALSE
            Netscape Comment: 
                Easy-RSA Generated Certificate
            X509v3 Subject Key Identifier: 
                59:63:8D:39:F9:F5:01:57:2A:7C:F1:A3:12:74:17:C9:1C:5C:75:8F
            X509v3 Authority Key Identifier: 
                keyid:EF:38:8D:14:50:58:A7:5B:4D:9C:17:72:FC:DF:B9:AC:A7:51:B0:10
                DirName:/C=US/ST=CA/L=SanFrancisco/O=Pixglo, Inc./OU=VPN-CIE/CN=tunnel.pixglo.com/name=Bala Chandrasekaran/emailAddress=bala@pixglo.com
                serial:A6:DB:C6:83:80:E6:A0:79

            X509v3 Extended Key Usage: 
                TLS Web Client Authentication
            X509v3 Key Usage: 
                Digital Signature
    Signature Algorithm: sha1WithRSAEncryption
         5d:80:60:45:22:4a:2d:a0:53:f7:1e:46:45:1d:92:38:c1:72:
         59:ec:0c:47:2d:24:1e:b8:82:cf:5f:55:5d:c3:43:91:5f:fc:
         9e:12:22:fb:22:91:7c:55:09:45:00:5e:c8:bc:d3:9f:ac:53:
         01:a9:41:c9:78:06:0b:0f:e9:53:bc:e2:f7:99:f2:9e:ac:51:
         31:92:21:9b:30:e9:36:67:3d:5a:f3:88:6b:b6:9f:17:87:d0:
         81:2b:47:27:b1:88:89:20:64:d1:e5:af:f1:ea:72:38:a1:1d:
         88:a4:6e:2a:07:d1:f7:9c:a3:f6:5b:0a:6b:77:59:33:d9:f2:
         b5:15:2c:4d:ea:60:d9:78:a8:97:04:7a:ba:83:6d:07:bc:ca:
         3d:aa:f3:26:41:89:28:43:e9:49:7e:25:91:f3:2a:f1:2f:bb:
         25:9d:73:9d:c2:54:98:bd:ab:4d:c6:44:5a:09:04:0f:84:c5:
         79:08:fd:03:07:0b:4e:25:22:c1:ca:75:fc:83:c3:c0:2a:d7:
         64:79:cc:b0:f5:7d:81:e4:68:a3:22:ef:3e:87:68:93:30:56:
         74:2b:e1:ff:1f:a2:b2:e7:04:21:1c:b7:63:d2:2d:5f:1c:a7:
         d1:11:8e:fa:5d:ea:2f:34:87:6b:8c:74:1e:42:6f:68:7b:e0:
         7d:54:e2:1a:5f:3a:af:d7:ec:91:a7:37:d7:0b:e8:f8:38:47:
         19:c3:70:a0:a1:d3:a6:7a:af:85:c5:7f:fd:c7:70:b9:a9:22:
         b9:83:1a:ba:0b:e1:24:52:5d:03:f1:a8:56:41:35:f3:e5:b3:
         37:af:93:2c:01:8d:20:f8:e0:c5:ee:09:b6:03:38:66:80:8b:
         bc:16:09:3d:64:ef:f8:38:f9:84:69:ad:51:02:e2:fd:41:64:
         1d:a8:55:6f:20:60:ac:e4:0c:02:96:6e:1e:8e:df:e6:65:c6:
         ab:74:37:79:a7:0a:e1:2e:fa:64:08:c8:0b:8a:18:2f:de:79:
         2b:d6:ec:64:1e:b1:c7:63:a9:08:f3:4a:ba:3e:ba:58:53:d5:
         52:94:dc:c6:fe:a4:ff:a1:1e:01:36:ec:5d:59:8a:c9:7a:35:
         72:ef:12:8f:76:da:ac:6f:50:ca:59:cd:cf:2d:f1:2d:30:21:
         e5:c5:f6:f0:87:34:53:06:68:63:80:7c:d4:02:9b:30:c3:48:
         cd:e5:84:3d:26:e3:65:4b:53:10:55:e6:c6:6b:d7:e2:51:80:
         05:86:dc:b1:6d:8c:3a:8b:c0:61:ce:bb:77:d4:ab:29:8d:07:
         51:91:27:fa:9c:72:83:f9:57:a0:60:f4:29:80:81:dd:87:5c:
         fe:6e:90:ca:44:f4:47:d4
-----BEGIN CERTIFICATE-----
MIIHRjCCBS6gAwIBAgIBIzANBgkqhkiG9w0BAQUFADCBtDELMAkGA1UEBhMCVVMx
CzAJBgNVBAgTAkNBMRUwEwYDVQQHEwxTYW5GcmFuY2lzY28xFTATBgNVBAoTDFBp
eGdsbywgSW5jLjEQMA4GA1UECxMHVlBOLUNJRTEaMBgGA1UEAxMRdHVubmVsLnBp
eGdsby5jb20xHDAaBgNVBCkTE0JhbGEgQ2hhbmRyYXNla2FyYW4xHjAcBgkqhkiG
9w0BCQEWD2JhbGFAcGl4Z2xvLmNvbTAeFw0xODAyMTQwNjI0MzVaFw0yODAyMTIw
NjI0MzVaMIGoMQswCQYDVQQGEwJVUzELMAkGA1UECBMCQ0ExFTATBgNVBAcTDFNh
bkZyYW5jaXNjbzEVMBMGA1UEChMMUGl4Z2xvLCBJbmMuMRAwDgYDVQQLEwdWUE4t
Q0lFMQ4wDAYDVQQDEwVjaWUzNDEcMBoGA1UEKRMTQmFsYSBDaGFuZHJhc2VrYXJh
bjEeMBwGCSqGSIb3DQEJARYPYmFsYUBwaXhnbG8uY29tMIICIjANBgkqhkiG9w0B
AQEFAAOCAg8AMIICCgKCAgEAtr1FU8woTt9/1nyxQ8fNHXmA+03JuYjHmf3Ds2HN
6eiAxXtZ5FL+eXNDOyb6m+bOU4+/hH9el1EgbmPF8shzaipuqgaJxaEGDmqMIUSq
E/OUcKWVA6NbRfalSy5ZRnoj5GIlPkDuL/+GGnPQ9CA9yLYQZn9LdNnizwrwe3rx
Nf7iOizRG2JFogABLsKUAYQBjz3HeLigexxqEOnvNUUWWWOCW7g/J+j3yjBCp0XK
vOlkb3I00Npq3bUAqAucpXTlvxhmufwHQskVWAG9W+UrgjBgBd37xfzQXUcThFj1
o+aHuk8XgCTijQMAbmYLh91onPp6z+KcLqNHuPSxj1Zygx+ZzB+TWACNtm81MKYa
pO9rYAkjfGoRQCP3CAN6ayiCKkfz/Iuzy7Qn5r2LEqsfYvM99vyj1zMhVjtMBleU
N70pXHUbw6v2qlH0VfMvsuDRSkVrnb7OvB6/z42wdR2sQJJlwPEuBhmvwlT/E9v0
a4XQhFvjUG+0T4npZzhkNpmC5BYcfEmuY8baUE0j7Syu6IgQTbs4B/IiBI/oKBgo
T6GgXL87dsHaOYqlEiOVuIx1OWcEZjwMoGTjgTNGHseevl5o1Fl2nH09FxHV8RD6
ZRcP7jF4nC0Y/HMASkva2DYOjwsGabu0iegYgvC+3/z7riBmIMzWlwwdaN1dzaPB
wBECAwEAAaOCAWswggFnMAkGA1UdEwQCMAAwLQYJYIZIAYb4QgENBCAWHkVhc3kt
UlNBIEdlbmVyYXRlZCBDZXJ0aWZpY2F0ZTAdBgNVHQ4EFgQUWWONOfn1AVcqfPGj
EnQXyRxcdY8wgekGA1UdIwSB4TCB3oAU7ziNFFBYp1tNnBdy/N+5rKdRsBChgbqk
gbcwgbQxCzAJBgNVBAYTAlVTMQswCQYDVQQIEwJDQTEVMBMGA1UEBxMMU2FuRnJh
bmNpc2NvMRUwEwYDVQQKEwxQaXhnbG8sIEluYy4xEDAOBgNVBAsTB1ZQTi1DSUUx
GjAYBgNVBAMTEXR1bm5lbC5waXhnbG8uY29tMRwwGgYDVQQpExNCYWxhIENoYW5k
cmFzZWthcmFuMR4wHAYJKoZIhvcNAQkBFg9iYWxhQHBpeGdsby5jb22CCQCm28aD
gOageTATBgNVHSUEDDAKBggrBgEFBQcDAjALBgNVHQ8EBAMCB4AwDQYJKoZIhvcN
AQEFBQADggIBAF2AYEUiSi2gU/ceRkUdkjjBclnsDEctJB64gs9fVV3DQ5Ff/J4S
IvsikXxVCUUAXsi805+sUwGpQcl4BgsP6VO84veZ8p6sUTGSIZsw6TZnPVrziGu2
nxeH0IErRyexiIkgZNHlr/HqcjihHYikbioH0feco/ZbCmt3WTPZ8rUVLE3qYNl4
qJcEerqDbQe8yj2q8yZBiShD6Ul+JZHzKvEvuyWdc53CVJi9q03GRFoJBA+ExXkI
/QMHC04lIsHKdfyDw8Aq12R5zLD1fYHkaKMi7z6HaJMwVnQr4f8forLnBCEct2PS
LV8cp9ERjvpd6i80h2uMdB5Cb2h74H1U4hpfOq/X7JGnN9cL6Pg4RxnDcKCh06Z6
r4XFf/3HcLmpIrmDGroL4SRSXQPxqFZBNfPlszevkywBjSD44MXuCbYDOGaAi7wW
CT1k7/g4+YRprVEC4v1BZB2oVW8gYKzkDAKWbh6O3+Zlxqt0N3mnCuEu+mQIyAuK
GC/eeSvW7GQescdjqQjzSro+ulhT1VKU3Mb+pP+hHgE27F1Zisl6NXLvEo922qxv
UMpZzc8t8S0wIeXF9vCHNFMGaGOAfNQCmzDDSM3lhD0m42VLUxBV5sZr1+JRgAWG
3LFtjDqLwGHOu3fUqymNB1GRJ/qccoP5V6Bg9CmAgd2HXP5ukMpE9EfU
-----END CERTIFICATE-----
