Certificate:
    Data:
        Version: 3 (0x2)
        Serial Number: 37 (0x25)
    Signature Algorithm: sha1WithRSAEncryption
        Issuer: C=US, ST=CA, L=SanFrancisco, O=Pixglo, Inc., OU=VPN-CIE, CN=tunnel.pixglo.com/name=Bala Chandrasekaran/emailAddress=bala@pixglo.com
        Validity
            Not Before: Feb 14 06:24:37 2018 GMT
            Not After : Feb 12 06:24:37 2028 GMT
        Subject: C=US, ST=CA, L=SanFrancisco, O=Pixglo, Inc., OU=VPN-CIE, CN=cie36/name=Bala Chandrasekaran/emailAddress=bala@pixglo.com
        Subject Public Key Info:
            Public Key Algorithm: rsaEncryption
                Public-Key: (4096 bit)
                Modulus:
                    00:cc:2a:0a:75:17:48:8f:85:85:fa:93:15:30:15:
                    46:45:f8:96:5a:6d:a5:c0:24:a5:2e:e7:57:72:cc:
                    98:db:86:88:78:99:2c:38:53:7d:8a:0d:d7:6b:ae:
                    80:48:15:84:e4:ae:9f:1f:7e:0a:1d:9c:61:c6:3a:
                    47:74:f5:34:03:dc:fa:9e:b1:1a:2b:09:84:19:7e:
                    0f:4c:33:39:6f:5f:2a:79:94:1f:bd:40:75:3a:9c:
                    69:b0:51:2e:81:f9:29:b9:d9:f1:4f:05:e1:5c:66:
                    76:50:68:8c:b5:fb:ca:b1:84:95:26:3c:96:3c:19:
                    23:e7:0b:19:c1:89:12:db:4d:be:75:d9:fe:4f:a6:
                    fa:01:cb:47:2b:0b:fd:ed:ef:39:9e:07:a0:2b:e0:
                    24:81:2f:54:98:04:97:bf:dd:f0:40:c6:de:6d:fa:
                    4f:6d:3e:90:39:32:85:fe:d6:eb:a1:50:1a:75:70:
                    74:0e:2f:d3:32:f4:6b:22:8c:0d:f9:fd:fd:c1:f8:
                    4c:5e:b0:89:89:b1:71:2d:31:f1:09:7e:1e:90:8a:
                    0d:0a:2d:40:a4:29:72:74:78:df:4f:bb:79:8e:12:
                    88:98:6a:56:82:ab:c2:48:77:35:7f:be:92:ed:dc:
                    a9:5c:6f:3d:27:d3:fa:3c:d7:cc:d1:81:2b:c5:97:
                    0c:29:df:72:a1:3a:cd:a6:4d:14:39:3f:06:01:ae:
                    7f:fa:8f:be:00:49:28:dc:5e:a5:72:1d:b2:7e:d7:
                    c0:31:76:38:4a:10:2e:97:28:b1:87:eb:a6:b2:93:
                    22:3a:71:15:b1:76:eb:8f:0f:6c:15:5c:c8:61:77:
                    9a:01:49:2f:e3:fb:d3:17:f1:62:87:12:9c:f0:64:
                    f1:64:7b:83:e1:ff:54:bc:80:b8:32:e7:46:19:b6:
                    37:91:da:3a:56:05:7a:9b:e8:30:63:95:25:35:6d:
                    e5:63:fc:72:cf:73:77:01:44:6b:43:eb:ab:b1:7b:
                    9a:c7:0b:13:50:0a:73:97:87:36:78:fe:f4:de:58:
                    93:6c:b6:c1:71:41:39:39:76:84:ee:5e:b2:4e:93:
                    93:a7:2e:77:fb:10:31:20:79:5a:42:a0:cc:b2:dd:
                    8b:e5:ef:d3:65:1c:42:dd:b4:3a:0c:ec:c9:ff:cc:
                    70:01:b6:84:82:97:b1:01:be:17:09:62:4b:8a:11:
                    33:5b:15:3c:21:92:04:e2:d7:e1:53:02:97:9e:68:
                    d3:76:0b:0d:42:34:fa:bd:e1:83:c3:f5:a1:c9:71:
                    00:34:f8:cb:ad:aa:ad:d0:d4:76:4f:ef:95:2c:93:
                    1a:87:96:55:d1:fd:6c:63:1c:6e:d3:f0:4b:3a:8b:
                    11:ea:f7
                Exponent: 65537 (0x10001)
        X509v3 extensions:
            X509v3 Basic Constraints: 
                CA:FALSE
            Netscape Comment: 
                Easy-RSA Generated Certificate
            X509v3 Subject Key Identifier: 
                6D:91:40:79:99:FB:76:FF:2C:26:95:17:19:BD:AA:E2:65:87:82:D6
            X509v3 Authority Key Identifier: 
                keyid:EF:38:8D:14:50:58:A7:5B:4D:9C:17:72:FC:DF:B9:AC:A7:51:B0:10
                DirName:/C=US/ST=CA/L=SanFrancisco/O=Pixglo, Inc./OU=VPN-CIE/CN=tunnel.pixglo.com/name=Bala Chandrasekaran/emailAddress=bala@pixglo.com
                serial:A6:DB:C6:83:80:E6:A0:79

            X509v3 Extended Key Usage: 
                TLS Web Client Authentication
            X509v3 Key Usage: 
                Digital Signature
    Signature Algorithm: sha1WithRSAEncryption
         b1:3e:be:2f:94:d0:c3:3e:1f:2a:45:e7:66:1d:8d:64:97:6a:
         61:3b:9c:de:20:d0:76:83:06:89:b8:68:63:32:64:3d:e9:cb:
         05:9c:83:a8:b5:ce:ea:1d:88:37:61:ef:1c:d5:3c:7a:78:00:
         70:3f:d1:63:24:a3:d0:73:98:6a:38:30:d1:ac:e3:3b:8f:6b:
         de:5d:41:db:a8:3c:5d:2f:bb:26:fc:bd:16:9d:06:19:90:69:
         24:94:d9:b2:7b:bc:58:71:f9:c3:38:fc:f0:d0:99:80:76:57:
         c7:c0:9a:16:9e:32:cd:4a:eb:c0:6f:27:f6:38:61:e9:9f:60:
         42:16:91:05:f2:4f:b6:e2:ea:92:bc:ae:e0:e8:0e:de:de:6c:
         d1:69:47:da:10:75:0e:a4:0c:d6:04:96:26:70:71:55:94:24:
         32:c0:ca:51:46:95:1b:93:e4:c5:12:11:28:60:4c:de:9b:bf:
         f0:73:4d:86:73:d2:ba:57:aa:59:97:36:6b:0b:72:35:a9:26:
         25:11:4f:53:b8:4c:cf:47:e4:ea:01:f8:fa:4e:e9:c1:ba:e1:
         72:2c:03:d2:54:97:b8:4d:c4:99:ca:1d:38:3e:d5:e2:5a:b4:
         bf:25:64:34:6a:f5:dd:1a:c0:cd:d7:df:15:e2:9c:19:ea:59:
         2f:8f:8b:94:71:77:0d:e2:57:e7:b2:50:ad:ab:f4:5a:d6:79:
         c8:35:62:c5:45:7c:c6:55:1a:4b:5e:d5:d1:d9:33:c4:33:ba:
         6f:34:e0:c8:36:96:d0:8a:68:f8:ba:da:40:8f:1e:55:c7:35:
         7b:8d:1e:69:8a:d7:3b:fd:f5:3f:5e:b4:f7:06:68:9a:59:2e:
         2e:01:2d:35:72:4c:9c:25:f5:e8:33:48:b7:79:f4:5e:fd:c6:
         fd:0c:7a:a5:73:f2:c2:b0:ef:c9:9d:3f:c5:07:3e:ea:ec:15:
         5b:d2:2e:fc:2b:b4:f5:e0:84:d1:de:ac:be:e5:85:f0:57:26:
         ef:2a:d5:48:59:60:c7:68:87:b4:91:82:8b:0c:00:de:67:fb:
         89:f6:30:66:40:5c:d6:b0:87:cd:19:82:86:9f:a1:22:5b:0b:
         cd:e5:6a:ad:71:03:37:fc:0f:b9:6d:67:a3:a1:59:9d:08:07:
         33:2f:b6:d1:7f:2a:08:3e:e5:c7:bb:eb:b3:60:fe:51:b1:7a:
         5d:1e:62:f5:c8:16:41:07:7d:b9:3f:e5:29:70:24:42:73:cb:
         4f:b2:e7:35:ea:c5:fe:ae:c4:da:b4:96:ce:64:08:56:8e:64:
         31:a2:d5:1b:d9:9e:54:32:2f:5a:d7:6c:31:0e:0b:b5:f6:36:
         9f:99:68:8c:43:35:0e:2d
-----BEGIN CERTIFICATE-----
MIIHRjCCBS6gAwIBAgIBJTANBgkqhkiG9w0BAQUFADCBtDELMAkGA1UEBhMCVVMx
CzAJBgNVBAgTAkNBMRUwEwYDVQQHEwxTYW5GcmFuY2lzY28xFTATBgNVBAoTDFBp
eGdsbywgSW5jLjEQMA4GA1UECxMHVlBOLUNJRTEaMBgGA1UEAxMRdHVubmVsLnBp
eGdsby5jb20xHDAaBgNVBCkTE0JhbGEgQ2hhbmRyYXNla2FyYW4xHjAcBgkqhkiG
9w0BCQEWD2JhbGFAcGl4Z2xvLmNvbTAeFw0xODAyMTQwNjI0MzdaFw0yODAyMTIw
NjI0MzdaMIGoMQswCQYDVQQGEwJVUzELMAkGA1UECBMCQ0ExFTATBgNVBAcTDFNh
bkZyYW5jaXNjbzEVMBMGA1UEChMMUGl4Z2xvLCBJbmMuMRAwDgYDVQQLEwdWUE4t
Q0lFMQ4wDAYDVQQDEwVjaWUzNjEcMBoGA1UEKRMTQmFsYSBDaGFuZHJhc2VrYXJh
bjEeMBwGCSqGSIb3DQEJARYPYmFsYUBwaXhnbG8uY29tMIICIjANBgkqhkiG9w0B
AQEFAAOCAg8AMIICCgKCAgEAzCoKdRdIj4WF+pMVMBVGRfiWWm2lwCSlLudXcsyY
24aIeJksOFN9ig3Xa66ASBWE5K6fH34KHZxhxjpHdPU0A9z6nrEaKwmEGX4PTDM5
b18qeZQfvUB1OpxpsFEugfkpudnxTwXhXGZ2UGiMtfvKsYSVJjyWPBkj5wsZwYkS
202+ddn+T6b6ActHKwv97e85ngegK+AkgS9UmASXv93wQMbebfpPbT6QOTKF/tbr
oVAadXB0Di/TMvRrIowN+f39wfhMXrCJibFxLTHxCX4ekIoNCi1ApClydHjfT7t5
jhKImGpWgqvCSHc1f76S7dypXG89J9P6PNfM0YErxZcMKd9yoTrNpk0UOT8GAa5/
+o++AEko3F6lch2yftfAMXY4ShAulyixh+umspMiOnEVsXbrjw9sFVzIYXeaAUkv
4/vTF/FihxKc8GTxZHuD4f9UvIC4MudGGbY3kdo6VgV6m+gwY5UlNW3lY/xyz3N3
AURrQ+ursXuaxwsTUApzl4c2eP703liTbLbBcUE5OXaE7l6yTpOTpy53+xAxIHla
QqDMst2L5e/TZRxC3bQ6DOzJ/8xwAbaEgpexAb4XCWJLihEzWxU8IZIE4tfhUwKX
nmjTdgsNQjT6veGDw/WhyXEANPjLraqt0NR2T++VLJMah5ZV0f1sYxxu0/BLOosR
6vcCAwEAAaOCAWswggFnMAkGA1UdEwQCMAAwLQYJYIZIAYb4QgENBCAWHkVhc3kt
UlNBIEdlbmVyYXRlZCBDZXJ0aWZpY2F0ZTAdBgNVHQ4EFgQUbZFAeZn7dv8sJpUX
Gb2q4mWHgtYwgekGA1UdIwSB4TCB3oAU7ziNFFBYp1tNnBdy/N+5rKdRsBChgbqk
gbcwgbQxCzAJBgNVBAYTAlVTMQswCQYDVQQIEwJDQTEVMBMGA1UEBxMMU2FuRnJh
bmNpc2NvMRUwEwYDVQQKEwxQaXhnbG8sIEluYy4xEDAOBgNVBAsTB1ZQTi1DSUUx
GjAYBgNVBAMTEXR1bm5lbC5waXhnbG8uY29tMRwwGgYDVQQpExNCYWxhIENoYW5k
cmFzZWthcmFuMR4wHAYJKoZIhvcNAQkBFg9iYWxhQHBpeGdsby5jb22CCQCm28aD
gOageTATBgNVHSUEDDAKBggrBgEFBQcDAjALBgNVHQ8EBAMCB4AwDQYJKoZIhvcN
AQEFBQADggIBALE+vi+U0MM+HypF52YdjWSXamE7nN4g0HaDBom4aGMyZD3pywWc
g6i1zuodiDdh7xzVPHp4AHA/0WMko9BzmGo4MNGs4zuPa95dQduoPF0vuyb8vRad
BhmQaSSU2bJ7vFhx+cM4/PDQmYB2V8fAmhaeMs1K68BvJ/Y4YemfYEIWkQXyT7bi
6pK8ruDoDt7ebNFpR9oQdQ6kDNYEliZwcVWUJDLAylFGlRuT5MUSEShgTN6bv/Bz
TYZz0rpXqlmXNmsLcjWpJiURT1O4TM9H5OoB+PpO6cG64XIsA9JUl7hNxJnKHTg+
1eJatL8lZDRq9d0awM3X3xXinBnqWS+Pi5Rxdw3iV+eyUK2r9FrWecg1YsVFfMZV
Gkte1dHZM8Qzum804Mg2ltCKaPi62kCPHlXHNXuNHmmK1zv99T9etPcGaJpZLi4B
LTVyTJwl9egzSLd59F79xv0MeqVz8sKw78mdP8UHPursFVvSLvwrtPXghNHerL7l
hfBXJu8q1UhZYMdoh7SRgosMAN5n+4n2MGZAXNawh80ZgoafoSJbC83laq1xAzf8
D7ltZ6OhWZ0IBzMvttF/Kgg+5ce767Ng/lGxel0eYvXIFkEHfbk/5SlwJEJzy0+y
5zXqxf6uxNq0ls5kCFaOZDGi1RvZnlQyL1rXbDEOC7X2Np+ZaIxDNQ4t
-----END CERTIFICATE-----
