Certificate:
    Data:
        Version: 3 (0x2)
        Serial Number: 38 (0x26)
    Signature Algorithm: sha1WithRSAEncryption
        Issuer: C=US, ST=CA, L=SanFrancisco, O=Pixglo, Inc., OU=VPN-CIE, CN=tunnel.pixglo.com/name=Bala Chandrasekaran/emailAddress=bala@pixglo.com
        Validity
            Not Before: Feb 14 06:24:38 2018 GMT
            Not After : Feb 12 06:24:38 2028 GMT
        Subject: C=US, ST=CA, L=SanFrancisco, O=Pixglo, Inc., OU=VPN-CIE, CN=cie37/name=Bala Chandrasekaran/emailAddress=bala@pixglo.com
        Subject Public Key Info:
            Public Key Algorithm: rsaEncryption
                Public-Key: (4096 bit)
                Modulus:
                    00:c4:66:a3:51:b7:6f:3c:e2:70:77:38:da:9a:73:
                    08:a9:be:99:32:e0:47:3e:e5:da:fc:0b:70:8e:d2:
                    6a:21:95:99:39:b6:7f:89:c0:1f:68:95:65:0d:65:
                    1a:61:84:f6:98:20:2c:60:75:2c:e1:a2:89:15:ae:
                    7d:74:a1:3a:f6:18:ca:28:ef:82:a6:83:53:ab:c1:
                    1a:06:c7:08:bf:2f:75:71:97:59:e5:c5:a1:f1:31:
                    e7:4d:fe:ba:7f:86:6d:ea:2d:ed:39:d2:4d:ba:00:
                    1d:de:11:f9:1f:be:61:cf:9c:db:14:55:40:88:68:
                    c0:64:6e:6a:75:4b:4e:ba:1c:73:26:89:1b:87:16:
                    0b:a3:82:0e:96:06:e3:43:fb:79:f9:da:fc:00:e2:
                    d2:66:c6:96:39:7f:cb:23:2e:a7:8a:54:53:e5:2e:
                    cf:2c:31:de:5b:4c:aa:4d:50:ef:a9:dc:f6:75:67:
                    54:71:a9:36:10:6e:97:9e:3a:3f:45:d0:09:8a:7d:
                    63:6d:bc:39:8e:e1:47:6f:5d:26:eb:be:aa:06:3d:
                    9b:34:20:bf:95:29:f3:4a:e2:81:71:3f:92:41:49:
                    ad:4d:a7:bd:d9:32:58:72:05:97:e1:6d:6b:e1:07:
                    03:61:46:a7:1f:1f:2e:94:5e:82:91:60:d0:32:a7:
                    3e:f4:84:2b:b3:d6:58:bc:4a:56:85:a2:40:ae:2a:
                    5f:f1:b1:83:d5:7f:a8:18:dd:b1:4f:bd:b0:a5:25:
                    3a:79:3b:8f:db:10:b5:22:c1:66:9d:f2:ea:80:6a:
                    8b:61:59:25:76:1e:4c:09:f3:1f:43:a9:cc:98:d6:
                    2c:92:5e:c5:e5:62:99:87:43:b4:c5:46:90:fd:e7:
                    55:c8:0f:04:e0:21:25:53:46:12:f9:64:f9:dd:65:
                    d2:d6:0c:c2:c1:76:b7:ce:68:04:c7:02:08:68:b2:
                    fa:93:c3:bd:e3:4b:70:34:65:ec:5c:d3:0f:bc:b1:
                    45:45:63:19:cb:a0:41:e9:7e:17:ec:1d:29:c8:39:
                    40:06:e6:5f:9e:de:d5:74:a8:12:47:1d:5d:0c:02:
                    5d:f6:5a:45:19:9a:17:c0:0b:d4:16:12:68:25:fa:
                    ed:4b:ad:55:82:ed:68:ca:b2:11:06:c0:2c:62:71:
                    2e:f5:5f:64:8e:b1:55:96:6e:a5:65:0e:6e:20:0a:
                    60:7e:cd:dd:f2:8f:98:3d:0b:be:5d:ce:4b:d4:6e:
                    36:7c:91:2a:75:e0:6e:f0:a5:83:38:db:20:79:66:
                    a5:cd:86:75:ff:62:ba:3c:30:f1:8b:3c:af:9f:a6:
                    a5:bd:8b:67:a8:09:9a:8b:a0:7d:f5:ae:f2:e0:d7:
                    c9:ac:df
                Exponent: 65537 (0x10001)
        X509v3 extensions:
            X509v3 Basic Constraints: 
                CA:FALSE
            Netscape Comment: 
                Easy-RSA Generated Certificate
            X509v3 Subject Key Identifier: 
                82:20:12:54:BE:70:E2:0D:8B:A5:68:E0:07:CA:AD:B3:C4:E1:B1:E0
            X509v3 Authority Key Identifier: 
                keyid:EF:38:8D:14:50:58:A7:5B:4D:9C:17:72:FC:DF:B9:AC:A7:51:B0:10
                DirName:/C=US/ST=CA/L=SanFrancisco/O=Pixglo, Inc./OU=VPN-CIE/CN=tunnel.pixglo.com/name=Bala Chandrasekaran/emailAddress=bala@pixglo.com
                serial:A6:DB:C6:83:80:E6:A0:79

            X509v3 Extended Key Usage: 
                TLS Web Client Authentication
            X509v3 Key Usage: 
                Digital Signature
    Signature Algorithm: sha1WithRSAEncryption
         a4:c4:b2:ec:5e:a7:0b:7c:eb:8a:7a:80:3a:54:2e:9a:50:d4:
         53:bc:50:e0:7d:62:6f:6a:7e:fb:d4:d4:07:24:8a:f0:5d:b2:
         9c:fe:12:12:58:64:0c:e2:e3:d8:12:dc:6c:0e:9e:66:2f:1b:
         ae:63:95:e4:49:a5:94:9b:61:da:1d:ec:b1:f6:04:c4:86:b5:
         5f:e1:04:69:9c:4d:70:b1:43:14:b6:fe:de:4b:c0:91:74:98:
         63:ad:aa:44:9c:de:a4:bb:53:ec:94:85:27:8d:63:a7:30:7b:
         67:62:15:bf:3d:93:00:ea:8e:a3:be:86:e3:27:48:74:71:40:
         21:25:e1:1d:da:2a:60:97:04:16:80:40:73:88:fe:87:74:b5:
         ee:5a:34:89:40:1e:d5:35:02:56:7d:e7:24:a1:3e:ed:44:d0:
         1b:b8:4a:63:02:0f:a1:80:d8:42:e4:e6:77:b9:94:90:8c:fd:
         c9:e2:89:53:f6:32:9f:5d:11:8e:72:7f:76:f9:b2:6a:5e:01:
         b9:8c:a4:38:d1:a9:9c:7c:98:f4:bd:3c:db:b0:29:4a:e4:42:
         46:bb:6c:db:26:b7:63:68:1a:6c:82:a2:01:8f:8b:c2:dd:6e:
         a1:66:98:95:93:45:f0:c3:49:c3:d1:ce:4c:d3:5d:4c:67:e1:
         15:9a:9e:4b:d8:91:b6:d6:70:d5:92:41:4c:be:f1:6d:46:47:
         58:68:5c:32:5d:a0:51:4f:56:41:4c:06:6f:7c:df:d3:06:83:
         f0:62:66:df:62:12:2f:39:37:3a:1c:73:56:39:bd:df:9c:e0:
         72:d6:60:52:d5:d0:e0:d4:c2:47:c3:8a:86:06:0b:94:ce:36:
         28:e7:ee:ba:67:24:7c:80:11:c0:d5:55:ab:cd:4a:18:ed:5d:
         dc:26:17:28:0e:e8:40:99:1b:fb:ac:7c:4a:6a:05:47:59:ba:
         de:2c:21:de:bc:7b:05:7e:d2:ef:0d:cb:04:ad:43:f1:99:5e:
         f5:49:95:24:de:11:3a:34:fa:12:3c:51:0c:e4:9e:6a:52:b2:
         ef:58:12:15:fb:c4:6b:3c:a0:39:78:4a:9b:98:d7:03:7e:b1:
         80:0d:40:a0:5d:79:f4:72:5c:93:fa:90:4a:82:b5:12:28:4b:
         03:50:e3:ea:1b:c0:b1:a9:dd:9a:7e:8d:92:20:d1:4e:d0:2d:
         7f:e1:b1:23:7e:57:92:34:4b:37:57:4d:c5:9b:60:ab:20:03:
         96:2f:7a:d8:6f:95:64:8c:e3:f6:19:63:54:46:fd:bf:ff:13:
         06:14:52:ba:a9:b4:0a:f2:b9:84:15:f9:f1:f9:a8:bb:3b:70:
         f9:b5:b9:65:7b:f5:d1:a9
-----BEGIN CERTIFICATE-----
MIIHRjCCBS6gAwIBAgIBJjANBgkqhkiG9w0BAQUFADCBtDELMAkGA1UEBhMCVVMx
CzAJBgNVBAgTAkNBMRUwEwYDVQQHEwxTYW5GcmFuY2lzY28xFTATBgNVBAoTDFBp
eGdsbywgSW5jLjEQMA4GA1UECxMHVlBOLUNJRTEaMBgGA1UEAxMRdHVubmVsLnBp
eGdsby5jb20xHDAaBgNVBCkTE0JhbGEgQ2hhbmRyYXNla2FyYW4xHjAcBgkqhkiG
9w0BCQEWD2JhbGFAcGl4Z2xvLmNvbTAeFw0xODAyMTQwNjI0MzhaFw0yODAyMTIw
NjI0MzhaMIGoMQswCQYDVQQGEwJVUzELMAkGA1UECBMCQ0ExFTATBgNVBAcTDFNh
bkZyYW5jaXNjbzEVMBMGA1UEChMMUGl4Z2xvLCBJbmMuMRAwDgYDVQQLEwdWUE4t
Q0lFMQ4wDAYDVQQDEwVjaWUzNzEcMBoGA1UEKRMTQmFsYSBDaGFuZHJhc2VrYXJh
bjEeMBwGCSqGSIb3DQEJARYPYmFsYUBwaXhnbG8uY29tMIICIjANBgkqhkiG9w0B
AQEFAAOCAg8AMIICCgKCAgEAxGajUbdvPOJwdzjamnMIqb6ZMuBHPuXa/AtwjtJq
IZWZObZ/icAfaJVlDWUaYYT2mCAsYHUs4aKJFa59dKE69hjKKO+CpoNTq8EaBscI
vy91cZdZ5cWh8THnTf66f4Zt6i3tOdJNugAd3hH5H75hz5zbFFVAiGjAZG5qdUtO
uhxzJokbhxYLo4IOlgbjQ/t5+dr8AOLSZsaWOX/LIy6nilRT5S7PLDHeW0yqTVDv
qdz2dWdUcak2EG6Xnjo/RdAJin1jbbw5juFHb10m676qBj2bNCC/lSnzSuKBcT+S
QUmtTae92TJYcgWX4W1r4QcDYUanHx8ulF6CkWDQMqc+9IQrs9ZYvEpWhaJAripf
8bGD1X+oGN2xT72wpSU6eTuP2xC1IsFmnfLqgGqLYVkldh5MCfMfQ6nMmNYskl7F
5WKZh0O0xUaQ/edVyA8E4CElU0YS+WT53WXS1gzCwXa3zmgExwIIaLL6k8O940tw
NGXsXNMPvLFFRWMZy6BB6X4X7B0pyDlABuZfnt7VdKgSRx1dDAJd9lpFGZoXwAvU
FhJoJfrtS61Vgu1oyrIRBsAsYnEu9V9kjrFVlm6lZQ5uIApgfs3d8o+YPQu+Xc5L
1G42fJEqdeBu8KWDONsgeWalzYZ1/2K6PDDxizyvn6alvYtnqAmai6B99a7y4NfJ
rN8CAwEAAaOCAWswggFnMAkGA1UdEwQCMAAwLQYJYIZIAYb4QgENBCAWHkVhc3kt
UlNBIEdlbmVyYXRlZCBDZXJ0aWZpY2F0ZTAdBgNVHQ4EFgQUgiASVL5w4g2LpWjg
B8qts8ThseAwgekGA1UdIwSB4TCB3oAU7ziNFFBYp1tNnBdy/N+5rKdRsBChgbqk
gbcwgbQxCzAJBgNVBAYTAlVTMQswCQYDVQQIEwJDQTEVMBMGA1UEBxMMU2FuRnJh
bmNpc2NvMRUwEwYDVQQKEwxQaXhnbG8sIEluYy4xEDAOBgNVBAsTB1ZQTi1DSUUx
GjAYBgNVBAMTEXR1bm5lbC5waXhnbG8uY29tMRwwGgYDVQQpExNCYWxhIENoYW5k
cmFzZWthcmFuMR4wHAYJKoZIhvcNAQkBFg9iYWxhQHBpeGdsby5jb22CCQCm28aD
gOageTATBgNVHSUEDDAKBggrBgEFBQcDAjALBgNVHQ8EBAMCB4AwDQYJKoZIhvcN
AQEFBQADggIBAKTEsuxepwt864p6gDpULppQ1FO8UOB9Ym9qfvvU1AckivBdspz+
EhJYZAzi49gS3GwOnmYvG65jleRJpZSbYdod7LH2BMSGtV/hBGmcTXCxQxS2/t5L
wJF0mGOtqkSc3qS7U+yUhSeNY6cwe2diFb89kwDqjqO+huMnSHRxQCEl4R3aKmCX
BBaAQHOI/od0te5aNIlAHtU1AlZ95yShPu1E0Bu4SmMCD6GA2ELk5ne5lJCM/cni
iVP2Mp9dEY5yf3b5smpeAbmMpDjRqZx8mPS9PNuwKUrkQka7bNsmt2NoGmyCogGP
i8LdbqFmmJWTRfDDScPRzkzTXUxn4RWankvYkbbWcNWSQUy+8W1GR1hoXDJdoFFP
VkFMBm9839MGg/BiZt9iEi85Nzocc1Y5vd+c4HLWYFLV0ODUwkfDioYGC5TONijn
7rpnJHyAEcDVVavNShjtXdwmFygO6ECZG/usfEpqBUdZut4sId68ewV+0u8NywSt
Q/GZXvVJlSTeETo0+hI8UQzknmpSsu9YEhX7xGs8oDl4SpuY1wN+sYANQKBdefRy
XJP6kEqCtRIoSwNQ4+obwLGp3Zp+jZIg0U7QLX/hsSN+V5I0SzdXTcWbYKsgA5Yv
ethvlWSM4/YZY1RG/b//EwYUUrqptAryuYQV+fH5qLs7cPm1uWV79dGp
-----END CERTIFICATE-----
