Certificate:
    Data:
        Version: 3 (0x2)
        Serial Number: 40 (0x28)
    Signature Algorithm: sha1WithRSAEncryption
        Issuer: C=US, ST=CA, L=SanFrancisco, O=Pixglo, Inc., OU=VPN-CIE, CN=tunnel.pixglo.com/name=Bala Chandrasekaran/emailAddress=bala@pixglo.com
        Validity
            Not Before: Feb 14 06:24:41 2018 GMT
            Not After : Feb 12 06:24:41 2028 GMT
        Subject: C=US, ST=CA, L=SanFrancisco, O=Pixglo, Inc., OU=VPN-CIE, CN=cie39/name=Bala Chandrasekaran/emailAddress=bala@pixglo.com
        Subject Public Key Info:
            Public Key Algorithm: rsaEncryption
                Public-Key: (4096 bit)
                Modulus:
                    00:d6:94:bc:38:ea:11:1b:eb:98:36:91:7c:f7:ca:
                    f3:d7:1d:6b:18:43:cc:9d:d8:b9:5b:fd:26:09:cb:
                    ec:1e:d4:94:c4:3f:e2:8b:26:f6:88:98:1c:27:59:
                    05:f5:a1:02:b7:ea:69:62:c6:02:38:14:d7:88:e4:
                    7c:40:f0:c1:69:49:82:85:e6:2d:22:06:d3:27:df:
                    32:23:ac:c2:7e:ff:32:aa:c9:72:dc:e0:03:38:35:
                    f0:56:00:c9:db:44:25:d2:03:65:af:f6:a3:2a:54:
                    53:12:98:aa:6c:8e:24:94:d9:6e:18:6a:6c:8a:9f:
                    7d:3b:10:bb:06:91:2b:4c:dc:55:3c:e7:57:ea:74:
                    f5:b1:82:04:08:2e:88:63:18:15:50:95:61:d2:1e:
                    f5:75:16:89:fe:2d:36:20:59:9f:20:9f:81:93:45:
                    4b:0d:60:56:ae:12:b3:7e:64:91:8a:78:f3:bb:3b:
                    f3:db:7a:d1:c5:87:3f:65:b3:d7:01:8f:96:ca:ff:
                    17:dc:06:f6:3b:d7:d4:9e:32:c0:72:05:01:db:85:
                    c0:d7:ed:4c:43:75:18:53:b2:0c:0d:d3:87:d5:10:
                    52:cb:2b:47:c7:d2:f0:2a:f4:9c:3a:e2:30:e8:59:
                    db:59:42:90:bc:5d:da:b3:1c:b4:8a:4e:bf:1c:e7:
                    be:91:f8:fc:51:14:0a:35:d1:34:f7:d1:0d:7d:17:
                    48:19:13:ab:7b:de:32:60:f6:6f:6e:b8:fd:05:9a:
                    b2:b8:bd:dc:67:d6:e9:01:05:e1:ac:53:5a:9b:30:
                    fa:95:f6:1f:54:c4:0a:ba:d7:51:7e:04:52:80:86:
                    a2:9f:78:12:74:49:4d:36:61:ab:b2:a4:c3:a1:1e:
                    5b:a8:5f:d8:70:a2:3d:ce:ea:3e:3b:6f:48:b5:34:
                    55:4a:9e:90:12:e1:9e:b8:b5:de:5c:ab:32:df:a7:
                    3a:7e:6e:eb:54:10:78:2b:f1:fa:e7:25:54:6a:01:
                    b4:99:f0:4a:b2:a9:f4:50:46:3d:94:6e:8c:ce:af:
                    64:04:a5:5e:28:b1:eb:d7:de:13:d8:e5:39:22:8d:
                    19:0a:4f:60:25:d3:6a:55:9d:75:fe:da:86:ff:fd:
                    59:30:e6:f6:1f:32:26:28:56:5d:03:9a:18:67:3e:
                    77:24:09:a8:7e:c3:4f:46:07:1f:3c:a4:d4:c1:af:
                    8c:85:6c:02:23:ff:7e:d7:8a:77:a9:f9:9f:50:96:
                    8e:f7:f4:31:31:73:4d:d2:b8:bb:a8:4d:da:6e:70:
                    0d:43:a2:98:d1:88:10:69:a4:01:d9:2d:ca:fd:c0:
                    73:3a:66:da:27:09:53:10:be:e3:3b:7c:1b:8b:61:
                    38:72:53
                Exponent: 65537 (0x10001)
        X509v3 extensions:
            X509v3 Basic Constraints: 
                CA:FALSE
            Netscape Comment: 
                Easy-RSA Generated Certificate
            X509v3 Subject Key Identifier: 
                76:8E:6B:45:35:CC:DC:EC:93:75:E0:68:AD:C7:FA:CC:8E:27:28:04
            X509v3 Authority Key Identifier: 
                keyid:EF:38:8D:14:50:58:A7:5B:4D:9C:17:72:FC:DF:B9:AC:A7:51:B0:10
                DirName:/C=US/ST=CA/L=SanFrancisco/O=Pixglo, Inc./OU=VPN-CIE/CN=tunnel.pixglo.com/name=Bala Chandrasekaran/emailAddress=bala@pixglo.com
                serial:A6:DB:C6:83:80:E6:A0:79

            X509v3 Extended Key Usage: 
                TLS Web Client Authentication
            X509v3 Key Usage: 
                Digital Signature
    Signature Algorithm: sha1WithRSAEncryption
         3b:48:ec:06:9b:d5:1f:03:28:6f:37:ad:a5:40:4e:82:4e:df:
         34:6e:7e:be:c1:08:37:20:49:47:5a:f6:93:2f:85:75:f5:61:
         2a:9f:cc:ae:a6:0b:e3:de:fd:4b:fb:b2:00:24:4f:12:a2:a9:
         14:01:99:21:ca:a5:ba:00:08:e7:ea:85:84:89:f4:28:6e:2b:
         00:6f:0b:23:c6:14:eb:58:17:a1:5b:32:5e:5b:36:23:4f:36:
         60:04:bf:97:b5:34:11:3a:5d:eb:d5:a9:ec:6d:5e:1e:56:58:
         cd:d5:ee:48:26:d1:36:e4:b7:04:9c:bc:38:be:3a:d9:8c:29:
         77:36:ff:4e:f6:84:f7:84:a1:c2:99:9a:8a:1a:7d:5c:31:a9:
         c4:ac:77:ec:a8:50:2e:84:75:3e:72:fe:68:18:d0:1f:cb:e5:
         67:21:59:b6:b0:7b:7c:15:67:62:3b:1e:fd:ea:13:4c:8f:f6:
         95:d1:fa:0f:15:28:2d:ee:bb:81:37:35:12:54:27:1f:fb:b9:
         95:e3:c3:89:ae:27:4b:3e:7d:91:c8:84:10:cd:19:4f:a7:78:
         c2:0c:2c:b3:e4:57:06:86:1f:ba:27:46:a0:b8:7b:be:6b:e1:
         51:d5:93:83:d1:3b:4a:9c:8c:5a:02:26:05:67:5e:71:d2:ed:
         b1:8c:64:da:2b:ca:26:28:e4:28:d9:5d:50:d2:c0:cb:36:45:
         3c:01:b9:28:d5:ec:ea:aa:25:24:78:64:24:fd:4f:66:06:c9:
         94:39:56:c8:88:c3:3f:ff:35:0b:1d:a1:f7:17:c8:e4:48:b8:
         c0:e2:2c:89:f0:6e:13:9e:9c:b4:f1:87:f3:d0:b6:2a:86:02:
         e5:f8:aa:a0:07:13:fd:80:e9:c6:45:a1:16:3f:8e:b8:99:0e:
         8f:69:e2:d2:49:55:e3:0b:a1:b7:94:db:a9:3b:75:16:64:63:
         af:d5:30:4f:09:8f:e5:48:5e:cf:e4:a4:20:10:62:89:73:01:
         61:c6:e6:5a:ea:8f:93:f1:14:eb:bb:08:95:66:92:3d:f3:37:
         2d:b8:ce:3c:68:3b:c0:a0:b3:24:69:ab:38:63:b6:a2:01:fe:
         f6:ed:37:c8:1f:8f:d4:86:54:7a:28:0c:a0:a0:b6:31:26:b9:
         e5:01:ce:3b:33:78:5b:f8:12:32:0b:7b:c5:86:9a:aa:58:c7:
         3f:b0:d7:15:34:b8:ce:74:a6:77:ed:f2:3d:67:53:c1:f8:eb:
         06:d6:f9:c7:f3:0e:79:b0:04:79:2d:1e:f1:4c:96:c7:d6:26:
         8c:e2:be:b4:c9:b8:b5:46:13:43:36:3c:35:a9:16:19:b5:49:
         96:cc:dc:71:4a:7a:ae:c1
-----BEGIN CERTIFICATE-----
MIIHRjCCBS6gAwIBAgIBKDANBgkqhkiG9w0BAQUFADCBtDELMAkGA1UEBhMCVVMx
CzAJBgNVBAgTAkNBMRUwEwYDVQQHEwxTYW5GcmFuY2lzY28xFTATBgNVBAoTDFBp
eGdsbywgSW5jLjEQMA4GA1UECxMHVlBOLUNJRTEaMBgGA1UEAxMRdHVubmVsLnBp
eGdsby5jb20xHDAaBgNVBCkTE0JhbGEgQ2hhbmRyYXNla2FyYW4xHjAcBgkqhkiG
9w0BCQEWD2JhbGFAcGl4Z2xvLmNvbTAeFw0xODAyMTQwNjI0NDFaFw0yODAyMTIw
NjI0NDFaMIGoMQswCQYDVQQGEwJVUzELMAkGA1UECBMCQ0ExFTATBgNVBAcTDFNh
bkZyYW5jaXNjbzEVMBMGA1UEChMMUGl4Z2xvLCBJbmMuMRAwDgYDVQQLEwdWUE4t
Q0lFMQ4wDAYDVQQDEwVjaWUzOTEcMBoGA1UEKRMTQmFsYSBDaGFuZHJhc2VrYXJh
bjEeMBwGCSqGSIb3DQEJARYPYmFsYUBwaXhnbG8uY29tMIICIjANBgkqhkiG9w0B
AQEFAAOCAg8AMIICCgKCAgEA1pS8OOoRG+uYNpF898rz1x1rGEPMndi5W/0mCcvs
HtSUxD/iiyb2iJgcJ1kF9aECt+ppYsYCOBTXiOR8QPDBaUmCheYtIgbTJ98yI6zC
fv8yqsly3OADODXwVgDJ20Ql0gNlr/ajKlRTEpiqbI4klNluGGpsip99OxC7BpEr
TNxVPOdX6nT1sYIECC6IYxgVUJVh0h71dRaJ/i02IFmfIJ+Bk0VLDWBWrhKzfmSR
injzuzvz23rRxYc/ZbPXAY+Wyv8X3Ab2O9fUnjLAcgUB24XA1+1MQ3UYU7IMDdOH
1RBSyytHx9LwKvScOuIw6FnbWUKQvF3asxy0ik6/HOe+kfj8URQKNdE099ENfRdI
GROre94yYPZvbrj9BZqyuL3cZ9bpAQXhrFNamzD6lfYfVMQKutdRfgRSgIain3gS
dElNNmGrsqTDoR5bqF/YcKI9zuo+O29ItTRVSp6QEuGeuLXeXKsy36c6fm7rVBB4
K/H65yVUagG0mfBKsqn0UEY9lG6Mzq9kBKVeKLHr194T2OU5Io0ZCk9gJdNqVZ11
/tqG//1ZMOb2HzImKFZdA5oYZz53JAmofsNPRgcfPKTUwa+MhWwCI/9+14p3qfmf
UJaO9/QxMXNN0ri7qE3abnANQ6KY0YgQaaQB2S3K/cBzOmbaJwlTEL7jO3wbi2E4
clMCAwEAAaOCAWswggFnMAkGA1UdEwQCMAAwLQYJYIZIAYb4QgENBCAWHkVhc3kt
UlNBIEdlbmVyYXRlZCBDZXJ0aWZpY2F0ZTAdBgNVHQ4EFgQUdo5rRTXM3OyTdeBo
rcf6zI4nKAQwgekGA1UdIwSB4TCB3oAU7ziNFFBYp1tNnBdy/N+5rKdRsBChgbqk
gbcwgbQxCzAJBgNVBAYTAlVTMQswCQYDVQQIEwJDQTEVMBMGA1UEBxMMU2FuRnJh
bmNpc2NvMRUwEwYDVQQKEwxQaXhnbG8sIEluYy4xEDAOBgNVBAsTB1ZQTi1DSUUx
GjAYBgNVBAMTEXR1bm5lbC5waXhnbG8uY29tMRwwGgYDVQQpExNCYWxhIENoYW5k
cmFzZWthcmFuMR4wHAYJKoZIhvcNAQkBFg9iYWxhQHBpeGdsby5jb22CCQCm28aD
gOageTATBgNVHSUEDDAKBggrBgEFBQcDAjALBgNVHQ8EBAMCB4AwDQYJKoZIhvcN
AQEFBQADggIBADtI7Aab1R8DKG83raVAToJO3zRufr7BCDcgSUda9pMvhXX1YSqf
zK6mC+Pe/Uv7sgAkTxKiqRQBmSHKpboACOfqhYSJ9ChuKwBvCyPGFOtYF6FbMl5b
NiNPNmAEv5e1NBE6XevVqextXh5WWM3V7kgm0TbktwScvDi+OtmMKXc2/072hPeE
ocKZmooafVwxqcSsd+yoUC6EdT5y/mgY0B/L5WchWbawe3wVZ2I7Hv3qE0yP9pXR
+g8VKC3uu4E3NRJUJx/7uZXjw4muJ0s+fZHIhBDNGU+neMIMLLPkVwaGH7onRqC4
e75r4VHVk4PRO0qcjFoCJgVnXnHS7bGMZNoryiYo5CjZXVDSwMs2RTwBuSjV7Oqq
JSR4ZCT9T2YGyZQ5VsiIwz//NQsdofcXyORIuMDiLInwbhOenLTxh/PQtiqGAuX4
qqAHE/2A6cZFoRY/jriZDo9p4tJJVeMLobeU26k7dRZkY6/VME8Jj+VIXs/kpCAQ
YolzAWHG5lrqj5PxFOu7CJVmkj3zNy24zjxoO8CgsyRpqzhjtqIB/vbtN8gfj9SG
VHooDKCgtjEmueUBzjszeFv4EjILe8WGmqpYxz+w1xU0uM50pnft8j1nU8H46wbW
+cfzDnmwBHktHvFMlsfWJozivrTJuLVGE0M2PDWpFhm1SZbM3HFKeq7B
-----END CERTIFICATE-----
