Certificate:
    Data:
        Version: 3 (0x2)
        Serial Number: 41 (0x29)
    Signature Algorithm: sha1WithRSAEncryption
        Issuer: C=US, ST=CA, L=SanFrancisco, O=Pixglo, Inc., OU=VPN-CIE, CN=tunnel.pixglo.com/name=Bala Chandrasekaran/emailAddress=bala@pixglo.com
        Validity
            Not Before: Feb 14 06:24:41 2018 GMT
            Not After : Feb 12 06:24:41 2028 GMT
        Subject: C=US, ST=CA, L=SanFrancisco, O=Pixglo, Inc., OU=VPN-CIE, CN=cie40/name=Bala Chandrasekaran/emailAddress=bala@pixglo.com
        Subject Public Key Info:
            Public Key Algorithm: rsaEncryption
                Public-Key: (4096 bit)
                Modulus:
                    00:bf:50:c1:e7:b0:83:8d:6f:7b:79:4a:03:e6:82:
                    d6:52:ce:45:e3:9f:3e:a9:cf:13:fa:be:40:f5:66:
                    c6:7f:f9:c3:6a:e7:4f:ac:57:b1:08:17:3b:ea:6e:
                    f3:2c:b3:20:8e:5f:1b:45:76:f7:ee:b5:24:c4:6f:
                    a0:d4:70:61:8d:32:e8:c6:19:90:57:2d:4b:55:48:
                    69:b1:b7:88:53:5d:d8:bf:b8:03:59:42:e0:05:c9:
                    3c:2d:fb:aa:af:40:5e:d6:71:99:0b:17:e4:14:03:
                    8c:2d:99:cc:a0:82:ac:a7:bf:11:f3:2f:b8:ee:dd:
                    03:90:5b:1a:ca:3a:49:ed:0a:95:bd:23:06:f4:a2:
                    4d:d9:3c:89:b4:2b:c0:df:9d:24:b7:7e:e7:28:78:
                    52:60:45:ff:25:90:bd:50:46:c3:45:cb:ef:c4:73:
                    b9:a6:ef:51:38:df:71:15:64:bb:1f:ce:3d:fc:2c:
                    b6:9d:bb:f1:68:b7:c6:49:87:00:58:0e:13:1f:ad:
                    14:51:68:05:75:f4:ad:24:c0:01:5e:1b:08:0a:50:
                    db:91:5f:fe:b0:f5:6e:5c:b0:6b:3a:9d:35:d1:e0:
                    fb:ff:8b:a1:05:9f:f6:63:a2:35:49:9c:9a:df:5b:
                    9a:7a:47:be:12:ef:29:74:fb:cb:36:59:f7:59:a4:
                    4e:7c:f8:c3:2c:9e:64:18:17:cf:8c:ec:15:00:f0:
                    66:2d:98:62:ed:33:e8:23:38:73:33:8e:be:75:1f:
                    17:c1:c1:f8:37:f5:84:f0:8d:95:d6:04:2a:5e:5d:
                    1f:12:2e:1a:4c:83:3b:60:ca:20:57:9b:ec:56:51:
                    a6:a6:ea:61:4e:81:55:83:a1:8a:cf:cd:36:dc:0c:
                    f2:8f:af:7b:03:db:ba:77:d5:db:0a:7a:6d:2d:b5:
                    7f:ac:a5:2e:c3:05:e5:4c:e0:61:7b:18:18:d9:24:
                    f4:55:4f:3a:66:72:1c:63:f5:b0:bc:de:02:87:db:
                    9d:50:3b:10:aa:72:56:d0:fd:fc:28:10:e2:59:31:
                    9a:57:7e:d7:c1:d5:4f:8d:3b:85:bb:b8:3a:e4:47:
                    7a:22:0e:68:c4:74:36:0c:7c:0e:c4:bc:2a:cf:b7:
                    99:38:4d:0e:41:50:ff:5c:e3:26:d4:5f:a1:a9:91:
                    f8:a6:87:64:f2:f1:b4:0a:97:c2:f0:1b:ff:ec:19:
                    ec:40:2b:fa:44:32:99:50:2b:82:c0:64:1f:65:59:
                    1a:94:3e:45:36:60:71:2c:f3:bc:da:4d:36:9f:49:
                    a7:1e:ef:0c:80:5b:e8:13:48:af:38:49:0d:77:21:
                    02:5d:60:64:4a:45:41:d6:de:90:7a:a1:10:c8:dd:
                    e1:29:7f
                Exponent: 65537 (0x10001)
        X509v3 extensions:
            X509v3 Basic Constraints: 
                CA:FALSE
            Netscape Comment: 
                Easy-RSA Generated Certificate
            X509v3 Subject Key Identifier: 
                2C:4B:7F:97:30:EF:59:E1:9B:CE:39:66:B8:21:1F:F5:6F:6A:01:35
            X509v3 Authority Key Identifier: 
                keyid:EF:38:8D:14:50:58:A7:5B:4D:9C:17:72:FC:DF:B9:AC:A7:51:B0:10
                DirName:/C=US/ST=CA/L=SanFrancisco/O=Pixglo, Inc./OU=VPN-CIE/CN=tunnel.pixglo.com/name=Bala Chandrasekaran/emailAddress=bala@pixglo.com
                serial:A6:DB:C6:83:80:E6:A0:79

            X509v3 Extended Key Usage: 
                TLS Web Client Authentication
            X509v3 Key Usage: 
                Digital Signature
    Signature Algorithm: sha1WithRSAEncryption
         85:78:52:b5:eb:2a:3b:49:08:35:2c:0a:66:7a:56:1b:ee:3d:
         ab:91:63:58:2d:d6:41:f8:af:d9:02:b4:a7:0c:4a:75:39:70:
         92:59:7e:e5:11:3c:51:6c:7e:19:38:d6:10:d7:e5:59:ba:87:
         bb:35:0d:b7:c1:29:93:6b:25:0d:f4:64:e7:36:04:3f:f9:a4:
         40:3d:15:14:fa:25:25:29:31:c8:39:e1:5e:57:f8:a4:84:96:
         6e:cb:99:a9:37:02:f6:d7:9b:6e:8e:54:5d:55:c2:57:21:c8:
         1e:58:f6:5b:0d:64:a6:ec:a1:a6:ce:15:89:db:73:f5:1f:20:
         28:02:7f:be:5c:1b:6c:a9:a8:16:2d:df:4d:30:c9:27:02:20:
         59:7a:da:c5:26:c6:25:1e:04:d6:7f:85:c0:2d:d2:26:27:e1:
         a3:66:24:53:c1:7e:95:c1:76:3b:fc:d5:38:d2:a8:6c:22:e2:
         42:89:79:f8:3d:50:24:38:3f:22:52:d1:31:88:89:1c:10:38:
         68:7b:5c:d1:53:19:ea:10:85:a1:1f:89:a2:69:52:fb:d3:e9:
         b9:5e:33:8d:60:85:ed:27:23:06:5c:26:87:12:d3:10:42:38:
         0e:e9:e7:c4:dc:a1:39:b4:9a:df:e2:6e:7b:6c:89:8e:32:99:
         30:7a:48:98:0a:41:b3:b3:7b:ee:84:e3:cc:6f:3b:cf:cc:5d:
         61:63:fd:c1:6d:4e:2a:01:6e:2e:11:3f:3b:b1:e0:a1:ed:4e:
         f6:d7:a1:85:aa:f3:9a:78:36:f7:d3:7b:5b:39:c2:b8:da:81:
         7b:43:2f:00:bc:65:e2:73:d4:90:9f:aa:62:cf:6c:fe:0e:e3:
         6e:75:e4:dd:b5:de:0e:83:db:b2:6d:40:07:b6:c4:01:19:18:
         ba:60:46:93:f4:bc:b9:aa:7d:c0:22:0a:98:ef:49:6c:47:5f:
         02:85:30:7a:e5:ea:cb:1c:d1:f1:5f:4d:4f:c4:5c:77:ab:a9:
         87:9a:7d:b2:c6:73:47:9e:5f:03:f0:b7:ba:a3:1b:a5:79:64:
         fc:32:ee:1d:25:51:71:b6:88:10:7d:d1:b5:2f:d9:97:89:56:
         d1:ff:e1:07:64:9d:b2:08:4a:37:51:2e:2a:9f:21:e6:09:ce:
         d5:1a:a4:64:70:dc:f7:b5:02:2f:5b:fc:c4:82:af:9f:69:b9:
         78:31:21:80:d1:b4:b7:d5:12:e1:5e:91:d9:44:f5:e1:12:7a:
         74:ea:53:bd:51:e1:12:eb:8d:d2:f3:02:86:af:85:98:16:ea:
         50:b5:ff:9e:b9:50:ec:c2:0e:4b:a6:2a:e6:1d:62:4f:85:94:
         ae:bc:6c:ce:52:49:d9:71
-----BEGIN CERTIFICATE-----
MIIHRjCCBS6gAwIBAgIBKTANBgkqhkiG9w0BAQUFADCBtDELMAkGA1UEBhMCVVMx
CzAJBgNVBAgTAkNBMRUwEwYDVQQHEwxTYW5GcmFuY2lzY28xFTATBgNVBAoTDFBp
eGdsbywgSW5jLjEQMA4GA1UECxMHVlBOLUNJRTEaMBgGA1UEAxMRdHVubmVsLnBp
eGdsby5jb20xHDAaBgNVBCkTE0JhbGEgQ2hhbmRyYXNla2FyYW4xHjAcBgkqhkiG
9w0BCQEWD2JhbGFAcGl4Z2xvLmNvbTAeFw0xODAyMTQwNjI0NDFaFw0yODAyMTIw
NjI0NDFaMIGoMQswCQYDVQQGEwJVUzELMAkGA1UECBMCQ0ExFTATBgNVBAcTDFNh
bkZyYW5jaXNjbzEVMBMGA1UEChMMUGl4Z2xvLCBJbmMuMRAwDgYDVQQLEwdWUE4t
Q0lFMQ4wDAYDVQQDEwVjaWU0MDEcMBoGA1UEKRMTQmFsYSBDaGFuZHJhc2VrYXJh
bjEeMBwGCSqGSIb3DQEJARYPYmFsYUBwaXhnbG8uY29tMIICIjANBgkqhkiG9w0B
AQEFAAOCAg8AMIICCgKCAgEAv1DB57CDjW97eUoD5oLWUs5F458+qc8T+r5A9WbG
f/nDaudPrFexCBc76m7zLLMgjl8bRXb37rUkxG+g1HBhjTLoxhmQVy1LVUhpsbeI
U13Yv7gDWULgBck8Lfuqr0Be1nGZCxfkFAOMLZnMoIKsp78R8y+47t0DkFsayjpJ
7QqVvSMG9KJN2TyJtCvA350kt37nKHhSYEX/JZC9UEbDRcvvxHO5pu9RON9xFWS7
H849/Cy2nbvxaLfGSYcAWA4TH60UUWgFdfStJMABXhsIClDbkV/+sPVuXLBrOp01
0eD7/4uhBZ/2Y6I1SZya31uaeke+Eu8pdPvLNln3WaROfPjDLJ5kGBfPjOwVAPBm
LZhi7TPoIzhzM46+dR8XwcH4N/WE8I2V1gQqXl0fEi4aTIM7YMogV5vsVlGmpuph
ToFVg6GKz8023Azyj697A9u6d9XbCnptLbV/rKUuwwXlTOBhexgY2ST0VU86ZnIc
Y/WwvN4Ch9udUDsQqnJW0P38KBDiWTGaV37XwdVPjTuFu7g65Ed6Ig5oxHQ2DHwO
xLwqz7eZOE0OQVD/XOMm1F+hqZH4podk8vG0CpfC8Bv/7BnsQCv6RDKZUCuCwGQf
ZVkalD5FNmBxLPO82k02n0mnHu8MgFvoE0ivOEkNdyECXWBkSkVB1t6QeqEQyN3h
KX8CAwEAAaOCAWswggFnMAkGA1UdEwQCMAAwLQYJYIZIAYb4QgENBCAWHkVhc3kt
UlNBIEdlbmVyYXRlZCBDZXJ0aWZpY2F0ZTAdBgNVHQ4EFgQULEt/lzDvWeGbzjlm
uCEf9W9qATUwgekGA1UdIwSB4TCB3oAU7ziNFFBYp1tNnBdy/N+5rKdRsBChgbqk
gbcwgbQxCzAJBgNVBAYTAlVTMQswCQYDVQQIEwJDQTEVMBMGA1UEBxMMU2FuRnJh
bmNpc2NvMRUwEwYDVQQKEwxQaXhnbG8sIEluYy4xEDAOBgNVBAsTB1ZQTi1DSUUx
GjAYBgNVBAMTEXR1bm5lbC5waXhnbG8uY29tMRwwGgYDVQQpExNCYWxhIENoYW5k
cmFzZWthcmFuMR4wHAYJKoZIhvcNAQkBFg9iYWxhQHBpeGdsby5jb22CCQCm28aD
gOageTATBgNVHSUEDDAKBggrBgEFBQcDAjALBgNVHQ8EBAMCB4AwDQYJKoZIhvcN
AQEFBQADggIBAIV4UrXrKjtJCDUsCmZ6VhvuPauRY1gt1kH4r9kCtKcMSnU5cJJZ
fuURPFFsfhk41hDX5Vm6h7s1DbfBKZNrJQ30ZOc2BD/5pEA9FRT6JSUpMcg54V5X
+KSElm7Lmak3AvbXm26OVF1VwlchyB5Y9lsNZKbsoabOFYnbc/UfICgCf75cG2yp
qBYt300wyScCIFl62sUmxiUeBNZ/hcAt0iYn4aNmJFPBfpXBdjv81TjSqGwi4kKJ
efg9UCQ4PyJS0TGIiRwQOGh7XNFTGeoQhaEfiaJpUvvT6bleM41ghe0nIwZcJocS
0xBCOA7p58TcoTm0mt/ibntsiY4ymTB6SJgKQbOze+6E48xvO8/MXWFj/cFtTioB
bi4RPzux4KHtTvbXoYWq85p4NvfTe1s5wrjagXtDLwC8ZeJz1JCfqmLPbP4O4251
5N213g6D27JtQAe2xAEZGLpgRpP0vLmqfcAiCpjvSWxHXwKFMHrl6ssc0fFfTU/E
XHerqYeafbLGc0eeXwPwt7qjG6V5ZPwy7h0lUXG2iBB90bUv2ZeJVtH/4QdknbII
SjdRLiqfIeYJztUapGRw3Pe1Ai9b/MSCr59puXgxIYDRtLfVEuFekdlE9eESenTq
U71R4RLrjdLzAoavhZgW6lC1/565UOzCDkumKuYdYk+FlK68bM5SSdlx
-----END CERTIFICATE-----
