Certificate:
    Data:
        Version: 3 (0x2)
        Serial Number: 44 (0x2c)
    Signature Algorithm: sha1WithRSAEncryption
        Issuer: C=US, ST=CA, L=SanFrancisco, O=Pixglo, Inc., OU=VPN-CIE, CN=tunnel.pixglo.com/name=Bala Chandrasekaran/emailAddress=bala@pixglo.com
        Validity
            Not Before: Feb 14 06:24:45 2018 GMT
            Not After : Feb 12 06:24:45 2028 GMT
        Subject: C=US, ST=CA, L=SanFrancisco, O=Pixglo, Inc., OU=VPN-CIE, CN=cie43/name=Bala Chandrasekaran/emailAddress=bala@pixglo.com
        Subject Public Key Info:
            Public Key Algorithm: rsaEncryption
                Public-Key: (4096 bit)
                Modulus:
                    00:e5:16:60:01:f4:6b:31:81:97:54:45:c3:28:9a:
                    01:6d:c1:b3:2f:1f:ab:24:a1:21:a1:0a:a1:b9:c5:
                    ed:56:cc:1c:0f:15:2b:f9:b8:93:d5:32:e8:17:20:
                    e8:df:17:3d:c2:3a:93:6b:9f:38:c7:b5:bb:0a:66:
                    ab:0b:10:3e:0f:a4:b4:85:c3:61:a4:2c:6f:4b:53:
                    e2:a4:00:02:3e:98:83:a6:b1:06:8f:ba:56:58:86:
                    fe:d0:b1:5d:77:48:3b:49:54:fd:14:3f:78:80:04:
                    f4:29:ef:1c:c7:90:da:88:24:b4:23:f6:8e:31:b3:
                    22:6f:4d:d7:28:67:46:bb:e0:49:2c:05:a2:97:6b:
                    76:41:00:1d:0b:5d:43:ee:91:ee:f5:ed:2b:11:76:
                    8c:f9:ad:20:95:c0:e8:c7:28:14:fc:93:61:3e:f9:
                    03:d5:bf:f2:73:af:b0:81:0e:2e:f8:e2:4a:44:b7:
                    01:d7:76:19:eb:28:8b:c0:cb:8d:20:de:9f:08:83:
                    ec:6b:9f:6f:56:17:00:0f:39:37:29:42:b3:6d:0d:
                    5c:14:38:e6:90:01:e3:5d:8d:6c:8e:de:d1:31:0a:
                    87:01:ec:70:4f:26:33:59:4a:8b:4c:99:15:8e:d0:
                    29:b9:6c:89:5b:10:33:10:3e:0e:ff:0c:2d:2f:9e:
                    bf:69:cf:3c:75:cd:06:e8:cd:28:9c:b2:c9:ed:69:
                    5e:18:01:49:1b:0d:a6:51:05:6d:29:e6:b0:24:22:
                    36:8a:f8:2c:ca:a4:a3:f8:c9:fe:29:6a:65:da:b6:
                    3d:68:15:b9:c7:27:d6:72:a0:f9:15:7b:9a:b9:0b:
                    64:91:06:8d:e4:ec:66:4a:c9:99:74:82:11:21:6e:
                    87:86:44:0d:87:91:91:e8:a4:d5:39:1d:24:f0:b8:
                    0e:af:ae:e1:fd:be:c3:08:48:f9:37:84:0f:da:9e:
                    38:0f:5d:09:fe:bc:0d:9a:8c:35:c3:5f:51:24:18:
                    04:ac:68:f5:9a:af:ab:83:c7:50:21:6b:c3:14:1a:
                    9e:ce:e6:3b:93:a1:e9:42:dc:2d:b9:69:b1:4e:bf:
                    9d:f3:41:6b:02:af:2e:db:e7:53:5b:13:a4:8e:84:
                    69:5d:57:f9:17:38:13:a3:46:c1:f7:3c:93:49:15:
                    92:5f:8f:59:fb:e5:05:73:c2:46:1d:dd:55:ba:f2:
                    87:1b:86:5b:12:af:e7:52:14:f4:51:d0:42:ec:a8:
                    d4:e4:e0:15:8c:99:0d:48:b2:6c:d9:c5:24:eb:05:
                    e6:99:c2:42:66:a7:82:d9:dd:14:71:86:b5:1d:1a:
                    b5:6d:db:6e:5f:a8:3c:63:69:69:8a:77:c9:7d:3c:
                    7c:96:3b
                Exponent: 65537 (0x10001)
        X509v3 extensions:
            X509v3 Basic Constraints: 
                CA:FALSE
            Netscape Comment: 
                Easy-RSA Generated Certificate
            X509v3 Subject Key Identifier: 
                BF:5A:ED:1C:ED:21:E6:29:AE:DC:69:C3:1D:CF:6A:DD:36:22:50:1F
            X509v3 Authority Key Identifier: 
                keyid:EF:38:8D:14:50:58:A7:5B:4D:9C:17:72:FC:DF:B9:AC:A7:51:B0:10
                DirName:/C=US/ST=CA/L=SanFrancisco/O=Pixglo, Inc./OU=VPN-CIE/CN=tunnel.pixglo.com/name=Bala Chandrasekaran/emailAddress=bala@pixglo.com
                serial:A6:DB:C6:83:80:E6:A0:79

            X509v3 Extended Key Usage: 
                TLS Web Client Authentication
            X509v3 Key Usage: 
                Digital Signature
    Signature Algorithm: sha1WithRSAEncryption
         0d:32:3e:33:dc:c0:e7:c1:1b:dd:47:d9:b8:1d:5e:11:92:b9:
         c1:9e:55:49:66:64:32:d1:b6:f0:33:c9:c4:17:ed:7d:f4:33:
         f5:be:ab:86:e2:18:c2:18:a8:63:f0:0c:99:4b:4e:e0:5a:cc:
         0d:c0:e0:f8:4c:d4:3a:e7:5a:6a:38:3a:3e:b8:88:42:af:9f:
         9b:bc:5c:d2:25:11:a9:7a:fc:81:de:1a:51:42:e9:b1:09:87:
         8b:97:eb:bc:43:2a:29:93:2e:28:5e:7e:39:04:ca:16:be:0d:
         d5:82:c6:b6:13:a8:d0:cb:af:0b:aa:1e:6b:45:15:60:8e:00:
         e6:79:be:bf:0e:04:27:97:ae:f1:8f:eb:7c:b8:0a:4e:40:21:
         0f:96:eb:f2:de:be:4d:2e:c6:a1:f7:5f:da:e4:ad:fb:d2:00:
         2c:10:b6:82:89:29:47:ec:0b:b3:fa:b1:64:f6:b8:9e:19:9c:
         9c:3a:52:aa:b4:66:53:ea:ec:4c:5a:e8:0e:10:98:01:59:25:
         b3:89:27:36:e6:23:00:2a:ad:ae:48:59:e9:07:c8:a4:76:0a:
         df:29:5c:5c:c5:20:df:bd:ca:d0:a6:bd:87:dc:d5:09:0d:04:
         02:4d:18:1a:97:3b:02:9c:65:91:73:e6:a8:4f:2a:3e:67:d6:
         94:80:b3:1e:39:5b:b2:70:97:62:b5:86:ba:52:46:7e:4d:c4:
         fa:1f:4d:c4:50:b6:1a:eb:dc:80:1d:e9:3b:ce:04:19:a9:e2:
         ab:24:13:34:48:f6:0e:33:3e:47:3f:f7:6d:9d:bd:e5:60:66:
         47:c0:ff:cd:85:e3:6c:ff:e9:f7:4f:ba:2e:74:e5:0a:a3:97:
         bb:6f:74:e5:ce:f3:e4:16:05:f4:49:3d:34:cd:2f:f1:6c:f7:
         bf:00:5d:28:22:38:16:d4:eb:4d:24:36:7a:57:04:bb:68:71:
         6f:b5:1e:89:4f:de:dd:41:e0:dc:9c:4f:7c:7b:29:80:2e:83:
         29:4f:27:bb:8f:58:e9:69:5e:bc:3f:c7:b2:4c:34:53:6b:2b:
         8a:85:4e:96:09:2e:2e:d4:1d:61:8f:c0:e6:09:3a:de:e0:27:
         3f:f8:dd:e0:26:33:0e:cb:54:3c:b2:54:f1:8f:aa:77:fe:09:
         30:a2:d7:8e:5a:7c:3e:73:7d:50:a8:fc:19:50:9f:29:83:9e:
         9c:c5:97:61:6b:26:8e:76:79:55:b8:d4:a6:5b:47:1c:1a:58:
         49:7a:bd:ff:7a:a9:b0:89:c5:08:a7:df:a0:2d:d2:af:63:0c:
         67:42:ca:65:ee:e1:68:14:ac:c7:c4:16:35:70:8a:67:38:4c:
         f7:96:53:2e:c3:7c:5c:09
-----BEGIN CERTIFICATE-----
MIIHRjCCBS6gAwIBAgIBLDANBgkqhkiG9w0BAQUFADCBtDELMAkGA1UEBhMCVVMx
CzAJBgNVBAgTAkNBMRUwEwYDVQQHEwxTYW5GcmFuY2lzY28xFTATBgNVBAoTDFBp
eGdsbywgSW5jLjEQMA4GA1UECxMHVlBOLUNJRTEaMBgGA1UEAxMRdHVubmVsLnBp
eGdsby5jb20xHDAaBgNVBCkTE0JhbGEgQ2hhbmRyYXNla2FyYW4xHjAcBgkqhkiG
9w0BCQEWD2JhbGFAcGl4Z2xvLmNvbTAeFw0xODAyMTQwNjI0NDVaFw0yODAyMTIw
NjI0NDVaMIGoMQswCQYDVQQGEwJVUzELMAkGA1UECBMCQ0ExFTATBgNVBAcTDFNh
bkZyYW5jaXNjbzEVMBMGA1UEChMMUGl4Z2xvLCBJbmMuMRAwDgYDVQQLEwdWUE4t
Q0lFMQ4wDAYDVQQDEwVjaWU0MzEcMBoGA1UEKRMTQmFsYSBDaGFuZHJhc2VrYXJh
bjEeMBwGCSqGSIb3DQEJARYPYmFsYUBwaXhnbG8uY29tMIICIjANBgkqhkiG9w0B
AQEFAAOCAg8AMIICCgKCAgEA5RZgAfRrMYGXVEXDKJoBbcGzLx+rJKEhoQqhucXt
VswcDxUr+biT1TLoFyDo3xc9wjqTa584x7W7CmarCxA+D6S0hcNhpCxvS1PipAAC
PpiDprEGj7pWWIb+0LFdd0g7SVT9FD94gAT0Ke8cx5DaiCS0I/aOMbMib03XKGdG
u+BJLAWil2t2QQAdC11D7pHu9e0rEXaM+a0glcDoxygU/JNhPvkD1b/yc6+wgQ4u
+OJKRLcB13YZ6yiLwMuNIN6fCIPsa59vVhcADzk3KUKzbQ1cFDjmkAHjXY1sjt7R
MQqHAexwTyYzWUqLTJkVjtApuWyJWxAzED4O/wwtL56/ac88dc0G6M0onLLJ7Wle
GAFJGw2mUQVtKeawJCI2ivgsyqSj+Mn+KWpl2rY9aBW5xyfWcqD5FXuauQtkkQaN
5OxmSsmZdIIRIW6HhkQNh5GR6KTVOR0k8LgOr67h/b7DCEj5N4QP2p44D10J/rwN
mow1w19RJBgErGj1mq+rg8dQIWvDFBqezuY7k6HpQtwtuWmxTr+d80FrAq8u2+dT
WxOkjoRpXVf5FzgTo0bB9zyTSRWSX49Z++UFc8JGHd1VuvKHG4ZbEq/nUhT0UdBC
7KjU5OAVjJkNSLJs2cUk6wXmmcJCZqeC2d0UcYa1HRq1bdtuX6g8Y2lpinfJfTx8
ljsCAwEAAaOCAWswggFnMAkGA1UdEwQCMAAwLQYJYIZIAYb4QgENBCAWHkVhc3kt
UlNBIEdlbmVyYXRlZCBDZXJ0aWZpY2F0ZTAdBgNVHQ4EFgQUv1rtHO0h5imu3GnD
Hc9q3TYiUB8wgekGA1UdIwSB4TCB3oAU7ziNFFBYp1tNnBdy/N+5rKdRsBChgbqk
gbcwgbQxCzAJBgNVBAYTAlVTMQswCQYDVQQIEwJDQTEVMBMGA1UEBxMMU2FuRnJh
bmNpc2NvMRUwEwYDVQQKEwxQaXhnbG8sIEluYy4xEDAOBgNVBAsTB1ZQTi1DSUUx
GjAYBgNVBAMTEXR1bm5lbC5waXhnbG8uY29tMRwwGgYDVQQpExNCYWxhIENoYW5k
cmFzZWthcmFuMR4wHAYJKoZIhvcNAQkBFg9iYWxhQHBpeGdsby5jb22CCQCm28aD
gOageTATBgNVHSUEDDAKBggrBgEFBQcDAjALBgNVHQ8EBAMCB4AwDQYJKoZIhvcN
AQEFBQADggIBAA0yPjPcwOfBG91H2bgdXhGSucGeVUlmZDLRtvAzycQX7X30M/W+
q4biGMIYqGPwDJlLTuBazA3A4PhM1DrnWmo4Oj64iEKvn5u8XNIlEal6/IHeGlFC
6bEJh4uX67xDKimTLihefjkEyha+DdWCxrYTqNDLrwuqHmtFFWCOAOZ5vr8OBCeX
rvGP63y4Ck5AIQ+W6/Levk0uxqH3X9rkrfvSACwQtoKJKUfsC7P6sWT2uJ4ZnJw6
Uqq0ZlPq7Exa6A4QmAFZJbOJJzbmIwAqra5IWekHyKR2Ct8pXFzFIN+9ytCmvYfc
1QkNBAJNGBqXOwKcZZFz5qhPKj5n1pSAsx45W7Jwl2K1hrpSRn5NxPofTcRQthrr
3IAd6TvOBBmp4qskEzRI9g4zPkc/922dveVgZkfA/82F42z/6fdPui505Qqjl7tv
dOXO8+QWBfRJPTTNL/Fs978AXSgiOBbU600kNnpXBLtocW+1HolP3t1B4NycT3x7
KYAugylPJ7uPWOlpXrw/x7JMNFNrK4qFTpYJLi7UHWGPwOYJOt7gJz/43eAmMw7L
VDyyVPGPqnf+CTCi145afD5zfVCo/BlQnymDnpzFl2FrJo52eVW41KZbRxwaWEl6
vf96qbCJxQin36At0q9jDGdCymXu4WgUrMfEFjVwimc4TPeWUy7DfFwJ
-----END CERTIFICATE-----
