Certificate:
    Data:
        Version: 3 (0x2)
        Serial Number: 45 (0x2d)
    Signature Algorithm: sha1WithRSAEncryption
        Issuer: C=US, ST=CA, L=SanFrancisco, O=Pixglo, Inc., OU=VPN-CIE, CN=tunnel.pixglo.com/name=Bala Chandrasekaran/emailAddress=bala@pixglo.com
        Validity
            Not Before: Feb 14 06:24:48 2018 GMT
            Not After : Feb 12 06:24:48 2028 GMT
        Subject: C=US, ST=CA, L=SanFrancisco, O=Pixglo, Inc., OU=VPN-CIE, CN=cie44/name=Bala Chandrasekaran/emailAddress=bala@pixglo.com
        Subject Public Key Info:
            Public Key Algorithm: rsaEncryption
                Public-Key: (4096 bit)
                Modulus:
                    00:d5:23:c6:01:0e:a6:e2:e3:f6:72:7c:6a:10:63:
                    d6:99:a3:36:2c:ba:5e:c2:ff:f0:9d:30:5f:3e:a6:
                    14:12:05:8e:17:f2:6d:ad:c2:4c:64:42:25:be:fc:
                    4e:ae:0f:d6:29:89:a6:c5:92:23:11:26:21:94:02:
                    9d:a5:60:20:a7:ba:dd:68:16:53:b3:48:ee:0f:72:
                    dd:e6:99:c4:71:bf:e2:06:24:7e:81:42:6f:8e:f5:
                    28:fb:4b:37:66:f4:7d:fc:4d:06:2a:2b:29:2c:66:
                    f1:0a:0f:54:42:f8:6e:ad:54:b4:ca:75:b2:2a:ef:
                    ea:8d:54:ff:d3:92:05:8b:f0:ae:db:37:97:98:80:
                    16:a5:e5:07:c2:93:82:19:2f:ea:12:68:9f:09:b0:
                    d4:0b:bd:3a:14:33:ab:0e:27:2b:39:53:08:6d:09:
                    99:28:cf:27:07:5e:c2:c8:7b:29:9e:ae:ce:43:ee:
                    e7:91:0f:a4:7e:68:ab:12:9b:11:34:37:1d:39:f0:
                    fb:df:6c:c3:4f:d7:fb:4b:35:e5:63:3c:83:43:ca:
                    69:86:cc:4f:7c:5d:e8:19:81:a2:fc:25:85:f6:61:
                    99:fe:fb:b4:4c:ef:45:93:de:37:ec:44:85:60:7e:
                    64:83:e0:d0:70:13:20:cd:aa:2d:3c:ff:f0:5b:84:
                    82:a2:2d:bf:e2:d7:81:48:fb:bb:a5:d9:f7:d6:2b:
                    b1:4a:0d:a5:66:44:71:b4:8a:75:b3:04:ac:5b:5c:
                    92:bc:90:95:76:48:59:ff:e6:92:ad:d4:fe:82:a4:
                    87:29:ca:77:0d:0a:e5:2f:5e:6c:25:d0:31:bf:db:
                    ee:7b:9e:e9:7f:84:2b:b2:8c:ce:ac:55:82:39:3a:
                    c1:a3:18:ce:f6:1d:c6:69:c4:55:80:5e:13:32:74:
                    88:60:fc:e1:fc:2b:63:6e:79:71:e4:96:1c:0e:34:
                    55:af:78:7d:9e:93:6d:e5:5a:78:71:e5:c5:08:41:
                    5d:b9:65:ac:ea:38:1e:6d:21:67:10:51:af:ed:69:
                    46:4b:7d:f1:8f:63:b1:2f:00:8b:49:c4:f1:8c:38:
                    c3:47:15:27:ae:84:27:4c:fd:57:77:52:c4:61:5d:
                    cc:35:79:da:7e:ab:e8:97:e9:6e:da:f2:4c:0b:53:
                    9f:2c:70:41:3b:55:b2:47:5d:3d:7e:a1:0d:43:ef:
                    54:31:a3:17:b2:88:fc:06:b9:72:d0:de:05:46:64:
                    96:89:08:44:dc:7e:6c:02:c7:16:62:d0:c0:d3:d9:
                    9c:67:99:bb:21:2f:ea:4e:1a:02:ed:13:35:1f:0d:
                    dd:ab:c2:be:1c:24:2a:38:c9:61:c7:5a:10:06:4d:
                    3c:a7:83
                Exponent: 65537 (0x10001)
        X509v3 extensions:
            X509v3 Basic Constraints: 
                CA:FALSE
            Netscape Comment: 
                Easy-RSA Generated Certificate
            X509v3 Subject Key Identifier: 
                E1:8B:82:67:9B:40:D2:9B:67:81:C9:BF:93:EF:54:6B:97:09:65:52
            X509v3 Authority Key Identifier: 
                keyid:EF:38:8D:14:50:58:A7:5B:4D:9C:17:72:FC:DF:B9:AC:A7:51:B0:10
                DirName:/C=US/ST=CA/L=SanFrancisco/O=Pixglo, Inc./OU=VPN-CIE/CN=tunnel.pixglo.com/name=Bala Chandrasekaran/emailAddress=bala@pixglo.com
                serial:A6:DB:C6:83:80:E6:A0:79

            X509v3 Extended Key Usage: 
                TLS Web Client Authentication
            X509v3 Key Usage: 
                Digital Signature
    Signature Algorithm: sha1WithRSAEncryption
         17:cc:26:50:f8:34:d9:60:77:81:2f:8f:bc:7c:75:83:5d:fe:
         2d:a7:3a:76:05:9c:ab:0a:96:7f:10:12:fa:2f:56:fc:e6:c5:
         17:82:95:79:84:bf:bc:c3:32:15:a2:0b:da:ce:46:c0:7d:68:
         c2:d9:ec:de:67:67:28:e3:9f:ae:32:29:b7:70:60:9a:5d:78:
         ba:d9:3d:24:92:cd:3b:72:e9:43:d9:e9:77:67:04:7a:38:63:
         3d:4b:32:3c:b3:2a:8d:9d:5c:c9:b5:ac:01:ca:20:6b:29:79:
         0d:c0:cb:29:c4:2a:ad:7d:30:3e:fd:f2:72:7a:ee:8c:fe:99:
         18:03:6f:23:34:73:db:b1:d8:da:40:88:cd:94:0e:85:d6:5f:
         81:d8:f6:81:24:82:2f:a1:9d:dc:84:f5:94:4b:51:57:12:13:
         d1:e9:ab:81:fd:08:d1:29:81:26:35:97:be:64:01:69:19:51:
         78:44:fa:c9:d7:28:56:5f:5d:df:e4:2d:e2:c5:43:bc:8f:26:
         19:f1:37:ac:22:91:90:72:ff:94:d3:81:a5:df:09:f2:7d:66:
         24:2d:99:bd:a2:cb:00:51:fb:04:03:0b:7f:22:39:21:54:ac:
         d0:81:28:bc:52:94:99:0c:fc:ea:6c:ba:f0:31:1e:05:db:91:
         e3:35:b2:5d:e2:d0:1a:06:05:1e:b0:b6:eb:7a:7b:2c:f5:fa:
         51:d8:c0:1a:e9:07:99:39:9f:61:17:bd:01:64:54:a2:b0:63:
         7e:03:77:09:e2:7e:c7:e5:8a:3a:07:64:88:63:ad:55:89:88:
         f5:61:1f:50:19:a0:92:05:49:8c:81:06:53:da:68:4c:cc:48:
         8f:00:a0:c3:fe:ea:3f:37:f2:0c:12:b1:42:d3:57:67:17:a3:
         39:e1:d5:96:16:0e:f8:c0:e5:9c:25:b0:53:39:f2:78:61:d0:
         2b:9a:56:31:05:98:7c:d0:af:97:f7:b5:c0:0a:10:4b:5b:00:
         ed:17:6d:78:ec:87:88:2a:48:ae:ef:f5:fd:ec:52:ad:01:6f:
         57:55:9f:3f:3b:bb:fe:e1:6e:2a:50:4f:0a:d2:8f:59:df:12:
         46:db:20:0f:92:74:ef:93:e0:ff:ec:2f:fe:e5:8e:e3:0f:2e:
         55:57:36:ba:ba:9f:73:c4:9f:9f:b3:3c:d7:fa:00:6d:65:f1:
         7f:f4:07:fb:13:06:b7:90:37:7c:90:3b:3b:a8:7a:6b:02:79:
         0d:3e:9c:6a:9e:58:42:41:53:8d:ff:02:64:79:ca:2a:19:20:
         d7:ed:55:f4:5b:ce:3f:55:92:de:4a:8c:16:5e:05:a1:3b:49:
         55:08:10:31:fc:f6:90:f9
-----BEGIN CERTIFICATE-----
MIIHRjCCBS6gAwIBAgIBLTANBgkqhkiG9w0BAQUFADCBtDELMAkGA1UEBhMCVVMx
CzAJBgNVBAgTAkNBMRUwEwYDVQQHEwxTYW5GcmFuY2lzY28xFTATBgNVBAoTDFBp
eGdsbywgSW5jLjEQMA4GA1UECxMHVlBOLUNJRTEaMBgGA1UEAxMRdHVubmVsLnBp
eGdsby5jb20xHDAaBgNVBCkTE0JhbGEgQ2hhbmRyYXNla2FyYW4xHjAcBgkqhkiG
9w0BCQEWD2JhbGFAcGl4Z2xvLmNvbTAeFw0xODAyMTQwNjI0NDhaFw0yODAyMTIw
NjI0NDhaMIGoMQswCQYDVQQGEwJVUzELMAkGA1UECBMCQ0ExFTATBgNVBAcTDFNh
bkZyYW5jaXNjbzEVMBMGA1UEChMMUGl4Z2xvLCBJbmMuMRAwDgYDVQQLEwdWUE4t
Q0lFMQ4wDAYDVQQDEwVjaWU0NDEcMBoGA1UEKRMTQmFsYSBDaGFuZHJhc2VrYXJh
bjEeMBwGCSqGSIb3DQEJARYPYmFsYUBwaXhnbG8uY29tMIICIjANBgkqhkiG9w0B
AQEFAAOCAg8AMIICCgKCAgEA1SPGAQ6m4uP2cnxqEGPWmaM2LLpewv/wnTBfPqYU
EgWOF/JtrcJMZEIlvvxOrg/WKYmmxZIjESYhlAKdpWAgp7rdaBZTs0juD3Ld5pnE
cb/iBiR+gUJvjvUo+0s3ZvR9/E0GKispLGbxCg9UQvhurVS0ynWyKu/qjVT/05IF
i/Cu2zeXmIAWpeUHwpOCGS/qEmifCbDUC706FDOrDicrOVMIbQmZKM8nB17CyHsp
nq7OQ+7nkQ+kfmirEpsRNDcdOfD732zDT9f7SzXlYzyDQ8pphsxPfF3oGYGi/CWF
9mGZ/vu0TO9Fk9437ESFYH5kg+DQcBMgzaotPP/wW4SCoi2/4teBSPu7pdn31iux
Sg2lZkRxtIp1swSsW1ySvJCVdkhZ/+aSrdT+gqSHKcp3DQrlL15sJdAxv9vue57p
f4QrsozOrFWCOTrBoxjO9h3GacRVgF4TMnSIYPzh/Ctjbnlx5JYcDjRVr3h9npNt
5Vp4ceXFCEFduWWs6jgebSFnEFGv7WlGS33xj2OxLwCLScTxjDjDRxUnroQnTP1X
d1LEYV3MNXnafqvol+lu2vJMC1OfLHBBO1WyR109fqENQ+9UMaMXsoj8Brly0N4F
RmSWiQhE3H5sAscWYtDA09mcZ5m7IS/qThoC7RM1Hw3dq8K+HCQqOMlhx1oQBk08
p4MCAwEAAaOCAWswggFnMAkGA1UdEwQCMAAwLQYJYIZIAYb4QgENBCAWHkVhc3kt
UlNBIEdlbmVyYXRlZCBDZXJ0aWZpY2F0ZTAdBgNVHQ4EFgQU4YuCZ5tA0ptngcm/
k+9Ua5cJZVIwgekGA1UdIwSB4TCB3oAU7ziNFFBYp1tNnBdy/N+5rKdRsBChgbqk
gbcwgbQxCzAJBgNVBAYTAlVTMQswCQYDVQQIEwJDQTEVMBMGA1UEBxMMU2FuRnJh
bmNpc2NvMRUwEwYDVQQKEwxQaXhnbG8sIEluYy4xEDAOBgNVBAsTB1ZQTi1DSUUx
GjAYBgNVBAMTEXR1bm5lbC5waXhnbG8uY29tMRwwGgYDVQQpExNCYWxhIENoYW5k
cmFzZWthcmFuMR4wHAYJKoZIhvcNAQkBFg9iYWxhQHBpeGdsby5jb22CCQCm28aD
gOageTATBgNVHSUEDDAKBggrBgEFBQcDAjALBgNVHQ8EBAMCB4AwDQYJKoZIhvcN
AQEFBQADggIBABfMJlD4NNlgd4Evj7x8dYNd/i2nOnYFnKsKln8QEvovVvzmxReC
lXmEv7zDMhWiC9rORsB9aMLZ7N5nZyjjn64yKbdwYJpdeLrZPSSSzTty6UPZ6Xdn
BHo4Yz1LMjyzKo2dXMm1rAHKIGspeQ3AyynEKq19MD798nJ67oz+mRgDbyM0c9ux
2NpAiM2UDoXWX4HY9oEkgi+hndyE9ZRLUVcSE9Hpq4H9CNEpgSY1l75kAWkZUXhE
+snXKFZfXd/kLeLFQ7yPJhnxN6wikZBy/5TTgaXfCfJ9ZiQtmb2iywBR+wQDC38i
OSFUrNCBKLxSlJkM/OpsuvAxHgXbkeM1sl3i0BoGBR6wtut6eyz1+lHYwBrpB5k5
n2EXvQFkVKKwY34DdwnifsflijoHZIhjrVWJiPVhH1AZoJIFSYyBBlPaaEzMSI8A
oMP+6j838gwSsULTV2cXoznh1ZYWDvjA5ZwlsFM58nhh0CuaVjEFmHzQr5f3tcAK
EEtbAO0XbXjsh4gqSK7v9f3sUq0Bb1dVnz87u/7hbipQTwrSj1nfEkbbIA+SdO+T
4P/sL/7ljuMPLlVXNrq6n3PEn5+zPNf6AG1l8X/0B/sTBreQN3yQOzuoemsCeQ0+
nGqeWEJBU43/AmR5yioZINftVfRbzj9Vkt5KjBZeBaE7SVUIEDH89pD5
-----END CERTIFICATE-----
