Certificate:
    Data:
        Version: 3 (0x2)
        Serial Number: 50 (0x32)
    Signature Algorithm: sha1WithRSAEncryption
        Issuer: C=US, ST=CA, L=SanFrancisco, O=Pixglo, Inc., OU=VPN-CIE, CN=tunnel.pixglo.com/name=Bala Chandrasekaran/emailAddress=bala@pixglo.com
        Validity
            Not Before: Feb 14 06:24:53 2018 GMT
            Not After : Feb 12 06:24:53 2028 GMT
        Subject: C=US, ST=CA, L=SanFrancisco, O=Pixglo, Inc., OU=VPN-CIE, CN=cie49/name=Bala Chandrasekaran/emailAddress=bala@pixglo.com
        Subject Public Key Info:
            Public Key Algorithm: rsaEncryption
                Public-Key: (4096 bit)
                Modulus:
                    00:a6:cd:4a:da:4d:67:52:55:67:c1:45:0b:20:99:
                    52:0d:ca:f0:08:51:40:7f:65:b6:dd:e1:db:64:82:
                    9f:df:83:04:c2:1f:d4:94:d9:8e:65:dd:86:78:0b:
                    95:ec:c8:5b:3d:58:2d:24:22:f0:6c:40:3b:c1:ac:
                    f6:13:5e:4b:02:01:de:7b:38:13:a0:60:60:c9:ef:
                    ca:ba:81:e5:2d:1c:40:5c:9d:52:bd:db:24:c5:ea:
                    d8:6b:bc:2c:e4:22:1d:bd:25:8e:d1:5c:d4:e9:e5:
                    5d:18:6c:a2:ef:6a:29:86:53:88:bd:72:79:d4:46:
                    bd:3b:3e:ec:25:c4:85:e2:86:30:d5:dd:99:75:e2:
                    ed:0a:ef:50:f1:e4:ee:39:03:d0:54:88:64:c6:43:
                    16:62:8f:51:4e:97:ce:32:e8:9a:e2:a1:0a:09:18:
                    19:4f:b8:62:d4:1a:55:31:47:79:b2:4f:a1:30:54:
                    91:ef:99:b1:8c:22:7c:0e:b9:9a:ed:e8:28:f8:a2:
                    78:81:78:15:3c:bf:06:02:f1:d8:ba:10:82:7e:d2:
                    1c:05:7c:7e:89:da:16:33:b6:42:bd:0a:5c:73:6b:
                    14:2b:75:3b:f3:c1:b8:57:04:dd:5e:b2:4c:bc:81:
                    d5:ee:42:31:25:0c:21:c1:c8:cd:45:9b:6f:14:30:
                    24:d3:fc:53:31:7e:53:b6:aa:3d:f7:94:2f:b4:c6:
                    48:6f:11:80:b7:45:9b:2d:55:51:17:b1:b9:a3:fa:
                    3c:e5:31:dd:39:6a:62:e7:f5:42:b4:b0:b2:31:f3:
                    12:16:15:99:08:34:42:85:41:21:c7:a9:58:89:62:
                    ca:c5:5f:84:f7:de:58:c7:aa:5b:06:6e:8e:e0:f7:
                    73:b4:1d:15:d0:d5:3b:13:50:7a:d1:b9:47:32:dd:
                    d4:ac:8f:93:b9:89:0d:6b:e1:cb:02:f7:85:60:f1:
                    78:e6:92:22:fa:42:45:57:f0:65:37:b7:83:9b:99:
                    e3:13:84:cb:22:f1:65:89:dc:43:ce:13:08:1f:61:
                    bc:ad:2e:bc:62:88:84:58:04:2b:59:fb:54:2f:49:
                    33:53:96:8a:fa:59:d8:79:6b:57:4e:77:66:19:49:
                    01:14:bd:9f:49:cd:40:1a:76:e0:ca:3a:b2:1a:49:
                    fb:26:e4:de:f6:11:1b:a0:5c:1f:d6:1e:ac:54:f2:
                    2b:0c:9d:9e:29:3b:66:0d:31:2c:3f:bd:a0:29:c2:
                    99:ae:ce:e5:c1:9b:96:cb:57:b5:ed:d8:78:a7:85:
                    43:1b:8e:71:20:8f:13:40:ec:c6:ef:c7:cb:b6:5f:
                    22:19:40:59:4e:5d:96:7e:ce:04:cd:2e:d4:7a:ee:
                    f9:c6:59
                Exponent: 65537 (0x10001)
        X509v3 extensions:
            X509v3 Basic Constraints: 
                CA:FALSE
            Netscape Comment: 
                Easy-RSA Generated Certificate
            X509v3 Subject Key Identifier: 
                3B:58:53:6C:1F:CB:2C:3E:D8:6E:9B:00:A8:77:9F:BF:FB:AD:7E:F5
            X509v3 Authority Key Identifier: 
                keyid:EF:38:8D:14:50:58:A7:5B:4D:9C:17:72:FC:DF:B9:AC:A7:51:B0:10
                DirName:/C=US/ST=CA/L=SanFrancisco/O=Pixglo, Inc./OU=VPN-CIE/CN=tunnel.pixglo.com/name=Bala Chandrasekaran/emailAddress=bala@pixglo.com
                serial:A6:DB:C6:83:80:E6:A0:79

            X509v3 Extended Key Usage: 
                TLS Web Client Authentication
            X509v3 Key Usage: 
                Digital Signature
    Signature Algorithm: sha1WithRSAEncryption
         02:0d:b9:8f:fe:22:87:9e:17:d9:38:15:63:70:52:57:b6:bc:
         9a:71:f3:d3:04:6f:3d:ec:55:d5:39:f0:67:a5:b9:d3:36:9f:
         cb:24:89:88:13:a6:b3:90:e0:2f:3e:f0:73:1c:1d:89:e2:ba:
         44:d1:fd:ea:40:a4:cc:24:de:79:82:f2:51:12:03:68:ab:4b:
         5c:ef:33:0a:3f:41:d1:44:6e:e7:e3:e1:c5:53:6f:eb:5a:22:
         46:77:04:e6:5b:a9:a3:a5:48:59:8c:ec:13:0c:62:f3:90:41:
         29:ff:23:bc:3e:05:8f:75:f5:ff:43:26:84:91:b1:c4:b1:34:
         47:6c:f7:b7:11:9d:cc:dd:9c:28:5f:e5:2e:16:e3:00:5b:54:
         e3:56:48:43:cc:2b:df:b0:3d:0e:7e:7f:b3:41:5a:51:82:d2:
         8e:9c:eb:28:14:de:a1:d1:75:94:48:3f:b7:9a:73:c9:53:42:
         51:7c:31:ae:47:cf:fb:bd:05:97:54:49:55:4c:46:2a:cf:36:
         9b:1f:85:b1:ff:53:62:08:38:9c:21:ca:23:5e:28:13:34:6a:
         55:52:36:09:aa:86:57:9c:33:94:21:46:b7:6d:82:6f:16:96:
         7d:5c:10:bd:66:ef:aa:ce:67:42:f5:13:31:fd:49:de:65:98:
         dc:44:c7:54:96:9d:29:28:d4:f6:9e:f5:f8:33:ac:c2:e1:89:
         b1:ac:3a:41:c1:5b:8d:7a:9f:49:38:17:d0:df:2e:0e:8f:d1:
         a6:26:ad:62:e9:66:cf:28:2f:43:bf:01:fa:d5:fb:67:be:ec:
         e5:ec:3f:20:bf:29:90:3a:86:61:1e:fd:ea:dc:57:2f:8b:06:
         9c:f9:8e:66:ef:61:38:79:ad:98:af:b0:ba:47:c7:8c:47:cd:
         33:e4:7b:80:95:26:7d:16:f0:e3:9d:9a:f8:8c:bc:36:16:a6:
         44:07:9b:58:a2:97:63:c4:9d:69:fc:ee:99:ae:5a:ae:cb:7f:
         11:f9:fc:a5:84:06:c9:8c:c6:2d:78:21:66:8c:c6:7c:de:7b:
         c4:90:4e:24:f2:a8:c7:fc:6a:88:f9:5f:e1:9f:b6:8a:1e:01:
         70:be:72:6b:1b:3b:9a:4c:0e:29:e5:e6:a9:56:b2:60:c4:54:
         0d:b4:e4:b3:62:66:2d:57:72:47:ee:30:dd:20:fa:0e:58:81:
         f4:7d:05:7a:6d:5c:71:1b:34:e9:f3:7d:49:01:28:9b:d2:84:
         ca:07:2e:55:0f:ed:48:2a:e9:c1:57:ea:de:62:82:ef:29:6d:
         a5:2d:c7:b7:0d:78:05:4a:c7:97:36:c5:f8:f8:aa:75:b4:0e:
         99:e8:10:99:24:8b:ff:d6
-----BEGIN CERTIFICATE-----
MIIHRjCCBS6gAwIBAgIBMjANBgkqhkiG9w0BAQUFADCBtDELMAkGA1UEBhMCVVMx
CzAJBgNVBAgTAkNBMRUwEwYDVQQHEwxTYW5GcmFuY2lzY28xFTATBgNVBAoTDFBp
eGdsbywgSW5jLjEQMA4GA1UECxMHVlBOLUNJRTEaMBgGA1UEAxMRdHVubmVsLnBp
eGdsby5jb20xHDAaBgNVBCkTE0JhbGEgQ2hhbmRyYXNla2FyYW4xHjAcBgkqhkiG
9w0BCQEWD2JhbGFAcGl4Z2xvLmNvbTAeFw0xODAyMTQwNjI0NTNaFw0yODAyMTIw
NjI0NTNaMIGoMQswCQYDVQQGEwJVUzELMAkGA1UECBMCQ0ExFTATBgNVBAcTDFNh
bkZyYW5jaXNjbzEVMBMGA1UEChMMUGl4Z2xvLCBJbmMuMRAwDgYDVQQLEwdWUE4t
Q0lFMQ4wDAYDVQQDEwVjaWU0OTEcMBoGA1UEKRMTQmFsYSBDaGFuZHJhc2VrYXJh
bjEeMBwGCSqGSIb3DQEJARYPYmFsYUBwaXhnbG8uY29tMIICIjANBgkqhkiG9w0B
AQEFAAOCAg8AMIICCgKCAgEAps1K2k1nUlVnwUULIJlSDcrwCFFAf2W23eHbZIKf
34MEwh/UlNmOZd2GeAuV7MhbPVgtJCLwbEA7waz2E15LAgHeezgToGBgye/KuoHl
LRxAXJ1SvdskxerYa7ws5CIdvSWO0VzU6eVdGGyi72ophlOIvXJ51Ea9Oz7sJcSF
4oYw1d2ZdeLtCu9Q8eTuOQPQVIhkxkMWYo9RTpfOMuia4qEKCRgZT7hi1BpVMUd5
sk+hMFSR75mxjCJ8Drma7ego+KJ4gXgVPL8GAvHYuhCCftIcBXx+idoWM7ZCvQpc
c2sUK3U788G4VwTdXrJMvIHV7kIxJQwhwcjNRZtvFDAk0/xTMX5Ttqo995QvtMZI
bxGAt0WbLVVRF7G5o/o85THdOWpi5/VCtLCyMfMSFhWZCDRChUEhx6lYiWLKxV+E
995Yx6pbBm6O4PdztB0V0NU7E1B60blHMt3UrI+TuYkNa+HLAveFYPF45pIi+kJF
V/BlN7eDm5njE4TLIvFlidxDzhMIH2G8rS68YoiEWAQrWftUL0kzU5aK+lnYeWtX
TndmGUkBFL2fSc1AGnbgyjqyGkn7JuTe9hEboFwf1h6sVPIrDJ2eKTtmDTEsP72g
KcKZrs7lwZuWy1e17dh4p4VDG45xII8TQOzG78fLtl8iGUBZTl2Wfs4EzS7Ueu75
xlkCAwEAAaOCAWswggFnMAkGA1UdEwQCMAAwLQYJYIZIAYb4QgENBCAWHkVhc3kt
UlNBIEdlbmVyYXRlZCBDZXJ0aWZpY2F0ZTAdBgNVHQ4EFgQUO1hTbB/LLD7YbpsA
qHefv/utfvUwgekGA1UdIwSB4TCB3oAU7ziNFFBYp1tNnBdy/N+5rKdRsBChgbqk
gbcwgbQxCzAJBgNVBAYTAlVTMQswCQYDVQQIEwJDQTEVMBMGA1UEBxMMU2FuRnJh
bmNpc2NvMRUwEwYDVQQKEwxQaXhnbG8sIEluYy4xEDAOBgNVBAsTB1ZQTi1DSUUx
GjAYBgNVBAMTEXR1bm5lbC5waXhnbG8uY29tMRwwGgYDVQQpExNCYWxhIENoYW5k
cmFzZWthcmFuMR4wHAYJKoZIhvcNAQkBFg9iYWxhQHBpeGdsby5jb22CCQCm28aD
gOageTATBgNVHSUEDDAKBggrBgEFBQcDAjALBgNVHQ8EBAMCB4AwDQYJKoZIhvcN
AQEFBQADggIBAAINuY/+IoeeF9k4FWNwUle2vJpx89MEbz3sVdU58GeludM2n8sk
iYgTprOQ4C8+8HMcHYniukTR/epApMwk3nmC8lESA2irS1zvMwo/QdFEbufj4cVT
b+taIkZ3BOZbqaOlSFmM7BMMYvOQQSn/I7w+BY919f9DJoSRscSxNEds97cRnczd
nChf5S4W4wBbVONWSEPMK9+wPQ5+f7NBWlGC0o6c6ygU3qHRdZRIP7eac8lTQlF8
Ma5Hz/u9BZdUSVVMRirPNpsfhbH/U2IIOJwhyiNeKBM0alVSNgmqhlecM5QhRrdt
gm8Wln1cEL1m76rOZ0L1EzH9Sd5lmNxEx1SWnSko1Pae9fgzrMLhibGsOkHBW416
n0k4F9DfLg6P0aYmrWLpZs8oL0O/AfrV+2e+7OXsPyC/KZA6hmEe/ercVy+LBpz5
jmbvYTh5rZivsLpHx4xHzTPke4CVJn0W8OOdmviMvDYWpkQHm1iil2PEnWn87pmu
Wq7LfxH5/KWEBsmMxi14IWaMxnzee8SQTiTyqMf8aoj5X+GftooeAXC+cmsbO5pM
Dinl5qlWsmDEVA205LNiZi1XckfuMN0g+g5YgfR9BXptXHEbNOnzfUkBKJvShMoH
LlUP7Ugq6cFX6t5igu8pbaUtx7cNeAVKx5c2xfj4qnW0DpnoEJkki//W
-----END CERTIFICATE-----
