Certificate:
    Data:
        Version: 3 (0x2)
        Serial Number: 54 (0x36)
    Signature Algorithm: sha1WithRSAEncryption
        Issuer: C=US, ST=CA, L=SanFrancisco, O=Pixglo, Inc., OU=VPN-CIE, CN=tunnel.pixglo.com/name=Bala Chandrasekaran/emailAddress=bala@pixglo.com
        Validity
            Not Before: Feb 14 06:24:56 2018 GMT
            Not After : Feb 12 06:24:56 2028 GMT
        Subject: C=US, ST=CA, L=SanFrancisco, O=Pixglo, Inc., OU=VPN-CIE, CN=cie53/name=Bala Chandrasekaran/emailAddress=bala@pixglo.com
        Subject Public Key Info:
            Public Key Algorithm: rsaEncryption
                Public-Key: (4096 bit)
                Modulus:
                    00:da:7c:b5:98:31:08:80:f8:07:34:79:6d:b0:73:
                    d3:38:33:f1:a5:e3:ea:46:53:1a:ec:dc:32:10:bc:
                    6e:ca:cd:ce:5a:ba:96:e6:0c:94:03:00:79:82:39:
                    41:59:e4:be:84:29:40:24:db:11:62:fd:58:a5:d8:
                    dd:6a:03:fb:db:40:f7:10:7b:24:54:68:f5:b5:24:
                    19:cc:39:45:d4:df:1c:31:eb:09:da:1c:6b:b7:05:
                    86:bb:d9:74:df:b7:da:45:4f:94:b6:e5:f2:81:05:
                    e2:75:60:00:3e:38:46:ac:c4:42:9e:21:62:c4:d3:
                    31:76:bc:37:29:b5:00:de:7c:90:5e:39:88:7e:cb:
                    1a:f9:be:60:1a:a9:bb:83:eb:7f:4c:b0:fd:e1:e3:
                    a8:89:ac:b1:99:3e:95:33:94:24:65:3c:26:d8:84:
                    4b:20:01:6b:fc:95:de:70:f4:3a:c0:5f:2c:9b:a8:
                    e2:32:ee:f2:57:10:c8:ed:f5:f1:fe:69:cd:38:bf:
                    df:97:66:7e:b1:14:e1:17:2e:75:9f:9a:e5:21:3f:
                    c4:13:e3:f8:20:a1:80:c5:3c:18:25:5d:f3:17:d5:
                    7d:2a:71:ab:5d:2b:73:6b:74:72:6a:35:2d:5c:3a:
                    18:52:16:86:58:7e:24:2b:50:82:d6:e7:58:42:d0:
                    1e:0c:aa:1f:13:9e:71:87:1a:a1:76:50:d9:7b:8d:
                    49:53:d5:68:5b:71:9c:c2:69:55:21:62:e3:10:4e:
                    0d:78:16:3a:09:3e:21:c4:0d:4e:49:be:5d:c2:42:
                    47:eb:6f:3a:f5:f3:e3:b9:ca:70:3d:15:ab:ac:6f:
                    b1:8c:4f:4f:2e:27:2e:3f:e4:bc:6c:59:d3:74:40:
                    ce:e1:20:dc:ca:58:bd:74:7e:ab:f2:8a:5c:c3:a5:
                    13:7f:ab:72:a4:c5:bc:b9:ad:7e:45:6b:4e:85:0f:
                    b3:55:c3:52:f6:33:fc:7e:e6:c0:e1:6e:1f:22:02:
                    60:7e:58:51:dd:af:81:b5:98:49:ce:09:39:cb:77:
                    29:a8:4d:7a:21:aa:64:33:b3:69:a1:f3:54:90:d4:
                    66:23:12:93:a9:38:15:2b:8c:44:4c:2d:89:45:9d:
                    96:f1:8b:e9:52:f6:3d:91:9b:80:a8:84:22:c7:ef:
                    d1:6f:4e:04:6f:a7:08:c9:43:bd:e1:d5:5f:61:77:
                    e2:1d:37:6d:ca:bb:62:0f:7d:f5:70:d2:ac:06:a4:
                    b4:92:65:02:40:a6:14:8c:64:8d:ad:8b:de:21:fa:
                    cf:68:c3:ba:9d:32:7d:d3:cf:4f:c0:1a:62:00:48:
                    6d:b6:26:dc:b3:0a:11:57:6b:b1:76:d4:46:56:58:
                    b2:4b:19
                Exponent: 65537 (0x10001)
        X509v3 extensions:
            X509v3 Basic Constraints: 
                CA:FALSE
            Netscape Comment: 
                Easy-RSA Generated Certificate
            X509v3 Subject Key Identifier: 
                57:AB:55:E4:D6:0A:B0:46:28:99:B6:27:F1:BC:9B:A6:37:6D:2E:2E
            X509v3 Authority Key Identifier: 
                keyid:EF:38:8D:14:50:58:A7:5B:4D:9C:17:72:FC:DF:B9:AC:A7:51:B0:10
                DirName:/C=US/ST=CA/L=SanFrancisco/O=Pixglo, Inc./OU=VPN-CIE/CN=tunnel.pixglo.com/name=Bala Chandrasekaran/emailAddress=bala@pixglo.com
                serial:A6:DB:C6:83:80:E6:A0:79

            X509v3 Extended Key Usage: 
                TLS Web Client Authentication
            X509v3 Key Usage: 
                Digital Signature
    Signature Algorithm: sha1WithRSAEncryption
         d6:57:d1:95:dd:3d:fd:e6:80:22:78:a1:e3:55:a1:52:03:65:
         a0:ac:4a:86:e8:fc:cd:72:dd:44:65:56:30:8b:4e:b5:fd:b0:
         1f:d3:c1:e5:65:8a:c9:9b:1e:74:e3:de:ed:13:b4:c9:32:57:
         db:85:8e:f6:2a:28:a1:ae:ce:23:d0:87:c9:23:5c:e7:b8:e9:
         31:a5:1d:82:49:95:93:2a:8f:11:da:31:39:97:c7:bd:7e:62:
         da:13:77:f3:16:13:0c:09:d3:b6:51:06:06:cb:2a:8c:6d:5a:
         33:ed:96:4d:65:8b:1d:c3:4f:eb:f5:14:9b:0c:f8:1b:44:97:
         c4:17:ce:08:96:a9:92:cd:0b:5f:5c:19:2b:88:65:83:f3:b7:
         b8:df:c7:e9:de:cd:c7:b0:04:22:d3:2a:68:cc:37:8f:24:78:
         55:f7:44:da:ef:f2:10:96:f4:cf:4a:1b:78:5a:a3:2d:ae:e6:
         9c:70:2d:79:1e:09:e5:b9:c8:42:32:58:f5:cf:13:4a:d0:a1:
         58:1d:f0:2f:3b:0c:86:d2:31:e2:1d:5b:18:90:05:62:d4:d3:
         e5:d3:d1:71:ab:b2:e9:e3:07:82:a7:14:79:6f:49:9b:1d:7b:
         b4:2b:72:1c:3b:32:52:2d:ce:91:6e:e9:22:70:16:9e:67:3b:
         e1:aa:0c:4f:2a:e2:0a:99:d7:7e:44:fe:98:bb:19:40:cc:eb:
         d5:29:3b:70:63:04:c4:c0:1a:f5:a1:a8:a6:68:80:29:60:b3:
         9b:e5:c8:36:ac:d9:ef:23:41:7d:e8:32:98:88:15:b7:c9:5f:
         c2:b3:6f:4d:6b:cc:3f:0f:dc:42:ec:b2:26:a8:14:1e:82:88:
         3f:fe:d3:5b:26:9d:a3:97:dd:71:be:9f:1c:d9:ff:13:99:5f:
         d4:7c:63:08:77:36:ae:12:2c:bf:cf:e2:a5:d8:30:1f:85:dd:
         d4:0e:c5:bf:0e:cb:39:46:c5:5e:e8:84:84:5e:89:ae:2b:87:
         79:bd:ff:86:82:1b:c0:01:3d:fb:b5:b1:4f:75:d0:90:09:8d:
         fd:5d:cc:93:03:09:55:6a:a3:a2:ee:a9:1b:c0:7f:e8:70:18:
         38:d6:2f:ca:6e:0e:52:45:66:9b:ae:38:bf:73:6f:f7:00:2d:
         80:d8:5a:de:99:17:ef:a6:ed:fa:3c:85:92:25:fb:e1:4c:03:
         eb:33:3e:b3:90:07:1a:ab:49:e3:81:1b:32:60:4f:ee:b6:dc:
         82:76:86:a7:b6:f5:af:7d:aa:a2:60:5e:d8:36:6b:07:26:9f:
         ba:58:0e:d9:a7:6d:e5:c2:2d:af:ad:96:98:aa:dd:a2:69:a9:
         4e:19:7f:50:92:58:1c:8f
-----BEGIN CERTIFICATE-----
MIIHRjCCBS6gAwIBAgIBNjANBgkqhkiG9w0BAQUFADCBtDELMAkGA1UEBhMCVVMx
CzAJBgNVBAgTAkNBMRUwEwYDVQQHEwxTYW5GcmFuY2lzY28xFTATBgNVBAoTDFBp
eGdsbywgSW5jLjEQMA4GA1UECxMHVlBOLUNJRTEaMBgGA1UEAxMRdHVubmVsLnBp
eGdsby5jb20xHDAaBgNVBCkTE0JhbGEgQ2hhbmRyYXNla2FyYW4xHjAcBgkqhkiG
9w0BCQEWD2JhbGFAcGl4Z2xvLmNvbTAeFw0xODAyMTQwNjI0NTZaFw0yODAyMTIw
NjI0NTZaMIGoMQswCQYDVQQGEwJVUzELMAkGA1UECBMCQ0ExFTATBgNVBAcTDFNh
bkZyYW5jaXNjbzEVMBMGA1UEChMMUGl4Z2xvLCBJbmMuMRAwDgYDVQQLEwdWUE4t
Q0lFMQ4wDAYDVQQDEwVjaWU1MzEcMBoGA1UEKRMTQmFsYSBDaGFuZHJhc2VrYXJh
bjEeMBwGCSqGSIb3DQEJARYPYmFsYUBwaXhnbG8uY29tMIICIjANBgkqhkiG9w0B
AQEFAAOCAg8AMIICCgKCAgEA2ny1mDEIgPgHNHltsHPTODPxpePqRlMa7NwyELxu
ys3OWrqW5gyUAwB5gjlBWeS+hClAJNsRYv1YpdjdagP720D3EHskVGj1tSQZzDlF
1N8cMesJ2hxrtwWGu9l037faRU+UtuXygQXidWAAPjhGrMRCniFixNMxdrw3KbUA
3nyQXjmIfssa+b5gGqm7g+t/TLD94eOoiayxmT6VM5QkZTwm2IRLIAFr/JXecPQ6
wF8sm6jiMu7yVxDI7fXx/mnNOL/fl2Z+sRThFy51n5rlIT/EE+P4IKGAxTwYJV3z
F9V9KnGrXStza3RyajUtXDoYUhaGWH4kK1CC1udYQtAeDKofE55xhxqhdlDZe41J
U9VoW3GcwmlVIWLjEE4NeBY6CT4hxA1OSb5dwkJH62869fPjucpwPRWrrG+xjE9P
LicuP+S8bFnTdEDO4SDcyli9dH6r8opcw6UTf6typMW8ua1+RWtOhQ+zVcNS9jP8
fubA4W4fIgJgflhR3a+BtZhJzgk5y3cpqE16IapkM7NpofNUkNRmIxKTqTgVK4xE
TC2JRZ2W8YvpUvY9kZuAqIQix+/Rb04Eb6cIyUO94dVfYXfiHTdtyrtiD331cNKs
BqS0kmUCQKYUjGSNrYveIfrPaMO6nTJ9089PwBpiAEhttibcswoRV2uxdtRGVliy
SxkCAwEAAaOCAWswggFnMAkGA1UdEwQCMAAwLQYJYIZIAYb4QgENBCAWHkVhc3kt
UlNBIEdlbmVyYXRlZCBDZXJ0aWZpY2F0ZTAdBgNVHQ4EFgQUV6tV5NYKsEYombYn
8bybpjdtLi4wgekGA1UdIwSB4TCB3oAU7ziNFFBYp1tNnBdy/N+5rKdRsBChgbqk
gbcwgbQxCzAJBgNVBAYTAlVTMQswCQYDVQQIEwJDQTEVMBMGA1UEBxMMU2FuRnJh
bmNpc2NvMRUwEwYDVQQKEwxQaXhnbG8sIEluYy4xEDAOBgNVBAsTB1ZQTi1DSUUx
GjAYBgNVBAMTEXR1bm5lbC5waXhnbG8uY29tMRwwGgYDVQQpExNCYWxhIENoYW5k
cmFzZWthcmFuMR4wHAYJKoZIhvcNAQkBFg9iYWxhQHBpeGdsby5jb22CCQCm28aD
gOageTATBgNVHSUEDDAKBggrBgEFBQcDAjALBgNVHQ8EBAMCB4AwDQYJKoZIhvcN
AQEFBQADggIBANZX0ZXdPf3mgCJ4oeNVoVIDZaCsSobo/M1y3URlVjCLTrX9sB/T
weVlismbHnTj3u0TtMkyV9uFjvYqKKGuziPQh8kjXOe46TGlHYJJlZMqjxHaMTmX
x71+YtoTd/MWEwwJ07ZRBgbLKoxtWjPtlk1lix3DT+v1FJsM+BtEl8QXzgiWqZLN
C19cGSuIZYPzt7jfx+nezcewBCLTKmjMN48keFX3RNrv8hCW9M9KG3haoy2u5pxw
LXkeCeW5yEIyWPXPE0rQoVgd8C87DIbSMeIdWxiQBWLU0+XT0XGrsunjB4KnFHlv
SZsde7Qrchw7MlItzpFu6SJwFp5nO+GqDE8q4gqZ135E/pi7GUDM69UpO3BjBMTA
GvWhqKZogClgs5vlyDas2e8jQX3oMpiIFbfJX8Kzb01rzD8P3ELssiaoFB6CiD/+
01smnaOX3XG+nxzZ/xOZX9R8Ywh3Nq4SLL/P4qXYMB+F3dQOxb8OyzlGxV7ohIRe
ia4rh3m9/4aCG8ABPfu1sU910JAJjf1dzJMDCVVqo6LuqRvAf+hwGDjWL8puDlJF
ZpuuOL9zb/cALYDYWt6ZF++m7fo8hZIl++FMA+szPrOQBxqrSeOBGzJgT+623IJ2
hqe29a99qqJgXtg2awcmn7pYDtmnbeXCLa+tlpiq3aJpqU4Zf1CSWByP
-----END CERTIFICATE-----
