Certificate:
    Data:
        Version: 3 (0x2)
        Serial Number: 55 (0x37)
    Signature Algorithm: sha1WithRSAEncryption
        Issuer: C=US, ST=CA, L=SanFrancisco, O=Pixglo, Inc., OU=VPN-CIE, CN=tunnel.pixglo.com/name=Bala Chandrasekaran/emailAddress=bala@pixglo.com
        Validity
            Not Before: Feb 14 06:24:57 2018 GMT
            Not After : Feb 12 06:24:57 2028 GMT
        Subject: C=US, ST=CA, L=SanFrancisco, O=Pixglo, Inc., OU=VPN-CIE, CN=cie54/name=Bala Chandrasekaran/emailAddress=bala@pixglo.com
        Subject Public Key Info:
            Public Key Algorithm: rsaEncryption
                Public-Key: (4096 bit)
                Modulus:
                    00:c3:95:59:6a:5f:a6:58:3f:a2:4e:ce:ee:b6:89:
                    45:0a:6f:18:97:b7:29:50:ac:53:b1:cb:29:8d:72:
                    69:20:32:99:26:08:8c:c8:b1:b2:60:05:14:bc:e4:
                    81:36:19:36:12:67:3f:68:e5:11:38:e4:4d:00:9a:
                    38:b4:63:ea:f2:92:2b:79:69:39:92:e9:94:9c:cb:
                    86:bd:03:97:cd:fe:44:53:81:d8:e7:1c:8c:a7:75:
                    dd:c4:f2:ba:ae:c7:9e:85:0c:64:ff:a2:ee:aa:51:
                    f0:4f:d5:0a:12:3c:80:77:bb:cd:7b:eb:5f:ff:e3:
                    94:74:2f:4d:2f:61:ba:44:ad:43:de:81:ee:b2:e3:
                    f3:07:ad:05:36:d6:3a:23:42:4b:dd:fe:a6:95:f6:
                    85:59:12:f3:28:bc:aa:30:92:ec:31:7f:9e:f7:dd:
                    a9:a3:3b:42:2f:3b:c1:3b:bd:d9:e2:2e:a8:a8:68:
                    11:b7:f1:e7:87:97:4f:1e:52:5f:83:5f:c0:68:36:
                    5e:b0:7d:34:cf:11:8c:ed:aa:e3:9e:44:21:ab:48:
                    df:42:64:2b:a6:48:d1:2d:2e:39:71:b4:af:b4:ac:
                    a8:93:fb:cd:45:1c:29:82:69:82:0d:31:30:4e:15:
                    5c:1c:a5:95:53:db:69:c8:c7:ab:9a:3a:60:03:44:
                    70:a2:61:59:2d:8f:43:47:5e:06:a2:dc:48:c9:32:
                    e7:4d:69:ff:91:c0:da:44:0e:9a:90:43:8f:5c:b9:
                    8a:0d:ad:53:b2:78:02:8d:89:f1:bf:dc:43:1b:ee:
                    d8:75:26:1d:95:a1:61:1d:1e:87:90:84:d0:58:de:
                    c3:14:c0:75:74:30:27:69:e7:85:ee:13:32:fe:20:
                    ce:ad:c6:76:e8:a2:44:81:61:43:de:06:f3:7d:d1:
                    cd:9f:d7:76:f8:66:54:e4:fb:2c:5a:13:e8:62:2f:
                    45:92:48:d0:dd:ff:27:d3:e9:30:53:df:31:62:59:
                    71:a8:1d:23:39:79:b8:70:aa:2d:9f:1a:12:a6:1d:
                    7d:37:e7:4b:29:e2:d5:65:90:4f:40:7d:3c:f8:46:
                    09:d2:0c:10:1b:0e:e3:56:c8:90:c4:41:d3:4b:bc:
                    2b:2f:8f:d9:6a:e6:17:13:af:7a:b0:f0:a8:73:19:
                    04:9b:f8:7f:86:4a:42:1c:e5:00:e3:a6:dd:ae:f1:
                    94:7e:7f:55:33:0e:1b:54:f1:b0:12:a6:c9:54:ac:
                    30:59:27:43:97:fd:b2:9a:a9:78:76:cd:bc:3b:42:
                    57:ec:70:cb:e2:6f:9c:29:14:ad:9a:36:bd:79:54:
                    d6:da:2e:6e:68:91:cd:08:db:b7:24:ab:a8:b4:eb:
                    0c:76:4d
                Exponent: 65537 (0x10001)
        X509v3 extensions:
            X509v3 Basic Constraints: 
                CA:FALSE
            Netscape Comment: 
                Easy-RSA Generated Certificate
            X509v3 Subject Key Identifier: 
                C0:3E:96:0F:DE:4B:8E:15:D0:1B:C4:69:F4:89:D7:F6:2F:89:16:E8
            X509v3 Authority Key Identifier: 
                keyid:EF:38:8D:14:50:58:A7:5B:4D:9C:17:72:FC:DF:B9:AC:A7:51:B0:10
                DirName:/C=US/ST=CA/L=SanFrancisco/O=Pixglo, Inc./OU=VPN-CIE/CN=tunnel.pixglo.com/name=Bala Chandrasekaran/emailAddress=bala@pixglo.com
                serial:A6:DB:C6:83:80:E6:A0:79

            X509v3 Extended Key Usage: 
                TLS Web Client Authentication
            X509v3 Key Usage: 
                Digital Signature
    Signature Algorithm: sha1WithRSAEncryption
         12:97:61:07:ca:eb:f7:fc:3a:d5:46:a3:18:49:23:42:43:5e:
         fe:b8:b5:bb:0b:65:84:8f:2e:c0:bb:e3:10:c8:d5:cf:81:2b:
         4b:d6:40:50:86:e4:21:7f:3e:08:1c:e7:75:ab:7d:3c:a6:b7:
         37:87:12:ff:60:a5:b2:5d:8a:5f:39:89:84:a9:5c:6f:13:8d:
         9e:8a:10:4d:29:2f:2d:0f:b6:e0:cc:0c:12:d9:53:25:49:f8:
         a8:a7:13:56:ba:b9:f7:6b:db:88:bc:aa:38:9e:d3:29:8d:93:
         20:47:ce:15:d2:50:87:dc:30:12:54:f9:b2:ef:26:58:36:c9:
         af:6e:75:bf:67:96:63:c4:a2:95:0c:5c:88:64:a8:98:71:31:
         01:75:04:7d:72:1b:17:1c:ea:bd:f7:21:a2:61:80:b0:b3:90:
         6e:cc:6c:f0:ef:e7:72:7d:c8:96:86:0c:39:78:b0:e5:8e:de:
         51:6d:eb:25:2d:ac:a4:b4:38:1f:9f:49:a6:e7:f0:85:cc:38:
         82:56:d5:f1:33:c7:9c:f3:c8:93:57:2e:85:63:78:dd:04:05:
         72:d7:ad:b4:1e:ed:32:de:c9:88:d2:eb:de:90:7d:9c:b6:fc:
         cb:2c:aa:3e:d2:f8:79:35:c0:5a:fd:15:3a:22:05:d6:73:17:
         f3:40:69:6a:b7:60:cd:21:25:d3:83:e7:70:13:94:80:cd:b7:
         35:3b:e6:45:a0:17:d4:4c:57:f2:2a:c2:2e:e1:b1:08:bc:ce:
         a5:d6:eb:62:36:7b:ae:b1:39:ff:87:6a:61:95:14:87:73:e1:
         c3:2b:b6:3a:3f:ee:32:a9:cf:a9:ed:ab:47:4f:63:d7:de:99:
         e0:a5:77:e2:9a:8d:5d:64:19:49:40:0e:14:f1:a6:49:15:4d:
         1d:d6:6d:8d:d3:ad:ea:de:7b:04:62:06:7f:fe:54:42:95:2f:
         92:8e:26:ee:f2:0f:cd:66:85:c6:66:81:d9:5f:e2:c2:2e:f2:
         34:e6:41:7a:f8:61:86:90:b4:88:d3:d7:4c:a7:a1:07:5b:51:
         cc:3c:cf:42:76:0e:22:1d:aa:4a:03:9c:a3:ed:60:c0:f4:b0:
         95:ae:4c:a7:94:c7:ce:da:83:d8:d3:1b:ba:35:16:ac:3a:44:
         4d:22:f9:19:71:f6:a6:85:08:7b:53:87:b5:0b:5d:e6:89:04:
         d9:24:07:ba:32:21:45:5b:49:4e:fa:d6:93:36:fc:4a:df:23:
         0b:d2:11:67:c5:3e:3e:69:1c:4a:88:98:4c:ff:21:3a:03:b3:
         07:1d:6e:13:2e:e3:a9:a4:3a:e7:be:6a:46:64:ac:26:50:9b:
         50:c7:8e:90:9e:dc:ac:b7
-----BEGIN CERTIFICATE-----
MIIHRjCCBS6gAwIBAgIBNzANBgkqhkiG9w0BAQUFADCBtDELMAkGA1UEBhMCVVMx
CzAJBgNVBAgTAkNBMRUwEwYDVQQHEwxTYW5GcmFuY2lzY28xFTATBgNVBAoTDFBp
eGdsbywgSW5jLjEQMA4GA1UECxMHVlBOLUNJRTEaMBgGA1UEAxMRdHVubmVsLnBp
eGdsby5jb20xHDAaBgNVBCkTE0JhbGEgQ2hhbmRyYXNla2FyYW4xHjAcBgkqhkiG
9w0BCQEWD2JhbGFAcGl4Z2xvLmNvbTAeFw0xODAyMTQwNjI0NTdaFw0yODAyMTIw
NjI0NTdaMIGoMQswCQYDVQQGEwJVUzELMAkGA1UECBMCQ0ExFTATBgNVBAcTDFNh
bkZyYW5jaXNjbzEVMBMGA1UEChMMUGl4Z2xvLCBJbmMuMRAwDgYDVQQLEwdWUE4t
Q0lFMQ4wDAYDVQQDEwVjaWU1NDEcMBoGA1UEKRMTQmFsYSBDaGFuZHJhc2VrYXJh
bjEeMBwGCSqGSIb3DQEJARYPYmFsYUBwaXhnbG8uY29tMIICIjANBgkqhkiG9w0B
AQEFAAOCAg8AMIICCgKCAgEAw5VZal+mWD+iTs7utolFCm8Yl7cpUKxTscspjXJp
IDKZJgiMyLGyYAUUvOSBNhk2Emc/aOUROORNAJo4tGPq8pIreWk5kumUnMuGvQOX
zf5EU4HY5xyMp3XdxPK6rseehQxk/6LuqlHwT9UKEjyAd7vNe+tf/+OUdC9NL2G6
RK1D3oHusuPzB60FNtY6I0JL3f6mlfaFWRLzKLyqMJLsMX+e992poztCLzvBO73Z
4i6oqGgRt/Hnh5dPHlJfg1/AaDZesH00zxGM7arjnkQhq0jfQmQrpkjRLS45cbSv
tKyok/vNRRwpgmmCDTEwThVcHKWVU9tpyMermjpgA0RwomFZLY9DR14GotxIyTLn
TWn/kcDaRA6akEOPXLmKDa1TsngCjYnxv9xDG+7YdSYdlaFhHR6HkITQWN7DFMB1
dDAnaeeF7hMy/iDOrcZ26KJEgWFD3gbzfdHNn9d2+GZU5PssWhPoYi9FkkjQ3f8n
0+kwU98xYllxqB0jOXm4cKotnxoSph19N+dLKeLVZZBPQH08+EYJ0gwQGw7jVsiQ
xEHTS7wrL4/ZauYXE696sPCocxkEm/h/hkpCHOUA46bdrvGUfn9VMw4bVPGwEqbJ
VKwwWSdDl/2ymql4ds28O0JX7HDL4m+cKRStmja9eVTW2i5uaJHNCNu3JKuotOsM
dk0CAwEAAaOCAWswggFnMAkGA1UdEwQCMAAwLQYJYIZIAYb4QgENBCAWHkVhc3kt
UlNBIEdlbmVyYXRlZCBDZXJ0aWZpY2F0ZTAdBgNVHQ4EFgQUwD6WD95LjhXQG8Rp
9InX9i+JFugwgekGA1UdIwSB4TCB3oAU7ziNFFBYp1tNnBdy/N+5rKdRsBChgbqk
gbcwgbQxCzAJBgNVBAYTAlVTMQswCQYDVQQIEwJDQTEVMBMGA1UEBxMMU2FuRnJh
bmNpc2NvMRUwEwYDVQQKEwxQaXhnbG8sIEluYy4xEDAOBgNVBAsTB1ZQTi1DSUUx
GjAYBgNVBAMTEXR1bm5lbC5waXhnbG8uY29tMRwwGgYDVQQpExNCYWxhIENoYW5k
cmFzZWthcmFuMR4wHAYJKoZIhvcNAQkBFg9iYWxhQHBpeGdsby5jb22CCQCm28aD
gOageTATBgNVHSUEDDAKBggrBgEFBQcDAjALBgNVHQ8EBAMCB4AwDQYJKoZIhvcN
AQEFBQADggIBABKXYQfK6/f8OtVGoxhJI0JDXv64tbsLZYSPLsC74xDI1c+BK0vW
QFCG5CF/Pggc53WrfTymtzeHEv9gpbJdil85iYSpXG8TjZ6KEE0pLy0PtuDMDBLZ
UyVJ+KinE1a6ufdr24i8qjie0ymNkyBHzhXSUIfcMBJU+bLvJlg2ya9udb9nlmPE
opUMXIhkqJhxMQF1BH1yGxcc6r33IaJhgLCzkG7MbPDv53J9yJaGDDl4sOWO3lFt
6yUtrKS0OB+fSabn8IXMOIJW1fEzx5zzyJNXLoVjeN0EBXLXrbQe7TLeyYjS696Q
fZy2/Mssqj7S+Hk1wFr9FToiBdZzF/NAaWq3YM0hJdOD53ATlIDNtzU75kWgF9RM
V/Iqwi7hsQi8zqXW62I2e66xOf+HamGVFIdz4cMrtjo/7jKpz6ntq0dPY9femeCl
d+KajV1kGUlADhTxpkkVTR3WbY3TrereewRiBn/+VEKVL5KOJu7yD81mhcZmgdlf
4sIu8jTmQXr4YYaQtIjT10ynoQdbUcw8z0J2DiIdqkoDnKPtYMD0sJWuTKeUx87a
g9jTG7o1Fqw6RE0i+Rlx9qaFCHtTh7ULXeaJBNkkB7oyIUVbSU761pM2/ErfIwvS
EWfFPj5pHEqImEz/IToDswcdbhMu46mkOue+akZkrCZQm1DHjpCe3Ky3
-----END CERTIFICATE-----
