Certificate:
    Data:
        Version: 3 (0x2)
        Serial Number: 57 (0x39)
    Signature Algorithm: sha1WithRSAEncryption
        Issuer: C=US, ST=CA, L=SanFrancisco, O=Pixglo, Inc., OU=VPN-CIE, CN=tunnel.pixglo.com/name=Bala Chandrasekaran/emailAddress=bala@pixglo.com
        Validity
            Not Before: Feb 14 06:24:59 2018 GMT
            Not After : Feb 12 06:24:59 2028 GMT
        Subject: C=US, ST=CA, L=SanFrancisco, O=Pixglo, Inc., OU=VPN-CIE, CN=cie56/name=Bala Chandrasekaran/emailAddress=bala@pixglo.com
        Subject Public Key Info:
            Public Key Algorithm: rsaEncryption
                Public-Key: (4096 bit)
                Modulus:
                    00:a8:58:38:c5:97:71:97:fc:7a:8b:79:b8:0d:7b:
                    cd:85:56:84:93:d6:78:3f:e0:48:a0:48:f8:0a:f3:
                    60:e7:46:fd:e0:8c:80:a2:2e:bd:f3:3c:ba:f5:77:
                    14:b1:e6:01:af:8e:5d:3c:0e:69:c4:c0:9c:88:ce:
                    ef:da:62:6a:a9:5e:91:c1:46:cf:41:48:a3:ae:dd:
                    5d:11:f2:47:64:d5:85:90:63:29:c1:ec:36:49:a7:
                    27:cb:bb:0f:09:45:dd:dc:b6:19:ad:fc:04:62:f8:
                    7c:a5:b9:04:41:e6:2d:ce:44:8c:58:97:23:62:ea:
                    19:8a:44:6c:3a:72:f4:f0:ac:5a:c2:a9:64:45:a1:
                    fc:d4:de:3e:11:54:43:e3:87:c1:44:23:a9:2b:6f:
                    6a:98:cb:7a:e2:79:1e:fe:3d:d3:19:ff:dd:34:1e:
                    25:e1:91:3d:51:d0:5a:9f:6b:10:f9:78:03:97:90:
                    ef:7e:13:f0:31:d9:e9:16:bd:41:1f:7c:78:58:9b:
                    0d:38:a1:b2:16:77:a1:a9:a4:32:2e:12:61:40:43:
                    ea:60:e9:3f:e2:10:67:be:49:8b:a7:a1:ae:c4:5e:
                    c0:29:31:c0:d8:fe:fc:58:16:a5:40:1d:de:01:27:
                    64:8a:fc:e9:ae:e8:e7:17:15:a0:1c:2c:3b:40:66:
                    ce:f6:21:09:43:9d:71:30:bf:0c:72:fb:57:db:5b:
                    34:40:de:cc:f2:51:7b:49:d9:fa:55:2c:64:9b:99:
                    6a:46:09:5b:a7:e3:98:03:7a:3a:37:a4:3d:af:34:
                    bf:20:31:79:f0:2f:66:88:8a:24:cc:85:27:32:7f:
                    2e:d3:df:a5:13:e4:91:6a:96:ca:4c:03:17:75:c7:
                    51:c6:b4:29:a8:c1:ab:5a:3a:cb:49:eb:e7:a1:0d:
                    22:4e:2c:9d:1a:ec:79:03:d1:28:a2:01:ff:01:34:
                    77:b3:82:87:0f:7b:6c:ac:d8:73:8f:0a:c4:7a:c0:
                    7c:4c:2b:3e:14:0a:c4:e2:8d:b4:9c:26:39:d5:d9:
                    cd:43:f3:9b:77:17:fe:df:80:32:d0:02:b8:6b:f5:
                    22:12:a9:f3:b2:7b:02:f7:9f:7c:14:db:9e:83:29:
                    0f:7e:fc:14:bc:42:13:f6:e9:6a:42:2f:fc:9a:44:
                    7c:ca:14:5f:3f:16:38:b4:60:69:ef:b5:0b:e3:2b:
                    9e:b2:b0:1b:a0:87:16:d8:0d:5d:da:11:ea:55:fe:
                    8c:fd:de:76:a7:a0:ae:b9:2b:87:43:83:55:f5:b1:
                    7c:4b:99:c0:62:43:14:b8:60:45:7a:e8:bf:f7:b8:
                    91:4d:48:9c:4f:d2:fd:e7:5f:8e:90:27:e7:99:32:
                    50:cc:db
                Exponent: 65537 (0x10001)
        X509v3 extensions:
            X509v3 Basic Constraints: 
                CA:FALSE
            Netscape Comment: 
                Easy-RSA Generated Certificate
            X509v3 Subject Key Identifier: 
                45:DA:2C:44:6B:FD:C7:03:22:C4:05:C6:75:36:7C:80:C7:5C:00:BB
            X509v3 Authority Key Identifier: 
                keyid:EF:38:8D:14:50:58:A7:5B:4D:9C:17:72:FC:DF:B9:AC:A7:51:B0:10
                DirName:/C=US/ST=CA/L=SanFrancisco/O=Pixglo, Inc./OU=VPN-CIE/CN=tunnel.pixglo.com/name=Bala Chandrasekaran/emailAddress=bala@pixglo.com
                serial:A6:DB:C6:83:80:E6:A0:79

            X509v3 Extended Key Usage: 
                TLS Web Client Authentication
            X509v3 Key Usage: 
                Digital Signature
    Signature Algorithm: sha1WithRSAEncryption
         45:d6:41:e3:f8:6f:c0:4b:05:e2:5d:8e:51:33:ab:5f:4a:f6:
         dc:4d:3c:f1:63:c8:e6:ee:4d:ae:c1:b2:4d:a8:73:f5:35:f6:
         b3:0d:b3:ac:8d:e2:fe:1b:87:5d:6b:81:78:ab:d3:a9:79:aa:
         0b:85:14:3a:77:d0:b6:1d:ba:03:fc:03:a3:54:56:4c:1f:37:
         10:93:a3:35:80:80:40:80:02:e0:bf:6e:8d:c5:b4:29:8c:32:
         ee:28:db:84:4f:33:00:7d:ba:d0:f0:fd:21:8c:49:cb:de:86:
         2f:39:4f:7f:54:93:17:31:e0:93:55:d4:5b:7a:20:b9:1e:42:
         65:67:23:28:38:c4:d1:e1:50:98:79:95:6e:a4:34:61:22:f7:
         3c:21:26:27:ad:56:27:e1:6e:f1:bb:27:fe:23:de:a8:20:76:
         be:a8:63:97:9a:04:d3:22:cf:2f:84:ee:70:ed:fc:fb:10:a4:
         3a:f1:94:24:65:98:b0:e6:5d:b1:1c:f4:e5:da:7c:99:0c:95:
         4a:b5:1a:90:5b:89:3f:f0:b8:28:57:1c:95:c4:d5:90:73:07:
         e3:86:e5:6f:3c:96:3b:17:b1:69:40:15:d7:ae:d8:06:e2:62:
         a3:6a:dd:dc:56:11:eb:9f:f1:64:e5:e3:41:13:0b:f2:ce:26:
         a4:69:ec:65:ae:dd:a1:fe:97:d8:58:39:4c:7e:95:9b:38:8d:
         ad:4a:ef:6c:ac:e4:9c:0c:d4:d4:ca:3b:4c:75:48:a3:d6:0b:
         f4:86:40:41:42:04:40:5e:b6:7c:54:2c:81:7e:2c:4b:c1:f5:
         2b:13:7f:e5:80:9a:c1:bb:c2:0a:64:32:7f:1f:2d:4c:5f:ad:
         e0:32:57:78:3d:a2:ea:e2:fd:69:32:8e:b2:44:57:8a:4c:f6:
         c1:a5:31:35:1a:d0:f4:46:40:4f:36:e4:d8:3f:25:dc:85:51:
         23:69:5d:5b:67:e6:5e:5c:63:8d:a8:cd:84:8e:b5:97:3e:a2:
         d4:fd:a0:1a:84:d8:65:31:af:45:8f:28:bc:79:62:d0:20:89:
         d3:ed:a0:4d:7d:15:c4:e7:7d:33:6b:22:9d:46:7d:fd:2a:72:
         7d:64:c8:4d:c4:13:27:8c:cd:a3:08:8b:6d:75:01:96:bb:e3:
         47:9e:30:f6:05:a9:cb:94:27:25:68:7c:03:1e:b0:36:b1:63:
         61:e2:a1:0e:25:fa:1c:70:32:cf:44:63:f7:40:b4:14:f8:f5:
         87:ef:0f:e0:40:19:cf:24:a1:87:b9:2b:43:74:d7:38:f1:d5:
         2c:e8:8d:0a:ee:75:8c:28:65:95:d0:1b:d9:fc:6e:08:ad:a0:
         53:76:6a:b2:e6:93:a5:b0
-----BEGIN CERTIFICATE-----
MIIHRjCCBS6gAwIBAgIBOTANBgkqhkiG9w0BAQUFADCBtDELMAkGA1UEBhMCVVMx
CzAJBgNVBAgTAkNBMRUwEwYDVQQHEwxTYW5GcmFuY2lzY28xFTATBgNVBAoTDFBp
eGdsbywgSW5jLjEQMA4GA1UECxMHVlBOLUNJRTEaMBgGA1UEAxMRdHVubmVsLnBp
eGdsby5jb20xHDAaBgNVBCkTE0JhbGEgQ2hhbmRyYXNla2FyYW4xHjAcBgkqhkiG
9w0BCQEWD2JhbGFAcGl4Z2xvLmNvbTAeFw0xODAyMTQwNjI0NTlaFw0yODAyMTIw
NjI0NTlaMIGoMQswCQYDVQQGEwJVUzELMAkGA1UECBMCQ0ExFTATBgNVBAcTDFNh
bkZyYW5jaXNjbzEVMBMGA1UEChMMUGl4Z2xvLCBJbmMuMRAwDgYDVQQLEwdWUE4t
Q0lFMQ4wDAYDVQQDEwVjaWU1NjEcMBoGA1UEKRMTQmFsYSBDaGFuZHJhc2VrYXJh
bjEeMBwGCSqGSIb3DQEJARYPYmFsYUBwaXhnbG8uY29tMIICIjANBgkqhkiG9w0B
AQEFAAOCAg8AMIICCgKCAgEAqFg4xZdxl/x6i3m4DXvNhVaEk9Z4P+BIoEj4CvNg
50b94IyAoi698zy69XcUseYBr45dPA5pxMCciM7v2mJqqV6RwUbPQUijrt1dEfJH
ZNWFkGMpwew2Sacny7sPCUXd3LYZrfwEYvh8pbkEQeYtzkSMWJcjYuoZikRsOnL0
8KxawqlkRaH81N4+EVRD44fBRCOpK29qmMt64nke/j3TGf/dNB4l4ZE9UdBan2sQ
+XgDl5DvfhPwMdnpFr1BH3x4WJsNOKGyFnehqaQyLhJhQEPqYOk/4hBnvkmLp6Gu
xF7AKTHA2P78WBalQB3eASdkivzprujnFxWgHCw7QGbO9iEJQ51xML8McvtX21s0
QN7M8lF7Sdn6VSxkm5lqRglbp+OYA3o6N6Q9rzS/IDF58C9miIokzIUnMn8u09+l
E+SRapbKTAMXdcdRxrQpqMGrWjrLSevnoQ0iTiydGux5A9EoogH/ATR3s4KHD3ts
rNhzjwrEesB8TCs+FArE4o20nCY51dnNQ/Obdxf+34Ay0AK4a/UiEqnzsnsC9598
FNuegykPfvwUvEIT9ulqQi/8mkR8yhRfPxY4tGBp77UL4yuesrAboIcW2A1d2hHq
Vf6M/d52p6CuuSuHQ4NV9bF8S5nAYkMUuGBFeui/97iRTUicT9L951+OkCfnmTJQ
zNsCAwEAAaOCAWswggFnMAkGA1UdEwQCMAAwLQYJYIZIAYb4QgENBCAWHkVhc3kt
UlNBIEdlbmVyYXRlZCBDZXJ0aWZpY2F0ZTAdBgNVHQ4EFgQURdosRGv9xwMixAXG
dTZ8gMdcALswgekGA1UdIwSB4TCB3oAU7ziNFFBYp1tNnBdy/N+5rKdRsBChgbqk
gbcwgbQxCzAJBgNVBAYTAlVTMQswCQYDVQQIEwJDQTEVMBMGA1UEBxMMU2FuRnJh
bmNpc2NvMRUwEwYDVQQKEwxQaXhnbG8sIEluYy4xEDAOBgNVBAsTB1ZQTi1DSUUx
GjAYBgNVBAMTEXR1bm5lbC5waXhnbG8uY29tMRwwGgYDVQQpExNCYWxhIENoYW5k
cmFzZWthcmFuMR4wHAYJKoZIhvcNAQkBFg9iYWxhQHBpeGdsby5jb22CCQCm28aD
gOageTATBgNVHSUEDDAKBggrBgEFBQcDAjALBgNVHQ8EBAMCB4AwDQYJKoZIhvcN
AQEFBQADggIBAEXWQeP4b8BLBeJdjlEzq19K9txNPPFjyObuTa7Bsk2oc/U19rMN
s6yN4v4bh11rgXir06l5qguFFDp30LYdugP8A6NUVkwfNxCTozWAgECAAuC/bo3F
tCmMMu4o24RPMwB9utDw/SGMScvehi85T39Ukxcx4JNV1Ft6ILkeQmVnIyg4xNHh
UJh5lW6kNGEi9zwhJietVifhbvG7J/4j3qggdr6oY5eaBNMizy+E7nDt/PsQpDrx
lCRlmLDmXbEc9OXafJkMlUq1GpBbiT/wuChXHJXE1ZBzB+OG5W88ljsXsWlAFdeu
2AbiYqNq3dxWEeuf8WTl40ETC/LOJqRp7GWu3aH+l9hYOUx+lZs4ja1K72ys5JwM
1NTKO0x1SKPWC/SGQEFCBEBetnxULIF+LEvB9SsTf+WAmsG7wgpkMn8fLUxfreAy
V3g9ouri/WkyjrJEV4pM9sGlMTUa0PRGQE825Ng/JdyFUSNpXVtn5l5cY42ozYSO
tZc+otT9oBqE2GUxr0WPKLx5YtAgidPtoE19FcTnfTNrIp1Gff0qcn1kyE3EEyeM
zaMIi211AZa740eeMPYFqcuUJyVofAMesDaxY2HioQ4l+hxwMs9EY/dAtBT49Yfv
D+BAGc8koYe5K0N01zjx1SzojQrudYwoZZXQG9n8bgitoFN2arLmk6Ww
-----END CERTIFICATE-----
