Certificate:
    Data:
        Version: 3 (0x2)
        Serial Number: 59 (0x3b)
    Signature Algorithm: sha1WithRSAEncryption
        Issuer: C=US, ST=CA, L=SanFrancisco, O=Pixglo, Inc., OU=VPN-CIE, CN=tunnel.pixglo.com/name=Bala Chandrasekaran/emailAddress=bala@pixglo.com
        Validity
            Not Before: Feb 14 06:25:01 2018 GMT
            Not After : Feb 12 06:25:01 2028 GMT
        Subject: C=US, ST=CA, L=SanFrancisco, O=Pixglo, Inc., OU=VPN-CIE, CN=cie58/name=Bala Chandrasekaran/emailAddress=bala@pixglo.com
        Subject Public Key Info:
            Public Key Algorithm: rsaEncryption
                Public-Key: (4096 bit)
                Modulus:
                    00:b2:4b:88:4b:19:7c:55:98:0b:1d:12:77:4b:b5:
                    fa:34:eb:a6:76:af:9f:29:64:b7:26:3d:34:d1:33:
                    ff:b0:20:bb:c5:81:bc:ea:7f:44:f0:78:25:2b:2c:
                    00:9f:cc:a3:90:e8:cf:66:ed:51:96:cd:de:03:10:
                    fb:30:5f:53:55:3c:d2:c0:c2:82:a3:dc:0b:40:66:
                    53:16:49:62:a6:30:5d:9a:61:db:e6:d5:93:64:5b:
                    15:e8:76:08:b3:65:1b:26:ad:65:10:bc:ff:0d:c7:
                    61:2f:9a:ef:a4:42:35:7f:a2:59:b6:8d:5a:82:ce:
                    43:d7:3a:96:f4:2d:e0:c1:45:e4:0e:2f:e7:64:e9:
                    b2:19:39:48:f1:73:39:58:e4:bf:c8:03:8a:54:28:
                    b1:98:07:dd:45:11:eb:d7:ab:24:9c:63:4c:bc:93:
                    ca:d3:f1:a9:ac:02:1c:74:06:d4:1f:b5:57:51:2e:
                    c2:0d:4f:ff:f7:9a:24:4c:84:03:19:00:67:7c:ef:
                    ff:8f:54:cb:c2:26:cc:2d:f3:70:3f:c1:c9:d6:18:
                    4a:bd:0f:ed:6a:46:22:87:db:98:18:61:7f:76:d1:
                    cd:e9:1b:b6:54:64:da:a5:72:20:35:d8:35:4d:9c:
                    ff:c5:1a:a5:19:1e:e6:42:88:3c:ec:47:65:d8:fd:
                    c6:2b:75:a4:d4:d0:2d:7c:3d:ac:3e:9b:45:2b:74:
                    6a:19:fd:2b:d7:7e:cf:b5:22:15:93:82:b9:fe:a5:
                    ad:fc:d2:55:44:68:ab:4b:09:44:57:0c:81:3d:89:
                    52:d7:50:58:61:74:60:91:b4:18:97:94:74:54:2f:
                    d6:9a:a3:e7:c2:4b:4f:8c:82:35:ce:b6:0c:95:97:
                    5a:a0:39:06:ca:1a:e9:e2:f4:3a:40:9f:50:f1:37:
                    94:73:48:13:f8:c0:b7:3c:8a:6d:ef:8b:5f:09:0b:
                    5e:6b:26:98:0c:01:bd:0e:73:7a:49:b2:3f:b4:e6:
                    6b:26:9a:db:a6:8e:b3:74:f6:07:75:7b:08:40:55:
                    21:4e:34:0a:02:ec:53:7d:d8:9e:cd:a8:19:ff:80:
                    d1:a9:85:2f:4c:b2:43:a8:41:d4:6e:b9:c9:2f:9d:
                    f6:1a:e6:70:06:3f:35:2a:b1:60:59:49:f9:b6:d2:
                    b5:cd:7a:c6:3a:25:7a:e2:9e:02:de:0e:a5:ce:24:
                    35:46:c7:e1:01:03:bf:68:5e:d5:43:42:be:70:5f:
                    51:da:2e:cf:11:e0:7e:0c:e0:ee:d1:dd:5d:33:23:
                    b9:3e:57:24:d2:9b:0a:96:dc:df:c3:a7:a6:b6:34:
                    73:3a:1f:e8:54:1d:0f:91:22:4f:3f:c5:59:ca:fe:
                    3e:1c:c1
                Exponent: 65537 (0x10001)
        X509v3 extensions:
            X509v3 Basic Constraints: 
                CA:FALSE
            Netscape Comment: 
                Easy-RSA Generated Certificate
            X509v3 Subject Key Identifier: 
                75:B1:01:A2:3E:13:FD:9B:EC:6F:28:F3:BA:3A:EE:EE:32:72:92:C5
            X509v3 Authority Key Identifier: 
                keyid:EF:38:8D:14:50:58:A7:5B:4D:9C:17:72:FC:DF:B9:AC:A7:51:B0:10
                DirName:/C=US/ST=CA/L=SanFrancisco/O=Pixglo, Inc./OU=VPN-CIE/CN=tunnel.pixglo.com/name=Bala Chandrasekaran/emailAddress=bala@pixglo.com
                serial:A6:DB:C6:83:80:E6:A0:79

            X509v3 Extended Key Usage: 
                TLS Web Client Authentication
            X509v3 Key Usage: 
                Digital Signature
    Signature Algorithm: sha1WithRSAEncryption
         08:07:e7:b5:b4:59:30:19:a5:fe:d4:84:a1:eb:18:6d:ec:47:
         8c:39:e2:b7:24:26:00:05:01:fd:2e:bd:af:49:90:41:8c:b7:
         52:8f:18:b7:08:68:8a:f3:4b:24:64:42:c3:22:67:fd:20:34:
         94:7d:ea:c2:f6:7e:43:b5:ee:3f:28:22:b1:4e:74:a5:49:c0:
         73:f5:f4:c2:50:d8:35:4a:7f:26:ed:cb:43:07:10:47:8b:3e:
         29:26:4a:69:9e:df:20:33:0a:9b:5c:d6:54:eb:bb:1a:56:8f:
         d4:62:b0:45:cd:dc:96:5e:a6:7b:f7:26:56:c0:2d:47:f0:7a:
         02:41:37:f1:db:29:c9:f4:19:b2:9b:ac:92:d0:3d:78:f6:d0:
         0f:05:d4:85:ba:7e:b0:50:35:83:ea:0b:51:61:85:e7:f7:7d:
         06:bd:02:67:e4:fb:c8:73:1b:d0:77:06:59:16:6b:62:8c:0f:
         8a:3e:3a:80:5f:68:f9:ad:bf:2f:ae:b5:c4:9e:b1:f5:0d:32:
         98:21:ef:3e:cb:08:f8:ed:75:2e:37:ea:38:79:f8:23:ec:e8:
         7e:7a:33:03:08:34:49:2a:9c:4f:12:61:79:08:06:06:01:58:
         38:5f:90:13:92:4f:c1:2c:72:e9:a3:f6:07:ca:ef:cd:8b:8b:
         1d:d7:96:3f:f6:1e:d1:a0:72:e2:d4:e9:dd:f4:5e:bf:52:30:
         f2:1b:e4:df:6e:be:4c:70:52:10:ce:d4:73:d9:72:4c:da:3a:
         4e:48:fc:5d:65:e9:94:4b:14:74:0a:c7:e4:c6:33:b4:bb:91:
         ab:6b:97:1b:3e:dc:0b:e9:2e:3b:a5:ed:89:46:ab:9b:fa:ac:
         54:c0:67:d8:dd:d8:a2:45:3d:b9:cc:f9:fb:f4:df:d0:93:f6:
         5f:1a:6a:57:3a:64:27:b1:aa:da:ff:1c:7f:aa:6d:a4:3d:8e:
         71:5d:f6:e8:3d:2d:c0:9b:dc:be:52:d3:85:7a:15:80:95:29:
         4a:1f:fc:71:5e:7a:b3:ef:50:9b:7d:14:88:5e:37:37:33:1b:
         6d:2f:5f:10:56:18:8b:f8:27:3f:36:c1:6d:97:be:2b:55:fa:
         6b:28:b0:9c:00:73:2d:8b:a9:3b:c7:c5:ae:d2:1f:f1:fc:7a:
         da:b5:07:69:b9:97:80:4e:b3:ed:77:4f:9e:ed:40:22:dd:94:
         be:56:fe:e6:ed:b0:1f:bb:4b:e8:9d:49:d9:67:a3:63:1c:31:
         ca:8e:db:4f:b1:80:71:de:2a:31:30:ef:86:8b:1b:c0:6e:12:
         91:bf:6a:f0:21:ed:74:da:82:08:f0:c8:e4:20:45:54:83:f6:
         87:49:d1:e1:0d:f8:11:ae
-----BEGIN CERTIFICATE-----
MIIHRjCCBS6gAwIBAgIBOzANBgkqhkiG9w0BAQUFADCBtDELMAkGA1UEBhMCVVMx
CzAJBgNVBAgTAkNBMRUwEwYDVQQHEwxTYW5GcmFuY2lzY28xFTATBgNVBAoTDFBp
eGdsbywgSW5jLjEQMA4GA1UECxMHVlBOLUNJRTEaMBgGA1UEAxMRdHVubmVsLnBp
eGdsby5jb20xHDAaBgNVBCkTE0JhbGEgQ2hhbmRyYXNla2FyYW4xHjAcBgkqhkiG
9w0BCQEWD2JhbGFAcGl4Z2xvLmNvbTAeFw0xODAyMTQwNjI1MDFaFw0yODAyMTIw
NjI1MDFaMIGoMQswCQYDVQQGEwJVUzELMAkGA1UECBMCQ0ExFTATBgNVBAcTDFNh
bkZyYW5jaXNjbzEVMBMGA1UEChMMUGl4Z2xvLCBJbmMuMRAwDgYDVQQLEwdWUE4t
Q0lFMQ4wDAYDVQQDEwVjaWU1ODEcMBoGA1UEKRMTQmFsYSBDaGFuZHJhc2VrYXJh
bjEeMBwGCSqGSIb3DQEJARYPYmFsYUBwaXhnbG8uY29tMIICIjANBgkqhkiG9w0B
AQEFAAOCAg8AMIICCgKCAgEAskuISxl8VZgLHRJ3S7X6NOumdq+fKWS3Jj000TP/
sCC7xYG86n9E8HglKywAn8yjkOjPZu1Rls3eAxD7MF9TVTzSwMKCo9wLQGZTFkli
pjBdmmHb5tWTZFsV6HYIs2UbJq1lELz/DcdhL5rvpEI1f6JZto1ags5D1zqW9C3g
wUXkDi/nZOmyGTlI8XM5WOS/yAOKVCixmAfdRRHr16sknGNMvJPK0/GprAIcdAbU
H7VXUS7CDU//95okTIQDGQBnfO//j1TLwibMLfNwP8HJ1hhKvQ/takYih9uYGGF/
dtHN6Ru2VGTapXIgNdg1TZz/xRqlGR7mQog87Edl2P3GK3Wk1NAtfD2sPptFK3Rq
Gf0r137PtSIVk4K5/qWt/NJVRGirSwlEVwyBPYlS11BYYXRgkbQYl5R0VC/WmqPn
wktPjII1zrYMlZdaoDkGyhrp4vQ6QJ9Q8TeUc0gT+MC3PIpt74tfCQteayaYDAG9
DnN6SbI/tOZrJprbpo6zdPYHdXsIQFUhTjQKAuxTfdiezagZ/4DRqYUvTLJDqEHU
brnJL532GuZwBj81KrFgWUn5ttK1zXrGOiV64p4C3g6lziQ1RsfhAQO/aF7VQ0K+
cF9R2i7PEeB+DODu0d1dMyO5Plck0psKltzfw6emtjRzOh/oVB0PkSJPP8VZyv4+
HMECAwEAAaOCAWswggFnMAkGA1UdEwQCMAAwLQYJYIZIAYb4QgENBCAWHkVhc3kt
UlNBIEdlbmVyYXRlZCBDZXJ0aWZpY2F0ZTAdBgNVHQ4EFgQUdbEBoj4T/Zvsbyjz
ujru7jJyksUwgekGA1UdIwSB4TCB3oAU7ziNFFBYp1tNnBdy/N+5rKdRsBChgbqk
gbcwgbQxCzAJBgNVBAYTAlVTMQswCQYDVQQIEwJDQTEVMBMGA1UEBxMMU2FuRnJh
bmNpc2NvMRUwEwYDVQQKEwxQaXhnbG8sIEluYy4xEDAOBgNVBAsTB1ZQTi1DSUUx
GjAYBgNVBAMTEXR1bm5lbC5waXhnbG8uY29tMRwwGgYDVQQpExNCYWxhIENoYW5k
cmFzZWthcmFuMR4wHAYJKoZIhvcNAQkBFg9iYWxhQHBpeGdsby5jb22CCQCm28aD
gOageTATBgNVHSUEDDAKBggrBgEFBQcDAjALBgNVHQ8EBAMCB4AwDQYJKoZIhvcN
AQEFBQADggIBAAgH57W0WTAZpf7UhKHrGG3sR4w54rckJgAFAf0uva9JkEGMt1KP
GLcIaIrzSyRkQsMiZ/0gNJR96sL2fkO17j8oIrFOdKVJwHP19MJQ2DVKfybty0MH
EEeLPikmSmme3yAzCptc1lTruxpWj9RisEXN3JZepnv3JlbALUfwegJBN/HbKcn0
GbKbrJLQPXj20A8F1IW6frBQNYPqC1Fhhef3fQa9Amfk+8hzG9B3BlkWa2KMD4o+
OoBfaPmtvy+utcSesfUNMpgh7z7LCPjtdS436jh5+CPs6H56MwMINEkqnE8SYXkI
BgYBWDhfkBOST8Escumj9gfK782Lix3Xlj/2HtGgcuLU6d30Xr9SMPIb5N9uvkxw
UhDO1HPZckzaOk5I/F1l6ZRLFHQKx+TGM7S7katrlxs+3AvpLjul7YlGq5v6rFTA
Z9jd2KJFPbnM+fv039CT9l8aalc6ZCexqtr/HH+qbaQ9jnFd9ug9LcCb3L5S04V6
FYCVKUof/HFeerPvUJt9FIheNzczG20vXxBWGIv4Jz82wW2XvitV+msosJwAcy2L
qTvHxa7SH/H8etq1B2m5l4BOs+13T57tQCLdlL5W/ubtsB+7S+idSdlno2McMcqO
20+xgHHeKjEw74aLG8BuEpG/avAh7XTaggjwyOQgRVSD9odJ0eEN+BGu
-----END CERTIFICATE-----
