Certificate:
    Data:
        Version: 3 (0x2)
        Serial Number: 60 (0x3c)
    Signature Algorithm: sha1WithRSAEncryption
        Issuer: C=US, ST=CA, L=SanFrancisco, O=Pixglo, Inc., OU=VPN-CIE, CN=tunnel.pixglo.com/name=Bala Chandrasekaran/emailAddress=bala@pixglo.com
        Validity
            Not Before: Feb 14 06:25:01 2018 GMT
            Not After : Feb 12 06:25:01 2028 GMT
        Subject: C=US, ST=CA, L=SanFrancisco, O=Pixglo, Inc., OU=VPN-CIE, CN=cie59/name=Bala Chandrasekaran/emailAddress=bala@pixglo.com
        Subject Public Key Info:
            Public Key Algorithm: rsaEncryption
                Public-Key: (4096 bit)
                Modulus:
                    00:c3:56:83:f6:72:08:3f:3b:7c:36:c4:6c:cb:47:
                    be:f4:bf:ca:b9:73:5b:af:31:20:af:ee:53:fb:1a:
                    89:ae:9f:d4:52:41:66:50:d4:01:b8:8a:95:dd:7b:
                    dd:43:35:42:bf:d6:c1:2b:40:0f:de:b9:17:55:df:
                    39:32:83:e9:2b:f0:74:c8:07:2b:4a:f2:8c:04:41:
                    6a:f3:73:fc:52:c4:77:f1:97:c3:15:48:cc:2a:87:
                    b1:0a:2e:c6:9b:e7:99:60:41:d1:8c:7c:03:c9:66:
                    1e:db:1c:99:74:ec:af:34:84:d6:1d:26:8a:8d:bc:
                    d9:7e:33:50:0a:9e:d2:9e:07:f6:0b:3b:92:05:5c:
                    41:a7:d4:c0:ac:0f:43:be:a6:14:8c:5f:a7:c3:66:
                    e3:5f:35:e2:32:04:43:05:32:03:b3:85:d1:ee:05:
                    b6:7a:6a:cd:6e:ad:c3:1f:e4:17:90:14:60:c0:24:
                    fe:2c:4e:a0:fb:52:07:26:e3:72:5f:73:d1:61:d5:
                    b0:85:5a:68:de:85:9d:34:bb:cc:34:6d:22:38:b8:
                    0b:b8:e7:01:c4:bb:19:94:d2:fb:a1:f6:c9:a1:47:
                    3f:b6:dc:a9:a8:64:f0:95:b2:dc:ff:b8:be:a2:71:
                    28:e7:37:28:e7:52:fa:a5:f6:13:39:4f:55:08:22:
                    dc:e4:c1:54:16:b6:2c:62:d8:ce:fd:af:53:6c:5d:
                    53:eb:a1:bc:82:17:9e:c5:29:1e:93:a6:17:7a:39:
                    42:91:e4:8c:4b:d3:f4:b7:77:f5:35:3c:11:a2:1b:
                    dc:df:f9:9c:01:bd:74:b1:b1:8e:ec:ad:a3:d2:be:
                    cd:56:0c:20:87:88:6e:37:a7:dc:e8:02:bf:2c:e5:
                    51:ed:8b:e5:91:07:7b:49:c3:1b:2e:27:e6:dc:ca:
                    e3:f8:53:db:c8:58:c6:2b:b7:18:7f:39:e2:06:81:
                    4d:8d:7c:4e:06:eb:f6:85:4b:ca:27:83:6e:a7:58:
                    9b:27:a7:00:ab:2a:ca:de:3a:9a:a2:7d:12:80:b7:
                    13:21:c0:fc:57:34:43:bc:c2:80:53:7f:f2:8b:32:
                    48:6f:46:51:69:db:bc:fe:aa:06:51:34:76:26:c1:
                    7a:17:73:76:d6:d6:24:4e:c5:f2:f0:e5:23:ce:4e:
                    49:5c:da:32:05:c9:e6:c2:c6:da:72:55:69:c4:37:
                    13:55:1a:9d:58:e0:8f:d2:20:e2:24:52:d8:be:f4:
                    3f:46:73:f5:66:1c:57:e5:58:21:a2:2b:e9:60:c9:
                    77:9b:6c:bb:79:fd:16:ea:36:b0:11:f8:21:75:e2:
                    7a:b8:51:27:84:c1:03:f9:15:c5:b7:ef:2a:09:68:
                    2b:ea:31
                Exponent: 65537 (0x10001)
        X509v3 extensions:
            X509v3 Basic Constraints: 
                CA:FALSE
            Netscape Comment: 
                Easy-RSA Generated Certificate
            X509v3 Subject Key Identifier: 
                DB:3E:17:6E:A4:16:7A:E8:0A:63:C6:47:67:7A:B9:95:AA:A3:5E:F2
            X509v3 Authority Key Identifier: 
                keyid:EF:38:8D:14:50:58:A7:5B:4D:9C:17:72:FC:DF:B9:AC:A7:51:B0:10
                DirName:/C=US/ST=CA/L=SanFrancisco/O=Pixglo, Inc./OU=VPN-CIE/CN=tunnel.pixglo.com/name=Bala Chandrasekaran/emailAddress=bala@pixglo.com
                serial:A6:DB:C6:83:80:E6:A0:79

            X509v3 Extended Key Usage: 
                TLS Web Client Authentication
            X509v3 Key Usage: 
                Digital Signature
    Signature Algorithm: sha1WithRSAEncryption
         6a:36:be:e4:41:37:cd:2c:a8:1f:29:ec:a7:f2:7b:c0:8d:75:
         e6:15:53:54:cd:36:3b:f4:db:6a:66:6c:41:1d:00:7d:7f:9b:
         31:84:dd:f8:26:94:c0:69:55:6a:b1:cf:4a:b9:c4:53:e4:18:
         48:c7:f7:c8:10:9b:9f:f3:19:77:17:98:84:8d:3d:02:67:fd:
         d0:23:d4:d0:64:3e:21:ad:6d:cb:02:d8:04:77:52:37:5e:b3:
         f9:03:2e:a2:ce:af:f3:48:7f:6d:bf:74:04:a6:4a:24:10:51:
         92:a1:eb:32:95:c9:95:71:3b:fe:15:97:b9:9c:2a:4a:1c:cf:
         92:70:a3:00:c0:56:3f:cd:2c:12:89:fc:f6:45:a1:8c:c8:67:
         57:f2:e9:77:5f:f2:30:07:0b:78:bb:48:20:70:a7:b9:d8:7b:
         a8:6e:a4:a5:a4:25:16:7b:80:b8:45:3b:ae:6f:4e:c7:13:9b:
         b9:b8:54:ac:eb:7a:81:8d:9c:c0:21:4c:bb:e1:a9:2d:4f:09:
         9a:b8:97:94:66:bd:81:92:96:e4:8c:24:a6:6a:d5:b3:af:96:
         bd:88:30:ae:1c:81:3c:9c:6b:26:8a:8c:d5:2c:3c:91:0f:c9:
         e4:26:47:b8:e0:90:d7:18:3f:80:96:38:02:de:e5:43:51:12:
         9b:e6:17:ea:6a:e5:91:b3:c6:22:32:73:23:af:78:87:64:9e:
         2f:6e:9c:1c:75:47:6c:3d:54:ef:ef:fc:d8:cb:fe:04:b8:30:
         3e:4e:4f:5b:e5:89:ba:5a:cb:df:69:44:69:32:09:ea:99:77:
         8e:e8:de:2d:29:3e:42:b9:6d:42:65:0c:44:2c:1c:c4:0c:47:
         81:04:ba:19:db:cf:fc:77:73:a1:01:d6:9d:8e:4d:2f:75:1a:
         10:ef:c7:e2:56:94:76:bf:97:28:06:d1:05:60:19:c4:10:a6:
         23:81:ad:07:c1:3f:f6:fb:a1:b2:13:d8:3f:8f:59:be:ea:6c:
         fb:68:7d:1a:25:9e:1f:0f:d6:04:30:51:0a:86:47:c7:4f:eb:
         dd:c1:33:47:f9:1b:24:2d:7d:19:94:24:10:32:1b:76:e2:cf:
         27:d6:2b:44:03:1f:bd:63:dc:3f:d0:cb:a7:66:cd:79:8a:79:
         d1:bf:1f:a8:1d:fd:62:55:5c:c6:80:8f:1d:bb:d4:5d:bc:32:
         a0:c3:8c:dd:0a:f1:ec:05:d0:4e:a1:b9:19:63:37:bd:db:bb:
         8b:7e:9b:fc:45:e1:13:a1:bb:57:56:10:e4:64:6f:67:de:25:
         f2:d2:f9:c8:9a:75:33:06:41:64:09:8a:4d:73:f9:e1:20:7b:
         34:74:33:35:16:90:91:f5
-----BEGIN CERTIFICATE-----
MIIHRjCCBS6gAwIBAgIBPDANBgkqhkiG9w0BAQUFADCBtDELMAkGA1UEBhMCVVMx
CzAJBgNVBAgTAkNBMRUwEwYDVQQHEwxTYW5GcmFuY2lzY28xFTATBgNVBAoTDFBp
eGdsbywgSW5jLjEQMA4GA1UECxMHVlBOLUNJRTEaMBgGA1UEAxMRdHVubmVsLnBp
eGdsby5jb20xHDAaBgNVBCkTE0JhbGEgQ2hhbmRyYXNla2FyYW4xHjAcBgkqhkiG
9w0BCQEWD2JhbGFAcGl4Z2xvLmNvbTAeFw0xODAyMTQwNjI1MDFaFw0yODAyMTIw
NjI1MDFaMIGoMQswCQYDVQQGEwJVUzELMAkGA1UECBMCQ0ExFTATBgNVBAcTDFNh
bkZyYW5jaXNjbzEVMBMGA1UEChMMUGl4Z2xvLCBJbmMuMRAwDgYDVQQLEwdWUE4t
Q0lFMQ4wDAYDVQQDEwVjaWU1OTEcMBoGA1UEKRMTQmFsYSBDaGFuZHJhc2VrYXJh
bjEeMBwGCSqGSIb3DQEJARYPYmFsYUBwaXhnbG8uY29tMIICIjANBgkqhkiG9w0B
AQEFAAOCAg8AMIICCgKCAgEAw1aD9nIIPzt8NsRsy0e+9L/KuXNbrzEgr+5T+xqJ
rp/UUkFmUNQBuIqV3XvdQzVCv9bBK0AP3rkXVd85MoPpK/B0yAcrSvKMBEFq83P8
UsR38ZfDFUjMKoexCi7Gm+eZYEHRjHwDyWYe2xyZdOyvNITWHSaKjbzZfjNQCp7S
ngf2CzuSBVxBp9TArA9DvqYUjF+nw2bjXzXiMgRDBTIDs4XR7gW2emrNbq3DH+QX
kBRgwCT+LE6g+1IHJuNyX3PRYdWwhVpo3oWdNLvMNG0iOLgLuOcBxLsZlNL7ofbJ
oUc/ttypqGTwlbLc/7i+onEo5zco51L6pfYTOU9VCCLc5MFUFrYsYtjO/a9TbF1T
66G8gheexSkek6YXejlCkeSMS9P0t3f1NTwRohvc3/mcAb10sbGO7K2j0r7NVgwg
h4huN6fc6AK/LOVR7YvlkQd7ScMbLifm3Mrj+FPbyFjGK7cYfzniBoFNjXxOBuv2
hUvKJ4Nup1ibJ6cAqyrK3jqaon0SgLcTIcD8VzRDvMKAU3/yizJIb0ZRadu8/qoG
UTR2JsF6F3N21tYkTsXy8OUjzk5JXNoyBcnmwsbaclVpxDcTVRqdWOCP0iDiJFLY
vvQ/RnP1ZhxX5VghoivpYMl3m2y7ef0W6jawEfghdeJ6uFEnhMED+RXFt+8qCWgr
6jECAwEAAaOCAWswggFnMAkGA1UdEwQCMAAwLQYJYIZIAYb4QgENBCAWHkVhc3kt
UlNBIEdlbmVyYXRlZCBDZXJ0aWZpY2F0ZTAdBgNVHQ4EFgQU2z4XbqQWeugKY8ZH
Z3q5laqjXvIwgekGA1UdIwSB4TCB3oAU7ziNFFBYp1tNnBdy/N+5rKdRsBChgbqk
gbcwgbQxCzAJBgNVBAYTAlVTMQswCQYDVQQIEwJDQTEVMBMGA1UEBxMMU2FuRnJh
bmNpc2NvMRUwEwYDVQQKEwxQaXhnbG8sIEluYy4xEDAOBgNVBAsTB1ZQTi1DSUUx
GjAYBgNVBAMTEXR1bm5lbC5waXhnbG8uY29tMRwwGgYDVQQpExNCYWxhIENoYW5k
cmFzZWthcmFuMR4wHAYJKoZIhvcNAQkBFg9iYWxhQHBpeGdsby5jb22CCQCm28aD
gOageTATBgNVHSUEDDAKBggrBgEFBQcDAjALBgNVHQ8EBAMCB4AwDQYJKoZIhvcN
AQEFBQADggIBAGo2vuRBN80sqB8p7Kfye8CNdeYVU1TNNjv022pmbEEdAH1/mzGE
3fgmlMBpVWqxz0q5xFPkGEjH98gQm5/zGXcXmISNPQJn/dAj1NBkPiGtbcsC2AR3
Ujdes/kDLqLOr/NIf22/dASmSiQQUZKh6zKVyZVxO/4Vl7mcKkocz5JwowDAVj/N
LBKJ/PZFoYzIZ1fy6Xdf8jAHC3i7SCBwp7nYe6hupKWkJRZ7gLhFO65vTscTm7m4
VKzreoGNnMAhTLvhqS1PCZq4l5RmvYGSluSMJKZq1bOvlr2IMK4cgTycayaKjNUs
PJEPyeQmR7jgkNcYP4CWOALe5UNREpvmF+pq5ZGzxiIycyOveIdkni9unBx1R2w9
VO/v/NjL/gS4MD5OT1vlibpay99pRGkyCeqZd47o3i0pPkK5bUJlDEQsHMQMR4EE
uhnbz/x3c6EB1p2OTS91GhDvx+JWlHa/lygG0QVgGcQQpiOBrQfBP/b7obIT2D+P
Wb7qbPtofRolnh8P1gQwUQqGR8dP693BM0f5GyQtfRmUJBAyG3bizyfWK0QDH71j
3D/Qy6dmzXmKedG/H6gd/WJVXMaAjx271F28MqDDjN0K8ewF0E6huRljN73bu4t+
m/xF4ROhu1dWEORkb2feJfLS+ciadTMGQWQJik1z+eEgezR0MzUWkJH1
-----END CERTIFICATE-----
