Certificate:
    Data:
        Version: 3 (0x2)
        Serial Number: 62 (0x3e)
    Signature Algorithm: sha1WithRSAEncryption
        Issuer: C=US, ST=CA, L=SanFrancisco, O=Pixglo, Inc., OU=VPN-CIE, CN=tunnel.pixglo.com/name=Bala Chandrasekaran/emailAddress=bala@pixglo.com
        Validity
            Not Before: Feb 14 06:25:02 2018 GMT
            Not After : Feb 12 06:25:02 2028 GMT
        Subject: C=US, ST=CA, L=SanFrancisco, O=Pixglo, Inc., OU=VPN-CIE, CN=cie61/name=Bala Chandrasekaran/emailAddress=bala@pixglo.com
        Subject Public Key Info:
            Public Key Algorithm: rsaEncryption
                Public-Key: (4096 bit)
                Modulus:
                    00:ca:53:e6:e9:c1:91:e7:69:80:cf:e4:28:0a:fe:
                    d8:6f:75:c8:95:ca:97:cb:2f:90:3d:37:13:24:c3:
                    47:90:a7:92:e3:8c:f2:1e:35:a2:fa:1f:7b:71:8e:
                    11:2c:de:5d:cd:43:29:23:01:e1:42:f2:5c:b0:38:
                    7c:cb:79:7d:2f:6c:8e:f0:1c:10:ae:cb:ba:63:d3:
                    cc:63:d1:fd:2a:ba:02:ef:3d:c3:90:02:f9:95:8f:
                    53:6f:30:bc:75:8a:72:ac:5a:b8:7c:d9:95:ed:84:
                    31:3a:2a:0a:a9:fc:9f:84:86:66:10:41:3f:8d:6c:
                    1e:3f:34:63:49:fb:47:61:2e:9e:b9:57:3f:37:49:
                    ee:bc:6e:38:36:1c:42:ef:c3:c6:32:63:66:71:73:
                    58:6d:da:5b:96:30:fc:a0:86:3c:a9:2a:94:b5:07:
                    c2:85:07:17:9e:7d:9f:7f:42:d0:e5:cf:93:27:7b:
                    69:7e:51:cc:1b:28:bd:e2:ea:23:c7:ca:6a:b3:e9:
                    d2:08:6e:ab:86:b6:ee:99:68:fc:cf:71:49:cc:70:
                    97:66:c2:17:4f:6e:95:5b:37:5b:5d:a5:6b:00:88:
                    c4:74:75:4f:17:75:51:8a:f8:4d:6c:3c:89:32:21:
                    3e:3a:db:d8:7e:e0:7b:d5:f9:8a:fc:b2:c3:31:ed:
                    58:9f:26:c2:62:e2:81:6c:60:a4:8c:b5:1b:dd:fe:
                    51:ea:25:71:a8:78:da:ea:db:3e:3f:12:4c:e0:e9:
                    c4:73:4c:f5:55:03:b4:17:52:1e:fb:d0:0b:03:71:
                    a8:a7:0d:48:fe:e7:5f:17:db:4e:20:d9:65:1f:af:
                    f8:83:99:b7:aa:4f:6d:b2:96:4e:56:63:cc:6d:cf:
                    d3:6e:9e:eb:5a:5e:61:07:6b:f2:17:71:ec:0e:8d:
                    08:16:a3:34:f1:5e:de:4d:21:3f:9b:e5:3d:87:46:
                    7a:79:39:b1:7f:94:bd:3e:a3:0d:de:8e:bf:f1:e9:
                    a4:4a:e8:4d:a8:db:1a:01:c2:f1:b3:f6:91:86:a1:
                    37:9b:6f:96:1e:55:c3:20:5b:54:5a:05:07:9b:8d:
                    dc:9c:84:58:ec:ff:3d:68:9f:bb:54:09:0d:dc:65:
                    14:90:8c:2b:53:61:e2:21:c2:ce:22:d3:60:23:66:
                    c1:29:81:b3:6c:7d:1c:98:c7:91:b5:8b:24:67:0e:
                    c4:b2:ed:34:18:a7:2b:bb:d6:72:77:3e:b0:4b:71:
                    ea:53:1a:f1:de:cd:79:25:cd:01:59:8d:cc:3b:03:
                    bb:b1:22:b0:79:99:32:e0:d3:69:27:3d:a3:22:4c:
                    5d:cd:37:5a:54:81:d7:ae:8e:79:d5:87:32:0d:45:
                    ad:b7:67
                Exponent: 65537 (0x10001)
        X509v3 extensions:
            X509v3 Basic Constraints: 
                CA:FALSE
            Netscape Comment: 
                Easy-RSA Generated Certificate
            X509v3 Subject Key Identifier: 
                2F:0F:CB:98:24:A4:D8:2E:6C:25:00:57:A5:DA:52:34:F5:59:5E:67
            X509v3 Authority Key Identifier: 
                keyid:EF:38:8D:14:50:58:A7:5B:4D:9C:17:72:FC:DF:B9:AC:A7:51:B0:10
                DirName:/C=US/ST=CA/L=SanFrancisco/O=Pixglo, Inc./OU=VPN-CIE/CN=tunnel.pixglo.com/name=Bala Chandrasekaran/emailAddress=bala@pixglo.com
                serial:A6:DB:C6:83:80:E6:A0:79

            X509v3 Extended Key Usage: 
                TLS Web Client Authentication
            X509v3 Key Usage: 
                Digital Signature
    Signature Algorithm: sha1WithRSAEncryption
         48:48:f1:03:43:fa:50:f5:46:36:c7:68:17:3e:cd:a5:67:d4:
         a5:ba:9b:3e:12:6e:8b:71:78:50:c3:73:90:25:fc:c9:7f:e5:
         c5:a4:f3:8c:fc:73:dd:56:ff:01:41:3c:62:54:85:7b:8c:0e:
         be:71:0a:1a:f6:4e:96:e1:a0:8f:ce:54:32:1b:89:aa:30:58:
         ce:e1:28:2b:b3:92:78:c7:e8:e8:04:c4:7d:60:73:0f:32:f3:
         d2:be:a5:9b:96:f3:ca:30:d5:3e:29:1d:35:36:d4:0f:75:12:
         f7:a4:ec:4a:7a:80:70:b6:81:b9:35:55:8f:42:09:d3:8a:89:
         b1:c7:48:50:d5:1c:3a:a9:e8:d2:1f:c6:80:f5:48:c1:53:73:
         80:40:7c:60:4e:c0:fc:8d:6e:80:c2:a2:1f:4d:59:84:78:40:
         10:a2:4f:d9:ea:5a:c9:de:97:c5:a2:a6:0d:aa:fc:a4:92:34:
         86:0f:ef:d8:2b:21:2a:dc:8c:ce:7b:a8:7b:b3:1c:e8:80:8c:
         0b:89:56:7c:9b:73:f4:e0:48:8b:c2:9c:32:40:58:77:b4:f5:
         a1:3c:48:72:2d:8c:81:1d:3c:a2:b4:c8:3b:6b:18:0e:8a:ac:
         7a:a4:79:b6:bd:64:f8:db:a3:02:67:57:ed:5f:d2:21:5f:09:
         ef:99:79:c9:fa:24:99:1f:75:ff:ed:3b:84:87:39:3d:79:87:
         5d:34:2d:b9:ca:4c:6b:2e:cc:80:9a:b8:19:43:0b:3b:dc:5a:
         c9:a7:f2:eb:83:80:ae:c3:4b:1e:85:3d:36:3c:e9:e3:03:9e:
         e7:95:68:d9:a0:b4:44:08:be:c0:c3:66:e5:b3:d2:b0:46:68:
         e3:54:30:7f:ba:51:1c:db:78:5b:d4:f6:97:1c:d1:72:7f:4d:
         77:7c:54:ce:85:b7:09:5b:9f:d4:b5:e7:da:c5:5b:04:e9:64:
         dc:c3:89:e3:f5:74:b5:17:ff:cf:6a:30:57:1f:d2:c3:ac:b3:
         9b:47:08:b7:50:03:2c:82:e6:5f:1e:ce:76:40:bb:6a:36:ee:
         e4:96:4c:02:70:ba:54:21:bd:1d:62:c4:d3:9d:5c:be:92:b5:
         99:50:7c:f4:c2:18:43:04:af:50:3f:da:b2:52:52:29:65:d1:
         5c:e9:50:f4:92:7f:e3:93:cc:24:48:84:c7:a0:33:ce:26:c8:
         4a:cf:bd:b4:df:da:9c:13:ab:00:4b:6d:46:32:f4:71:f4:fa:
         66:e2:a5:54:b7:f7:af:05:23:60:a5:88:9a:24:8e:94:b2:36:
         f9:c3:99:b8:01:b4:b1:69:65:e9:90:f6:88:f8:88:8e:5e:50:
         19:7e:5a:b8:23:48:18:c3
-----BEGIN CERTIFICATE-----
MIIHRjCCBS6gAwIBAgIBPjANBgkqhkiG9w0BAQUFADCBtDELMAkGA1UEBhMCVVMx
CzAJBgNVBAgTAkNBMRUwEwYDVQQHEwxTYW5GcmFuY2lzY28xFTATBgNVBAoTDFBp
eGdsbywgSW5jLjEQMA4GA1UECxMHVlBOLUNJRTEaMBgGA1UEAxMRdHVubmVsLnBp
eGdsby5jb20xHDAaBgNVBCkTE0JhbGEgQ2hhbmRyYXNla2FyYW4xHjAcBgkqhkiG
9w0BCQEWD2JhbGFAcGl4Z2xvLmNvbTAeFw0xODAyMTQwNjI1MDJaFw0yODAyMTIw
NjI1MDJaMIGoMQswCQYDVQQGEwJVUzELMAkGA1UECBMCQ0ExFTATBgNVBAcTDFNh
bkZyYW5jaXNjbzEVMBMGA1UEChMMUGl4Z2xvLCBJbmMuMRAwDgYDVQQLEwdWUE4t
Q0lFMQ4wDAYDVQQDEwVjaWU2MTEcMBoGA1UEKRMTQmFsYSBDaGFuZHJhc2VrYXJh
bjEeMBwGCSqGSIb3DQEJARYPYmFsYUBwaXhnbG8uY29tMIICIjANBgkqhkiG9w0B
AQEFAAOCAg8AMIICCgKCAgEAylPm6cGR52mAz+QoCv7Yb3XIlcqXyy+QPTcTJMNH
kKeS44zyHjWi+h97cY4RLN5dzUMpIwHhQvJcsDh8y3l9L2yO8BwQrsu6Y9PMY9H9
KroC7z3DkAL5lY9TbzC8dYpyrFq4fNmV7YQxOioKqfyfhIZmEEE/jWwePzRjSftH
YS6euVc/N0nuvG44NhxC78PGMmNmcXNYbdpbljD8oIY8qSqUtQfChQcXnn2ff0LQ
5c+TJ3tpflHMGyi94uojx8pqs+nSCG6rhrbumWj8z3FJzHCXZsIXT26VWzdbXaVr
AIjEdHVPF3VRivhNbDyJMiE+OtvYfuB71fmK/LLDMe1YnybCYuKBbGCkjLUb3f5R
6iVxqHja6ts+PxJM4OnEc0z1VQO0F1Ie+9ALA3Gopw1I/udfF9tOINllH6/4g5m3
qk9tspZOVmPMbc/Tbp7rWl5hB2vyF3HsDo0IFqM08V7eTSE/m+U9h0Z6eTmxf5S9
PqMN3o6/8emkSuhNqNsaAcLxs/aRhqE3m2+WHlXDIFtUWgUHm43cnIRY7P89aJ+7
VAkN3GUUkIwrU2HiIcLOItNgI2bBKYGzbH0cmMeRtYskZw7Esu00GKcru9Zydz6w
S3HqUxrx3s15Jc0BWY3MOwO7sSKweZky4NNpJz2jIkxdzTdaVIHXro551YcyDUWt
t2cCAwEAAaOCAWswggFnMAkGA1UdEwQCMAAwLQYJYIZIAYb4QgENBCAWHkVhc3kt
UlNBIEdlbmVyYXRlZCBDZXJ0aWZpY2F0ZTAdBgNVHQ4EFgQULw/LmCSk2C5sJQBX
pdpSNPVZXmcwgekGA1UdIwSB4TCB3oAU7ziNFFBYp1tNnBdy/N+5rKdRsBChgbqk
gbcwgbQxCzAJBgNVBAYTAlVTMQswCQYDVQQIEwJDQTEVMBMGA1UEBxMMU2FuRnJh
bmNpc2NvMRUwEwYDVQQKEwxQaXhnbG8sIEluYy4xEDAOBgNVBAsTB1ZQTi1DSUUx
GjAYBgNVBAMTEXR1bm5lbC5waXhnbG8uY29tMRwwGgYDVQQpExNCYWxhIENoYW5k
cmFzZWthcmFuMR4wHAYJKoZIhvcNAQkBFg9iYWxhQHBpeGdsby5jb22CCQCm28aD
gOageTATBgNVHSUEDDAKBggrBgEFBQcDAjALBgNVHQ8EBAMCB4AwDQYJKoZIhvcN
AQEFBQADggIBAEhI8QND+lD1RjbHaBc+zaVn1KW6mz4SbotxeFDDc5Al/Ml/5cWk
84z8c91W/wFBPGJUhXuMDr5xChr2TpbhoI/OVDIbiaowWM7hKCuzknjH6OgExH1g
cw8y89K+pZuW88ow1T4pHTU21A91Evek7Ep6gHC2gbk1VY9CCdOKibHHSFDVHDqp
6NIfxoD1SMFTc4BAfGBOwPyNboDCoh9NWYR4QBCiT9nqWsnel8Wipg2q/KSSNIYP
79grISrcjM57qHuzHOiAjAuJVnybc/TgSIvCnDJAWHe09aE8SHItjIEdPKK0yDtr
GA6KrHqkeba9ZPjbowJnV+1f0iFfCe+Zecn6JJkfdf/tO4SHOT15h100LbnKTGsu
zICauBlDCzvcWsmn8uuDgK7DSx6FPTY86eMDnueVaNmgtEQIvsDDZuWz0rBGaONU
MH+6URzbeFvU9pcc0XJ/TXd8VM6Ftwlbn9S159rFWwTpZNzDieP1dLUX/89qMFcf
0sOss5tHCLdQAyyC5l8eznZAu2o27uSWTAJwulQhvR1ixNOdXL6StZlQfPTCGEME
r1A/2rJSUill0VzpUPSSf+OTzCRIhMegM84myErPvbTf2pwTqwBLbUYy9HH0+mbi
pVS3968FI2CliJokjpSyNvnDmbgBtLFpZemQ9oj4iI5eUBl+WrgjSBjD
-----END CERTIFICATE-----
