Certificate:
    Data:
        Version: 3 (0x2)
        Serial Number: 64 (0x40)
    Signature Algorithm: sha1WithRSAEncryption
        Issuer: C=US, ST=CA, L=SanFrancisco, O=Pixglo, Inc., OU=VPN-CIE, CN=tunnel.pixglo.com/name=Bala Chandrasekaran/emailAddress=bala@pixglo.com
        Validity
            Not Before: Feb 14 06:25:04 2018 GMT
            Not After : Feb 12 06:25:04 2028 GMT
        Subject: C=US, ST=CA, L=SanFrancisco, O=Pixglo, Inc., OU=VPN-CIE, CN=cie63/name=Bala Chandrasekaran/emailAddress=bala@pixglo.com
        Subject Public Key Info:
            Public Key Algorithm: rsaEncryption
                Public-Key: (4096 bit)
                Modulus:
                    00:96:fb:97:d3:07:e0:58:28:6b:34:2f:52:63:33:
                    f4:c1:b8:0d:47:16:bc:65:f8:9b:19:fa:4a:80:f4:
                    48:6d:e6:60:c7:99:21:6e:33:0d:c1:1a:8a:bb:0c:
                    24:3a:43:dd:ef:ea:ce:4f:cf:e7:0f:1e:17:21:04:
                    00:d7:a3:d1:1f:d8:b9:91:2e:14:a7:a1:30:89:c7:
                    09:d5:66:2f:c9:87:23:48:06:26:1b:03:80:70:48:
                    94:c2:ca:de:f4:ed:00:0f:40:ac:3f:a7:46:77:71:
                    09:41:c9:c3:88:f4:bf:95:0b:6b:c7:18:d0:52:21:
                    04:62:b2:fb:1e:0c:65:9b:97:3e:ea:48:da:a9:5c:
                    aa:3e:0e:6f:95:ef:d2:f0:35:92:dc:90:0d:b6:40:
                    81:7d:9a:32:76:f1:0d:b7:c9:23:3b:23:93:15:6d:
                    4f:fe:ed:e6:33:09:b3:06:5c:4a:f0:e4:28:44:fc:
                    54:75:5d:4b:5e:ad:7f:85:67:aa:91:5d:0a:44:04:
                    79:44:7e:63:cb:88:ef:a0:c7:86:84:b4:49:6a:57:
                    37:0f:be:f1:8d:cd:c6:fe:1e:33:01:51:3f:91:90:
                    1c:0c:2b:90:9a:ea:34:5f:2a:e7:3b:85:ba:43:9d:
                    c8:1f:ea:b6:40:e4:73:79:8b:ef:12:bc:50:3a:8a:
                    a1:1d:fb:ea:1a:74:45:47:05:de:75:c1:24:d4:0d:
                    fc:1c:f1:89:e6:0e:35:fe:da:11:73:10:fa:4c:fb:
                    31:e3:88:07:12:c9:54:78:37:91:80:34:11:c9:3b:
                    67:aa:af:b2:6c:33:b0:b6:2f:36:68:99:cd:91:c7:
                    f6:b1:63:4c:56:6e:29:83:62:99:c6:ef:ff:ab:df:
                    f2:a3:05:79:ce:0d:d5:8b:e8:d8:98:a9:23:85:15:
                    86:79:94:66:3d:49:14:45:8b:17:28:5b:c8:b9:e7:
                    13:6a:8f:0d:33:ee:b6:84:62:fd:7f:d5:f2:5c:1d:
                    e5:51:e6:b0:61:f4:2f:e5:ab:03:f3:dc:a4:57:e5:
                    b3:64:aa:4a:af:34:ff:d9:b5:57:48:9c:ad:1b:64:
                    a0:cb:91:d5:bb:1d:cf:6c:f1:88:ec:9f:b4:96:13:
                    b6:8e:8e:a5:ff:7d:c0:fa:0a:0f:e0:18:80:c0:58:
                    09:9c:27:36:f1:1d:1f:9b:49:73:9e:5f:0e:d1:b2:
                    f2:1a:60:c1:08:c3:80:70:8d:9d:d0:1d:80:da:82:
                    9f:bb:3f:8f:69:c5:81:94:5a:a1:4f:4a:b2:29:e6:
                    68:43:25:bc:5e:ef:7e:a3:2a:bf:1f:68:3b:be:16:
                    bf:68:57:6f:82:c9:31:ea:af:03:4d:40:62:01:57:
                    de:12:11
                Exponent: 65537 (0x10001)
        X509v3 extensions:
            X509v3 Basic Constraints: 
                CA:FALSE
            Netscape Comment: 
                Easy-RSA Generated Certificate
            X509v3 Subject Key Identifier: 
                0F:82:00:33:DC:79:DA:94:67:64:3C:52:44:2D:3F:A9:6E:35:8C:DE
            X509v3 Authority Key Identifier: 
                keyid:EF:38:8D:14:50:58:A7:5B:4D:9C:17:72:FC:DF:B9:AC:A7:51:B0:10
                DirName:/C=US/ST=CA/L=SanFrancisco/O=Pixglo, Inc./OU=VPN-CIE/CN=tunnel.pixglo.com/name=Bala Chandrasekaran/emailAddress=bala@pixglo.com
                serial:A6:DB:C6:83:80:E6:A0:79

            X509v3 Extended Key Usage: 
                TLS Web Client Authentication
            X509v3 Key Usage: 
                Digital Signature
    Signature Algorithm: sha1WithRSAEncryption
         85:b0:2a:12:c0:82:b7:3d:95:65:09:19:e2:0b:21:7f:0f:57:
         70:62:ac:f4:db:de:c7:81:f6:b4:e1:71:80:f5:05:86:44:02:
         4c:af:93:58:d4:83:da:ba:87:33:fb:f9:e3:66:4a:18:2a:f5:
         08:88:e2:ff:54:e0:f4:fb:3a:12:31:a7:77:9e:f3:e3:0b:5e:
         1a:fb:10:8a:db:cf:26:37:83:49:b9:2f:b6:36:06:ed:d2:d9:
         f1:93:d3:9f:d0:a3:00:c7:99:2a:2a:86:78:7e:8b:31:89:8d:
         c1:e6:73:a7:32:10:58:bf:bd:b8:ef:c9:d7:67:f5:a6:f5:f5:
         65:c5:dc:36:66:27:5a:ab:0d:b6:c7:80:fc:be:ce:4e:6e:5b:
         37:5d:40:21:c7:68:9d:47:5c:2e:1d:e0:83:8c:a5:b7:c7:81:
         38:c0:00:22:31:d8:db:8b:ad:29:8d:4b:01:f2:5f:5e:eb:49:
         3a:0e:d8:5b:bb:70:ec:ad:ad:97:d5:ab:1b:76:2d:87:15:d9:
         4a:ae:1f:01:ad:60:58:23:24:f2:03:b6:bb:45:8f:99:01:c4:
         d7:7f:54:64:7b:56:47:7a:01:c5:b8:9d:9e:30:3c:0e:c9:74:
         ca:ce:98:51:a0:f5:a2:a9:a0:d9:48:4b:d2:f3:b8:a4:4d:0c:
         5a:57:49:2e:cd:b0:b1:3f:d0:b7:56:58:91:57:ed:74:5f:cd:
         0f:27:22:57:82:b3:6f:9c:1e:0c:8e:ef:fe:68:ee:41:04:d8:
         4e:a0:7e:66:f6:6c:4e:4c:a8:8a:64:57:f1:d9:b7:ca:22:53:
         bd:d6:f8:10:7e:6f:7e:6e:30:fe:b0:64:28:cf:bb:73:5b:b4:
         de:e7:3e:ac:bf:ea:d0:3b:27:c5:d0:c2:76:92:57:45:a3:2b:
         ee:77:53:40:b4:eb:8e:5e:2d:e2:a9:06:f1:ea:f9:ad:1c:4d:
         aa:28:be:41:29:b3:cc:bd:65:0f:52:6b:09:b6:d8:5d:b6:a1:
         30:ea:2d:f8:9a:d9:1e:36:c4:3d:37:b7:a8:8f:62:66:a4:d6:
         84:9d:10:80:c3:cc:91:a3:ef:a3:74:0f:03:d9:83:04:fe:da:
         24:dc:a8:f5:fc:a1:6f:c9:26:2d:9b:02:98:90:3e:6d:f0:fe:
         4e:74:5c:ce:11:58:bd:33:3c:da:16:72:91:33:75:70:b0:9a:
         e7:10:fe:35:2f:1e:12:62:25:fb:b5:bb:a2:24:b4:1c:96:9f:
         82:34:03:71:a8:4e:4b:55:c5:6e:93:a7:34:bc:1d:28:8b:00:
         76:74:ec:bd:85:28:c3:f6:95:9f:e3:70:77:8d:a3:54:b9:60:
         ab:f2:bc:bf:a1:34:a6:bb
-----BEGIN CERTIFICATE-----
MIIHRjCCBS6gAwIBAgIBQDANBgkqhkiG9w0BAQUFADCBtDELMAkGA1UEBhMCVVMx
CzAJBgNVBAgTAkNBMRUwEwYDVQQHEwxTYW5GcmFuY2lzY28xFTATBgNVBAoTDFBp
eGdsbywgSW5jLjEQMA4GA1UECxMHVlBOLUNJRTEaMBgGA1UEAxMRdHVubmVsLnBp
eGdsby5jb20xHDAaBgNVBCkTE0JhbGEgQ2hhbmRyYXNla2FyYW4xHjAcBgkqhkiG
9w0BCQEWD2JhbGFAcGl4Z2xvLmNvbTAeFw0xODAyMTQwNjI1MDRaFw0yODAyMTIw
NjI1MDRaMIGoMQswCQYDVQQGEwJVUzELMAkGA1UECBMCQ0ExFTATBgNVBAcTDFNh
bkZyYW5jaXNjbzEVMBMGA1UEChMMUGl4Z2xvLCBJbmMuMRAwDgYDVQQLEwdWUE4t
Q0lFMQ4wDAYDVQQDEwVjaWU2MzEcMBoGA1UEKRMTQmFsYSBDaGFuZHJhc2VrYXJh
bjEeMBwGCSqGSIb3DQEJARYPYmFsYUBwaXhnbG8uY29tMIICIjANBgkqhkiG9w0B
AQEFAAOCAg8AMIICCgKCAgEAlvuX0wfgWChrNC9SYzP0wbgNRxa8ZfibGfpKgPRI
beZgx5khbjMNwRqKuwwkOkPd7+rOT8/nDx4XIQQA16PRH9i5kS4Up6EwiccJ1WYv
yYcjSAYmGwOAcEiUwsre9O0AD0CsP6dGd3EJQcnDiPS/lQtrxxjQUiEEYrL7Hgxl
m5c+6kjaqVyqPg5vle/S8DWS3JANtkCBfZoydvENt8kjOyOTFW1P/u3mMwmzBlxK
8OQoRPxUdV1LXq1/hWeqkV0KRAR5RH5jy4jvoMeGhLRJalc3D77xjc3G/h4zAVE/
kZAcDCuQmuo0XyrnO4W6Q53IH+q2QORzeYvvErxQOoqhHfvqGnRFRwXedcEk1A38
HPGJ5g41/toRcxD6TPsx44gHEslUeDeRgDQRyTtnqq+ybDOwti82aJnNkcf2sWNM
Vm4pg2KZxu//q9/yowV5zg3Vi+jYmKkjhRWGeZRmPUkURYsXKFvIuecTao8NM+62
hGL9f9XyXB3lUeawYfQv5asD89ykV+WzZKpKrzT/2bVXSJytG2Sgy5HVux3PbPGI
7J+0lhO2jo6l/33A+goP4BiAwFgJnCc28R0fm0lznl8O0bLyGmDBCMOAcI2d0B2A
2oKfuz+PacWBlFqhT0qyKeZoQyW8Xu9+oyq/H2g7vha/aFdvgskx6q8DTUBiAVfe
EhECAwEAAaOCAWswggFnMAkGA1UdEwQCMAAwLQYJYIZIAYb4QgENBCAWHkVhc3kt
UlNBIEdlbmVyYXRlZCBDZXJ0aWZpY2F0ZTAdBgNVHQ4EFgQUD4IAM9x52pRnZDxS
RC0/qW41jN4wgekGA1UdIwSB4TCB3oAU7ziNFFBYp1tNnBdy/N+5rKdRsBChgbqk
gbcwgbQxCzAJBgNVBAYTAlVTMQswCQYDVQQIEwJDQTEVMBMGA1UEBxMMU2FuRnJh
bmNpc2NvMRUwEwYDVQQKEwxQaXhnbG8sIEluYy4xEDAOBgNVBAsTB1ZQTi1DSUUx
GjAYBgNVBAMTEXR1bm5lbC5waXhnbG8uY29tMRwwGgYDVQQpExNCYWxhIENoYW5k
cmFzZWthcmFuMR4wHAYJKoZIhvcNAQkBFg9iYWxhQHBpeGdsby5jb22CCQCm28aD
gOageTATBgNVHSUEDDAKBggrBgEFBQcDAjALBgNVHQ8EBAMCB4AwDQYJKoZIhvcN
AQEFBQADggIBAIWwKhLAgrc9lWUJGeILIX8PV3BirPTb3seB9rThcYD1BYZEAkyv
k1jUg9q6hzP7+eNmShgq9QiI4v9U4PT7OhIxp3ee8+MLXhr7EIrbzyY3g0m5L7Y2
Bu3S2fGT05/QowDHmSoqhnh+izGJjcHmc6cyEFi/vbjvyddn9ab19WXF3DZmJ1qr
DbbHgPy+zk5uWzddQCHHaJ1HXC4d4IOMpbfHgTjAACIx2NuLrSmNSwHyX17rSToO
2Fu7cOytrZfVqxt2LYcV2UquHwGtYFgjJPIDtrtFj5kBxNd/VGR7Vkd6AcW4nZ4w
PA7JdMrOmFGg9aKpoNlIS9LzuKRNDFpXSS7NsLE/0LdWWJFX7XRfzQ8nIleCs2+c
HgyO7/5o7kEE2E6gfmb2bE5MqIpkV/HZt8oiU73W+BB+b35uMP6wZCjPu3NbtN7n
Pqy/6tA7J8XQwnaSV0WjK+53U0C0645eLeKpBvHq+a0cTaoovkEps8y9ZQ9Sawm2
2F22oTDqLfia2R42xD03t6iPYmak1oSdEIDDzJGj76N0DwPZgwT+2iTcqPX8oW/J
Ji2bApiQPm3w/k50XM4RWL0zPNoWcpEzdXCwmucQ/jUvHhJiJfu1u6IktByWn4I0
A3GoTktVxW6TpzS8HSiLAHZ07L2FKMP2lZ/jcHeNo1S5YKvyvL+hNKa7
-----END CERTIFICATE-----
