Certificate:
    Data:
        Version: 3 (0x2)
        Serial Number: 71 (0x47)
    Signature Algorithm: sha1WithRSAEncryption
        Issuer: C=US, ST=CA, L=SanFrancisco, O=Pixglo, Inc., OU=VPN-CIE, CN=tunnel.pixglo.com/name=Bala Chandrasekaran/emailAddress=bala@pixglo.com
        Validity
            Not Before: Feb 14 06:25:09 2018 GMT
            Not After : Feb 12 06:25:09 2028 GMT
        Subject: C=US, ST=CA, L=SanFrancisco, O=Pixglo, Inc., OU=VPN-CIE, CN=cie70/name=Bala Chandrasekaran/emailAddress=bala@pixglo.com
        Subject Public Key Info:
            Public Key Algorithm: rsaEncryption
                Public-Key: (4096 bit)
                Modulus:
                    00:a5:01:b9:7b:a8:5f:25:6f:3c:1e:dc:d0:4a:f1:
                    b6:e5:6e:11:c5:a4:25:5e:1a:e6:ca:33:a1:e4:c4:
                    16:9f:fd:e2:3d:3e:20:a7:9c:bd:70:e9:6d:d4:ef:
                    13:29:10:c3:86:90:08:17:79:20:42:5e:a4:9e:45:
                    93:15:bf:c9:8d:77:a5:7a:7b:50:b9:72:d7:45:78:
                    11:97:76:ee:27:1e:07:b2:7f:53:b9:60:80:ea:37:
                    8a:9c:cd:9b:33:68:d4:7a:34:da:c5:28:62:42:84:
                    1e:d4:d7:5e:24:1f:b1:40:24:da:dc:6f:3f:0b:3c:
                    2f:79:22:ad:a9:c2:d8:8a:98:7a:57:c1:1d:a8:43:
                    d6:84:50:46:53:e9:38:9b:23:d5:4d:40:1b:c9:f0:
                    df:7c:f8:14:31:fe:69:2f:58:c3:19:ba:ba:8f:37:
                    ba:89:a3:9a:f2:29:20:d0:93:37:bd:89:9b:22:25:
                    27:69:19:20:bc:c0:c1:ba:e8:54:0e:93:a3:79:b2:
                    77:0e:ec:e1:15:88:3b:cf:43:63:a4:5d:52:9a:c6:
                    66:d8:ea:51:b4:9d:b0:02:11:d3:2c:7d:dc:d9:81:
                    8f:4f:af:8c:c8:4d:68:1a:8f:67:32:a8:4c:e1:65:
                    6d:c9:b1:04:d9:e3:41:42:cc:0c:aa:ae:c5:d2:74:
                    35:ab:98:14:d3:97:53:54:08:01:bb:fd:dd:86:7d:
                    78:52:83:1a:37:3c:de:a7:74:22:47:4f:6d:66:32:
                    76:14:ce:fb:2a:31:48:83:5b:51:5b:d3:52:c5:77:
                    6d:df:32:ea:8f:3f:2e:dd:db:fe:f9:05:f7:32:b0:
                    36:65:4f:93:95:6e:89:dc:9b:34:2d:cc:30:21:d3:
                    04:85:d7:f8:d6:ba:5c:b3:7c:c1:5c:a4:3b:47:ee:
                    7a:a4:ca:5d:34:c8:27:51:b4:76:bf:69:39:17:99:
                    08:6d:8a:ce:c8:40:8a:fd:e7:6b:f8:a0:14:8c:13:
                    fb:6c:ae:0f:fb:00:8a:e4:ab:ee:45:b8:9f:20:99:
                    bd:d3:41:8b:6d:cc:e2:f4:25:bc:6b:55:0a:66:92:
                    df:b7:45:12:1b:28:87:01:cc:df:b5:1e:98:e1:5c:
                    2d:11:35:7e:ad:e0:f3:92:2e:1b:f3:a8:53:a1:ef:
                    e4:04:a7:aa:e8:b3:37:36:03:9c:71:4a:16:54:ec:
                    ea:a1:46:69:fe:e3:f5:4a:df:c1:ad:f6:76:df:9f:
                    db:18:74:d0:90:2d:3f:9e:09:cb:a7:34:24:17:6b:
                    12:ce:c2:26:9c:7b:92:00:3a:47:41:fd:92:d2:19:
                    36:3b:6f:d2:ee:fc:05:7d:f5:51:b9:34:3f:1d:90:
                    4c:83:f1
                Exponent: 65537 (0x10001)
        X509v3 extensions:
            X509v3 Basic Constraints: 
                CA:FALSE
            Netscape Comment: 
                Easy-RSA Generated Certificate
            X509v3 Subject Key Identifier: 
                7E:8F:CE:A9:C7:AD:20:91:4C:BF:F1:CB:4D:4C:C8:4B:1A:4C:8E:D3
            X509v3 Authority Key Identifier: 
                keyid:EF:38:8D:14:50:58:A7:5B:4D:9C:17:72:FC:DF:B9:AC:A7:51:B0:10
                DirName:/C=US/ST=CA/L=SanFrancisco/O=Pixglo, Inc./OU=VPN-CIE/CN=tunnel.pixglo.com/name=Bala Chandrasekaran/emailAddress=bala@pixglo.com
                serial:A6:DB:C6:83:80:E6:A0:79

            X509v3 Extended Key Usage: 
                TLS Web Client Authentication
            X509v3 Key Usage: 
                Digital Signature
    Signature Algorithm: sha1WithRSAEncryption
         b2:91:fa:de:d0:6f:dd:cb:e4:f3:86:1a:8b:54:cf:ad:10:80:
         03:51:7d:55:73:53:69:22:7e:1b:9c:0a:a0:ef:78:ed:4f:d8:
         8c:30:ca:b1:bd:c2:e9:a4:2c:3b:73:22:73:8d:8b:e2:59:9c:
         d1:cb:f2:8f:51:d6:ad:17:cb:85:1d:b6:82:22:5c:07:06:d1:
         27:c6:b7:46:91:b9:fc:33:3c:65:36:f8:86:b8:cf:f2:5f:8e:
         d2:ac:f4:1a:27:53:a4:79:cb:3d:4d:80:9f:ce:b2:49:ba:38:
         2f:2a:f3:0c:83:73:d7:e1:a6:73:de:48:06:52:c0:c2:0c:0c:
         f5:bd:69:bd:93:8d:07:4a:05:97:c5:dc:16:9e:57:36:8c:fe:
         f3:20:2b:c7:24:02:16:58:57:ea:c9:1c:b4:8c:4e:82:0b:8b:
         58:f0:5b:6e:95:e8:5e:5a:2e:ec:65:a8:21:15:a1:95:4e:16:
         63:3c:b0:1a:af:d9:46:10:9e:8d:d4:c2:3b:63:83:fe:1f:ca:
         36:29:f5:49:c0:31:cd:97:c8:20:8a:27:9d:bd:27:14:43:24:
         c7:85:20:4a:59:5e:53:c5:68:46:ce:ec:11:a2:d0:4c:03:c8:
         ac:06:11:bb:35:93:aa:d8:cf:62:ba:45:c8:09:30:ae:56:31:
         e3:8d:95:8b:14:98:30:23:2f:32:da:dd:be:9a:aa:d1:2d:de:
         04:eb:1a:3e:3e:c8:f2:2a:19:d7:0b:7d:93:37:6f:a1:8e:d8:
         49:66:d6:78:6b:75:9a:f2:df:db:3d:1e:9c:fc:3b:bf:b3:6e:
         2f:24:c1:7b:0c:07:35:7a:da:2d:4f:7e:e7:e0:2d:a1:7b:dc:
         ed:4e:db:03:ba:00:ba:e1:e0:fd:2a:29:69:be:83:fa:3f:0d:
         d6:b5:ac:ee:13:6c:8b:d0:82:1d:fb:6a:d8:d2:b8:05:f8:d3:
         1f:39:6f:55:c8:10:fc:2c:98:88:d7:d1:9e:bc:83:a4:8e:0c:
         33:7b:ef:30:6d:96:6d:69:70:9b:0d:b2:38:bb:d4:01:cf:d5:
         fb:1d:7c:01:c7:12:5e:2c:ba:d2:c3:e8:2e:6d:c3:d4:74:0a:
         27:d4:45:ee:b6:3e:89:3d:a8:c9:c0:79:d9:19:c6:0f:d3:96:
         a1:d3:77:51:7a:6c:f9:92:26:bb:47:b6:d6:43:48:c4:e2:be:
         7a:62:4f:1a:75:43:08:28:b0:de:d5:62:45:68:0e:80:8d:53:
         42:d0:1b:64:fd:5a:37:93:5b:ac:29:a0:5a:3d:fe:9a:4e:ad:
         a8:b2:81:02:3c:08:c7:3b:ae:b3:c6:5e:2d:14:b5:12:bd:41:
         f5:c6:df:07:3e:a3:fc:44
-----BEGIN CERTIFICATE-----
MIIHRjCCBS6gAwIBAgIBRzANBgkqhkiG9w0BAQUFADCBtDELMAkGA1UEBhMCVVMx
CzAJBgNVBAgTAkNBMRUwEwYDVQQHEwxTYW5GcmFuY2lzY28xFTATBgNVBAoTDFBp
eGdsbywgSW5jLjEQMA4GA1UECxMHVlBOLUNJRTEaMBgGA1UEAxMRdHVubmVsLnBp
eGdsby5jb20xHDAaBgNVBCkTE0JhbGEgQ2hhbmRyYXNla2FyYW4xHjAcBgkqhkiG
9w0BCQEWD2JhbGFAcGl4Z2xvLmNvbTAeFw0xODAyMTQwNjI1MDlaFw0yODAyMTIw
NjI1MDlaMIGoMQswCQYDVQQGEwJVUzELMAkGA1UECBMCQ0ExFTATBgNVBAcTDFNh
bkZyYW5jaXNjbzEVMBMGA1UEChMMUGl4Z2xvLCBJbmMuMRAwDgYDVQQLEwdWUE4t
Q0lFMQ4wDAYDVQQDEwVjaWU3MDEcMBoGA1UEKRMTQmFsYSBDaGFuZHJhc2VrYXJh
bjEeMBwGCSqGSIb3DQEJARYPYmFsYUBwaXhnbG8uY29tMIICIjANBgkqhkiG9w0B
AQEFAAOCAg8AMIICCgKCAgEApQG5e6hfJW88HtzQSvG25W4RxaQlXhrmyjOh5MQW
n/3iPT4gp5y9cOlt1O8TKRDDhpAIF3kgQl6knkWTFb/JjXelentQuXLXRXgRl3bu
Jx4Hsn9TuWCA6jeKnM2bM2jUejTaxShiQoQe1NdeJB+xQCTa3G8/CzwveSKtqcLY
iph6V8EdqEPWhFBGU+k4myPVTUAbyfDffPgUMf5pL1jDGbq6jze6iaOa8ikg0JM3
vYmbIiUnaRkgvMDBuuhUDpOjebJ3DuzhFYg7z0NjpF1SmsZm2OpRtJ2wAhHTLH3c
2YGPT6+MyE1oGo9nMqhM4WVtybEE2eNBQswMqq7F0nQ1q5gU05dTVAgBu/3dhn14
UoMaNzzep3QiR09tZjJ2FM77KjFIg1tRW9NSxXdt3zLqjz8u3dv++QX3MrA2ZU+T
lW6J3Js0LcwwIdMEhdf41rpcs3zBXKQ7R+56pMpdNMgnUbR2v2k5F5kIbYrOyECK
/edr+KAUjBP7bK4P+wCK5KvuRbifIJm900GLbczi9CW8a1UKZpLft0USGyiHAczf
tR6Y4VwtETV+reDzki4b86hToe/kBKeq6LM3NgOccUoWVOzqoUZp/uP1St/BrfZ2
35/bGHTQkC0/ngnLpzQkF2sSzsImnHuSADpHQf2S0hk2O2/S7vwFffVRuTQ/HZBM
g/ECAwEAAaOCAWswggFnMAkGA1UdEwQCMAAwLQYJYIZIAYb4QgENBCAWHkVhc3kt
UlNBIEdlbmVyYXRlZCBDZXJ0aWZpY2F0ZTAdBgNVHQ4EFgQUfo/OqcetIJFMv/HL
TUzISxpMjtMwgekGA1UdIwSB4TCB3oAU7ziNFFBYp1tNnBdy/N+5rKdRsBChgbqk
gbcwgbQxCzAJBgNVBAYTAlVTMQswCQYDVQQIEwJDQTEVMBMGA1UEBxMMU2FuRnJh
bmNpc2NvMRUwEwYDVQQKEwxQaXhnbG8sIEluYy4xEDAOBgNVBAsTB1ZQTi1DSUUx
GjAYBgNVBAMTEXR1bm5lbC5waXhnbG8uY29tMRwwGgYDVQQpExNCYWxhIENoYW5k
cmFzZWthcmFuMR4wHAYJKoZIhvcNAQkBFg9iYWxhQHBpeGdsby5jb22CCQCm28aD
gOageTATBgNVHSUEDDAKBggrBgEFBQcDAjALBgNVHQ8EBAMCB4AwDQYJKoZIhvcN
AQEFBQADggIBALKR+t7Qb93L5POGGotUz60QgANRfVVzU2kifhucCqDveO1P2Iww
yrG9wumkLDtzInONi+JZnNHL8o9R1q0Xy4UdtoIiXAcG0SfGt0aRufwzPGU2+Ia4
z/JfjtKs9BonU6R5yz1NgJ/Oskm6OC8q8wyDc9fhpnPeSAZSwMIMDPW9ab2TjQdK
BZfF3BaeVzaM/vMgK8ckAhZYV+rJHLSMToILi1jwW26V6F5aLuxlqCEVoZVOFmM8
sBqv2UYQno3Uwjtjg/4fyjYp9UnAMc2XyCCKJ529JxRDJMeFIEpZXlPFaEbO7BGi
0EwDyKwGEbs1k6rYz2K6RcgJMK5WMeONlYsUmDAjLzLa3b6aqtEt3gTrGj4+yPIq
GdcLfZM3b6GO2Elm1nhrdZry39s9Hpz8O7+zbi8kwXsMBzV62i1PfufgLaF73O1O
2wO6ALrh4P0qKWm+g/o/Dda1rO4TbIvQgh37atjSuAX40x85b1XIEPwsmIjX0Z68
g6SODDN77zBtlm1pcJsNsji71AHP1fsdfAHHEl4sutLD6C5tw9R0CifURe62Pok9
qMnAedkZxg/TlqHTd1F6bPmSJrtHttZDSMTivnpiTxp1QwgosN7VYkVoDoCNU0LQ
G2T9WjeTW6wpoFo9/ppOraiygQI8CMc7rrPGXi0UtRK9QfXG3wc+o/xE
-----END CERTIFICATE-----
