Certificate:
    Data:
        Version: 3 (0x2)
        Serial Number: 72 (0x48)
    Signature Algorithm: sha1WithRSAEncryption
        Issuer: C=US, ST=CA, L=SanFrancisco, O=Pixglo, Inc., OU=VPN-CIE, CN=tunnel.pixglo.com/name=Bala Chandrasekaran/emailAddress=bala@pixglo.com
        Validity
            Not Before: Feb 14 06:25:10 2018 GMT
            Not After : Feb 12 06:25:10 2028 GMT
        Subject: C=US, ST=CA, L=SanFrancisco, O=Pixglo, Inc., OU=VPN-CIE, CN=cie71/name=Bala Chandrasekaran/emailAddress=bala@pixglo.com
        Subject Public Key Info:
            Public Key Algorithm: rsaEncryption
                Public-Key: (4096 bit)
                Modulus:
                    00:bc:f2:86:fd:88:ac:51:b0:0b:84:18:f6:67:11:
                    58:ee:c2:46:8a:a0:73:dd:f9:8c:e6:76:56:e1:ff:
                    52:64:65:6e:d8:68:0c:06:7b:93:8d:7d:24:4a:a3:
                    03:f5:e9:bb:bf:f9:62:f3:f1:41:18:72:01:d9:e4:
                    72:a4:18:57:8d:7e:2e:82:4e:42:ef:87:6a:80:24:
                    fd:a0:b9:19:e1:88:31:d7:f7:02:1b:1e:ad:1c:2f:
                    0c:cc:97:cb:10:ae:00:42:85:e9:92:35:a5:38:b0:
                    a9:9d:ca:a5:96:4f:0e:fd:3c:aa:88:0c:f2:5d:17:
                    ff:c1:0e:f6:52:9c:2a:cf:65:a2:5c:ac:98:7a:d9:
                    c9:3e:36:cc:cc:1f:4a:4b:8c:d4:8d:77:3c:41:68:
                    72:97:15:06:ec:cd:a7:d8:b1:0c:e5:89:33:5a:19:
                    1c:1b:18:39:b8:81:f6:38:8a:34:33:db:03:14:d8:
                    04:2f:41:2c:0c:ce:bf:f9:16:df:87:2c:39:64:5b:
                    ad:eb:b1:01:12:68:f6:21:75:06:d0:e7:89:4a:20:
                    6d:a4:a0:c1:fd:32:11:23:8b:f1:7d:e0:77:77:70:
                    49:35:47:a5:ef:17:d2:44:05:8c:b4:34:65:c1:e5:
                    f2:47:1e:1f:63:5a:24:5a:63:9d:9d:10:ef:4b:3c:
                    03:fe:92:22:41:49:d5:b2:c5:9f:0e:aa:9c:1e:89:
                    22:d6:e1:80:56:fa:87:c2:d9:d0:ff:67:83:20:3e:
                    d8:b9:60:84:01:00:ce:2e:a0:57:31:c2:4a:9c:57:
                    66:ce:0d:b7:64:fa:ed:34:60:c3:1d:c1:27:4e:d8:
                    7d:3a:d0:7c:be:03:5a:13:2a:24:fd:93:dd:52:80:
                    1c:6e:57:20:f1:3c:8d:a6:a1:26:37:08:6b:8b:8a:
                    e2:14:4e:52:35:b9:86:1a:ce:ff:1b:4d:c1:83:dc:
                    79:24:07:a6:94:8e:e9:bb:7c:6a:bf:e0:53:5f:53:
                    0d:61:14:85:82:42:21:28:f4:5a:cc:fb:8b:87:e3:
                    78:ce:1a:a7:82:42:0c:22:e7:e5:1d:af:d1:09:8b:
                    75:ed:22:2b:e8:7b:ab:45:13:69:d9:62:bf:5e:37:
                    d0:fd:1f:fd:3e:a3:b6:0c:30:33:8b:30:71:4f:42:
                    43:e9:6b:ee:1c:6c:51:a6:a0:b1:fb:0f:f3:9a:9c:
                    9b:96:8f:7c:50:a2:68:6a:4c:77:d5:67:c8:58:86:
                    0f:99:f2:12:a4:6f:44:6b:fb:00:99:0c:08:78:6c:
                    59:c2:5d:87:21:97:d6:ac:29:f1:3b:4f:b9:83:36:
                    12:fe:de:a9:79:67:cc:07:b2:fa:7a:b4:cd:e0:a8:
                    e9:e3:13
                Exponent: 65537 (0x10001)
        X509v3 extensions:
            X509v3 Basic Constraints: 
                CA:FALSE
            Netscape Comment: 
                Easy-RSA Generated Certificate
            X509v3 Subject Key Identifier: 
                86:C9:14:A0:9C:D9:5E:3A:55:82:47:3C:0B:19:91:10:64:62:2F:92
            X509v3 Authority Key Identifier: 
                keyid:EF:38:8D:14:50:58:A7:5B:4D:9C:17:72:FC:DF:B9:AC:A7:51:B0:10
                DirName:/C=US/ST=CA/L=SanFrancisco/O=Pixglo, Inc./OU=VPN-CIE/CN=tunnel.pixglo.com/name=Bala Chandrasekaran/emailAddress=bala@pixglo.com
                serial:A6:DB:C6:83:80:E6:A0:79

            X509v3 Extended Key Usage: 
                TLS Web Client Authentication
            X509v3 Key Usage: 
                Digital Signature
    Signature Algorithm: sha1WithRSAEncryption
         b6:4e:ef:6d:55:26:91:11:ae:d4:2b:41:fc:f3:73:b9:43:59:
         da:54:d9:8c:7b:f0:b0:d9:d5:76:0c:47:8e:90:10:8c:61:a8:
         06:94:8d:f2:61:69:49:b9:10:b4:70:e6:b0:8a:fa:31:1c:1b:
         38:3c:00:e4:a6:b5:1e:c6:01:7b:1c:f9:70:10:c4:31:73:4c:
         b1:fb:35:7e:49:21:79:60:bb:ca:9b:48:a5:36:2b:d6:8e:cd:
         c0:ba:80:fb:87:80:2c:26:11:37:ec:f0:e7:4d:8b:e0:1e:10:
         c2:df:3e:84:92:02:9e:29:20:77:b1:3d:ae:7f:a8:1f:ca:42:
         50:e1:51:74:16:a4:a1:f7:17:77:fe:fd:ea:be:15:09:14:17:
         8b:ce:e9:83:ff:cb:cd:57:50:fb:2e:1c:14:91:f5:0a:09:11:
         96:99:97:4b:e9:77:13:83:4e:4d:b7:07:17:99:ed:c7:cb:1d:
         85:83:0b:63:8f:dc:3d:b7:bb:21:a2:c4:a4:8b:9d:bb:5c:02:
         7a:d5:bd:4c:93:47:90:b0:6c:64:5f:ca:bb:57:0f:af:7c:b5:
         07:7f:64:d7:e4:aa:16:8a:c0:18:47:17:2c:ed:92:5b:26:99:
         e6:db:16:10:f6:34:af:6c:ee:93:67:69:91:00:d9:df:fc:b9:
         16:b4:26:a3:fd:b2:83:bb:ac:f4:e7:62:de:f7:d7:b2:66:49:
         6f:a9:7d:6e:c4:da:ef:84:f4:25:8d:b7:63:d2:d4:36:99:3d:
         41:dd:93:f0:e9:32:62:fb:0f:29:f9:06:97:e3:1f:3b:f5:a5:
         fe:29:4e:8f:b7:c8:3e:71:72:31:d5:3e:cd:b3:07:f5:34:4b:
         bc:cf:11:52:01:26:10:cd:b1:34:d3:53:36:04:ea:01:9a:45:
         80:c9:26:b0:9f:1b:0c:c0:08:d1:cc:aa:ce:a4:2e:be:7d:4f:
         36:b7:50:fd:49:04:69:97:0e:5e:49:73:a1:75:0b:ab:6e:7a:
         d2:a0:46:7f:67:b3:80:2e:75:06:c3:42:28:cd:05:a9:4d:46:
         40:61:52:7c:ea:91:80:a4:47:08:e1:b9:64:3d:d3:eb:fb:32:
         36:09:95:9a:71:6a:f3:21:1f:72:78:b1:a0:b1:46:04:bf:ec:
         c6:dc:14:5f:85:75:36:31:ac:9f:1f:20:23:8a:d7:fc:af:47:
         21:43:ce:ac:98:26:58:86:d4:18:cf:78:cf:c9:d1:00:23:1e:
         29:b6:61:63:50:a2:30:67:d9:83:74:9c:ab:8f:a0:de:2e:0a:
         9c:b2:c9:f5:a4:8b:36:38:5b:e3:d4:30:f8:69:1f:1b:4e:b0:
         99:32:74:0e:49:35:4e:0d
-----BEGIN CERTIFICATE-----
MIIHRjCCBS6gAwIBAgIBSDANBgkqhkiG9w0BAQUFADCBtDELMAkGA1UEBhMCVVMx
CzAJBgNVBAgTAkNBMRUwEwYDVQQHEwxTYW5GcmFuY2lzY28xFTATBgNVBAoTDFBp
eGdsbywgSW5jLjEQMA4GA1UECxMHVlBOLUNJRTEaMBgGA1UEAxMRdHVubmVsLnBp
eGdsby5jb20xHDAaBgNVBCkTE0JhbGEgQ2hhbmRyYXNla2FyYW4xHjAcBgkqhkiG
9w0BCQEWD2JhbGFAcGl4Z2xvLmNvbTAeFw0xODAyMTQwNjI1MTBaFw0yODAyMTIw
NjI1MTBaMIGoMQswCQYDVQQGEwJVUzELMAkGA1UECBMCQ0ExFTATBgNVBAcTDFNh
bkZyYW5jaXNjbzEVMBMGA1UEChMMUGl4Z2xvLCBJbmMuMRAwDgYDVQQLEwdWUE4t
Q0lFMQ4wDAYDVQQDEwVjaWU3MTEcMBoGA1UEKRMTQmFsYSBDaGFuZHJhc2VrYXJh
bjEeMBwGCSqGSIb3DQEJARYPYmFsYUBwaXhnbG8uY29tMIICIjANBgkqhkiG9w0B
AQEFAAOCAg8AMIICCgKCAgEAvPKG/YisUbALhBj2ZxFY7sJGiqBz3fmM5nZW4f9S
ZGVu2GgMBnuTjX0kSqMD9em7v/li8/FBGHIB2eRypBhXjX4ugk5C74dqgCT9oLkZ
4Ygx1/cCGx6tHC8MzJfLEK4AQoXpkjWlOLCpncqllk8O/TyqiAzyXRf/wQ72Upwq
z2WiXKyYetnJPjbMzB9KS4zUjXc8QWhylxUG7M2n2LEM5YkzWhkcGxg5uIH2OIo0
M9sDFNgEL0EsDM6/+Rbfhyw5ZFut67EBEmj2IXUG0OeJSiBtpKDB/TIRI4vxfeB3
d3BJNUel7xfSRAWMtDRlweXyRx4fY1okWmOdnRDvSzwD/pIiQUnVssWfDqqcHoki
1uGAVvqHwtnQ/2eDID7YuWCEAQDOLqBXMcJKnFdmzg23ZPrtNGDDHcEnTth9OtB8
vgNaEyok/ZPdUoAcblcg8TyNpqEmNwhri4riFE5SNbmGGs7/G03Bg9x5JAemlI7p
u3xqv+BTX1MNYRSFgkIhKPRazPuLh+N4zhqngkIMIuflHa/RCYt17SIr6HurRRNp
2WK/XjfQ/R/9PqO2DDAzizBxT0JD6WvuHGxRpqCx+w/zmpyblo98UKJoakx31WfI
WIYPmfISpG9Ea/sAmQwIeGxZwl2HIZfWrCnxO0+5gzYS/t6peWfMB7L6erTN4Kjp
4xMCAwEAAaOCAWswggFnMAkGA1UdEwQCMAAwLQYJYIZIAYb4QgENBCAWHkVhc3kt
UlNBIEdlbmVyYXRlZCBDZXJ0aWZpY2F0ZTAdBgNVHQ4EFgQUhskUoJzZXjpVgkc8
CxmREGRiL5IwgekGA1UdIwSB4TCB3oAU7ziNFFBYp1tNnBdy/N+5rKdRsBChgbqk
gbcwgbQxCzAJBgNVBAYTAlVTMQswCQYDVQQIEwJDQTEVMBMGA1UEBxMMU2FuRnJh
bmNpc2NvMRUwEwYDVQQKEwxQaXhnbG8sIEluYy4xEDAOBgNVBAsTB1ZQTi1DSUUx
GjAYBgNVBAMTEXR1bm5lbC5waXhnbG8uY29tMRwwGgYDVQQpExNCYWxhIENoYW5k
cmFzZWthcmFuMR4wHAYJKoZIhvcNAQkBFg9iYWxhQHBpeGdsby5jb22CCQCm28aD
gOageTATBgNVHSUEDDAKBggrBgEFBQcDAjALBgNVHQ8EBAMCB4AwDQYJKoZIhvcN
AQEFBQADggIBALZO721VJpERrtQrQfzzc7lDWdpU2Yx78LDZ1XYMR46QEIxhqAaU
jfJhaUm5ELRw5rCK+jEcGzg8AOSmtR7GAXsc+XAQxDFzTLH7NX5JIXlgu8qbSKU2
K9aOzcC6gPuHgCwmETfs8OdNi+AeEMLfPoSSAp4pIHexPa5/qB/KQlDhUXQWpKH3
F3f+/eq+FQkUF4vO6YP/y81XUPsuHBSR9QoJEZaZl0vpdxODTk23BxeZ7cfLHYWD
C2OP3D23uyGixKSLnbtcAnrVvUyTR5CwbGRfyrtXD698tQd/ZNfkqhaKwBhHFyzt
klsmmebbFhD2NK9s7pNnaZEA2d/8uRa0JqP9soO7rPTnYt7317JmSW+pfW7E2u+E
9CWNt2PS1DaZPUHdk/DpMmL7Dyn5BpfjHzv1pf4pTo+3yD5xcjHVPs2zB/U0S7zP
EVIBJhDNsTTTUzYE6gGaRYDJJrCfGwzACNHMqs6kLr59Tza3UP1JBGmXDl5Jc6F1
C6tuetKgRn9ns4AudQbDQijNBalNRkBhUnzqkYCkRwjhuWQ90+v7MjYJlZpxavMh
H3J4saCxRgS/7MbcFF+FdTYxrJ8fICOK1/yvRyFDzqyYJliG1BjPeM/J0QAjHim2
YWNQojBn2YN0nKuPoN4uCpyyyfWkizY4W+PUMPhpHxtOsJkydA5JNU4N
-----END CERTIFICATE-----
