Certificate:
    Data:
        Version: 3 (0x2)
        Serial Number: 73 (0x49)
    Signature Algorithm: sha1WithRSAEncryption
        Issuer: C=US, ST=CA, L=SanFrancisco, O=Pixglo, Inc., OU=VPN-CIE, CN=tunnel.pixglo.com/name=Bala Chandrasekaran/emailAddress=bala@pixglo.com
        Validity
            Not Before: Feb 14 06:25:10 2018 GMT
            Not After : Feb 12 06:25:10 2028 GMT
        Subject: C=US, ST=CA, L=SanFrancisco, O=Pixglo, Inc., OU=VPN-CIE, CN=cie72/name=Bala Chandrasekaran/emailAddress=bala@pixglo.com
        Subject Public Key Info:
            Public Key Algorithm: rsaEncryption
                Public-Key: (4096 bit)
                Modulus:
                    00:c3:63:7c:fb:76:cf:a9:20:62:ca:81:a8:67:d4:
                    b5:fc:29:c7:85:4e:75:a7:91:9f:90:0a:f5:40:13:
                    0f:cb:e8:cc:91:6f:26:f7:aa:dc:ef:ce:9f:db:44:
                    f0:14:cf:7b:30:74:22:a2:6b:9d:81:9d:9c:77:8c:
                    ce:1b:b8:83:32:d4:a7:e1:fc:82:00:89:67:5d:89:
                    0c:77:9f:c1:80:c1:f5:36:1a:af:06:67:4f:67:59:
                    4e:b1:ba:f1:09:0c:db:e0:aa:df:1e:7f:f2:f5:ac:
                    0e:b5:c9:2f:bd:7c:e7:1b:39:16:f4:15:00:a6:e0:
                    83:55:40:47:e1:d6:ab:de:b6:52:df:5f:8c:ed:35:
                    b5:14:3e:4d:1b:39:60:e2:4c:5d:2a:68:e4:9f:5e:
                    9d:37:bc:69:4b:25:67:a9:87:a5:7e:38:ee:34:5e:
                    19:63:f0:f4:c5:28:35:fb:95:cc:8b:38:43:06:43:
                    0d:40:ac:fa:90:f6:fd:cc:e2:87:b8:40:62:3e:30:
                    49:f4:95:e3:e6:07:11:20:db:fa:db:bd:7e:5e:6d:
                    10:12:23:ee:f2:95:7d:9d:d1:41:38:ee:ac:7c:32:
                    b1:af:12:97:88:5d:22:e0:d9:ab:52:a9:9c:07:9a:
                    a4:fb:e0:f2:3e:a5:4c:e8:e7:64:a3:05:2a:4d:a7:
                    a6:d5:a7:ef:f0:1a:43:80:bc:5c:14:d8:2d:8b:26:
                    a0:57:f2:fd:a0:34:e0:b6:50:53:d3:cf:a3:df:3b:
                    de:38:da:95:c8:a1:96:44:2f:57:39:7a:9c:5a:75:
                    88:74:0d:f1:eb:23:9f:0c:8b:69:ef:20:34:ec:75:
                    17:2d:64:3b:95:7f:f9:87:85:68:1a:5a:a8:c0:3e:
                    5d:f4:87:66:b2:11:c8:7e:56:fa:a0:c8:af:ea:f9:
                    b1:d3:e6:f6:2d:ea:1b:7f:7e:2d:98:54:bf:11:69:
                    ac:6d:02:e9:72:d7:c6:9b:90:0f:52:43:16:1f:a3:
                    95:aa:e4:ee:f8:ee:42:d6:e1:dd:bf:4d:1c:56:d0:
                    cc:07:92:1d:9a:75:af:84:62:cd:ec:c0:62:9d:c7:
                    1c:b1:1a:af:0f:d2:5e:4a:ca:50:3d:44:ab:4d:f7:
                    12:0d:15:62:b4:e0:80:11:b0:7b:45:df:e7:ea:5f:
                    ca:86:f5:e7:5a:8a:53:b4:17:b7:ef:08:fb:f6:0a:
                    ef:50:09:f6:6c:78:cc:96:f4:91:2a:06:3a:a8:fb:
                    2f:93:d8:6c:65:2b:ca:68:d8:0c:a3:5c:9d:d6:da:
                    90:a8:22:1e:17:45:59:6f:e9:2f:f4:a4:bf:f9:65:
                    59:1c:87:49:06:aa:4f:cc:73:9c:cd:bc:7a:ce:0c:
                    99:20:85
                Exponent: 65537 (0x10001)
        X509v3 extensions:
            X509v3 Basic Constraints: 
                CA:FALSE
            Netscape Comment: 
                Easy-RSA Generated Certificate
            X509v3 Subject Key Identifier: 
                2D:92:67:1F:6D:FA:85:B7:A2:D0:95:D7:63:37:98:8E:F1:04:8A:87
            X509v3 Authority Key Identifier: 
                keyid:EF:38:8D:14:50:58:A7:5B:4D:9C:17:72:FC:DF:B9:AC:A7:51:B0:10
                DirName:/C=US/ST=CA/L=SanFrancisco/O=Pixglo, Inc./OU=VPN-CIE/CN=tunnel.pixglo.com/name=Bala Chandrasekaran/emailAddress=bala@pixglo.com
                serial:A6:DB:C6:83:80:E6:A0:79

            X509v3 Extended Key Usage: 
                TLS Web Client Authentication
            X509v3 Key Usage: 
                Digital Signature
    Signature Algorithm: sha1WithRSAEncryption
         e1:ac:20:e8:48:37:02:1c:53:76:b3:3a:7f:da:55:0a:06:7e:
         0b:30:76:91:f7:e7:fa:49:50:74:7d:0e:fb:86:b6:17:d8:52:
         27:01:f7:35:c6:e6:4c:d4:b1:e5:df:cd:d6:51:63:da:3a:d5:
         f3:ca:49:e6:96:ff:38:b3:ed:50:ec:eb:a9:14:16:ae:9f:da:
         67:b3:68:10:a8:c3:f2:b0:b0:72:a0:20:a5:2a:e0:01:6f:8b:
         63:d0:6d:0a:f6:4a:db:f0:b5:9c:46:6a:59:db:4d:41:0d:b6:
         b8:a4:e2:2e:16:23:80:10:33:08:94:f4:5f:84:53:61:b5:00:
         6b:d4:65:f3:03:78:28:cc:60:d4:3c:d5:e3:c2:cc:de:93:66:
         7e:71:8f:ab:5d:08:ff:2a:78:a1:bd:6a:18:48:25:f1:76:ad:
         33:4e:ab:c7:66:71:a6:c5:b1:2f:1b:e3:6d:e7:cc:21:48:c0:
         7d:42:18:fd:a1:12:69:16:64:a6:6f:b2:a7:21:47:95:48:4e:
         de:77:22:2e:36:08:aa:65:7e:6c:da:53:11:bf:3b:39:ae:b9:
         8a:aa:c6:4b:0e:5a:ac:e5:3f:8d:a0:08:a6:8d:cd:82:4b:fd:
         a0:83:c2:60:85:fe:37:9c:b4:d5:61:04:61:71:77:29:b1:b2:
         56:5f:2e:c7:b0:da:fc:13:6a:eb:10:26:b8:34:15:d9:73:65:
         60:5b:4d:35:f5:bb:67:13:e8:3a:6d:63:fb:0d:4d:9e:c0:b0:
         e6:86:ed:93:f5:f3:c0:ad:d8:b2:7f:08:6e:6e:41:a1:d3:3a:
         0e:8c:b7:ae:9a:83:e9:c3:2e:56:df:af:e6:5c:17:ae:d5:91:
         00:a1:65:eb:5e:aa:40:46:c6:5d:e1:02:66:9d:c3:9b:da:9d:
         15:06:75:95:15:61:f4:53:95:de:3a:9c:e7:1d:3f:55:f8:bf:
         2a:de:28:54:f4:92:3e:42:8b:7f:36:f2:42:c9:40:f5:44:61:
         ad:50:83:16:77:72:4f:1c:93:81:52:ce:99:56:9a:4c:e7:51:
         90:21:e1:4c:f3:b9:7f:4d:f1:70:44:5e:0e:7f:a7:2d:98:61:
         40:a7:b9:0b:00:21:bd:93:c4:fe:14:ba:28:a2:89:ac:5b:a9:
         a5:ed:10:85:88:f0:de:c3:fe:c7:a9:f1:71:19:ee:76:20:a4:
         01:4e:4d:32:ae:01:4e:f1:b4:52:63:7f:b8:8f:f0:4c:15:2a:
         b2:79:2c:b5:08:a4:2b:d9:d6:7a:50:ef:f1:b4:9e:68:a4:fb:
         e2:ff:5c:6f:ba:44:cd:3a:74:de:4e:9f:b5:d9:e3:84:1c:44:
         5c:e8:db:de:0d:6e:53:58
-----BEGIN CERTIFICATE-----
MIIHRjCCBS6gAwIBAgIBSTANBgkqhkiG9w0BAQUFADCBtDELMAkGA1UEBhMCVVMx
CzAJBgNVBAgTAkNBMRUwEwYDVQQHEwxTYW5GcmFuY2lzY28xFTATBgNVBAoTDFBp
eGdsbywgSW5jLjEQMA4GA1UECxMHVlBOLUNJRTEaMBgGA1UEAxMRdHVubmVsLnBp
eGdsby5jb20xHDAaBgNVBCkTE0JhbGEgQ2hhbmRyYXNla2FyYW4xHjAcBgkqhkiG
9w0BCQEWD2JhbGFAcGl4Z2xvLmNvbTAeFw0xODAyMTQwNjI1MTBaFw0yODAyMTIw
NjI1MTBaMIGoMQswCQYDVQQGEwJVUzELMAkGA1UECBMCQ0ExFTATBgNVBAcTDFNh
bkZyYW5jaXNjbzEVMBMGA1UEChMMUGl4Z2xvLCBJbmMuMRAwDgYDVQQLEwdWUE4t
Q0lFMQ4wDAYDVQQDEwVjaWU3MjEcMBoGA1UEKRMTQmFsYSBDaGFuZHJhc2VrYXJh
bjEeMBwGCSqGSIb3DQEJARYPYmFsYUBwaXhnbG8uY29tMIICIjANBgkqhkiG9w0B
AQEFAAOCAg8AMIICCgKCAgEAw2N8+3bPqSBiyoGoZ9S1/CnHhU51p5GfkAr1QBMP
y+jMkW8m96rc786f20TwFM97MHQiomudgZ2cd4zOG7iDMtSn4fyCAIlnXYkMd5/B
gMH1NhqvBmdPZ1lOsbrxCQzb4KrfHn/y9awOtckvvXznGzkW9BUApuCDVUBH4dar
3rZS31+M7TW1FD5NGzlg4kxdKmjkn16dN7xpSyVnqYelfjjuNF4ZY/D0xSg1+5XM
izhDBkMNQKz6kPb9zOKHuEBiPjBJ9JXj5gcRINv6271+Xm0QEiPu8pV9ndFBOO6s
fDKxrxKXiF0i4NmrUqmcB5qk++DyPqVM6OdkowUqTaem1afv8BpDgLxcFNgtiyag
V/L9oDTgtlBT08+j3zveONqVyKGWRC9XOXqcWnWIdA3x6yOfDItp7yA07HUXLWQ7
lX/5h4VoGlqowD5d9IdmshHIflb6oMiv6vmx0+b2Leobf34tmFS/EWmsbQLpctfG
m5APUkMWH6OVquTu+O5C1uHdv00cVtDMB5IdmnWvhGLN7MBincccsRqvD9JeSspQ
PUSrTfcSDRVitOCAEbB7Rd/n6l/KhvXnWopTtBe37wj79grvUAn2bHjMlvSRKgY6
qPsvk9hsZSvKaNgMo1yd1tqQqCIeF0VZb+kv9KS/+WVZHIdJBqpPzHOczbx6zgyZ
IIUCAwEAAaOCAWswggFnMAkGA1UdEwQCMAAwLQYJYIZIAYb4QgENBCAWHkVhc3kt
UlNBIEdlbmVyYXRlZCBDZXJ0aWZpY2F0ZTAdBgNVHQ4EFgQULZJnH236hbei0JXX
YzeYjvEEiocwgekGA1UdIwSB4TCB3oAU7ziNFFBYp1tNnBdy/N+5rKdRsBChgbqk
gbcwgbQxCzAJBgNVBAYTAlVTMQswCQYDVQQIEwJDQTEVMBMGA1UEBxMMU2FuRnJh
bmNpc2NvMRUwEwYDVQQKEwxQaXhnbG8sIEluYy4xEDAOBgNVBAsTB1ZQTi1DSUUx
GjAYBgNVBAMTEXR1bm5lbC5waXhnbG8uY29tMRwwGgYDVQQpExNCYWxhIENoYW5k
cmFzZWthcmFuMR4wHAYJKoZIhvcNAQkBFg9iYWxhQHBpeGdsby5jb22CCQCm28aD
gOageTATBgNVHSUEDDAKBggrBgEFBQcDAjALBgNVHQ8EBAMCB4AwDQYJKoZIhvcN
AQEFBQADggIBAOGsIOhINwIcU3azOn/aVQoGfgswdpH35/pJUHR9DvuGthfYUicB
9zXG5kzUseXfzdZRY9o61fPKSeaW/ziz7VDs66kUFq6f2mezaBCow/KwsHKgIKUq
4AFvi2PQbQr2StvwtZxGalnbTUENtrik4i4WI4AQMwiU9F+EU2G1AGvUZfMDeCjM
YNQ81ePCzN6TZn5xj6tdCP8qeKG9ahhIJfF2rTNOq8dmcabFsS8b423nzCFIwH1C
GP2hEmkWZKZvsqchR5VITt53Ii42CKplfmzaUxG/OzmuuYqqxksOWqzlP42gCKaN
zYJL/aCDwmCF/jectNVhBGFxdymxslZfLsew2vwTausQJrg0FdlzZWBbTTX1u2cT
6DptY/sNTZ7AsOaG7ZP188Ct2LJ/CG5uQaHTOg6Mt66ag+nDLlbfr+ZcF67VkQCh
ZeteqkBGxl3hAmadw5vanRUGdZUVYfRTld46nOcdP1X4vyreKFT0kj5Ci3828kLJ
QPVEYa1QgxZ3ck8ck4FSzplWmkznUZAh4UzzuX9N8XBEXg5/py2YYUCnuQsAIb2T
xP4UuiiiiaxbqaXtEIWI8N7D/sep8XEZ7nYgpAFOTTKuAU7xtFJjf7iP8EwVKrJ5
LLUIpCvZ1npQ7/G0nmik++L/XG+6RM06dN5On7XZ44QcRFzo294NblNY
-----END CERTIFICATE-----
