Certificate:
    Data:
        Version: 3 (0x2)
        Serial Number: 76 (0x4c)
    Signature Algorithm: sha1WithRSAEncryption
        Issuer: C=US, ST=CA, L=SanFrancisco, O=Pixglo, Inc., OU=VPN-CIE, CN=tunnel.pixglo.com/name=Bala Chandrasekaran/emailAddress=bala@pixglo.com
        Validity
            Not Before: Feb 14 06:25:14 2018 GMT
            Not After : Feb 12 06:25:14 2028 GMT
        Subject: C=US, ST=CA, L=SanFrancisco, O=Pixglo, Inc., OU=VPN-CIE, CN=cie75/name=Bala Chandrasekaran/emailAddress=bala@pixglo.com
        Subject Public Key Info:
            Public Key Algorithm: rsaEncryption
                Public-Key: (4096 bit)
                Modulus:
                    00:e7:05:b1:1f:57:52:bb:bf:6d:71:1f:bb:39:9a:
                    db:4b:8f:fc:38:61:9e:6c:bc:55:cc:86:fd:4d:03:
                    3e:0f:f7:ab:c1:1a:3e:ff:8b:c2:a0:76:ae:b2:38:
                    18:4f:b1:66:70:0e:2b:90:1b:41:67:62:d5:d3:7b:
                    f3:a8:bc:d9:32:07:8c:dd:6d:4e:9e:9b:1d:23:e8:
                    44:32:30:04:e1:c5:c5:46:a4:9f:03:2d:8e:59:db:
                    a6:4a:97:de:c6:7e:2b:54:ae:8d:68:ea:c6:c1:69:
                    7d:62:d1:f4:4c:7a:6d:e6:fc:fc:e5:d0:21:7a:a8:
                    f0:96:b7:a8:fe:f7:26:68:b7:3a:c1:1b:46:84:22:
                    df:f7:11:f5:6a:37:57:0a:cf:ab:15:fe:e3:26:01:
                    ab:49:0a:64:da:ef:5d:00:ca:6e:1e:83:34:78:7a:
                    d5:56:dd:2f:0e:cb:04:45:8b:be:dd:72:cf:62:9a:
                    f9:0b:01:4b:89:a1:e3:ef:2f:2c:e8:3d:d8:9d:e3:
                    a6:ac:e7:0b:52:ec:27:25:1b:56:78:de:43:02:22:
                    dc:74:80:c0:fb:f6:27:7f:81:d1:07:32:7d:d9:32:
                    5d:e8:71:ea:7d:c5:35:cf:ff:cd:a6:d0:75:fb:fd:
                    c4:72:d6:e0:ca:0d:cf:93:e7:62:86:e7:f1:17:f3:
                    89:1a:34:8b:6e:c3:66:57:37:b8:50:1a:c1:1b:43:
                    7a:e9:b4:a7:45:7a:6a:4d:29:48:93:db:e6:b9:ba:
                    76:f9:fe:7c:56:3c:f9:c9:3f:8e:f4:66:7c:44:5d:
                    fc:31:fd:a6:44:e1:b2:dd:10:a2:08:1f:57:dc:55:
                    22:c6:47:8f:2a:f9:15:65:02:08:71:c0:fb:bd:d1:
                    d0:b9:9c:ff:bc:b3:13:46:50:18:26:ef:05:e6:da:
                    8b:b9:77:5d:6f:24:0f:26:dd:de:e6:fa:a3:d9:17:
                    f0:71:d6:b1:c8:fd:39:52:90:a8:08:af:4f:b3:e4:
                    04:92:70:02:11:88:16:9d:5f:f0:5b:46:14:71:8d:
                    89:7f:b0:8c:8c:4d:cf:f5:0d:37:a1:fc:fc:b7:f4:
                    34:2b:80:35:b8:1b:80:ef:7b:1c:60:6d:4b:13:90:
                    89:4b:5b:ba:fc:60:ab:5a:e6:40:0e:38:3b:4b:bb:
                    38:4e:e5:d1:97:5c:c8:00:d3:ee:64:61:4b:e7:7f:
                    d4:9f:6a:17:d9:7c:da:bb:6e:c5:0a:31:3a:bf:24:
                    ad:95:5d:b3:bc:a7:06:62:0a:32:c0:1f:ec:79:ab:
                    ad:88:08:e5:3f:82:f9:b7:94:5f:dc:66:d3:72:3d:
                    17:d6:43:4b:2f:f6:c4:b9:0c:bd:ca:fc:e3:e3:c6:
                    19:2e:87
                Exponent: 65537 (0x10001)
        X509v3 extensions:
            X509v3 Basic Constraints: 
                CA:FALSE
            Netscape Comment: 
                Easy-RSA Generated Certificate
            X509v3 Subject Key Identifier: 
                59:D3:FB:EE:62:07:03:CE:D4:19:FE:32:C1:0F:F8:90:82:7C:EF:6E
            X509v3 Authority Key Identifier: 
                keyid:EF:38:8D:14:50:58:A7:5B:4D:9C:17:72:FC:DF:B9:AC:A7:51:B0:10
                DirName:/C=US/ST=CA/L=SanFrancisco/O=Pixglo, Inc./OU=VPN-CIE/CN=tunnel.pixglo.com/name=Bala Chandrasekaran/emailAddress=bala@pixglo.com
                serial:A6:DB:C6:83:80:E6:A0:79

            X509v3 Extended Key Usage: 
                TLS Web Client Authentication
            X509v3 Key Usage: 
                Digital Signature
    Signature Algorithm: sha1WithRSAEncryption
         be:4a:4a:a6:cd:58:da:06:8f:4e:54:85:87:8a:9a:5a:92:b0:
         df:c2:16:62:81:b1:40:fc:48:92:8e:4f:a5:35:fb:54:42:08:
         a5:88:20:31:43:2f:20:63:df:78:47:43:e1:26:cb:6f:7f:4d:
         54:03:e8:1f:d6:1e:0e:d1:cd:83:d3:ea:09:ee:3b:d8:d8:ab:
         a8:41:21:68:5e:ec:2b:d8:e1:f0:a3:95:d6:ec:f9:6f:b0:e6:
         1c:3b:86:1c:6a:41:57:a3:9e:38:1b:1a:d1:f2:2f:b4:40:f2:
         b6:ef:52:a9:af:64:92:34:c9:f4:6c:02:11:bd:53:b7:44:6e:
         30:30:1e:17:7d:96:11:3a:86:5a:18:8b:e4:2c:00:a0:4e:a6:
         3b:eb:f9:81:a1:ab:0d:d2:c4:d2:1b:e4:44:d3:84:9c:53:b4:
         a1:eb:35:30:df:8d:76:d1:c8:ff:4b:be:27:a9:b0:97:e3:96:
         d5:ad:57:c5:be:29:de:1b:5d:de:71:29:a0:f0:f3:35:63:6d:
         b8:d9:6b:1c:7a:c9:82:98:fd:bd:f4:81:75:72:90:e8:12:c4:
         48:53:59:c7:0b:e1:0a:ee:9e:3b:7b:c4:eb:27:14:07:b1:f8:
         a1:77:a3:93:12:2c:b2:41:3e:1f:00:c7:5c:9e:a7:c4:ef:4a:
         74:9b:76:50:cf:f5:5e:14:de:20:3c:5c:bf:b6:5f:81:c4:d9:
         83:d7:de:52:69:41:8d:d8:03:07:e0:10:6a:9c:45:2c:f8:47:
         f7:40:7f:aa:56:2d:7b:04:ca:14:b8:c9:04:31:c2:3d:3e:0d:
         54:90:73:db:66:e4:67:47:7f:4f:fd:62:ed:d8:6d:0e:fc:ce:
         ea:d3:2f:ac:04:b4:13:68:26:d6:5c:a4:2d:0a:14:50:1a:b0:
         5b:4e:37:5f:ee:e4:fd:a9:91:db:c7:a8:c3:66:c2:8c:ae:64:
         31:f1:0a:1a:10:ee:cc:a9:be:75:d2:61:8a:a6:ba:1d:67:e7:
         64:6e:ef:e9:d3:52:bc:8f:8e:fe:fd:ea:77:c3:a4:5b:c2:21:
         36:95:8a:4f:c3:12:30:4e:e5:a0:36:87:e9:59:d5:72:4c:87:
         be:dc:bc:74:d6:6b:d8:41:0f:1f:a4:c5:2c:d4:9b:b0:34:b8:
         48:c6:c5:eb:e0:1c:44:28:f3:34:de:36:4d:9a:73:20:26:48:
         4e:3d:8f:2e:49:37:4b:42:12:9a:4d:9d:35:1f:a3:85:70:a6:
         fe:76:3f:2c:91:f6:2c:e1:df:29:50:54:a1:d2:ce:61:08:c6:
         c6:03:a7:32:bb:23:94:95:9e:80:1a:a1:65:3d:a0:1b:82:f5:
         5f:b3:7c:5b:76:b2:5c:2c
-----BEGIN CERTIFICATE-----
MIIHRjCCBS6gAwIBAgIBTDANBgkqhkiG9w0BAQUFADCBtDELMAkGA1UEBhMCVVMx
CzAJBgNVBAgTAkNBMRUwEwYDVQQHEwxTYW5GcmFuY2lzY28xFTATBgNVBAoTDFBp
eGdsbywgSW5jLjEQMA4GA1UECxMHVlBOLUNJRTEaMBgGA1UEAxMRdHVubmVsLnBp
eGdsby5jb20xHDAaBgNVBCkTE0JhbGEgQ2hhbmRyYXNla2FyYW4xHjAcBgkqhkiG
9w0BCQEWD2JhbGFAcGl4Z2xvLmNvbTAeFw0xODAyMTQwNjI1MTRaFw0yODAyMTIw
NjI1MTRaMIGoMQswCQYDVQQGEwJVUzELMAkGA1UECBMCQ0ExFTATBgNVBAcTDFNh
bkZyYW5jaXNjbzEVMBMGA1UEChMMUGl4Z2xvLCBJbmMuMRAwDgYDVQQLEwdWUE4t
Q0lFMQ4wDAYDVQQDEwVjaWU3NTEcMBoGA1UEKRMTQmFsYSBDaGFuZHJhc2VrYXJh
bjEeMBwGCSqGSIb3DQEJARYPYmFsYUBwaXhnbG8uY29tMIICIjANBgkqhkiG9w0B
AQEFAAOCAg8AMIICCgKCAgEA5wWxH1dSu79tcR+7OZrbS4/8OGGebLxVzIb9TQM+
D/erwRo+/4vCoHausjgYT7FmcA4rkBtBZ2LV03vzqLzZMgeM3W1OnpsdI+hEMjAE
4cXFRqSfAy2OWdumSpfexn4rVK6NaOrGwWl9YtH0THpt5vz85dAheqjwlreo/vcm
aLc6wRtGhCLf9xH1ajdXCs+rFf7jJgGrSQpk2u9dAMpuHoM0eHrVVt0vDssERYu+
3XLPYpr5CwFLiaHj7y8s6D3YneOmrOcLUuwnJRtWeN5DAiLcdIDA+/Ynf4HRBzJ9
2TJd6HHqfcU1z//NptB1+/3Ectbgyg3Pk+dihufxF/OJGjSLbsNmVze4UBrBG0N6
6bSnRXpqTSlIk9vmubp2+f58Vjz5yT+O9GZ8RF38Mf2mROGy3RCiCB9X3FUixkeP
KvkVZQIIccD7vdHQuZz/vLMTRlAYJu8F5tqLuXddbyQPJt3e5vqj2RfwcdaxyP05
UpCoCK9Ps+QEknACEYgWnV/wW0YUcY2Jf7CMjE3P9Q03ofz8t/Q0K4A1uBuA73sc
YG1LE5CJS1u6/GCrWuZADjg7S7s4TuXRl1zIANPuZGFL53/Un2oX2Xzau27FCjE6
vyStlV2zvKcGYgoywB/seautiAjlP4L5t5Rf3GbTcj0X1kNLL/bEuQy9yvzj48YZ
LocCAwEAAaOCAWswggFnMAkGA1UdEwQCMAAwLQYJYIZIAYb4QgENBCAWHkVhc3kt
UlNBIEdlbmVyYXRlZCBDZXJ0aWZpY2F0ZTAdBgNVHQ4EFgQUWdP77mIHA87UGf4y
wQ/4kIJ8724wgekGA1UdIwSB4TCB3oAU7ziNFFBYp1tNnBdy/N+5rKdRsBChgbqk
gbcwgbQxCzAJBgNVBAYTAlVTMQswCQYDVQQIEwJDQTEVMBMGA1UEBxMMU2FuRnJh
bmNpc2NvMRUwEwYDVQQKEwxQaXhnbG8sIEluYy4xEDAOBgNVBAsTB1ZQTi1DSUUx
GjAYBgNVBAMTEXR1bm5lbC5waXhnbG8uY29tMRwwGgYDVQQpExNCYWxhIENoYW5k
cmFzZWthcmFuMR4wHAYJKoZIhvcNAQkBFg9iYWxhQHBpeGdsby5jb22CCQCm28aD
gOageTATBgNVHSUEDDAKBggrBgEFBQcDAjALBgNVHQ8EBAMCB4AwDQYJKoZIhvcN
AQEFBQADggIBAL5KSqbNWNoGj05UhYeKmlqSsN/CFmKBsUD8SJKOT6U1+1RCCKWI
IDFDLyBj33hHQ+Emy29/TVQD6B/WHg7RzYPT6gnuO9jYq6hBIWhe7CvY4fCjldbs
+W+w5hw7hhxqQVejnjgbGtHyL7RA8rbvUqmvZJI0yfRsAhG9U7dEbjAwHhd9lhE6
hloYi+QsAKBOpjvr+YGhqw3SxNIb5ETThJxTtKHrNTDfjXbRyP9LviepsJfjltWt
V8W+Kd4bXd5xKaDw8zVjbbjZaxx6yYKY/b30gXVykOgSxEhTWccL4Qrunjt7xOsn
FAex+KF3o5MSLLJBPh8Ax1yep8TvSnSbdlDP9V4U3iA8XL+2X4HE2YPX3lJpQY3Y
AwfgEGqcRSz4R/dAf6pWLXsEyhS4yQQxwj0+DVSQc9tm5GdHf0/9Yu3YbQ78zurT
L6wEtBNoJtZcpC0KFFAasFtON1/u5P2pkdvHqMNmwoyuZDHxChoQ7sypvnXSYYqm
uh1n52Ru7+nTUryPjv796nfDpFvCITaVik/DEjBO5aA2h+lZ1XJMh77cvHTWa9hB
Dx+kxSzUm7A0uEjGxevgHEQo8zTeNk2acyAmSE49jy5JN0tCEppNnTUfo4Vwpv52
PyyR9izh3ylQVKHSzmEIxsYDpzK7I5SVnoAaoWU9oBuC9V+zfFt2slws
-----END CERTIFICATE-----
