Certificate:
    Data:
        Version: 3 (0x2)
        Serial Number: 77 (0x4d)
    Signature Algorithm: sha1WithRSAEncryption
        Issuer: C=US, ST=CA, L=SanFrancisco, O=Pixglo, Inc., OU=VPN-CIE, CN=tunnel.pixglo.com/name=Bala Chandrasekaran/emailAddress=bala@pixglo.com
        Validity
            Not Before: Feb 14 06:25:14 2018 GMT
            Not After : Feb 12 06:25:14 2028 GMT
        Subject: C=US, ST=CA, L=SanFrancisco, O=Pixglo, Inc., OU=VPN-CIE, CN=cie76/name=Bala Chandrasekaran/emailAddress=bala@pixglo.com
        Subject Public Key Info:
            Public Key Algorithm: rsaEncryption
                Public-Key: (4096 bit)
                Modulus:
                    00:b1:bb:53:7f:73:aa:5c:bd:8c:e4:69:68:71:38:
                    24:cf:24:8e:44:56:b5:9b:ea:9c:3e:37:42:35:1c:
                    44:7f:ce:fe:aa:b3:b6:fc:20:11:1f:3b:0a:2e:6b:
                    4a:e5:eb:15:32:32:d1:18:f7:e6:70:33:2e:63:16:
                    ac:ab:e1:18:53:14:35:44:00:17:2c:2d:ca:fe:a5:
                    cd:1a:10:53:29:bd:ee:30:27:1c:a3:62:cc:c8:37:
                    b9:12:c8:6f:57:64:64:b7:4d:e0:44:ff:66:05:7a:
                    e1:9a:17:4f:db:40:e0:52:ad:1e:6e:86:e9:d3:30:
                    4e:bd:12:1b:45:5d:d5:f9:ce:2b:8b:ae:bb:0a:32:
                    6b:da:5e:76:d9:18:ae:a0:74:ee:45:90:b0:bc:56:
                    89:44:4e:1a:22:82:12:6a:2f:dd:29:a1:dc:8e:8e:
                    fb:f2:d4:77:77:01:2e:5b:d9:57:fa:2f:3e:e5:b3:
                    8f:73:a2:b0:4c:81:47:43:db:d6:60:02:28:52:57:
                    c3:a3:d7:da:f5:05:38:ac:45:dd:71:ba:5a:8c:8c:
                    9c:4a:69:96:0d:cf:68:fd:30:9b:6a:21:dc:1b:68:
                    c0:1a:23:4e:e7:c5:3c:e0:59:5b:63:fa:b7:9c:c5:
                    ac:74:ea:02:d4:55:69:91:df:a2:bc:82:f7:5b:e7:
                    d3:62:f1:0a:80:a9:1e:75:df:5a:be:63:26:a8:04:
                    a4:63:42:38:e7:4c:67:3b:5d:d6:fe:49:47:19:dd:
                    e9:18:4f:61:d3:5d:40:88:19:7f:04:7c:80:cd:45:
                    8a:9f:3e:f8:fd:16:5e:7c:a8:e1:22:59:ee:75:ff:
                    9e:b5:1f:4f:02:e6:1d:42:ad:94:b6:d7:f4:54:93:
                    02:b2:1b:69:b0:7d:fb:11:71:34:e6:55:7b:5c:37:
                    86:ed:0f:40:80:4d:35:49:b0:9d:47:79:12:5c:b3:
                    ff:b8:c7:83:81:1c:dc:d5:39:dd:a6:f4:1a:d7:90:
                    4b:15:c0:3c:f8:cf:42:55:72:29:c3:67:72:33:11:
                    bd:e9:0e:c8:f6:e9:ce:6d:74:02:a3:68:51:5c:e6:
                    6a:c3:c8:5c:d5:a8:15:f1:81:73:69:c3:43:dd:0d:
                    8f:ca:e9:06:34:10:9d:79:39:f1:7f:33:f4:fa:31:
                    b6:8a:42:6a:6a:8e:b8:6c:67:a1:70:f4:cc:b4:48:
                    88:5b:06:09:1d:ab:d7:fa:af:8c:bd:6c:46:a5:d3:
                    a3:dd:24:3e:bf:af:35:99:58:9d:7a:71:46:b3:38:
                    bc:9d:10:49:45:14:95:2f:2d:50:fb:8a:78:9c:35:
                    4a:00:9e:c0:30:ee:a0:a3:ce:7b:5d:73:aa:bd:db:
                    b8:dc:55
                Exponent: 65537 (0x10001)
        X509v3 extensions:
            X509v3 Basic Constraints: 
                CA:FALSE
            Netscape Comment: 
                Easy-RSA Generated Certificate
            X509v3 Subject Key Identifier: 
                7E:A1:D0:EF:09:A5:F3:4E:CA:C4:17:AC:79:F3:32:AF:C7:0C:D8:A2
            X509v3 Authority Key Identifier: 
                keyid:EF:38:8D:14:50:58:A7:5B:4D:9C:17:72:FC:DF:B9:AC:A7:51:B0:10
                DirName:/C=US/ST=CA/L=SanFrancisco/O=Pixglo, Inc./OU=VPN-CIE/CN=tunnel.pixglo.com/name=Bala Chandrasekaran/emailAddress=bala@pixglo.com
                serial:A6:DB:C6:83:80:E6:A0:79

            X509v3 Extended Key Usage: 
                TLS Web Client Authentication
            X509v3 Key Usage: 
                Digital Signature
    Signature Algorithm: sha1WithRSAEncryption
         d1:76:a4:b3:10:aa:5d:d4:bc:1a:ef:76:f4:5b:c9:f9:93:60:
         3c:6c:11:cf:d7:32:d4:09:32:a1:4b:5e:78:53:14:f2:f3:73:
         01:48:a0:5b:ff:cf:45:58:5a:20:ea:0d:c6:93:0f:fc:19:ab:
         cb:d7:fb:86:c9:70:4c:5e:13:2a:6d:26:2b:ca:55:42:a1:02:
         30:22:4a:3a:82:7a:a4:a4:87:a0:70:6a:49:31:4b:9a:84:dd:
         0a:a6:72:f6:99:20:a9:18:24:3b:1a:db:de:8c:83:53:81:49:
         bb:2d:c5:e3:bb:88:2f:73:f0:4a:8b:5d:01:a9:a5:73:66:11:
         e8:dd:ef:78:37:e7:42:dc:e4:d4:7b:20:af:dc:38:f4:63:44:
         1f:be:c2:5f:8c:06:26:fd:28:68:61:66:b4:59:c9:24:fe:1e:
         be:63:21:59:0e:3b:1e:01:b6:c6:45:68:47:98:40:ce:53:fa:
         34:f1:ad:7d:fa:27:2a:3c:11:f7:35:e1:a5:58:9f:07:6e:fc:
         8e:6d:ce:7c:52:ad:80:29:59:4e:01:4f:bc:83:37:2f:2d:2d:
         30:9f:06:86:39:98:5f:61:f5:43:e3:9e:9c:23:e1:8e:c4:39:
         97:5e:4e:6b:6f:c4:ca:73:8d:4c:6e:e5:96:df:61:70:07:08:
         b6:2b:cd:a3:00:89:b6:60:cb:af:cd:c5:bd:0b:24:d7:f1:5f:
         99:dd:17:74:7f:8d:d9:f4:58:7e:36:0f:c6:45:28:9c:34:89:
         ef:59:58:55:6c:a2:22:48:a9:8f:48:93:a6:d8:39:36:2b:27:
         84:79:28:c7:0b:b2:b4:18:e0:7d:7a:fd:e7:7a:a4:4d:f3:ad:
         73:65:15:3c:94:26:d6:d0:56:63:04:ef:fb:2a:12:21:ff:e1:
         95:cc:e1:1e:76:bb:87:a9:4e:16:ac:db:e0:f8:57:b5:a9:f9:
         64:b8:e1:78:32:da:04:41:0c:7b:c2:14:35:eb:17:4d:6c:32:
         4a:97:4b:ae:b6:98:05:94:90:fd:b0:3a:44:25:55:91:05:13:
         d4:1f:c4:ef:63:94:0e:81:bb:fd:d6:42:d5:f7:05:e5:94:e6:
         12:e6:9a:3b:dc:f6:b8:da:6c:e2:65:57:73:52:72:54:08:f6:
         58:14:17:0e:6b:15:e0:e3:5b:3f:9e:4a:1a:f1:0c:32:00:d4:
         49:41:19:c0:90:1f:97:e0:2f:a9:7a:fa:b1:50:07:e3:e3:71:
         cf:10:4b:ce:dd:38:85:8e:c4:cf:02:0b:33:5c:1d:66:56:53:
         c9:db:71:08:6f:8d:d3:30:ca:ea:6b:28:c7:e8:2e:1a:0b:34:
         a7:a4:81:b7:0b:63:ad:df
-----BEGIN CERTIFICATE-----
MIIHRjCCBS6gAwIBAgIBTTANBgkqhkiG9w0BAQUFADCBtDELMAkGA1UEBhMCVVMx
CzAJBgNVBAgTAkNBMRUwEwYDVQQHEwxTYW5GcmFuY2lzY28xFTATBgNVBAoTDFBp
eGdsbywgSW5jLjEQMA4GA1UECxMHVlBOLUNJRTEaMBgGA1UEAxMRdHVubmVsLnBp
eGdsby5jb20xHDAaBgNVBCkTE0JhbGEgQ2hhbmRyYXNla2FyYW4xHjAcBgkqhkiG
9w0BCQEWD2JhbGFAcGl4Z2xvLmNvbTAeFw0xODAyMTQwNjI1MTRaFw0yODAyMTIw
NjI1MTRaMIGoMQswCQYDVQQGEwJVUzELMAkGA1UECBMCQ0ExFTATBgNVBAcTDFNh
bkZyYW5jaXNjbzEVMBMGA1UEChMMUGl4Z2xvLCBJbmMuMRAwDgYDVQQLEwdWUE4t
Q0lFMQ4wDAYDVQQDEwVjaWU3NjEcMBoGA1UEKRMTQmFsYSBDaGFuZHJhc2VrYXJh
bjEeMBwGCSqGSIb3DQEJARYPYmFsYUBwaXhnbG8uY29tMIICIjANBgkqhkiG9w0B
AQEFAAOCAg8AMIICCgKCAgEAsbtTf3OqXL2M5GlocTgkzySORFa1m+qcPjdCNRxE
f87+qrO2/CARHzsKLmtK5esVMjLRGPfmcDMuYxasq+EYUxQ1RAAXLC3K/qXNGhBT
Kb3uMCcco2LMyDe5EshvV2Rkt03gRP9mBXrhmhdP20DgUq0ebobp0zBOvRIbRV3V
+c4ri667CjJr2l522RiuoHTuRZCwvFaJRE4aIoISai/dKaHcjo778tR3dwEuW9lX
+i8+5bOPc6KwTIFHQ9vWYAIoUlfDo9fa9QU4rEXdcbpajIycSmmWDc9o/TCbaiHc
G2jAGiNO58U84FlbY/q3nMWsdOoC1FVpkd+ivIL3W+fTYvEKgKkedd9avmMmqASk
Y0I450xnO13W/klHGd3pGE9h011AiBl/BHyAzUWKnz74/RZefKjhIlnudf+etR9P
AuYdQq2Uttf0VJMCshtpsH37EXE05lV7XDeG7Q9AgE01SbCdR3kSXLP/uMeDgRzc
1TndpvQa15BLFcA8+M9CVXIpw2dyMxG96Q7I9unObXQCo2hRXOZqw8hc1agV8YFz
acND3Q2PyukGNBCdeTnxfzP0+jG2ikJqao64bGehcPTMtEiIWwYJHavX+q+MvWxG
pdOj3SQ+v681mVidenFGszi8nRBJRRSVLy1Q+4p4nDVKAJ7AMO6go857XXOqvdu4
3FUCAwEAAaOCAWswggFnMAkGA1UdEwQCMAAwLQYJYIZIAYb4QgENBCAWHkVhc3kt
UlNBIEdlbmVyYXRlZCBDZXJ0aWZpY2F0ZTAdBgNVHQ4EFgQUfqHQ7wml807KxBes
efMyr8cM2KIwgekGA1UdIwSB4TCB3oAU7ziNFFBYp1tNnBdy/N+5rKdRsBChgbqk
gbcwgbQxCzAJBgNVBAYTAlVTMQswCQYDVQQIEwJDQTEVMBMGA1UEBxMMU2FuRnJh
bmNpc2NvMRUwEwYDVQQKEwxQaXhnbG8sIEluYy4xEDAOBgNVBAsTB1ZQTi1DSUUx
GjAYBgNVBAMTEXR1bm5lbC5waXhnbG8uY29tMRwwGgYDVQQpExNCYWxhIENoYW5k
cmFzZWthcmFuMR4wHAYJKoZIhvcNAQkBFg9iYWxhQHBpeGdsby5jb22CCQCm28aD
gOageTATBgNVHSUEDDAKBggrBgEFBQcDAjALBgNVHQ8EBAMCB4AwDQYJKoZIhvcN
AQEFBQADggIBANF2pLMQql3UvBrvdvRbyfmTYDxsEc/XMtQJMqFLXnhTFPLzcwFI
oFv/z0VYWiDqDcaTD/wZq8vX+4bJcExeEyptJivKVUKhAjAiSjqCeqSkh6Bwakkx
S5qE3QqmcvaZIKkYJDsa296Mg1OBSbstxeO7iC9z8EqLXQGppXNmEejd73g350Lc
5NR7IK/cOPRjRB++wl+MBib9KGhhZrRZyST+Hr5jIVkOOx4BtsZFaEeYQM5T+jTx
rX36Jyo8Efc14aVYnwdu/I5tznxSrYApWU4BT7yDNy8tLTCfBoY5mF9h9UPjnpwj
4Y7EOZdeTmtvxMpzjUxu5ZbfYXAHCLYrzaMAibZgy6/Nxb0LJNfxX5ndF3R/jdn0
WH42D8ZFKJw0ie9ZWFVsoiJIqY9Ik6bYOTYrJ4R5KMcLsrQY4H16/ed6pE3zrXNl
FTyUJtbQVmME7/sqEiH/4ZXM4R52u4epThas2+D4V7Wp+WS44Xgy2gRBDHvCFDXr
F01sMkqXS662mAWUkP2wOkQlVZEFE9QfxO9jlA6Bu/3WQtX3BeWU5hLmmjvc9rja
bOJlV3NSclQI9lgUFw5rFeDjWz+eShrxDDIA1ElBGcCQH5fgL6l6+rFQB+Pjcc8Q
S87dOIWOxM8CCzNcHWZWU8nbcQhvjdMwyuprKMfoLhoLNKekgbcLY63f
-----END CERTIFICATE-----
