Certificate:
    Data:
        Version: 3 (0x2)
        Serial Number: 78 (0x4e)
    Signature Algorithm: sha1WithRSAEncryption
        Issuer: C=US, ST=CA, L=SanFrancisco, O=Pixglo, Inc., OU=VPN-CIE, CN=tunnel.pixglo.com/name=Bala Chandrasekaran/emailAddress=bala@pixglo.com
        Validity
            Not Before: Feb 14 06:25:17 2018 GMT
            Not After : Feb 12 06:25:17 2028 GMT
        Subject: C=US, ST=CA, L=SanFrancisco, O=Pixglo, Inc., OU=VPN-CIE, CN=cie77/name=Bala Chandrasekaran/emailAddress=bala@pixglo.com
        Subject Public Key Info:
            Public Key Algorithm: rsaEncryption
                Public-Key: (4096 bit)
                Modulus:
                    00:b7:80:7a:7f:fd:1a:b8:3a:db:91:58:9f:18:a1:
                    bb:84:d2:28:5a:3f:5b:cc:e8:f1:3c:a8:9b:ea:29:
                    03:cb:81:58:25:b0:62:d1:3c:83:d3:27:65:33:4b:
                    24:5a:22:ef:af:f5:bb:52:47:9d:1a:02:f6:7d:dc:
                    82:1e:6d:8c:6c:dd:1f:d7:a4:00:16:48:14:4e:33:
                    6c:13:53:50:5d:36:33:e4:3d:b3:6f:86:7d:99:82:
                    bf:a8:c6:00:56:af:a9:6f:16:67:02:bb:5f:0c:35:
                    73:f1:ef:5a:8a:29:b7:d8:61:81:2c:47:96:44:00:
                    29:7f:a9:d9:67:d9:d8:2d:f7:10:25:98:fa:3c:db:
                    5f:82:f6:f4:8c:79:22:62:14:3b:10:f1:24:68:88:
                    ee:60:df:b4:d9:be:17:6b:cd:24:47:ac:ab:f3:6e:
                    1d:af:54:12:4d:8c:4e:5d:86:6c:dc:18:78:41:c0:
                    69:6e:a7:98:dc:fb:88:4a:1f:05:ab:81:db:a2:07:
                    33:61:d2:7b:3b:2e:1d:68:fe:ac:17:c6:1b:62:41:
                    72:f1:87:5a:23:05:03:c0:12:06:2d:3a:25:c2:4e:
                    10:43:54:14:48:dc:56:4d:b9:9d:0d:b1:57:aa:f6:
                    0d:e3:7a:2d:41:a6:79:a5:11:d8:e5:ba:2a:ac:a8:
                    86:97:d4:f7:f5:95:2b:d3:a4:23:fb:f7:65:11:25:
                    c5:c0:b4:5d:81:73:1b:07:a4:e1:c4:cf:a6:48:b4:
                    40:ef:a6:74:34:83:9e:f2:a0:b7:47:79:1f:2c:eb:
                    a1:00:50:9e:97:93:8f:86:a6:1f:a4:c7:97:8a:06:
                    1a:83:57:75:4c:12:8e:14:8a:f2:41:82:ce:f5:15:
                    e1:cf:f2:76:81:7f:1b:0e:53:5b:f9:42:5f:47:32:
                    18:f1:4e:48:af:b1:88:c2:fe:03:a7:ac:45:63:88:
                    9b:16:9b:14:8d:a7:22:8a:f8:cb:42:5e:24:20:75:
                    08:90:ee:0a:fa:53:e2:fb:b4:c6:06:8d:d6:9a:c9:
                    05:24:0f:d0:b5:69:b1:f6:1c:c2:21:07:a3:ef:a0:
                    4b:4c:b3:8d:1c:52:ef:d8:2d:40:91:50:24:ee:45:
                    62:4e:13:e0:72:63:5b:6e:56:36:c0:7d:4c:68:96:
                    5d:16:3d:e0:83:dc:b8:dd:17:db:21:2a:3f:c2:da:
                    34:fb:f0:4f:1a:05:86:88:ff:09:5d:af:9a:49:59:
                    b7:97:9a:8b:71:35:d6:35:a6:7d:06:74:cb:f6:05:
                    9c:8b:4c:6c:69:d2:22:9f:17:e4:0a:7f:ac:34:54:
                    fa:4e:07:9e:d7:47:0c:01:b6:fd:58:76:aa:2b:59:
                    4b:40:0b
                Exponent: 65537 (0x10001)
        X509v3 extensions:
            X509v3 Basic Constraints: 
                CA:FALSE
            Netscape Comment: 
                Easy-RSA Generated Certificate
            X509v3 Subject Key Identifier: 
                3C:BB:E5:B8:63:55:DC:1F:D5:EF:B5:91:1A:0C:53:FA:23:F9:5D:6A
            X509v3 Authority Key Identifier: 
                keyid:EF:38:8D:14:50:58:A7:5B:4D:9C:17:72:FC:DF:B9:AC:A7:51:B0:10
                DirName:/C=US/ST=CA/L=SanFrancisco/O=Pixglo, Inc./OU=VPN-CIE/CN=tunnel.pixglo.com/name=Bala Chandrasekaran/emailAddress=bala@pixglo.com
                serial:A6:DB:C6:83:80:E6:A0:79

            X509v3 Extended Key Usage: 
                TLS Web Client Authentication
            X509v3 Key Usage: 
                Digital Signature
    Signature Algorithm: sha1WithRSAEncryption
         49:3f:a8:52:b5:e5:e9:11:28:15:14:76:c0:cf:16:4f:8d:71:
         92:a6:07:27:b6:c2:4c:4c:f9:03:fc:98:0f:84:95:23:44:65:
         b2:00:55:10:1e:c8:05:14:1d:3b:ea:c0:87:6e:a8:5c:cf:48:
         99:94:03:e3:a9:e4:26:f9:31:04:18:64:59:4b:9e:7d:e7:d2:
         84:f6:90:58:67:eb:0c:b9:1b:e9:48:77:f4:82:02:d6:93:72:
         7e:c7:18:8d:d3:3e:47:e4:13:6c:70:f2:60:3a:7e:a9:e7:9d:
         78:7a:e5:2d:fa:49:c5:07:94:3d:5b:ea:5f:d7:80:4e:74:f8:
         42:87:68:d8:79:af:42:90:e3:ac:e6:1e:d9:4a:1b:e8:30:2b:
         d0:4f:6c:6d:9a:dd:ce:d9:38:d5:fe:7e:6d:21:b2:9d:93:56:
         fe:e5:14:e2:c3:33:d1:d1:36:bd:6b:f4:07:2f:a9:d0:9b:03:
         c5:5d:e9:54:27:70:ad:26:95:37:cd:60:bb:87:99:45:da:70:
         69:39:9a:1b:38:97:a8:fa:0f:98:b5:19:f8:be:23:78:92:cc:
         f4:91:90:04:32:df:90:2d:1a:40:90:38:45:e1:e7:3d:98:c3:
         bd:1b:fb:8d:94:a7:b7:66:3e:df:2e:19:2a:30:e0:4f:57:63:
         f3:09:cb:51:c1:8f:67:ca:94:ba:21:cf:24:33:6b:b9:14:5d:
         ba:71:d7:8f:b3:94:96:21:cf:3a:0a:4d:0d:84:21:df:dd:e7:
         9e:ec:2a:09:59:f7:c8:8b:98:d9:42:8b:22:15:18:aa:23:10:
         68:a8:d1:87:38:1d:83:68:17:91:08:da:a8:31:f1:bf:14:d6:
         1d:fc:cc:e9:95:cb:77:e0:42:51:c9:0d:7b:54:c2:58:f3:6a:
         1a:9a:08:82:fd:0f:eb:8b:a7:e2:5c:c5:0a:37:99:d3:42:d3:
         1f:4e:93:6b:40:82:c4:54:ba:55:fc:16:ef:d7:8b:e1:b1:6b:
         b8:6d:e8:71:e0:79:f4:c4:d3:8e:43:c1:51:6b:bb:e2:56:33:
         1a:5d:16:35:3d:7f:2b:89:4a:00:73:4c:11:30:17:f8:29:b6:
         a8:db:19:10:a6:c7:3e:4d:16:89:06:d1:9c:1d:12:0d:b6:9e:
         5e:a8:95:52:f5:73:60:d3:72:16:dd:70:67:1c:73:91:07:3d:
         c7:ab:2e:a9:65:c3:21:99:4d:df:7b:c5:10:c2:91:11:e9:98:
         ec:f2:31:3b:45:0c:96:96:88:85:48:b6:e0:25:44:25:d9:b9:
         02:71:a9:7c:90:4a:a5:0d:9b:50:5a:21:b5:09:1e:98:64:3e:
         93:db:2b:2b:35:93:ee:98
-----BEGIN CERTIFICATE-----
MIIHRjCCBS6gAwIBAgIBTjANBgkqhkiG9w0BAQUFADCBtDELMAkGA1UEBhMCVVMx
CzAJBgNVBAgTAkNBMRUwEwYDVQQHEwxTYW5GcmFuY2lzY28xFTATBgNVBAoTDFBp
eGdsbywgSW5jLjEQMA4GA1UECxMHVlBOLUNJRTEaMBgGA1UEAxMRdHVubmVsLnBp
eGdsby5jb20xHDAaBgNVBCkTE0JhbGEgQ2hhbmRyYXNla2FyYW4xHjAcBgkqhkiG
9w0BCQEWD2JhbGFAcGl4Z2xvLmNvbTAeFw0xODAyMTQwNjI1MTdaFw0yODAyMTIw
NjI1MTdaMIGoMQswCQYDVQQGEwJVUzELMAkGA1UECBMCQ0ExFTATBgNVBAcTDFNh
bkZyYW5jaXNjbzEVMBMGA1UEChMMUGl4Z2xvLCBJbmMuMRAwDgYDVQQLEwdWUE4t
Q0lFMQ4wDAYDVQQDEwVjaWU3NzEcMBoGA1UEKRMTQmFsYSBDaGFuZHJhc2VrYXJh
bjEeMBwGCSqGSIb3DQEJARYPYmFsYUBwaXhnbG8uY29tMIICIjANBgkqhkiG9w0B
AQEFAAOCAg8AMIICCgKCAgEAt4B6f/0auDrbkVifGKG7hNIoWj9bzOjxPKib6ikD
y4FYJbBi0TyD0ydlM0skWiLvr/W7UkedGgL2fdyCHm2MbN0f16QAFkgUTjNsE1NQ
XTYz5D2zb4Z9mYK/qMYAVq+pbxZnArtfDDVz8e9aiim32GGBLEeWRAApf6nZZ9nY
LfcQJZj6PNtfgvb0jHkiYhQ7EPEkaIjuYN+02b4Xa80kR6yr824dr1QSTYxOXYZs
3Bh4QcBpbqeY3PuISh8Fq4HbogczYdJ7Oy4daP6sF8YbYkFy8YdaIwUDwBIGLTol
wk4QQ1QUSNxWTbmdDbFXqvYN43otQaZ5pRHY5boqrKiGl9T39ZUr06Qj+/dlESXF
wLRdgXMbB6ThxM+mSLRA76Z0NIOe8qC3R3kfLOuhAFCel5OPhqYfpMeXigYag1d1
TBKOFIryQYLO9RXhz/J2gX8bDlNb+UJfRzIY8U5Ir7GIwv4Dp6xFY4ibFpsUjaci
ivjLQl4kIHUIkO4K+lPi+7TGBo3WmskFJA/QtWmx9hzCIQej76BLTLONHFLv2C1A
kVAk7kViThPgcmNbblY2wH1MaJZdFj3gg9y43RfbISo/wto0+/BPGgWGiP8JXa+a
SVm3l5qLcTXWNaZ9BnTL9gWci0xsadIinxfkCn+sNFT6Tgee10cMAbb9WHaqK1lL
QAsCAwEAAaOCAWswggFnMAkGA1UdEwQCMAAwLQYJYIZIAYb4QgENBCAWHkVhc3kt
UlNBIEdlbmVyYXRlZCBDZXJ0aWZpY2F0ZTAdBgNVHQ4EFgQUPLvluGNV3B/V77WR
GgxT+iP5XWowgekGA1UdIwSB4TCB3oAU7ziNFFBYp1tNnBdy/N+5rKdRsBChgbqk
gbcwgbQxCzAJBgNVBAYTAlVTMQswCQYDVQQIEwJDQTEVMBMGA1UEBxMMU2FuRnJh
bmNpc2NvMRUwEwYDVQQKEwxQaXhnbG8sIEluYy4xEDAOBgNVBAsTB1ZQTi1DSUUx
GjAYBgNVBAMTEXR1bm5lbC5waXhnbG8uY29tMRwwGgYDVQQpExNCYWxhIENoYW5k
cmFzZWthcmFuMR4wHAYJKoZIhvcNAQkBFg9iYWxhQHBpeGdsby5jb22CCQCm28aD
gOageTATBgNVHSUEDDAKBggrBgEFBQcDAjALBgNVHQ8EBAMCB4AwDQYJKoZIhvcN
AQEFBQADggIBAEk/qFK15ekRKBUUdsDPFk+NcZKmBye2wkxM+QP8mA+ElSNEZbIA
VRAeyAUUHTvqwIduqFzPSJmUA+Op5Cb5MQQYZFlLnn3n0oT2kFhn6wy5G+lId/SC
AtaTcn7HGI3TPkfkE2xw8mA6fqnnnXh65S36ScUHlD1b6l/XgE50+EKHaNh5r0KQ
46zmHtlKG+gwK9BPbG2a3c7ZONX+fm0hsp2TVv7lFOLDM9HRNr1r9AcvqdCbA8Vd
6VQncK0mlTfNYLuHmUXacGk5mhs4l6j6D5i1Gfi+I3iSzPSRkAQy35AtGkCQOEXh
5z2Yw70b+42Up7dmPt8uGSow4E9XY/MJy1HBj2fKlLohzyQza7kUXbpx14+zlJYh
zzoKTQ2EId/d557sKglZ98iLmNlCiyIVGKojEGio0Yc4HYNoF5EI2qgx8b8U1h38
zOmVy3fgQlHJDXtUwljzahqaCIL9D+uLp+JcxQo3mdNC0x9Ok2tAgsRUulX8Fu/X
i+Gxa7ht6HHgefTE045DwVFru+JWMxpdFjU9fyuJSgBzTBEwF/gptqjbGRCmxz5N
FokG0ZwdEg22nl6olVL1c2DTchbdcGccc5EHPcerLqllwyGZTd97xRDCkRHpmOzy
MTtFDJaWiIVItuAlRCXZuQJxqXyQSqUNm1BaIbUJHphkPpPbKys1k+6Y
-----END CERTIFICATE-----
