Certificate:
    Data:
        Version: 3 (0x2)
        Serial Number: 79 (0x4f)
    Signature Algorithm: sha1WithRSAEncryption
        Issuer: C=US, ST=CA, L=SanFrancisco, O=Pixglo, Inc., OU=VPN-CIE, CN=tunnel.pixglo.com/name=Bala Chandrasekaran/emailAddress=bala@pixglo.com
        Validity
            Not Before: Feb 14 06:25:18 2018 GMT
            Not After : Feb 12 06:25:18 2028 GMT
        Subject: C=US, ST=CA, L=SanFrancisco, O=Pixglo, Inc., OU=VPN-CIE, CN=cie78/name=Bala Chandrasekaran/emailAddress=bala@pixglo.com
        Subject Public Key Info:
            Public Key Algorithm: rsaEncryption
                Public-Key: (4096 bit)
                Modulus:
                    00:b5:64:8f:65:27:7a:c4:9e:11:3f:ed:4f:04:f5:
                    23:23:59:d5:e0:36:1e:1a:4a:48:f4:3b:21:a4:31:
                    ca:3d:bc:76:61:83:30:b1:be:fe:0a:98:63:52:d8:
                    3c:29:cb:95:25:90:02:77:93:b7:f5:ca:81:ec:7c:
                    72:55:91:18:75:46:fd:21:23:5d:c4:f8:3e:26:e4:
                    85:59:50:1d:27:14:5e:e4:94:45:cf:fe:db:dd:0d:
                    1e:16:14:40:b2:06:2c:0b:d7:1b:d9:53:6a:1b:0d:
                    0c:a6:32:47:5d:5b:a3:6b:eb:26:35:e5:69:2d:39:
                    24:67:af:ff:e2:cf:2c:04:ea:c3:9c:1c:fb:14:58:
                    de:ec:99:71:22:c7:82:7f:53:9e:a1:b3:98:de:e8:
                    28:36:d1:b6:95:65:dc:be:8c:bc:94:b0:e0:fc:d1:
                    a4:19:bf:1d:bc:44:ba:97:80:89:cc:c9:1b:92:3b:
                    27:91:2e:36:6c:7f:12:50:c7:68:be:65:35:93:23:
                    62:a4:eb:fb:a7:55:74:83:33:04:6b:0e:43:da:dc:
                    4f:b6:95:e5:40:2a:94:d3:35:84:9b:59:52:f5:28:
                    e7:ae:ca:b8:3f:79:ff:31:57:fd:79:89:4e:2d:ed:
                    35:d0:92:09:5b:10:7f:fe:8b:01:66:f4:5c:21:69:
                    90:71:b3:3a:28:77:08:b5:7a:04:17:da:b4:1d:49:
                    db:f1:8c:a4:9f:4b:12:6d:4d:8b:42:60:2a:fe:79:
                    99:8b:37:b5:36:c7:7c:1a:57:df:eb:e0:11:8e:4c:
                    72:6b:f2:b5:03:cc:98:e1:bc:c4:7c:94:98:01:c0:
                    9d:68:a2:29:62:55:bb:9e:b5:ed:96:24:57:db:fa:
                    52:ba:50:74:c4:68:4f:62:cf:ec:d1:b9:7b:54:33:
                    c3:61:56:e9:2d:97:d4:41:46:28:87:61:00:e5:fc:
                    5f:1d:06:38:38:be:61:f5:14:1f:6b:3d:f2:66:61:
                    59:88:0d:50:39:67:38:d2:87:fa:f2:86:d3:76:26:
                    0f:e8:a7:67:55:f9:bb:20:d3:ab:db:38:b3:9a:89:
                    da:db:0d:13:47:0d:3d:6c:e9:e2:d7:58:2e:97:85:
                    e8:ae:25:ad:b9:95:0d:12:fb:28:4c:3f:13:a7:6e:
                    2a:48:98:64:d4:26:b6:f1:5a:05:60:e7:5a:23:13:
                    54:1b:a4:6d:5f:08:5b:96:bd:dd:f7:35:ef:5b:16:
                    54:cd:59:2c:c5:64:e5:cc:a1:3c:1c:e6:98:bb:2b:
                    8d:d5:6e:0c:f0:56:c2:97:13:62:0b:40:23:92:b5:
                    e2:04:1e:a9:c6:e6:59:14:52:8f:16:e4:53:12:a2:
                    7a:4d:61
                Exponent: 65537 (0x10001)
        X509v3 extensions:
            X509v3 Basic Constraints: 
                CA:FALSE
            Netscape Comment: 
                Easy-RSA Generated Certificate
            X509v3 Subject Key Identifier: 
                E3:74:CC:23:76:52:30:C7:0B:AC:CE:75:1C:9E:7C:34:1A:E9:EF:E5
            X509v3 Authority Key Identifier: 
                keyid:EF:38:8D:14:50:58:A7:5B:4D:9C:17:72:FC:DF:B9:AC:A7:51:B0:10
                DirName:/C=US/ST=CA/L=SanFrancisco/O=Pixglo, Inc./OU=VPN-CIE/CN=tunnel.pixglo.com/name=Bala Chandrasekaran/emailAddress=bala@pixglo.com
                serial:A6:DB:C6:83:80:E6:A0:79

            X509v3 Extended Key Usage: 
                TLS Web Client Authentication
            X509v3 Key Usage: 
                Digital Signature
    Signature Algorithm: sha1WithRSAEncryption
         ce:3b:be:a2:54:31:c3:08:d7:74:97:23:9b:3f:ea:f8:79:6e:
         1f:cb:71:3c:73:3b:fd:50:16:07:e6:28:e8:a7:93:d1:55:04:
         5c:d9:5b:5c:d2:df:c4:87:82:da:d3:1a:91:7d:c4:cf:c1:f6:
         4b:8f:44:45:a1:21:1f:e3:ff:30:00:35:21:e8:f1:2b:41:8d:
         a3:fd:3e:45:b5:b1:89:1a:60:a5:f7:b1:32:dd:ab:31:b7:fa:
         2d:e9:b5:2d:be:83:2b:f6:de:46:d8:25:8f:10:49:ff:0d:96:
         f1:8f:1a:62:0e:f2:e0:7f:04:db:a0:a0:c0:bd:2b:5a:f2:18:
         e5:cd:54:fb:12:0e:46:4e:0d:14:00:03:66:ba:84:c9:23:28:
         39:76:ac:12:71:89:63:df:e8:58:92:d4:5c:62:a6:3d:38:7b:
         76:e3:f8:9c:ca:42:d4:2a:d1:28:f9:9b:24:17:30:87:98:fd:
         14:fb:25:42:c7:24:e7:fb:d6:0e:4f:d5:2a:da:58:68:73:37:
         9e:fb:57:91:79:1a:fe:e8:2c:65:3d:97:f8:84:14:bd:ba:02:
         34:e1:ae:41:a6:b3:b7:c6:df:ce:5f:a1:e9:99:00:f5:f8:a2:
         25:e4:e3:07:e7:45:98:26:9d:04:43:66:21:df:a2:0e:61:e1:
         9c:02:68:4c:a9:44:b2:06:a7:73:e5:62:93:35:fa:93:ed:e7:
         80:a3:cb:e7:48:c9:ed:a7:09:35:8f:6d:6d:6f:cd:69:8a:0f:
         45:88:95:73:dc:92:59:67:fe:e5:89:28:6d:44:54:ae:e5:e4:
         bc:78:3a:f5:38:21:1d:2f:f0:80:37:43:1c:16:06:78:1d:c9:
         f1:1e:3b:85:3b:15:b9:bb:9d:3e:fb:83:3f:64:4c:07:19:80:
         70:3e:59:95:86:75:fc:aa:16:c9:27:f5:86:6c:9e:21:7e:58:
         e5:33:33:c0:c7:47:f7:c1:a4:8b:df:ab:38:bc:c9:6c:57:a9:
         d0:67:e5:df:da:da:78:56:a2:c3:a1:bf:a3:b7:b3:af:6c:86:
         5f:53:f1:da:28:9a:95:34:13:29:6b:3b:7e:29:43:5b:2d:f5:
         87:7a:fd:5b:de:38:d5:01:74:0f:b8:8e:32:c4:d6:7b:ca:2f:
         5d:42:d1:d2:03:c4:3b:16:63:de:27:61:8e:be:cc:b6:cc:27:
         3d:a0:1e:e3:21:ca:d3:d2:a4:cd:61:a5:c0:d4:57:5e:19:ff:
         52:d2:7b:20:d9:a9:3f:36:88:b8:b9:42:58:ec:e1:29:c4:7b:
         f8:6d:2b:76:8b:a6:40:d9:35:ab:40:dd:80:36:49:de:41:4b:
         46:f7:d1:cc:bd:28:43:94
-----BEGIN CERTIFICATE-----
MIIHRjCCBS6gAwIBAgIBTzANBgkqhkiG9w0BAQUFADCBtDELMAkGA1UEBhMCVVMx
CzAJBgNVBAgTAkNBMRUwEwYDVQQHEwxTYW5GcmFuY2lzY28xFTATBgNVBAoTDFBp
eGdsbywgSW5jLjEQMA4GA1UECxMHVlBOLUNJRTEaMBgGA1UEAxMRdHVubmVsLnBp
eGdsby5jb20xHDAaBgNVBCkTE0JhbGEgQ2hhbmRyYXNla2FyYW4xHjAcBgkqhkiG
9w0BCQEWD2JhbGFAcGl4Z2xvLmNvbTAeFw0xODAyMTQwNjI1MThaFw0yODAyMTIw
NjI1MThaMIGoMQswCQYDVQQGEwJVUzELMAkGA1UECBMCQ0ExFTATBgNVBAcTDFNh
bkZyYW5jaXNjbzEVMBMGA1UEChMMUGl4Z2xvLCBJbmMuMRAwDgYDVQQLEwdWUE4t
Q0lFMQ4wDAYDVQQDEwVjaWU3ODEcMBoGA1UEKRMTQmFsYSBDaGFuZHJhc2VrYXJh
bjEeMBwGCSqGSIb3DQEJARYPYmFsYUBwaXhnbG8uY29tMIICIjANBgkqhkiG9w0B
AQEFAAOCAg8AMIICCgKCAgEAtWSPZSd6xJ4RP+1PBPUjI1nV4DYeGkpI9DshpDHK
Pbx2YYMwsb7+CphjUtg8KcuVJZACd5O39cqB7HxyVZEYdUb9ISNdxPg+JuSFWVAd
JxRe5JRFz/7b3Q0eFhRAsgYsC9cb2VNqGw0MpjJHXVuja+smNeVpLTkkZ6//4s8s
BOrDnBz7FFje7JlxIseCf1OeobOY3ugoNtG2lWXcvoy8lLDg/NGkGb8dvES6l4CJ
zMkbkjsnkS42bH8SUMdovmU1kyNipOv7p1V0gzMEaw5D2txPtpXlQCqU0zWEm1lS
9Sjnrsq4P3n/MVf9eYlOLe010JIJWxB//osBZvRcIWmQcbM6KHcItXoEF9q0HUnb
8Yykn0sSbU2LQmAq/nmZize1Nsd8Glff6+ARjkxya/K1A8yY4bzEfJSYAcCdaKIp
YlW7nrXtliRX2/pSulB0xGhPYs/s0bl7VDPDYVbpLZfUQUYoh2EA5fxfHQY4OL5h
9RQfaz3yZmFZiA1QOWc40of68obTdiYP6KdnVfm7INOr2zizmona2w0TRw09bOni
11gul4XoriWtuZUNEvsoTD8Tp24qSJhk1Ca28VoFYOdaIxNUG6RtXwhblr3d9zXv
WxZUzVksxWTlzKE8HOaYuyuN1W4M8FbClxNiC0AjkrXiBB6pxuZZFFKPFuRTEqJ6
TWECAwEAAaOCAWswggFnMAkGA1UdEwQCMAAwLQYJYIZIAYb4QgENBCAWHkVhc3kt
UlNBIEdlbmVyYXRlZCBDZXJ0aWZpY2F0ZTAdBgNVHQ4EFgQU43TMI3ZSMMcLrM51
HJ58NBrp7+UwgekGA1UdIwSB4TCB3oAU7ziNFFBYp1tNnBdy/N+5rKdRsBChgbqk
gbcwgbQxCzAJBgNVBAYTAlVTMQswCQYDVQQIEwJDQTEVMBMGA1UEBxMMU2FuRnJh
bmNpc2NvMRUwEwYDVQQKEwxQaXhnbG8sIEluYy4xEDAOBgNVBAsTB1ZQTi1DSUUx
GjAYBgNVBAMTEXR1bm5lbC5waXhnbG8uY29tMRwwGgYDVQQpExNCYWxhIENoYW5k
cmFzZWthcmFuMR4wHAYJKoZIhvcNAQkBFg9iYWxhQHBpeGdsby5jb22CCQCm28aD
gOageTATBgNVHSUEDDAKBggrBgEFBQcDAjALBgNVHQ8EBAMCB4AwDQYJKoZIhvcN
AQEFBQADggIBAM47vqJUMcMI13SXI5s/6vh5bh/LcTxzO/1QFgfmKOink9FVBFzZ
W1zS38SHgtrTGpF9xM/B9kuPREWhIR/j/zAANSHo8StBjaP9PkW1sYkaYKX3sTLd
qzG3+i3ptS2+gyv23kbYJY8QSf8NlvGPGmIO8uB/BNugoMC9K1ryGOXNVPsSDkZO
DRQAA2a6hMkjKDl2rBJxiWPf6FiS1Fxipj04e3bj+JzKQtQq0Sj5myQXMIeY/RT7
JULHJOf71g5P1SraWGhzN577V5F5Gv7oLGU9l/iEFL26AjThrkGms7fG385foemZ
APX4oiXk4wfnRZgmnQRDZiHfog5h4ZwCaEypRLIGp3PlYpM1+pPt54Cjy+dIye2n
CTWPbW1vzWmKD0WIlXPcklln/uWJKG1EVK7l5Lx4OvU4IR0v8IA3QxwWBngdyfEe
O4U7Fbm7nT77gz9kTAcZgHA+WZWGdfyqFskn9YZsniF+WOUzM8DHR/fBpIvfqzi8
yWxXqdBn5d/a2nhWosOhv6O3s69shl9T8doompU0EylrO34pQ1st9Yd6/VveONUB
dA+4jjLE1nvKL11C0dIDxDsWY94nYY6+zLbMJz2gHuMhytPSpM1hpcDUV14Z/1LS
eyDZqT82iLi5Qljs4SnEe/htK3aLpkDZNatA3YA2Sd5BS0b30cy9KEOU
-----END CERTIFICATE-----
