Certificate:
    Data:
        Version: 3 (0x2)
        Serial Number: 82 (0x52)
    Signature Algorithm: sha1WithRSAEncryption
        Issuer: C=US, ST=CA, L=SanFrancisco, O=Pixglo, Inc., OU=VPN-CIE, CN=tunnel.pixglo.com/name=Bala Chandrasekaran/emailAddress=bala@pixglo.com
        Validity
            Not Before: Feb 14 06:25:20 2018 GMT
            Not After : Feb 12 06:25:20 2028 GMT
        Subject: C=US, ST=CA, L=SanFrancisco, O=Pixglo, Inc., OU=VPN-CIE, CN=cie81/name=Bala Chandrasekaran/emailAddress=bala@pixglo.com
        Subject Public Key Info:
            Public Key Algorithm: rsaEncryption
                Public-Key: (4096 bit)
                Modulus:
                    00:94:f1:11:ef:c7:97:a3:5d:14:fa:a0:55:d2:53:
                    9d:e2:8b:46:d1:99:19:d3:ac:71:6d:1d:44:3f:8a:
                    e0:b7:89:62:73:93:13:e0:0f:62:14:4c:6b:13:d1:
                    28:e5:21:ad:ba:82:90:b7:04:23:67:17:c7:a0:56:
                    9a:9d:bb:23:8a:68:b1:ac:77:46:47:71:7c:dd:3c:
                    6f:e1:e6:65:07:38:c7:98:22:e2:f5:ee:a3:99:f0:
                    08:66:42:15:ff:e2:09:6e:e5:8a:86:04:2c:50:85:
                    84:94:a5:8e:0c:31:78:54:2c:e6:ca:1a:59:9a:49:
                    1b:cb:82:b5:e1:25:76:61:c9:ab:3c:13:6f:e1:e2:
                    6d:6e:c4:1e:77:e6:d6:a1:5e:01:fb:df:64:79:2b:
                    25:3f:06:5e:d6:49:22:6e:8d:b7:e5:c3:00:ac:e2:
                    55:4f:3d:99:14:20:12:66:93:29:62:79:2b:04:57:
                    06:60:54:20:39:1f:39:a9:98:1e:7a:5f:7f:2e:b6:
                    68:b9:7d:90:e7:4a:20:c5:e7:a1:e8:a0:44:59:b0:
                    b9:2f:8b:6f:56:fe:9d:6e:72:46:b9:8d:86:28:50:
                    c3:92:c5:1d:83:af:1a:97:b3:95:d7:a9:22:70:c6:
                    ef:ae:c0:ea:05:c1:5d:a2:84:89:79:c0:2e:70:72:
                    13:f8:ec:ae:61:c0:bc:06:87:40:18:5c:b4:52:06:
                    7a:55:00:72:5c:6b:3d:c2:3b:8e:7b:3c:e5:25:03:
                    a5:3c:ef:99:7c:bf:2e:e9:d8:f1:e9:d4:f6:3a:6a:
                    b6:b2:37:13:a1:f3:4c:aa:bf:02:82:ee:45:a1:6a:
                    a3:60:96:6f:8e:f0:02:bf:f3:6e:5b:9c:1e:34:d8:
                    0d:49:4c:ce:c2:63:4e:fa:1b:13:d7:6c:cd:32:85:
                    3e:ee:ec:a4:83:94:9b:91:fa:15:31:29:d3:4f:c1:
                    db:fb:29:6a:b1:99:81:3e:87:b4:75:98:d5:24:ac:
                    33:9a:61:ee:98:a0:c6:a4:36:8f:46:6d:18:1e:92:
                    78:e0:e0:31:a7:ea:11:a4:5e:c8:3d:18:5c:e6:e3:
                    5a:c8:7a:cf:2c:fc:91:7c:6b:ac:91:99:19:73:7f:
                    6b:0b:28:c2:37:c4:55:d3:65:24:3f:83:11:cf:73:
                    94:5e:42:44:71:2f:40:77:c2:ca:ef:fd:08:a0:74:
                    61:24:36:9d:07:8c:0f:82:26:bf:5a:ff:b8:a1:fb:
                    5b:60:bb:18:d0:49:d9:56:e0:b5:4f:15:c5:6e:75:
                    7f:78:5f:9d:c5:88:ec:b7:4f:db:7d:ff:d8:ec:8c:
                    16:39:bf:28:23:09:de:44:5e:c4:45:8e:f6:4a:3c:
                    0c:70:a3
                Exponent: 65537 (0x10001)
        X509v3 extensions:
            X509v3 Basic Constraints: 
                CA:FALSE
            Netscape Comment: 
                Easy-RSA Generated Certificate
            X509v3 Subject Key Identifier: 
                CF:EA:1B:1F:5C:45:F1:8C:0B:C0:2B:91:EA:F9:45:2F:E6:D1:4E:D7
            X509v3 Authority Key Identifier: 
                keyid:EF:38:8D:14:50:58:A7:5B:4D:9C:17:72:FC:DF:B9:AC:A7:51:B0:10
                DirName:/C=US/ST=CA/L=SanFrancisco/O=Pixglo, Inc./OU=VPN-CIE/CN=tunnel.pixglo.com/name=Bala Chandrasekaran/emailAddress=bala@pixglo.com
                serial:A6:DB:C6:83:80:E6:A0:79

            X509v3 Extended Key Usage: 
                TLS Web Client Authentication
            X509v3 Key Usage: 
                Digital Signature
    Signature Algorithm: sha1WithRSAEncryption
         63:70:2f:72:26:7b:53:13:89:f8:e6:48:c6:5c:ca:e4:bc:52:
         a5:91:52:46:d2:d4:7f:c5:ea:b9:1a:aa:ac:45:1c:27:0f:70:
         d8:74:69:f7:97:b9:40:4e:1a:70:e1:b2:13:35:3f:f8:1c:5e:
         bf:35:4a:4d:ed:06:9e:43:70:14:40:1d:eb:88:8c:b5:bb:a9:
         10:c5:32:3b:8a:d4:f2:77:37:a9:56:3c:c2:d9:14:01:b7:ef:
         9b:f8:11:e6:39:ad:cb:27:e1:71:49:0d:3f:32:8c:ab:e0:e9:
         82:69:36:88:45:7c:d2:db:7e:d8:81:18:39:b0:85:97:6e:96:
         4a:ad:25:d4:e7:e1:2a:d9:56:92:08:1b:ce:c6:14:e7:2f:e6:
         33:ff:12:2d:5d:e1:37:57:f9:65:e8:d2:c5:a2:00:6a:3d:c6:
         67:0c:e0:64:1c:d9:15:1e:05:1f:3a:6c:25:4e:cc:f7:42:04:
         6a:3e:2c:42:a5:99:2a:e4:6b:36:ab:21:71:e4:4e:78:c4:e9:
         5c:fc:16:48:8d:cf:f8:f9:87:da:ce:1c:04:5d:33:a2:ed:b2:
         61:1f:eb:6a:3e:13:ee:13:cb:b7:e9:19:75:43:99:b7:12:79:
         6c:e9:ec:db:b3:b0:59:bc:00:ac:80:63:2e:54:b0:5b:7e:1a:
         dd:6e:d9:e0:ff:de:f9:1e:92:d5:60:67:fd:d4:36:d2:88:fe:
         ce:ec:50:8d:49:7d:a3:5b:ed:49:e8:6b:5d:5a:8e:d1:2b:fb:
         db:37:f9:14:15:f7:f3:25:dc:3f:58:1b:67:5f:f8:fd:46:c6:
         48:8b:dc:0f:ee:03:b8:0d:95:14:b4:71:f1:e1:25:82:79:0f:
         36:ae:f0:4b:f1:3f:ca:a7:ab:cc:72:d0:d3:79:d6:f0:78:29:
         f5:16:f3:5b:b3:23:67:87:0d:e0:ab:6b:3d:e9:0a:77:c1:e8:
         b4:aa:89:d0:62:1b:37:2b:b2:82:de:e0:9f:45:31:bd:11:a8:
         d1:1d:5e:f1:88:39:55:67:bc:fb:10:0e:90:05:a0:67:4c:c3:
         72:d2:ba:e1:20:fa:55:1a:46:47:27:86:a9:21:9f:bc:c2:b2:
         8a:ad:ce:a8:9e:ac:7b:09:82:ac:df:52:31:6d:6b:0d:b3:35:
         bd:41:c5:61:bc:88:f9:cf:4b:86:bf:e9:d3:38:a3:a9:8b:b2:
         2e:65:4d:ca:43:69:50:e9:fb:0e:c6:e9:87:3e:81:9a:b8:06:
         5a:c7:ac:52:b3:a7:61:8d:66:17:2e:c8:35:29:a7:e5:e5:b1:
         d5:67:2e:2b:de:a4:e8:99:17:56:54:a2:ad:51:2c:76:11:e7:
         87:00:15:bc:e4:bb:ed:ad
-----BEGIN CERTIFICATE-----
MIIHRjCCBS6gAwIBAgIBUjANBgkqhkiG9w0BAQUFADCBtDELMAkGA1UEBhMCVVMx
CzAJBgNVBAgTAkNBMRUwEwYDVQQHEwxTYW5GcmFuY2lzY28xFTATBgNVBAoTDFBp
eGdsbywgSW5jLjEQMA4GA1UECxMHVlBOLUNJRTEaMBgGA1UEAxMRdHVubmVsLnBp
eGdsby5jb20xHDAaBgNVBCkTE0JhbGEgQ2hhbmRyYXNla2FyYW4xHjAcBgkqhkiG
9w0BCQEWD2JhbGFAcGl4Z2xvLmNvbTAeFw0xODAyMTQwNjI1MjBaFw0yODAyMTIw
NjI1MjBaMIGoMQswCQYDVQQGEwJVUzELMAkGA1UECBMCQ0ExFTATBgNVBAcTDFNh
bkZyYW5jaXNjbzEVMBMGA1UEChMMUGl4Z2xvLCBJbmMuMRAwDgYDVQQLEwdWUE4t
Q0lFMQ4wDAYDVQQDEwVjaWU4MTEcMBoGA1UEKRMTQmFsYSBDaGFuZHJhc2VrYXJh
bjEeMBwGCSqGSIb3DQEJARYPYmFsYUBwaXhnbG8uY29tMIICIjANBgkqhkiG9w0B
AQEFAAOCAg8AMIICCgKCAgEAlPER78eXo10U+qBV0lOd4otG0ZkZ06xxbR1EP4rg
t4lic5MT4A9iFExrE9Eo5SGtuoKQtwQjZxfHoFaanbsjimixrHdGR3F83Txv4eZl
BzjHmCLi9e6jmfAIZkIV/+IJbuWKhgQsUIWElKWODDF4VCzmyhpZmkkby4K14SV2
YcmrPBNv4eJtbsQed+bWoV4B+99keSslPwZe1kkibo235cMArOJVTz2ZFCASZpMp
YnkrBFcGYFQgOR85qZgeel9/LrZouX2Q50ogxeeh6KBEWbC5L4tvVv6dbnJGuY2G
KFDDksUdg68al7OV16kicMbvrsDqBcFdooSJecAucHIT+OyuYcC8BodAGFy0UgZ6
VQByXGs9wjuOezzlJQOlPO+ZfL8u6djx6dT2Omq2sjcTofNMqr8Cgu5FoWqjYJZv
jvACv/NuW5weNNgNSUzOwmNO+hsT12zNMoU+7uykg5SbkfoVMSnTT8Hb+ylqsZmB
Poe0dZjVJKwzmmHumKDGpDaPRm0YHpJ44OAxp+oRpF7IPRhc5uNayHrPLPyRfGus
kZkZc39rCyjCN8RV02UkP4MRz3OUXkJEcS9Ad8LK7/0IoHRhJDadB4wPgia/Wv+4
oftbYLsY0EnZVuC1TxXFbnV/eF+dxYjst0/bff/Y7IwWOb8oIwneRF7ERY72SjwM
cKMCAwEAAaOCAWswggFnMAkGA1UdEwQCMAAwLQYJYIZIAYb4QgENBCAWHkVhc3kt
UlNBIEdlbmVyYXRlZCBDZXJ0aWZpY2F0ZTAdBgNVHQ4EFgQUz+obH1xF8YwLwCuR
6vlFL+bRTtcwgekGA1UdIwSB4TCB3oAU7ziNFFBYp1tNnBdy/N+5rKdRsBChgbqk
gbcwgbQxCzAJBgNVBAYTAlVTMQswCQYDVQQIEwJDQTEVMBMGA1UEBxMMU2FuRnJh
bmNpc2NvMRUwEwYDVQQKEwxQaXhnbG8sIEluYy4xEDAOBgNVBAsTB1ZQTi1DSUUx
GjAYBgNVBAMTEXR1bm5lbC5waXhnbG8uY29tMRwwGgYDVQQpExNCYWxhIENoYW5k
cmFzZWthcmFuMR4wHAYJKoZIhvcNAQkBFg9iYWxhQHBpeGdsby5jb22CCQCm28aD
gOageTATBgNVHSUEDDAKBggrBgEFBQcDAjALBgNVHQ8EBAMCB4AwDQYJKoZIhvcN
AQEFBQADggIBAGNwL3Ime1MTifjmSMZcyuS8UqWRUkbS1H/F6rkaqqxFHCcPcNh0
afeXuUBOGnDhshM1P/gcXr81Sk3tBp5DcBRAHeuIjLW7qRDFMjuK1PJ3N6lWPMLZ
FAG375v4EeY5rcsn4XFJDT8yjKvg6YJpNohFfNLbftiBGDmwhZdulkqtJdTn4SrZ
VpIIG87GFOcv5jP/Ei1d4TdX+WXo0sWiAGo9xmcM4GQc2RUeBR86bCVOzPdCBGo+
LEKlmSrkazarIXHkTnjE6Vz8FkiNz/j5h9rOHARdM6LtsmEf62o+E+4Ty7fpGXVD
mbcSeWzp7NuzsFm8AKyAYy5UsFt+Gt1u2eD/3vkektVgZ/3UNtKI/s7sUI1JfaNb
7Unoa11ajtEr+9s3+RQV9/Ml3D9YG2df+P1GxkiL3A/uA7gNlRS0cfHhJYJ5Dzau
8EvxP8qnq8xy0NN51vB4KfUW81uzI2eHDeCraz3pCnfB6LSqidBiGzcrsoLe4J9F
Mb0RqNEdXvGIOVVnvPsQDpAFoGdMw3LSuuEg+lUaRkcnhqkhn7zCsoqtzqierHsJ
gqzfUjFtaw2zNb1BxWG8iPnPS4a/6dM4o6mLsi5lTcpDaVDp+w7G6Yc+gZq4BlrH
rFKzp2GNZhcuyDUpp+XlsdVnLivepOiZF1ZUoq1RLHYR54cAFbzku+2t
-----END CERTIFICATE-----
