Certificate:
    Data:
        Version: 3 (0x2)
        Serial Number: 83 (0x53)
    Signature Algorithm: sha1WithRSAEncryption
        Issuer: C=US, ST=CA, L=SanFrancisco, O=Pixglo, Inc., OU=VPN-CIE, CN=tunnel.pixglo.com/name=Bala Chandrasekaran/emailAddress=bala@pixglo.com
        Validity
            Not Before: Feb 14 06:25:22 2018 GMT
            Not After : Feb 12 06:25:22 2028 GMT
        Subject: C=US, ST=CA, L=SanFrancisco, O=Pixglo, Inc., OU=VPN-CIE, CN=cie82/name=Bala Chandrasekaran/emailAddress=bala@pixglo.com
        Subject Public Key Info:
            Public Key Algorithm: rsaEncryption
                Public-Key: (4096 bit)
                Modulus:
                    00:aa:69:7b:71:2a:ad:ac:35:61:1a:d0:17:c8:94:
                    1d:8b:41:84:0c:d5:37:62:5e:93:65:88:b9:52:ba:
                    1e:e3:7b:c7:59:af:80:49:ee:e1:78:40:78:c5:e5:
                    97:25:05:41:59:de:14:ba:17:94:88:2a:32:29:f8:
                    ef:cc:f1:c0:35:18:c2:fe:cb:1a:16:b3:50:63:2f:
                    64:d6:e9:bd:8d:f9:e3:d6:47:56:1e:3b:87:6a:62:
                    19:10:a6:24:bc:80:f8:5d:da:13:34:50:a0:ef:04:
                    4b:98:53:1a:d3:3f:b3:d1:af:7b:21:59:cd:59:c7:
                    a9:68:ba:e2:03:14:10:80:ad:8c:d6:5d:b6:1b:e0:
                    3e:df:ca:01:13:b1:15:85:38:a6:cb:d2:c2:ec:79:
                    65:c9:f6:2f:37:b4:bc:d5:3f:17:97:66:70:16:86:
                    3f:d4:c2:81:41:cd:b9:19:e0:3c:17:3d:b5:09:d9:
                    cb:90:02:71:b3:f0:7d:96:1b:f4:18:20:01:11:6f:
                    0c:c2:b1:ce:69:c3:f0:7e:00:c1:de:5c:d9:4e:c2:
                    e8:18:d3:1a:e7:9a:90:7b:d3:18:3e:88:78:44:03:
                    c2:99:2b:23:25:84:08:25:cd:0b:3e:c5:74:40:00:
                    30:b5:f0:f3:34:10:2c:36:4a:32:30:5d:e5:25:63:
                    e2:82:e3:d1:48:97:6c:8d:0d:d4:42:91:c0:39:f5:
                    24:40:20:bb:44:72:0c:6d:a2:00:df:f2:d3:da:6d:
                    b5:83:96:d2:11:f0:58:14:1f:8b:c1:97:d3:12:28:
                    34:0c:48:88:9c:d2:5e:ed:d0:0b:36:fa:8c:7d:11:
                    61:28:26:d4:64:b4:06:c2:42:2e:5b:09:9b:c0:99:
                    a4:ce:35:05:af:ff:0e:d3:71:c2:79:92:80:82:21:
                    44:30:a8:cf:a9:1b:bd:54:95:31:df:83:74:28:20:
                    46:be:15:e4:f4:df:70:4f:8b:ec:72:0f:a4:b1:c2:
                    75:75:14:8f:a8:20:91:ee:56:68:13:03:69:f6:02:
                    cd:7a:33:b2:77:a3:6d:b1:e3:cb:64:77:ce:67:06:
                    3a:cb:3d:39:cb:9e:ea:6b:d7:49:8b:5b:9c:ca:45:
                    f4:83:6e:05:f4:7d:55:85:68:02:a6:7c:b2:f2:fe:
                    4c:9d:d6:00:c7:77:a4:1f:71:cd:ac:fa:f3:49:a0:
                    ec:37:63:16:ec:af:90:7c:27:2a:76:76:e0:4f:c3:
                    d6:25:7f:d7:37:3d:8a:32:c6:1b:36:63:e9:9c:f4:
                    04:6e:23:61:69:d2:df:47:5d:44:cf:5b:9d:3a:01:
                    0c:f5:97:b2:13:00:8c:bb:e3:6a:18:41:7b:8b:2c:
                    c9:c4:2b
                Exponent: 65537 (0x10001)
        X509v3 extensions:
            X509v3 Basic Constraints: 
                CA:FALSE
            Netscape Comment: 
                Easy-RSA Generated Certificate
            X509v3 Subject Key Identifier: 
                05:28:B3:88:A1:27:36:7E:E2:81:93:D1:26:BE:A9:BA:23:B6:51:80
            X509v3 Authority Key Identifier: 
                keyid:EF:38:8D:14:50:58:A7:5B:4D:9C:17:72:FC:DF:B9:AC:A7:51:B0:10
                DirName:/C=US/ST=CA/L=SanFrancisco/O=Pixglo, Inc./OU=VPN-CIE/CN=tunnel.pixglo.com/name=Bala Chandrasekaran/emailAddress=bala@pixglo.com
                serial:A6:DB:C6:83:80:E6:A0:79

            X509v3 Extended Key Usage: 
                TLS Web Client Authentication
            X509v3 Key Usage: 
                Digital Signature
    Signature Algorithm: sha1WithRSAEncryption
         2a:00:02:a5:22:30:e0:d0:ab:e1:ce:74:51:ef:5e:31:2e:68:
         bc:f7:92:9f:24:6f:f2:9e:bf:36:37:1d:1f:b5:f3:52:26:87:
         30:8d:4a:13:00:64:cc:b5:41:a1:a7:b8:4e:09:74:b0:40:a3:
         ea:66:f4:9d:6e:5d:6b:b7:c9:5e:75:2e:88:9e:eb:75:5a:70:
         09:58:2c:8e:6e:be:5c:ec:bb:c1:00:4d:3a:42:5f:6d:75:a7:
         ec:6b:c0:da:ba:ba:ec:35:3e:1a:39:dc:6e:63:c2:72:f5:20:
         6f:7b:47:af:cd:b4:c0:a6:15:9e:79:05:8d:6a:0a:a4:22:f6:
         0c:55:f2:5f:64:3f:f9:a1:db:ef:35:4b:c6:25:93:53:80:b0:
         cc:78:d2:55:42:d5:83:33:84:56:89:2d:9d:92:88:37:74:e6:
         74:73:62:8c:60:b7:2b:60:34:4b:32:3d:c3:e4:bd:85:78:25:
         63:9a:e6:34:82:22:a1:35:ac:35:47:b0:1d:46:96:72:6b:0b:
         d9:b5:2f:ad:74:e7:20:1c:64:a5:6f:b2:96:95:cb:48:9e:45:
         6e:78:a9:13:08:f1:27:9a:4d:c3:18:80:32:e1:66:77:3f:7b:
         bf:4d:c0:16:67:37:57:57:b6:2f:f4:22:00:c8:e2:98:77:f3:
         96:51:d9:bf:cf:da:b6:73:a7:ef:ce:40:cb:d5:a8:8f:e0:f9:
         c0:0f:be:b1:a7:75:29:50:27:bb:c4:a0:06:d5:e3:8e:55:af:
         bf:b1:65:ac:f4:fb:5b:07:2c:f4:c7:82:ec:a1:b4:c3:94:8e:
         53:67:ac:d5:a4:d6:b1:9b:85:e0:e0:a4:b8:40:c6:71:61:bc:
         5e:87:6a:f6:1a:b2:79:d2:03:ae:c9:91:f3:1a:81:67:a7:2b:
         0e:17:76:42:ed:e7:e2:28:1f:55:af:02:58:79:8c:e4:7a:24:
         ed:15:0d:93:4b:56:d1:b0:85:87:dc:78:70:3e:ed:db:2a:b7:
         81:c5:8c:52:18:78:67:e5:a2:fa:1a:c9:d6:fc:8d:3f:52:80:
         cd:18:ed:73:99:e6:f1:a9:0f:80:fa:7e:e2:d7:32:0a:a6:87:
         bd:e3:11:1e:b5:53:f2:95:44:0d:a8:33:c6:c5:2c:69:79:75:
         35:ac:ac:1c:11:27:fa:e3:20:b6:34:1d:5b:4f:33:5e:31:be:
         39:1b:62:89:47:49:c9:f1:34:93:17:67:cc:86:83:c2:ce:af:
         e0:de:54:dc:f8:86:e1:f6:f7:7f:58:e8:b0:a7:c9:5c:28:b7:
         c2:7b:db:65:cd:8f:00:55:40:f4:64:e3:35:e9:60:dd:6d:e8:
         d4:da:47:2d:bc:db:99:a8
-----BEGIN CERTIFICATE-----
MIIHRjCCBS6gAwIBAgIBUzANBgkqhkiG9w0BAQUFADCBtDELMAkGA1UEBhMCVVMx
CzAJBgNVBAgTAkNBMRUwEwYDVQQHEwxTYW5GcmFuY2lzY28xFTATBgNVBAoTDFBp
eGdsbywgSW5jLjEQMA4GA1UECxMHVlBOLUNJRTEaMBgGA1UEAxMRdHVubmVsLnBp
eGdsby5jb20xHDAaBgNVBCkTE0JhbGEgQ2hhbmRyYXNla2FyYW4xHjAcBgkqhkiG
9w0BCQEWD2JhbGFAcGl4Z2xvLmNvbTAeFw0xODAyMTQwNjI1MjJaFw0yODAyMTIw
NjI1MjJaMIGoMQswCQYDVQQGEwJVUzELMAkGA1UECBMCQ0ExFTATBgNVBAcTDFNh
bkZyYW5jaXNjbzEVMBMGA1UEChMMUGl4Z2xvLCBJbmMuMRAwDgYDVQQLEwdWUE4t
Q0lFMQ4wDAYDVQQDEwVjaWU4MjEcMBoGA1UEKRMTQmFsYSBDaGFuZHJhc2VrYXJh
bjEeMBwGCSqGSIb3DQEJARYPYmFsYUBwaXhnbG8uY29tMIICIjANBgkqhkiG9w0B
AQEFAAOCAg8AMIICCgKCAgEAqml7cSqtrDVhGtAXyJQdi0GEDNU3Yl6TZYi5Uroe
43vHWa+ASe7heEB4xeWXJQVBWd4UuheUiCoyKfjvzPHANRjC/ssaFrNQYy9k1um9
jfnj1kdWHjuHamIZEKYkvID4XdoTNFCg7wRLmFMa0z+z0a97IVnNWcepaLriAxQQ
gK2M1l22G+A+38oBE7EVhTimy9LC7HllyfYvN7S81T8Xl2ZwFoY/1MKBQc25GeA8
Fz21CdnLkAJxs/B9lhv0GCABEW8MwrHOacPwfgDB3lzZTsLoGNMa55qQe9MYPoh4
RAPCmSsjJYQIJc0LPsV0QAAwtfDzNBAsNkoyMF3lJWPiguPRSJdsjQ3UQpHAOfUk
QCC7RHIMbaIA3/LT2m21g5bSEfBYFB+LwZfTEig0DEiInNJe7dALNvqMfRFhKCbU
ZLQGwkIuWwmbwJmkzjUFr/8O03HCeZKAgiFEMKjPqRu9VJUx34N0KCBGvhXk9N9w
T4vscg+kscJ1dRSPqCCR7lZoEwNp9gLNejOyd6NtsePLZHfOZwY6yz05y57qa9dJ
i1ucykX0g24F9H1VhWgCpnyy8v5MndYAx3ekH3HNrPrzSaDsN2MW7K+QfCcqdnbg
T8PWJX/XNz2KMsYbNmPpnPQEbiNhadLfR11Ez1udOgEM9ZeyEwCMu+NqGEF7iyzJ
xCsCAwEAAaOCAWswggFnMAkGA1UdEwQCMAAwLQYJYIZIAYb4QgENBCAWHkVhc3kt
UlNBIEdlbmVyYXRlZCBDZXJ0aWZpY2F0ZTAdBgNVHQ4EFgQUBSiziKEnNn7igZPR
Jr6puiO2UYAwgekGA1UdIwSB4TCB3oAU7ziNFFBYp1tNnBdy/N+5rKdRsBChgbqk
gbcwgbQxCzAJBgNVBAYTAlVTMQswCQYDVQQIEwJDQTEVMBMGA1UEBxMMU2FuRnJh
bmNpc2NvMRUwEwYDVQQKEwxQaXhnbG8sIEluYy4xEDAOBgNVBAsTB1ZQTi1DSUUx
GjAYBgNVBAMTEXR1bm5lbC5waXhnbG8uY29tMRwwGgYDVQQpExNCYWxhIENoYW5k
cmFzZWthcmFuMR4wHAYJKoZIhvcNAQkBFg9iYWxhQHBpeGdsby5jb22CCQCm28aD
gOageTATBgNVHSUEDDAKBggrBgEFBQcDAjALBgNVHQ8EBAMCB4AwDQYJKoZIhvcN
AQEFBQADggIBACoAAqUiMODQq+HOdFHvXjEuaLz3kp8kb/KevzY3HR+181ImhzCN
ShMAZMy1QaGnuE4JdLBAo+pm9J1uXWu3yV51Loie63VacAlYLI5uvlzsu8EATTpC
X211p+xrwNq6uuw1Pho53G5jwnL1IG97R6/NtMCmFZ55BY1qCqQi9gxV8l9kP/mh
2+81S8Ylk1OAsMx40lVC1YMzhFaJLZ2SiDd05nRzYoxgtytgNEsyPcPkvYV4JWOa
5jSCIqE1rDVHsB1GlnJrC9m1L6105yAcZKVvspaVy0ieRW54qRMI8SeaTcMYgDLh
Znc/e79NwBZnN1dXti/0IgDI4ph385ZR2b/P2rZzp+/OQMvVqI/g+cAPvrGndSlQ
J7vEoAbV445Vr7+xZaz0+1sHLPTHguyhtMOUjlNnrNWk1rGbheDgpLhAxnFhvF6H
avYasnnSA67JkfMagWenKw4XdkLt5+IoH1WvAlh5jOR6JO0VDZNLVtGwhYfceHA+
7dsqt4HFjFIYeGflovoaydb8jT9SgM0Y7XOZ5vGpD4D6fuLXMgqmh73jER61U/KV
RA2oM8bFLGl5dTWsrBwRJ/rjILY0HVtPM14xvjkbYolHScnxNJMXZ8yGg8LOr+De
VNz4huH2939Y6LCnyVwot8J722XNjwBVQPRk4zXpYN1t6NTaRy2825mo
-----END CERTIFICATE-----
