Certificate:
    Data:
        Version: 3 (0x2)
        Serial Number: 85 (0x55)
    Signature Algorithm: sha1WithRSAEncryption
        Issuer: C=US, ST=CA, L=SanFrancisco, O=Pixglo, Inc., OU=VPN-CIE, CN=tunnel.pixglo.com/name=Bala Chandrasekaran/emailAddress=bala@pixglo.com
        Validity
            Not Before: Feb 14 06:25:24 2018 GMT
            Not After : Feb 12 06:25:24 2028 GMT
        Subject: C=US, ST=CA, L=SanFrancisco, O=Pixglo, Inc., OU=VPN-CIE, CN=cie84/name=Bala Chandrasekaran/emailAddress=bala@pixglo.com
        Subject Public Key Info:
            Public Key Algorithm: rsaEncryption
                Public-Key: (4096 bit)
                Modulus:
                    00:c3:c4:28:c8:91:96:d9:6a:4c:a8:1e:82:28:67:
                    01:1a:60:03:00:14:9f:c0:a1:80:29:97:1d:aa:cf:
                    67:2f:37:a3:cf:2a:75:26:e6:07:2f:8e:5c:87:1c:
                    24:0d:05:00:2e:9e:1b:62:ce:23:ee:c8:39:f8:c9:
                    f7:7f:f5:df:20:78:c8:d9:07:7c:98:ed:5c:7d:6e:
                    31:bc:3b:f6:60:6c:75:61:3c:23:60:50:b6:9b:89:
                    b4:ef:b9:1f:00:08:78:d0:7a:0c:03:41:98:44:66:
                    a8:95:bb:01:42:00:05:81:7f:b4:e5:33:96:f9:7f:
                    43:67:47:9b:47:72:5d:92:04:f0:c1:81:03:1b:b6:
                    f7:a2:89:2c:e8:6c:22:5d:97:79:aa:fe:e6:98:bd:
                    bc:bc:2b:d0:df:4e:f0:ab:04:0f:b9:db:5f:45:fb:
                    12:63:e9:a5:94:5d:ec:1b:d7:2b:59:4a:e0:2f:d4:
                    66:43:f4:b7:16:f1:37:8f:40:43:44:24:0c:ac:45:
                    dc:29:a3:bc:df:f1:7c:61:52:24:66:fc:16:fe:90:
                    ab:f6:c9:37:b7:ba:06:58:d7:ed:1c:bd:a1:51:46:
                    2c:5c:f7:d9:92:50:ec:73:9e:90:7b:af:8f:69:41:
                    58:77:2f:8d:c5:2f:39:34:89:5a:fa:c7:82:3b:7e:
                    8a:11:44:d2:44:0a:0f:00:97:2a:fe:c8:6c:90:db:
                    1a:8f:06:00:1c:4b:1b:c1:bd:92:04:d8:c3:60:79:
                    47:6f:6d:af:84:a4:c6:4f:d3:30:d8:ad:73:70:5b:
                    b9:52:6d:8c:82:9e:80:79:93:e7:6f:ca:78:e3:ad:
                    92:94:de:4a:51:96:03:7d:6c:66:e5:e5:cd:26:a8:
                    14:e9:49:31:78:54:56:ff:17:b3:88:31:84:f3:b7:
                    f9:c1:0b:92:02:56:97:25:c7:77:b9:ed:93:20:17:
                    9a:0c:1d:ef:0b:7d:0f:ba:92:ab:99:09:11:be:b2:
                    e1:ee:b7:23:30:fc:23:4a:a4:0b:02:db:39:35:9c:
                    96:54:dc:38:e2:a9:53:f8:4e:67:16:51:9f:ec:72:
                    cb:2f:5c:e2:67:7e:56:7d:19:92:36:3c:32:0a:7c:
                    63:ae:f4:a4:65:81:fd:b8:ca:ee:12:2b:3b:f2:54:
                    7e:bd:25:c3:fd:83:45:82:a2:cc:41:65:fc:f9:ad:
                    9e:93:ea:b2:c8:d9:9a:78:e5:41:50:84:ad:a2:a5:
                    06:56:d2:4c:5b:57:3c:6c:56:a2:54:35:57:ad:35:
                    96:7a:7d:e2:fb:6f:42:17:74:9e:8c:65:67:3a:e3:
                    45:97:3f:5d:9b:29:22:e8:a6:99:fb:67:5c:f7:13:
                    ec:96:55
                Exponent: 65537 (0x10001)
        X509v3 extensions:
            X509v3 Basic Constraints: 
                CA:FALSE
            Netscape Comment: 
                Easy-RSA Generated Certificate
            X509v3 Subject Key Identifier: 
                DC:A2:42:BD:68:5C:3B:C3:24:87:B8:36:3C:82:38:81:09:EE:BF:13
            X509v3 Authority Key Identifier: 
                keyid:EF:38:8D:14:50:58:A7:5B:4D:9C:17:72:FC:DF:B9:AC:A7:51:B0:10
                DirName:/C=US/ST=CA/L=SanFrancisco/O=Pixglo, Inc./OU=VPN-CIE/CN=tunnel.pixglo.com/name=Bala Chandrasekaran/emailAddress=bala@pixglo.com
                serial:A6:DB:C6:83:80:E6:A0:79

            X509v3 Extended Key Usage: 
                TLS Web Client Authentication
            X509v3 Key Usage: 
                Digital Signature
    Signature Algorithm: sha1WithRSAEncryption
         05:a3:06:77:ec:46:36:81:09:78:19:55:d7:86:84:f4:bc:0d:
         23:98:4c:1e:af:47:2c:eb:0f:88:a9:3f:bd:c6:b1:f8:d5:71:
         3e:ec:c3:9b:85:f9:21:ee:7b:bd:cd:8c:f4:91:53:eb:1b:e1:
         98:1b:47:5a:62:e0:6e:5a:59:c1:a7:6a:46:3b:1f:db:45:dd:
         d7:87:ac:09:0b:d6:7b:cb:5d:9e:70:99:3c:3b:b9:8d:58:1d:
         57:2f:f8:55:34:25:19:1b:6c:15:6b:3e:a1:3c:6d:a6:59:f6:
         77:24:2a:c5:cb:c8:eb:70:b3:8b:a5:b9:13:b7:c7:8a:b6:d0:
         55:0f:1d:43:4f:5a:fb:d0:fc:40:a0:d1:b5:2a:d4:c3:06:67:
         83:45:12:f5:42:6f:2a:33:34:96:2b:af:a7:ca:ea:d2:c3:6e:
         85:76:1b:e1:0c:b6:34:b8:3a:2d:41:fc:18:6f:73:26:60:bd:
         9d:d3:d4:16:63:1c:ce:ad:7b:ba:f9:77:9c:fd:aa:a8:61:30:
         31:ed:19:74:e9:fd:60:d9:91:60:8a:00:a0:22:c8:8e:04:7c:
         86:c4:5b:a5:65:23:80:ec:9c:2a:f1:a2:ce:2b:fb:be:7d:d8:
         6e:8b:f9:d9:2e:8a:31:46:9a:c5:e0:ec:44:d7:cc:e1:e7:4f:
         2e:84:f6:ad:a2:df:25:26:2f:d1:f6:24:87:8f:36:be:72:4b:
         5f:44:aa:87:49:3c:21:4e:00:7b:ff:d7:47:c5:4e:91:6a:63:
         7d:68:b7:89:39:e9:e8:d1:d6:e2:a2:88:ca:98:38:11:76:fd:
         2a:f1:be:70:99:77:a8:fe:6f:b5:8c:10:b4:30:6f:b0:1c:03:
         e0:e1:79:4d:15:1b:70:bb:c7:6d:b8:70:48:ec:2f:46:1c:6f:
         25:3d:1b:6b:44:a3:39:d1:c3:50:84:ea:8f:21:39:db:d6:7d:
         e0:30:66:6d:5b:72:8e:2b:0a:a6:47:e3:16:83:22:92:60:99:
         b1:f4:69:4e:ae:4f:6e:ac:a6:71:3e:f9:68:65:47:de:18:15:
         fa:1d:bd:f1:22:99:d1:27:05:bc:f3:24:96:f9:6c:25:c7:7a:
         46:3e:e7:fb:bd:56:c1:75:1c:70:a3:91:45:c2:a8:47:49:98:
         74:43:0d:e5:23:53:ff:64:6d:8a:c1:ab:df:18:0c:4f:4e:cb:
         9a:3d:f7:e2:3a:14:f8:ca:26:02:5c:ca:d5:2e:1f:9b:44:7e:
         07:cd:ba:7d:63:a7:be:3a:3b:c1:3d:30:cc:f2:47:e7:55:e9:
         78:90:cf:66:f5:9a:79:d3:fa:df:44:5a:b7:69:6b:c9:7e:4c:
         58:52:36:38:a5:4b:b2:ea
-----BEGIN CERTIFICATE-----
MIIHRjCCBS6gAwIBAgIBVTANBgkqhkiG9w0BAQUFADCBtDELMAkGA1UEBhMCVVMx
CzAJBgNVBAgTAkNBMRUwEwYDVQQHEwxTYW5GcmFuY2lzY28xFTATBgNVBAoTDFBp
eGdsbywgSW5jLjEQMA4GA1UECxMHVlBOLUNJRTEaMBgGA1UEAxMRdHVubmVsLnBp
eGdsby5jb20xHDAaBgNVBCkTE0JhbGEgQ2hhbmRyYXNla2FyYW4xHjAcBgkqhkiG
9w0BCQEWD2JhbGFAcGl4Z2xvLmNvbTAeFw0xODAyMTQwNjI1MjRaFw0yODAyMTIw
NjI1MjRaMIGoMQswCQYDVQQGEwJVUzELMAkGA1UECBMCQ0ExFTATBgNVBAcTDFNh
bkZyYW5jaXNjbzEVMBMGA1UEChMMUGl4Z2xvLCBJbmMuMRAwDgYDVQQLEwdWUE4t
Q0lFMQ4wDAYDVQQDEwVjaWU4NDEcMBoGA1UEKRMTQmFsYSBDaGFuZHJhc2VrYXJh
bjEeMBwGCSqGSIb3DQEJARYPYmFsYUBwaXhnbG8uY29tMIICIjANBgkqhkiG9w0B
AQEFAAOCAg8AMIICCgKCAgEAw8QoyJGW2WpMqB6CKGcBGmADABSfwKGAKZcdqs9n
Lzejzyp1JuYHL45chxwkDQUALp4bYs4j7sg5+Mn3f/XfIHjI2Qd8mO1cfW4xvDv2
YGx1YTwjYFC2m4m077kfAAh40HoMA0GYRGaolbsBQgAFgX+05TOW+X9DZ0ebR3Jd
kgTwwYEDG7b3ooks6GwiXZd5qv7mmL28vCvQ307wqwQPudtfRfsSY+mllF3sG9cr
WUrgL9RmQ/S3FvE3j0BDRCQMrEXcKaO83/F8YVIkZvwW/pCr9sk3t7oGWNftHL2h
UUYsXPfZklDsc56Qe6+PaUFYdy+NxS85NIla+seCO36KEUTSRAoPAJcq/shskNsa
jwYAHEsbwb2SBNjDYHlHb22vhKTGT9Mw2K1zcFu5Um2Mgp6AeZPnb8p4462SlN5K
UZYDfWxm5eXNJqgU6UkxeFRW/xeziDGE87f5wQuSAlaXJcd3ue2TIBeaDB3vC30P
upKrmQkRvrLh7rcjMPwjSqQLAts5NZyWVNw44qlT+E5nFlGf7HLLL1ziZ35WfRmS
NjwyCnxjrvSkZYH9uMruEis78lR+vSXD/YNFgqLMQWX8+a2ek+qyyNmaeOVBUISt
oqUGVtJMW1c8bFaiVDVXrTWWen3i+29CF3SejGVnOuNFlz9dmyki6KaZ+2dc9xPs
llUCAwEAAaOCAWswggFnMAkGA1UdEwQCMAAwLQYJYIZIAYb4QgENBCAWHkVhc3kt
UlNBIEdlbmVyYXRlZCBDZXJ0aWZpY2F0ZTAdBgNVHQ4EFgQU3KJCvWhcO8Mkh7g2
PII4gQnuvxMwgekGA1UdIwSB4TCB3oAU7ziNFFBYp1tNnBdy/N+5rKdRsBChgbqk
gbcwgbQxCzAJBgNVBAYTAlVTMQswCQYDVQQIEwJDQTEVMBMGA1UEBxMMU2FuRnJh
bmNpc2NvMRUwEwYDVQQKEwxQaXhnbG8sIEluYy4xEDAOBgNVBAsTB1ZQTi1DSUUx
GjAYBgNVBAMTEXR1bm5lbC5waXhnbG8uY29tMRwwGgYDVQQpExNCYWxhIENoYW5k
cmFzZWthcmFuMR4wHAYJKoZIhvcNAQkBFg9iYWxhQHBpeGdsby5jb22CCQCm28aD
gOageTATBgNVHSUEDDAKBggrBgEFBQcDAjALBgNVHQ8EBAMCB4AwDQYJKoZIhvcN
AQEFBQADggIBAAWjBnfsRjaBCXgZVdeGhPS8DSOYTB6vRyzrD4ipP73GsfjVcT7s
w5uF+SHue73NjPSRU+sb4ZgbR1pi4G5aWcGnakY7H9tF3deHrAkL1nvLXZ5wmTw7
uY1YHVcv+FU0JRkbbBVrPqE8baZZ9nckKsXLyOtws4uluRO3x4q20FUPHUNPWvvQ
/ECg0bUq1MMGZ4NFEvVCbyozNJYrr6fK6tLDboV2G+EMtjS4Oi1B/BhvcyZgvZ3T
1BZjHM6te7r5d5z9qqhhMDHtGXTp/WDZkWCKAKAiyI4EfIbEW6VlI4DsnCrxos4r
+7592G6L+dkuijFGmsXg7ETXzOHnTy6E9q2i3yUmL9H2JIePNr5yS19EqodJPCFO
AHv/10fFTpFqY31ot4k56ejR1uKiiMqYOBF2/SrxvnCZd6j+b7WMELQwb7AcA+Dh
eU0VG3C7x224cEjsL0YcbyU9G2tEoznRw1CE6o8hOdvWfeAwZm1bco4rCqZH4xaD
IpJgmbH0aU6uT26spnE++WhlR94YFfodvfEimdEnBbzzJJb5bCXHekY+5/u9VsF1
HHCjkUXCqEdJmHRDDeUjU/9kbYrBq98YDE9Oy5o99+I6FPjKJgJcytUuH5tEfgfN
un1jp746O8E9MMzyR+dV6XiQz2b1mnnT+t9EWrdpa8l+TFhSNjilS7Lq
-----END CERTIFICATE-----
