Certificate:
    Data:
        Version: 3 (0x2)
        Serial Number: 88 (0x58)
    Signature Algorithm: sha1WithRSAEncryption
        Issuer: C=US, ST=CA, L=SanFrancisco, O=Pixglo, Inc., OU=VPN-CIE, CN=tunnel.pixglo.com/name=Bala Chandrasekaran/emailAddress=bala@pixglo.com
        Validity
            Not Before: Feb 14 06:25:26 2018 GMT
            Not After : Feb 12 06:25:26 2028 GMT
        Subject: C=US, ST=CA, L=SanFrancisco, O=Pixglo, Inc., OU=VPN-CIE, CN=cie87/name=Bala Chandrasekaran/emailAddress=bala@pixglo.com
        Subject Public Key Info:
            Public Key Algorithm: rsaEncryption
                Public-Key: (4096 bit)
                Modulus:
                    00:b1:20:c2:31:ae:4c:06:4b:d9:78:39:ef:c7:d3:
                    e7:aa:13:3e:5e:3b:45:d3:65:b6:36:6e:b1:d8:5e:
                    6b:97:f9:45:28:c9:4b:33:81:3c:25:01:12:b8:71:
                    a3:31:f0:f4:54:6c:a3:f6:76:7c:44:22:e9:b9:13:
                    5d:94:d7:32:da:16:07:33:d3:5d:55:81:e4:33:66:
                    c5:54:6e:05:d5:11:5a:87:0e:c3:54:73:0e:b3:85:
                    90:63:29:f8:4b:65:97:44:6a:50:5b:f8:a6:b8:7c:
                    4e:d6:1d:3d:31:2d:8a:fb:cd:64:41:74:6f:6e:24:
                    cb:b4:31:9d:f8:52:f9:6f:3d:58:8b:bc:83:b7:d9:
                    7b:2b:62:0e:28:c9:9a:49:91:94:33:e4:9e:33:1f:
                    a8:a1:1d:58:47:f8:d8:23:e4:72:37:bf:3c:48:2b:
                    85:67:7b:27:96:97:14:38:f0:95:5f:f9:0e:17:0c:
                    c0:8c:88:d9:4a:9f:aa:e0:d2:59:d1:93:cf:76:3d:
                    f0:30:0a:39:9e:58:59:41:c9:0f:75:df:7b:e3:d4:
                    10:ca:04:34:80:30:85:67:33:73:a4:54:bb:7a:2a:
                    b5:25:f3:6d:b8:4e:b3:7e:32:40:72:f0:32:ea:5b:
                    93:66:9a:f6:e3:ae:94:98:5f:32:fe:d1:26:90:7b:
                    c3:cf:b7:b7:c0:cb:d5:62:e1:ac:ee:87:08:b3:e4:
                    02:7c:6a:38:04:4f:7e:38:25:68:11:60:e7:d1:a1:
                    98:c8:51:49:11:3c:ae:92:43:23:e6:2e:43:b8:9f:
                    90:6f:b3:0e:1e:94:e0:dc:7b:9e:89:a2:a3:78:e3:
                    a2:f1:dc:a4:73:23:41:ee:11:15:95:b1:7e:cf:f8:
                    71:90:80:0b:38:4f:c4:fd:ab:d7:f6:8c:30:e5:e7:
                    dc:77:da:92:4e:bc:23:ce:d4:3d:70:fd:f1:ce:38:
                    f3:80:19:c9:71:13:46:c0:93:7e:61:01:82:fa:1e:
                    71:f2:f7:ba:ec:ec:e5:ff:a9:40:50:82:ff:0a:40:
                    db:2b:80:62:cd:21:ba:56:91:d2:8c:1e:dc:d6:44:
                    72:a3:d3:41:38:2f:f9:1d:da:35:50:3b:84:bf:a7:
                    51:ff:88:6a:a0:dd:47:2d:f3:9f:e8:27:b5:ae:df:
                    3f:ef:90:9c:27:79:10:52:00:71:e1:bf:da:cf:11:
                    b7:2c:bb:d3:ef:2a:83:a9:5e:84:07:65:f9:ee:af:
                    d4:ca:dd:c2:b2:d3:8b:73:cb:74:97:5c:2c:94:2f:
                    2c:dd:46:6b:82:e4:64:10:57:6d:9d:be:23:75:58:
                    e5:03:d2:08:1b:45:65:63:e7:70:a8:19:b8:2f:e3:
                    c1:1f:8d
                Exponent: 65537 (0x10001)
        X509v3 extensions:
            X509v3 Basic Constraints: 
                CA:FALSE
            Netscape Comment: 
                Easy-RSA Generated Certificate
            X509v3 Subject Key Identifier: 
                A8:A0:55:4B:37:94:3E:5C:F5:63:59:06:FA:04:07:9E:ED:15:59:08
            X509v3 Authority Key Identifier: 
                keyid:EF:38:8D:14:50:58:A7:5B:4D:9C:17:72:FC:DF:B9:AC:A7:51:B0:10
                DirName:/C=US/ST=CA/L=SanFrancisco/O=Pixglo, Inc./OU=VPN-CIE/CN=tunnel.pixglo.com/name=Bala Chandrasekaran/emailAddress=bala@pixglo.com
                serial:A6:DB:C6:83:80:E6:A0:79

            X509v3 Extended Key Usage: 
                TLS Web Client Authentication
            X509v3 Key Usage: 
                Digital Signature
    Signature Algorithm: sha1WithRSAEncryption
         0f:ee:75:3d:e4:46:08:46:ec:19:26:53:b9:7b:83:9e:d1:cb:
         58:58:c8:25:27:35:a1:f5:c1:b0:f5:32:85:66:e7:b2:32:ff:
         db:ae:28:0e:bb:e7:9c:e2:74:5c:45:61:59:fe:15:dd:92:c6:
         74:dd:30:31:5a:0a:de:bf:e6:d3:be:b1:8e:3e:8a:1e:9e:bb:
         15:3f:ba:fa:1b:63:9f:68:6c:94:80:05:14:b4:63:0c:13:29:
         8e:44:3b:cc:6c:fb:7e:24:37:5d:e9:de:66:01:b0:df:9b:7f:
         d2:a4:de:02:d0:06:40:a8:1a:f3:a7:b3:dc:8e:54:4b:d3:0a:
         6e:f6:b0:b8:cd:2c:16:2d:52:4d:20:37:8a:4c:d6:b1:98:a0:
         8a:a8:a9:80:57:93:ce:6c:75:e2:a7:07:11:ab:8e:72:a3:3d:
         4b:5e:bd:b0:c4:c4:a8:a3:af:26:ec:8e:a4:d1:ca:3f:cd:9a:
         bb:cd:96:aa:4d:6d:16:ec:58:af:64:b4:fc:2c:cf:46:2d:fa:
         7e:88:18:20:c7:36:9a:a7:78:fa:d5:1c:7c:82:cb:d1:87:14:
         d2:51:3c:62:67:a4:ce:ba:ad:00:a4:10:8c:29:b3:5f:53:e1:
         30:ee:c6:73:91:0d:20:c3:67:cc:20:29:2f:15:98:10:9f:05:
         26:ff:fb:a7:7a:ea:ed:46:bf:fd:ad:f8:c7:28:1f:e5:36:1c:
         ff:d8:14:91:eb:0e:3e:52:50:20:b2:82:14:60:ef:8d:32:71:
         97:3a:13:d0:89:0b:d3:2e:a0:ae:ab:f2:c3:bd:b6:f2:34:c0:
         7b:3e:ad:f4:43:2a:03:14:0c:05:cf:ec:df:7f:ed:dd:44:7d:
         9d:85:82:86:98:06:f8:69:52:1b:62:c8:83:3d:4e:fb:6d:b8:
         10:71:1f:18:b0:4b:15:f7:ac:4a:08:ba:cb:68:e0:c1:7c:13:
         79:c4:01:34:8f:db:b2:0b:b5:37:bb:db:c3:16:57:93:95:36:
         b7:e2:90:27:b5:62:62:ca:bd:64:d3:d7:75:22:3a:5d:46:8a:
         cb:03:c8:00:22:0c:ef:7f:dd:e9:52:ef:6d:96:76:7e:40:50:
         71:37:6b:61:c8:76:34:3f:76:08:71:e0:03:2d:14:6f:61:22:
         6c:02:89:0c:99:2c:f2:f3:a3:49:fa:ea:91:38:fe:9c:06:bd:
         48:d9:f7:58:92:f6:b3:83:a1:bc:57:91:3d:c4:31:1b:0e:3f:
         bd:28:56:69:dd:e3:80:d5:c8:99:bd:92:b4:2a:53:cf:c8:1a:
         a9:f9:5d:01:e0:ca:57:fd:3d:f7:05:15:8c:c2:3a:c8:53:dc:
         50:a5:1e:73:14:2c:83:34
-----BEGIN CERTIFICATE-----
MIIHRjCCBS6gAwIBAgIBWDANBgkqhkiG9w0BAQUFADCBtDELMAkGA1UEBhMCVVMx
CzAJBgNVBAgTAkNBMRUwEwYDVQQHEwxTYW5GcmFuY2lzY28xFTATBgNVBAoTDFBp
eGdsbywgSW5jLjEQMA4GA1UECxMHVlBOLUNJRTEaMBgGA1UEAxMRdHVubmVsLnBp
eGdsby5jb20xHDAaBgNVBCkTE0JhbGEgQ2hhbmRyYXNla2FyYW4xHjAcBgkqhkiG
9w0BCQEWD2JhbGFAcGl4Z2xvLmNvbTAeFw0xODAyMTQwNjI1MjZaFw0yODAyMTIw
NjI1MjZaMIGoMQswCQYDVQQGEwJVUzELMAkGA1UECBMCQ0ExFTATBgNVBAcTDFNh
bkZyYW5jaXNjbzEVMBMGA1UEChMMUGl4Z2xvLCBJbmMuMRAwDgYDVQQLEwdWUE4t
Q0lFMQ4wDAYDVQQDEwVjaWU4NzEcMBoGA1UEKRMTQmFsYSBDaGFuZHJhc2VrYXJh
bjEeMBwGCSqGSIb3DQEJARYPYmFsYUBwaXhnbG8uY29tMIICIjANBgkqhkiG9w0B
AQEFAAOCAg8AMIICCgKCAgEAsSDCMa5MBkvZeDnvx9PnqhM+XjtF02W2Nm6x2F5r
l/lFKMlLM4E8JQESuHGjMfD0VGyj9nZ8RCLpuRNdlNcy2hYHM9NdVYHkM2bFVG4F
1RFahw7DVHMOs4WQYyn4S2WXRGpQW/imuHxO1h09MS2K+81kQXRvbiTLtDGd+FL5
bz1Yi7yDt9l7K2IOKMmaSZGUM+SeMx+ooR1YR/jYI+RyN788SCuFZ3snlpcUOPCV
X/kOFwzAjIjZSp+q4NJZ0ZPPdj3wMAo5nlhZQckPdd9749QQygQ0gDCFZzNzpFS7
eiq1JfNtuE6zfjJAcvAy6luTZpr2466UmF8y/tEmkHvDz7e3wMvVYuGs7ocIs+QC
fGo4BE9+OCVoEWDn0aGYyFFJETyukkMj5i5DuJ+Qb7MOHpTg3HueiaKjeOOi8dyk
cyNB7hEVlbF+z/hxkIALOE/E/avX9oww5efcd9qSTrwjztQ9cP3xzjjzgBnJcRNG
wJN+YQGC+h5x8ve67Ozl/6lAUIL/CkDbK4BizSG6VpHSjB7c1kRyo9NBOC/5Hdo1
UDuEv6dR/4hqoN1HLfOf6Ce1rt8/75CcJ3kQUgBx4b/azxG3LLvT7yqDqV6EB2X5
7q/Uyt3CstOLc8t0l1wslC8s3UZrguRkEFdtnb4jdVjlA9IIG0VlY+dwqBm4L+PB
H40CAwEAAaOCAWswggFnMAkGA1UdEwQCMAAwLQYJYIZIAYb4QgENBCAWHkVhc3kt
UlNBIEdlbmVyYXRlZCBDZXJ0aWZpY2F0ZTAdBgNVHQ4EFgQUqKBVSzeUPlz1Y1kG
+gQHnu0VWQgwgekGA1UdIwSB4TCB3oAU7ziNFFBYp1tNnBdy/N+5rKdRsBChgbqk
gbcwgbQxCzAJBgNVBAYTAlVTMQswCQYDVQQIEwJDQTEVMBMGA1UEBxMMU2FuRnJh
bmNpc2NvMRUwEwYDVQQKEwxQaXhnbG8sIEluYy4xEDAOBgNVBAsTB1ZQTi1DSUUx
GjAYBgNVBAMTEXR1bm5lbC5waXhnbG8uY29tMRwwGgYDVQQpExNCYWxhIENoYW5k
cmFzZWthcmFuMR4wHAYJKoZIhvcNAQkBFg9iYWxhQHBpeGdsby5jb22CCQCm28aD
gOageTATBgNVHSUEDDAKBggrBgEFBQcDAjALBgNVHQ8EBAMCB4AwDQYJKoZIhvcN
AQEFBQADggIBAA/udT3kRghG7BkmU7l7g57Ry1hYyCUnNaH1wbD1MoVm57Iy/9uu
KA6755zidFxFYVn+Fd2SxnTdMDFaCt6/5tO+sY4+ih6euxU/uvobY59obJSABRS0
YwwTKY5EO8xs+34kN13p3mYBsN+bf9Kk3gLQBkCoGvOns9yOVEvTCm72sLjNLBYt
Uk0gN4pM1rGYoIqoqYBXk85sdeKnBxGrjnKjPUtevbDExKijrybsjqTRyj/NmrvN
lqpNbRbsWK9ktPwsz0Yt+n6IGCDHNpqnePrVHHyCy9GHFNJRPGJnpM66rQCkEIwp
s19T4TDuxnORDSDDZ8wgKS8VmBCfBSb/+6d66u1Gv/2t+McoH+U2HP/YFJHrDj5S
UCCyghRg740ycZc6E9CJC9MuoK6r8sO9tvI0wHs+rfRDKgMUDAXP7N9/7d1EfZ2F
goaYBvhpUhtiyIM9TvttuBBxHxiwSxX3rEoIusto4MF8E3nEATSP27ILtTe728MW
V5OVNrfikCe1YmLKvWTT13UiOl1GissDyAAiDO9/3elS722Wdn5AUHE3a2HIdjQ/
dghx4AMtFG9hImwCiQyZLPLzo0n66pE4/pwGvUjZ91iS9rODobxXkT3EMRsOP70o
Vmnd44DVyJm9krQqU8/IGqn5XQHgylf9PfcFFYzCOshT3FClHnMULIM0
-----END CERTIFICATE-----
