Certificate:
    Data:
        Version: 3 (0x2)
        Serial Number: 90 (0x5a)
    Signature Algorithm: sha1WithRSAEncryption
        Issuer: C=US, ST=CA, L=SanFrancisco, O=Pixglo, Inc., OU=VPN-CIE, CN=tunnel.pixglo.com/name=Bala Chandrasekaran/emailAddress=bala@pixglo.com
        Validity
            Not Before: Feb 14 06:25:28 2018 GMT
            Not After : Feb 12 06:25:28 2028 GMT
        Subject: C=US, ST=CA, L=SanFrancisco, O=Pixglo, Inc., OU=VPN-CIE, CN=cie89/name=Bala Chandrasekaran/emailAddress=bala@pixglo.com
        Subject Public Key Info:
            Public Key Algorithm: rsaEncryption
                Public-Key: (4096 bit)
                Modulus:
                    00:cd:7e:96:54:1c:2c:d2:28:a8:ab:58:69:9a:37:
                    0e:61:81:ff:d5:be:09:fe:d6:1f:c9:53:c8:77:a8:
                    fa:78:d0:f5:39:1b:60:3b:e3:33:8e:08:f6:b9:16:
                    04:07:d7:2a:e9:49:9c:34:fc:be:0b:07:2c:d1:ce:
                    82:48:62:fb:f2:91:a9:b5:e5:1a:55:ef:6f:e9:74:
                    1e:50:9d:35:6c:f5:4a:9e:62:e8:d2:5c:52:48:8a:
                    c3:75:3f:62:37:4e:92:16:17:85:94:56:2b:b7:62:
                    c5:aa:44:1b:13:de:1f:34:94:8d:a0:2d:93:ce:5f:
                    18:01:ad:2f:10:e3:3c:a4:08:35:e7:50:38:d9:9c:
                    a3:11:15:74:e1:d5:eb:c3:51:86:8e:36:11:82:c4:
                    9f:dc:7a:42:26:3e:fc:59:ae:6e:67:42:47:7a:d8:
                    51:03:5f:71:bd:99:c3:43:4f:ac:39:53:f0:fe:eb:
                    52:8e:c0:59:d0:b0:2d:6d:d9:fb:25:89:44:5f:a6:
                    00:ea:75:b8:10:ce:d9:f2:9e:70:78:90:9d:fc:1f:
                    6d:b5:f9:6d:56:07:27:0a:b0:8a:3d:64:91:4b:09:
                    97:42:6b:83:22:35:c4:8e:4d:da:e6:f6:6a:e6:f8:
                    6c:36:10:5e:07:08:f6:44:ff:91:9a:79:77:a9:9e:
                    5d:e3:78:07:56:c7:fe:d3:ca:91:4f:a8:2b:60:b4:
                    a3:62:b9:93:69:85:07:bd:b9:84:6b:9c:24:8b:e3:
                    2c:a8:4f:67:9d:9f:aa:7b:9c:93:f5:48:62:af:52:
                    47:3a:3a:ea:ab:d7:df:5b:39:2b:4a:d3:49:d4:b2:
                    48:c2:48:40:ce:74:e3:d1:80:59:b6:c6:ea:4a:4d:
                    4d:22:9d:bf:a2:42:d8:d1:13:f2:8a:6e:a3:4c:a5:
                    0a:ee:8c:10:ae:bd:32:44:c7:b6:8e:4c:2b:ee:c1:
                    43:e0:fb:85:e3:99:4d:e0:4d:ea:a8:fc:59:35:d0:
                    1f:b6:0d:27:b5:c2:a7:00:f0:2d:00:5e:a7:88:f5:
                    87:74:b7:a7:aa:b8:7e:63:50:19:b3:df:71:6c:ce:
                    4a:9e:b7:d7:b1:fa:c7:d6:24:42:6d:4a:ef:67:e7:
                    29:5c:45:31:06:59:74:14:06:48:06:42:3e:7a:68:
                    19:dc:1f:2b:ef:c6:93:0e:3a:41:21:86:30:21:b0:
                    45:d1:ed:19:e8:f6:dd:84:37:ac:fd:81:7b:0a:dd:
                    80:05:4c:46:2f:b8:2d:1d:b4:e5:56:ba:3a:58:cd:
                    21:3b:ad:78:d5:00:62:49:13:d9:3c:cb:4f:3a:65:
                    11:c5:96:a4:f2:b9:75:6d:28:12:99:61:e3:d4:cc:
                    dd:ea:17
                Exponent: 65537 (0x10001)
        X509v3 extensions:
            X509v3 Basic Constraints: 
                CA:FALSE
            Netscape Comment: 
                Easy-RSA Generated Certificate
            X509v3 Subject Key Identifier: 
                1E:49:7F:F2:B2:4B:1A:E5:DD:4F:A8:5D:07:77:AA:8A:EE:E2:35:26
            X509v3 Authority Key Identifier: 
                keyid:EF:38:8D:14:50:58:A7:5B:4D:9C:17:72:FC:DF:B9:AC:A7:51:B0:10
                DirName:/C=US/ST=CA/L=SanFrancisco/O=Pixglo, Inc./OU=VPN-CIE/CN=tunnel.pixglo.com/name=Bala Chandrasekaran/emailAddress=bala@pixglo.com
                serial:A6:DB:C6:83:80:E6:A0:79

            X509v3 Extended Key Usage: 
                TLS Web Client Authentication
            X509v3 Key Usage: 
                Digital Signature
    Signature Algorithm: sha1WithRSAEncryption
         5a:c5:92:bd:1b:65:bc:dc:70:8e:79:4d:aa:67:65:49:0d:3b:
         0e:9a:59:f5:97:9f:7e:d6:67:6b:2e:e7:a1:a3:72:a0:49:83:
         1c:c2:a5:69:72:76:54:d5:52:76:8a:17:57:1d:bf:94:38:55:
         f6:69:1d:81:20:8a:a3:17:97:7f:4e:92:be:97:ca:c0:2e:5a:
         60:72:c8:21:52:fc:75:25:06:d1:52:0e:86:ca:10:ee:65:1f:
         31:17:e5:11:e7:19:2d:0e:16:22:68:9f:22:e4:0c:21:b6:15:
         89:ff:ab:e0:7c:57:7d:5a:9f:95:64:7f:13:82:a1:6b:90:9e:
         99:d6:3c:f3:be:77:5c:53:6e:71:c3:72:ad:f9:3f:2b:e0:e1:
         a4:fc:ef:36:09:10:37:36:6b:ab:e0:75:ad:67:e7:9f:00:fe:
         2d:22:c9:27:17:24:e6:cc:e0:c3:c4:0a:1a:96:0d:f1:9b:fe:
         77:b3:17:7d:a0:00:31:ae:b3:7b:93:41:8c:1b:f2:54:7a:d3:
         f6:b2:32:00:ea:b2:c9:d3:03:e5:79:b6:56:9b:b1:69:6d:1d:
         0d:8f:c4:84:05:e0:88:6a:81:b2:81:6a:f5:82:9a:5f:be:e5:
         49:be:e9:d3:4d:00:8b:41:aa:62:65:34:17:9c:78:fa:b5:63:
         03:7a:7a:e5:38:56:ab:75:d9:b7:f4:32:89:13:e2:fb:7c:58:
         31:6e:43:4f:b0:ce:9b:bd:d7:9f:98:f3:a6:28:95:67:09:b5:
         4d:3c:cc:04:e8:fa:1f:2e:a7:f1:45:36:d2:85:7d:ac:26:77:
         a1:eb:2c:6e:b8:84:b3:0a:75:6e:98:73:17:62:7c:f0:94:9d:
         df:27:5c:8c:e6:53:4a:c5:60:a0:d7:38:c7:1f:f2:fc:8f:70:
         3e:17:3c:b2:9d:e2:7d:15:21:11:bc:0a:f2:4d:71:6e:4f:36:
         0c:a1:b4:00:85:f3:28:40:2d:82:b1:2d:80:f5:32:5d:9e:cf:
         9e:b5:16:4f:d1:be:1a:ab:12:f8:d9:a3:ed:9a:bb:6c:10:0e:
         ba:28:6b:53:82:00:3f:89:e7:46:58:3d:76:14:49:54:5c:5e:
         99:05:89:d8:b0:bc:dd:bc:67:86:44:cc:91:ec:f2:dd:43:e1:
         77:43:8a:b7:69:84:94:4a:b5:5c:2e:56:6e:1e:34:4d:a5:ca:
         c0:17:68:94:4e:2e:d1:99:fb:2b:06:e3:0a:a2:e2:2f:d0:df:
         57:0c:59:98:3c:00:60:de:b2:a1:bb:d1:f2:bf:e2:0a:43:c2:
         38:a0:6f:30:f8:27:48:73:14:85:3c:08:81:4d:21:a7:90:7b:
         50:a6:cc:fa:bc:39:c9:1f
-----BEGIN CERTIFICATE-----
MIIHRjCCBS6gAwIBAgIBWjANBgkqhkiG9w0BAQUFADCBtDELMAkGA1UEBhMCVVMx
CzAJBgNVBAgTAkNBMRUwEwYDVQQHEwxTYW5GcmFuY2lzY28xFTATBgNVBAoTDFBp
eGdsbywgSW5jLjEQMA4GA1UECxMHVlBOLUNJRTEaMBgGA1UEAxMRdHVubmVsLnBp
eGdsby5jb20xHDAaBgNVBCkTE0JhbGEgQ2hhbmRyYXNla2FyYW4xHjAcBgkqhkiG
9w0BCQEWD2JhbGFAcGl4Z2xvLmNvbTAeFw0xODAyMTQwNjI1MjhaFw0yODAyMTIw
NjI1MjhaMIGoMQswCQYDVQQGEwJVUzELMAkGA1UECBMCQ0ExFTATBgNVBAcTDFNh
bkZyYW5jaXNjbzEVMBMGA1UEChMMUGl4Z2xvLCBJbmMuMRAwDgYDVQQLEwdWUE4t
Q0lFMQ4wDAYDVQQDEwVjaWU4OTEcMBoGA1UEKRMTQmFsYSBDaGFuZHJhc2VrYXJh
bjEeMBwGCSqGSIb3DQEJARYPYmFsYUBwaXhnbG8uY29tMIICIjANBgkqhkiG9w0B
AQEFAAOCAg8AMIICCgKCAgEAzX6WVBws0iioq1hpmjcOYYH/1b4J/tYfyVPId6j6
eND1ORtgO+Mzjgj2uRYEB9cq6UmcNPy+Cwcs0c6CSGL78pGpteUaVe9v6XQeUJ01
bPVKnmLo0lxSSIrDdT9iN06SFheFlFYrt2LFqkQbE94fNJSNoC2Tzl8YAa0vEOM8
pAg151A42ZyjERV04dXrw1GGjjYRgsSf3HpCJj78Wa5uZ0JHethRA19xvZnDQ0+s
OVPw/utSjsBZ0LAtbdn7JYlEX6YA6nW4EM7Z8p5weJCd/B9ttfltVgcnCrCKPWSR
SwmXQmuDIjXEjk3a5vZq5vhsNhBeBwj2RP+Rmnl3qZ5d43gHVsf+08qRT6grYLSj
YrmTaYUHvbmEa5wki+MsqE9nnZ+qe5yT9Uhir1JHOjrqq9ffWzkrStNJ1LJIwkhA
znTj0YBZtsbqSk1NIp2/okLY0RPyim6jTKUK7owQrr0yRMe2jkwr7sFD4PuF45lN
4E3qqPxZNdAftg0ntcKnAPAtAF6niPWHdLenqrh+Y1AZs99xbM5KnrfXsfrH1iRC
bUrvZ+cpXEUxBll0FAZIBkI+emgZ3B8r78aTDjpBIYYwIbBF0e0Z6PbdhDes/YF7
Ct2ABUxGL7gtHbTlVro6WM0hO6141QBiSRPZPMtPOmURxZak8rl1bSgSmWHj1Mzd
6hcCAwEAAaOCAWswggFnMAkGA1UdEwQCMAAwLQYJYIZIAYb4QgENBCAWHkVhc3kt
UlNBIEdlbmVyYXRlZCBDZXJ0aWZpY2F0ZTAdBgNVHQ4EFgQUHkl/8rJLGuXdT6hd
B3eqiu7iNSYwgekGA1UdIwSB4TCB3oAU7ziNFFBYp1tNnBdy/N+5rKdRsBChgbqk
gbcwgbQxCzAJBgNVBAYTAlVTMQswCQYDVQQIEwJDQTEVMBMGA1UEBxMMU2FuRnJh
bmNpc2NvMRUwEwYDVQQKEwxQaXhnbG8sIEluYy4xEDAOBgNVBAsTB1ZQTi1DSUUx
GjAYBgNVBAMTEXR1bm5lbC5waXhnbG8uY29tMRwwGgYDVQQpExNCYWxhIENoYW5k
cmFzZWthcmFuMR4wHAYJKoZIhvcNAQkBFg9iYWxhQHBpeGdsby5jb22CCQCm28aD
gOageTATBgNVHSUEDDAKBggrBgEFBQcDAjALBgNVHQ8EBAMCB4AwDQYJKoZIhvcN
AQEFBQADggIBAFrFkr0bZbzccI55TapnZUkNOw6aWfWXn37WZ2su56GjcqBJgxzC
pWlydlTVUnaKF1cdv5Q4VfZpHYEgiqMXl39Okr6XysAuWmByyCFS/HUlBtFSDobK
EO5lHzEX5RHnGS0OFiJonyLkDCG2FYn/q+B8V31an5VkfxOCoWuQnpnWPPO+d1xT
bnHDcq35Pyvg4aT87zYJEDc2a6vgda1n558A/i0iyScXJObM4MPEChqWDfGb/nez
F32gADGus3uTQYwb8lR60/ayMgDqssnTA+V5tlabsWltHQ2PxIQF4IhqgbKBavWC
ml++5Um+6dNNAItBqmJlNBecePq1YwN6euU4Vqt12bf0MokT4vt8WDFuQ0+wzpu9
15+Y86YolWcJtU08zATo+h8up/FFNtKFfawmd6HrLG64hLMKdW6YcxdifPCUnd8n
XIzmU0rFYKDXOMcf8vyPcD4XPLKd4n0VIRG8CvJNcW5PNgyhtACF8yhALYKxLYD1
Ml2ez561Fk/RvhqrEvjZo+2au2wQDrooa1OCAD+J50ZYPXYUSVRcXpkFidiwvN28
Z4ZEzJHs8t1D4XdDirdphJRKtVwuVm4eNE2lysAXaJROLtGZ+ysG4wqi4i/Q31cM
WZg8AGDesqG70fK/4gpDwjigbzD4J0hzFIU8CIFNIaeQe1CmzPq8Ockf
-----END CERTIFICATE-----
