Certificate:
    Data:
        Version: 3 (0x2)
        Serial Number: 91 (0x5b)
    Signature Algorithm: sha1WithRSAEncryption
        Issuer: C=US, ST=CA, L=SanFrancisco, O=Pixglo, Inc., OU=VPN-CIE, CN=tunnel.pixglo.com/name=Bala Chandrasekaran/emailAddress=bala@pixglo.com
        Validity
            Not Before: Feb 14 06:25:29 2018 GMT
            Not After : Feb 12 06:25:29 2028 GMT
        Subject: C=US, ST=CA, L=SanFrancisco, O=Pixglo, Inc., OU=VPN-CIE, CN=cie90/name=Bala Chandrasekaran/emailAddress=bala@pixglo.com
        Subject Public Key Info:
            Public Key Algorithm: rsaEncryption
                Public-Key: (4096 bit)
                Modulus:
                    00:b7:e0:00:f4:65:97:d5:59:2d:1d:47:a8:fd:8a:
                    e3:7e:47:a6:0d:55:85:b1:a0:1d:6b:17:fa:9f:89:
                    7f:9e:33:ec:58:9c:38:ed:c7:36:86:0e:09:b8:2e:
                    b0:27:39:82:d2:29:6b:17:7d:0c:26:0d:5d:95:d1:
                    72:e5:53:3f:22:14:59:7e:31:ad:12:82:db:bd:58:
                    50:05:62:14:cb:91:0a:fa:8b:1b:36:69:ad:37:39:
                    f6:ed:4b:25:bd:d0:3c:a9:04:90:d9:38:a1:a5:62:
                    f1:f5:47:a9:c3:dd:98:fa:2d:2e:5f:01:32:99:25:
                    79:4a:83:66:9e:95:55:06:e9:bb:ab:72:fc:bf:94:
                    e6:19:45:f3:7b:3c:21:90:e1:f2:1f:73:b5:1b:72:
                    cd:c5:9d:44:8a:fe:93:1a:12:cd:10:82:ef:ac:c9:
                    ef:2b:b1:26:7f:d2:8f:3f:3e:f2:52:2f:45:5c:a2:
                    5c:67:48:87:66:92:a0:ca:94:a7:fb:1a:c2:89:7a:
                    f0:60:0f:52:e7:bc:20:d4:58:3d:06:8c:22:00:1f:
                    14:c4:48:46:3a:0f:1d:f1:a3:b3:ab:28:46:c9:01:
                    ee:f8:dd:1b:eb:72:8d:e8:2a:6f:10:de:2d:2b:14:
                    0d:35:fc:70:d2:56:b4:06:54:46:2c:a6:1b:f0:1b:
                    f6:25:51:b8:11:3c:72:5e:89:4a:c0:94:ac:49:a5:
                    4f:bd:ed:86:59:8e:98:66:50:d6:2a:17:cd:5d:87:
                    11:6f:f9:d3:76:c4:35:20:ca:49:bb:de:51:a1:a6:
                    2a:d5:21:56:4c:3a:81:a0:d9:00:e7:b1:6c:4d:54:
                    b5:24:ea:05:28:c1:f8:1b:74:cd:83:98:76:eb:71:
                    30:07:18:9f:3c:f9:8d:28:7b:0d:8c:5d:f1:ee:18:
                    0e:41:2f:8d:69:b4:65:7b:04:10:fa:67:eb:df:27:
                    06:fd:bf:01:1a:de:10:97:c1:76:14:ff:26:5e:96:
                    be:95:d3:74:21:ee:94:69:2a:65:35:c8:cb:f0:67:
                    25:3f:db:ec:95:1d:54:28:18:f5:46:b2:7d:df:ee:
                    60:2e:02:4d:d2:3b:9b:85:44:8f:5c:7a:05:11:31:
                    d5:c1:79:e0:5c:fd:00:c2:7f:ab:4f:2b:f3:90:aa:
                    fc:51:09:ce:d7:d2:cd:9d:9d:16:68:f5:0e:43:58:
                    12:8d:61:4a:fd:eb:cf:67:df:55:31:0d:d4:75:ef:
                    11:63:b1:9d:20:bb:1b:7d:a2:df:ff:ef:5a:02:26:
                    4c:aa:ad:e1:ca:76:46:4d:d0:68:d6:33:68:bc:9e:
                    f4:cc:c7:a1:6f:ea:53:e6:e7:47:d6:f9:fa:b8:f6:
                    58:6c:59
                Exponent: 65537 (0x10001)
        X509v3 extensions:
            X509v3 Basic Constraints: 
                CA:FALSE
            Netscape Comment: 
                Easy-RSA Generated Certificate
            X509v3 Subject Key Identifier: 
                FC:AC:56:20:26:26:B9:EB:7F:B0:D5:0F:85:5F:C2:B1:8B:6B:BD:F4
            X509v3 Authority Key Identifier: 
                keyid:EF:38:8D:14:50:58:A7:5B:4D:9C:17:72:FC:DF:B9:AC:A7:51:B0:10
                DirName:/C=US/ST=CA/L=SanFrancisco/O=Pixglo, Inc./OU=VPN-CIE/CN=tunnel.pixglo.com/name=Bala Chandrasekaran/emailAddress=bala@pixglo.com
                serial:A6:DB:C6:83:80:E6:A0:79

            X509v3 Extended Key Usage: 
                TLS Web Client Authentication
            X509v3 Key Usage: 
                Digital Signature
    Signature Algorithm: sha1WithRSAEncryption
         36:e2:5e:15:01:65:16:55:82:b5:13:97:9b:a6:92:02:00:11:
         50:38:35:34:7c:ee:ad:4e:0d:d7:ab:90:33:fc:ea:d3:90:b1:
         6f:a6:db:8b:db:a3:55:64:c6:fb:2b:8e:61:e8:e8:2c:02:c6:
         bc:3f:05:4c:16:e4:27:9c:ce:72:a5:1e:67:9a:c7:b1:78:0d:
         7a:eb:ca:66:5d:cb:13:9c:c5:4f:f1:bd:45:23:83:df:12:bf:
         97:23:3f:cd:fa:ec:82:25:2b:5d:d4:b4:1a:b4:b2:01:2c:ad:
         5f:18:61:49:d5:70:c4:b4:1e:8a:c9:2f:9a:ec:78:70:d5:19:
         74:7c:ad:fb:00:27:bc:f3:16:a1:38:55:01:2a:e0:24:ee:54:
         01:70:b4:9d:b1:19:bd:75:9e:8c:94:69:57:e9:72:0b:23:7b:
         0f:e2:f2:a7:a9:52:cc:f0:46:b2:fc:5f:ff:07:f4:7a:ee:4f:
         6e:b2:d6:03:70:2c:9f:ea:76:1b:ce:e6:d3:2e:6f:d6:b5:75:
         23:df:2e:fb:ea:0c:c2:ee:90:82:cc:d2:9d:97:f9:17:30:a1:
         ee:89:ef:bf:b3:7c:a4:0e:02:f0:85:71:c3:27:ca:c1:f5:f9:
         27:28:7a:6c:72:79:a5:65:b0:54:e3:a5:1c:0c:d2:6d:70:a4:
         6c:88:76:08:66:67:7d:bf:74:b0:2c:69:71:6e:e1:0a:65:55:
         8c:a6:e2:81:94:6c:f2:1c:68:0c:79:92:a4:f1:5b:30:9c:d5:
         bb:a3:7b:52:0c:ac:58:a5:a0:41:aa:4e:6e:39:8d:9b:27:2b:
         8f:5e:55:67:06:ef:90:de:61:57:2c:c1:1b:27:d4:a0:a5:48:
         01:d5:b3:a6:78:24:4f:b8:f6:09:07:22:40:7e:1a:23:85:4c:
         e9:f9:a5:6b:e0:1d:62:49:e0:a1:66:d2:91:c9:e0:c7:f8:1e:
         3d:ac:d1:54:ae:1b:bf:c9:e8:c4:2b:25:ba:3b:f1:e8:49:6f:
         21:0a:38:a2:c1:ef:6e:35:6a:18:3f:d6:60:af:32:ad:e5:bb:
         27:9b:27:d2:19:30:5a:9b:b8:b1:f7:73:13:c5:5d:c7:28:10:
         08:db:b6:36:20:01:d6:46:23:1f:b9:e3:40:21:10:67:9f:c0:
         a6:b9:8a:24:82:f0:0c:7d:5c:a8:c2:ab:18:29:24:11:60:5a:
         bc:5d:48:0f:4a:1d:d4:97:04:c8:3b:79:d6:07:d5:cb:b4:67:
         70:cb:91:59:7d:73:d2:09:05:d3:0e:60:a9:6e:77:e9:10:a5:
         2c:07:ca:f8:44:1e:2e:df:98:37:43:f7:11:57:e8:42:81:58:
         41:73:ba:4c:5b:58:8c:25
-----BEGIN CERTIFICATE-----
MIIHRjCCBS6gAwIBAgIBWzANBgkqhkiG9w0BAQUFADCBtDELMAkGA1UEBhMCVVMx
CzAJBgNVBAgTAkNBMRUwEwYDVQQHEwxTYW5GcmFuY2lzY28xFTATBgNVBAoTDFBp
eGdsbywgSW5jLjEQMA4GA1UECxMHVlBOLUNJRTEaMBgGA1UEAxMRdHVubmVsLnBp
eGdsby5jb20xHDAaBgNVBCkTE0JhbGEgQ2hhbmRyYXNla2FyYW4xHjAcBgkqhkiG
9w0BCQEWD2JhbGFAcGl4Z2xvLmNvbTAeFw0xODAyMTQwNjI1MjlaFw0yODAyMTIw
NjI1MjlaMIGoMQswCQYDVQQGEwJVUzELMAkGA1UECBMCQ0ExFTATBgNVBAcTDFNh
bkZyYW5jaXNjbzEVMBMGA1UEChMMUGl4Z2xvLCBJbmMuMRAwDgYDVQQLEwdWUE4t
Q0lFMQ4wDAYDVQQDEwVjaWU5MDEcMBoGA1UEKRMTQmFsYSBDaGFuZHJhc2VrYXJh
bjEeMBwGCSqGSIb3DQEJARYPYmFsYUBwaXhnbG8uY29tMIICIjANBgkqhkiG9w0B
AQEFAAOCAg8AMIICCgKCAgEAt+AA9GWX1VktHUeo/YrjfkemDVWFsaAdaxf6n4l/
njPsWJw47cc2hg4JuC6wJzmC0ilrF30MJg1dldFy5VM/IhRZfjGtEoLbvVhQBWIU
y5EK+osbNmmtNzn27UslvdA8qQSQ2TihpWLx9Uepw92Y+i0uXwEymSV5SoNmnpVV
Bum7q3L8v5TmGUXzezwhkOHyH3O1G3LNxZ1Eiv6TGhLNEILvrMnvK7Emf9KPPz7y
Ui9FXKJcZ0iHZpKgypSn+xrCiXrwYA9S57wg1Fg9BowiAB8UxEhGOg8d8aOzqyhG
yQHu+N0b63KN6CpvEN4tKxQNNfxw0la0BlRGLKYb8Bv2JVG4ETxyXolKwJSsSaVP
ve2GWY6YZlDWKhfNXYcRb/nTdsQ1IMpJu95RoaYq1SFWTDqBoNkA57FsTVS1JOoF
KMH4G3TNg5h263EwBxifPPmNKHsNjF3x7hgOQS+NabRlewQQ+mfr3ycG/b8BGt4Q
l8F2FP8mXpa+ldN0Ie6UaSplNcjL8GclP9vslR1UKBj1RrJ93+5gLgJN0jubhUSP
XHoFETHVwXngXP0Awn+rTyvzkKr8UQnO19LNnZ0WaPUOQ1gSjWFK/evPZ99VMQ3U
de8RY7GdILsbfaLf/+9aAiZMqq3hynZGTdBo1jNovJ70zMehb+pT5udH1vn6uPZY
bFkCAwEAAaOCAWswggFnMAkGA1UdEwQCMAAwLQYJYIZIAYb4QgENBCAWHkVhc3kt
UlNBIEdlbmVyYXRlZCBDZXJ0aWZpY2F0ZTAdBgNVHQ4EFgQU/KxWICYmuet/sNUP
hV/CsYtrvfQwgekGA1UdIwSB4TCB3oAU7ziNFFBYp1tNnBdy/N+5rKdRsBChgbqk
gbcwgbQxCzAJBgNVBAYTAlVTMQswCQYDVQQIEwJDQTEVMBMGA1UEBxMMU2FuRnJh
bmNpc2NvMRUwEwYDVQQKEwxQaXhnbG8sIEluYy4xEDAOBgNVBAsTB1ZQTi1DSUUx
GjAYBgNVBAMTEXR1bm5lbC5waXhnbG8uY29tMRwwGgYDVQQpExNCYWxhIENoYW5k
cmFzZWthcmFuMR4wHAYJKoZIhvcNAQkBFg9iYWxhQHBpeGdsby5jb22CCQCm28aD
gOageTATBgNVHSUEDDAKBggrBgEFBQcDAjALBgNVHQ8EBAMCB4AwDQYJKoZIhvcN
AQEFBQADggIBADbiXhUBZRZVgrUTl5umkgIAEVA4NTR87q1ODderkDP86tOQsW+m
24vbo1VkxvsrjmHo6CwCxrw/BUwW5CecznKlHmeax7F4DXrrymZdyxOcxU/xvUUj
g98Sv5cjP8367IIlK13UtBq0sgEsrV8YYUnVcMS0HorJL5rseHDVGXR8rfsAJ7zz
FqE4VQEq4CTuVAFwtJ2xGb11noyUaVfpcgsjew/i8qepUszwRrL8X/8H9HruT26y
1gNwLJ/qdhvO5tMub9a1dSPfLvvqDMLukILM0p2X+Rcwoe6J77+zfKQOAvCFccMn
ysH1+ScoemxyeaVlsFTjpRwM0m1wpGyIdghmZ32/dLAsaXFu4QplVYym4oGUbPIc
aAx5kqTxWzCc1buje1IMrFiloEGqTm45jZsnK49eVWcG75DeYVcswRsn1KClSAHV
s6Z4JE+49gkHIkB+GiOFTOn5pWvgHWJJ4KFm0pHJ4Mf4Hj2s0VSuG7/J6MQrJbo7
8ehJbyEKOKLB7241ahg/1mCvMq3luyebJ9IZMFqbuLH3cxPFXccoEAjbtjYgAdZG
Ix+540AhEGefwKa5iiSC8Ax9XKjCqxgpJBFgWrxdSA9KHdSXBMg7edYH1cu0Z3DL
kVl9c9IJBdMOYKlud+kQpSwHyvhEHi7fmDdD9xFX6EKBWEFzukxbWIwl
-----END CERTIFICATE-----
