Certificate:
    Data:
        Version: 3 (0x2)
        Serial Number: 94 (0x5e)
    Signature Algorithm: sha1WithRSAEncryption
        Issuer: C=US, ST=CA, L=SanFrancisco, O=Pixglo, Inc., OU=VPN-CIE, CN=tunnel.pixglo.com/name=Bala Chandrasekaran/emailAddress=bala@pixglo.com
        Validity
            Not Before: Feb 14 06:25:32 2018 GMT
            Not After : Feb 12 06:25:32 2028 GMT
        Subject: C=US, ST=CA, L=SanFrancisco, O=Pixglo, Inc., OU=VPN-CIE, CN=cie93/name=Bala Chandrasekaran/emailAddress=bala@pixglo.com
        Subject Public Key Info:
            Public Key Algorithm: rsaEncryption
                Public-Key: (4096 bit)
                Modulus:
                    00:aa:dd:d4:04:d8:7c:f9:14:92:b5:3d:33:4c:1d:
                    57:1e:7c:70:1e:6e:23:0b:3c:87:40:7c:dd:e8:c2:
                    2b:07:20:2f:cb:91:77:26:e2:ed:1e:c8:f7:be:0b:
                    40:b1:c0:ea:3f:c2:70:2c:11:08:1a:a0:2b:4c:f4:
                    e1:68:19:ae:87:20:f9:c2:cb:ea:9d:f1:84:f7:40:
                    d9:97:f3:31:59:6a:eb:b5:2e:86:c4:b7:6e:58:d0:
                    a1:1b:73:2d:f2:1f:0a:04:df:05:2f:94:c3:42:67:
                    96:c8:3d:06:89:f3:e6:56:fc:32:d8:f4:09:7d:5b:
                    ec:93:ea:68:bd:c2:8d:1f:11:15:a3:b1:48:63:c5:
                    1d:fe:ca:cd:87:fc:de:0d:75:bf:b5:1a:b1:49:2e:
                    6b:08:99:bb:45:93:64:95:63:4d:94:6d:ec:4c:29:
                    c5:02:1f:8d:05:eb:3d:1e:d9:44:b1:92:2f:ec:3f:
                    34:c5:d6:13:b3:9b:91:97:f6:f2:6e:25:6a:bf:c1:
                    f5:34:bf:e7:db:06:d1:57:ca:cd:f5:32:56:98:73:
                    0e:7e:e0:58:1b:cd:98:e7:5d:4a:7f:3d:8b:a4:ec:
                    76:38:d6:6d:5e:9e:c8:91:a1:ed:af:76:0c:24:07:
                    e0:6a:26:9d:1c:ae:c1:30:9e:e9:6c:27:a8:7d:d5:
                    93:3e:4a:21:27:dc:40:1c:d9:36:30:c0:74:17:76:
                    3b:06:ab:e6:13:0b:99:24:ad:67:6c:81:a3:04:4f:
                    13:09:36:60:d9:65:f3:c9:e2:75:38:2e:85:be:f4:
                    2e:da:14:f7:f7:27:16:0e:fc:c1:4b:53:3a:f1:d4:
                    82:76:a6:d9:38:e7:f2:0d:25:f5:93:ed:ed:ca:81:
                    35:9b:94:2a:9d:05:ba:03:23:07:34:72:17:66:46:
                    d0:74:d9:8c:e6:08:92:be:76:ba:cc:5a:ea:99:c9:
                    fe:af:1a:51:f7:08:98:5e:ad:4b:e9:97:83:bb:5d:
                    52:29:20:5a:43:fd:d3:cf:14:ed:dd:62:33:5c:c1:
                    8a:52:53:29:64:43:63:b7:d0:04:f4:38:f4:17:11:
                    a2:fc:27:3b:e0:32:a9:be:0b:b9:73:37:ea:1f:cf:
                    85:8c:0a:96:5d:68:d8:6f:f4:e1:ac:9e:92:2b:ef:
                    4e:9b:15:21:eb:18:e6:d3:35:b9:9c:57:ee:64:ae:
                    ac:fb:bd:6f:48:f7:89:a7:7f:f4:3f:c3:1e:9b:47:
                    ce:67:49:71:9c:09:2a:ba:b6:58:06:57:0d:ef:ce:
                    30:c8:a1:20:a7:c7:e9:c0:96:c6:87:aa:fa:5b:11:
                    32:2f:7e:37:84:91:37:4f:00:eb:7e:71:a4:a7:c2:
                    11:ae:4f
                Exponent: 65537 (0x10001)
        X509v3 extensions:
            X509v3 Basic Constraints: 
                CA:FALSE
            Netscape Comment: 
                Easy-RSA Generated Certificate
            X509v3 Subject Key Identifier: 
                43:91:4D:2E:FD:B3:EC:7B:44:4B:48:97:F2:4C:09:53:B1:EB:43:FD
            X509v3 Authority Key Identifier: 
                keyid:EF:38:8D:14:50:58:A7:5B:4D:9C:17:72:FC:DF:B9:AC:A7:51:B0:10
                DirName:/C=US/ST=CA/L=SanFrancisco/O=Pixglo, Inc./OU=VPN-CIE/CN=tunnel.pixglo.com/name=Bala Chandrasekaran/emailAddress=bala@pixglo.com
                serial:A6:DB:C6:83:80:E6:A0:79

            X509v3 Extended Key Usage: 
                TLS Web Client Authentication
            X509v3 Key Usage: 
                Digital Signature
    Signature Algorithm: sha1WithRSAEncryption
         cf:00:ba:1b:14:2f:33:5b:86:ad:f2:20:f2:1b:8d:ba:f3:83:
         0f:68:6c:8b:5d:73:b5:5a:25:b1:34:99:bf:5d:88:59:8d:22:
         d7:c2:82:d1:88:85:20:95:3d:5c:f4:30:0e:54:6d:59:79:11:
         df:4c:60:30:5b:5f:8f:e9:ef:cb:e3:be:58:b5:18:df:a5:78:
         16:d5:d5:a4:94:f4:02:ec:8f:51:15:c7:9d:6e:ed:30:11:f3:
         8b:8f:43:9f:04:13:bf:ab:97:2c:9e:44:dc:a5:98:6b:a4:3e:
         a0:61:13:ae:ff:19:98:55:ab:85:fb:ea:d5:97:e6:16:12:ba:
         fe:1c:56:d9:87:ce:b3:1e:73:ed:55:ee:f1:aa:f5:c3:8a:46:
         51:db:da:f5:0b:bf:77:b1:f7:b5:58:cb:b2:a4:c6:17:dc:43:
         2d:0f:18:41:05:ca:7a:8e:2b:a2:94:83:85:5a:25:08:c7:1e:
         53:2d:ae:7e:24:82:c4:51:2d:56:22:9d:a9:eb:d7:d8:1e:b5:
         3b:38:b9:06:c2:49:c8:df:47:d3:0e:88:fb:c4:d6:a9:9e:06:
         fd:af:63:ae:60:c2:7e:34:b3:91:92:38:9f:58:3c:34:a3:63:
         26:2d:94:a3:4c:39:66:99:ca:8b:13:89:92:04:94:e9:14:8e:
         2d:f0:0f:f7:d5:34:40:01:14:f8:8a:a6:7e:c1:1b:ca:59:52:
         81:d1:70:37:f5:50:df:bd:94:08:e8:8c:f0:ce:97:da:d6:6b:
         fb:9a:4f:ab:29:b9:8b:be:6a:96:38:86:06:56:84:9f:b8:e2:
         7d:16:fe:2e:97:2d:3c:40:ac:b8:4f:e4:a5:0a:2c:67:4f:44:
         da:83:9c:57:cb:e7:4c:39:ac:19:e4:a3:92:14:c9:da:fe:90:
         58:07:7a:6b:f1:80:88:e0:dd:9d:a6:a5:04:77:cf:cb:27:53:
         1c:6a:41:e4:20:63:8d:ac:1e:8c:44:b2:ce:8e:80:af:43:d7:
         28:37:90:73:e7:26:28:18:0e:98:ec:b6:f3:32:d6:3c:d7:a5:
         04:ef:7e:18:c5:fd:a8:54:1c:46:ba:0e:74:3d:76:7b:58:f1:
         73:8e:94:4a:50:53:08:66:95:88:4c:c2:bf:b2:f1:62:07:74:
         68:b9:85:8a:d5:e3:59:bc:f7:59:0f:ae:59:1a:d9:6c:ab:93:
         7a:26:24:24:02:99:ad:af:06:0b:ae:a8:69:5e:a7:63:47:40:
         ce:1d:4a:26:94:e3:ff:e1:5a:d0:b3:ed:64:5b:9d:c0:32:c0:
         29:44:8c:73:47:21:d1:84:1b:30:b4:bc:54:34:7a:18:03:7f:
         cb:7e:7b:71:11:02:bc:f8
-----BEGIN CERTIFICATE-----
MIIHRjCCBS6gAwIBAgIBXjANBgkqhkiG9w0BAQUFADCBtDELMAkGA1UEBhMCVVMx
CzAJBgNVBAgTAkNBMRUwEwYDVQQHEwxTYW5GcmFuY2lzY28xFTATBgNVBAoTDFBp
eGdsbywgSW5jLjEQMA4GA1UECxMHVlBOLUNJRTEaMBgGA1UEAxMRdHVubmVsLnBp
eGdsby5jb20xHDAaBgNVBCkTE0JhbGEgQ2hhbmRyYXNla2FyYW4xHjAcBgkqhkiG
9w0BCQEWD2JhbGFAcGl4Z2xvLmNvbTAeFw0xODAyMTQwNjI1MzJaFw0yODAyMTIw
NjI1MzJaMIGoMQswCQYDVQQGEwJVUzELMAkGA1UECBMCQ0ExFTATBgNVBAcTDFNh
bkZyYW5jaXNjbzEVMBMGA1UEChMMUGl4Z2xvLCBJbmMuMRAwDgYDVQQLEwdWUE4t
Q0lFMQ4wDAYDVQQDEwVjaWU5MzEcMBoGA1UEKRMTQmFsYSBDaGFuZHJhc2VrYXJh
bjEeMBwGCSqGSIb3DQEJARYPYmFsYUBwaXhnbG8uY29tMIICIjANBgkqhkiG9w0B
AQEFAAOCAg8AMIICCgKCAgEAqt3UBNh8+RSStT0zTB1XHnxwHm4jCzyHQHzd6MIr
ByAvy5F3JuLtHsj3vgtAscDqP8JwLBEIGqArTPThaBmuhyD5wsvqnfGE90DZl/Mx
WWrrtS6GxLduWNChG3Mt8h8KBN8FL5TDQmeWyD0GifPmVvwy2PQJfVvsk+povcKN
HxEVo7FIY8Ud/srNh/zeDXW/tRqxSS5rCJm7RZNklWNNlG3sTCnFAh+NBes9HtlE
sZIv7D80xdYTs5uRl/bybiVqv8H1NL/n2wbRV8rN9TJWmHMOfuBYG82Y511Kfz2L
pOx2ONZtXp7IkaHtr3YMJAfgaiadHK7BMJ7pbCeofdWTPkohJ9xAHNk2MMB0F3Y7
BqvmEwuZJK1nbIGjBE8TCTZg2WXzyeJ1OC6FvvQu2hT39ycWDvzBS1M68dSCdqbZ
OOfyDSX1k+3tyoE1m5QqnQW6AyMHNHIXZkbQdNmM5giSvna6zFrqmcn+rxpR9wiY
Xq1L6ZeDu11SKSBaQ/3TzxTt3WIzXMGKUlMpZENjt9AE9Dj0FxGi/Cc74DKpvgu5
czfqH8+FjAqWXWjYb/ThrJ6SK+9OmxUh6xjm0zW5nFfuZK6s+71vSPeJp3/0P8Me
m0fOZ0lxnAkqurZYBlcN784wyKEgp8fpwJbGh6r6WxEyL343hJE3TwDrfnGkp8IR
rk8CAwEAAaOCAWswggFnMAkGA1UdEwQCMAAwLQYJYIZIAYb4QgENBCAWHkVhc3kt
UlNBIEdlbmVyYXRlZCBDZXJ0aWZpY2F0ZTAdBgNVHQ4EFgQUQ5FNLv2z7HtES0iX
8kwJU7HrQ/0wgekGA1UdIwSB4TCB3oAU7ziNFFBYp1tNnBdy/N+5rKdRsBChgbqk
gbcwgbQxCzAJBgNVBAYTAlVTMQswCQYDVQQIEwJDQTEVMBMGA1UEBxMMU2FuRnJh
bmNpc2NvMRUwEwYDVQQKEwxQaXhnbG8sIEluYy4xEDAOBgNVBAsTB1ZQTi1DSUUx
GjAYBgNVBAMTEXR1bm5lbC5waXhnbG8uY29tMRwwGgYDVQQpExNCYWxhIENoYW5k
cmFzZWthcmFuMR4wHAYJKoZIhvcNAQkBFg9iYWxhQHBpeGdsby5jb22CCQCm28aD
gOageTATBgNVHSUEDDAKBggrBgEFBQcDAjALBgNVHQ8EBAMCB4AwDQYJKoZIhvcN
AQEFBQADggIBAM8AuhsULzNbhq3yIPIbjbrzgw9obItdc7VaJbE0mb9diFmNItfC
gtGIhSCVPVz0MA5UbVl5Ed9MYDBbX4/p78vjvli1GN+leBbV1aSU9ALsj1EVx51u
7TAR84uPQ58EE7+rlyyeRNylmGukPqBhE67/GZhVq4X76tWX5hYSuv4cVtmHzrMe
c+1V7vGq9cOKRlHb2vULv3ex97VYy7KkxhfcQy0PGEEFynqOK6KUg4VaJQjHHlMt
rn4kgsRRLVYinanr19getTs4uQbCScjfR9MOiPvE1qmeBv2vY65gwn40s5GSOJ9Y
PDSjYyYtlKNMOWaZyosTiZIElOkUji3wD/fVNEABFPiKpn7BG8pZUoHRcDf1UN+9
lAjojPDOl9rWa/uaT6spuYu+apY4hgZWhJ+44n0W/i6XLTxArLhP5KUKLGdPRNqD
nFfL50w5rBnko5IUydr+kFgHemvxgIjg3Z2mpQR3z8snUxxqQeQgY42sHoxEss6O
gK9D1yg3kHPnJigYDpjstvMy1jzXpQTvfhjF/ahUHEa6DnQ9dntY8XOOlEpQUwhm
lYhMwr+y8WIHdGi5hYrV41m891kPrlka2Wyrk3omJCQCma2vBguuqGlep2NHQM4d
SiaU4//hWtCz7WRbncAywClEjHNHIdGEGzC0vFQ0ehgDf8t+e3ERArz4
-----END CERTIFICATE-----
