Certificate:
    Data:
        Version: 3 (0x2)
        Serial Number: 95 (0x5f)
    Signature Algorithm: sha1WithRSAEncryption
        Issuer: C=US, ST=CA, L=SanFrancisco, O=Pixglo, Inc., OU=VPN-CIE, CN=tunnel.pixglo.com/name=Bala Chandrasekaran/emailAddress=bala@pixglo.com
        Validity
            Not Before: Feb 14 06:25:32 2018 GMT
            Not After : Feb 12 06:25:32 2028 GMT
        Subject: C=US, ST=CA, L=SanFrancisco, O=Pixglo, Inc., OU=VPN-CIE, CN=cie94/name=Bala Chandrasekaran/emailAddress=bala@pixglo.com
        Subject Public Key Info:
            Public Key Algorithm: rsaEncryption
                Public-Key: (4096 bit)
                Modulus:
                    00:d4:be:60:60:b4:e7:c1:33:c4:85:fe:d2:cf:47:
                    8c:1e:e8:05:8c:2a:46:2b:16:9a:87:25:a0:16:3b:
                    b2:01:48:ce:40:8e:22:2c:27:ac:59:0c:a2:8b:02:
                    8c:78:c6:63:f1:64:ef:7c:85:08:90:57:ef:ef:0e:
                    01:6d:4c:5d:b3:56:00:ab:4d:e4:62:6f:a8:10:35:
                    bc:7b:3b:8f:83:7d:d2:05:c8:87:14:87:b4:50:c0:
                    18:4c:1f:33:67:d4:0d:6e:ec:39:20:02:3f:89:d5:
                    a7:fd:1a:41:20:05:8a:bd:a8:c2:02:42:9a:e8:39:
                    df:31:0d:c6:e2:7d:57:93:c8:a6:b6:c4:bc:c6:cf:
                    5d:ab:61:48:b3:14:6a:ea:81:ba:95:e5:fd:81:be:
                    3e:0d:2e:40:51:ed:d8:18:1b:c9:01:ed:fb:d9:2c:
                    df:57:16:ad:1b:3c:48:6f:76:9f:cb:d7:76:71:32:
                    e1:d2:68:8b:9d:f2:0a:ee:2c:30:27:7a:46:d9:4c:
                    12:cc:e9:ca:df:ce:ca:64:4c:21:69:74:d1:64:43:
                    9c:a2:a4:7b:a5:49:b3:57:3a:4b:c7:ab:d7:ee:0a:
                    3f:37:fe:10:ca:2c:d7:d9:44:ae:f1:94:78:6e:bd:
                    0e:d0:45:67:33:52:f3:ba:53:e8:4b:d7:90:4f:47:
                    83:87:b7:ee:72:6d:3e:43:48:ed:14:52:97:95:c7:
                    47:55:2d:ef:11:56:f9:ee:bd:35:0f:12:18:8a:75:
                    c5:26:7b:99:66:a3:a5:d1:9f:32:0b:ec:a7:2e:a3:
                    1a:92:18:6b:90:a7:1e:8f:05:ba:d6:40:aa:58:ca:
                    76:9c:ab:2e:17:a9:62:14:cb:a0:db:c2:58:7d:46:
                    8a:fc:79:66:c2:5d:6d:90:22:e6:79:e6:d9:3a:29:
                    c0:8f:b0:4a:c3:e9:35:11:10:f2:f2:d1:b7:25:ea:
                    a5:bf:e5:35:27:1b:00:c5:3b:d9:85:be:23:77:c2:
                    d6:d8:4a:0b:19:17:ad:1e:9f:96:38:3c:d3:06:10:
                    9a:c8:f0:12:64:d8:11:29:86:7d:f5:d3:1c:aa:7b:
                    32:d0:a4:86:4b:a1:83:3c:00:78:ff:18:53:c9:63:
                    f0:3c:3f:13:b0:ee:b7:f2:fc:e5:ab:65:ba:c9:f1:
                    a6:56:92:da:f7:04:23:48:34:3b:8c:40:2b:1c:44:
                    37:50:f8:78:0f:0c:cb:06:f8:1b:bc:02:d7:b6:57:
                    03:13:ab:75:cc:d6:ee:fd:49:3b:11:94:fd:7d:79:
                    8a:e9:9a:bb:47:8d:65:8e:93:cc:60:96:73:c6:50:
                    f5:0d:bc:72:a2:63:01:f7:79:ae:88:8b:47:e4:74:
                    8c:b7:c3
                Exponent: 65537 (0x10001)
        X509v3 extensions:
            X509v3 Basic Constraints: 
                CA:FALSE
            Netscape Comment: 
                Easy-RSA Generated Certificate
            X509v3 Subject Key Identifier: 
                56:C5:0C:79:63:9D:9C:92:B8:9D:87:51:D0:AF:E6:B7:9B:A4:5C:07
            X509v3 Authority Key Identifier: 
                keyid:EF:38:8D:14:50:58:A7:5B:4D:9C:17:72:FC:DF:B9:AC:A7:51:B0:10
                DirName:/C=US/ST=CA/L=SanFrancisco/O=Pixglo, Inc./OU=VPN-CIE/CN=tunnel.pixglo.com/name=Bala Chandrasekaran/emailAddress=bala@pixglo.com
                serial:A6:DB:C6:83:80:E6:A0:79

            X509v3 Extended Key Usage: 
                TLS Web Client Authentication
            X509v3 Key Usage: 
                Digital Signature
    Signature Algorithm: sha1WithRSAEncryption
         d9:8f:54:1f:db:47:79:df:c6:e3:92:f4:80:fb:73:ff:45:85:
         46:1f:91:ef:10:7f:71:d6:ec:bf:50:86:92:c3:f5:6d:a9:d0:
         07:53:c7:8f:ed:db:88:33:2b:57:88:f7:65:fb:73:9c:a4:bc:
         9d:4c:33:5d:7f:97:7d:20:22:9e:b2:fa:63:57:89:6c:6d:03:
         dc:68:aa:64:b8:1a:44:42:6d:ae:3a:a9:1d:b7:87:e0:d0:2c:
         01:fe:0b:4f:21:64:a3:70:7a:93:3f:0a:df:01:51:fd:64:30:
         51:c8:51:95:73:7a:8c:87:2e:97:d5:a9:21:66:2a:50:29:11:
         57:9d:c2:c7:ba:06:fd:20:68:af:43:33:db:9f:b7:ff:d0:1f:
         16:89:e2:e8:4c:bd:66:4b:43:46:82:19:de:a9:d6:61:9f:dc:
         4f:ea:1e:e5:9b:96:4b:58:77:fa:61:1d:35:af:61:ae:25:b4:
         8d:cd:4a:63:0e:34:86:77:ea:81:90:8b:ab:96:8b:17:fa:4c:
         a2:13:b4:1a:16:46:a2:42:4d:53:bf:3f:d4:e7:3c:a2:db:99:
         25:3d:82:34:55:bd:2f:c4:2d:ed:51:87:c0:2d:46:72:f3:10:
         0d:ee:e5:68:5c:5a:c6:78:1a:ff:7c:6e:20:8c:18:1d:aa:b6:
         f1:95:ae:19:49:a3:65:ca:20:b4:02:6b:8d:04:7d:53:5f:6c:
         f6:61:02:4b:27:a7:ae:53:e3:92:29:7a:5a:d3:1b:f5:28:c4:
         4f:cb:17:77:74:11:06:72:0a:e0:e4:dc:24:51:13:ed:d8:ae:
         e1:07:85:1b:29:f3:6d:5d:b1:6d:4a:44:e7:b1:d1:6e:64:05:
         36:e7:df:7e:da:62:59:69:d6:49:b6:8f:f6:b5:56:cc:0d:3d:
         cf:2e:ef:c7:ce:47:02:b1:99:e0:a7:28:83:3c:b0:12:05:ed:
         ec:1f:5d:cc:13:cb:76:51:09:a3:c4:3f:e2:6d:7d:8d:66:56:
         c5:88:ad:a7:b3:77:cd:71:a9:78:c3:5f:8e:aa:b9:6e:2d:8b:
         4f:a0:04:d3:da:cb:bd:20:b5:ef:5d:12:94:fb:20:84:c7:6f:
         b3:d5:30:36:91:6f:4f:3d:e8:6c:4a:13:ab:3c:21:61:f6:70:
         f9:2b:8c:c8:c6:f5:05:cc:82:91:1b:ff:0e:a6:0a:ce:61:49:
         fd:72:94:f9:ad:24:e1:d8:98:26:65:b5:df:13:92:a4:a4:ed:
         0a:34:68:f7:09:c3:07:fe:9c:a9:df:dc:72:11:b8:22:9c:55:
         98:a8:16:60:cc:12:e5:ba:a9:26:de:1a:d6:be:68:1d:7b:66:
         4e:11:13:8f:b9:de:c4:c9
-----BEGIN CERTIFICATE-----
MIIHRjCCBS6gAwIBAgIBXzANBgkqhkiG9w0BAQUFADCBtDELMAkGA1UEBhMCVVMx
CzAJBgNVBAgTAkNBMRUwEwYDVQQHEwxTYW5GcmFuY2lzY28xFTATBgNVBAoTDFBp
eGdsbywgSW5jLjEQMA4GA1UECxMHVlBOLUNJRTEaMBgGA1UEAxMRdHVubmVsLnBp
eGdsby5jb20xHDAaBgNVBCkTE0JhbGEgQ2hhbmRyYXNla2FyYW4xHjAcBgkqhkiG
9w0BCQEWD2JhbGFAcGl4Z2xvLmNvbTAeFw0xODAyMTQwNjI1MzJaFw0yODAyMTIw
NjI1MzJaMIGoMQswCQYDVQQGEwJVUzELMAkGA1UECBMCQ0ExFTATBgNVBAcTDFNh
bkZyYW5jaXNjbzEVMBMGA1UEChMMUGl4Z2xvLCBJbmMuMRAwDgYDVQQLEwdWUE4t
Q0lFMQ4wDAYDVQQDEwVjaWU5NDEcMBoGA1UEKRMTQmFsYSBDaGFuZHJhc2VrYXJh
bjEeMBwGCSqGSIb3DQEJARYPYmFsYUBwaXhnbG8uY29tMIICIjANBgkqhkiG9w0B
AQEFAAOCAg8AMIICCgKCAgEA1L5gYLTnwTPEhf7Sz0eMHugFjCpGKxaahyWgFjuy
AUjOQI4iLCesWQyiiwKMeMZj8WTvfIUIkFfv7w4BbUxds1YAq03kYm+oEDW8ezuP
g33SBciHFIe0UMAYTB8zZ9QNbuw5IAI/idWn/RpBIAWKvajCAkKa6DnfMQ3G4n1X
k8imtsS8xs9dq2FIsxRq6oG6leX9gb4+DS5AUe3YGBvJAe372SzfVxatGzxIb3af
y9d2cTLh0miLnfIK7iwwJ3pG2UwSzOnK387KZEwhaXTRZEOcoqR7pUmzVzpLx6vX
7go/N/4QyizX2USu8ZR4br0O0EVnM1LzulPoS9eQT0eDh7fucm0+Q0jtFFKXlcdH
VS3vEVb57r01DxIYinXFJnuZZqOl0Z8yC+ynLqMakhhrkKcejwW61kCqWMp2nKsu
F6liFMug28JYfUaK/Hlmwl1tkCLmeebZOinAj7BKw+k1ERDy8tG3Jeqlv+U1JxsA
xTvZhb4jd8LW2EoLGRetHp+WODzTBhCayPASZNgRKYZ99dMcqnsy0KSGS6GDPAB4
/xhTyWPwPD8TsO638vzlq2W6yfGmVpLa9wQjSDQ7jEArHEQ3UPh4DwzLBvgbvALX
tlcDE6t1zNbu/Uk7EZT9fXmK6Zq7R41ljpPMYJZzxlD1DbxyomMB93muiItH5HSM
t8MCAwEAAaOCAWswggFnMAkGA1UdEwQCMAAwLQYJYIZIAYb4QgENBCAWHkVhc3kt
UlNBIEdlbmVyYXRlZCBDZXJ0aWZpY2F0ZTAdBgNVHQ4EFgQUVsUMeWOdnJK4nYdR
0K/mt5ukXAcwgekGA1UdIwSB4TCB3oAU7ziNFFBYp1tNnBdy/N+5rKdRsBChgbqk
gbcwgbQxCzAJBgNVBAYTAlVTMQswCQYDVQQIEwJDQTEVMBMGA1UEBxMMU2FuRnJh
bmNpc2NvMRUwEwYDVQQKEwxQaXhnbG8sIEluYy4xEDAOBgNVBAsTB1ZQTi1DSUUx
GjAYBgNVBAMTEXR1bm5lbC5waXhnbG8uY29tMRwwGgYDVQQpExNCYWxhIENoYW5k
cmFzZWthcmFuMR4wHAYJKoZIhvcNAQkBFg9iYWxhQHBpeGdsby5jb22CCQCm28aD
gOageTATBgNVHSUEDDAKBggrBgEFBQcDAjALBgNVHQ8EBAMCB4AwDQYJKoZIhvcN
AQEFBQADggIBANmPVB/bR3nfxuOS9ID7c/9FhUYfke8Qf3HW7L9QhpLD9W2p0AdT
x4/t24gzK1eI92X7c5ykvJ1MM11/l30gIp6y+mNXiWxtA9xoqmS4GkRCba46qR23
h+DQLAH+C08hZKNwepM/Ct8BUf1kMFHIUZVzeoyHLpfVqSFmKlApEVedwse6Bv0g
aK9DM9uft//QHxaJ4uhMvWZLQ0aCGd6p1mGf3E/qHuWblktYd/phHTWvYa4ltI3N
SmMONIZ36oGQi6uWixf6TKITtBoWRqJCTVO/P9TnPKLbmSU9gjRVvS/ELe1Rh8At
RnLzEA3u5WhcWsZ4Gv98biCMGB2qtvGVrhlJo2XKILQCa40EfVNfbPZhAksnp65T
45IpelrTG/UoxE/LF3d0EQZyCuDk3CRRE+3YruEHhRsp821dsW1KROex0W5kBTbn
337aYllp1km2j/a1VswNPc8u78fORwKxmeCnKIM8sBIF7ewfXcwTy3ZRCaPEP+Jt
fY1mVsWIraezd81xqXjDX46quW4ti0+gBNPay70gte9dEpT7IITHb7PVMDaRb089
6GxKE6s8IWH2cPkrjMjG9QXMgpEb/w6mCs5hSf1ylPmtJOHYmCZltd8TkqSk7Qo0
aPcJwwf+nKnf3HIRuCKcVZioFmDMEuW6qSbeGta+aB17Zk4RE4+53sTJ
-----END CERTIFICATE-----
