Certificate:
    Data:
        Version: 3 (0x2)
        Serial Number: 99 (0x63)
    Signature Algorithm: sha1WithRSAEncryption
        Issuer: C=US, ST=CA, L=SanFrancisco, O=Pixglo, Inc., OU=VPN-CIE, CN=tunnel.pixglo.com/name=Bala Chandrasekaran/emailAddress=bala@pixglo.com
        Validity
            Not Before: Feb 14 06:25:36 2018 GMT
            Not After : Feb 12 06:25:36 2028 GMT
        Subject: C=US, ST=CA, L=SanFrancisco, O=Pixglo, Inc., OU=VPN-CIE, CN=cie98/name=Bala Chandrasekaran/emailAddress=bala@pixglo.com
        Subject Public Key Info:
            Public Key Algorithm: rsaEncryption
                Public-Key: (4096 bit)
                Modulus:
                    00:eb:85:73:77:cd:57:3f:89:11:fc:76:24:ef:ce:
                    97:17:9c:dc:1a:bd:78:bc:b3:c2:58:35:93:7e:7c:
                    66:63:cd:04:7e:45:b1:73:ef:be:da:0c:aa:12:14:
                    ac:55:ea:c4:ca:80:f8:4f:1c:1c:2d:22:62:19:3f:
                    46:6f:24:59:b9:96:8a:b3:40:97:73:81:e5:29:29:
                    9b:a8:5f:35:31:45:84:9e:f3:cf:b8:46:e5:48:3d:
                    1c:1b:e8:1d:8b:e0:99:4a:28:58:30:42:44:ee:95:
                    73:e6:91:d3:e6:f2:22:41:2c:24:b3:6b:2c:2d:a2:
                    ba:34:3a:53:79:e0:d7:f3:70:71:e7:c5:3c:77:12:
                    57:1d:fd:d5:da:4d:c9:99:a9:b0:3b:6c:ef:91:94:
                    c9:47:2a:13:9a:bf:0a:fc:6e:72:f1:0b:c4:4c:9d:
                    36:4d:88:64:29:43:4d:96:3c:8c:56:bd:3e:52:1e:
                    d6:86:31:d1:b1:71:e5:32:53:57:a3:31:a3:4d:1f:
                    0c:bc:95:68:69:e6:b5:e5:c4:3e:46:6f:dc:73:9f:
                    3c:3b:b5:99:af:11:71:61:c8:47:45:31:d6:60:aa:
                    88:b8:5e:bc:e0:4a:39:81:ad:f8:59:27:9d:06:da:
                    a6:e7:1e:4b:d9:03:42:00:d6:ef:7f:bb:84:23:8e:
                    8f:38:a2:c0:2d:94:4b:35:0e:07:f7:20:d9:c8:6e:
                    e2:3d:fb:b9:e9:08:86:72:42:d3:14:49:3f:83:c1:
                    70:31:d6:9d:13:22:64:f9:77:c5:9e:76:91:27:ed:
                    2a:b2:b5:7d:bb:80:3a:80:85:f5:d1:d1:c8:58:05:
                    b3:69:72:f9:6d:a4:dd:88:97:b0:4d:35:e3:a0:64:
                    59:3f:5c:f8:23:9b:2c:4b:90:5b:a3:38:06:54:48:
                    6f:e1:95:fb:9a:6e:b6:1f:28:7a:e6:27:7e:32:e2:
                    b4:6e:01:2d:1a:65:c8:70:be:3a:65:36:c4:aa:34:
                    0b:b3:13:20:98:6c:a7:61:9e:81:85:c9:01:15:d4:
                    76:bd:01:ec:20:91:09:c3:13:0e:57:5b:52:ad:9a:
                    37:10:00:46:20:d3:b5:5a:32:f6:1f:5c:2a:9e:d4:
                    73:9b:d8:18:48:9b:2f:cc:47:75:f2:b0:54:ac:ef:
                    db:48:a7:aa:d1:61:ae:74:2a:90:a4:d7:18:ad:70:
                    dc:fb:fc:0e:b0:23:a7:55:c9:83:a2:f5:2f:50:0d:
                    ca:a0:57:a3:f8:91:87:da:ca:7a:f6:98:fd:e3:ef:
                    42:78:b6:ee:a3:53:7c:2b:98:51:a7:e6:c1:0e:36:
                    f3:f4:19:0c:05:86:eb:bc:e4:90:ae:01:3b:1c:7e:
                    27:82:9d
                Exponent: 65537 (0x10001)
        X509v3 extensions:
            X509v3 Basic Constraints: 
                CA:FALSE
            Netscape Comment: 
                Easy-RSA Generated Certificate
            X509v3 Subject Key Identifier: 
                8F:D7:13:AF:3E:ED:E4:89:01:08:C0:43:19:BB:29:5E:7F:47:CD:75
            X509v3 Authority Key Identifier: 
                keyid:EF:38:8D:14:50:58:A7:5B:4D:9C:17:72:FC:DF:B9:AC:A7:51:B0:10
                DirName:/C=US/ST=CA/L=SanFrancisco/O=Pixglo, Inc./OU=VPN-CIE/CN=tunnel.pixglo.com/name=Bala Chandrasekaran/emailAddress=bala@pixglo.com
                serial:A6:DB:C6:83:80:E6:A0:79

            X509v3 Extended Key Usage: 
                TLS Web Client Authentication
            X509v3 Key Usage: 
                Digital Signature
    Signature Algorithm: sha1WithRSAEncryption
         62:5d:0e:86:d6:3d:63:ce:79:bc:9d:43:ab:a1:ec:ff:3a:6b:
         43:30:20:f1:67:61:21:5b:56:17:c8:8d:e1:34:91:ea:68:d9:
         96:6d:a0:42:08:20:73:ad:79:19:41:f9:48:70:bf:b9:83:bd:
         31:c9:d8:3c:75:fe:5a:22:0b:82:64:3d:a4:83:79:70:b5:7b:
         de:5e:b2:14:3f:89:f6:72:49:93:d3:26:d7:a4:ed:6f:ec:03:
         9d:7d:9d:a4:32:e9:b7:5b:8f:98:92:49:be:27:44:4a:d7:88:
         92:d6:37:db:ed:dc:53:f0:19:7a:49:2f:75:a8:92:58:38:aa:
         5f:ef:42:44:3d:68:10:54:82:90:af:47:1d:47:19:d3:f4:a8:
         03:d9:33:4b:49:bb:ad:e4:03:66:e8:23:35:91:b8:bc:e3:7c:
         b6:c0:76:23:38:b3:0c:dc:e8:57:cb:ea:af:bd:e6:42:58:df:
         10:69:b6:75:e5:7c:db:79:e5:12:8b:2f:c4:7d:2e:bb:84:16:
         f2:c2:5f:9e:9c:72:3a:8d:f6:8e:eb:31:0b:98:bd:99:cc:1b:
         f9:6e:7d:e4:8f:01:e8:1d:47:0b:05:2e:a5:e3:37:68:20:5b:
         ac:41:78:76:e1:9a:2e:be:a3:f1:90:91:68:f8:82:1c:bc:0b:
         14:e8:34:4e:25:23:b4:06:89:fd:16:46:da:ca:96:74:c9:42:
         6c:97:bf:b0:2b:52:49:76:de:6a:c2:f1:0d:a0:fb:fe:6b:11:
         5d:0b:5f:63:dc:3c:5c:a0:96:aa:8d:b3:93:97:38:7b:8c:2a:
         d6:1a:fa:a6:26:af:47:95:c6:88:58:fe:a2:d5:ba:6e:84:59:
         5e:07:64:00:7d:f1:e5:56:1e:f6:3d:92:a9:74:6c:14:5e:77:
         14:a7:4e:af:53:4d:a8:f1:29:fe:c8:f0:04:77:64:76:23:1d:
         bb:49:e1:0a:e7:3a:9b:1c:87:77:2f:93:8c:68:a4:0d:11:76:
         35:be:2e:5b:2d:63:9f:03:74:31:a2:74:ab:ce:b7:93:bc:49:
         7e:02:19:ee:d9:89:d0:e0:4a:10:49:d7:75:44:46:97:e8:a2:
         15:43:b1:cb:83:83:d8:f5:38:2e:8d:7a:35:4b:2e:a2:86:4a:
         24:d5:4a:85:8c:44:60:0f:e2:b9:bd:16:27:67:92:43:0f:c6:
         1a:bf:7d:2f:a3:b8:f3:1e:93:1b:a5:05:d8:d9:4c:d0:2d:bb:
         a1:29:f3:58:f7:3a:77:e1:dd:e7:43:ef:8e:54:5b:b0:c3:99:
         02:b6:ed:97:e0:08:06:25:d8:a0:11:32:26:6e:f9:a5:b2:d4:
         05:9a:8b:34:89:53:f7:49
-----BEGIN CERTIFICATE-----
MIIHRjCCBS6gAwIBAgIBYzANBgkqhkiG9w0BAQUFADCBtDELMAkGA1UEBhMCVVMx
CzAJBgNVBAgTAkNBMRUwEwYDVQQHEwxTYW5GcmFuY2lzY28xFTATBgNVBAoTDFBp
eGdsbywgSW5jLjEQMA4GA1UECxMHVlBOLUNJRTEaMBgGA1UEAxMRdHVubmVsLnBp
eGdsby5jb20xHDAaBgNVBCkTE0JhbGEgQ2hhbmRyYXNla2FyYW4xHjAcBgkqhkiG
9w0BCQEWD2JhbGFAcGl4Z2xvLmNvbTAeFw0xODAyMTQwNjI1MzZaFw0yODAyMTIw
NjI1MzZaMIGoMQswCQYDVQQGEwJVUzELMAkGA1UECBMCQ0ExFTATBgNVBAcTDFNh
bkZyYW5jaXNjbzEVMBMGA1UEChMMUGl4Z2xvLCBJbmMuMRAwDgYDVQQLEwdWUE4t
Q0lFMQ4wDAYDVQQDEwVjaWU5ODEcMBoGA1UEKRMTQmFsYSBDaGFuZHJhc2VrYXJh
bjEeMBwGCSqGSIb3DQEJARYPYmFsYUBwaXhnbG8uY29tMIICIjANBgkqhkiG9w0B
AQEFAAOCAg8AMIICCgKCAgEA64Vzd81XP4kR/HYk786XF5zcGr14vLPCWDWTfnxm
Y80EfkWxc+++2gyqEhSsVerEyoD4TxwcLSJiGT9GbyRZuZaKs0CXc4HlKSmbqF81
MUWEnvPPuEblSD0cG+gdi+CZSihYMEJE7pVz5pHT5vIiQSwks2ssLaK6NDpTeeDX
83Bx58U8dxJXHf3V2k3JmamwO2zvkZTJRyoTmr8K/G5y8QvETJ02TYhkKUNNljyM
Vr0+Uh7WhjHRsXHlMlNXozGjTR8MvJVoaea15cQ+Rm/cc588O7WZrxFxYchHRTHW
YKqIuF684Eo5ga34WSedBtqm5x5L2QNCANbvf7uEI46POKLALZRLNQ4H9yDZyG7i
Pfu56QiGckLTFEk/g8FwMdadEyJk+XfFnnaRJ+0qsrV9u4A6gIX10dHIWAWzaXL5
baTdiJewTTXjoGRZP1z4I5ssS5BbozgGVEhv4ZX7mm62Hyh65id+MuK0bgEtGmXI
cL46ZTbEqjQLsxMgmGynYZ6BhckBFdR2vQHsIJEJwxMOV1tSrZo3EABGINO1WjL2
H1wqntRzm9gYSJsvzEd18rBUrO/bSKeq0WGudCqQpNcYrXDc+/wOsCOnVcmDovUv
UA3KoFej+JGH2sp69pj94+9CeLbuo1N8K5hRp+bBDjbz9BkMBYbrvOSQrgE7HH4n
gp0CAwEAAaOCAWswggFnMAkGA1UdEwQCMAAwLQYJYIZIAYb4QgENBCAWHkVhc3kt
UlNBIEdlbmVyYXRlZCBDZXJ0aWZpY2F0ZTAdBgNVHQ4EFgQUj9cTrz7t5IkBCMBD
GbspXn9HzXUwgekGA1UdIwSB4TCB3oAU7ziNFFBYp1tNnBdy/N+5rKdRsBChgbqk
gbcwgbQxCzAJBgNVBAYTAlVTMQswCQYDVQQIEwJDQTEVMBMGA1UEBxMMU2FuRnJh
bmNpc2NvMRUwEwYDVQQKEwxQaXhnbG8sIEluYy4xEDAOBgNVBAsTB1ZQTi1DSUUx
GjAYBgNVBAMTEXR1bm5lbC5waXhnbG8uY29tMRwwGgYDVQQpExNCYWxhIENoYW5k
cmFzZWthcmFuMR4wHAYJKoZIhvcNAQkBFg9iYWxhQHBpeGdsby5jb22CCQCm28aD
gOageTATBgNVHSUEDDAKBggrBgEFBQcDAjALBgNVHQ8EBAMCB4AwDQYJKoZIhvcN
AQEFBQADggIBAGJdDobWPWPOebydQ6uh7P86a0MwIPFnYSFbVhfIjeE0kepo2ZZt
oEIIIHOteRlB+Uhwv7mDvTHJ2Dx1/loiC4JkPaSDeXC1e95eshQ/ifZySZPTJtek
7W/sA519naQy6bdbj5iSSb4nRErXiJLWN9vt3FPwGXpJL3Woklg4ql/vQkQ9aBBU
gpCvRx1HGdP0qAPZM0tJu63kA2boIzWRuLzjfLbAdiM4swzc6FfL6q+95kJY3xBp
tnXlfNt55RKLL8R9LruEFvLCX56ccjqN9o7rMQuYvZnMG/lufeSPAegdRwsFLqXj
N2ggW6xBeHbhmi6+o/GQkWj4ghy8CxToNE4lI7QGif0WRtrKlnTJQmyXv7ArUkl2
3mrC8Q2g+/5rEV0LX2PcPFyglqqNs5OXOHuMKtYa+qYmr0eVxohY/qLVum6EWV4H
ZAB98eVWHvY9kql0bBRedxSnTq9TTajxKf7I8AR3ZHYjHbtJ4QrnOpsch3cvk4xo
pA0RdjW+LlstY58DdDGidKvOt5O8SX4CGe7ZidDgShBJ13VERpfoohVDscuDg9j1
OC6NejVLLqKGSiTVSoWMRGAP4rm9FidnkkMPxhq/fS+juPMekxulBdjZTNAtu6Ep
81j3Onfh3edD745UW7DDmQK27ZfgCAYl2KARMiZu+aWy1AWaizSJU/dJ
-----END CERTIFICATE-----
