Certificate:
    Data:
        Version: 3 (0x2)
        Serial Number: 101 (0x65)
    Signature Algorithm: sha1WithRSAEncryption
        Issuer: C=US, ST=CA, L=SanFrancisco, O=Pixglo, Inc., OU=VPN-CIE, CN=tunnel.pixglo.com/name=Bala Chandrasekaran/emailAddress=bala@pixglo.com
        Validity
            Not Before: Feb 14 06:25:38 2018 GMT
            Not After : Feb 12 06:25:38 2028 GMT
        Subject: C=US, ST=CA, L=SanFrancisco, O=Pixglo, Inc., OU=VPN-CIE, CN=cie100/name=Bala Chandrasekaran/emailAddress=bala@pixglo.com
        Subject Public Key Info:
            Public Key Algorithm: rsaEncryption
                Public-Key: (4096 bit)
                Modulus:
                    00:c3:b8:2c:41:78:25:d6:61:3b:f4:96:d8:ee:ac:
                    7c:6e:03:bb:2f:58:7f:d8:d6:28:33:0c:d8:bf:41:
                    42:46:36:37:a6:03:7f:4b:a9:ba:66:89:8e:a5:aa:
                    22:4c:5b:5b:2c:14:5c:dc:33:97:06:33:04:a5:84:
                    53:3d:4d:88:55:32:f7:35:1c:fb:ed:47:70:f1:19:
                    4a:65:db:f8:e3:3d:28:d3:4f:8e:0e:f5:28:28:19:
                    22:de:be:b0:8e:ca:52:87:11:f8:ea:63:09:51:1a:
                    1a:d9:bb:e2:ea:ed:af:e1:2e:3e:98:9d:37:6b:66:
                    cd:ab:33:24:36:b8:49:8b:99:b0:f9:a3:7a:19:59:
                    06:75:20:ee:e3:08:34:f4:f0:b5:a8:75:51:36:f9:
                    43:9a:27:30:cd:d7:b8:46:88:2e:d2:11:06:43:e1:
                    17:09:ce:4d:6e:83:ef:07:29:4b:22:7c:6a:43:05:
                    42:6a:78:74:a3:a2:97:9f:fd:17:d8:f4:87:86:ae:
                    e0:f5:80:2e:e4:00:09:1c:01:ce:8a:1f:79:ec:c6:
                    2b:c6:9f:51:b9:f0:34:b8:b3:ca:45:3f:fd:74:8b:
                    ad:7c:17:49:90:91:96:91:0f:96:dd:d7:58:32:ed:
                    95:38:18:15:b5:43:6d:8b:48:33:06:44:dd:83:1d:
                    be:5b:15:b2:97:f7:97:26:94:82:07:67:e9:e8:81:
                    01:fd:ed:69:9f:61:9c:f8:ac:8d:e5:3a:33:24:12:
                    b5:5c:0a:f2:89:94:11:a8:6c:07:e5:21:be:f1:8d:
                    0d:56:e7:f1:12:8c:61:66:f5:32:00:ea:b2:b0:42:
                    c3:82:0e:35:32:71:ea:fa:b2:90:c8:32:a4:ea:7f:
                    fe:35:70:bf:5b:17:9a:f8:f2:24:ec:1a:16:fb:7d:
                    cc:64:49:43:57:8b:43:fe:d2:bf:82:9b:4a:b7:55:
                    e3:41:4d:37:40:0e:18:8d:f5:dd:8b:8a:66:09:6f:
                    18:a8:ed:53:8c:63:ca:83:01:a2:39:1c:a8:04:a8:
                    56:60:36:d3:fd:2a:e0:68:e5:cb:3e:16:46:f5:71:
                    85:eb:ca:94:04:a2:b6:85:13:2f:fd:67:28:21:68:
                    1b:f1:55:92:53:24:94:b3:ea:01:9a:47:af:64:e8:
                    98:79:bb:c4:26:1b:c3:08:cd:9a:0a:44:0e:9c:c3:
                    0a:5f:15:ad:0d:f5:e4:73:64:8b:a8:cb:58:bb:77:
                    f1:a7:07:b2:ab:da:9d:4a:2e:86:b1:ab:48:72:da:
                    64:06:1e:1d:44:8f:00:dc:6e:0e:b2:95:22:72:08:
                    31:31:de:6f:eb:82:9f:da:5c:fa:ee:3e:26:eb:aa:
                    62:08:f9
                Exponent: 65537 (0x10001)
        X509v3 extensions:
            X509v3 Basic Constraints: 
                CA:FALSE
            Netscape Comment: 
                Easy-RSA Generated Certificate
            X509v3 Subject Key Identifier: 
                3D:21:C9:0F:AE:44:13:15:58:89:EB:59:B4:5A:3E:92:E6:71:79:AE
            X509v3 Authority Key Identifier: 
                keyid:EF:38:8D:14:50:58:A7:5B:4D:9C:17:72:FC:DF:B9:AC:A7:51:B0:10
                DirName:/C=US/ST=CA/L=SanFrancisco/O=Pixglo, Inc./OU=VPN-CIE/CN=tunnel.pixglo.com/name=Bala Chandrasekaran/emailAddress=bala@pixglo.com
                serial:A6:DB:C6:83:80:E6:A0:79

            X509v3 Extended Key Usage: 
                TLS Web Client Authentication
            X509v3 Key Usage: 
                Digital Signature
    Signature Algorithm: sha1WithRSAEncryption
         8e:5c:f0:0e:11:6e:10:ee:2c:83:60:c5:89:11:62:9b:0f:5b:
         e4:ae:1f:8e:3d:08:a0:82:6d:8a:0a:cf:65:7f:3d:58:b9:31:
         47:ff:b4:c3:1f:56:79:77:05:8d:19:31:0c:04:3a:40:95:ea:
         ac:32:46:9e:6c:12:d5:08:47:09:f7:48:ff:e3:bc:ce:69:00:
         00:e5:93:46:94:c3:c9:69:b2:1e:4d:24:3f:c1:31:65:28:14:
         87:4e:d5:b4:34:12:8f:d9:a5:49:70:d6:8a:7d:4d:42:4e:9f:
         b7:e9:fc:0e:1c:16:1d:d8:94:7a:22:97:6d:80:b3:cc:68:f4:
         22:6f:01:44:40:fc:bd:5e:d0:c8:2f:6d:80:96:e2:7c:87:4c:
         6a:e9:a1:aa:4f:b8:94:bf:6d:b1:78:98:99:2d:15:8b:bc:12:
         07:75:d6:1a:35:f7:91:44:4d:9d:b1:fb:54:a4:e3:3c:df:d9:
         8b:2c:ce:64:9b:70:e2:b5:d0:cd:06:0d:28:a7:1e:a1:a8:91:
         09:d7:58:3e:0d:65:2c:ad:74:43:57:7c:d0:b8:04:f2:6d:90:
         bb:ea:94:05:86:44:6f:2d:26:b3:dd:8e:35:4a:17:a8:fc:09:
         56:ab:1d:6d:e3:34:cd:38:ba:a2:02:22:04:ec:73:2a:53:f4:
         22:c4:d1:31:19:6e:55:c6:bd:eb:5a:05:8a:7b:ea:47:60:ca:
         92:1b:9d:46:1b:48:58:6c:20:51:44:ae:c2:eb:f6:c6:84:22:
         2b:20:4f:75:c8:28:31:02:6c:55:1f:ed:cf:b6:64:28:77:b6:
         e1:7c:8f:fb:49:54:45:34:1d:71:00:c2:bf:b8:53:1b:20:74:
         d9:ce:bf:61:98:5a:59:b8:96:1a:5d:80:20:ea:1a:a8:08:0f:
         1b:e9:fb:c1:44:71:01:bc:b9:73:4d:8f:67:cb:5b:86:09:89:
         f3:e8:2a:fc:32:17:7f:0b:be:27:56:bf:c2:3e:82:3a:d2:00:
         76:78:c6:bc:5a:ea:93:5b:1f:65:1e:06:97:a2:0c:21:d6:e9:
         04:bf:72:d9:d4:05:04:aa:3f:ce:86:7e:92:c7:00:2f:4d:4a:
         9e:76:50:e5:20:28:76:7b:6a:28:a7:19:16:24:63:6c:4e:b5:
         b0:28:8a:f1:48:e8:3f:31:b6:b4:43:d5:d4:10:22:ef:18:ac:
         45:12:2b:b1:12:a1:b0:1b:74:85:96:94:09:bc:ac:00:63:59:
         ce:2b:d3:8a:2a:a2:1b:ce:2b:12:2f:25:02:85:78:38:62:89:
         19:14:e8:2d:d2:3c:85:21:bd:b3:ce:f2:8a:47:e1:7a:c2:ca:
         33:92:e5:92:c3:40:45:b2
-----BEGIN CERTIFICATE-----
MIIHRzCCBS+gAwIBAgIBZTANBgkqhkiG9w0BAQUFADCBtDELMAkGA1UEBhMCVVMx
CzAJBgNVBAgTAkNBMRUwEwYDVQQHEwxTYW5GcmFuY2lzY28xFTATBgNVBAoTDFBp
eGdsbywgSW5jLjEQMA4GA1UECxMHVlBOLUNJRTEaMBgGA1UEAxMRdHVubmVsLnBp
eGdsby5jb20xHDAaBgNVBCkTE0JhbGEgQ2hhbmRyYXNla2FyYW4xHjAcBgkqhkiG
9w0BCQEWD2JhbGFAcGl4Z2xvLmNvbTAeFw0xODAyMTQwNjI1MzhaFw0yODAyMTIw
NjI1MzhaMIGpMQswCQYDVQQGEwJVUzELMAkGA1UECBMCQ0ExFTATBgNVBAcTDFNh
bkZyYW5jaXNjbzEVMBMGA1UEChMMUGl4Z2xvLCBJbmMuMRAwDgYDVQQLEwdWUE4t
Q0lFMQ8wDQYDVQQDEwZjaWUxMDAxHDAaBgNVBCkTE0JhbGEgQ2hhbmRyYXNla2Fy
YW4xHjAcBgkqhkiG9w0BCQEWD2JhbGFAcGl4Z2xvLmNvbTCCAiIwDQYJKoZIhvcN
AQEBBQADggIPADCCAgoCggIBAMO4LEF4JdZhO/SW2O6sfG4Duy9Yf9jWKDMM2L9B
QkY2N6YDf0upumaJjqWqIkxbWywUXNwzlwYzBKWEUz1NiFUy9zUc++1HcPEZSmXb
+OM9KNNPjg71KCgZIt6+sI7KUocR+OpjCVEaGtm74urtr+EuPpidN2tmzaszJDa4
SYuZsPmjehlZBnUg7uMINPTwtah1UTb5Q5onMM3XuEaILtIRBkPhFwnOTW6D7wcp
SyJ8akMFQmp4dKOil5/9F9j0h4au4PWALuQACRwBzoofeezGK8afUbnwNLizykU/
/XSLrXwXSZCRlpEPlt3XWDLtlTgYFbVDbYtIMwZE3YMdvlsVspf3lyaUggdn6eiB
Af3taZ9hnPisjeU6MyQStVwK8omUEahsB+UhvvGNDVbn8RKMYWb1MgDqsrBCw4IO
NTJx6vqykMgypOp//jVwv1sXmvjyJOwaFvt9zGRJQ1eLQ/7Sv4KbSrdV40FNN0AO
GI313YuKZglvGKjtU4xjyoMBojkcqASoVmA20/0q4Gjlyz4WRvVxhevKlASitoUT
L/1nKCFoG/FVklMklLPqAZpHr2TomHm7xCYbwwjNmgpEDpzDCl8VrQ315HNki6jL
WLt38acHsqvanUouhrGrSHLaZAYeHUSPANxuDrKVInIIMTHeb+uCn9pc+u4+Juuq
Ygj5AgMBAAGjggFrMIIBZzAJBgNVHRMEAjAAMC0GCWCGSAGG+EIBDQQgFh5FYXN5
LVJTQSBHZW5lcmF0ZWQgQ2VydGlmaWNhdGUwHQYDVR0OBBYEFD0hyQ+uRBMVWInr
WbRaPpLmcXmuMIHpBgNVHSMEgeEwgd6AFO84jRRQWKdbTZwXcvzfuaynUbAQoYG6
pIG3MIG0MQswCQYDVQQGEwJVUzELMAkGA1UECBMCQ0ExFTATBgNVBAcTDFNhbkZy
YW5jaXNjbzEVMBMGA1UEChMMUGl4Z2xvLCBJbmMuMRAwDgYDVQQLEwdWUE4tQ0lF
MRowGAYDVQQDExF0dW5uZWwucGl4Z2xvLmNvbTEcMBoGA1UEKRMTQmFsYSBDaGFu
ZHJhc2VrYXJhbjEeMBwGCSqGSIb3DQEJARYPYmFsYUBwaXhnbG8uY29tggkAptvG
g4DmoHkwEwYDVR0lBAwwCgYIKwYBBQUHAwIwCwYDVR0PBAQDAgeAMA0GCSqGSIb3
DQEBBQUAA4ICAQCOXPAOEW4Q7iyDYMWJEWKbD1vkrh+OPQiggm2KCs9lfz1YuTFH
/7TDH1Z5dwWNGTEMBDpAleqsMkaebBLVCEcJ90j/47zOaQAA5ZNGlMPJabIeTSQ/
wTFlKBSHTtW0NBKP2aVJcNaKfU1CTp+36fwOHBYd2JR6IpdtgLPMaPQibwFEQPy9
XtDIL22AluJ8h0xq6aGqT7iUv22xeJiZLRWLvBIHddYaNfeRRE2dsftUpOM839mL
LM5km3DitdDNBg0opx6hqJEJ11g+DWUsrXRDV3zQuATybZC76pQFhkRvLSaz3Y41
Sheo/AlWqx1t4zTNOLqiAiIE7HMqU/QixNExGW5Vxr3rWgWKe+pHYMqSG51GG0hY
bCBRRK7C6/bGhCIrIE91yCgxAmxVH+3PtmQod7bhfI/7SVRFNB1xAMK/uFMbIHTZ
zr9hmFpZuJYaXYAg6hqoCA8b6fvBRHEBvLlzTY9ny1uGCYnz6Cr8Mhd/C74nVr/C
PoI60gB2eMa8WuqTWx9lHgaXogwh1ukEv3LZ1AUEqj/Ohn6SxwAvTUqedlDlICh2
e2oopxkWJGNsTrWwKIrxSOg/Mba0Q9XUECLvGKxFEiuxEqGwG3SFlpQJvKwAY1nO
K9OKKqIbzisSLyUChXg4YokZFOgt0jyFIb2zzvKKR+F6wsozkuWSw0BFsg==
-----END CERTIFICATE-----
