Certificate:
    Data:
        Version: 3 (0x2)
        Serial Number: 102 (0x66)
    Signature Algorithm: sha1WithRSAEncryption
        Issuer: C=US, ST=CA, L=SanFrancisco, O=Pixglo, Inc., OU=VPN-CIE, CN=tunnel.pixglo.com/name=Bala Chandrasekaran/emailAddress=bala@pixglo.com
        Validity
            Not Before: Feb 14 06:25:40 2018 GMT
            Not After : Feb 12 06:25:40 2028 GMT
        Subject: C=US, ST=CA, L=SanFrancisco, O=Pixglo, Inc., OU=VPN-CIE, CN=cie101/name=Bala Chandrasekaran/emailAddress=bala@pixglo.com
        Subject Public Key Info:
            Public Key Algorithm: rsaEncryption
                Public-Key: (4096 bit)
                Modulus:
                    00:ab:cb:42:3f:7b:8f:14:1d:7c:54:5d:8c:59:3c:
                    8c:e0:af:dd:e7:31:2b:3c:87:57:41:8d:5c:cd:9b:
                    b1:0e:0c:2a:a1:4d:c3:c2:df:c5:1f:af:c8:76:c4:
                    41:de:69:26:17:83:e0:d4:2b:59:80:90:6f:56:b9:
                    89:82:44:87:56:0c:bd:b0:7e:ac:6e:a9:94:5d:5f:
                    bf:74:4c:e1:37:f7:f2:d9:d4:d2:dd:8f:e0:02:7c:
                    68:c4:d7:b0:94:c6:13:06:13:5a:68:4c:e1:49:2a:
                    d7:a8:d0:99:53:d8:08:ff:37:0f:9c:88:0c:17:7c:
                    5c:d1:91:7d:5d:26:18:02:f2:fd:2d:61:0b:4b:c0:
                    7d:15:c2:95:34:e0:fb:a4:c3:7c:99:e9:74:f1:92:
                    2a:f4:62:15:77:ff:57:36:81:b2:0d:ea:75:da:f2:
                    98:fb:53:98:60:8d:ad:6f:44:d9:8d:17:59:fb:cf:
                    22:ab:a0:40:6c:0e:63:08:74:5a:94:dd:b9:90:8e:
                    6a:61:21:2f:64:f6:b8:85:02:80:f0:a8:84:dd:f2:
                    9c:c3:d5:9b:b9:c1:30:43:14:f6:4e:e2:66:b8:e1:
                    13:ef:0b:54:e9:78:04:ce:73:9e:b3:c4:cc:27:70:
                    c2:4a:c2:80:57:13:6d:ea:11:bb:71:aa:a3:a1:10:
                    f1:21:0e:02:2e:b6:9a:88:ae:5e:db:17:b0:d3:a9:
                    a3:78:c4:b2:6d:08:3d:7e:92:37:96:b7:bb:18:55:
                    fa:61:59:23:d6:1b:a8:eb:e2:ee:53:3f:f4:f9:b8:
                    d6:c8:93:a5:15:5e:55:fd:22:3b:d4:fa:57:f5:38:
                    5a:80:d6:fa:c9:ae:c6:86:ad:00:cc:be:95:8e:6a:
                    ab:67:11:45:87:bb:66:19:c2:a7:5d:bf:04:a4:68:
                    e5:44:68:4d:1d:75:fb:8b:76:d1:c5:4f:d7:43:de:
                    7f:24:6f:fa:e5:e3:d5:93:00:6a:74:6d:79:bb:f1:
                    c7:87:c0:2d:7f:04:a3:97:1d:fe:76:7a:ad:2c:5c:
                    21:2c:dc:63:01:ae:13:ff:4e:99:5d:ef:e9:70:4d:
                    9f:8d:b9:f5:59:7f:1f:52:45:03:b9:c3:3f:a8:f3:
                    a9:88:b0:94:a7:58:89:45:74:15:7a:3f:01:88:2c:
                    df:21:9a:e0:58:ec:c9:37:98:11:8b:99:45:1a:52:
                    72:0a:6d:65:71:22:19:8b:7b:ac:43:15:6d:f9:e1:
                    d3:33:81:6c:49:65:96:d7:91:64:ea:e3:40:cf:15:
                    86:4f:06:54:80:69:db:f7:03:a6:3b:43:ad:b6:30:
                    74:10:77:98:a7:4a:e4:c8:90:80:a0:7e:65:ff:ea:
                    a5:13:af
                Exponent: 65537 (0x10001)
        X509v3 extensions:
            X509v3 Basic Constraints: 
                CA:FALSE
            Netscape Comment: 
                Easy-RSA Generated Certificate
            X509v3 Subject Key Identifier: 
                95:EE:24:76:27:69:25:BD:8F:A7:62:42:3A:B3:51:90:5C:F8:B1:B1
            X509v3 Authority Key Identifier: 
                keyid:EF:38:8D:14:50:58:A7:5B:4D:9C:17:72:FC:DF:B9:AC:A7:51:B0:10
                DirName:/C=US/ST=CA/L=SanFrancisco/O=Pixglo, Inc./OU=VPN-CIE/CN=tunnel.pixglo.com/name=Bala Chandrasekaran/emailAddress=bala@pixglo.com
                serial:A6:DB:C6:83:80:E6:A0:79

            X509v3 Extended Key Usage: 
                TLS Web Client Authentication
            X509v3 Key Usage: 
                Digital Signature
    Signature Algorithm: sha1WithRSAEncryption
         d0:8c:5e:d9:15:0c:91:30:88:62:9c:00:82:db:08:e8:eb:0e:
         72:a9:7e:f5:6e:5e:b6:c4:94:e5:d3:4e:76:e5:f6:a6:61:8a:
         3f:47:a0:0c:3b:b9:5d:f6:8d:9c:e8:a5:c4:fb:88:e8:36:f6:
         5d:26:7f:0e:62:ec:21:67:5c:97:cc:0b:99:db:29:b4:05:2b:
         7b:2c:46:1f:a0:56:5c:c1:e8:c2:18:17:6f:c1:b6:68:1f:27:
         44:1d:a1:8c:fb:dc:11:97:08:7c:29:c6:f2:9b:2d:7e:d2:ab:
         10:0d:bc:4d:b1:5d:d2:bd:46:bc:6d:6b:23:32:cd:a1:32:ca:
         70:02:c2:d1:dd:8e:49:4b:0e:69:9f:f5:91:b4:a8:d9:07:e0:
         3d:79:6a:14:18:07:7b:16:c1:df:41:65:1a:47:e6:29:63:12:
         03:3a:31:cc:57:0c:c9:01:14:7c:83:0f:ee:29:ed:e9:f3:db:
         40:53:32:ea:c0:56:a1:db:20:4d:49:5e:80:30:37:9e:e9:4f:
         76:41:4e:7c:04:0f:f3:51:fc:9e:b0:1c:15:38:99:05:4a:c2:
         5e:79:97:9d:9b:2f:22:b8:df:1f:a0:3c:0f:af:9d:bc:39:da:
         ef:0e:29:ff:12:8d:34:9b:fb:c3:5f:5d:5a:99:be:2b:9a:45:
         0d:3c:59:89:7a:cd:25:31:ce:d0:14:3d:a3:dd:4e:a1:72:05:
         16:00:24:b0:8f:86:f6:d6:c5:4a:0b:54:b9:1a:23:f5:d3:c5:
         a4:96:0b:fc:71:08:6b:2a:ba:f3:a1:1b:ff:80:a0:d0:45:12:
         75:41:24:7f:bd:ff:aa:07:b0:e1:ad:c9:72:97:02:23:76:f9:
         f1:d9:38:c3:51:40:b5:49:0e:5a:a1:21:8d:d7:91:86:35:40:
         3e:78:94:ef:82:4d:41:c1:b7:0d:0a:28:7b:1c:75:98:c8:65:
         7d:a5:a7:f5:0a:dc:59:1f:b0:54:a3:76:fa:ff:34:09:f5:27:
         74:09:96:4a:5d:f0:4d:6a:2d:21:23:97:ba:86:04:eb:1c:80:
         df:8e:6e:20:9f:50:ec:3c:ce:e0:ea:b4:96:e5:c7:21:db:f1:
         a2:7e:43:b9:b0:1c:48:62:36:8f:12:24:3e:3b:65:11:5d:87:
         fd:58:9d:70:89:00:84:e4:27:4c:91:c4:bf:67:f1:10:cf:46:
         b8:c2:e2:1f:9e:bc:f6:9f:de:14:4b:1a:86:0b:b1:2e:71:77:
         8b:99:c0:f5:04:08:00:74:15:ea:20:75:eb:1e:b9:58:94:be:
         ec:c9:7f:d9:22:5c:08:fd:70:81:4a:97:27:ee:74:44:5f:3d:
         be:b7:8e:df:4e:7f:8f:a4
-----BEGIN CERTIFICATE-----
MIIHRzCCBS+gAwIBAgIBZjANBgkqhkiG9w0BAQUFADCBtDELMAkGA1UEBhMCVVMx
CzAJBgNVBAgTAkNBMRUwEwYDVQQHEwxTYW5GcmFuY2lzY28xFTATBgNVBAoTDFBp
eGdsbywgSW5jLjEQMA4GA1UECxMHVlBOLUNJRTEaMBgGA1UEAxMRdHVubmVsLnBp
eGdsby5jb20xHDAaBgNVBCkTE0JhbGEgQ2hhbmRyYXNla2FyYW4xHjAcBgkqhkiG
9w0BCQEWD2JhbGFAcGl4Z2xvLmNvbTAeFw0xODAyMTQwNjI1NDBaFw0yODAyMTIw
NjI1NDBaMIGpMQswCQYDVQQGEwJVUzELMAkGA1UECBMCQ0ExFTATBgNVBAcTDFNh
bkZyYW5jaXNjbzEVMBMGA1UEChMMUGl4Z2xvLCBJbmMuMRAwDgYDVQQLEwdWUE4t
Q0lFMQ8wDQYDVQQDEwZjaWUxMDExHDAaBgNVBCkTE0JhbGEgQ2hhbmRyYXNla2Fy
YW4xHjAcBgkqhkiG9w0BCQEWD2JhbGFAcGl4Z2xvLmNvbTCCAiIwDQYJKoZIhvcN
AQEBBQADggIPADCCAgoCggIBAKvLQj97jxQdfFRdjFk8jOCv3ecxKzyHV0GNXM2b
sQ4MKqFNw8LfxR+vyHbEQd5pJheD4NQrWYCQb1a5iYJEh1YMvbB+rG6plF1fv3RM
4Tf38tnU0t2P4AJ8aMTXsJTGEwYTWmhM4Ukq16jQmVPYCP83D5yIDBd8XNGRfV0m
GALy/S1hC0vAfRXClTTg+6TDfJnpdPGSKvRiFXf/VzaBsg3qddrymPtTmGCNrW9E
2Y0XWfvPIqugQGwOYwh0WpTduZCOamEhL2T2uIUCgPCohN3ynMPVm7nBMEMU9k7i
ZrjhE+8LVOl4BM5znrPEzCdwwkrCgFcTbeoRu3Gqo6EQ8SEOAi62moiuXtsXsNOp
o3jEsm0IPX6SN5a3uxhV+mFZI9YbqOvi7lM/9Pm41siTpRVeVf0iO9T6V/U4WoDW
+smuxoatAMy+lY5qq2cRRYe7ZhnCp12/BKRo5URoTR11+4t20cVP10PefyRv+uXj
1ZMAanRtebvxx4fALX8Eo5cd/nZ6rSxcISzcYwGuE/9OmV3v6XBNn4259Vl/H1JF
A7nDP6jzqYiwlKdYiUV0FXo/AYgs3yGa4FjsyTeYEYuZRRpScgptZXEiGYt7rEMV
bfnh0zOBbElllteRZOrjQM8Vhk8GVIBp2/cDpjtDrbYwdBB3mKdK5MiQgKB+Zf/q
pROvAgMBAAGjggFrMIIBZzAJBgNVHRMEAjAAMC0GCWCGSAGG+EIBDQQgFh5FYXN5
LVJTQSBHZW5lcmF0ZWQgQ2VydGlmaWNhdGUwHQYDVR0OBBYEFJXuJHYnaSW9j6di
QjqzUZBc+LGxMIHpBgNVHSMEgeEwgd6AFO84jRRQWKdbTZwXcvzfuaynUbAQoYG6
pIG3MIG0MQswCQYDVQQGEwJVUzELMAkGA1UECBMCQ0ExFTATBgNVBAcTDFNhbkZy
YW5jaXNjbzEVMBMGA1UEChMMUGl4Z2xvLCBJbmMuMRAwDgYDVQQLEwdWUE4tQ0lF
MRowGAYDVQQDExF0dW5uZWwucGl4Z2xvLmNvbTEcMBoGA1UEKRMTQmFsYSBDaGFu
ZHJhc2VrYXJhbjEeMBwGCSqGSIb3DQEJARYPYmFsYUBwaXhnbG8uY29tggkAptvG
g4DmoHkwEwYDVR0lBAwwCgYIKwYBBQUHAwIwCwYDVR0PBAQDAgeAMA0GCSqGSIb3
DQEBBQUAA4ICAQDQjF7ZFQyRMIhinACC2wjo6w5yqX71bl62xJTl00525famYYo/
R6AMO7ld9o2c6KXE+4joNvZdJn8OYuwhZ1yXzAuZ2ym0BSt7LEYfoFZcwejCGBdv
wbZoHydEHaGM+9wRlwh8Kcbymy1+0qsQDbxNsV3SvUa8bWsjMs2hMspwAsLR3Y5J
Sw5pn/WRtKjZB+A9eWoUGAd7FsHfQWUaR+YpYxIDOjHMVwzJARR8gw/uKe3p89tA
UzLqwFah2yBNSV6AMDee6U92QU58BA/zUfyesBwVOJkFSsJeeZedmy8iuN8foDwP
r528OdrvDin/Eo00m/vDX11amb4rmkUNPFmJes0lMc7QFD2j3U6hcgUWACSwj4b2
1sVKC1S5GiP108Wklgv8cQhrKrrzoRv/gKDQRRJ1QSR/vf+qB7DhrclylwIjdvnx
2TjDUUC1SQ5aoSGN15GGNUA+eJTvgk1BwbcNCih7HHWYyGV9paf1CtxZH7BUo3b6
/zQJ9Sd0CZZKXfBNai0hI5e6hgTrHIDfjm4gn1DsPM7g6rSW5cch2/GifkO5sBxI
YjaPEiQ+O2URXYf9WJ1wiQCE5CdMkcS/Z/EQz0a4wuIfnrz2n94USxqGC7EucXeL
mcD1BAgAdBXqIHXrHrlYlL7syX/ZIlwI/XCBSpcn7nREXz2+t47fTn+PpA==
-----END CERTIFICATE-----
