Certificate:
    Data:
        Version: 3 (0x2)
        Serial Number: 103 (0x67)
    Signature Algorithm: sha1WithRSAEncryption
        Issuer: C=US, ST=CA, L=SanFrancisco, O=Pixglo, Inc., OU=VPN-CIE, CN=tunnel.pixglo.com/name=Bala Chandrasekaran/emailAddress=bala@pixglo.com
        Validity
            Not Before: Feb 14 06:25:41 2018 GMT
            Not After : Feb 12 06:25:41 2028 GMT
        Subject: C=US, ST=CA, L=SanFrancisco, O=Pixglo, Inc., OU=VPN-CIE, CN=cie102/name=Bala Chandrasekaran/emailAddress=bala@pixglo.com
        Subject Public Key Info:
            Public Key Algorithm: rsaEncryption
                Public-Key: (4096 bit)
                Modulus:
                    00:d1:4e:a1:72:15:16:b2:92:1a:e8:3e:fb:bd:9b:
                    da:2c:a0:39:38:a7:c7:a2:f4:74:18:df:0a:3a:c1:
                    db:bb:a5:a1:73:1b:de:c5:b0:0a:9e:9f:f1:8c:f9:
                    2e:0a:52:c4:e4:10:ae:55:bc:07:06:19:80:9e:93:
                    b1:75:b9:f2:88:4f:2a:7e:17:dc:01:53:f6:6c:58:
                    5b:e0:3e:d6:b4:60:4f:37:7d:91:15:18:3b:db:8b:
                    5c:6e:f0:e0:f5:fd:76:90:f5:5d:c3:e2:b0:66:e4:
                    22:59:ea:ac:a2:ae:de:27:e3:f2:6a:94:ff:e4:c8:
                    1c:24:a6:bb:04:12:22:14:cd:59:0c:93:b0:ae:01:
                    a9:fb:d0:c7:ca:a6:31:53:73:e8:7d:9f:5c:6b:31:
                    74:65:b5:58:2b:2c:e9:b0:ea:73:c5:13:bb:c6:de:
                    f5:4f:3e:aa:ad:38:7f:f6:3e:a2:76:4d:41:86:0a:
                    f6:61:31:47:ea:9f:48:9f:7a:66:cb:27:19:85:c7:
                    5f:85:21:0a:5d:a1:54:53:34:52:64:64:c9:cc:d6:
                    f5:8e:e9:71:ab:0d:c3:0b:ef:94:ea:a7:08:0f:59:
                    57:1f:4c:0f:21:fe:ba:83:56:c5:26:71:12:cd:75:
                    21:31:5d:c6:5b:40:4c:1f:1d:b5:f2:7f:67:3d:43:
                    95:c2:bf:7b:91:94:39:00:0c:0b:8c:5c:c5:90:ca:
                    28:63:cb:aa:d7:95:c7:b1:fd:a5:08:31:5e:11:b7:
                    66:08:ce:80:52:21:b9:b6:c0:c5:86:f8:58:d0:98:
                    69:74:18:29:22:bf:ec:69:e7:14:c6:66:df:22:2a:
                    44:5d:ec:0a:a4:e0:eb:66:db:d9:24:80:28:76:54:
                    35:c8:50:09:d2:9f:c0:f4:37:9a:87:65:0f:58:f6:
                    ee:ae:fb:23:a0:9e:0f:39:c6:6c:1f:e9:aa:6d:ad:
                    29:6f:08:9b:77:e3:a8:06:55:da:43:6a:95:1a:6f:
                    99:11:48:99:b1:ae:6e:a0:5e:f9:e3:0f:d8:79:4e:
                    9e:31:6a:98:9e:e0:04:c7:90:74:6a:c1:56:c0:7f:
                    f8:91:bc:46:05:d9:3d:f9:2e:a7:e3:a1:c4:10:24:
                    f8:03:25:de:c2:ed:fe:4b:8b:7d:ca:91:5d:0d:b5:
                    b3:16:b5:40:46:fe:91:92:70:c4:da:a3:15:4c:90:
                    0f:74:8f:4a:b4:51:79:b2:a6:38:88:a8:4e:00:97:
                    86:1c:bc:84:51:55:09:96:3a:55:e0:1d:a1:c2:6d:
                    c7:2f:03:9e:65:c4:b5:e9:9e:da:11:60:f9:53:9b:
                    a5:a2:26:03:d9:76:64:bb:0d:2c:76:94:47:2e:c5:
                    9f:38:5b
                Exponent: 65537 (0x10001)
        X509v3 extensions:
            X509v3 Basic Constraints: 
                CA:FALSE
            Netscape Comment: 
                Easy-RSA Generated Certificate
            X509v3 Subject Key Identifier: 
                6B:96:D5:50:C0:07:FE:F4:D6:BD:0D:56:45:99:1A:3C:DB:2B:45:76
            X509v3 Authority Key Identifier: 
                keyid:EF:38:8D:14:50:58:A7:5B:4D:9C:17:72:FC:DF:B9:AC:A7:51:B0:10
                DirName:/C=US/ST=CA/L=SanFrancisco/O=Pixglo, Inc./OU=VPN-CIE/CN=tunnel.pixglo.com/name=Bala Chandrasekaran/emailAddress=bala@pixglo.com
                serial:A6:DB:C6:83:80:E6:A0:79

            X509v3 Extended Key Usage: 
                TLS Web Client Authentication
            X509v3 Key Usage: 
                Digital Signature
    Signature Algorithm: sha1WithRSAEncryption
         0c:4d:b8:35:b0:a3:0c:2e:41:e9:d6:be:ad:71:7d:60:d6:32:
         1b:48:a9:b6:fc:63:4d:94:25:7b:07:7b:1e:23:fa:6f:73:b8:
         76:34:ae:6f:b3:34:8d:86:f4:c6:42:38:2f:34:3a:80:28:ef:
         1b:d5:13:a2:4b:cc:57:af:d7:70:91:b3:48:8c:74:41:e3:ac:
         31:14:70:12:59:78:9a:38:73:14:b8:f2:0d:dc:00:6f:45:b1:
         14:39:9f:87:9a:08:2b:21:06:10:86:30:d6:0f:49:c1:76:e5:
         b2:f0:f2:d8:6b:9a:9b:f6:76:cf:20:ab:31:48:ef:e8:7b:29:
         a7:b4:76:39:8c:ac:f6:39:e9:78:1c:90:ad:c5:84:a9:fa:26:
         ff:fc:15:89:1e:64:1f:ed:92:ac:c5:cf:6d:87:5c:5a:b8:eb:
         56:16:14:04:a9:f7:68:a8:44:d8:1e:57:18:7a:d2:22:3d:0c:
         46:98:ea:ff:06:cf:88:16:d8:bd:37:9b:45:4c:79:d2:cb:81:
         ac:c2:43:37:9e:2e:89:0c:7a:70:0a:7f:c6:04:17:4f:a4:d7:
         86:2a:68:5a:48:3a:6f:66:ec:bf:06:53:cf:f4:7b:ec:26:47:
         f3:43:be:d1:34:7e:49:18:f2:ba:8c:34:f4:e7:3b:dc:fe:ee:
         ef:99:40:e4:46:83:bc:29:db:2c:fb:7c:d6:df:39:87:5b:bf:
         44:e3:30:18:5c:48:d0:78:2c:8c:df:56:7a:b2:7a:d1:b6:f8:
         5e:36:96:c9:6b:07:05:3f:f0:a8:3b:57:63:bf:11:ae:d4:39:
         24:ed:5c:6f:b6:90:e8:3c:e4:19:73:48:4e:8a:c5:4f:d1:64:
         59:93:da:3c:db:d3:36:59:ad:5f:96:82:83:90:67:89:02:70:
         02:d4:71:50:fe:28:dc:30:dc:6f:4e:8c:34:95:ee:eb:ea:be:
         23:e4:53:db:85:17:46:ac:a5:0a:dc:31:e3:66:03:67:26:9e:
         1f:a8:5d:97:98:03:35:bf:d6:cd:fc:b9:40:2c:78:27:f1:47:
         d1:ad:ca:ef:13:fe:24:7c:cc:0b:77:47:06:22:e3:5a:6b:34:
         6f:ee:8a:f3:d7:3a:a0:be:04:a9:31:eb:19:1c:3c:cd:7b:49:
         86:9b:44:2b:e5:70:7a:fd:44:74:59:a5:c6:10:56:06:86:f1:
         18:31:c6:c9:09:4d:63:15:9c:04:73:b3:bb:98:6f:50:39:ee:
         cc:62:ff:f0:2b:cd:30:2a:ee:e8:3e:3a:01:16:00:69:34:a1:
         1d:cb:a0:42:e6:1d:42:da:be:d5:92:98:c4:65:bf:ed:5b:1f:
         f0:f9:80:6f:90:67:0b:73
-----BEGIN CERTIFICATE-----
MIIHRzCCBS+gAwIBAgIBZzANBgkqhkiG9w0BAQUFADCBtDELMAkGA1UEBhMCVVMx
CzAJBgNVBAgTAkNBMRUwEwYDVQQHEwxTYW5GcmFuY2lzY28xFTATBgNVBAoTDFBp
eGdsbywgSW5jLjEQMA4GA1UECxMHVlBOLUNJRTEaMBgGA1UEAxMRdHVubmVsLnBp
eGdsby5jb20xHDAaBgNVBCkTE0JhbGEgQ2hhbmRyYXNla2FyYW4xHjAcBgkqhkiG
9w0BCQEWD2JhbGFAcGl4Z2xvLmNvbTAeFw0xODAyMTQwNjI1NDFaFw0yODAyMTIw
NjI1NDFaMIGpMQswCQYDVQQGEwJVUzELMAkGA1UECBMCQ0ExFTATBgNVBAcTDFNh
bkZyYW5jaXNjbzEVMBMGA1UEChMMUGl4Z2xvLCBJbmMuMRAwDgYDVQQLEwdWUE4t
Q0lFMQ8wDQYDVQQDEwZjaWUxMDIxHDAaBgNVBCkTE0JhbGEgQ2hhbmRyYXNla2Fy
YW4xHjAcBgkqhkiG9w0BCQEWD2JhbGFAcGl4Z2xvLmNvbTCCAiIwDQYJKoZIhvcN
AQEBBQADggIPADCCAgoCggIBANFOoXIVFrKSGug++72b2iygOTinx6L0dBjfCjrB
27uloXMb3sWwCp6f8Yz5LgpSxOQQrlW8BwYZgJ6TsXW58ohPKn4X3AFT9mxYW+A+
1rRgTzd9kRUYO9uLXG7w4PX9dpD1XcPisGbkIlnqrKKu3ifj8mqU/+TIHCSmuwQS
IhTNWQyTsK4BqfvQx8qmMVNz6H2fXGsxdGW1WCss6bDqc8UTu8be9U8+qq04f/Y+
onZNQYYK9mExR+qfSJ96ZssnGYXHX4UhCl2hVFM0UmRkyczW9Y7pcasNwwvvlOqn
CA9ZVx9MDyH+uoNWxSZxEs11ITFdxltATB8dtfJ/Zz1DlcK/e5GUOQAMC4xcxZDK
KGPLqteVx7H9pQgxXhG3ZgjOgFIhubbAxYb4WNCYaXQYKSK/7GnnFMZm3yIqRF3s
CqTg62bb2SSAKHZUNchQCdKfwPQ3modlD1j27q77I6CeDznGbB/pqm2tKW8Im3fj
qAZV2kNqlRpvmRFImbGubqBe+eMP2HlOnjFqmJ7gBMeQdGrBVsB/+JG8RgXZPfku
p+OhxBAk+AMl3sLt/kuLfcqRXQ21sxa1QEb+kZJwxNqjFUyQD3SPSrRRebKmOIio
TgCXhhy8hFFVCZY6VeAdocJtxy8DnmXEteme2hFg+VObpaImA9l2ZLsNLHaURy7F
nzhbAgMBAAGjggFrMIIBZzAJBgNVHRMEAjAAMC0GCWCGSAGG+EIBDQQgFh5FYXN5
LVJTQSBHZW5lcmF0ZWQgQ2VydGlmaWNhdGUwHQYDVR0OBBYEFGuW1VDAB/701r0N
VkWZGjzbK0V2MIHpBgNVHSMEgeEwgd6AFO84jRRQWKdbTZwXcvzfuaynUbAQoYG6
pIG3MIG0MQswCQYDVQQGEwJVUzELMAkGA1UECBMCQ0ExFTATBgNVBAcTDFNhbkZy
YW5jaXNjbzEVMBMGA1UEChMMUGl4Z2xvLCBJbmMuMRAwDgYDVQQLEwdWUE4tQ0lF
MRowGAYDVQQDExF0dW5uZWwucGl4Z2xvLmNvbTEcMBoGA1UEKRMTQmFsYSBDaGFu
ZHJhc2VrYXJhbjEeMBwGCSqGSIb3DQEJARYPYmFsYUBwaXhnbG8uY29tggkAptvG
g4DmoHkwEwYDVR0lBAwwCgYIKwYBBQUHAwIwCwYDVR0PBAQDAgeAMA0GCSqGSIb3
DQEBBQUAA4ICAQAMTbg1sKMMLkHp1r6tcX1g1jIbSKm2/GNNlCV7B3seI/pvc7h2
NK5vszSNhvTGQjgvNDqAKO8b1ROiS8xXr9dwkbNIjHRB46wxFHASWXiaOHMUuPIN
3ABvRbEUOZ+HmggrIQYQhjDWD0nBduWy8PLYa5qb9nbPIKsxSO/oeymntHY5jKz2
Oel4HJCtxYSp+ib//BWJHmQf7ZKsxc9th1xauOtWFhQEqfdoqETYHlcYetIiPQxG
mOr/Bs+IFti9N5tFTHnSy4GswkM3ni6JDHpwCn/GBBdPpNeGKmhaSDpvZuy/BlPP
9HvsJkfzQ77RNH5JGPK6jDT05zvc/u7vmUDkRoO8Kdss+3zW3zmHW79E4zAYXEjQ
eCyM31Z6snrRtvheNpbJawcFP/CoO1djvxGu1Dkk7VxvtpDoPOQZc0hOisVP0WRZ
k9o829M2Wa1floKDkGeJAnAC1HFQ/ijcMNxvTow0le7r6r4j5FPbhRdGrKUK3DHj
ZgNnJp4fqF2XmAM1v9bN/LlALHgn8UfRrcrvE/4kfMwLd0cGIuNaazRv7orz1zqg
vgSpMesZHDzNe0mGm0Qr5XB6/UR0WaXGEFYGhvEYMcbJCU1jFZwEc7O7mG9QOe7M
Yv/wK80wKu7oPjoBFgBpNKEdy6BC5h1C2r7VkpjEZb/tWx/w+YBvkGcLcw==
-----END CERTIFICATE-----
