Certificate:
    Data:
        Version: 3 (0x2)
        Serial Number: 109 (0x6d)
    Signature Algorithm: sha1WithRSAEncryption
        Issuer: C=US, ST=CA, L=SanFrancisco, O=Pixglo, Inc., OU=VPN-CIE, CN=tunnel.pixglo.com/name=Bala Chandrasekaran/emailAddress=bala@pixglo.com
        Validity
            Not Before: Feb 14 06:25:48 2018 GMT
            Not After : Feb 12 06:25:48 2028 GMT
        Subject: C=US, ST=CA, L=SanFrancisco, O=Pixglo, Inc., OU=VPN-CIE, CN=cie108/name=Bala Chandrasekaran/emailAddress=bala@pixglo.com
        Subject Public Key Info:
            Public Key Algorithm: rsaEncryption
                Public-Key: (4096 bit)
                Modulus:
                    00:c3:e5:92:e3:9c:de:53:77:ad:78:4a:e9:eb:eb:
                    5d:da:e3:c4:81:cf:0e:64:6d:b9:87:d2:82:00:fd:
                    bf:7a:d6:48:06:4b:cc:d1:6f:f9:3d:ab:99:d1:6d:
                    d3:1c:08:be:57:94:7f:35:92:a6:a5:df:30:59:b3:
                    54:58:98:db:d6:a6:0b:c4:91:34:cc:22:00:28:25:
                    55:76:e0:70:24:81:cd:fa:c1:ae:9c:cc:03:b7:a1:
                    03:28:29:a3:4f:61:00:7e:93:8c:66:02:12:6d:82:
                    c3:62:70:d9:90:02:8b:1c:c9:5e:b6:4e:4e:6b:96:
                    20:10:21:a5:24:9b:cf:ef:cf:88:77:96:d6:43:5f:
                    ee:25:a8:f6:29:70:28:5b:3c:9e:d4:e6:be:28:cb:
                    69:6c:c9:0c:3e:a3:b9:e1:7a:32:44:0c:a1:3f:8c:
                    24:50:35:ae:e3:56:ac:8b:e0:5f:44:89:5a:01:7f:
                    66:a9:9d:66:18:02:6d:6f:d6:d2:e3:6d:41:76:e8:
                    d8:74:47:44:3b:f7:59:d5:70:9b:71:fc:71:52:69:
                    6b:2b:fb:5b:6a:cc:9d:fd:26:78:fc:dc:32:af:48:
                    8b:2a:d9:ff:34:9e:b3:6c:73:21:a1:28:31:a3:10:
                    c9:78:37:f1:a1:de:94:3a:3e:1c:04:04:58:ec:3d:
                    45:f7:f0:e5:7e:cb:89:e3:f1:5e:e8:11:54:01:cf:
                    97:fe:65:c0:85:f7:2d:9b:1c:20:fb:32:da:24:de:
                    66:ef:fa:be:77:5b:7a:22:fe:c6:80:b6:c5:1c:21:
                    73:02:ad:03:a0:02:ba:94:71:6d:ad:cc:7d:25:8a:
                    31:d6:e2:e5:4a:c4:d9:bd:dd:b3:1b:0b:fa:bc:05:
                    5b:6d:36:36:29:89:2e:66:ad:b7:42:fd:1e:d7:44:
                    c2:79:16:a5:fb:02:3b:d6:fb:34:1d:02:91:72:06:
                    16:ff:48:79:19:40:30:c6:c6:b5:58:27:04:c5:cc:
                    34:d7:5b:18:b9:c3:37:b3:7a:ff:91:b9:76:82:88:
                    51:3d:55:b7:8c:d5:d0:d4:c7:3a:a8:c3:4c:03:74:
                    06:b6:46:31:58:5c:e4:ca:9a:7f:6b:5b:9b:6a:7a:
                    01:b8:89:1b:d9:0d:55:a3:28:bc:62:df:db:b9:d7:
                    33:8f:82:90:7f:a2:eb:d1:f2:e5:a9:0c:92:4c:f3:
                    1f:b0:fa:c1:f4:f8:ad:b2:11:72:be:fc:a5:57:00:
                    db:95:5c:79:ac:d1:b0:6b:4e:24:00:43:bc:aa:2f:
                    78:9e:2d:54:5d:e1:e4:17:0b:62:64:57:1f:36:ed:
                    a9:17:3f:b6:b4:b4:1a:b7:14:93:aa:f2:d8:72:8f:
                    d2:23:0d
                Exponent: 65537 (0x10001)
        X509v3 extensions:
            X509v3 Basic Constraints: 
                CA:FALSE
            Netscape Comment: 
                Easy-RSA Generated Certificate
            X509v3 Subject Key Identifier: 
                A6:CD:9A:66:43:35:F7:C3:90:87:F9:20:DD:5F:14:1C:63:48:6F:5D
            X509v3 Authority Key Identifier: 
                keyid:EF:38:8D:14:50:58:A7:5B:4D:9C:17:72:FC:DF:B9:AC:A7:51:B0:10
                DirName:/C=US/ST=CA/L=SanFrancisco/O=Pixglo, Inc./OU=VPN-CIE/CN=tunnel.pixglo.com/name=Bala Chandrasekaran/emailAddress=bala@pixglo.com
                serial:A6:DB:C6:83:80:E6:A0:79

            X509v3 Extended Key Usage: 
                TLS Web Client Authentication
            X509v3 Key Usage: 
                Digital Signature
    Signature Algorithm: sha1WithRSAEncryption
         29:d3:5f:cf:d7:f8:b2:08:57:45:c8:6c:37:e7:f0:a8:fe:05:
         9b:ad:f1:f8:0c:3c:ff:e3:70:eb:e3:3c:20:a3:71:04:7b:bf:
         0d:d3:b3:a7:01:09:a7:53:96:25:47:f2:90:2b:02:b7:6e:a9:
         39:1c:12:89:67:7b:94:20:3e:66:3c:15:4f:3a:2f:e4:45:3b:
         28:32:20:d7:77:d1:93:84:3f:20:fb:12:c5:ba:1d:c0:91:68:
         44:b7:a7:bd:91:49:19:84:76:a6:15:5c:de:88:09:f9:f9:18:
         7a:26:36:dd:0c:39:a4:17:1c:af:5b:b8:72:21:bb:92:21:61:
         e0:84:f6:a2:2a:c4:34:31:bf:7d:7f:03:27:c9:fe:f8:8f:70:
         0e:33:b2:e8:a6:cb:f9:7f:fb:2a:75:54:dd:c7:d5:ef:be:1d:
         d0:36:84:89:ca:bf:97:66:d2:bc:95:9b:a7:ef:48:54:96:dd:
         ff:63:79:c0:95:6e:9c:6e:d8:18:b1:00:a8:fd:d4:66:0a:d9:
         48:10:d5:7c:78:51:09:7c:3d:b6:98:92:6d:c5:ed:3d:b6:40:
         4d:84:1f:d7:a3:d0:54:6b:4e:7e:c6:86:99:f3:dd:01:ac:6f:
         bf:c7:74:10:82:e8:18:55:5b:ce:c6:22:e7:c9:2a:0b:15:ae:
         24:d5:59:1c:1f:42:d3:97:f1:4c:36:b3:bf:e6:00:57:e6:c3:
         b9:82:b3:df:36:8f:3a:92:f1:2b:4f:8f:8f:da:e4:21:bc:de:
         3e:e1:aa:3c:ce:2e:10:11:8f:5d:12:e5:43:72:3c:94:50:e1:
         06:6a:c1:98:2d:db:4b:5b:aa:fd:67:ef:4c:34:2f:24:9c:86:
         7f:29:b3:73:13:8b:f4:b6:27:66:47:cd:f5:19:a3:6b:f3:66:
         aa:f6:c6:80:f9:31:5f:6c:30:43:ba:24:80:69:ff:f7:14:7c:
         78:e8:9a:09:68:90:fa:f9:d6:15:32:fc:82:a5:33:95:da:5b:
         bb:87:17:5a:e5:f4:80:1b:10:a6:1a:b8:2d:3d:4c:72:f1:0c:
         45:6b:42:bb:9c:2e:7b:9c:f1:d3:2c:48:c8:24:5b:7b:3a:dc:
         60:e5:32:b5:20:72:2a:0d:32:da:e9:e4:ca:d8:50:e2:98:cf:
         dd:7f:2a:bd:34:74:36:7a:c9:df:62:11:94:ac:43:0e:f1:23:
         c7:97:1a:37:d8:9d:72:06:07:68:11:41:2b:50:1c:7f:02:9e:
         3f:73:8f:b6:db:d4:d0:5a:54:97:e8:7f:26:ae:bd:18:31:d5:
         81:c1:16:a8:57:89:45:bd:2e:b6:2b:65:85:2a:f2:cc:2d:3e:
         e0:af:e4:bf:5a:c4:ed:e4
-----BEGIN CERTIFICATE-----
MIIHRzCCBS+gAwIBAgIBbTANBgkqhkiG9w0BAQUFADCBtDELMAkGA1UEBhMCVVMx
CzAJBgNVBAgTAkNBMRUwEwYDVQQHEwxTYW5GcmFuY2lzY28xFTATBgNVBAoTDFBp
eGdsbywgSW5jLjEQMA4GA1UECxMHVlBOLUNJRTEaMBgGA1UEAxMRdHVubmVsLnBp
eGdsby5jb20xHDAaBgNVBCkTE0JhbGEgQ2hhbmRyYXNla2FyYW4xHjAcBgkqhkiG
9w0BCQEWD2JhbGFAcGl4Z2xvLmNvbTAeFw0xODAyMTQwNjI1NDhaFw0yODAyMTIw
NjI1NDhaMIGpMQswCQYDVQQGEwJVUzELMAkGA1UECBMCQ0ExFTATBgNVBAcTDFNh
bkZyYW5jaXNjbzEVMBMGA1UEChMMUGl4Z2xvLCBJbmMuMRAwDgYDVQQLEwdWUE4t
Q0lFMQ8wDQYDVQQDEwZjaWUxMDgxHDAaBgNVBCkTE0JhbGEgQ2hhbmRyYXNla2Fy
YW4xHjAcBgkqhkiG9w0BCQEWD2JhbGFAcGl4Z2xvLmNvbTCCAiIwDQYJKoZIhvcN
AQEBBQADggIPADCCAgoCggIBAMPlkuOc3lN3rXhK6evrXdrjxIHPDmRtuYfSggD9
v3rWSAZLzNFv+T2rmdFt0xwIvleUfzWSpqXfMFmzVFiY29amC8SRNMwiACglVXbg
cCSBzfrBrpzMA7ehAygpo09hAH6TjGYCEm2Cw2Jw2ZACixzJXrZOTmuWIBAhpSSb
z+/PiHeW1kNf7iWo9ilwKFs8ntTmvijLaWzJDD6jueF6MkQMoT+MJFA1ruNWrIvg
X0SJWgF/ZqmdZhgCbW/W0uNtQXbo2HRHRDv3WdVwm3H8cVJpayv7W2rMnf0mePzc
Mq9IiyrZ/zSes2xzIaEoMaMQyXg38aHelDo+HAQEWOw9Rffw5X7LiePxXugRVAHP
l/5lwIX3LZscIPsy2iTeZu/6vndbeiL+xoC2xRwhcwKtA6ACupRxba3MfSWKMdbi
5UrE2b3dsxsL+rwFW202NimJLmatt0L9HtdEwnkWpfsCO9b7NB0CkXIGFv9IeRlA
MMbGtVgnBMXMNNdbGLnDN7N6/5G5doKIUT1Vt4zV0NTHOqjDTAN0BrZGMVhc5Mqa
f2tbm2p6AbiJG9kNVaMovGLf27nXM4+CkH+i69Hy5akMkkzzH7D6wfT4rbIRcr78
pVcA25VceazRsGtOJABDvKoveJ4tVF3h5BcLYmRXHzbtqRc/trS0GrcUk6ry2HKP
0iMNAgMBAAGjggFrMIIBZzAJBgNVHRMEAjAAMC0GCWCGSAGG+EIBDQQgFh5FYXN5
LVJTQSBHZW5lcmF0ZWQgQ2VydGlmaWNhdGUwHQYDVR0OBBYEFKbNmmZDNffDkIf5
IN1fFBxjSG9dMIHpBgNVHSMEgeEwgd6AFO84jRRQWKdbTZwXcvzfuaynUbAQoYG6
pIG3MIG0MQswCQYDVQQGEwJVUzELMAkGA1UECBMCQ0ExFTATBgNVBAcTDFNhbkZy
YW5jaXNjbzEVMBMGA1UEChMMUGl4Z2xvLCBJbmMuMRAwDgYDVQQLEwdWUE4tQ0lF
MRowGAYDVQQDExF0dW5uZWwucGl4Z2xvLmNvbTEcMBoGA1UEKRMTQmFsYSBDaGFu
ZHJhc2VrYXJhbjEeMBwGCSqGSIb3DQEJARYPYmFsYUBwaXhnbG8uY29tggkAptvG
g4DmoHkwEwYDVR0lBAwwCgYIKwYBBQUHAwIwCwYDVR0PBAQDAgeAMA0GCSqGSIb3
DQEBBQUAA4ICAQAp01/P1/iyCFdFyGw35/Co/gWbrfH4DDz/43Dr4zwgo3EEe78N
07OnAQmnU5YlR/KQKwK3bqk5HBKJZ3uUID5mPBVPOi/kRTsoMiDXd9GThD8g+xLF
uh3AkWhEt6e9kUkZhHamFVzeiAn5+Rh6JjbdDDmkFxyvW7hyIbuSIWHghPaiKsQ0
Mb99fwMnyf74j3AOM7Lopsv5f/sqdVTdx9Xvvh3QNoSJyr+XZtK8lZun70hUlt3/
Y3nAlW6cbtgYsQCo/dRmCtlIENV8eFEJfD22mJJtxe09tkBNhB/Xo9BUa05+xoaZ
890BrG+/x3QQgugYVVvOxiLnySoLFa4k1VkcH0LTl/FMNrO/5gBX5sO5grPfNo86
kvErT4+P2uQhvN4+4ao8zi4QEY9dEuVDcjyUUOEGasGYLdtLW6r9Z+9MNC8knIZ/
KbNzE4v0tidmR831GaNr82aq9saA+TFfbDBDuiSAaf/3FHx46JoJaJD6+dYVMvyC
pTOV2lu7hxda5fSAGxCmGrgtPUxy8QxFa0K7nC57nPHTLEjIJFt7Otxg5TK1IHIq
DTLa6eTK2FDimM/dfyq9NHQ2esnfYhGUrEMO8SPHlxo32J1yBgdoEUErUBx/Ap4/
c4+229TQWlSX6H8mrr0YMdWBwRaoV4lFvS62K2WFKvLMLT7gr+S/WsTt5A==
-----END CERTIFICATE-----
