Certificate:
    Data:
        Version: 3 (0x2)
        Serial Number: 111 (0x6f)
    Signature Algorithm: sha1WithRSAEncryption
        Issuer: C=US, ST=CA, L=SanFrancisco, O=Pixglo, Inc., OU=VPN-CIE, CN=tunnel.pixglo.com/name=Bala Chandrasekaran/emailAddress=bala@pixglo.com
        Validity
            Not Before: Feb 14 06:25:49 2018 GMT
            Not After : Feb 12 06:25:49 2028 GMT
        Subject: C=US, ST=CA, L=SanFrancisco, O=Pixglo, Inc., OU=VPN-CIE, CN=cie110/name=Bala Chandrasekaran/emailAddress=bala@pixglo.com
        Subject Public Key Info:
            Public Key Algorithm: rsaEncryption
                Public-Key: (4096 bit)
                Modulus:
                    00:d0:99:35:36:ad:80:57:b6:8d:70:e5:96:78:15:
                    96:19:a8:82:ea:56:38:0b:9e:53:d0:15:c4:77:62:
                    4c:23:3b:d9:a2:86:67:43:16:42:29:f0:22:52:79:
                    89:a5:cd:0b:e7:15:ab:e2:31:53:d3:76:8e:3a:3d:
                    76:95:5e:51:39:d3:9b:b5:a8:57:4c:31:8b:24:99:
                    65:7d:dd:12:ab:78:8b:2a:87:c6:79:10:fd:74:44:
                    e4:64:0e:1d:b5:fe:5b:20:ee:5c:76:c6:86:3f:3f:
                    09:10:3e:a8:21:ed:ad:1f:ff:08:55:97:ae:ab:d2:
                    08:93:86:c7:59:99:22:82:6d:43:5f:f6:ac:34:ba:
                    73:29:ec:0b:77:0e:4d:de:5d:8d:de:66:fb:41:c4:
                    82:a9:76:ee:07:6b:d0:bf:0b:4f:1a:8d:3e:0d:e6:
                    78:fb:3d:a1:8d:dd:1c:22:36:3d:c1:33:de:e8:cd:
                    53:8b:59:22:99:58:06:7c:f1:51:65:87:50:08:0d:
                    d9:e0:0e:ad:5c:e6:34:51:6c:78:e7:be:49:26:50:
                    71:b2:71:a0:fc:0a:8b:53:67:60:13:e0:8e:eb:1e:
                    52:6e:ad:15:30:2e:66:b1:22:40:26:7d:d1:2e:10:
                    b0:f9:b4:43:92:f2:12:7c:dc:dc:c3:86:74:f7:6a:
                    79:91:f1:23:f2:7d:b4:5a:a5:5f:df:4e:87:59:50:
                    0d:e0:18:52:d9:ea:e6:fa:1e:81:61:e0:16:fb:3d:
                    df:89:a1:6c:ed:4d:12:a6:20:4c:c9:6d:ae:2e:b8:
                    51:75:9e:54:fe:68:fc:42:23:04:2f:a7:84:da:29:
                    6b:22:a0:e1:19:3c:e7:d0:8b:6d:45:02:0f:4b:2c:
                    c5:ec:a1:77:2c:e3:e4:a4:47:0b:f9:85:98:29:01:
                    12:14:9a:e4:17:d5:62:11:1f:18:9e:1f:bd:8e:dc:
                    90:5c:bd:4f:c4:af:ee:ae:17:c7:aa:64:4e:97:b3:
                    d2:8a:5c:15:9a:dd:5f:9c:af:38:e6:1e:59:f9:25:
                    ee:77:ff:29:4f:c7:12:df:da:c9:eb:91:4c:0b:b4:
                    f9:54:ef:dd:e1:77:61:b4:b2:ef:0b:da:f2:30:04:
                    46:53:bd:02:53:91:91:27:5a:b3:60:8a:c5:ee:2e:
                    9e:cc:8d:44:a8:a6:82:e0:34:64:fb:40:ce:55:c7:
                    48:98:eb:71:d4:d5:01:36:10:8f:85:57:5e:92:65:
                    ef:70:58:57:f0:0d:34:1e:15:47:2f:ba:5a:81:f8:
                    78:a0:6d:81:7e:93:e0:b8:52:4c:3f:3a:89:39:47:
                    1e:91:72:bf:ff:57:f0:bb:f4:3f:36:a8:52:8e:e2:
                    21:66:53
                Exponent: 65537 (0x10001)
        X509v3 extensions:
            X509v3 Basic Constraints: 
                CA:FALSE
            Netscape Comment: 
                Easy-RSA Generated Certificate
            X509v3 Subject Key Identifier: 
                85:DD:80:2F:D8:0D:EB:11:B6:63:9B:51:D8:6F:83:89:A8:94:90:34
            X509v3 Authority Key Identifier: 
                keyid:EF:38:8D:14:50:58:A7:5B:4D:9C:17:72:FC:DF:B9:AC:A7:51:B0:10
                DirName:/C=US/ST=CA/L=SanFrancisco/O=Pixglo, Inc./OU=VPN-CIE/CN=tunnel.pixglo.com/name=Bala Chandrasekaran/emailAddress=bala@pixglo.com
                serial:A6:DB:C6:83:80:E6:A0:79

            X509v3 Extended Key Usage: 
                TLS Web Client Authentication
            X509v3 Key Usage: 
                Digital Signature
    Signature Algorithm: sha1WithRSAEncryption
         2e:24:f3:4d:43:4b:1a:7c:c7:ab:b5:17:92:a8:01:2a:51:06:
         3a:3c:75:22:e2:b3:05:a1:78:58:72:8b:68:fc:45:63:45:8a:
         27:e2:28:17:d2:00:d6:48:bf:26:2d:9b:35:83:41:c6:aa:ae:
         b6:aa:86:b1:7c:d1:2c:22:2c:28:5e:5b:eb:f3:4e:b1:c8:0a:
         4d:21:79:a6:b9:3c:8b:ed:67:fd:53:b0:c7:5b:58:2a:85:03:
         29:be:82:83:5c:aa:fc:0d:f3:d7:49:03:91:64:f1:c0:02:6d:
         f0:02:50:7e:31:a6:8b:03:80:0c:35:cd:d7:15:55:60:66:43:
         65:3b:72:21:55:3b:7b:9c:26:35:f8:3e:30:0a:fc:7d:ce:39:
         0b:b8:2b:06:58:f3:74:3d:a8:d3:3d:87:60:0a:c0:f9:23:f0:
         c6:1f:fd:40:1b:c3:ed:1f:15:cb:e8:6f:cc:cc:16:90:f9:ce:
         74:1b:1a:dc:c7:28:b3:f9:ab:fb:2c:1f:2b:c9:f6:89:91:41:
         30:dd:29:3d:7e:33:5a:2e:65:84:5a:4a:69:dd:88:3f:78:9c:
         db:4a:6e:09:b9:f0:58:2a:7b:7a:77:17:8b:e8:0d:da:83:a0:
         e5:3d:d8:8b:81:ef:86:8d:82:c4:90:9a:2f:8e:3f:a5:58:4b:
         88:0f:fc:5f:d5:00:a2:8d:15:59:4a:39:d0:7a:fe:80:df:58:
         16:4d:08:3b:b5:e8:17:71:9a:77:57:e7:4d:64:72:31:c9:d1:
         79:ed:61:32:8b:21:f1:b3:62:c8:39:a6:0d:d1:8a:da:5c:2f:
         93:43:3d:82:77:c6:57:72:13:d5:64:b8:c1:94:9a:85:55:a4:
         55:3a:d9:8a:16:d6:96:cd:48:60:8c:dc:9b:ce:11:78:9f:d1:
         89:a5:b2:7d:b1:ed:3d:b9:b6:99:b3:78:c9:a8:a6:fc:2f:fd:
         c9:57:76:88:69:ef:52:2c:49:2c:b5:b9:7c:29:e8:b5:3a:aa:
         fc:a2:ce:46:8c:a9:3d:75:bc:39:54:d2:53:97:d7:4a:a4:36:
         74:5a:9c:5c:44:da:2d:89:38:40:d8:76:0f:a1:0b:32:1c:42:
         d9:41:03:7f:b9:52:82:e1:85:b2:00:d5:64:b8:9d:c0:b5:19:
         ad:ad:38:ae:28:6f:c7:b8:fc:1a:a2:77:a3:f0:b4:75:ef:18:
         47:e3:58:15:7a:23:bf:b9:70:47:b2:b4:db:50:8f:3a:40:11:
         62:26:da:cb:45:27:08:0f:1a:70:f4:24:d1:f7:be:1a:3e:96:
         b6:9b:29:91:e2:1c:ca:c2:2a:ba:71:b8:47:c1:3d:a3:7f:77:
         2d:dc:11:5d:34:14:04:4f
-----BEGIN CERTIFICATE-----
MIIHRzCCBS+gAwIBAgIBbzANBgkqhkiG9w0BAQUFADCBtDELMAkGA1UEBhMCVVMx
CzAJBgNVBAgTAkNBMRUwEwYDVQQHEwxTYW5GcmFuY2lzY28xFTATBgNVBAoTDFBp
eGdsbywgSW5jLjEQMA4GA1UECxMHVlBOLUNJRTEaMBgGA1UEAxMRdHVubmVsLnBp
eGdsby5jb20xHDAaBgNVBCkTE0JhbGEgQ2hhbmRyYXNla2FyYW4xHjAcBgkqhkiG
9w0BCQEWD2JhbGFAcGl4Z2xvLmNvbTAeFw0xODAyMTQwNjI1NDlaFw0yODAyMTIw
NjI1NDlaMIGpMQswCQYDVQQGEwJVUzELMAkGA1UECBMCQ0ExFTATBgNVBAcTDFNh
bkZyYW5jaXNjbzEVMBMGA1UEChMMUGl4Z2xvLCBJbmMuMRAwDgYDVQQLEwdWUE4t
Q0lFMQ8wDQYDVQQDEwZjaWUxMTAxHDAaBgNVBCkTE0JhbGEgQ2hhbmRyYXNla2Fy
YW4xHjAcBgkqhkiG9w0BCQEWD2JhbGFAcGl4Z2xvLmNvbTCCAiIwDQYJKoZIhvcN
AQEBBQADggIPADCCAgoCggIBANCZNTatgFe2jXDllngVlhmogupWOAueU9AVxHdi
TCM72aKGZ0MWQinwIlJ5iaXNC+cVq+IxU9N2jjo9dpVeUTnTm7WoV0wxiySZZX3d
Eqt4iyqHxnkQ/XRE5GQOHbX+WyDuXHbGhj8/CRA+qCHtrR//CFWXrqvSCJOGx1mZ
IoJtQ1/2rDS6cynsC3cOTd5djd5m+0HEgql27gdr0L8LTxqNPg3mePs9oY3dHCI2
PcEz3ujNU4tZIplYBnzxUWWHUAgN2eAOrVzmNFFseOe+SSZQcbJxoPwKi1NnYBPg
juseUm6tFTAuZrEiQCZ90S4QsPm0Q5LyEnzc3MOGdPdqeZHxI/J9tFqlX99Oh1lQ
DeAYUtnq5voegWHgFvs934mhbO1NEqYgTMltri64UXWeVP5o/EIjBC+nhNopayKg
4Rk859CLbUUCD0ssxeyhdyzj5KRHC/mFmCkBEhSa5BfVYhEfGJ4fvY7ckFy9T8Sv
7q4Xx6pkTpez0opcFZrdX5yvOOYeWfkl7nf/KU/HEt/ayeuRTAu0+VTv3eF3YbSy
7wva8jAERlO9AlORkSdas2CKxe4unsyNRKimguA0ZPtAzlXHSJjrcdTVATYQj4VX
XpJl73BYV/ANNB4VRy+6WoH4eKBtgX6T4LhSTD86iTlHHpFyv/9X8Lv0PzaoUo7i
IWZTAgMBAAGjggFrMIIBZzAJBgNVHRMEAjAAMC0GCWCGSAGG+EIBDQQgFh5FYXN5
LVJTQSBHZW5lcmF0ZWQgQ2VydGlmaWNhdGUwHQYDVR0OBBYEFIXdgC/YDesRtmOb
Udhvg4molJA0MIHpBgNVHSMEgeEwgd6AFO84jRRQWKdbTZwXcvzfuaynUbAQoYG6
pIG3MIG0MQswCQYDVQQGEwJVUzELMAkGA1UECBMCQ0ExFTATBgNVBAcTDFNhbkZy
YW5jaXNjbzEVMBMGA1UEChMMUGl4Z2xvLCBJbmMuMRAwDgYDVQQLEwdWUE4tQ0lF
MRowGAYDVQQDExF0dW5uZWwucGl4Z2xvLmNvbTEcMBoGA1UEKRMTQmFsYSBDaGFu
ZHJhc2VrYXJhbjEeMBwGCSqGSIb3DQEJARYPYmFsYUBwaXhnbG8uY29tggkAptvG
g4DmoHkwEwYDVR0lBAwwCgYIKwYBBQUHAwIwCwYDVR0PBAQDAgeAMA0GCSqGSIb3
DQEBBQUAA4ICAQAuJPNNQ0safMertReSqAEqUQY6PHUi4rMFoXhYcoto/EVjRYon
4igX0gDWSL8mLZs1g0HGqq62qoaxfNEsIiwoXlvr806xyApNIXmmuTyL7Wf9U7DH
W1gqhQMpvoKDXKr8DfPXSQORZPHAAm3wAlB+MaaLA4AMNc3XFVVgZkNlO3IhVTt7
nCY1+D4wCvx9zjkLuCsGWPN0PajTPYdgCsD5I/DGH/1AG8PtHxXL6G/MzBaQ+c50
Gxrcxyiz+av7LB8ryfaJkUEw3Sk9fjNaLmWEWkpp3Yg/eJzbSm4JufBYKnt6dxeL
6A3ag6DlPdiLge+GjYLEkJovjj+lWEuID/xf1QCijRVZSjnQev6A31gWTQg7tegX
cZp3V+dNZHIxydF57WEyiyHxs2LIOaYN0YraXC+TQz2Cd8ZXchPVZLjBlJqFVaRV
OtmKFtaWzUhgjNybzhF4n9GJpbJ9se09ubaZs3jJqKb8L/3JV3aIae9SLEkstbl8
Kei1Oqr8os5GjKk9dbw5VNJTl9dKpDZ0WpxcRNotiThA2HYPoQsyHELZQQN/uVKC
4YWyANVkuJ3AtRmtrTiuKG/HuPwaonej8LR17xhH41gVeiO/uXBHsrTbUI86QBFi
JtrLRScIDxpw9CTR974aPpa2mymR4hzKwiq6cbhHwT2jf3ct3BFdNBQETw==
-----END CERTIFICATE-----
