Certificate:
    Data:
        Version: 3 (0x2)
        Serial Number: 116 (0x74)
    Signature Algorithm: sha1WithRSAEncryption
        Issuer: C=US, ST=CA, L=SanFrancisco, O=Pixglo, Inc., OU=VPN-CIE, CN=tunnel.pixglo.com/name=Bala Chandrasekaran/emailAddress=bala@pixglo.com
        Validity
            Not Before: Feb 14 06:25:52 2018 GMT
            Not After : Feb 12 06:25:52 2028 GMT
        Subject: C=US, ST=CA, L=SanFrancisco, O=Pixglo, Inc., OU=VPN-CIE, CN=cie115/name=Bala Chandrasekaran/emailAddress=bala@pixglo.com
        Subject Public Key Info:
            Public Key Algorithm: rsaEncryption
                Public-Key: (4096 bit)
                Modulus:
                    00:c1:9f:c9:ab:bf:75:12:e9:9e:2b:b6:4e:6e:6a:
                    a7:95:7b:69:a3:f0:2f:84:66:bd:2d:9a:e3:21:e4:
                    ee:4e:73:5a:4e:ce:92:fb:ac:15:25:ab:83:5a:61:
                    13:a5:84:f5:2f:d1:5b:3f:10:e2:ff:cc:f3:60:80:
                    f6:ac:90:bf:42:55:f6:34:46:d7:3e:fd:e5:8f:60:
                    4a:5c:b3:1b:f4:83:3d:ae:76:4b:28:50:a4:e3:9e:
                    38:2a:82:80:61:00:0e:5e:96:31:ec:96:dc:d4:ce:
                    91:be:d5:eb:d0:16:50:18:11:3f:bd:4d:0c:74:45:
                    9c:02:61:4b:af:ed:25:f6:d9:c9:de:b1:d7:2b:c6:
                    7b:55:48:f6:68:d3:70:77:a3:0e:19:33:6a:b3:0a:
                    cc:a5:9b:dd:40:fc:cf:35:24:89:a0:50:be:6e:cf:
                    bb:6d:d1:cb:ba:c8:ea:40:6f:08:91:35:50:be:96:
                    00:9e:e3:86:c9:ec:95:2b:8b:15:35:0d:3a:b6:bc:
                    08:c7:99:fa:9a:70:af:b8:11:bd:39:25:f6:c4:17:
                    91:03:5f:f1:4f:98:7f:ac:ba:f3:43:6e:c6:39:8c:
                    1c:b5:1a:ef:a1:17:83:13:b5:5f:24:9a:e8:03:bf:
                    48:fa:f6:db:82:10:10:aa:6f:69:f5:56:b1:59:d3:
                    6a:3e:99:cd:5d:67:f3:33:ec:af:99:b1:85:c2:40:
                    3f:f9:b3:77:3f:f5:2f:7f:37:b3:bc:e0:29:56:aa:
                    86:2c:4a:66:29:47:99:28:83:59:2b:be:86:14:b4:
                    09:bd:00:c1:94:a2:03:32:5f:92:1b:d0:ed:d3:3f:
                    25:3c:a7:b1:91:82:a9:09:b5:e2:4c:2f:18:06:cd:
                    52:3b:83:93:da:70:dc:a8:f4:4d:54:21:7e:91:13:
                    7f:70:8d:0f:de:ef:00:6e:e8:05:00:8d:98:37:2c:
                    88:08:63:89:15:80:5e:88:55:40:df:6b:ec:56:85:
                    5d:33:42:99:f0:36:96:78:ed:c1:c7:cc:a3:74:db:
                    df:a8:4d:03:fc:21:23:28:fb:d2:99:76:44:50:09:
                    fb:dd:8b:01:6f:ce:65:26:f8:fd:e2:03:47:b8:47:
                    c5:f1:bd:24:43:4b:16:2b:53:f0:17:f3:b9:2c:0c:
                    5e:64:17:d9:87:95:4e:1d:de:95:41:cd:1f:f9:61:
                    7b:ed:c7:6e:a6:e8:54:4c:ee:4f:a1:68:3c:76:46:
                    ea:53:b8:a4:94:ee:61:a9:85:cc:dc:6f:1e:3d:1a:
                    06:d7:71:0f:6f:3f:93:04:bb:e2:27:d9:30:e4:a9:
                    23:4c:48:00:db:8a:cc:67:11:3f:3a:4f:22:7c:84:
                    41:5a:23
                Exponent: 65537 (0x10001)
        X509v3 extensions:
            X509v3 Basic Constraints: 
                CA:FALSE
            Netscape Comment: 
                Easy-RSA Generated Certificate
            X509v3 Subject Key Identifier: 
                18:AA:50:FC:8A:3F:00:FA:92:57:4F:E7:DF:2B:69:44:01:CC:30:58
            X509v3 Authority Key Identifier: 
                keyid:EF:38:8D:14:50:58:A7:5B:4D:9C:17:72:FC:DF:B9:AC:A7:51:B0:10
                DirName:/C=US/ST=CA/L=SanFrancisco/O=Pixglo, Inc./OU=VPN-CIE/CN=tunnel.pixglo.com/name=Bala Chandrasekaran/emailAddress=bala@pixglo.com
                serial:A6:DB:C6:83:80:E6:A0:79

            X509v3 Extended Key Usage: 
                TLS Web Client Authentication
            X509v3 Key Usage: 
                Digital Signature
    Signature Algorithm: sha1WithRSAEncryption
         1f:62:b3:84:5b:f9:06:1b:de:e5:ca:d5:d0:51:2f:44:27:f8:
         f3:a3:74:6e:17:c4:e1:95:a0:ed:e6:37:d9:a4:f7:7e:da:7e:
         74:15:a6:66:da:e8:ea:e2:3a:a2:7e:1c:5e:77:07:f1:01:58:
         bc:12:8d:6c:4b:a4:67:77:8a:ba:19:13:ee:cf:b8:4f:c5:25:
         92:74:4e:fa:90:74:fe:01:bc:8b:bb:07:a6:d9:5e:10:75:e0:
         d5:62:b6:bc:c6:06:a2:9d:ed:48:d5:61:09:29:5d:d6:0d:da:
         8f:d8:55:e6:d0:b3:2b:41:d5:5c:0c:2b:33:5d:3a:a8:76:80:
         1a:f1:a3:14:ae:53:41:c3:34:ed:43:52:53:61:c0:e7:3a:01:
         a0:a2:0c:13:08:07:61:fb:1a:d0:a1:8b:75:ce:bc:84:bc:7a:
         38:42:03:94:00:d3:9c:39:0e:c5:ff:7c:b3:c0:ca:e2:b6:b4:
         22:66:4d:dd:e3:39:20:2d:ff:7d:51:12:6e:c3:83:00:33:7d:
         f1:67:f8:df:a0:a4:ab:05:5f:a8:65:d6:2f:e9:c2:f5:dc:98:
         41:e2:bc:cf:19:dd:75:3d:a2:53:0b:d2:5b:c8:00:69:71:d1:
         f5:62:fc:c2:92:57:88:fa:59:d7:a0:60:1f:d9:3e:e1:41:7e:
         89:09:f0:f6:ea:d1:c0:9d:e8:54:53:26:43:cf:ef:01:f1:d8:
         17:6c:f2:5c:c0:17:64:fd:b7:df:0d:f8:c2:ba:63:d8:9d:46:
         e5:8a:ef:7b:a8:b9:40:10:c8:74:0c:fd:db:2d:3d:d3:f5:bc:
         4a:2d:ad:b8:77:ce:cf:7c:1f:b8:2d:d9:75:54:82:99:84:25:
         30:dd:73:a5:6f:7f:3d:01:35:a5:0a:fd:65:cd:66:ab:7b:53:
         d3:ae:39:ce:dc:09:60:1e:8a:94:26:29:5d:64:6a:fe:5e:16:
         79:67:6d:c8:98:07:fe:83:f1:68:58:65:69:b8:50:e7:ef:b2:
         53:bf:6b:63:fa:6a:89:7e:c6:7b:35:75:38:4f:d0:1a:ae:00:
         10:70:d4:33:2e:63:0e:e7:56:20:59:a4:39:a5:7f:cb:63:d6:
         71:02:c7:d4:27:14:83:9a:42:20:7e:33:6f:23:37:95:78:6e:
         73:79:d2:64:4e:ef:d1:80:24:f4:c7:f4:68:a6:49:56:21:9b:
         b9:69:d7:3e:f3:d3:24:f9:c6:84:ff:00:11:f0:31:e4:42:ff:
         71:e0:e7:08:7c:f8:d6:e2:37:3f:8b:0a:bc:66:da:aa:11:ac:
         3f:e0:17:94:3f:b3:0f:ac:4c:80:10:bc:5f:e4:a5:01:8b:ad:
         3e:73:6c:9f:50:53:66:e5
-----BEGIN CERTIFICATE-----
MIIHRzCCBS+gAwIBAgIBdDANBgkqhkiG9w0BAQUFADCBtDELMAkGA1UEBhMCVVMx
CzAJBgNVBAgTAkNBMRUwEwYDVQQHEwxTYW5GcmFuY2lzY28xFTATBgNVBAoTDFBp
eGdsbywgSW5jLjEQMA4GA1UECxMHVlBOLUNJRTEaMBgGA1UEAxMRdHVubmVsLnBp
eGdsby5jb20xHDAaBgNVBCkTE0JhbGEgQ2hhbmRyYXNla2FyYW4xHjAcBgkqhkiG
9w0BCQEWD2JhbGFAcGl4Z2xvLmNvbTAeFw0xODAyMTQwNjI1NTJaFw0yODAyMTIw
NjI1NTJaMIGpMQswCQYDVQQGEwJVUzELMAkGA1UECBMCQ0ExFTATBgNVBAcTDFNh
bkZyYW5jaXNjbzEVMBMGA1UEChMMUGl4Z2xvLCBJbmMuMRAwDgYDVQQLEwdWUE4t
Q0lFMQ8wDQYDVQQDEwZjaWUxMTUxHDAaBgNVBCkTE0JhbGEgQ2hhbmRyYXNla2Fy
YW4xHjAcBgkqhkiG9w0BCQEWD2JhbGFAcGl4Z2xvLmNvbTCCAiIwDQYJKoZIhvcN
AQEBBQADggIPADCCAgoCggIBAMGfyau/dRLpniu2Tm5qp5V7aaPwL4RmvS2a4yHk
7k5zWk7OkvusFSWrg1phE6WE9S/RWz8Q4v/M82CA9qyQv0JV9jRG1z795Y9gSlyz
G/SDPa52SyhQpOOeOCqCgGEADl6WMeyW3NTOkb7V69AWUBgRP71NDHRFnAJhS6/t
JfbZyd6x1yvGe1VI9mjTcHejDhkzarMKzKWb3UD8zzUkiaBQvm7Pu23Ry7rI6kBv
CJE1UL6WAJ7jhsnslSuLFTUNOra8CMeZ+ppwr7gRvTkl9sQXkQNf8U+Yf6y680Nu
xjmMHLUa76EXgxO1XySa6AO/SPr224IQEKpvafVWsVnTaj6ZzV1n8zPsr5mxhcJA
P/mzdz/1L383s7zgKVaqhixKZilHmSiDWSu+hhS0Cb0AwZSiAzJfkhvQ7dM/JTyn
sZGCqQm14kwvGAbNUjuDk9pw3Kj0TVQhfpETf3CND97vAG7oBQCNmDcsiAhjiRWA
XohVQN9r7FaFXTNCmfA2lnjtwcfMo3Tb36hNA/whIyj70pl2RFAJ+92LAW/OZSb4
/eIDR7hHxfG9JENLFitT8BfzuSwMXmQX2YeVTh3elUHNH/lhe+3HbqboVEzuT6Fo
PHZG6lO4pJTuYamFzNxvHj0aBtdxD28/kwS74ifZMOSpI0xIANuKzGcRPzpPInyE
QVojAgMBAAGjggFrMIIBZzAJBgNVHRMEAjAAMC0GCWCGSAGG+EIBDQQgFh5FYXN5
LVJTQSBHZW5lcmF0ZWQgQ2VydGlmaWNhdGUwHQYDVR0OBBYEFBiqUPyKPwD6kldP
598raUQBzDBYMIHpBgNVHSMEgeEwgd6AFO84jRRQWKdbTZwXcvzfuaynUbAQoYG6
pIG3MIG0MQswCQYDVQQGEwJVUzELMAkGA1UECBMCQ0ExFTATBgNVBAcTDFNhbkZy
YW5jaXNjbzEVMBMGA1UEChMMUGl4Z2xvLCBJbmMuMRAwDgYDVQQLEwdWUE4tQ0lF
MRowGAYDVQQDExF0dW5uZWwucGl4Z2xvLmNvbTEcMBoGA1UEKRMTQmFsYSBDaGFu
ZHJhc2VrYXJhbjEeMBwGCSqGSIb3DQEJARYPYmFsYUBwaXhnbG8uY29tggkAptvG
g4DmoHkwEwYDVR0lBAwwCgYIKwYBBQUHAwIwCwYDVR0PBAQDAgeAMA0GCSqGSIb3
DQEBBQUAA4ICAQAfYrOEW/kGG97lytXQUS9EJ/jzo3RuF8ThlaDt5jfZpPd+2n50
FaZm2ujq4jqifhxedwfxAVi8Eo1sS6Rnd4q6GRPuz7hPxSWSdE76kHT+AbyLuwem
2V4QdeDVYra8xgaine1I1WEJKV3WDdqP2FXm0LMrQdVcDCszXTqodoAa8aMUrlNB
wzTtQ1JTYcDnOgGgogwTCAdh+xrQoYt1zryEvHo4QgOUANOcOQ7F/3yzwMritrQi
Zk3d4zkgLf99URJuw4MAM33xZ/jfoKSrBV+oZdYv6cL13JhB4rzPGd11PaJTC9Jb
yABpcdH1YvzCkleI+lnXoGAf2T7hQX6JCfD26tHAnehUUyZDz+8B8dgXbPJcwBdk
/bffDfjCumPYnUbliu97qLlAEMh0DP3bLT3T9bxKLa24d87PfB+4Ldl1VIKZhCUw
3XOlb389ATWlCv1lzWare1PTrjnO3AlgHoqUJildZGr+XhZ5Z23ImAf+g/FoWGVp
uFDn77JTv2tj+mqJfsZ7NXU4T9AargAQcNQzLmMO51YgWaQ5pX/LY9ZxAsfUJxSD
mkIgfjNvIzeVeG5zedJkTu/RgCT0x/RopklWIZu5adc+89Mk+caE/wAR8DHkQv9x
4OcIfPjW4jc/iwq8ZtqqEaw/4BeUP7MPrEyAELxf5KUBi60+c2yfUFNm5Q==
-----END CERTIFICATE-----
