Certificate:
    Data:
        Version: 3 (0x2)
        Serial Number: 117 (0x75)
    Signature Algorithm: sha1WithRSAEncryption
        Issuer: C=US, ST=CA, L=SanFrancisco, O=Pixglo, Inc., OU=VPN-CIE, CN=tunnel.pixglo.com/name=Bala Chandrasekaran/emailAddress=bala@pixglo.com
        Validity
            Not Before: Feb 14 06:25:53 2018 GMT
            Not After : Feb 12 06:25:53 2028 GMT
        Subject: C=US, ST=CA, L=SanFrancisco, O=Pixglo, Inc., OU=VPN-CIE, CN=cie116/name=Bala Chandrasekaran/emailAddress=bala@pixglo.com
        Subject Public Key Info:
            Public Key Algorithm: rsaEncryption
                Public-Key: (4096 bit)
                Modulus:
                    00:f5:5b:81:1b:7e:4b:bb:c8:e8:dc:f3:34:a8:01:
                    64:e1:da:e8:bb:a4:1e:68:d1:87:f7:b4:05:df:bf:
                    4b:c3:3f:cb:55:42:b9:0a:9c:f0:28:27:da:a7:89:
                    2f:c5:4d:c3:80:10:e9:ac:9f:fe:f2:e1:ef:3e:07:
                    4b:d7:c5:9b:87:5d:d6:24:c9:ef:7e:81:b9:7e:ec:
                    e0:62:0c:78:22:3c:30:1d:46:5b:96:bb:0b:15:3d:
                    08:6f:7d:4a:d4:fd:3a:88:04:93:ee:58:67:80:23:
                    aa:5b:94:6d:ba:41:8c:6b:4a:73:39:c3:0a:ec:f2:
                    c9:57:e1:72:fa:64:67:f4:fc:e4:76:9a:e6:93:2f:
                    d0:0b:c8:71:1f:eb:f0:47:51:d2:48:b1:58:23:ca:
                    ba:bd:3e:e6:51:d0:22:5a:00:45:b0:f4:c2:79:08:
                    4c:18:b1:9f:96:ea:98:d3:43:1a:5c:71:35:b0:f6:
                    5d:19:07:c9:71:61:e0:36:6f:bc:63:4f:46:7e:60:
                    db:50:72:63:1f:1a:f3:45:e8:cc:33:b6:de:33:a5:
                    e9:d4:b3:bf:de:ae:5b:7a:5c:1e:90:d1:92:22:2f:
                    4a:34:c0:f3:69:fe:72:08:54:5a:38:0d:dd:17:b3:
                    53:3a:fa:c4:a0:1a:14:b7:e6:9e:df:f3:29:0b:41:
                    bf:4c:22:b0:7b:94:5c:3f:74:7e:49:32:6c:37:06:
                    c1:43:da:69:8a:50:0f:e3:c5:64:f2:c6:19:0c:b6:
                    b9:02:b1:fc:f5:9b:39:95:9d:97:6c:26:b4:34:8a:
                    9d:fb:76:32:73:80:56:33:b8:f9:f4:16:4c:7b:5e:
                    84:65:2f:61:4e:a3:2a:52:fb:81:4e:4e:52:70:5f:
                    3b:08:b6:40:3b:8a:19:69:54:ab:12:23:38:df:f6:
                    ab:10:42:08:5b:7c:44:8e:ff:55:69:25:84:90:81:
                    63:83:7b:8a:82:07:89:75:f6:b3:44:80:f8:c4:ca:
                    f2:e8:e3:a8:cd:9c:64:94:97:24:44:33:6d:24:35:
                    e0:c0:6d:6b:48:4a:ef:78:74:2b:85:c4:4c:ac:ee:
                    84:c5:b8:c6:4e:44:13:92:b1:20:db:29:94:27:7e:
                    10:07:db:81:af:4f:dc:35:31:b7:b2:07:97:50:a7:
                    a3:29:8d:f2:90:81:8f:3e:42:0d:ff:31:7c:28:05:
                    90:4f:b9:8d:86:30:89:3e:56:e1:fb:99:33:6e:f6:
                    40:b0:0b:8e:3a:0a:88:8b:b9:09:ae:06:5a:c6:9d:
                    ec:fe:31:e1:df:76:bf:24:e8:85:16:e1:8f:3a:ea:
                    76:52:ad:54:d4:3f:23:ac:9c:2b:c8:64:78:8a:37:
                    e2:d5:a1
                Exponent: 65537 (0x10001)
        X509v3 extensions:
            X509v3 Basic Constraints: 
                CA:FALSE
            Netscape Comment: 
                Easy-RSA Generated Certificate
            X509v3 Subject Key Identifier: 
                A4:6C:6C:CD:46:31:22:9E:EA:23:E2:B9:E1:D6:54:93:C1:AB:80:68
            X509v3 Authority Key Identifier: 
                keyid:EF:38:8D:14:50:58:A7:5B:4D:9C:17:72:FC:DF:B9:AC:A7:51:B0:10
                DirName:/C=US/ST=CA/L=SanFrancisco/O=Pixglo, Inc./OU=VPN-CIE/CN=tunnel.pixglo.com/name=Bala Chandrasekaran/emailAddress=bala@pixglo.com
                serial:A6:DB:C6:83:80:E6:A0:79

            X509v3 Extended Key Usage: 
                TLS Web Client Authentication
            X509v3 Key Usage: 
                Digital Signature
    Signature Algorithm: sha1WithRSAEncryption
         37:d3:7b:6a:00:5c:c2:05:2f:30:77:fe:f5:9f:55:81:a4:8f:
         ad:8c:8f:91:43:79:89:b2:66:4a:5a:fb:eb:74:6b:0d:7f:95:
         ab:97:7e:b4:fd:e2:99:4f:0e:cd:32:84:20:eb:25:97:ca:bc:
         b0:e8:73:37:f4:5c:f3:ea:23:6a:51:82:c2:23:d6:25:59:30:
         36:e1:1e:e8:c4:d2:81:ae:d6:df:5a:ff:cf:6d:5f:de:a7:68:
         a2:ac:55:1e:67:e7:3b:a5:31:cf:51:43:6e:dd:6c:d2:b0:60:
         e9:85:fd:84:77:71:a7:62:26:36:7f:df:a0:8e:c9:9a:77:89:
         f1:1f:9b:a5:7e:c6:a7:db:27:b2:90:c7:cf:49:ec:08:40:06:
         13:04:31:66:34:ff:c9:0b:e0:29:50:a3:5c:9a:90:11:76:ef:
         f9:70:5a:b7:2f:d2:1d:e3:b3:71:43:73:cb:d9:8f:94:fd:5d:
         de:fe:79:aa:95:14:ef:7a:5d:c1:d0:0a:67:04:bf:ad:f3:2e:
         41:5c:e4:18:af:d2:dd:85:44:b0:49:15:b5:f4:18:c9:61:9a:
         b7:2c:0e:be:5c:7c:2e:ee:1b:2d:f2:b4:de:3f:76:57:e1:c1:
         e8:29:c6:05:5c:dd:fb:46:6c:f8:27:f6:b8:9e:6b:2d:84:3f:
         1d:4f:8a:16:fb:06:6b:75:2c:49:ee:79:46:53:c0:01:09:f4:
         98:4a:f6:59:eb:f1:78:eb:64:2c:72:d0:05:34:bb:a7:76:01:
         4b:94:4e:9d:58:4c:fa:fe:9d:de:fe:a8:c8:2d:3a:0d:ca:7c:
         a0:e4:a1:e1:c7:e2:ab:c7:df:52:81:4a:28:ca:11:a5:dc:b1:
         6e:6a:21:e6:69:c1:56:35:da:3e:f4:7e:81:a1:90:88:bf:cd:
         6f:31:e0:a8:71:ef:28:d0:78:4d:38:57:32:b7:1b:cd:f8:fc:
         f1:fa:88:7e:57:36:23:52:df:d7:4f:df:34:02:bb:f6:c3:2e:
         d1:f0:bd:6e:bd:04:01:89:98:5f:63:93:65:c9:5d:11:62:2b:
         3e:38:25:25:e7:bc:26:df:e2:6a:1e:6c:cc:9c:8c:3a:da:0e:
         de:fb:54:ab:8f:5e:a7:78:33:0b:0f:1e:4a:8e:c3:b0:af:14:
         c9:3d:40:49:48:6f:f2:49:64:08:3b:d5:0c:9c:b6:69:b6:3e:
         96:d7:52:47:de:a4:5d:0a:f1:17:0a:ed:19:c3:3f:f3:0d:a0:
         4a:d5:d1:9d:75:ca:41:31:d0:92:54:82:0b:0b:9c:f2:77:0a:
         6a:15:96:d6:a0:9b:eb:76:ba:c7:38:a4:1e:9a:f4:6c:95:4c:
         bc:61:bf:d3:36:53:31:10
-----BEGIN CERTIFICATE-----
MIIHRzCCBS+gAwIBAgIBdTANBgkqhkiG9w0BAQUFADCBtDELMAkGA1UEBhMCVVMx
CzAJBgNVBAgTAkNBMRUwEwYDVQQHEwxTYW5GcmFuY2lzY28xFTATBgNVBAoTDFBp
eGdsbywgSW5jLjEQMA4GA1UECxMHVlBOLUNJRTEaMBgGA1UEAxMRdHVubmVsLnBp
eGdsby5jb20xHDAaBgNVBCkTE0JhbGEgQ2hhbmRyYXNla2FyYW4xHjAcBgkqhkiG
9w0BCQEWD2JhbGFAcGl4Z2xvLmNvbTAeFw0xODAyMTQwNjI1NTNaFw0yODAyMTIw
NjI1NTNaMIGpMQswCQYDVQQGEwJVUzELMAkGA1UECBMCQ0ExFTATBgNVBAcTDFNh
bkZyYW5jaXNjbzEVMBMGA1UEChMMUGl4Z2xvLCBJbmMuMRAwDgYDVQQLEwdWUE4t
Q0lFMQ8wDQYDVQQDEwZjaWUxMTYxHDAaBgNVBCkTE0JhbGEgQ2hhbmRyYXNla2Fy
YW4xHjAcBgkqhkiG9w0BCQEWD2JhbGFAcGl4Z2xvLmNvbTCCAiIwDQYJKoZIhvcN
AQEBBQADggIPADCCAgoCggIBAPVbgRt+S7vI6NzzNKgBZOHa6LukHmjRh/e0Bd+/
S8M/y1VCuQqc8Cgn2qeJL8VNw4AQ6ayf/vLh7z4HS9fFm4dd1iTJ736BuX7s4GIM
eCI8MB1GW5a7CxU9CG99StT9OogEk+5YZ4AjqluUbbpBjGtKcznDCuzyyVfhcvpk
Z/T85Haa5pMv0AvIcR/r8EdR0kixWCPKur0+5lHQIloARbD0wnkITBixn5bqmNND
GlxxNbD2XRkHyXFh4DZvvGNPRn5g21ByYx8a80XozDO23jOl6dSzv96uW3pcHpDR
kiIvSjTA82n+cghUWjgN3RezUzr6xKAaFLfmnt/zKQtBv0wisHuUXD90fkkybDcG
wUPaaYpQD+PFZPLGGQy2uQKx/PWbOZWdl2wmtDSKnft2MnOAVjO4+fQWTHtehGUv
YU6jKlL7gU5OUnBfOwi2QDuKGWlUqxIjON/2qxBCCFt8RI7/VWklhJCBY4N7ioIH
iXX2s0SA+MTK8ujjqM2cZJSXJEQzbSQ14MBta0hK73h0K4XETKzuhMW4xk5EE5Kx
INsplCd+EAfbga9P3DUxt7IHl1CnoymN8pCBjz5CDf8xfCgFkE+5jYYwiT5W4fuZ
M272QLALjjoKiIu5Ca4GWsad7P4x4d92vyTohRbhjzrqdlKtVNQ/I6ycK8hkeIo3
4tWhAgMBAAGjggFrMIIBZzAJBgNVHRMEAjAAMC0GCWCGSAGG+EIBDQQgFh5FYXN5
LVJTQSBHZW5lcmF0ZWQgQ2VydGlmaWNhdGUwHQYDVR0OBBYEFKRsbM1GMSKe6iPi
ueHWVJPBq4BoMIHpBgNVHSMEgeEwgd6AFO84jRRQWKdbTZwXcvzfuaynUbAQoYG6
pIG3MIG0MQswCQYDVQQGEwJVUzELMAkGA1UECBMCQ0ExFTATBgNVBAcTDFNhbkZy
YW5jaXNjbzEVMBMGA1UEChMMUGl4Z2xvLCBJbmMuMRAwDgYDVQQLEwdWUE4tQ0lF
MRowGAYDVQQDExF0dW5uZWwucGl4Z2xvLmNvbTEcMBoGA1UEKRMTQmFsYSBDaGFu
ZHJhc2VrYXJhbjEeMBwGCSqGSIb3DQEJARYPYmFsYUBwaXhnbG8uY29tggkAptvG
g4DmoHkwEwYDVR0lBAwwCgYIKwYBBQUHAwIwCwYDVR0PBAQDAgeAMA0GCSqGSIb3
DQEBBQUAA4ICAQA303tqAFzCBS8wd/71n1WBpI+tjI+RQ3mJsmZKWvvrdGsNf5Wr
l360/eKZTw7NMoQg6yWXyryw6HM39Fzz6iNqUYLCI9YlWTA24R7oxNKBrtbfWv/P
bV/ep2iirFUeZ+c7pTHPUUNu3WzSsGDphf2Ed3GnYiY2f9+gjsmad4nxH5ulfsan
2yeykMfPSewIQAYTBDFmNP/JC+ApUKNcmpARdu/5cFq3L9Id47NxQ3PL2Y+U/V3e
/nmqlRTvel3B0ApnBL+t8y5BXOQYr9LdhUSwSRW19BjJYZq3LA6+XHwu7hst8rTe
P3ZX4cHoKcYFXN37Rmz4J/a4nmsthD8dT4oW+wZrdSxJ7nlGU8ABCfSYSvZZ6/F4
62QsctAFNLundgFLlE6dWEz6/p3e/qjILToNynyg5KHhx+Krx99SgUooyhGl3LFu
aiHmacFWNdo+9H6BoZCIv81vMeCoce8o0HhNOFcytxvN+Pzx+oh+VzYjUt/XT980
Arv2wy7R8L1uvQQBiZhfY5NlyV0RYis+OCUl57wm3+JqHmzMnIw62g7e+1Srj16n
eDMLDx5KjsOwrxTJPUBJSG/ySWQIO9UMnLZptj6W11JH3qRdCvEXCu0Zwz/zDaBK
1dGddcpBMdCSVIILC5zydwpqFZbWoJvrdrrHOKQemvRslUy8Yb/TNlMxEA==
-----END CERTIFICATE-----
