Certificate:
    Data:
        Version: 3 (0x2)
        Serial Number: 118 (0x76)
    Signature Algorithm: sha1WithRSAEncryption
        Issuer: C=US, ST=CA, L=SanFrancisco, O=Pixglo, Inc., OU=VPN-CIE, CN=tunnel.pixglo.com/name=Bala Chandrasekaran/emailAddress=bala@pixglo.com
        Validity
            Not Before: Feb 14 06:25:54 2018 GMT
            Not After : Feb 12 06:25:54 2028 GMT
        Subject: C=US, ST=CA, L=SanFrancisco, O=Pixglo, Inc., OU=VPN-CIE, CN=cie117/name=Bala Chandrasekaran/emailAddress=bala@pixglo.com
        Subject Public Key Info:
            Public Key Algorithm: rsaEncryption
                Public-Key: (4096 bit)
                Modulus:
                    00:ac:00:9c:85:e4:39:78:b3:f3:75:4d:45:83:58:
                    e1:c9:24:68:53:86:6e:95:db:9a:8c:f1:29:e6:54:
                    db:33:c2:6f:50:8c:76:c1:b7:cf:af:ba:30:a9:d9:
                    68:1b:78:b0:52:2e:aa:2b:6e:23:fd:c0:87:d4:71:
                    e0:9a:01:e7:80:d1:8a:e0:a8:ab:0c:fc:11:f4:6d:
                    9f:f0:80:e1:59:cf:8b:e9:b9:d1:a6:dd:09:10:82:
                    73:97:0d:b3:ce:31:bc:2a:51:48:47:fe:56:db:ba:
                    69:b3:7e:cd:83:22:3e:27:92:f1:89:c6:b0:5d:de:
                    b2:b9:5d:13:1f:8d:a4:7d:2f:b6:50:24:cf:de:09:
                    20:cd:b8:a8:52:b5:19:1f:df:fa:12:d5:cd:6a:74:
                    eb:cf:a7:3c:9a:8c:e4:a6:76:1d:7d:2f:eb:8f:0f:
                    85:1c:a7:37:52:36:b3:0a:2b:a2:93:e8:2d:d6:e6:
                    a4:b8:bb:7a:b5:f6:d8:cb:05:fe:ea:b2:d8:35:d7:
                    c2:d8:c7:d6:53:69:e8:6e:27:e2:1c:3f:7e:04:d0:
                    2b:b5:51:90:b1:3f:f4:45:91:c6:50:05:4c:7c:8e:
                    90:f8:1e:bb:05:f1:a0:23:4c:ab:5d:b5:68:d4:0d:
                    03:de:51:c5:ec:46:4a:4f:5d:7c:23:0f:dc:e0:3e:
                    9a:2d:af:df:fd:41:75:e4:36:a3:7e:e4:8f:53:f4:
                    4c:9a:38:d4:14:ab:87:eb:9b:00:ca:b1:ee:d3:84:
                    ee:b7:1d:de:5f:45:c0:0d:ad:88:0a:11:a5:a6:30:
                    18:f8:79:ab:dc:aa:ab:26:55:0d:07:4b:2a:8f:32:
                    f8:d1:87:f0:79:6d:f3:95:1d:61:91:c5:06:93:d5:
                    d7:25:bb:1a:51:ee:7c:5a:3c:84:2b:16:0b:22:42:
                    4e:83:e2:18:c2:72:23:12:30:72:0b:0d:aa:f6:e4:
                    f9:ad:6b:20:bf:9d:17:75:73:26:95:8a:54:03:87:
                    23:bf:56:85:8b:a3:08:1f:f3:3a:4c:ff:9c:18:df:
                    fe:7a:1a:25:d6:76:74:37:80:3c:21:77:ba:34:90:
                    9f:bd:55:ba:36:5b:44:d9:6a:b2:cd:7f:b5:3c:e8:
                    c9:53:34:11:8d:df:d3:57:36:97:93:51:1f:e4:55:
                    2f:c3:e0:b4:e9:ac:6a:7b:f4:21:85:1e:22:bf:91:
                    d8:c3:ac:e3:e2:3e:31:58:41:7f:b0:30:f7:35:ab:
                    f9:e7:d1:ee:e1:bc:6d:07:3e:fc:0b:f5:11:03:3c:
                    07:43:0b:4d:2c:fd:bb:b4:68:30:fa:c2:3f:21:7e:
                    38:2c:ad:6a:85:be:8b:fd:a2:2c:5a:ec:10:9c:6a:
                    37:18:83
                Exponent: 65537 (0x10001)
        X509v3 extensions:
            X509v3 Basic Constraints: 
                CA:FALSE
            Netscape Comment: 
                Easy-RSA Generated Certificate
            X509v3 Subject Key Identifier: 
                A9:9D:A1:D6:5F:1A:0B:48:9D:0D:E2:0D:F9:4C:09:8E:8E:3E:38:09
            X509v3 Authority Key Identifier: 
                keyid:EF:38:8D:14:50:58:A7:5B:4D:9C:17:72:FC:DF:B9:AC:A7:51:B0:10
                DirName:/C=US/ST=CA/L=SanFrancisco/O=Pixglo, Inc./OU=VPN-CIE/CN=tunnel.pixglo.com/name=Bala Chandrasekaran/emailAddress=bala@pixglo.com
                serial:A6:DB:C6:83:80:E6:A0:79

            X509v3 Extended Key Usage: 
                TLS Web Client Authentication
            X509v3 Key Usage: 
                Digital Signature
    Signature Algorithm: sha1WithRSAEncryption
         b4:03:cf:ad:58:c1:50:e0:50:33:85:7c:b0:ec:a1:d3:2b:64:
         e2:d8:74:a6:d2:a1:08:72:91:d8:45:ec:ec:fd:c8:c9:4a:da:
         6b:45:08:64:a0:35:e3:e4:bf:37:fd:73:0b:59:22:57:38:e7:
         73:ab:32:b6:84:91:2a:a2:ee:38:76:03:cb:22:dc:18:8a:1e:
         18:aa:e7:dc:40:bb:f7:0f:44:eb:c2:7e:7c:89:a6:cd:b2:81:
         f4:58:eb:5d:d8:85:88:27:07:fc:ff:5d:ff:3f:2d:29:45:09:
         c0:8d:4c:30:4e:ea:39:1b:79:24:9e:eb:3c:e7:83:2b:71:5c:
         92:b9:40:6f:7f:28:5c:46:5a:64:df:ec:59:43:c9:4f:33:5d:
         9b:80:be:8c:97:74:af:8c:fc:83:65:a5:09:7e:e1:0c:0d:ae:
         2b:9b:fe:b6:0d:cc:b5:12:66:a5:b0:31:2a:03:bf:4d:f7:13:
         c4:17:20:c7:04:39:48:7f:08:45:7d:34:ed:70:29:b8:d5:b2:
         a6:53:89:5b:76:a2:82:19:bc:e5:f4:1a:08:17:4d:a4:c3:e2:
         af:50:bd:aa:c5:84:9c:6c:27:3f:e2:0c:da:f7:85:28:cb:8b:
         c4:14:52:20:87:3c:aa:17:75:7d:88:ef:61:87:f1:5b:06:fe:
         3a:05:c6:af:46:13:7d:6e:4d:26:67:51:fc:47:6e:bd:34:c7:
         8a:10:6d:f9:6f:2a:ed:f0:59:bd:93:a1:9f:c7:d1:14:4a:29:
         05:00:55:7b:80:a9:1c:d0:e5:2a:ab:ad:b3:67:c0:b2:7c:1d:
         89:58:46:2f:b7:f0:84:76:e6:61:1d:38:e4:15:62:25:dd:c1:
         82:9f:f2:92:69:29:ef:db:4f:8f:23:1c:88:10:3a:b0:27:33:
         ae:7a:71:11:87:ab:e3:a3:88:02:80:c9:c1:6c:28:f8:ce:62:
         93:90:13:85:3f:3f:35:aa:92:d8:67:25:c6:54:60:73:c7:c1:
         8a:c3:e3:05:c7:4b:51:07:e9:96:a1:7f:fc:06:c3:0b:85:56:
         f4:ec:eb:ce:85:04:56:20:a1:87:fa:f5:48:2b:c2:1b:77:1a:
         00:a1:86:08:00:9f:7a:0b:28:b6:88:6b:fa:c0:4d:b9:97:eb:
         79:f2:2f:aa:d3:39:e3:ab:a2:40:8e:cb:6d:63:e6:f1:68:98:
         33:ec:9d:91:c3:bf:a9:2a:ce:c3:4b:eb:70:dc:7c:09:b1:89:
         92:e1:50:ef:f5:2b:7e:62:ba:fa:b2:81:ce:a8:3d:a8:3c:ff:
         73:5f:a8:90:fe:f7:4c:aa:57:43:f1:fc:dd:7f:65:95:2c:de:
         97:de:4f:dc:f0:e9:21:26
-----BEGIN CERTIFICATE-----
MIIHRzCCBS+gAwIBAgIBdjANBgkqhkiG9w0BAQUFADCBtDELMAkGA1UEBhMCVVMx
CzAJBgNVBAgTAkNBMRUwEwYDVQQHEwxTYW5GcmFuY2lzY28xFTATBgNVBAoTDFBp
eGdsbywgSW5jLjEQMA4GA1UECxMHVlBOLUNJRTEaMBgGA1UEAxMRdHVubmVsLnBp
eGdsby5jb20xHDAaBgNVBCkTE0JhbGEgQ2hhbmRyYXNla2FyYW4xHjAcBgkqhkiG
9w0BCQEWD2JhbGFAcGl4Z2xvLmNvbTAeFw0xODAyMTQwNjI1NTRaFw0yODAyMTIw
NjI1NTRaMIGpMQswCQYDVQQGEwJVUzELMAkGA1UECBMCQ0ExFTATBgNVBAcTDFNh
bkZyYW5jaXNjbzEVMBMGA1UEChMMUGl4Z2xvLCBJbmMuMRAwDgYDVQQLEwdWUE4t
Q0lFMQ8wDQYDVQQDEwZjaWUxMTcxHDAaBgNVBCkTE0JhbGEgQ2hhbmRyYXNla2Fy
YW4xHjAcBgkqhkiG9w0BCQEWD2JhbGFAcGl4Z2xvLmNvbTCCAiIwDQYJKoZIhvcN
AQEBBQADggIPADCCAgoCggIBAKwAnIXkOXiz83VNRYNY4ckkaFOGbpXbmozxKeZU
2zPCb1CMdsG3z6+6MKnZaBt4sFIuqituI/3Ah9Rx4JoB54DRiuCoqwz8EfRtn/CA
4VnPi+m50abdCRCCc5cNs84xvCpRSEf+Vtu6abN+zYMiPieS8YnGsF3esrldEx+N
pH0vtlAkz94JIM24qFK1GR/f+hLVzWp068+nPJqM5KZ2HX0v648PhRynN1I2swor
opPoLdbmpLi7erX22MsF/uqy2DXXwtjH1lNp6G4n4hw/fgTQK7VRkLE/9EWRxlAF
THyOkPgeuwXxoCNMq121aNQNA95RxexGSk9dfCMP3OA+mi2v3/1BdeQ2o37kj1P0
TJo41BSrh+ubAMqx7tOE7rcd3l9FwA2tiAoRpaYwGPh5q9yqqyZVDQdLKo8y+NGH
8Hlt85UdYZHFBpPV1yW7GlHufFo8hCsWCyJCToPiGMJyIxIwcgsNqvbk+a1rIL+d
F3VzJpWKVAOHI79WhYujCB/zOkz/nBjf/noaJdZ2dDeAPCF3ujSQn71VujZbRNlq
ss1/tTzoyVM0EY3f01c2l5NRH+RVL8PgtOmsanv0IYUeIr+R2MOs4+I+MVhBf7Aw
9zWr+efR7uG8bQc+/Av1EQM8B0MLTSz9u7RoMPrCPyF+OCytaoW+i/2iLFrsEJxq
NxiDAgMBAAGjggFrMIIBZzAJBgNVHRMEAjAAMC0GCWCGSAGG+EIBDQQgFh5FYXN5
LVJTQSBHZW5lcmF0ZWQgQ2VydGlmaWNhdGUwHQYDVR0OBBYEFKmdodZfGgtInQ3i
DflMCY6OPjgJMIHpBgNVHSMEgeEwgd6AFO84jRRQWKdbTZwXcvzfuaynUbAQoYG6
pIG3MIG0MQswCQYDVQQGEwJVUzELMAkGA1UECBMCQ0ExFTATBgNVBAcTDFNhbkZy
YW5jaXNjbzEVMBMGA1UEChMMUGl4Z2xvLCBJbmMuMRAwDgYDVQQLEwdWUE4tQ0lF
MRowGAYDVQQDExF0dW5uZWwucGl4Z2xvLmNvbTEcMBoGA1UEKRMTQmFsYSBDaGFu
ZHJhc2VrYXJhbjEeMBwGCSqGSIb3DQEJARYPYmFsYUBwaXhnbG8uY29tggkAptvG
g4DmoHkwEwYDVR0lBAwwCgYIKwYBBQUHAwIwCwYDVR0PBAQDAgeAMA0GCSqGSIb3
DQEBBQUAA4ICAQC0A8+tWMFQ4FAzhXyw7KHTK2Ti2HSm0qEIcpHYRezs/cjJStpr
RQhkoDXj5L83/XMLWSJXOOdzqzK2hJEqou44dgPLItwYih4YqufcQLv3D0Trwn58
iabNsoH0WOtd2IWIJwf8/13/Py0pRQnAjUwwTuo5G3kknus854MrcVySuUBvfyhc
Rlpk3+xZQ8lPM12bgL6Ml3SvjPyDZaUJfuEMDa4rm/62Dcy1EmalsDEqA79N9xPE
FyDHBDlIfwhFfTTtcCm41bKmU4lbdqKCGbzl9BoIF02kw+KvUL2qxYScbCc/4gza
94Uoy4vEFFIghzyqF3V9iO9hh/FbBv46BcavRhN9bk0mZ1H8R269NMeKEG35byrt
8Fm9k6Gfx9EUSikFAFV7gKkc0OUqq62zZ8CyfB2JWEYvt/CEduZhHTjkFWIl3cGC
n/KSaSnv20+PIxyIEDqwJzOuenERh6vjo4gCgMnBbCj4zmKTkBOFPz81qpLYZyXG
VGBzx8GKw+MFx0tRB+mWoX/8BsMLhVb07OvOhQRWIKGH+vVIK8IbdxoAoYYIAJ96
Cyi2iGv6wE25l+t58i+q0znjq6JAjsttY+bxaJgz7J2Rw7+pKs7DS+tw3HwJsYmS
4VDv9St+Yrr6soHOqD2oPP9zX6iQ/vdMqldD8fzdf2WVLN6X3k/c8OkhJg==
-----END CERTIFICATE-----
