Certificate:
    Data:
        Version: 3 (0x2)
        Serial Number: 119 (0x77)
    Signature Algorithm: sha1WithRSAEncryption
        Issuer: C=US, ST=CA, L=SanFrancisco, O=Pixglo, Inc., OU=VPN-CIE, CN=tunnel.pixglo.com/name=Bala Chandrasekaran/emailAddress=bala@pixglo.com
        Validity
            Not Before: Feb 14 06:25:54 2018 GMT
            Not After : Feb 12 06:25:54 2028 GMT
        Subject: C=US, ST=CA, L=SanFrancisco, O=Pixglo, Inc., OU=VPN-CIE, CN=cie118/name=Bala Chandrasekaran/emailAddress=bala@pixglo.com
        Subject Public Key Info:
            Public Key Algorithm: rsaEncryption
                Public-Key: (4096 bit)
                Modulus:
                    00:9a:54:6b:42:13:ee:60:b0:d9:f0:08:51:fb:ec:
                    c9:91:2f:97:b2:29:5d:a9:e3:b8:bc:1f:12:93:e8:
                    ed:f4:61:86:bf:2d:2b:1e:bd:62:39:8c:ee:f3:95:
                    cb:d5:61:b5:23:9d:ee:26:21:3e:ff:fa:53:78:ac:
                    8b:91:52:5d:3b:94:ad:13:5e:0d:ac:be:bb:4c:b5:
                    9e:45:32:27:d5:9f:70:ed:be:c2:11:ea:7d:aa:56:
                    2e:df:bd:8a:cf:9c:04:e9:4f:fe:f0:03:f8:e5:99:
                    d1:f9:03:66:1a:7c:f7:42:0f:fd:dd:a3:04:6a:57:
                    1d:72:20:16:8f:78:45:cb:7d:fb:a7:e7:30:70:ce:
                    9a:f5:44:97:57:e5:c7:c9:b8:4a:d4:72:04:09:34:
                    d7:d5:59:c7:09:1f:0e:1b:fb:d7:28:ae:b6:04:90:
                    55:75:d0:1d:95:03:32:6b:5d:b8:80:9c:8b:46:3b:
                    b7:3a:90:f3:7d:23:a1:5e:22:f5:79:83:7a:39:0f:
                    4b:7d:3f:d2:4e:b6:81:f0:38:97:02:34:07:bc:e5:
                    3a:35:45:16:66:84:5b:d6:20:5a:35:fe:5b:cf:c2:
                    42:19:1c:e9:dd:82:86:a6:95:d2:21:06:a7:4a:ba:
                    be:ce:05:e5:5f:ea:05:72:19:04:21:f3:ab:76:f2:
                    f3:aa:1a:eb:33:2c:3e:cb:0f:2c:06:43:5e:d8:e1:
                    6c:0a:49:f4:e2:25:d5:99:a4:fc:7e:cf:89:46:fa:
                    8d:5d:0e:25:8d:fe:4e:04:87:1c:81:cf:c3:65:e0:
                    f9:7d:8f:00:82:c4:0b:c4:a9:05:56:76:c0:c3:03:
                    fa:4e:dc:dd:1b:37:8b:df:36:37:fb:66:ef:4f:c3:
                    a8:36:b2:da:ab:2d:56:60:d3:de:84:49:42:1e:95:
                    d0:53:2d:af:85:56:c6:9c:ec:c0:d3:7e:57:b7:06:
                    7b:ba:46:88:46:4e:8d:48:28:d3:a3:5e:ef:22:b6:
                    68:5f:3a:35:27:eb:30:c8:3a:cd:c9:c4:77:ce:77:
                    56:7f:13:68:61:f1:8c:76:2e:84:cd:db:73:fc:63:
                    44:f9:3c:ad:7a:f4:8d:7a:64:22:19:20:ee:7d:e1:
                    14:68:fa:37:c4:a9:2b:af:0e:36:d0:6a:13:0b:10:
                    63:5b:e2:73:09:9e:5b:37:13:16:d8:6c:f2:f4:7a:
                    bc:2e:0a:7c:7a:39:15:cb:95:74:d3:19:6d:92:ff:
                    b8:81:0e:36:40:9c:cd:a9:d5:37:96:62:73:ad:10:
                    77:e0:1a:0e:ef:b2:a2:1a:59:71:b3:74:cd:f0:8d:
                    2e:33:fe:e2:2e:b2:dc:72:d4:5d:73:8a:60:03:62:
                    e0:4c:99
                Exponent: 65537 (0x10001)
        X509v3 extensions:
            X509v3 Basic Constraints: 
                CA:FALSE
            Netscape Comment: 
                Easy-RSA Generated Certificate
            X509v3 Subject Key Identifier: 
                F4:D0:9D:54:FA:B1:AC:E3:CF:A1:9F:94:22:51:AE:F1:35:80:3D:56
            X509v3 Authority Key Identifier: 
                keyid:EF:38:8D:14:50:58:A7:5B:4D:9C:17:72:FC:DF:B9:AC:A7:51:B0:10
                DirName:/C=US/ST=CA/L=SanFrancisco/O=Pixglo, Inc./OU=VPN-CIE/CN=tunnel.pixglo.com/name=Bala Chandrasekaran/emailAddress=bala@pixglo.com
                serial:A6:DB:C6:83:80:E6:A0:79

            X509v3 Extended Key Usage: 
                TLS Web Client Authentication
            X509v3 Key Usage: 
                Digital Signature
    Signature Algorithm: sha1WithRSAEncryption
         cb:d8:35:4e:88:6b:a7:1f:5b:79:7f:1c:5e:d0:3e:c0:fd:c8:
         de:95:8b:09:23:b3:70:bd:4a:ba:35:f6:e3:f2:f9:0d:ef:97:
         f5:58:c6:82:f1:6d:64:6d:d2:45:7c:ae:b5:05:65:72:14:a7:
         ef:f0:2f:2a:01:fc:95:5c:18:41:30:70:21:a1:22:a7:31:a7:
         69:09:11:ed:45:73:7f:2a:6c:b2:c6:04:9b:6e:3f:b3:cc:c5:
         84:ec:bd:d8:a7:14:c1:4b:ba:23:5f:1e:ad:57:11:b4:23:02:
         db:40:7d:67:7d:99:51:94:32:35:a5:9f:84:86:ab:89:1d:62:
         da:59:1a:5d:ce:9c:d5:27:6a:9f:10:8e:de:96:dd:19:a9:25:
         8d:13:73:de:a7:b3:4b:9f:77:fd:cb:2c:c6:c0:7a:88:84:12:
         eb:30:04:03:63:19:20:d0:f2:00:16:83:82:3c:14:ed:24:8e:
         6c:ab:0e:51:20:1e:0b:6f:5b:98:a6:2a:be:45:75:68:24:17:
         ef:fb:87:7c:e2:39:f1:b2:b8:3a:8e:b0:bf:62:e6:e9:b5:60:
         b0:db:4e:5b:6e:98:c6:a8:88:9a:04:e8:a5:e0:c9:d2:5c:48:
         de:33:68:dc:73:2b:da:5b:c8:61:c4:bd:8e:ae:f7:b0:28:89:
         67:3e:77:c4:83:44:da:86:5e:25:96:c5:ea:ea:48:05:6f:d3:
         5d:1e:19:c7:ce:46:b3:77:4e:09:9c:4c:6a:93:bf:0f:83:91:
         61:3d:43:47:58:f7:2c:76:33:ea:e3:7a:8a:86:a9:0f:22:f4:
         c8:a6:f6:c4:4c:d9:75:6e:76:c8:2f:8d:0a:48:34:37:bb:8c:
         4d:e7:78:83:60:f6:ca:44:bc:20:5d:f2:e2:4f:8b:22:21:9c:
         8b:b4:ff:3f:ac:48:9b:ab:c3:61:54:0a:cd:d6:b6:74:3c:af:
         6b:9f:dd:24:ad:20:9e:56:a4:a7:f9:b8:46:2f:69:98:79:fd:
         71:db:6a:08:de:4d:be:7d:0b:4e:5e:91:18:1c:a5:1b:01:5e:
         b6:c9:d0:c3:3a:be:46:10:90:16:c7:ca:ff:91:e1:fb:d6:f1:
         e2:47:c1:d5:a8:20:a6:3b:c3:4c:11:90:81:d6:82:b5:51:ab:
         ab:bf:6d:d6:30:8b:ff:a5:e7:8a:0a:73:3d:5c:2d:88:07:b1:
         58:31:73:27:ab:65:4d:4a:8f:bf:13:75:60:8b:38:59:0f:73:
         1e:c1:2d:b0:7f:e9:02:94:7d:fa:95:df:60:0a:27:ab:26:5c:
         72:25:53:27:62:e2:94:60:71:4b:7f:a5:bc:58:21:d5:3a:57:
         f3:b3:b9:06:2a:99:18:37
-----BEGIN CERTIFICATE-----
MIIHRzCCBS+gAwIBAgIBdzANBgkqhkiG9w0BAQUFADCBtDELMAkGA1UEBhMCVVMx
CzAJBgNVBAgTAkNBMRUwEwYDVQQHEwxTYW5GcmFuY2lzY28xFTATBgNVBAoTDFBp
eGdsbywgSW5jLjEQMA4GA1UECxMHVlBOLUNJRTEaMBgGA1UEAxMRdHVubmVsLnBp
eGdsby5jb20xHDAaBgNVBCkTE0JhbGEgQ2hhbmRyYXNla2FyYW4xHjAcBgkqhkiG
9w0BCQEWD2JhbGFAcGl4Z2xvLmNvbTAeFw0xODAyMTQwNjI1NTRaFw0yODAyMTIw
NjI1NTRaMIGpMQswCQYDVQQGEwJVUzELMAkGA1UECBMCQ0ExFTATBgNVBAcTDFNh
bkZyYW5jaXNjbzEVMBMGA1UEChMMUGl4Z2xvLCBJbmMuMRAwDgYDVQQLEwdWUE4t
Q0lFMQ8wDQYDVQQDEwZjaWUxMTgxHDAaBgNVBCkTE0JhbGEgQ2hhbmRyYXNla2Fy
YW4xHjAcBgkqhkiG9w0BCQEWD2JhbGFAcGl4Z2xvLmNvbTCCAiIwDQYJKoZIhvcN
AQEBBQADggIPADCCAgoCggIBAJpUa0IT7mCw2fAIUfvsyZEvl7IpXanjuLwfEpPo
7fRhhr8tKx69YjmM7vOVy9VhtSOd7iYhPv/6U3isi5FSXTuUrRNeDay+u0y1nkUy
J9WfcO2+whHqfapWLt+9is+cBOlP/vAD+OWZ0fkDZhp890IP/d2jBGpXHXIgFo94
Rct9+6fnMHDOmvVEl1flx8m4StRyBAk019VZxwkfDhv71yiutgSQVXXQHZUDMmtd
uICci0Y7tzqQ830joV4i9XmDejkPS30/0k62gfA4lwI0B7zlOjVFFmaEW9YgWjX+
W8/CQhkc6d2ChqaV0iEGp0q6vs4F5V/qBXIZBCHzq3by86oa6zMsPssPLAZDXtjh
bApJ9OIl1Zmk/H7PiUb6jV0OJY3+TgSHHIHPw2Xg+X2PAILEC8SpBVZ2wMMD+k7c
3Rs3i982N/tm70/DqDay2qstVmDT3oRJQh6V0FMtr4VWxpzswNN+V7cGe7pGiEZO
jUgo06Ne7yK2aF86NSfrMMg6zcnEd853Vn8TaGHxjHYuhM3bc/xjRPk8rXr0jXpk
Ihkg7n3hFGj6N8SpK68ONtBqEwsQY1vicwmeWzcTFths8vR6vC4KfHo5FcuVdNMZ
bZL/uIEONkCczanVN5Zic60Qd+AaDu+yohpZcbN0zfCNLjP+4i6y3HLUXXOKYANi
4EyZAgMBAAGjggFrMIIBZzAJBgNVHRMEAjAAMC0GCWCGSAGG+EIBDQQgFh5FYXN5
LVJTQSBHZW5lcmF0ZWQgQ2VydGlmaWNhdGUwHQYDVR0OBBYEFPTQnVT6sazjz6Gf
lCJRrvE1gD1WMIHpBgNVHSMEgeEwgd6AFO84jRRQWKdbTZwXcvzfuaynUbAQoYG6
pIG3MIG0MQswCQYDVQQGEwJVUzELMAkGA1UECBMCQ0ExFTATBgNVBAcTDFNhbkZy
YW5jaXNjbzEVMBMGA1UEChMMUGl4Z2xvLCBJbmMuMRAwDgYDVQQLEwdWUE4tQ0lF
MRowGAYDVQQDExF0dW5uZWwucGl4Z2xvLmNvbTEcMBoGA1UEKRMTQmFsYSBDaGFu
ZHJhc2VrYXJhbjEeMBwGCSqGSIb3DQEJARYPYmFsYUBwaXhnbG8uY29tggkAptvG
g4DmoHkwEwYDVR0lBAwwCgYIKwYBBQUHAwIwCwYDVR0PBAQDAgeAMA0GCSqGSIb3
DQEBBQUAA4ICAQDL2DVOiGunH1t5fxxe0D7A/cjelYsJI7NwvUq6Nfbj8vkN75f1
WMaC8W1kbdJFfK61BWVyFKfv8C8qAfyVXBhBMHAhoSKnMadpCRHtRXN/KmyyxgSb
bj+zzMWE7L3YpxTBS7ojXx6tVxG0IwLbQH1nfZlRlDI1pZ+EhquJHWLaWRpdzpzV
J2qfEI7elt0ZqSWNE3Pep7NLn3f9yyzGwHqIhBLrMAQDYxkg0PIAFoOCPBTtJI5s
qw5RIB4Lb1uYpiq+RXVoJBfv+4d84jnxsrg6jrC/YubptWCw205bbpjGqIiaBOil
4MnSXEjeM2jccyvaW8hhxL2OrvewKIlnPnfEg0Tahl4llsXq6kgFb9NdHhnHzkaz
d04JnExqk78Pg5FhPUNHWPcsdjPq43qKhqkPIvTIpvbETNl1bnbIL40KSDQ3u4xN
53iDYPbKRLwgXfLiT4siIZyLtP8/rEibq8NhVArN1rZ0PK9rn90krSCeVqSn+bhG
L2mYef1x22oI3k2+fQtOXpEYHKUbAV62ydDDOr5GEJAWx8r/keH71vHiR8HVqCCm
O8NMEZCB1oK1Uaurv23WMIv/peeKCnM9XC2IB7FYMXMnq2VNSo+/E3VgizhZD3Me
wS2wf+kClH36ld9gCierJlxyJVMnYuKUYHFLf6W8WCHVOlfzs7kGKpkYNw==
-----END CERTIFICATE-----
