Certificate:
    Data:
        Version: 3 (0x2)
        Serial Number: 121 (0x79)
    Signature Algorithm: sha1WithRSAEncryption
        Issuer: C=US, ST=CA, L=SanFrancisco, O=Pixglo, Inc., OU=VPN-CIE, CN=tunnel.pixglo.com/name=Bala Chandrasekaran/emailAddress=bala@pixglo.com
        Validity
            Not Before: Feb 14 06:25:56 2018 GMT
            Not After : Feb 12 06:25:56 2028 GMT
        Subject: C=US, ST=CA, L=SanFrancisco, O=Pixglo, Inc., OU=VPN-CIE, CN=cie120/name=Bala Chandrasekaran/emailAddress=bala@pixglo.com
        Subject Public Key Info:
            Public Key Algorithm: rsaEncryption
                Public-Key: (4096 bit)
                Modulus:
                    00:b5:a1:8e:f0:48:c0:fa:88:64:dd:dd:a6:05:e2:
                    c4:b5:4a:8d:68:c9:ec:8f:eb:c1:15:60:24:86:c8:
                    76:96:29:4e:b0:44:ac:f0:4c:77:e4:c9:2a:e8:2a:
                    89:29:cb:94:1c:25:5b:e4:c8:30:a4:38:88:b2:f1:
                    e6:c2:27:cc:63:23:2e:b3:b1:3f:c8:37:26:2d:6e:
                    c3:ac:a1:2f:d1:64:91:f6:08:ed:a0:92:fa:c8:2c:
                    b3:df:d1:b7:89:31:c8:fc:ca:26:97:5c:8d:c2:3d:
                    77:54:1d:59:63:0c:2e:5d:6a:71:bc:77:c4:20:ca:
                    38:cd:aa:9e:db:b7:6e:5e:32:f8:d9:f3:e3:44:9c:
                    d6:5b:4f:e2:4b:dc:1f:c3:0a:86:bc:06:38:d8:dc:
                    11:1a:36:97:20:de:b9:21:0e:6f:3c:ca:da:89:74:
                    50:8c:35:86:6d:3b:37:d8:8c:4a:ed:5b:09:1d:ec:
                    2e:11:98:af:d1:bd:fb:9e:21:01:b6:1f:c4:82:42:
                    a7:50:00:6c:84:47:ca:13:35:c6:20:02:cc:63:69:
                    78:38:9d:89:ad:f2:19:b1:04:d9:79:d2:1d:10:a5:
                    ed:13:e6:b2:f6:88:ea:4f:66:e0:fe:af:a9:f9:88:
                    10:26:a0:b4:cf:cb:13:e3:65:2c:29:4d:12:ef:1d:
                    23:f9:4f:e2:a1:8f:82:3b:98:37:c8:57:2b:db:34:
                    dc:56:12:c6:4a:79:05:e8:fb:ac:96:02:8d:cd:65:
                    7e:3f:ea:f2:ca:4c:68:a5:b2:82:1c:aa:c6:82:2c:
                    81:c9:b4:47:05:ee:4c:a5:05:d6:17:52:a1:75:27:
                    fc:59:80:66:3c:44:2a:1e:10:40:38:f3:67:d2:57:
                    99:26:fd:c1:f4:1c:e9:52:70:26:0b:cd:0d:40:43:
                    1a:7d:b6:d3:15:5c:3a:79:1c:9f:46:23:66:1d:f6:
                    9b:b5:05:dc:66:45:31:dc:69:da:cd:55:b3:15:8a:
                    14:6d:8c:37:78:b4:21:76:e9:c1:0a:fa:54:0c:f6:
                    fb:d6:c8:0e:d2:af:f9:58:c6:96:f6:35:d6:3b:76:
                    ca:5f:8c:0c:23:82:54:98:65:0b:cf:9c:3a:e2:08:
                    3e:5a:e9:35:68:d4:de:73:79:1c:26:1a:15:0b:35:
                    8f:4e:2f:99:3f:61:10:22:bb:bd:85:58:7b:1d:f4:
                    c0:ca:d2:39:8a:24:1c:96:3b:f8:d7:41:7f:1c:6f:
                    35:24:0a:df:c7:94:a5:f7:cc:9d:01:65:82:78:73:
                    9d:67:9b:52:23:88:dd:b2:57:df:f8:75:78:eb:88:
                    38:3b:f4:cf:34:d6:b0:80:7d:92:f4:7a:b5:0f:32:
                    c5:79:07
                Exponent: 65537 (0x10001)
        X509v3 extensions:
            X509v3 Basic Constraints: 
                CA:FALSE
            Netscape Comment: 
                Easy-RSA Generated Certificate
            X509v3 Subject Key Identifier: 
                68:EA:84:34:5D:4E:EB:BE:5C:CB:22:E6:91:EA:E0:75:6B:AD:D5:EB
            X509v3 Authority Key Identifier: 
                keyid:EF:38:8D:14:50:58:A7:5B:4D:9C:17:72:FC:DF:B9:AC:A7:51:B0:10
                DirName:/C=US/ST=CA/L=SanFrancisco/O=Pixglo, Inc./OU=VPN-CIE/CN=tunnel.pixglo.com/name=Bala Chandrasekaran/emailAddress=bala@pixglo.com
                serial:A6:DB:C6:83:80:E6:A0:79

            X509v3 Extended Key Usage: 
                TLS Web Client Authentication
            X509v3 Key Usage: 
                Digital Signature
    Signature Algorithm: sha1WithRSAEncryption
         8d:0c:55:42:70:13:3c:8c:a8:4e:98:c0:e7:b8:51:b7:d8:8a:
         69:b5:bd:ca:2b:55:0c:6c:56:4e:cb:30:56:76:c5:92:de:d3:
         1b:4f:2a:9f:7f:62:f9:2b:b1:46:1d:11:cb:08:1b:b0:f7:ef:
         72:19:76:5b:4d:7f:5b:b5:65:27:12:71:53:fe:82:89:4d:ee:
         23:16:ee:ef:4d:3a:eb:17:4b:88:50:4c:c2:ca:1a:bb:95:1e:
         46:4e:6b:bc:cc:fe:c7:fa:32:92:8e:0b:aa:97:01:85:bb:4b:
         fa:86:01:ab:9a:44:41:20:8a:51:17:5a:27:46:7d:7b:7e:5d:
         2b:df:d8:dc:8c:1f:54:d3:37:1d:2d:08:7b:90:50:4a:15:1b:
         46:b6:f5:8b:32:51:2d:40:8a:ee:b0:43:c0:17:93:a8:91:bc:
         ec:37:36:fc:9b:b3:60:46:37:8c:ab:36:31:70:ef:f6:78:7e:
         76:2e:a8:bf:dd:aa:33:06:43:cf:94:e4:bb:97:44:9c:32:60:
         45:7d:2f:e9:e5:91:fe:58:9d:76:ce:97:c9:b7:31:9e:83:f3:
         c0:19:de:f3:d2:cc:ff:04:0e:4b:82:b7:13:42:d2:4d:54:c5:
         a2:ac:15:23:f0:b1:a8:fe:67:c2:a5:11:b7:15:85:99:0b:90:
         25:10:3f:3c:ec:ec:82:c0:44:26:7e:d8:8b:8a:73:fd:19:ff:
         14:ac:cd:b9:b1:05:e5:32:53:51:bf:49:5d:ac:72:e6:ca:a4:
         5f:bc:3a:50:00:08:9a:ea:29:39:93:0b:7a:f5:3b:22:ab:29:
         e5:9a:0f:c1:3f:17:64:68:bd:a9:b3:da:6e:8c:c9:a8:ad:e3:
         06:ba:c1:89:76:c3:b9:12:02:62:da:c2:c9:a4:7d:9c:7b:0f:
         47:fc:73:10:89:03:86:db:47:09:c8:12:69:25:72:a2:fc:62:
         bb:cd:f0:a4:25:b4:8a:9c:82:5f:05:2b:70:25:44:b3:69:a8:
         58:a2:a4:1c:2b:d6:c9:ab:7c:9b:2d:e2:5d:c4:dd:82:b8:91:
         1a:57:74:26:39:c9:77:e5:ca:58:92:00:d8:79:ab:35:80:1d:
         ed:13:07:4b:f8:2b:58:ee:97:74:06:b0:92:0d:28:26:bc:d2:
         96:bb:1a:f2:e5:80:cb:87:2f:a9:ad:bf:d1:3b:77:99:2a:cb:
         17:55:0f:9f:e5:d9:2e:c4:d2:09:36:01:3f:84:bc:6e:61:59:
         b3:4a:27:99:9c:59:89:c7:36:a6:ab:a1:4f:66:26:c5:fd:60:
         03:3e:e3:c0:29:76:6d:90:d6:b7:0f:87:a9:ac:c3:bc:04:9b:
         92:2d:11:fa:3d:94:4c:20
-----BEGIN CERTIFICATE-----
MIIHRzCCBS+gAwIBAgIBeTANBgkqhkiG9w0BAQUFADCBtDELMAkGA1UEBhMCVVMx
CzAJBgNVBAgTAkNBMRUwEwYDVQQHEwxTYW5GcmFuY2lzY28xFTATBgNVBAoTDFBp
eGdsbywgSW5jLjEQMA4GA1UECxMHVlBOLUNJRTEaMBgGA1UEAxMRdHVubmVsLnBp
eGdsby5jb20xHDAaBgNVBCkTE0JhbGEgQ2hhbmRyYXNla2FyYW4xHjAcBgkqhkiG
9w0BCQEWD2JhbGFAcGl4Z2xvLmNvbTAeFw0xODAyMTQwNjI1NTZaFw0yODAyMTIw
NjI1NTZaMIGpMQswCQYDVQQGEwJVUzELMAkGA1UECBMCQ0ExFTATBgNVBAcTDFNh
bkZyYW5jaXNjbzEVMBMGA1UEChMMUGl4Z2xvLCBJbmMuMRAwDgYDVQQLEwdWUE4t
Q0lFMQ8wDQYDVQQDEwZjaWUxMjAxHDAaBgNVBCkTE0JhbGEgQ2hhbmRyYXNla2Fy
YW4xHjAcBgkqhkiG9w0BCQEWD2JhbGFAcGl4Z2xvLmNvbTCCAiIwDQYJKoZIhvcN
AQEBBQADggIPADCCAgoCggIBALWhjvBIwPqIZN3dpgXixLVKjWjJ7I/rwRVgJIbI
dpYpTrBErPBMd+TJKugqiSnLlBwlW+TIMKQ4iLLx5sInzGMjLrOxP8g3Ji1uw6yh
L9FkkfYI7aCS+sgss9/Rt4kxyPzKJpdcjcI9d1QdWWMMLl1qcbx3xCDKOM2qntu3
bl4y+Nnz40Sc1ltP4kvcH8MKhrwGONjcERo2lyDeuSEObzzK2ol0UIw1hm07N9iM
Su1bCR3sLhGYr9G9+54hAbYfxIJCp1AAbIRHyhM1xiACzGNpeDidia3yGbEE2XnS
HRCl7RPmsvaI6k9m4P6vqfmIECagtM/LE+NlLClNEu8dI/lP4qGPgjuYN8hXK9s0
3FYSxkp5Bej7rJYCjc1lfj/q8spMaKWyghyqxoIsgcm0RwXuTKUF1hdSoXUn/FmA
ZjxEKh4QQDjzZ9JXmSb9wfQc6VJwJgvNDUBDGn220xVcOnkcn0YjZh32m7UF3GZF
Mdxp2s1VsxWKFG2MN3i0IXbpwQr6VAz2+9bIDtKv+VjGlvY11jt2yl+MDCOCVJhl
C8+cOuIIPlrpNWjU3nN5HCYaFQs1j04vmT9hECK7vYVYex30wMrSOYokHJY7+NdB
fxxvNSQK38eUpffMnQFlgnhznWebUiOI3bJX3/h1eOuIODv0zzTWsIB9kvR6tQ8y
xXkHAgMBAAGjggFrMIIBZzAJBgNVHRMEAjAAMC0GCWCGSAGG+EIBDQQgFh5FYXN5
LVJTQSBHZW5lcmF0ZWQgQ2VydGlmaWNhdGUwHQYDVR0OBBYEFGjqhDRdTuu+XMsi
5pHq4HVrrdXrMIHpBgNVHSMEgeEwgd6AFO84jRRQWKdbTZwXcvzfuaynUbAQoYG6
pIG3MIG0MQswCQYDVQQGEwJVUzELMAkGA1UECBMCQ0ExFTATBgNVBAcTDFNhbkZy
YW5jaXNjbzEVMBMGA1UEChMMUGl4Z2xvLCBJbmMuMRAwDgYDVQQLEwdWUE4tQ0lF
MRowGAYDVQQDExF0dW5uZWwucGl4Z2xvLmNvbTEcMBoGA1UEKRMTQmFsYSBDaGFu
ZHJhc2VrYXJhbjEeMBwGCSqGSIb3DQEJARYPYmFsYUBwaXhnbG8uY29tggkAptvG
g4DmoHkwEwYDVR0lBAwwCgYIKwYBBQUHAwIwCwYDVR0PBAQDAgeAMA0GCSqGSIb3
DQEBBQUAA4ICAQCNDFVCcBM8jKhOmMDnuFG32Ipptb3KK1UMbFZOyzBWdsWS3tMb
Tyqff2L5K7FGHRHLCBuw9+9yGXZbTX9btWUnEnFT/oKJTe4jFu7vTTrrF0uIUEzC
yhq7lR5GTmu8zP7H+jKSjguqlwGFu0v6hgGrmkRBIIpRF1onRn17fl0r39jcjB9U
0zcdLQh7kFBKFRtGtvWLMlEtQIrusEPAF5OokbzsNzb8m7NgRjeMqzYxcO/2eH52
Lqi/3aozBkPPlOS7l0ScMmBFfS/p5ZH+WJ12zpfJtzGeg/PAGd7z0sz/BA5LgrcT
QtJNVMWirBUj8LGo/mfCpRG3FYWZC5AlED887OyCwEQmftiLinP9Gf8UrM25sQXl
MlNRv0ldrHLmyqRfvDpQAAia6ik5kwt69Tsiqynlmg/BPxdkaL2ps9pujMmoreMG
usGJdsO5EgJi2sLJpH2cew9H/HMQiQOG20cJyBJpJXKi/GK7zfCkJbSKnIJfBStw
JUSzaahYoqQcK9bJq3ybLeJdxN2CuJEaV3QmOcl35cpYkgDYeas1gB3tEwdL+CtY
7pd0BrCSDSgmvNKWuxry5YDLhy+prb/RO3eZKssXVQ+f5dkuxNIJNgE/hLxuYVmz
SieZnFmJxzamq6FPZibF/WADPuPAKXZtkNa3D4eprMO8BJuSLRH6PZRMIA==
-----END CERTIFICATE-----
