Certificate:
    Data:
        Version: 3 (0x2)
        Serial Number: 122 (0x7a)
    Signature Algorithm: sha1WithRSAEncryption
        Issuer: C=US, ST=CA, L=SanFrancisco, O=Pixglo, Inc., OU=VPN-CIE, CN=tunnel.pixglo.com/name=Bala Chandrasekaran/emailAddress=bala@pixglo.com
        Validity
            Not Before: Feb 14 06:25:56 2018 GMT
            Not After : Feb 12 06:25:56 2028 GMT
        Subject: C=US, ST=CA, L=SanFrancisco, O=Pixglo, Inc., OU=VPN-CIE, CN=cie121/name=Bala Chandrasekaran/emailAddress=bala@pixglo.com
        Subject Public Key Info:
            Public Key Algorithm: rsaEncryption
                Public-Key: (4096 bit)
                Modulus:
                    00:c0:0f:22:13:4e:c5:85:09:6b:d6:5a:e2:79:42:
                    6e:d3:71:8b:e3:c1:5e:7a:4e:19:b7:54:5a:ab:bd:
                    ce:dc:5c:33:b0:f4:46:8a:ca:fb:2c:dd:4c:87:eb:
                    47:3a:3d:9b:55:ab:66:27:1f:61:a3:8e:58:a6:df:
                    1a:92:9f:df:30:80:dc:aa:40:aa:ed:dc:3d:43:27:
                    66:41:6f:d7:16:73:5d:b0:ba:38:2b:d4:1d:95:a7:
                    b5:2f:b4:14:ed:ba:3e:e4:1d:3c:1f:be:cb:51:98:
                    ee:53:c6:cc:ad:13:6a:ca:af:68:e9:43:48:c5:a5:
                    89:36:0f:38:e0:54:20:01:d6:c1:5c:9b:74:99:fc:
                    e6:47:3b:64:7d:57:bc:67:36:6f:12:f1:05:2e:89:
                    0b:84:64:d8:92:a2:01:2c:7d:a6:bb:b4:e2:91:a7:
                    b6:81:c4:94:0f:64:d5:98:39:d3:8e:6b:2d:fe:52:
                    44:24:a0:7e:86:3d:b1:da:fa:21:82:43:99:ff:f3:
                    8c:a2:8d:bf:58:6e:c1:c8:cc:d5:25:da:6f:df:91:
                    3a:df:6b:30:e4:15:2c:62:ef:95:6d:01:a7:65:aa:
                    e7:08:b6:bb:99:db:83:b9:2c:d6:93:0f:98:1e:77:
                    b6:1d:16:d1:1d:cb:24:0c:47:c4:75:82:68:5d:e0:
                    82:4d:bb:ae:93:6f:10:50:64:13:92:78:09:0a:79:
                    f8:78:ad:ac:ca:93:8f:84:00:0f:7b:62:64:f1:51:
                    7c:a0:08:e0:bc:69:25:07:e1:17:75:3c:43:49:5a:
                    63:5b:7a:67:63:b2:c0:b2:3f:ff:ce:18:37:12:f4:
                    36:83:15:3e:c5:8f:c5:6d:c8:a0:20:24:79:96:cd:
                    06:17:34:ff:93:04:3d:57:d9:82:2a:ea:ab:a5:0e:
                    0d:28:e7:e3:95:9d:b5:f7:b0:73:94:b1:b6:45:f1:
                    a7:e3:7c:5c:93:4b:63:f5:dd:7d:db:6d:1a:ef:72:
                    d8:56:0a:6f:84:a6:57:60:3f:cc:fc:63:0e:b7:43:
                    da:21:71:c4:ff:f9:c7:9a:eb:4f:39:d6:16:c0:94:
                    32:ec:1e:de:72:93:b6:ae:34:80:4c:ac:05:48:e9:
                    a1:fe:da:62:30:86:42:25:8d:50:33:54:e3:32:55:
                    54:13:d9:50:66:8e:9a:69:d7:5c:7b:61:71:a0:16:
                    9f:50:a0:8e:7e:ce:79:ec:e2:a0:0c:61:c2:fd:42:
                    85:af:d8:cd:f0:90:4d:d8:8c:4c:27:8a:ab:ee:e5:
                    cd:9c:13:59:a6:00:45:10:74:cb:c5:61:ee:23:ed:
                    90:c6:bb:5a:46:17:d8:6d:86:4d:9c:33:9d:08:3e:
                    46:46:5b
                Exponent: 65537 (0x10001)
        X509v3 extensions:
            X509v3 Basic Constraints: 
                CA:FALSE
            Netscape Comment: 
                Easy-RSA Generated Certificate
            X509v3 Subject Key Identifier: 
                B6:B7:0C:BA:E7:5A:FC:7D:4E:49:D3:CB:40:03:E8:F8:4B:73:FC:52
            X509v3 Authority Key Identifier: 
                keyid:EF:38:8D:14:50:58:A7:5B:4D:9C:17:72:FC:DF:B9:AC:A7:51:B0:10
                DirName:/C=US/ST=CA/L=SanFrancisco/O=Pixglo, Inc./OU=VPN-CIE/CN=tunnel.pixglo.com/name=Bala Chandrasekaran/emailAddress=bala@pixglo.com
                serial:A6:DB:C6:83:80:E6:A0:79

            X509v3 Extended Key Usage: 
                TLS Web Client Authentication
            X509v3 Key Usage: 
                Digital Signature
    Signature Algorithm: sha1WithRSAEncryption
         70:88:fd:ab:bd:95:0b:d7:0a:bf:d5:a7:7c:90:d2:4b:04:b3:
         9b:3a:c8:66:47:14:16:69:25:1a:8e:42:92:05:e3:ac:59:59:
         2f:ec:72:f9:c7:b1:19:c1:12:fe:8c:c5:75:9c:11:95:c3:b0:
         f6:6d:2f:3e:34:7d:2a:9c:25:b2:73:61:ac:7c:14:4a:c6:82:
         03:9e:c8:94:35:f3:1d:2f:e6:de:4d:eb:e6:5a:09:8e:10:10:
         86:2f:2a:d3:9a:d1:5a:28:8a:3b:bc:28:3e:11:f9:23:cc:aa:
         6e:42:75:ea:67:06:23:cf:b4:24:d0:ee:64:86:99:7f:1e:ac:
         37:8c:de:04:f4:64:00:10:2d:74:49:a2:cd:f7:3e:3c:3d:5e:
         a5:85:a9:96:c4:d2:4e:4f:b7:e8:14:ec:8b:0c:f6:e4:a0:b0:
         d4:e3:e5:5d:2c:fc:9e:a2:db:89:d6:10:62:8c:05:b7:43:65:
         2a:16:30:ca:b2:2b:3a:bc:1c:c1:f6:28:6a:1d:c0:45:a1:31:
         a7:3e:69:42:80:dd:a0:a2:44:66:9c:7f:7a:5f:68:1a:8d:98:
         88:03:fd:97:1f:09:f6:d3:de:40:31:12:96:f8:3e:20:85:73:
         bd:83:42:10:f0:b6:4a:79:07:34:b4:96:aa:43:22:62:05:d5:
         82:cd:08:f6:fd:e4:6e:2f:a4:3c:83:fd:84:42:de:1d:a0:7f:
         26:59:91:a1:be:72:64:37:16:e8:31:97:ed:25:4d:30:e5:f2:
         55:23:ab:ba:f6:4d:13:ee:08:20:f7:2e:fb:b0:d8:9f:b5:3b:
         12:64:b3:a1:0f:45:ad:2b:90:6c:c4:83:d0:ff:61:c0:fd:7a:
         bd:2d:1a:20:79:49:b2:c5:00:b3:6e:be:37:df:12:e4:96:47:
         d2:6f:c6:47:45:54:d2:ad:83:d5:25:ee:18:80:f9:71:a2:26:
         ad:58:13:b3:4f:09:49:38:83:eb:76:55:36:3d:62:8d:9c:35:
         04:06:18:69:a6:22:f1:9b:9d:49:c9:31:ff:75:89:af:6a:2d:
         69:e2:1c:15:e4:4b:72:e3:1d:4f:4a:81:78:c7:39:d9:f7:ac:
         be:3f:01:83:3f:77:fd:a7:f5:4b:cb:bd:12:54:de:16:d8:97:
         c3:4f:eb:aa:cc:c3:a0:be:3d:12:19:76:eb:4a:b1:d3:46:89:
         ce:ed:da:e7:39:ac:8e:32:aa:af:56:42:7b:69:c3:ed:24:ee:
         8b:9f:98:a6:9c:8b:6e:c9:0c:e3:c5:4d:d2:f9:b3:8b:21:25:
         40:d0:c7:6d:5b:b2:41:3d:00:60:af:ad:08:71:e4:9e:e3:5e:
         8b:5a:7d:98:b8:b8:ba:7e
-----BEGIN CERTIFICATE-----
MIIHRzCCBS+gAwIBAgIBejANBgkqhkiG9w0BAQUFADCBtDELMAkGA1UEBhMCVVMx
CzAJBgNVBAgTAkNBMRUwEwYDVQQHEwxTYW5GcmFuY2lzY28xFTATBgNVBAoTDFBp
eGdsbywgSW5jLjEQMA4GA1UECxMHVlBOLUNJRTEaMBgGA1UEAxMRdHVubmVsLnBp
eGdsby5jb20xHDAaBgNVBCkTE0JhbGEgQ2hhbmRyYXNla2FyYW4xHjAcBgkqhkiG
9w0BCQEWD2JhbGFAcGl4Z2xvLmNvbTAeFw0xODAyMTQwNjI1NTZaFw0yODAyMTIw
NjI1NTZaMIGpMQswCQYDVQQGEwJVUzELMAkGA1UECBMCQ0ExFTATBgNVBAcTDFNh
bkZyYW5jaXNjbzEVMBMGA1UEChMMUGl4Z2xvLCBJbmMuMRAwDgYDVQQLEwdWUE4t
Q0lFMQ8wDQYDVQQDEwZjaWUxMjExHDAaBgNVBCkTE0JhbGEgQ2hhbmRyYXNla2Fy
YW4xHjAcBgkqhkiG9w0BCQEWD2JhbGFAcGl4Z2xvLmNvbTCCAiIwDQYJKoZIhvcN
AQEBBQADggIPADCCAgoCggIBAMAPIhNOxYUJa9Za4nlCbtNxi+PBXnpOGbdUWqu9
ztxcM7D0RorK+yzdTIfrRzo9m1WrZicfYaOOWKbfGpKf3zCA3KpAqu3cPUMnZkFv
1xZzXbC6OCvUHZWntS+0FO26PuQdPB++y1GY7lPGzK0TasqvaOlDSMWliTYPOOBU
IAHWwVybdJn85kc7ZH1XvGc2bxLxBS6JC4Rk2JKiASx9pru04pGntoHElA9k1Zg5
045rLf5SRCSgfoY9sdr6IYJDmf/zjKKNv1huwcjM1SXab9+ROt9rMOQVLGLvlW0B
p2Wq5wi2u5nbg7ks1pMPmB53th0W0R3LJAxHxHWCaF3ggk27rpNvEFBkE5J4CQp5
+HitrMqTj4QAD3tiZPFRfKAI4LxpJQfhF3U8Q0laY1t6Z2OywLI//84YNxL0NoMV
PsWPxW3IoCAkeZbNBhc0/5MEPVfZgirqq6UODSjn45Wdtfewc5SxtkXxp+N8XJNL
Y/XdfdttGu9y2FYKb4SmV2A/zPxjDrdD2iFxxP/5x5rrTznWFsCUMuwe3nKTtq40
gEysBUjpof7aYjCGQiWNUDNU4zJVVBPZUGaOmmnXXHthcaAWn1Cgjn7OeezioAxh
wv1Cha/YzfCQTdiMTCeKq+7lzZwTWaYARRB0y8Vh7iPtkMa7WkYX2G2GTZwznQg+
RkZbAgMBAAGjggFrMIIBZzAJBgNVHRMEAjAAMC0GCWCGSAGG+EIBDQQgFh5FYXN5
LVJTQSBHZW5lcmF0ZWQgQ2VydGlmaWNhdGUwHQYDVR0OBBYEFLa3DLrnWvx9TknT
y0AD6PhLc/xSMIHpBgNVHSMEgeEwgd6AFO84jRRQWKdbTZwXcvzfuaynUbAQoYG6
pIG3MIG0MQswCQYDVQQGEwJVUzELMAkGA1UECBMCQ0ExFTATBgNVBAcTDFNhbkZy
YW5jaXNjbzEVMBMGA1UEChMMUGl4Z2xvLCBJbmMuMRAwDgYDVQQLEwdWUE4tQ0lF
MRowGAYDVQQDExF0dW5uZWwucGl4Z2xvLmNvbTEcMBoGA1UEKRMTQmFsYSBDaGFu
ZHJhc2VrYXJhbjEeMBwGCSqGSIb3DQEJARYPYmFsYUBwaXhnbG8uY29tggkAptvG
g4DmoHkwEwYDVR0lBAwwCgYIKwYBBQUHAwIwCwYDVR0PBAQDAgeAMA0GCSqGSIb3
DQEBBQUAA4ICAQBwiP2rvZUL1wq/1ad8kNJLBLObOshmRxQWaSUajkKSBeOsWVkv
7HL5x7EZwRL+jMV1nBGVw7D2bS8+NH0qnCWyc2GsfBRKxoIDnsiUNfMdL+beTevm
WgmOEBCGLyrTmtFaKIo7vCg+EfkjzKpuQnXqZwYjz7Qk0O5khpl/Hqw3jN4E9GQA
EC10SaLN9z48PV6lhamWxNJOT7foFOyLDPbkoLDU4+VdLPyeotuJ1hBijAW3Q2Uq
FjDKsis6vBzB9ihqHcBFoTGnPmlCgN2gokRmnH96X2gajZiIA/2XHwn2095AMRKW
+D4ghXO9g0IQ8LZKeQc0tJaqQyJiBdWCzQj2/eRuL6Q8g/2EQt4doH8mWZGhvnJk
NxboMZftJU0w5fJVI6u69k0T7ggg9y77sNiftTsSZLOhD0WtK5BsxIPQ/2HA/Xq9
LRogeUmyxQCzbr433xLklkfSb8ZHRVTSrYPVJe4YgPlxoiatWBOzTwlJOIPrdlU2
PWKNnDUEBhhppiLxm51JyTH/dYmvai1p4hwV5Ety4x1PSoF4xznZ96y+PwGDP3f9
p/VLy70SVN4W2JfDT+uqzMOgvj0SGXbrSrHTRonO7drnOayOMqqvVkJ7acPtJO6L
n5imnItuyQzjxU3S+bOLISVA0MdtW7JBPQBgr60IceSe416LWn2YuLi6fg==
-----END CERTIFICATE-----
