Certificate:
    Data:
        Version: 3 (0x2)
        Serial Number: 124 (0x7c)
    Signature Algorithm: sha1WithRSAEncryption
        Issuer: C=US, ST=CA, L=SanFrancisco, O=Pixglo, Inc., OU=VPN-CIE, CN=tunnel.pixglo.com/name=Bala Chandrasekaran/emailAddress=bala@pixglo.com
        Validity
            Not Before: Feb 14 06:25:58 2018 GMT
            Not After : Feb 12 06:25:58 2028 GMT
        Subject: C=US, ST=CA, L=SanFrancisco, O=Pixglo, Inc., OU=VPN-CIE, CN=cie123/name=Bala Chandrasekaran/emailAddress=bala@pixglo.com
        Subject Public Key Info:
            Public Key Algorithm: rsaEncryption
                Public-Key: (4096 bit)
                Modulus:
                    00:c6:97:da:03:0e:1b:e3:47:21:d7:8d:a4:0a:67:
                    06:35:4e:7a:72:20:fa:96:0b:78:ce:6c:53:5b:0b:
                    bf:77:1a:31:53:14:df:0e:4c:bf:dd:a4:ee:6c:16:
                    c1:38:35:55:38:95:cc:f5:b6:61:d1:0a:f3:9f:2b:
                    ee:df:41:e1:52:fa:4d:5c:8c:b8:7e:f3:d2:13:53:
                    9c:88:0f:93:a6:ca:45:f8:44:94:ef:de:6f:75:e7:
                    81:db:33:25:c8:97:fc:12:db:cf:44:cf:3c:8b:d4:
                    ec:0e:80:6c:5c:1e:51:22:31:2a:f7:d5:46:4f:95:
                    ee:48:09:b3:7c:d0:6d:ad:ed:36:fa:c0:e3:0a:72:
                    b0:13:bc:d8:f5:6d:99:65:89:30:91:9d:af:13:af:
                    a9:a5:2f:b2:49:ef:35:ba:af:64:35:4c:1e:9e:49:
                    90:54:8d:d4:8f:5d:18:2e:5d:5b:0a:a1:34:03:8a:
                    23:13:bc:68:7d:36:52:3d:06:d1:d0:ff:58:8f:71:
                    34:ad:a4:54:80:aa:19:31:c6:cd:5b:4a:0c:dd:12:
                    a2:eb:ed:9f:dc:91:b0:88:59:8d:b3:78:d9:6c:fc:
                    ec:88:8c:9f:6d:d5:d5:6a:ba:62:9c:5d:c3:d6:16:
                    17:81:31:c2:10:de:55:cc:ff:cf:c5:bc:36:ae:f9:
                    64:8c:aa:60:97:02:35:9a:79:e5:d1:75:82:d4:09:
                    03:02:73:e6:80:3e:19:d4:7f:17:76:02:63:4b:c5:
                    1e:44:68:37:f5:91:25:c7:17:62:17:92:c8:b6:73:
                    a4:b5:52:74:83:b8:d6:db:70:ff:87:0c:7f:b4:2f:
                    5f:4a:1b:d2:1d:8f:39:76:59:85:4a:d9:65:a8:32:
                    e2:ef:d0:6a:8b:05:8f:b3:57:6a:51:65:16:76:03:
                    94:c9:95:b5:58:0e:4b:cc:26:da:80:5a:5b:b8:2a:
                    f0:97:12:ee:ab:34:25:c4:68:32:81:50:43:7f:d7:
                    d1:5c:74:f9:d5:57:7e:aa:8e:06:49:c2:d4:9a:84:
                    00:e4:11:bd:44:bc:6f:b2:27:cc:b9:f2:c6:9e:88:
                    54:2c:d9:46:26:e9:ed:4e:f6:7c:76:f1:6e:7a:ff:
                    41:84:ef:29:32:bc:f5:52:68:a3:b0:cd:0b:aa:e1:
                    60:8e:4b:65:2d:4e:9e:c4:08:c6:ce:fd:7d:43:32:
                    4a:41:0e:d0:79:9e:52:fc:c6:e1:be:16:39:b3:0d:
                    c7:57:6d:4b:31:00:8a:82:3f:c5:64:23:22:d0:86:
                    55:bc:4a:27:95:2f:62:d1:09:df:aa:f7:1d:e2:e6:
                    5c:b3:9a:1c:d4:a8:3c:28:d1:69:01:5a:6d:9f:0e:
                    3b:2c:65
                Exponent: 65537 (0x10001)
        X509v3 extensions:
            X509v3 Basic Constraints: 
                CA:FALSE
            Netscape Comment: 
                Easy-RSA Generated Certificate
            X509v3 Subject Key Identifier: 
                BF:05:9A:F6:C8:0A:1E:AE:FE:73:BA:CD:44:21:21:6F:68:16:79:26
            X509v3 Authority Key Identifier: 
                keyid:EF:38:8D:14:50:58:A7:5B:4D:9C:17:72:FC:DF:B9:AC:A7:51:B0:10
                DirName:/C=US/ST=CA/L=SanFrancisco/O=Pixglo, Inc./OU=VPN-CIE/CN=tunnel.pixglo.com/name=Bala Chandrasekaran/emailAddress=bala@pixglo.com
                serial:A6:DB:C6:83:80:E6:A0:79

            X509v3 Extended Key Usage: 
                TLS Web Client Authentication
            X509v3 Key Usage: 
                Digital Signature
    Signature Algorithm: sha1WithRSAEncryption
         d9:b7:95:cc:a2:a4:44:62:4d:47:b3:35:98:56:81:62:b5:5a:
         eb:91:50:6b:34:dc:ee:10:67:35:b5:89:ba:3e:a1:09:e6:e4:
         66:9b:73:31:3d:e0:f2:b0:e0:f9:45:fc:08:f2:08:76:a1:d8:
         df:db:32:33:0a:05:aa:2c:9f:9e:d6:a7:fc:e7:12:58:53:37:
         2a:ce:66:03:72:01:f1:fa:cb:eb:57:05:42:c6:b3:a6:52:9a:
         59:30:f4:5f:67:14:07:80:50:a2:bf:28:be:b6:76:6b:22:41:
         5a:e8:53:27:db:c9:0b:6e:cd:16:8f:66:9d:56:43:b6:28:42:
         b9:bf:4a:57:d8:57:27:db:15:99:25:80:db:f2:f7:18:38:d2:
         8e:d2:ff:71:9b:40:30:71:20:7f:be:1d:67:24:fa:68:04:e8:
         08:2c:9e:0d:88:7c:0e:5d:a0:27:74:d7:db:d7:4a:6d:cc:f4:
         65:34:9e:57:d2:39:d6:e6:2c:ba:68:0c:7f:73:06:39:25:e4:
         10:86:19:e7:cc:7e:02:9f:6b:9e:d9:7a:98:9e:38:c6:60:78:
         49:81:03:98:64:e0:3f:6f:a5:2b:5b:bc:26:d0:be:92:6b:3c:
         49:a4:73:af:70:80:df:90:a3:71:5d:fc:fd:86:ec:a9:79:e1:
         d7:6b:96:31:4f:7a:c6:0f:05:aa:f9:03:01:f0:7f:36:f0:e4:
         fc:4c:76:c7:62:cf:a2:8d:da:3e:8e:a5:ec:48:2d:1e:56:3d:
         40:af:c7:70:96:5a:14:83:34:0a:b9:40:a8:85:21:6b:6f:7d:
         d2:c4:af:6a:51:d5:22:8a:4e:0c:dc:7e:c1:44:cc:a9:88:44:
         20:64:e7:82:d5:f8:9d:e2:7e:fe:84:3c:f2:c3:17:10:b2:25:
         be:ba:61:96:03:f5:29:5a:24:fb:bf:af:d3:63:b4:ee:42:e5:
         13:ab:73:f9:02:99:96:c4:02:27:d2:31:fc:2e:72:12:e8:17:
         8e:49:36:b0:a4:4f:51:1c:d2:d5:07:80:b6:51:2b:a4:08:62:
         c2:82:5a:4b:dd:4a:79:8c:57:5f:7a:67:89:c6:03:9b:bd:1d:
         83:ec:b1:f5:06:af:cb:18:cd:95:e4:c6:b8:c7:d3:26:cd:61:
         89:62:b3:01:b4:23:c4:b4:fa:52:8c:b3:ca:9a:37:b8:5d:fe:
         b6:49:46:c1:4a:0b:c7:dc:ea:38:fa:c0:5f:84:9d:cf:b3:27:
         42:bd:4a:50:8c:ba:de:19:8e:e8:a0:f7:5b:84:57:52:dc:6a:
         f7:f8:07:77:93:3a:20:d9:9c:c8:2a:1c:98:e9:04:9b:9f:01:
         47:71:2c:09:d4:83:86:d8
-----BEGIN CERTIFICATE-----
MIIHRzCCBS+gAwIBAgIBfDANBgkqhkiG9w0BAQUFADCBtDELMAkGA1UEBhMCVVMx
CzAJBgNVBAgTAkNBMRUwEwYDVQQHEwxTYW5GcmFuY2lzY28xFTATBgNVBAoTDFBp
eGdsbywgSW5jLjEQMA4GA1UECxMHVlBOLUNJRTEaMBgGA1UEAxMRdHVubmVsLnBp
eGdsby5jb20xHDAaBgNVBCkTE0JhbGEgQ2hhbmRyYXNla2FyYW4xHjAcBgkqhkiG
9w0BCQEWD2JhbGFAcGl4Z2xvLmNvbTAeFw0xODAyMTQwNjI1NThaFw0yODAyMTIw
NjI1NThaMIGpMQswCQYDVQQGEwJVUzELMAkGA1UECBMCQ0ExFTATBgNVBAcTDFNh
bkZyYW5jaXNjbzEVMBMGA1UEChMMUGl4Z2xvLCBJbmMuMRAwDgYDVQQLEwdWUE4t
Q0lFMQ8wDQYDVQQDEwZjaWUxMjMxHDAaBgNVBCkTE0JhbGEgQ2hhbmRyYXNla2Fy
YW4xHjAcBgkqhkiG9w0BCQEWD2JhbGFAcGl4Z2xvLmNvbTCCAiIwDQYJKoZIhvcN
AQEBBQADggIPADCCAgoCggIBAMaX2gMOG+NHIdeNpApnBjVOenIg+pYLeM5sU1sL
v3caMVMU3w5Mv92k7mwWwTg1VTiVzPW2YdEK858r7t9B4VL6TVyMuH7z0hNTnIgP
k6bKRfhElO/eb3XngdszJciX/BLbz0TPPIvU7A6AbFweUSIxKvfVRk+V7kgJs3zQ
ba3tNvrA4wpysBO82PVtmWWJMJGdrxOvqaUvsknvNbqvZDVMHp5JkFSN1I9dGC5d
WwqhNAOKIxO8aH02Uj0G0dD/WI9xNK2kVICqGTHGzVtKDN0Souvtn9yRsIhZjbN4
2Wz87IiMn23V1Wq6Ypxdw9YWF4ExwhDeVcz/z8W8Nq75ZIyqYJcCNZp55dF1gtQJ
AwJz5oA+GdR/F3YCY0vFHkRoN/WRJccXYheSyLZzpLVSdIO41ttw/4cMf7QvX0ob
0h2POXZZhUrZZagy4u/QaosFj7NXalFlFnYDlMmVtVgOS8wm2oBaW7gq8JcS7qs0
JcRoMoFQQ3/X0Vx0+dVXfqqOBknC1JqEAOQRvUS8b7InzLnyxp6IVCzZRibp7U72
fHbxbnr/QYTvKTK89VJoo7DNC6rhYI5LZS1OnsQIxs79fUMySkEO0HmeUvzG4b4W
ObMNx1dtSzEAioI/xWQjItCGVbxKJ5UvYtEJ36r3HeLmXLOaHNSoPCjRaQFabZ8O
OyxlAgMBAAGjggFrMIIBZzAJBgNVHRMEAjAAMC0GCWCGSAGG+EIBDQQgFh5FYXN5
LVJTQSBHZW5lcmF0ZWQgQ2VydGlmaWNhdGUwHQYDVR0OBBYEFL8FmvbICh6u/nO6
zUQhIW9oFnkmMIHpBgNVHSMEgeEwgd6AFO84jRRQWKdbTZwXcvzfuaynUbAQoYG6
pIG3MIG0MQswCQYDVQQGEwJVUzELMAkGA1UECBMCQ0ExFTATBgNVBAcTDFNhbkZy
YW5jaXNjbzEVMBMGA1UEChMMUGl4Z2xvLCBJbmMuMRAwDgYDVQQLEwdWUE4tQ0lF
MRowGAYDVQQDExF0dW5uZWwucGl4Z2xvLmNvbTEcMBoGA1UEKRMTQmFsYSBDaGFu
ZHJhc2VrYXJhbjEeMBwGCSqGSIb3DQEJARYPYmFsYUBwaXhnbG8uY29tggkAptvG
g4DmoHkwEwYDVR0lBAwwCgYIKwYBBQUHAwIwCwYDVR0PBAQDAgeAMA0GCSqGSIb3
DQEBBQUAA4ICAQDZt5XMoqREYk1HszWYVoFitVrrkVBrNNzuEGc1tYm6PqEJ5uRm
m3MxPeDysOD5RfwI8gh2odjf2zIzCgWqLJ+e1qf85xJYUzcqzmYDcgHx+svrVwVC
xrOmUppZMPRfZxQHgFCivyi+tnZrIkFa6FMn28kLbs0Wj2adVkO2KEK5v0pX2Fcn
2xWZJYDb8vcYONKO0v9xm0AwcSB/vh1nJPpoBOgILJ4NiHwOXaAndNfb10ptzPRl
NJ5X0jnW5iy6aAx/cwY5JeQQhhnnzH4Cn2ue2XqYnjjGYHhJgQOYZOA/b6UrW7wm
0L6SazxJpHOvcIDfkKNxXfz9huypeeHXa5YxT3rGDwWq+QMB8H828OT8THbHYs+i
jdo+jqXsSC0eVj1Ar8dwlloUgzQKuUCohSFrb33SxK9qUdUiik4M3H7BRMypiEQg
ZOeC1fid4n7+hDzywxcQsiW+umGWA/UpWiT7v6/TY7TuQuUTq3P5ApmWxAIn0jH8
LnIS6BeOSTawpE9RHNLVB4C2USukCGLCglpL3Up5jFdfemeJxgObvR2D7LH1Bq/L
GM2V5Ma4x9MmzWGJYrMBtCPEtPpSjLPKmje4Xf62SUbBSgvH3Oo4+sBfhJ3PsydC
vUpQjLreGY7ooPdbhFdS3Gr3+Ad3kzog2ZzIKhyY6QSbnwFHcSwJ1IOG2A==
-----END CERTIFICATE-----
