Certificate:
    Data:
        Version: 3 (0x2)
        Serial Number: 125 (0x7d)
    Signature Algorithm: sha1WithRSAEncryption
        Issuer: C=US, ST=CA, L=SanFrancisco, O=Pixglo, Inc., OU=VPN-CIE, CN=tunnel.pixglo.com/name=Bala Chandrasekaran/emailAddress=bala@pixglo.com
        Validity
            Not Before: Feb 14 06:25:58 2018 GMT
            Not After : Feb 12 06:25:58 2028 GMT
        Subject: C=US, ST=CA, L=SanFrancisco, O=Pixglo, Inc., OU=VPN-CIE, CN=cie124/name=Bala Chandrasekaran/emailAddress=bala@pixglo.com
        Subject Public Key Info:
            Public Key Algorithm: rsaEncryption
                Public-Key: (4096 bit)
                Modulus:
                    00:f2:10:59:d2:be:c1:b2:3f:e3:78:da:cb:ca:e7:
                    2f:1a:98:63:79:6a:0c:b1:a5:4a:39:d8:22:ba:c0:
                    65:1c:bb:e8:db:4e:8b:37:87:b1:0b:9f:a5:ef:06:
                    a1:73:cc:06:6d:48:78:3b:6e:dc:4f:d6:dc:11:bb:
                    b6:33:dd:ea:17:56:46:60:63:9a:43:81:eb:bd:32:
                    54:4b:d1:86:ad:d2:95:92:75:22:c3:69:6c:ac:a1:
                    35:aa:30:e7:7e:52:14:dd:51:af:fb:4d:b9:33:a6:
                    d9:d7:60:c5:d4:3c:11:bc:5c:dc:69:72:33:2e:65:
                    70:d5:d3:1b:b7:24:b9:76:70:e8:d5:28:9d:66:a3:
                    30:04:50:fa:f7:1e:00:1e:47:5d:1e:1d:6e:59:5e:
                    ed:fd:34:3d:29:90:dc:69:fc:7f:a2:8d:36:20:de:
                    cd:00:ae:62:28:9e:e4:6d:36:ee:92:a6:1e:d7:f8:
                    e2:82:db:62:2b:a6:da:4f:32:a8:5d:a2:02:6e:4a:
                    33:cf:5f:3f:e1:d6:ba:ae:6b:6c:e3:bc:89:ab:3b:
                    60:f7:60:26:18:06:81:ba:6c:d4:02:6c:fa:37:4e:
                    a3:cd:b6:42:cf:7f:62:17:df:57:78:3b:5e:42:a6:
                    42:5d:97:26:12:6c:bd:06:7e:4f:31:cb:0f:c9:61:
                    e5:11:93:92:8a:11:dc:57:34:95:e7:f9:ca:c3:36:
                    23:81:cf:1d:98:26:7b:ed:84:5f:0d:43:3c:be:c6:
                    1a:99:82:f4:6a:13:ab:64:5c:30:a0:94:ba:8b:25:
                    5b:35:fc:c9:c8:a9:eb:03:1c:86:87:5c:9b:5d:c4:
                    4e:20:eb:b1:97:72:7e:d0:06:69:a6:4c:03:e8:e4:
                    7f:fd:0e:4d:8e:99:8e:d1:bb:29:3e:ef:b3:0c:50:
                    67:2a:aa:6f:f2:d9:ef:04:e7:27:5d:fe:f5:87:c5:
                    fc:d9:3e:fe:d6:25:73:8a:00:84:2c:b9:44:7a:fb:
                    2d:46:c9:f6:11:9e:d6:1e:df:50:5f:4d:f0:e9:17:
                    df:91:97:2f:6f:1c:1a:fc:65:98:b9:b8:52:3f:d0:
                    d7:4b:a3:d4:f0:87:0a:ba:e9:8b:eb:4e:83:e5:9a:
                    a3:20:28:39:c7:2e:e8:57:50:1b:1d:25:0e:99:58:
                    c8:ec:f5:09:7e:52:26:80:81:36:dd:09:d9:17:d7:
                    e7:16:61:b5:8d:f8:de:e9:f6:35:fe:d4:bc:45:06:
                    8f:d9:99:48:e4:5f:aa:ab:73:d4:4f:0a:9a:ed:cf:
                    3e:50:57:85:7c:c2:6f:f9:8e:9a:23:7e:5d:09:e2:
                    e6:38:f9:8a:28:d4:cf:3e:90:20:47:63:02:5c:37:
                    2b:22:7f
                Exponent: 65537 (0x10001)
        X509v3 extensions:
            X509v3 Basic Constraints: 
                CA:FALSE
            Netscape Comment: 
                Easy-RSA Generated Certificate
            X509v3 Subject Key Identifier: 
                61:5C:D4:5D:C3:98:66:2E:8A:7E:5F:44:A8:D3:2E:AD:C4:0B:AF:1F
            X509v3 Authority Key Identifier: 
                keyid:EF:38:8D:14:50:58:A7:5B:4D:9C:17:72:FC:DF:B9:AC:A7:51:B0:10
                DirName:/C=US/ST=CA/L=SanFrancisco/O=Pixglo, Inc./OU=VPN-CIE/CN=tunnel.pixglo.com/name=Bala Chandrasekaran/emailAddress=bala@pixglo.com
                serial:A6:DB:C6:83:80:E6:A0:79

            X509v3 Extended Key Usage: 
                TLS Web Client Authentication
            X509v3 Key Usage: 
                Digital Signature
    Signature Algorithm: sha1WithRSAEncryption
         0f:a6:88:62:e2:f6:ad:67:eb:af:3b:00:50:6d:b6:12:ce:5b:
         a0:e5:a6:43:b7:2b:d4:89:87:38:a8:8f:ec:08:b7:66:ac:70:
         33:c5:74:39:27:56:c7:13:35:ef:6d:9f:f7:eb:4c:95:d6:00:
         c2:ba:0c:df:ee:16:fb:91:29:1d:86:fb:7a:d1:dc:8b:1b:76:
         2c:1c:77:9c:e1:7d:ca:3b:c1:fb:e5:b6:e4:e0:b7:61:6b:78:
         6f:ed:fa:c7:f8:58:5d:fd:3b:44:05:f2:96:13:b1:bb:a4:50:
         a5:4f:f8:d9:77:b4:b2:23:62:8b:82:8e:f9:d0:67:89:75:1c:
         2d:24:0a:2d:77:d3:79:23:df:71:86:32:d6:f9:38:f6:ac:38:
         16:04:30:c9:1c:97:73:de:a2:3e:c1:1e:85:b6:8a:25:e6:cc:
         1f:4e:cb:d4:af:79:9b:18:b7:3c:fc:2f:f1:54:05:d2:35:72:
         07:8d:93:bc:90:da:69:5c:a3:14:73:9b:1c:0b:87:63:85:fa:
         5d:02:91:57:b6:d5:10:7a:a5:2a:9a:4c:90:dd:52:42:77:d5:
         21:f4:dc:62:69:8b:47:56:d2:e6:5f:73:af:fa:3d:ce:af:bc:
         e3:39:15:4f:32:17:0e:13:fd:53:78:26:74:03:c4:31:02:7d:
         9f:45:d5:5d:e8:25:19:36:bb:2f:cd:f9:03:e9:f8:1c:a4:73:
         d3:1b:29:d6:f5:eb:4e:51:62:c1:1d:b0:80:24:23:14:2c:fa:
         14:82:ab:59:96:68:1a:50:fe:8f:8c:27:9a:f4:f7:a4:2f:09:
         94:ff:62:75:e5:80:62:41:8c:41:04:71:c6:57:c8:d4:e4:9b:
         a2:9b:2a:96:27:4c:c5:b3:63:74:60:c1:08:72:ee:3e:35:68:
         c1:c9:b4:26:0e:89:47:0c:f3:36:82:41:b4:01:bb:99:db:5c:
         b4:c7:cd:f6:5d:5d:47:80:1b:3a:19:e2:13:7d:83:e8:ac:37:
         9d:9b:d7:da:1a:ad:ee:ed:c8:71:fd:23:4d:15:fc:06:d1:c3:
         8a:d1:3c:32:b8:a9:4d:07:e4:00:02:d1:ec:7d:d0:6e:f4:53:
         1f:e1:7e:97:d7:a3:6c:9d:5b:87:36:d8:78:3f:aa:e0:25:b4:
         9c:2d:53:9e:22:b1:1b:e7:36:c5:a9:62:07:18:da:4b:60:4a:
         3c:6a:a9:b8:55:23:60:64:59:5a:d8:8b:f7:a7:33:5e:9c:25:
         7b:78:48:bf:33:59:c7:88:93:e9:74:1b:27:32:89:d5:95:06:
         25:11:b4:e0:fe:63:b3:a9:00:12:9e:74:87:91:51:c4:76:31:
         5f:6a:43:1e:71:4c:36:e3
-----BEGIN CERTIFICATE-----
MIIHRzCCBS+gAwIBAgIBfTANBgkqhkiG9w0BAQUFADCBtDELMAkGA1UEBhMCVVMx
CzAJBgNVBAgTAkNBMRUwEwYDVQQHEwxTYW5GcmFuY2lzY28xFTATBgNVBAoTDFBp
eGdsbywgSW5jLjEQMA4GA1UECxMHVlBOLUNJRTEaMBgGA1UEAxMRdHVubmVsLnBp
eGdsby5jb20xHDAaBgNVBCkTE0JhbGEgQ2hhbmRyYXNla2FyYW4xHjAcBgkqhkiG
9w0BCQEWD2JhbGFAcGl4Z2xvLmNvbTAeFw0xODAyMTQwNjI1NThaFw0yODAyMTIw
NjI1NThaMIGpMQswCQYDVQQGEwJVUzELMAkGA1UECBMCQ0ExFTATBgNVBAcTDFNh
bkZyYW5jaXNjbzEVMBMGA1UEChMMUGl4Z2xvLCBJbmMuMRAwDgYDVQQLEwdWUE4t
Q0lFMQ8wDQYDVQQDEwZjaWUxMjQxHDAaBgNVBCkTE0JhbGEgQ2hhbmRyYXNla2Fy
YW4xHjAcBgkqhkiG9w0BCQEWD2JhbGFAcGl4Z2xvLmNvbTCCAiIwDQYJKoZIhvcN
AQEBBQADggIPADCCAgoCggIBAPIQWdK+wbI/43jay8rnLxqYY3lqDLGlSjnYIrrA
ZRy76NtOizeHsQufpe8GoXPMBm1IeDtu3E/W3BG7tjPd6hdWRmBjmkOB670yVEvR
hq3SlZJ1IsNpbKyhNaow535SFN1Rr/tNuTOm2ddgxdQ8Ebxc3GlyMy5lcNXTG7ck
uXZw6NUonWajMARQ+vceAB5HXR4dblle7f00PSmQ3Gn8f6KNNiDezQCuYiie5G02
7pKmHtf44oLbYium2k8yqF2iAm5KM89fP+HWuq5rbOO8ias7YPdgJhgGgbps1AJs
+jdOo822Qs9/YhffV3g7XkKmQl2XJhJsvQZ+TzHLD8lh5RGTkooR3Fc0lef5ysM2
I4HPHZgme+2EXw1DPL7GGpmC9GoTq2RcMKCUuoslWzX8ycip6wMchodcm13ETiDr
sZdyftAGaaZMA+jkf/0OTY6ZjtG7KT7vswxQZyqqb/LZ7wTnJ13+9YfF/Nk+/tYl
c4oAhCy5RHr7LUbJ9hGe1h7fUF9N8OkX35GXL28cGvxlmLm4Uj/Q10uj1PCHCrrp
i+tOg+WaoyAoOccu6FdQGx0lDplYyOz1CX5SJoCBNt0J2RfX5xZhtY343un2Nf7U
vEUGj9mZSORfqqtz1E8Kmu3PPlBXhXzCb/mOmiN+XQni5jj5iijUzz6QIEdjAlw3
KyJ/AgMBAAGjggFrMIIBZzAJBgNVHRMEAjAAMC0GCWCGSAGG+EIBDQQgFh5FYXN5
LVJTQSBHZW5lcmF0ZWQgQ2VydGlmaWNhdGUwHQYDVR0OBBYEFGFc1F3DmGYuin5f
RKjTLq3EC68fMIHpBgNVHSMEgeEwgd6AFO84jRRQWKdbTZwXcvzfuaynUbAQoYG6
pIG3MIG0MQswCQYDVQQGEwJVUzELMAkGA1UECBMCQ0ExFTATBgNVBAcTDFNhbkZy
YW5jaXNjbzEVMBMGA1UEChMMUGl4Z2xvLCBJbmMuMRAwDgYDVQQLEwdWUE4tQ0lF
MRowGAYDVQQDExF0dW5uZWwucGl4Z2xvLmNvbTEcMBoGA1UEKRMTQmFsYSBDaGFu
ZHJhc2VrYXJhbjEeMBwGCSqGSIb3DQEJARYPYmFsYUBwaXhnbG8uY29tggkAptvG
g4DmoHkwEwYDVR0lBAwwCgYIKwYBBQUHAwIwCwYDVR0PBAQDAgeAMA0GCSqGSIb3
DQEBBQUAA4ICAQAPpohi4vatZ+uvOwBQbbYSzlug5aZDtyvUiYc4qI/sCLdmrHAz
xXQ5J1bHEzXvbZ/360yV1gDCugzf7hb7kSkdhvt60dyLG3YsHHec4X3KO8H75bbk
4Ldha3hv7frH+Fhd/TtEBfKWE7G7pFClT/jZd7SyI2KLgo750GeJdRwtJAotd9N5
I99xhjLW+Tj2rDgWBDDJHJdz3qI+wR6Ftool5swfTsvUr3mbGLc8/C/xVAXSNXIH
jZO8kNppXKMUc5scC4djhfpdApFXttUQeqUqmkyQ3VJCd9Uh9NxiaYtHVtLmX3Ov
+j3Or7zjORVPMhcOE/1TeCZ0A8QxAn2fRdVd6CUZNrsvzfkD6fgcpHPTGynW9etO
UWLBHbCAJCMULPoUgqtZlmgaUP6PjCea9PekLwmU/2J15YBiQYxBBHHGV8jU5Jui
myqWJ0zFs2N0YMEIcu4+NWjBybQmDolHDPM2gkG0AbuZ21y0x832XV1HgBs6GeIT
fYPorDedm9faGq3u7chx/SNNFfwG0cOK0TwyuKlNB+QAAtHsfdBu9FMf4X6X16Ns
nVuHNth4P6rgJbScLVOeIrEb5zbFqWIHGNpLYEo8aqm4VSNgZFla2Iv3pzNenCV7
eEi/M1nHiJPpdBsnMonVlQYlEbTg/mOzqQASnnSHkVHEdjFfakMecUw24w==
-----END CERTIFICATE-----
