Certificate:
    Data:
        Version: 3 (0x2)
        Serial Number: 129 (0x81)
    Signature Algorithm: sha1WithRSAEncryption
        Issuer: C=US, ST=CA, L=SanFrancisco, O=Pixglo, Inc., OU=VPN-CIE, CN=tunnel.pixglo.com/name=Bala Chandrasekaran/emailAddress=bala@pixglo.com
        Validity
            Not Before: Feb 14 06:26:01 2018 GMT
            Not After : Feb 12 06:26:01 2028 GMT
        Subject: C=US, ST=CA, L=SanFrancisco, O=Pixglo, Inc., OU=VPN-CIE, CN=cie128/name=Bala Chandrasekaran/emailAddress=bala@pixglo.com
        Subject Public Key Info:
            Public Key Algorithm: rsaEncryption
                Public-Key: (4096 bit)
                Modulus:
                    00:c9:19:bb:86:97:fc:e9:6c:3b:30:26:52:71:d7:
                    ad:a9:fd:3b:03:22:77:2d:0a:81:6b:73:d3:77:28:
                    b3:ed:36:60:5d:ba:ba:65:28:d6:37:1a:a5:67:97:
                    22:92:73:58:de:3e:d8:90:04:78:d9:97:e9:aa:30:
                    10:6f:c6:36:66:9d:0c:10:d0:de:69:8b:83:6f:a8:
                    41:2d:48:d3:f3:fa:ac:54:23:99:db:e2:04:97:ce:
                    c6:9c:7e:b1:f0:47:6c:29:e9:c5:3d:e8:e6:04:38:
                    cc:11:be:f4:55:cb:fa:67:00:00:db:d7:32:5f:85:
                    3f:40:90:04:0a:31:98:8a:94:ae:89:1b:45:ac:fd:
                    c1:7f:ae:92:ab:38:e8:26:e3:e2:bc:6b:d7:88:11:
                    42:64:8e:85:94:3b:cc:fe:57:8d:3e:a7:27:7b:4a:
                    44:36:39:85:5f:8d:e5:54:ca:8d:37:f8:b7:5c:43:
                    b7:c7:36:04:7a:a9:43:39:7a:1e:47:8d:2f:bd:3f:
                    6d:1a:58:3b:71:77:7e:ec:c4:8f:f1:12:8b:13:3c:
                    c0:24:d6:20:b5:28:45:cc:29:d4:bf:90:a3:1d:d5:
                    4c:0b:d0:c6:17:4a:24:a1:81:1c:17:f0:c5:55:c2:
                    a5:9c:fb:a1:79:50:b3:08:01:c2:30:94:dc:c9:f3:
                    21:cc:11:54:cb:d9:cf:3c:7c:6f:3d:c9:cb:ef:46:
                    74:f8:63:a2:07:e3:b5:8a:b8:8f:26:02:00:20:66:
                    5c:af:bf:32:b7:39:ad:62:ed:9c:41:fd:e9:4c:1b:
                    fe:3c:e3:38:8a:40:33:28:8e:51:ab:77:26:f4:b9:
                    ea:92:b8:df:08:88:f5:64:73:75:95:9f:c7:20:2e:
                    24:b6:ee:d6:2a:e6:6e:a2:81:e2:42:9a:34:67:4f:
                    ed:95:1c:f4:a1:1e:00:3e:15:91:82:a9:93:99:73:
                    66:56:d8:94:23:9f:74:02:27:7d:68:2d:2c:de:6b:
                    76:66:4f:21:8d:07:bf:d6:c7:c4:9f:50:84:63:a0:
                    15:c8:9d:49:90:03:c0:d9:74:91:89:ed:4a:54:16:
                    71:86:09:0e:e8:64:67:87:39:e7:d2:27:ac:3f:fb:
                    02:c4:7a:68:41:e7:55:2b:ac:0b:24:f2:48:8b:bf:
                    81:52:ef:a7:95:a4:e7:c9:ed:a1:7d:41:ec:48:d1:
                    63:0d:68:fa:51:08:13:aa:d2:f9:d3:53:ab:48:7b:
                    f9:a0:24:a2:42:32:44:8e:48:c2:4d:c2:5a:9b:3e:
                    96:9a:40:54:b7:1f:93:ad:71:a5:23:00:1b:fe:07:
                    46:04:f3:5f:5f:7f:f9:32:44:34:39:08:9d:d1:3d:
                    b2:94:9b
                Exponent: 65537 (0x10001)
        X509v3 extensions:
            X509v3 Basic Constraints: 
                CA:FALSE
            Netscape Comment: 
                Easy-RSA Generated Certificate
            X509v3 Subject Key Identifier: 
                D7:CF:06:01:4F:DF:57:A2:0C:A5:73:A0:4B:60:1D:FE:42:64:B7:01
            X509v3 Authority Key Identifier: 
                keyid:EF:38:8D:14:50:58:A7:5B:4D:9C:17:72:FC:DF:B9:AC:A7:51:B0:10
                DirName:/C=US/ST=CA/L=SanFrancisco/O=Pixglo, Inc./OU=VPN-CIE/CN=tunnel.pixglo.com/name=Bala Chandrasekaran/emailAddress=bala@pixglo.com
                serial:A6:DB:C6:83:80:E6:A0:79

            X509v3 Extended Key Usage: 
                TLS Web Client Authentication
            X509v3 Key Usage: 
                Digital Signature
    Signature Algorithm: sha1WithRSAEncryption
         00:bb:d8:c5:e2:4c:de:41:c7:be:9c:c0:e3:01:29:6f:cb:b8:
         41:27:69:c1:fd:8a:5a:eb:c1:88:9f:1d:79:63:f6:55:ec:52:
         06:21:a8:29:ad:58:54:86:7f:7a:10:05:a4:09:e5:35:23:98:
         b2:2a:58:a0:69:2e:97:40:53:b9:0c:d8:05:b9:8b:0d:bf:c7:
         3c:89:92:33:55:0a:a7:d0:21:04:32:f4:15:bd:7b:dc:14:47:
         fb:0d:fa:c2:50:5f:2f:07:50:e7:1a:96:49:5b:60:10:b6:00:
         dc:93:ae:b2:cd:cb:2e:c3:56:f1:08:86:05:98:d2:0a:d3:e0:
         3e:52:ce:8b:42:83:08:04:e2:a9:27:53:f3:08:3d:74:d3:ee:
         ed:4b:9b:7c:57:8b:bb:70:2a:19:ed:3c:52:db:99:32:1a:45:
         0c:2e:d2:b3:74:4d:99:85:64:8f:fb:7b:aa:1d:b8:10:5d:fc:
         c7:59:82:1f:52:25:a2:46:69:8f:d2:6c:e1:75:6f:ce:2c:5e:
         c3:61:69:88:b0:0f:75:32:db:54:47:f2:09:1e:fe:dd:ee:e4:
         f0:01:b9:61:24:96:98:34:cb:c9:1c:9c:a2:b7:56:55:b2:d8:
         77:2c:2a:b4:5c:2c:fc:4e:38:9a:07:8c:c8:45:c3:4c:50:47:
         92:aa:62:80:72:7c:08:aa:bc:f0:f5:4d:18:2a:8e:1d:26:b0:
         1e:1a:8d:2a:28:ce:e0:ec:75:71:86:08:bc:93:34:7a:39:bd:
         81:d0:2b:1f:09:da:f3:41:5a:de:6d:4a:22:a3:1e:45:27:f3:
         f6:2c:37:aa:b4:51:7e:2a:83:04:bd:b6:4e:ba:50:c7:de:be:
         c4:74:9d:a5:02:88:58:a0:96:19:7e:27:fa:92:e4:50:6d:f5:
         1b:4b:f6:ac:a4:d0:86:46:ea:e6:58:02:f0:f5:d3:51:4c:34:
         fd:62:7f:4b:4a:75:01:b8:bd:d8:51:92:9f:d8:a7:eb:99:8a:
         32:d5:42:29:ea:fd:fe:26:8a:b8:d4:ff:84:db:c9:49:85:70:
         62:8b:5a:c8:93:9f:e0:33:19:da:05:9a:39:8c:49:78:3d:b1:
         a9:e1:92:f0:ba:6e:7f:55:4c:52:d9:d0:d8:bb:f6:76:43:0d:
         e5:a5:c2:d8:b9:43:c5:39:34:f9:18:a0:1e:ce:94:ae:d6:39:
         59:a1:72:03:e8:f9:00:e0:d0:86:ad:2a:3b:1a:5c:3a:b9:3f:
         73:7b:7f:71:52:b6:1d:8c:e1:5f:dc:92:60:31:6a:ab:b1:d4:
         16:b7:76:fc:a6:df:e2:75:c7:81:d6:22:9b:b0:58:84:17:5b:
         7a:a5:f0:1a:c8:5f:14:2b
-----BEGIN CERTIFICATE-----
MIIHSDCCBTCgAwIBAgICAIEwDQYJKoZIhvcNAQEFBQAwgbQxCzAJBgNVBAYTAlVT
MQswCQYDVQQIEwJDQTEVMBMGA1UEBxMMU2FuRnJhbmNpc2NvMRUwEwYDVQQKEwxQ
aXhnbG8sIEluYy4xEDAOBgNVBAsTB1ZQTi1DSUUxGjAYBgNVBAMTEXR1bm5lbC5w
aXhnbG8uY29tMRwwGgYDVQQpExNCYWxhIENoYW5kcmFzZWthcmFuMR4wHAYJKoZI
hvcNAQkBFg9iYWxhQHBpeGdsby5jb20wHhcNMTgwMjE0MDYyNjAxWhcNMjgwMjEy
MDYyNjAxWjCBqTELMAkGA1UEBhMCVVMxCzAJBgNVBAgTAkNBMRUwEwYDVQQHEwxT
YW5GcmFuY2lzY28xFTATBgNVBAoTDFBpeGdsbywgSW5jLjEQMA4GA1UECxMHVlBO
LUNJRTEPMA0GA1UEAxMGY2llMTI4MRwwGgYDVQQpExNCYWxhIENoYW5kcmFzZWth
cmFuMR4wHAYJKoZIhvcNAQkBFg9iYWxhQHBpeGdsby5jb20wggIiMA0GCSqGSIb3
DQEBAQUAA4ICDwAwggIKAoICAQDJGbuGl/zpbDswJlJx162p/TsDInctCoFrc9N3
KLPtNmBdurplKNY3GqVnlyKSc1jePtiQBHjZl+mqMBBvxjZmnQwQ0N5pi4NvqEEt
SNPz+qxUI5nb4gSXzsacfrHwR2wp6cU96OYEOMwRvvRVy/pnAADb1zJfhT9AkAQK
MZiKlK6JG0Ws/cF/rpKrOOgm4+K8a9eIEUJkjoWUO8z+V40+pyd7SkQ2OYVfjeVU
yo03+LdcQ7fHNgR6qUM5eh5HjS+9P20aWDtxd37sxI/xEosTPMAk1iC1KEXMKdS/
kKMd1UwL0MYXSiShgRwX8MVVwqWc+6F5ULMIAcIwlNzJ8yHMEVTL2c88fG89ycvv
RnT4Y6IH47WKuI8mAgAgZlyvvzK3Oa1i7ZxB/elMG/484ziKQDMojlGrdyb0ueqS
uN8IiPVkc3WVn8cgLiS27tYq5m6igeJCmjRnT+2VHPShHgA+FZGCqZOZc2ZW2JQj
n3QCJ31oLSzea3ZmTyGNB7/Wx8SfUIRjoBXInUmQA8DZdJGJ7UpUFnGGCQ7oZGeH
OefSJ6w/+wLEemhB51UrrAsk8kiLv4FS76eVpOfJ7aF9QexI0WMNaPpRCBOq0vnT
U6tIe/mgJKJCMkSOSMJNwlqbPpaaQFS3H5OtcaUjABv+B0YE819ff/kyRDQ5CJ3R
PbKUmwIDAQABo4IBazCCAWcwCQYDVR0TBAIwADAtBglghkgBhvhCAQ0EIBYeRWFz
eS1SU0EgR2VuZXJhdGVkIENlcnRpZmljYXRlMB0GA1UdDgQWBBTXzwYBT99Xogyl
c6BLYB3+QmS3ATCB6QYDVR0jBIHhMIHegBTvOI0UUFinW02cF3L837msp1GwEKGB
uqSBtzCBtDELMAkGA1UEBhMCVVMxCzAJBgNVBAgTAkNBMRUwEwYDVQQHEwxTYW5G
cmFuY2lzY28xFTATBgNVBAoTDFBpeGdsbywgSW5jLjEQMA4GA1UECxMHVlBOLUNJ
RTEaMBgGA1UEAxMRdHVubmVsLnBpeGdsby5jb20xHDAaBgNVBCkTE0JhbGEgQ2hh
bmRyYXNla2FyYW4xHjAcBgkqhkiG9w0BCQEWD2JhbGFAcGl4Z2xvLmNvbYIJAKbb
xoOA5qB5MBMGA1UdJQQMMAoGCCsGAQUFBwMCMAsGA1UdDwQEAwIHgDANBgkqhkiG
9w0BAQUFAAOCAgEAALvYxeJM3kHHvpzA4wEpb8u4QSdpwf2KWuvBiJ8deWP2VexS
BiGoKa1YVIZ/ehAFpAnlNSOYsipYoGkul0BTuQzYBbmLDb/HPImSM1UKp9AhBDL0
Fb173BRH+w36wlBfLwdQ5xqWSVtgELYA3JOuss3LLsNW8QiGBZjSCtPgPlLOi0KD
CATiqSdT8wg9dNPu7UubfFeLu3AqGe08UtuZMhpFDC7Ss3RNmYVkj/t7qh24EF38
x1mCH1IlokZpj9Js4XVvzixew2FpiLAPdTLbVEfyCR7+3e7k8AG5YSSWmDTLyRyc
ordWVbLYdywqtFws/E44mgeMyEXDTFBHkqpigHJ8CKq88PVNGCqOHSawHhqNKijO
4Ox1cYYIvJM0ejm9gdArHwna80Fa3m1KIqMeRSfz9iw3qrRRfiqDBL22TrpQx96+
xHSdpQKIWKCWGX4n+pLkUG31G0v2rKTQhkbq5lgC8PXTUUw0/WJ/S0p1Abi92FGS
n9in65mKMtVCKer9/iaKuNT/hNvJSYVwYotayJOf4DMZ2gWaOYxJeD2xqeGS8Lpu
f1VMUtnQ2Lv2dkMN5aXC2LlDxTk0+RigHs6UrtY5WaFyA+j5AODQhq0qOxpcOrk/
c3t/cVK2HYzhX9ySYDFqq7HUFrd2/Kbf4nXHgdYim7BYhBdbeqXwGshfFCs=
-----END CERTIFICATE-----
