Certificate:
    Data:
        Version: 3 (0x2)
        Serial Number: 130 (0x82)
    Signature Algorithm: sha1WithRSAEncryption
        Issuer: C=US, ST=CA, L=SanFrancisco, O=Pixglo, Inc., OU=VPN-CIE, CN=tunnel.pixglo.com/name=Bala Chandrasekaran/emailAddress=bala@pixglo.com
        Validity
            Not Before: Feb 14 06:26:01 2018 GMT
            Not After : Feb 12 06:26:01 2028 GMT
        Subject: C=US, ST=CA, L=SanFrancisco, O=Pixglo, Inc., OU=VPN-CIE, CN=cie129/name=Bala Chandrasekaran/emailAddress=bala@pixglo.com
        Subject Public Key Info:
            Public Key Algorithm: rsaEncryption
                Public-Key: (4096 bit)
                Modulus:
                    00:cf:6c:bd:40:b5:84:13:b8:37:ed:1b:fc:71:3d:
                    e3:be:98:75:50:d5:2b:4e:bd:05:8c:58:78:11:36:
                    ce:26:72:6b:41:e9:bc:aa:45:c1:55:2f:f8:d0:7c:
                    ce:33:72:66:79:41:54:da:60:ed:c8:02:d9:76:d9:
                    3c:07:9c:63:68:51:4b:fc:59:3f:09:b2:24:7b:50:
                    03:f0:b0:4e:71:97:47:67:f3:45:0d:30:55:42:82:
                    66:85:87:06:64:e9:48:3c:17:b8:a4:e3:b0:2e:6d:
                    3b:0f:4f:2e:e7:cd:a7:53:1f:27:a4:0c:fd:68:bf:
                    90:cb:6b:c3:50:be:93:11:e1:9c:34:e4:c7:81:9f:
                    9f:9a:ef:9c:40:4f:73:72:1d:77:2b:7e:32:0f:67:
                    1a:21:7e:e5:be:e3:65:4e:e8:cb:34:26:fc:02:45:
                    64:ae:6a:69:23:cb:93:16:4d:3a:6e:ee:aa:65:c3:
                    a0:8d:c9:38:a0:75:0b:80:e5:bc:42:68:c6:12:53:
                    23:d0:6b:fc:14:4d:55:4f:6f:ee:d4:b1:11:e5:70:
                    5c:d1:b3:2d:38:2c:c2:a3:7c:6e:e8:56:b4:1c:e0:
                    bc:cb:bb:27:68:88:56:c5:11:d9:6d:8a:f8:bc:3d:
                    bf:8b:57:dc:a8:80:ee:12:c2:e4:6a:f8:56:28:ee:
                    76:b4:69:e8:b8:02:45:56:5e:6b:ef:5d:18:1f:8f:
                    a3:a3:ba:fb:fd:81:8a:80:df:f3:d8:b4:e5:8c:b2:
                    4a:aa:ac:59:bc:0d:27:64:61:58:b1:98:2e:9a:e7:
                    07:cc:5e:34:1d:5c:50:8a:4b:da:b2:8e:10:28:d1:
                    cf:e9:e5:7e:37:d5:a8:94:f5:19:a2:4c:6a:2b:76:
                    7e:38:c5:65:65:2d:f9:6f:2a:81:bc:ca:22:41:4a:
                    3e:e1:0c:43:a0:c9:2f:3c:86:82:56:21:c4:5f:76:
                    1e:01:42:f3:17:e0:d3:fe:a1:76:e6:9d:92:8b:18:
                    00:8b:74:11:55:f4:bc:f2:d6:38:49:2c:eb:c5:02:
                    20:4b:ee:3a:65:ce:09:6b:0a:c7:89:1d:e9:71:00:
                    cc:ee:a5:96:fb:f3:97:97:46:77:cd:79:a6:ec:73:
                    47:24:85:09:0a:41:c3:b7:7b:6f:7c:16:0d:a6:91:
                    ba:1b:e1:ac:9f:f7:3e:5b:dd:56:35:08:74:9f:fc:
                    ce:77:3e:1f:64:f8:71:29:f7:98:22:a5:f8:2c:5d:
                    77:61:1d:17:18:bf:a7:1e:3b:eb:f8:fa:67:3e:84:
                    1c:87:26:30:d6:f6:cd:b0:bb:0c:0d:95:b2:e2:ec:
                    f6:ad:c6:55:b3:b2:95:a0:24:60:9d:04:cb:75:d2:
                    74:30:e1
                Exponent: 65537 (0x10001)
        X509v3 extensions:
            X509v3 Basic Constraints: 
                CA:FALSE
            Netscape Comment: 
                Easy-RSA Generated Certificate
            X509v3 Subject Key Identifier: 
                6B:F6:BE:E9:62:CE:F9:EB:B2:E0:CA:7E:B3:D7:69:9B:C7:E4:5D:F2
            X509v3 Authority Key Identifier: 
                keyid:EF:38:8D:14:50:58:A7:5B:4D:9C:17:72:FC:DF:B9:AC:A7:51:B0:10
                DirName:/C=US/ST=CA/L=SanFrancisco/O=Pixglo, Inc./OU=VPN-CIE/CN=tunnel.pixglo.com/name=Bala Chandrasekaran/emailAddress=bala@pixglo.com
                serial:A6:DB:C6:83:80:E6:A0:79

            X509v3 Extended Key Usage: 
                TLS Web Client Authentication
            X509v3 Key Usage: 
                Digital Signature
    Signature Algorithm: sha1WithRSAEncryption
         44:bd:2a:a7:d5:a7:68:3d:5e:b0:88:04:5c:4e:df:f3:8b:f2:
         d7:65:aa:ae:1b:f1:78:5a:61:58:b4:17:94:4c:f2:14:8e:63:
         45:dd:03:76:e1:63:28:5b:96:28:dc:c3:28:82:7a:aa:1b:0e:
         0e:75:51:cc:f3:61:15:19:e9:c1:21:13:66:ef:cc:c9:81:b4:
         bd:ab:46:ef:a7:14:fc:a6:31:2e:0e:cd:65:69:75:20:45:ba:
         41:b9:2d:08:8c:e8:c3:35:7a:4b:c6:84:1c:d7:cc:39:b9:f9:
         d7:d6:53:96:a4:d0:81:62:b7:19:34:9c:a1:c4:9c:ce:6e:bc:
         d4:df:bb:db:aa:a2:5d:ca:16:45:3b:67:8b:f9:1a:9a:67:a6:
         90:2e:0b:85:c3:e9:86:95:a3:f6:21:9b:63:e2:3c:16:9d:62:
         b6:30:21:68:b4:e4:52:29:65:07:4b:bb:63:e3:8b:43:e6:5f:
         d3:b2:09:36:bc:8c:af:95:6f:d3:15:c1:ab:24:d8:5e:c4:b5:
         40:f8:8b:9a:ed:b2:77:ca:2f:8d:cd:32:77:91:d7:d1:f9:f4:
         e7:f6:f8:cd:36:e1:e3:9d:ce:c8:83:fa:01:e1:1a:3a:10:e4:
         97:6a:90:38:e5:71:63:db:57:d0:12:91:2a:cd:20:8f:0e:22:
         bc:81:77:03:11:22:70:fe:50:f1:b4:35:bc:71:1c:1e:e7:2b:
         40:25:aa:44:45:7c:d6:9f:3d:78:1c:b1:ea:5f:a9:02:98:0a:
         5b:70:15:a9:d1:5a:02:2c:f7:cd:20:f3:3c:f5:77:8d:70:74:
         d0:1c:f7:3b:41:8c:42:bf:8f:1b:a7:f7:df:2e:b7:93:7d:af:
         62:bd:47:36:1b:03:bf:fd:53:ca:76:1f:11:06:ba:fd:fe:6d:
         4b:76:8d:f5:72:6c:16:f0:9c:75:a2:c4:58:36:01:f8:07:8e:
         91:d2:cb:3b:d6:d4:5d:ad:df:dd:0a:a2:3b:c7:01:8e:42:22:
         af:88:ef:21:cd:cb:33:f9:08:87:24:9f:26:ce:1f:79:d8:58:
         46:3d:37:72:f1:5c:f7:a3:40:08:22:73:87:3f:09:9c:7c:cf:
         ec:df:f7:a0:91:51:bd:95:1f:61:64:a9:7b:de:1c:02:e3:5f:
         7a:91:c6:48:09:15:6f:59:05:c2:00:37:46:5a:c4:17:ba:0e:
         47:bc:60:7b:55:f8:4a:df:43:2a:80:8c:20:1e:16:2f:cb:f6:
         23:b8:95:69:7a:bb:99:70:fc:9c:92:6f:71:14:8c:99:6e:55:
         11:40:f2:6f:c7:04:5f:26:4d:21:b5:4b:c3:82:1a:0d:02:0a:
         ed:54:ef:57:0e:3c:0a:4e
-----BEGIN CERTIFICATE-----
MIIHSDCCBTCgAwIBAgICAIIwDQYJKoZIhvcNAQEFBQAwgbQxCzAJBgNVBAYTAlVT
MQswCQYDVQQIEwJDQTEVMBMGA1UEBxMMU2FuRnJhbmNpc2NvMRUwEwYDVQQKEwxQ
aXhnbG8sIEluYy4xEDAOBgNVBAsTB1ZQTi1DSUUxGjAYBgNVBAMTEXR1bm5lbC5w
aXhnbG8uY29tMRwwGgYDVQQpExNCYWxhIENoYW5kcmFzZWthcmFuMR4wHAYJKoZI
hvcNAQkBFg9iYWxhQHBpeGdsby5jb20wHhcNMTgwMjE0MDYyNjAxWhcNMjgwMjEy
MDYyNjAxWjCBqTELMAkGA1UEBhMCVVMxCzAJBgNVBAgTAkNBMRUwEwYDVQQHEwxT
YW5GcmFuY2lzY28xFTATBgNVBAoTDFBpeGdsbywgSW5jLjEQMA4GA1UECxMHVlBO
LUNJRTEPMA0GA1UEAxMGY2llMTI5MRwwGgYDVQQpExNCYWxhIENoYW5kcmFzZWth
cmFuMR4wHAYJKoZIhvcNAQkBFg9iYWxhQHBpeGdsby5jb20wggIiMA0GCSqGSIb3
DQEBAQUAA4ICDwAwggIKAoICAQDPbL1AtYQTuDftG/xxPeO+mHVQ1StOvQWMWHgR
Ns4mcmtB6byqRcFVL/jQfM4zcmZ5QVTaYO3IAtl22TwHnGNoUUv8WT8JsiR7UAPw
sE5xl0dn80UNMFVCgmaFhwZk6Ug8F7ik47AubTsPTy7nzadTHyekDP1ov5DLa8NQ
vpMR4Zw05MeBn5+a75xAT3NyHXcrfjIPZxohfuW+42VO6Ms0JvwCRWSuamkjy5MW
TTpu7qplw6CNyTigdQuA5bxCaMYSUyPQa/wUTVVPb+7UsRHlcFzRsy04LMKjfG7o
VrQc4LzLuydoiFbFEdltivi8Pb+LV9yogO4SwuRq+FYo7na0aei4AkVWXmvvXRgf
j6Ojuvv9gYqA3/PYtOWMskqqrFm8DSdkYVixmC6a5wfMXjQdXFCKS9qyjhAo0c/p
5X431aiU9RmiTGordn44xWVlLflvKoG8yiJBSj7hDEOgyS88hoJWIcRfdh4BQvMX
4NP+oXbmnZKLGACLdBFV9Lzy1jhJLOvFAiBL7jplzglrCseJHelxAMzupZb785eX
RnfNeabsc0ckhQkKQcO3e298Fg2mkbob4ayf9z5b3VY1CHSf/M53Ph9k+HEp95gi
pfgsXXdhHRcYv6ceO+v4+mc+hByHJjDW9s2wuwwNlbLi7PatxlWzspWgJGCdBMt1
0nQw4QIDAQABo4IBazCCAWcwCQYDVR0TBAIwADAtBglghkgBhvhCAQ0EIBYeRWFz
eS1SU0EgR2VuZXJhdGVkIENlcnRpZmljYXRlMB0GA1UdDgQWBBRr9r7pYs7567Lg
yn6z12mbx+Rd8jCB6QYDVR0jBIHhMIHegBTvOI0UUFinW02cF3L837msp1GwEKGB
uqSBtzCBtDELMAkGA1UEBhMCVVMxCzAJBgNVBAgTAkNBMRUwEwYDVQQHEwxTYW5G
cmFuY2lzY28xFTATBgNVBAoTDFBpeGdsbywgSW5jLjEQMA4GA1UECxMHVlBOLUNJ
RTEaMBgGA1UEAxMRdHVubmVsLnBpeGdsby5jb20xHDAaBgNVBCkTE0JhbGEgQ2hh
bmRyYXNla2FyYW4xHjAcBgkqhkiG9w0BCQEWD2JhbGFAcGl4Z2xvLmNvbYIJAKbb
xoOA5qB5MBMGA1UdJQQMMAoGCCsGAQUFBwMCMAsGA1UdDwQEAwIHgDANBgkqhkiG
9w0BAQUFAAOCAgEARL0qp9WnaD1esIgEXE7f84vy12WqrhvxeFphWLQXlEzyFI5j
Rd0DduFjKFuWKNzDKIJ6qhsODnVRzPNhFRnpwSETZu/MyYG0vatG76cU/KYxLg7N
ZWl1IEW6QbktCIzowzV6S8aEHNfMObn519ZTlqTQgWK3GTScocSczm681N+726qi
XcoWRTtni/kammemkC4LhcPphpWj9iGbY+I8Fp1itjAhaLTkUillB0u7Y+OLQ+Zf
07IJNryMr5Vv0xXBqyTYXsS1QPiLmu2yd8ovjc0yd5HX0fn05/b4zTbh453OyIP6
AeEaOhDkl2qQOOVxY9tX0BKRKs0gjw4ivIF3AxEicP5Q8bQ1vHEcHucrQCWqREV8
1p89eByx6l+pApgKW3AVqdFaAiz3zSDzPPV3jXB00Bz3O0GMQr+PG6f33y63k32v
Yr1HNhsDv/1TynYfEQa6/f5tS3aN9XJsFvCcdaLEWDYB+AeOkdLLO9bUXa3f3Qqi
O8cBjkIir4jvIc3LM/kIhySfJs4fedhYRj03cvFc96NACCJzhz8JnHzP7N/3oJFR
vZUfYWSpe94cAuNfepHGSAkVb1kFwgA3RlrEF7oOR7xge1X4St9DKoCMIB4WL8v2
I7iVaXq7mXD8nJJvcRSMmW5VEUDyb8cEXyZNIbVLw4IaDQIK7VTvVw48Ck4=
-----END CERTIFICATE-----
