Certificate:
    Data:
        Version: 3 (0x2)
        Serial Number: 132 (0x84)
    Signature Algorithm: sha1WithRSAEncryption
        Issuer: C=US, ST=CA, L=SanFrancisco, O=Pixglo, Inc., OU=VPN-CIE, CN=tunnel.pixglo.com/name=Bala Chandrasekaran/emailAddress=bala@pixglo.com
        Validity
            Not Before: Feb 14 06:26:04 2018 GMT
            Not After : Feb 12 06:26:04 2028 GMT
        Subject: C=US, ST=CA, L=SanFrancisco, O=Pixglo, Inc., OU=VPN-CIE, CN=cie131/name=Bala Chandrasekaran/emailAddress=bala@pixglo.com
        Subject Public Key Info:
            Public Key Algorithm: rsaEncryption
                Public-Key: (4096 bit)
                Modulus:
                    00:bb:7a:2a:4f:86:57:eb:dd:c2:b3:fd:81:2a:9e:
                    ce:0e:97:6f:86:a7:0c:86:3e:03:38:e3:78:63:c8:
                    db:90:8b:cb:a0:fe:36:cd:59:e2:5b:7c:d4:4d:3e:
                    fb:f7:62:5b:41:c9:01:6f:b8:80:4e:39:e3:0e:5e:
                    62:a2:c9:b3:0a:4d:e1:b9:80:42:0f:de:64:91:e6:
                    bb:3b:72:85:e6:13:b3:51:a1:21:82:fb:85:73:ea:
                    0d:2e:ce:58:7b:f4:f1:42:78:99:73:89:dd:28:b1:
                    69:7e:b5:8d:c9:ed:7b:0f:25:35:12:8e:09:4d:05:
                    ca:bf:4b:df:0a:23:28:99:a5:1d:95:16:d9:fa:56:
                    b8:93:e6:a5:4d:75:04:ed:11:3b:c0:67:60:91:62:
                    38:d4:f2:13:13:c8:e9:8f:e3:15:ce:ee:4d:08:c9:
                    38:04:30:c7:d4:3d:83:c7:32:03:c8:5c:b3:fc:28:
                    f5:de:94:64:66:c4:9a:99:c6:b2:73:e2:29:2e:22:
                    66:aa:49:67:f5:04:e0:4c:df:c8:00:c0:49:b6:eb:
                    60:22:a6:eb:c1:86:e7:0a:11:57:66:fd:80:72:b4:
                    7f:f4:cc:b7:0c:c0:0c:57:1e:bf:77:fb:fa:ba:0e:
                    1a:ef:26:6d:5f:c3:26:5e:9c:d1:78:4b:e5:1e:5e:
                    e3:75:89:b1:5e:e5:ad:08:0f:d1:45:39:9f:0f:a2:
                    5f:97:f9:ed:2c:0b:1f:34:f9:7d:e8:e2:4b:e7:10:
                    03:db:3f:56:8b:ee:52:2b:01:6c:0a:ab:b2:e5:35:
                    0b:47:12:52:b4:77:dc:c1:fa:e6:77:ac:3a:1d:89:
                    67:7f:5d:08:1a:01:c1:1e:15:0e:66:62:14:2a:b8:
                    aa:25:c7:c4:d2:0c:f2:5f:40:28:f7:5c:f9:19:38:
                    93:2c:80:2d:22:ca:9f:00:8e:06:7c:76:45:e2:c4:
                    bb:f2:65:1b:a6:e7:a7:a8:00:58:85:2a:73:aa:99:
                    b3:9e:e6:b8:d2:36:6d:33:a7:79:9b:e9:4a:9f:5a:
                    28:23:65:7a:72:e2:79:e2:c6:1b:fe:fa:ff:12:59:
                    15:b0:09:1d:dd:9e:11:2b:60:68:15:e9:91:95:b8:
                    e3:54:7e:ed:54:dd:52:34:7d:00:01:7f:b4:87:44:
                    5c:1a:e1:16:d4:3f:cf:56:3a:aa:3c:6b:79:7d:ad:
                    25:09:10:ce:89:54:76:66:a4:3a:d1:46:58:4d:60:
                    ce:be:e8:d2:78:b1:17:d5:01:e1:9b:77:ff:a8:b4:
                    ca:a6:19:d6:c4:2b:aa:5e:33:f4:54:2a:fe:3d:2e:
                    b6:ef:ea:cb:e5:a6:24:22:11:99:36:7e:18:1e:c9:
                    5d:e4:e5
                Exponent: 65537 (0x10001)
        X509v3 extensions:
            X509v3 Basic Constraints: 
                CA:FALSE
            Netscape Comment: 
                Easy-RSA Generated Certificate
            X509v3 Subject Key Identifier: 
                E2:56:34:9A:EB:CF:47:AD:F5:0F:1F:71:2B:96:B5:FF:A1:42:5C:51
            X509v3 Authority Key Identifier: 
                keyid:EF:38:8D:14:50:58:A7:5B:4D:9C:17:72:FC:DF:B9:AC:A7:51:B0:10
                DirName:/C=US/ST=CA/L=SanFrancisco/O=Pixglo, Inc./OU=VPN-CIE/CN=tunnel.pixglo.com/name=Bala Chandrasekaran/emailAddress=bala@pixglo.com
                serial:A6:DB:C6:83:80:E6:A0:79

            X509v3 Extended Key Usage: 
                TLS Web Client Authentication
            X509v3 Key Usage: 
                Digital Signature
    Signature Algorithm: sha1WithRSAEncryption
         cc:f1:00:91:d9:a7:0b:40:96:b2:b0:e0:e4:01:02:b7:75:7b:
         b6:09:64:4a:00:cc:6d:a7:14:e1:32:0b:21:09:4d:5e:34:15:
         b7:2e:88:a9:9f:eb:93:9a:11:57:6e:54:da:b6:ff:6f:5f:d8:
         56:de:fb:ec:a9:b0:f8:32:29:61:68:1d:da:6f:2c:f8:22:0f:
         47:a1:2b:42:ef:1b:f0:78:1f:dd:6a:84:37:04:e1:74:3c:5d:
         60:a4:d6:9d:b6:52:0e:d0:72:03:d2:75:af:c5:a4:d9:8e:2c:
         bc:7c:57:25:2f:86:7a:58:a5:25:f5:78:ad:96:1d:8f:88:e0:
         25:4d:6c:4e:e6:01:4c:a7:40:93:9a:36:62:ea:fd:78:19:2f:
         7d:f0:4f:8d:91:62:40:5f:c0:55:38:0d:76:20:9f:48:20:00:
         e3:aa:1e:43:9b:2b:94:5c:60:43:9e:80:45:07:37:db:81:37:
         bc:d2:67:ef:08:f4:27:eb:74:b4:6b:26:04:22:f6:e7:f0:b2:
         5e:cd:cd:10:41:d0:ab:3b:37:57:1b:fb:5f:d7:6f:73:e9:d3:
         c4:68:e4:82:30:32:e1:da:3e:f4:dd:da:10:5a:bd:7d:a8:cd:
         1e:e4:0a:27:3f:db:ed:f9:97:cb:0a:81:50:95:e1:6e:0a:e0:
         3b:71:f1:1b:b1:bb:06:24:ae:c1:9a:72:c8:16:a8:e5:f8:f1:
         11:dc:6b:19:8c:58:b2:b1:55:5f:b2:e6:d5:34:b5:b3:95:f0:
         f6:35:63:26:a1:fa:b4:92:01:a7:77:55:d9:d0:bb:b6:a0:f8:
         b3:fc:fb:70:68:5a:84:50:1a:14:42:bc:56:e2:29:19:c9:03:
         d6:2a:95:63:4c:98:ca:30:21:7d:7c:b3:5b:7a:a0:2a:28:70:
         77:53:8b:fb:ca:0a:2d:ad:9e:6b:17:81:ca:13:f5:eb:3c:3e:
         80:3f:08:55:5f:30:cf:92:d9:ce:1f:79:40:af:c1:54:40:5c:
         bc:58:b4:b4:df:dd:06:42:e5:0b:26:ca:f6:47:ae:04:11:0c:
         3e:97:61:d0:b0:92:7c:b5:82:95:93:7d:f7:1c:4a:55:80:71:
         da:44:10:ec:c2:10:83:33:97:3f:bd:46:f9:0a:a4:4e:d5:3b:
         d1:28:7e:ad:f6:f2:03:c0:e8:4f:0c:a1:91:e9:98:b4:ab:74:
         09:32:ff:f9:32:d1:10:03:b9:98:b5:98:12:9a:59:c9:e9:1a:
         a9:39:42:63:09:2e:f2:34:52:9d:ff:7c:d8:5b:e1:a0:f8:59:
         5d:4b:61:ee:59:a6:5d:0b:9d:18:49:23:22:aa:7e:f7:8b:96:
         b5:33:ea:48:80:a2:1a:36
-----BEGIN CERTIFICATE-----
MIIHSDCCBTCgAwIBAgICAIQwDQYJKoZIhvcNAQEFBQAwgbQxCzAJBgNVBAYTAlVT
MQswCQYDVQQIEwJDQTEVMBMGA1UEBxMMU2FuRnJhbmNpc2NvMRUwEwYDVQQKEwxQ
aXhnbG8sIEluYy4xEDAOBgNVBAsTB1ZQTi1DSUUxGjAYBgNVBAMTEXR1bm5lbC5w
aXhnbG8uY29tMRwwGgYDVQQpExNCYWxhIENoYW5kcmFzZWthcmFuMR4wHAYJKoZI
hvcNAQkBFg9iYWxhQHBpeGdsby5jb20wHhcNMTgwMjE0MDYyNjA0WhcNMjgwMjEy
MDYyNjA0WjCBqTELMAkGA1UEBhMCVVMxCzAJBgNVBAgTAkNBMRUwEwYDVQQHEwxT
YW5GcmFuY2lzY28xFTATBgNVBAoTDFBpeGdsbywgSW5jLjEQMA4GA1UECxMHVlBO
LUNJRTEPMA0GA1UEAxMGY2llMTMxMRwwGgYDVQQpExNCYWxhIENoYW5kcmFzZWth
cmFuMR4wHAYJKoZIhvcNAQkBFg9iYWxhQHBpeGdsby5jb20wggIiMA0GCSqGSIb3
DQEBAQUAA4ICDwAwggIKAoICAQC7eipPhlfr3cKz/YEqns4Ol2+GpwyGPgM443hj
yNuQi8ug/jbNWeJbfNRNPvv3YltByQFvuIBOOeMOXmKiybMKTeG5gEIP3mSR5rs7
coXmE7NRoSGC+4Vz6g0uzlh79PFCeJlzid0osWl+tY3J7XsPJTUSjglNBcq/S98K
IyiZpR2VFtn6VriT5qVNdQTtETvAZ2CRYjjU8hMTyOmP4xXO7k0IyTgEMMfUPYPH
MgPIXLP8KPXelGRmxJqZxrJz4ikuImaqSWf1BOBM38gAwEm262AipuvBhucKEVdm
/YBytH/0zLcMwAxXHr93+/q6DhrvJm1fwyZenNF4S+UeXuN1ibFe5a0ID9FFOZ8P
ol+X+e0sCx80+X3o4kvnEAPbP1aL7lIrAWwKq7LlNQtHElK0d9zB+uZ3rDodiWd/
XQgaAcEeFQ5mYhQquKolx8TSDPJfQCj3XPkZOJMsgC0iyp8AjgZ8dkXixLvyZRum
56eoAFiFKnOqmbOe5rjSNm0zp3mb6UqfWigjZXpy4nnixhv++v8SWRWwCR3dnhEr
YGgV6ZGVuONUfu1U3VI0fQABf7SHRFwa4RbUP89WOqo8a3l9rSUJEM6JVHZmpDrR
RlhNYM6+6NJ4sRfVAeGbd/+otMqmGdbEK6peM/RUKv49Lrbv6svlpiQiEZk2fhge
yV3k5QIDAQABo4IBazCCAWcwCQYDVR0TBAIwADAtBglghkgBhvhCAQ0EIBYeRWFz
eS1SU0EgR2VuZXJhdGVkIENlcnRpZmljYXRlMB0GA1UdDgQWBBTiVjSa689HrfUP
H3ErlrX/oUJcUTCB6QYDVR0jBIHhMIHegBTvOI0UUFinW02cF3L837msp1GwEKGB
uqSBtzCBtDELMAkGA1UEBhMCVVMxCzAJBgNVBAgTAkNBMRUwEwYDVQQHEwxTYW5G
cmFuY2lzY28xFTATBgNVBAoTDFBpeGdsbywgSW5jLjEQMA4GA1UECxMHVlBOLUNJ
RTEaMBgGA1UEAxMRdHVubmVsLnBpeGdsby5jb20xHDAaBgNVBCkTE0JhbGEgQ2hh
bmRyYXNla2FyYW4xHjAcBgkqhkiG9w0BCQEWD2JhbGFAcGl4Z2xvLmNvbYIJAKbb
xoOA5qB5MBMGA1UdJQQMMAoGCCsGAQUFBwMCMAsGA1UdDwQEAwIHgDANBgkqhkiG
9w0BAQUFAAOCAgEAzPEAkdmnC0CWsrDg5AECt3V7tglkSgDMbacU4TILIQlNXjQV
ty6IqZ/rk5oRV25U2rb/b1/YVt777Kmw+DIpYWgd2m8s+CIPR6ErQu8b8Hgf3WqE
NwThdDxdYKTWnbZSDtByA9J1r8Wk2Y4svHxXJS+GelilJfV4rZYdj4jgJU1sTuYB
TKdAk5o2Yur9eBkvffBPjZFiQF/AVTgNdiCfSCAA46oeQ5srlFxgQ56ARQc324E3
vNJn7wj0J+t0tGsmBCL25/CyXs3NEEHQqzs3Vxv7X9dvc+nTxGjkgjAy4do+9N3a
EFq9fajNHuQKJz/b7fmXywqBUJXhbgrgO3HxG7G7BiSuwZpyyBao5fjxEdxrGYxY
srFVX7Lm1TS1s5Xw9jVjJqH6tJIBp3dV2dC7tqD4s/z7cGhahFAaFEK8VuIpGckD
1iqVY0yYyjAhfXyzW3qgKihwd1OL+8oKLa2eaxeByhP16zw+gD8IVV8wz5LZzh95
QK/BVEBcvFi0tN/dBkLlCybK9keuBBEMPpdh0LCSfLWClZN99xxKVYBx2kQQ7MIQ
gzOXP71G+QqkTtU70Sh+rfbyA8DoTwyhkemYtKt0CTL/+TLREAO5mLWYEppZyeka
qTlCYwku8jRSnf982FvhoPhZXUth7lmmXQudGEkjIqp+94uWtTPqSICiGjY=
-----END CERTIFICATE-----
