Certificate:
    Data:
        Version: 3 (0x2)
        Serial Number: 134 (0x86)
    Signature Algorithm: sha1WithRSAEncryption
        Issuer: C=US, ST=CA, L=SanFrancisco, O=Pixglo, Inc., OU=VPN-CIE, CN=tunnel.pixglo.com/name=Bala Chandrasekaran/emailAddress=bala@pixglo.com
        Validity
            Not Before: Feb 14 06:26:06 2018 GMT
            Not After : Feb 12 06:26:06 2028 GMT
        Subject: C=US, ST=CA, L=SanFrancisco, O=Pixglo, Inc., OU=VPN-CIE, CN=cie133/name=Bala Chandrasekaran/emailAddress=bala@pixglo.com
        Subject Public Key Info:
            Public Key Algorithm: rsaEncryption
                Public-Key: (4096 bit)
                Modulus:
                    00:c6:8e:24:fa:5d:63:7f:97:ee:bf:fe:d8:75:34:
                    58:c9:51:44:95:0f:41:92:3f:a9:7b:73:d7:cd:29:
                    ed:01:7f:5a:aa:5a:62:f6:c6:fa:ad:03:d0:c4:96:
                    f0:72:6c:13:98:f2:3c:0d:22:b6:66:2d:8f:7b:d4:
                    79:1e:cf:ff:c4:29:ad:f1:4e:56:67:71:cd:30:4b:
                    25:cd:b0:c0:fe:66:94:68:2d:ec:17:b9:ef:f5:d9:
                    5d:4d:9a:0e:6e:6d:25:e0:b6:e8:80:1b:4d:81:af:
                    e2:0f:11:a9:ca:93:54:e1:f6:1b:40:a5:52:18:72:
                    18:89:72:05:16:c0:c6:f3:b5:00:6e:54:ce:31:d9:
                    e2:78:06:31:ff:39:4a:33:07:5d:55:da:c1:bb:f1:
                    b9:ce:0e:eb:f4:2e:f7:91:49:9f:92:18:87:57:5e:
                    94:44:e9:28:cb:61:8d:b9:b2:38:7d:35:f2:18:32:
                    29:d6:72:ce:18:d5:55:7e:04:11:a4:5b:94:c2:67:
                    63:ac:3f:9d:ad:c8:9f:4d:36:8c:60:22:31:0b:2b:
                    5b:90:11:71:c1:2b:ee:7a:0f:ca:3b:ae:85:c6:21:
                    39:8d:4c:89:40:36:16:ab:fe:13:cc:1f:0a:66:c2:
                    13:23:79:b6:9b:3e:e8:53:08:39:59:56:2e:6a:d8:
                    25:46:9e:63:1f:01:55:8e:77:81:72:32:1f:14:63:
                    51:24:79:34:95:5b:cb:dc:d8:25:7a:29:14:55:24:
                    bd:a7:2d:d2:46:7e:49:91:16:30:42:c9:bf:c4:99:
                    6b:7f:cd:67:1b:dd:a8:08:50:12:91:91:b4:00:e0:
                    4a:c2:83:2c:01:8c:72:21:d9:2d:51:99:b5:6e:9b:
                    69:4c:6b:69:2e:ba:1a:2e:a4:64:ae:3b:bb:d7:41:
                    2a:67:ae:fd:df:2d:bf:15:18:e9:c0:f6:fc:f3:a2:
                    e3:d8:99:55:1a:e4:fa:b8:3d:76:df:4b:e2:dc:b5:
                    16:41:00:65:df:0e:88:eb:53:f2:95:41:ea:e4:15:
                    ed:b7:80:ce:e4:e9:11:4a:fa:bc:a8:32:96:83:76:
                    bd:d4:99:b6:52:67:db:6f:d1:6a:a7:67:15:d9:42:
                    87:ed:00:68:7b:a3:11:2c:81:d7:57:b5:2e:cb:56:
                    f3:98:17:4a:23:f8:a8:3d:83:7e:48:b4:df:8c:9f:
                    45:99:f0:52:c4:34:91:5e:6b:28:e3:24:e4:36:a9:
                    5d:90:6f:1e:91:18:6d:a1:af:be:44:ec:95:24:95:
                    87:e7:62:93:1c:2d:74:f1:d1:0b:69:ef:26:95:e6:
                    1b:b3:58:6b:3d:be:2f:b7:aa:2e:fd:06:6d:47:86:
                    6a:9b:e9
                Exponent: 65537 (0x10001)
        X509v3 extensions:
            X509v3 Basic Constraints: 
                CA:FALSE
            Netscape Comment: 
                Easy-RSA Generated Certificate
            X509v3 Subject Key Identifier: 
                C3:15:D8:C7:87:F4:44:07:EC:89:AC:DE:3D:A3:33:65:F3:CE:3A:FC
            X509v3 Authority Key Identifier: 
                keyid:EF:38:8D:14:50:58:A7:5B:4D:9C:17:72:FC:DF:B9:AC:A7:51:B0:10
                DirName:/C=US/ST=CA/L=SanFrancisco/O=Pixglo, Inc./OU=VPN-CIE/CN=tunnel.pixglo.com/name=Bala Chandrasekaran/emailAddress=bala@pixglo.com
                serial:A6:DB:C6:83:80:E6:A0:79

            X509v3 Extended Key Usage: 
                TLS Web Client Authentication
            X509v3 Key Usage: 
                Digital Signature
    Signature Algorithm: sha1WithRSAEncryption
         43:16:32:20:2e:c4:79:6a:30:ad:ba:2b:2d:44:76:08:e2:1d:
         d0:b5:e2:25:09:d5:cf:94:a1:c1:39:52:e4:72:44:e4:2f:90:
         ce:eb:cf:4c:97:59:1f:91:6a:97:15:0f:b0:a1:0c:18:7d:3d:
         bd:9e:cf:82:26:fb:83:25:31:4d:81:6f:77:5e:f7:0c:d0:c2:
         16:1f:3e:d1:83:15:e3:3b:85:55:74:69:64:bf:e1:90:d4:81:
         23:a5:cc:be:c3:98:9e:c7:30:35:a2:d4:fc:0c:39:52:d2:78:
         8a:3c:8c:93:85:49:0d:55:7b:7b:fb:f8:ca:0c:2e:b4:bf:9e:
         2a:60:93:9d:9e:49:95:fa:1a:ae:da:5c:16:b3:c8:ce:0a:22:
         95:e9:20:8e:02:37:fe:9a:9c:20:39:f3:7d:f8:c6:57:bf:0f:
         a5:3c:e0:17:de:e4:91:3d:73:dd:57:4e:40:19:b7:a2:8d:e2:
         5e:67:95:62:41:9d:67:5f:55:4d:6b:82:e2:c3:4c:32:9a:ee:
         49:76:6b:dd:25:08:d5:a9:47:0e:51:79:f7:f4:45:e8:01:74:
         c1:69:08:93:b2:f0:a7:6f:58:a6:e7:c6:15:41:8e:bc:77:cb:
         8c:98:80:72:db:88:90:2a:25:c7:25:83:bd:65:60:54:42:89:
         b1:49:f9:c3:89:0c:51:6d:fa:25:a8:b7:03:ef:30:a7:ca:a2:
         0f:2e:77:de:62:a7:5e:ff:2b:f1:41:a8:47:f6:f3:79:d9:5f:
         35:eb:6e:c2:8c:be:1c:a2:66:58:fd:e7:0b:2f:23:2f:56:15:
         59:13:d1:f9:55:c7:33:ba:e1:8a:e8:f8:28:a7:c4:e2:e4:54:
         03:1f:62:55:62:25:ee:c9:11:34:1b:0b:1e:52:b8:2e:76:c9:
         c1:39:7e:45:0e:6f:38:76:23:be:84:7e:da:38:d6:f5:30:a2:
         9b:44:65:60:07:9f:ce:92:bd:d9:72:13:9b:38:a6:db:1e:9e:
         40:f7:b4:05:73:ed:94:ce:87:32:2d:8f:c0:b6:62:88:49:c4:
         9b:94:d4:b0:b2:ed:2b:1e:37:69:d1:ec:56:ee:5b:13:c4:3a:
         24:61:fe:bb:e7:75:83:3e:83:79:4a:d1:3e:ef:db:2c:ee:f9:
         f4:db:22:98:d2:88:11:1e:f4:81:87:0c:39:6f:0a:6a:50:cb:
         9e:86:f9:f8:75:15:08:10:8a:8b:99:b9:65:67:f5:f9:8c:41:
         12:9c:f9:a6:25:fe:43:1e:d2:66:83:5e:48:72:31:79:b8:7c:
         82:2f:44:c2:0f:86:b0:74:4b:8b:36:58:89:be:79:f5:e9:3c:
         75:2d:28:aa:61:72:04:b9
-----BEGIN CERTIFICATE-----
MIIHSDCCBTCgAwIBAgICAIYwDQYJKoZIhvcNAQEFBQAwgbQxCzAJBgNVBAYTAlVT
MQswCQYDVQQIEwJDQTEVMBMGA1UEBxMMU2FuRnJhbmNpc2NvMRUwEwYDVQQKEwxQ
aXhnbG8sIEluYy4xEDAOBgNVBAsTB1ZQTi1DSUUxGjAYBgNVBAMTEXR1bm5lbC5w
aXhnbG8uY29tMRwwGgYDVQQpExNCYWxhIENoYW5kcmFzZWthcmFuMR4wHAYJKoZI
hvcNAQkBFg9iYWxhQHBpeGdsby5jb20wHhcNMTgwMjE0MDYyNjA2WhcNMjgwMjEy
MDYyNjA2WjCBqTELMAkGA1UEBhMCVVMxCzAJBgNVBAgTAkNBMRUwEwYDVQQHEwxT
YW5GcmFuY2lzY28xFTATBgNVBAoTDFBpeGdsbywgSW5jLjEQMA4GA1UECxMHVlBO
LUNJRTEPMA0GA1UEAxMGY2llMTMzMRwwGgYDVQQpExNCYWxhIENoYW5kcmFzZWth
cmFuMR4wHAYJKoZIhvcNAQkBFg9iYWxhQHBpeGdsby5jb20wggIiMA0GCSqGSIb3
DQEBAQUAA4ICDwAwggIKAoICAQDGjiT6XWN/l+6//th1NFjJUUSVD0GSP6l7c9fN
Ke0Bf1qqWmL2xvqtA9DElvBybBOY8jwNIrZmLY971Hkez//EKa3xTlZncc0wSyXN
sMD+ZpRoLewXue/12V1Nmg5ubSXgtuiAG02Br+IPEanKk1Th9htApVIYchiJcgUW
wMbztQBuVM4x2eJ4BjH/OUozB11V2sG78bnODuv0LveRSZ+SGIdXXpRE6SjLYY25
sjh9NfIYMinWcs4Y1VV+BBGkW5TCZ2OsP52tyJ9NNoxgIjELK1uQEXHBK+56D8o7
roXGITmNTIlANhar/hPMHwpmwhMjebabPuhTCDlZVi5q2CVGnmMfAVWOd4FyMh8U
Y1EkeTSVW8vc2CV6KRRVJL2nLdJGfkmRFjBCyb/EmWt/zWcb3agIUBKRkbQA4ErC
gywBjHIh2S1RmbVum2lMa2kuuhoupGSuO7vXQSpnrv3fLb8VGOnA9vzzouPYmVUa
5Pq4PXbfS+LctRZBAGXfDojrU/KVQerkFe23gM7k6RFK+ryoMpaDdr3UmbZSZ9tv
0WqnZxXZQoftAGh7oxEsgddXtS7LVvOYF0oj+Kg9g35ItN+Mn0WZ8FLENJFeayjj
JOQ2qV2Qbx6RGG2hr75E7JUklYfnYpMcLXTx0Qtp7yaV5huzWGs9vi+3qi79Bm1H
hmqb6QIDAQABo4IBazCCAWcwCQYDVR0TBAIwADAtBglghkgBhvhCAQ0EIBYeRWFz
eS1SU0EgR2VuZXJhdGVkIENlcnRpZmljYXRlMB0GA1UdDgQWBBTDFdjHh/REB+yJ
rN49ozNl8846/DCB6QYDVR0jBIHhMIHegBTvOI0UUFinW02cF3L837msp1GwEKGB
uqSBtzCBtDELMAkGA1UEBhMCVVMxCzAJBgNVBAgTAkNBMRUwEwYDVQQHEwxTYW5G
cmFuY2lzY28xFTATBgNVBAoTDFBpeGdsbywgSW5jLjEQMA4GA1UECxMHVlBOLUNJ
RTEaMBgGA1UEAxMRdHVubmVsLnBpeGdsby5jb20xHDAaBgNVBCkTE0JhbGEgQ2hh
bmRyYXNla2FyYW4xHjAcBgkqhkiG9w0BCQEWD2JhbGFAcGl4Z2xvLmNvbYIJAKbb
xoOA5qB5MBMGA1UdJQQMMAoGCCsGAQUFBwMCMAsGA1UdDwQEAwIHgDANBgkqhkiG
9w0BAQUFAAOCAgEAQxYyIC7EeWowrborLUR2COId0LXiJQnVz5ShwTlS5HJE5C+Q
zuvPTJdZH5FqlxUPsKEMGH09vZ7Pgib7gyUxTYFvd173DNDCFh8+0YMV4zuFVXRp
ZL/hkNSBI6XMvsOYnscwNaLU/Aw5UtJ4ijyMk4VJDVV7e/v4ygwutL+eKmCTnZ5J
lfoartpcFrPIzgoilekgjgI3/pqcIDnzffjGV78PpTzgF97kkT1z3VdOQBm3oo3i
XmeVYkGdZ19VTWuC4sNMMpruSXZr3SUI1alHDlF59/RF6AF0wWkIk7Lwp29YpufG
FUGOvHfLjJiActuIkColxyWDvWVgVEKJsUn5w4kMUW36Jai3A+8wp8qiDy533mKn
Xv8r8UGoR/bzedlfNetuwoy+HKJmWP3nCy8jL1YVWRPR+VXHM7rhiuj4KKfE4uRU
Ax9iVWIl7skRNBsLHlK4LnbJwTl+RQ5vOHYjvoR+2jjW9TCim0RlYAefzpK92XIT
mzim2x6eQPe0BXPtlM6HMi2PwLZiiEnEm5TUsLLtKx43adHsVu5bE8Q6JGH+u+d1
gz6DeUrRPu/bLO759NsimNKIER70gYcMOW8KalDLnob5+HUVCBCKi5m5ZWf1+YxB
Epz5piX+Qx7SZoNeSHIxebh8gi9Ewg+GsHRLizZYib559ek8dS0oqmFyBLk=
-----END CERTIFICATE-----
