Certificate:
    Data:
        Version: 3 (0x2)
        Serial Number: 135 (0x87)
    Signature Algorithm: sha1WithRSAEncryption
        Issuer: C=US, ST=CA, L=SanFrancisco, O=Pixglo, Inc., OU=VPN-CIE, CN=tunnel.pixglo.com/name=Bala Chandrasekaran/emailAddress=bala@pixglo.com
        Validity
            Not Before: Feb 14 06:26:07 2018 GMT
            Not After : Feb 12 06:26:07 2028 GMT
        Subject: C=US, ST=CA, L=SanFrancisco, O=Pixglo, Inc., OU=VPN-CIE, CN=cie134/name=Bala Chandrasekaran/emailAddress=bala@pixglo.com
        Subject Public Key Info:
            Public Key Algorithm: rsaEncryption
                Public-Key: (4096 bit)
                Modulus:
                    00:ac:53:97:b3:dc:74:e2:d2:ed:16:c3:35:d2:a2:
                    48:bb:63:6f:76:a9:43:47:90:01:58:29:13:58:54:
                    3d:fd:3c:b0:f6:88:e3:c3:c4:87:4c:90:1d:d1:13:
                    6f:f1:2d:6f:e0:9e:5b:86:81:64:f5:6c:5f:b2:d9:
                    7d:2d:fc:94:5b:64:21:7c:56:84:4e:ae:75:73:4f:
                    20:5d:39:b6:2d:fd:3d:1b:cf:35:02:44:30:4b:aa:
                    c1:ca:37:30:3a:f0:0b:55:1c:97:81:25:5f:4a:ee:
                    98:ce:c8:5d:04:9e:9c:8f:61:ce:0d:a3:31:5f:9f:
                    5a:42:6e:d5:9d:50:f4:b3:46:c9:3e:34:88:65:12:
                    0e:51:5a:5f:9e:1d:21:41:e1:08:98:8e:e3:ea:e0:
                    e4:84:26:c7:ad:ea:5a:a3:57:e6:01:1e:4f:76:37:
                    71:45:d1:12:19:94:51:83:e0:61:ab:da:38:b1:63:
                    75:c8:fe:15:02:84:67:59:ea:dd:1d:75:d6:a5:64:
                    b0:5d:23:05:e8:cc:65:1b:07:a0:30:10:5c:57:3f:
                    73:c5:9e:1e:90:1a:6b:6f:ce:83:aa:4d:61:f1:ce:
                    63:cb:7d:00:74:31:20:3b:fa:d4:8f:b7:a1:2a:1d:
                    2f:69:2f:b3:49:33:64:40:ce:ac:fc:ce:15:21:18:
                    a5:11:be:76:b3:cd:93:a3:18:c1:85:a6:81:d5:dd:
                    16:aa:da:32:fa:bd:aa:cb:8a:19:7a:a8:78:2e:ba:
                    6e:9d:a7:9f:4d:17:35:41:f1:04:f8:63:e6:61:be:
                    fb:26:51:4b:cb:94:71:bd:f3:68:5f:96:93:66:e3:
                    77:0b:db:3a:cd:4f:80:a8:b7:44:5b:a3:d1:4f:38:
                    d1:e8:7a:58:ca:bf:0c:b9:7d:ea:4e:84:74:50:a9:
                    e7:8e:f8:95:77:ad:c9:a4:3c:6d:d3:c7:0e:a9:03:
                    81:98:f5:4c:c2:30:77:2b:a9:5e:e1:36:55:d1:1f:
                    4b:7c:7a:e7:84:2b:ef:bb:8f:ae:29:e6:d9:eb:79:
                    d6:28:92:3e:7b:6f:12:f0:86:88:88:e2:69:92:ec:
                    dd:e9:4e:c7:4c:c2:cd:4b:33:1f:e1:46:b0:c7:71:
                    4b:3a:1e:a2:1c:51:31:33:2d:0c:f8:c3:f3:53:58:
                    4b:9a:95:7f:9f:f5:4f:4a:18:fd:4c:78:f4:18:4a:
                    66:fc:ab:07:bb:d6:43:61:96:87:f3:c7:4b:3c:c1:
                    96:54:ee:06:63:6a:eb:d4:1c:1b:36:f7:5e:03:22:
                    65:6c:a7:61:d8:c1:47:08:dd:79:05:24:09:47:0f:
                    77:01:c4:6d:8e:ec:7c:c0:d4:71:cd:ff:9c:dc:d4:
                    65:07:07
                Exponent: 65537 (0x10001)
        X509v3 extensions:
            X509v3 Basic Constraints: 
                CA:FALSE
            Netscape Comment: 
                Easy-RSA Generated Certificate
            X509v3 Subject Key Identifier: 
                7B:61:40:4B:01:68:89:18:78:9B:74:B5:65:2E:3C:8A:B3:88:CB:C4
            X509v3 Authority Key Identifier: 
                keyid:EF:38:8D:14:50:58:A7:5B:4D:9C:17:72:FC:DF:B9:AC:A7:51:B0:10
                DirName:/C=US/ST=CA/L=SanFrancisco/O=Pixglo, Inc./OU=VPN-CIE/CN=tunnel.pixglo.com/name=Bala Chandrasekaran/emailAddress=bala@pixglo.com
                serial:A6:DB:C6:83:80:E6:A0:79

            X509v3 Extended Key Usage: 
                TLS Web Client Authentication
            X509v3 Key Usage: 
                Digital Signature
    Signature Algorithm: sha1WithRSAEncryption
         68:39:44:5d:97:38:94:1d:65:64:d1:ab:9e:7c:17:47:93:04:
         da:a7:be:33:46:26:2d:1d:51:7e:a1:b9:63:bb:b1:eb:f8:3b:
         9a:3e:bc:16:e7:ee:66:64:6e:59:ee:43:e6:92:4c:94:f9:b3:
         26:19:6f:c8:b9:2d:4d:de:f8:b8:1e:03:d5:bc:12:8b:82:0a:
         a1:ce:cf:a4:ba:1b:9b:ca:04:49:6f:db:d4:49:c5:ce:61:03:
         59:14:74:91:32:75:ef:df:ed:8e:58:3a:68:80:6e:ce:d3:1e:
         21:80:03:73:ae:15:53:51:de:ea:af:c2:fd:4a:74:c3:37:b6:
         07:6a:eb:a8:e5:9f:03:94:fb:be:60:78:5f:6b:d2:b4:2d:55:
         86:f7:1a:15:aa:b0:0f:b1:05:0b:aa:c6:2e:f6:7e:60:71:7a:
         34:28:f2:cd:76:49:03:82:af:14:74:c6:d0:99:ed:84:00:82:
         19:d3:a1:56:ae:7d:89:ae:6f:67:c0:d5:80:3f:de:17:74:5e:
         bf:02:10:fd:5b:91:49:c3:d5:e8:da:90:88:06:d8:14:d2:ea:
         c1:e9:79:2a:5b:8d:b8:ab:fe:2e:63:3b:ca:8d:b2:39:c1:d2:
         2a:81:25:20:e2:22:b7:63:63:46:6c:f4:07:2d:21:e4:32:40:
         fa:8a:27:76:ed:3d:a1:72:c5:ad:b3:44:6b:b7:c3:85:5c:e9:
         e1:93:42:8f:4c:3d:8c:af:b6:0d:4f:7d:5f:7c:11:f3:2c:90:
         83:50:e3:a6:05:16:2f:d9:1b:ff:79:4b:de:eb:04:8e:0c:06:
         d7:a0:c5:c5:fb:64:9d:5a:a3:cf:fb:b5:cf:ea:0f:e9:6a:bb:
         94:23:2c:06:d6:4d:73:57:17:47:df:6c:dd:b7:9a:63:45:d6:
         ab:0f:3f:19:2b:24:97:ac:9d:73:bb:8b:db:2a:3b:ef:a6:bf:
         a0:14:14:a7:2e:c7:bd:07:20:bd:f0:74:95:cc:c1:45:ea:38:
         1e:ad:de:8c:9b:ca:f1:4e:69:73:00:e3:d5:e0:90:5a:57:02:
         84:78:81:fe:30:8e:0d:77:bc:f2:00:7b:62:fb:90:0c:66:9d:
         61:04:e6:94:a6:e3:29:0c:28:46:55:f5:f5:c9:9e:ee:af:53:
         77:54:97:71:56:75:c2:b3:b2:47:a5:05:5c:68:bb:8b:4b:d5:
         82:15:d5:28:f3:db:26:ba:6b:3f:af:9f:90:fb:1b:6e:33:b3:
         c3:7b:7f:79:a4:e2:b2:2f:4e:57:6e:38:9f:fe:d3:ea:6a:fa:
         31:18:a3:99:7b:b5:6a:59:3f:ac:f2:23:13:9a:3d:78:05:03:
         c2:1e:9d:6a:40:48:f3:bf
-----BEGIN CERTIFICATE-----
MIIHSDCCBTCgAwIBAgICAIcwDQYJKoZIhvcNAQEFBQAwgbQxCzAJBgNVBAYTAlVT
MQswCQYDVQQIEwJDQTEVMBMGA1UEBxMMU2FuRnJhbmNpc2NvMRUwEwYDVQQKEwxQ
aXhnbG8sIEluYy4xEDAOBgNVBAsTB1ZQTi1DSUUxGjAYBgNVBAMTEXR1bm5lbC5w
aXhnbG8uY29tMRwwGgYDVQQpExNCYWxhIENoYW5kcmFzZWthcmFuMR4wHAYJKoZI
hvcNAQkBFg9iYWxhQHBpeGdsby5jb20wHhcNMTgwMjE0MDYyNjA3WhcNMjgwMjEy
MDYyNjA3WjCBqTELMAkGA1UEBhMCVVMxCzAJBgNVBAgTAkNBMRUwEwYDVQQHEwxT
YW5GcmFuY2lzY28xFTATBgNVBAoTDFBpeGdsbywgSW5jLjEQMA4GA1UECxMHVlBO
LUNJRTEPMA0GA1UEAxMGY2llMTM0MRwwGgYDVQQpExNCYWxhIENoYW5kcmFzZWth
cmFuMR4wHAYJKoZIhvcNAQkBFg9iYWxhQHBpeGdsby5jb20wggIiMA0GCSqGSIb3
DQEBAQUAA4ICDwAwggIKAoICAQCsU5ez3HTi0u0WwzXSoki7Y292qUNHkAFYKRNY
VD39PLD2iOPDxIdMkB3RE2/xLW/gnluGgWT1bF+y2X0t/JRbZCF8VoROrnVzTyBd
ObYt/T0bzzUCRDBLqsHKNzA68AtVHJeBJV9K7pjOyF0EnpyPYc4NozFfn1pCbtWd
UPSzRsk+NIhlEg5RWl+eHSFB4QiYjuPq4OSEJset6lqjV+YBHk92N3FF0RIZlFGD
4GGr2jixY3XI/hUChGdZ6t0dddalZLBdIwXozGUbB6AwEFxXP3PFnh6QGmtvzoOq
TWHxzmPLfQB0MSA7+tSPt6EqHS9pL7NJM2RAzqz8zhUhGKURvnazzZOjGMGFpoHV
3Raq2jL6varLihl6qHguum6dp59NFzVB8QT4Y+ZhvvsmUUvLlHG982hflpNm43cL
2zrNT4Cot0Rbo9FPONHoeljKvwy5fepOhHRQqeeO+JV3rcmkPG3Txw6pA4GY9UzC
MHcrqV7hNlXRH0t8eueEK++7j64p5tnredYokj57bxLwhoiI4mmS7N3pTsdMws1L
Mx/hRrDHcUs6HqIcUTEzLQz4w/NTWEualX+f9U9KGP1MePQYSmb8qwe71kNhlofz
x0s8wZZU7gZjauvUHBs2914DImVsp2HYwUcI3XkFJAlHD3cBxG2O7HzA1HHN/5zc
1GUHBwIDAQABo4IBazCCAWcwCQYDVR0TBAIwADAtBglghkgBhvhCAQ0EIBYeRWFz
eS1SU0EgR2VuZXJhdGVkIENlcnRpZmljYXRlMB0GA1UdDgQWBBR7YUBLAWiJGHib
dLVlLjyKs4jLxDCB6QYDVR0jBIHhMIHegBTvOI0UUFinW02cF3L837msp1GwEKGB
uqSBtzCBtDELMAkGA1UEBhMCVVMxCzAJBgNVBAgTAkNBMRUwEwYDVQQHEwxTYW5G
cmFuY2lzY28xFTATBgNVBAoTDFBpeGdsbywgSW5jLjEQMA4GA1UECxMHVlBOLUNJ
RTEaMBgGA1UEAxMRdHVubmVsLnBpeGdsby5jb20xHDAaBgNVBCkTE0JhbGEgQ2hh
bmRyYXNla2FyYW4xHjAcBgkqhkiG9w0BCQEWD2JhbGFAcGl4Z2xvLmNvbYIJAKbb
xoOA5qB5MBMGA1UdJQQMMAoGCCsGAQUFBwMCMAsGA1UdDwQEAwIHgDANBgkqhkiG
9w0BAQUFAAOCAgEAaDlEXZc4lB1lZNGrnnwXR5ME2qe+M0YmLR1RfqG5Y7ux6/g7
mj68FufuZmRuWe5D5pJMlPmzJhlvyLktTd74uB4D1bwSi4IKoc7PpLobm8oESW/b
1EnFzmEDWRR0kTJ179/tjlg6aIBuztMeIYADc64VU1He6q/C/Up0wze2B2rrqOWf
A5T7vmB4X2vStC1VhvcaFaqwD7EFC6rGLvZ+YHF6NCjyzXZJA4KvFHTG0JnthACC
GdOhVq59ia5vZ8DVgD/eF3RevwIQ/VuRScPV6NqQiAbYFNLqwel5KluNuKv+LmM7
yo2yOcHSKoElIOIit2NjRmz0By0h5DJA+oondu09oXLFrbNEa7fDhVzp4ZNCj0w9
jK+2DU99X3wR8yyQg1DjpgUWL9kb/3lL3usEjgwG16DFxftknVqjz/u1z+oP6Wq7
lCMsBtZNc1cXR99s3beaY0XWqw8/GSskl6ydc7uL2yo776a/oBQUpy7HvQcgvfB0
lczBReo4Hq3ejJvK8U5pcwDj1eCQWlcChHiB/jCODXe88gB7YvuQDGadYQTmlKbj
KQwoRlX19cme7q9Td1SXcVZ1wrOyR6UFXGi7i0vVghXVKPPbJrprP6+fkPsbbjOz
w3t/eaTisi9OV244n/7T6mr6MRijmXu1alk/rPIjE5o9eAUDwh6dakBI878=
-----END CERTIFICATE-----
