Certificate:
    Data:
        Version: 3 (0x2)
        Serial Number: 137 (0x89)
    Signature Algorithm: sha1WithRSAEncryption
        Issuer: C=US, ST=CA, L=SanFrancisco, O=Pixglo, Inc., OU=VPN-CIE, CN=tunnel.pixglo.com/name=Bala Chandrasekaran/emailAddress=bala@pixglo.com
        Validity
            Not Before: Feb 14 06:26:08 2018 GMT
            Not After : Feb 12 06:26:08 2028 GMT
        Subject: C=US, ST=CA, L=SanFrancisco, O=Pixglo, Inc., OU=VPN-CIE, CN=cie136/name=Bala Chandrasekaran/emailAddress=bala@pixglo.com
        Subject Public Key Info:
            Public Key Algorithm: rsaEncryption
                Public-Key: (4096 bit)
                Modulus:
                    00:9b:68:b7:a2:7a:cb:42:64:0d:78:38:c7:c2:84:
                    ce:99:31:db:ea:de:92:ae:2f:0c:bc:61:b9:02:3a:
                    7a:df:17:3b:48:fe:11:f8:20:29:02:a9:00:c0:c6:
                    6d:76:b5:9b:e4:c1:aa:d0:b4:85:d7:b4:0a:b2:96:
                    d4:29:fa:00:e0:19:db:8d:29:dc:ee:c3:1f:3d:0c:
                    57:8a:67:c5:bd:95:ab:ee:a9:9e:35:b2:f4:b5:9e:
                    81:dc:7e:23:e5:77:8c:75:2c:21:5d:5b:41:d2:e1:
                    9a:2c:dc:fa:86:18:62:1e:95:e6:c4:ea:b3:48:fe:
                    96:2a:5f:98:09:07:b9:ed:7d:44:a7:6d:dc:2f:ae:
                    23:9f:5b:71:bb:fb:43:29:4b:5d:d8:7a:19:7a:b4:
                    d4:76:42:66:4f:23:54:b8:dd:ae:ab:99:dd:54:ce:
                    c1:71:48:d9:5c:02:35:ba:91:94:af:10:d2:ec:13:
                    b5:5d:ce:40:18:74:3f:58:60:12:9f:0f:85:e9:2c:
                    ef:32:6d:14:a8:4a:0f:34:06:b7:2a:ad:f8:9f:0e:
                    9a:ff:a7:cf:f8:ab:3d:c4:b2:b1:b6:29:3e:f6:af:
                    7b:ad:63:cc:cc:57:1c:3b:0e:64:55:98:5a:ec:0c:
                    6b:e0:44:ff:42:ea:85:fd:73:fb:43:0d:77:ba:39:
                    33:65:20:93:50:cb:3f:3d:fc:30:53:94:53:3b:7b:
                    8d:34:0a:fe:6d:dc:cf:a0:39:d0:f7:ee:a3:c9:04:
                    c2:e0:fe:38:9b:fe:e7:1c:ff:17:ea:8e:25:0b:61:
                    cd:31:b0:2e:92:02:69:41:69:89:5f:a0:28:db:ed:
                    e5:e1:b9:e1:40:0e:5d:4f:28:06:9d:96:50:26:3f:
                    bc:bf:c6:2e:d9:45:f3:26:b4:ee:7d:3e:0a:87:bf:
                    15:cd:0f:5d:49:9f:a2:64:e2:ac:f7:28:44:9f:07:
                    74:02:8f:95:c7:68:6f:31:05:97:25:6a:8a:a6:7e:
                    17:fa:f1:7e:5d:fa:a1:3d:ec:a0:a4:e7:58:ff:e7:
                    eb:8c:6c:95:e9:95:df:cd:b3:60:c9:24:b7:ad:69:
                    f6:63:e4:56:ff:e6:db:a6:5b:1a:45:8d:f3:70:12:
                    01:78:92:19:6b:a0:74:54:46:7a:f0:47:cd:b3:a6:
                    9c:f8:1a:ef:aa:a4:c3:e4:0d:30:b4:e1:7c:6a:b3:
                    d2:a6:df:a8:7a:97:0f:62:b5:29:a3:66:e5:5b:74:
                    63:a2:35:43:8c:9a:c6:f2:c2:8d:8e:fb:f3:78:8c:
                    89:2e:08:cc:e0:2e:2e:d3:69:7e:fa:72:fb:41:f9:
                    77:a3:ad:39:46:c4:b5:32:31:8e:15:d6:fc:25:e9:
                    a8:af:03
                Exponent: 65537 (0x10001)
        X509v3 extensions:
            X509v3 Basic Constraints: 
                CA:FALSE
            Netscape Comment: 
                Easy-RSA Generated Certificate
            X509v3 Subject Key Identifier: 
                7C:C2:05:7F:B4:3B:71:4C:93:81:F7:CE:77:13:7B:F4:AB:01:5A:E8
            X509v3 Authority Key Identifier: 
                keyid:EF:38:8D:14:50:58:A7:5B:4D:9C:17:72:FC:DF:B9:AC:A7:51:B0:10
                DirName:/C=US/ST=CA/L=SanFrancisco/O=Pixglo, Inc./OU=VPN-CIE/CN=tunnel.pixglo.com/name=Bala Chandrasekaran/emailAddress=bala@pixglo.com
                serial:A6:DB:C6:83:80:E6:A0:79

            X509v3 Extended Key Usage: 
                TLS Web Client Authentication
            X509v3 Key Usage: 
                Digital Signature
    Signature Algorithm: sha1WithRSAEncryption
         6b:93:c9:7b:18:5c:88:02:98:c1:fb:95:5c:a9:40:e5:ce:63:
         29:e7:d4:31:ee:a7:05:7f:b9:c7:17:92:86:18:b0:28:83:79:
         b2:ce:a6:2e:5d:71:40:fc:d3:23:d3:9d:31:fa:7e:f6:1b:af:
         4b:a5:55:45:67:18:63:c6:1a:b1:13:b1:5f:91:66:80:69:6c:
         39:b2:01:70:d7:dd:1e:43:eb:db:c8:2d:80:8a:38:f0:14:c7:
         ad:a2:db:58:93:98:fc:f9:12:ac:a3:78:6c:45:85:00:97:86:
         f7:cc:79:8f:ff:f6:ee:bc:49:9e:4d:7c:07:09:de:bc:3c:e1:
         75:e6:e6:33:ee:6a:b1:24:77:11:b3:59:7d:5b:fe:67:5f:93:
         7a:ad:30:a4:e3:39:ad:28:c2:5f:8b:25:84:5b:69:43:c8:41:
         c0:59:9b:54:ad:70:df:c3:d0:2f:49:d1:bd:5a:78:d3:15:e6:
         9f:90:87:36:52:44:02:ad:52:93:ce:30:4c:c5:78:ad:c2:f3:
         ea:9b:4f:9a:2e:42:84:1d:bc:78:48:1c:16:bd:71:81:29:ee:
         19:05:9c:b0:8c:b4:41:60:4d:c5:b1:99:bc:3f:cd:46:f3:3e:
         2d:93:42:bd:29:f9:b0:28:ed:e2:94:b7:a6:36:c4:13:d0:10:
         d7:b3:e3:ce:b0:4d:8b:ee:f4:26:9f:81:df:7d:b9:82:13:5a:
         3f:dd:dc:63:e1:35:9a:33:d6:44:86:c5:7e:b8:98:fa:af:6e:
         cf:08:70:f4:a7:4a:59:8d:f4:ac:05:21:b9:31:df:bc:96:79:
         bd:ca:92:3f:9d:7d:9e:85:5a:da:27:a7:15:0f:c1:5a:10:c0:
         f6:58:52:6b:04:26:9b:71:1f:f5:cc:41:04:cc:7c:4c:7d:22:
         5f:97:d3:7e:a8:b5:fd:6c:32:01:8a:10:85:67:c7:94:58:da:
         78:2a:41:46:4b:e6:ef:88:17:46:9c:4f:bc:fc:76:f0:6a:e5:
         4c:0a:02:14:68:d8:b6:1b:0d:9d:5a:c7:be:a1:ef:b4:4c:a0:
         7a:a5:17:fd:80:89:7d:47:54:e0:5c:69:c6:d6:d3:bc:a6:03:
         4c:e5:d1:e6:19:2a:71:5f:32:b6:34:ff:94:c2:9c:22:ba:96:
         db:93:1f:6b:96:c4:c3:88:27:99:41:00:f3:c4:39:07:26:aa:
         0c:c6:67:67:73:7f:98:e8:dd:5b:6e:00:db:b1:7a:5c:20:ef:
         3c:df:2f:22:ff:a0:b6:0a:90:b2:11:50:9d:e8:4e:3a:45:7c:
         22:02:f2:a5:34:5e:4a:07:a8:4f:8b:ef:9c:7c:0e:93:9c:78:
         a6:be:a2:f3:29:eb:41:eb
-----BEGIN CERTIFICATE-----
MIIHSDCCBTCgAwIBAgICAIkwDQYJKoZIhvcNAQEFBQAwgbQxCzAJBgNVBAYTAlVT
MQswCQYDVQQIEwJDQTEVMBMGA1UEBxMMU2FuRnJhbmNpc2NvMRUwEwYDVQQKEwxQ
aXhnbG8sIEluYy4xEDAOBgNVBAsTB1ZQTi1DSUUxGjAYBgNVBAMTEXR1bm5lbC5w
aXhnbG8uY29tMRwwGgYDVQQpExNCYWxhIENoYW5kcmFzZWthcmFuMR4wHAYJKoZI
hvcNAQkBFg9iYWxhQHBpeGdsby5jb20wHhcNMTgwMjE0MDYyNjA4WhcNMjgwMjEy
MDYyNjA4WjCBqTELMAkGA1UEBhMCVVMxCzAJBgNVBAgTAkNBMRUwEwYDVQQHEwxT
YW5GcmFuY2lzY28xFTATBgNVBAoTDFBpeGdsbywgSW5jLjEQMA4GA1UECxMHVlBO
LUNJRTEPMA0GA1UEAxMGY2llMTM2MRwwGgYDVQQpExNCYWxhIENoYW5kcmFzZWth
cmFuMR4wHAYJKoZIhvcNAQkBFg9iYWxhQHBpeGdsby5jb20wggIiMA0GCSqGSIb3
DQEBAQUAA4ICDwAwggIKAoICAQCbaLeiestCZA14OMfChM6ZMdvq3pKuLwy8YbkC
OnrfFztI/hH4ICkCqQDAxm12tZvkwarQtIXXtAqyltQp+gDgGduNKdzuwx89DFeK
Z8W9lavuqZ41svS1noHcfiPld4x1LCFdW0HS4Zos3PqGGGIelebE6rNI/pYqX5gJ
B7ntfUSnbdwvriOfW3G7+0MpS13Yehl6tNR2QmZPI1S43a6rmd1UzsFxSNlcAjW6
kZSvENLsE7VdzkAYdD9YYBKfD4XpLO8ybRSoSg80BrcqrfifDpr/p8/4qz3EsrG2
KT72r3utY8zMVxw7DmRVmFrsDGvgRP9C6oX9c/tDDXe6OTNlIJNQyz89/DBTlFM7
e400Cv5t3M+gOdD37qPJBMLg/jib/ucc/xfqjiULYc0xsC6SAmlBaYlfoCjb7eXh
ueFADl1PKAadllAmP7y/xi7ZRfMmtO59PgqHvxXND11Jn6Jk4qz3KESfB3QCj5XH
aG8xBZclaoqmfhf68X5d+qE97KCk51j/5+uMbJXpld/Ns2DJJLetafZj5Fb/5tum
WxpFjfNwEgF4khlroHRURnrwR82zppz4Gu+qpMPkDTC04Xxqs9Km36h6lw9itSmj
ZuVbdGOiNUOMmsbywo2O+/N4jIkuCMzgLi7TaX76cvtB+XejrTlGxLUyMY4V1vwl
6aivAwIDAQABo4IBazCCAWcwCQYDVR0TBAIwADAtBglghkgBhvhCAQ0EIBYeRWFz
eS1SU0EgR2VuZXJhdGVkIENlcnRpZmljYXRlMB0GA1UdDgQWBBR8wgV/tDtxTJOB
9853E3v0qwFa6DCB6QYDVR0jBIHhMIHegBTvOI0UUFinW02cF3L837msp1GwEKGB
uqSBtzCBtDELMAkGA1UEBhMCVVMxCzAJBgNVBAgTAkNBMRUwEwYDVQQHEwxTYW5G
cmFuY2lzY28xFTATBgNVBAoTDFBpeGdsbywgSW5jLjEQMA4GA1UECxMHVlBOLUNJ
RTEaMBgGA1UEAxMRdHVubmVsLnBpeGdsby5jb20xHDAaBgNVBCkTE0JhbGEgQ2hh
bmRyYXNla2FyYW4xHjAcBgkqhkiG9w0BCQEWD2JhbGFAcGl4Z2xvLmNvbYIJAKbb
xoOA5qB5MBMGA1UdJQQMMAoGCCsGAQUFBwMCMAsGA1UdDwQEAwIHgDANBgkqhkiG
9w0BAQUFAAOCAgEAa5PJexhciAKYwfuVXKlA5c5jKefUMe6nBX+5xxeShhiwKIN5
ss6mLl1xQPzTI9OdMfp+9huvS6VVRWcYY8YasROxX5FmgGlsObIBcNfdHkPr28gt
gIo48BTHraLbWJOY/PkSrKN4bEWFAJeG98x5j//27rxJnk18BwnevDzhdebmM+5q
sSR3EbNZfVv+Z1+Teq0wpOM5rSjCX4slhFtpQ8hBwFmbVK1w38PQL0nRvVp40xXm
n5CHNlJEAq1Sk84wTMV4rcLz6ptPmi5ChB28eEgcFr1xgSnuGQWcsIy0QWBNxbGZ
vD/NRvM+LZNCvSn5sCjt4pS3pjbEE9AQ17PjzrBNi+70Jp+B3325ghNaP93cY+E1
mjPWRIbFfriY+q9uzwhw9KdKWY30rAUhuTHfvJZ5vcqSP519noVa2ienFQ/BWhDA
9lhSawQmm3Ef9cxBBMx8TH0iX5fTfqi1/WwyAYoQhWfHlFjaeCpBRkvm74gXRpxP
vPx28GrlTAoCFGjYthsNnVrHvqHvtEygeqUX/YCJfUdU4FxpxtbTvKYDTOXR5hkq
cV8ytjT/lMKcIrqW25Mfa5bEw4gnmUEA88Q5ByaqDMZnZ3N/mOjdW24A27F6XCDv
PN8vIv+gtgqQshFQnehOOkV8IgLypTReSgeoT4vvnHwOk5x4pr6i8ynrQes=
-----END CERTIFICATE-----
