Certificate:
    Data:
        Version: 3 (0x2)
        Serial Number: 139 (0x8b)
    Signature Algorithm: sha1WithRSAEncryption
        Issuer: C=US, ST=CA, L=SanFrancisco, O=Pixglo, Inc., OU=VPN-CIE, CN=tunnel.pixglo.com/name=Bala Chandrasekaran/emailAddress=bala@pixglo.com
        Validity
            Not Before: Feb 14 06:26:09 2018 GMT
            Not After : Feb 12 06:26:09 2028 GMT
        Subject: C=US, ST=CA, L=SanFrancisco, O=Pixglo, Inc., OU=VPN-CIE, CN=cie138/name=Bala Chandrasekaran/emailAddress=bala@pixglo.com
        Subject Public Key Info:
            Public Key Algorithm: rsaEncryption
                Public-Key: (4096 bit)
                Modulus:
                    00:c2:20:1f:4a:ab:bc:9b:77:f1:7f:19:f8:2b:a5:
                    51:a2:3c:7a:74:31:1a:86:f3:a8:1b:ae:47:76:12:
                    be:7b:09:fa:4a:d5:1c:a2:40:75:cd:6f:b9:ea:ef:
                    8c:e9:09:90:f1:c1:d1:d4:92:84:71:b3:43:8c:3c:
                    bc:96:7d:35:24:ab:b9:56:c2:c0:33:9e:76:15:ff:
                    91:64:e8:0d:8e:48:d2:18:87:07:f2:3b:2c:98:cb:
                    c4:05:fb:03:fd:d1:62:d0:53:a8:a0:38:f8:4e:a6:
                    b9:e7:e3:81:ac:9e:11:71:c6:09:81:37:5b:16:e8:
                    1d:6c:80:ea:35:80:fd:79:90:73:ee:7c:31:fb:10:
                    2f:8e:14:c6:62:e8:73:08:6b:73:9e:7f:2d:79:45:
                    3f:2d:4c:fc:31:88:88:43:23:02:4a:82:da:2b:44:
                    21:3e:d4:0a:7c:12:1f:f0:9a:f5:8f:18:14:47:4d:
                    4e:72:73:09:5f:ee:4c:5e:b0:18:b4:b2:aa:31:3e:
                    72:ca:97:8c:83:2c:79:e1:e8:37:0e:5b:76:91:57:
                    e9:ab:ed:13:3a:b1:61:0e:47:8e:f2:d5:43:69:8c:
                    0f:f7:fc:2e:6b:f4:ff:bf:97:25:74:dc:5e:b6:12:
                    0a:41:db:e8:0e:be:4c:cd:9a:99:ac:f9:f4:ea:d4:
                    f5:d9:c9:b6:e8:4a:a4:34:be:ae:97:cd:68:b1:5b:
                    5f:05:ec:d2:97:08:c5:66:6b:f8:5d:23:0c:53:42:
                    64:4a:00:3a:22:02:d8:33:77:05:9a:e0:00:3a:33:
                    6b:c8:02:5a:7a:06:03:3c:51:f3:75:87:1c:c4:32:
                    f0:19:60:9a:0c:5a:11:09:5a:68:4e:0c:19:3b:68:
                    19:43:d8:4d:c6:ea:90:8b:d2:33:3d:cb:c3:db:d4:
                    12:2f:9e:68:dd:61:ba:12:c5:ff:76:99:43:e9:31:
                    23:e9:f6:6e:c0:26:be:07:eb:d5:b4:34:9c:f8:f1:
                    e0:59:56:67:b3:0f:1d:84:ed:6c:8b:b0:67:9e:ba:
                    a5:29:5a:90:85:3e:fe:08:a2:b1:97:52:ca:e4:8a:
                    46:4d:b2:a2:1a:4c:d6:63:f6:0d:a7:f2:ec:b7:53:
                    7f:f4:42:06:59:1c:b7:c9:6c:df:cc:70:b8:48:66:
                    77:74:9c:d7:a0:9a:9d:ed:6f:4e:11:35:73:b7:b6:
                    38:68:10:7b:1e:65:3f:67:3a:32:d3:09:7a:6a:d1:
                    e0:7d:3d:61:1b:10:cb:62:8a:25:6e:70:aa:2a:3d:
                    09:85:a9:2a:88:2f:84:35:70:6b:0e:85:e0:9f:d4:
                    9f:e6:96:7c:43:09:13:d7:ae:ca:8b:cc:01:08:48:
                    a8:27:9d
                Exponent: 65537 (0x10001)
        X509v3 extensions:
            X509v3 Basic Constraints: 
                CA:FALSE
            Netscape Comment: 
                Easy-RSA Generated Certificate
            X509v3 Subject Key Identifier: 
                9A:E5:E0:6F:55:27:CC:64:80:7E:3B:E3:AE:C8:3F:F6:E6:B2:1A:60
            X509v3 Authority Key Identifier: 
                keyid:EF:38:8D:14:50:58:A7:5B:4D:9C:17:72:FC:DF:B9:AC:A7:51:B0:10
                DirName:/C=US/ST=CA/L=SanFrancisco/O=Pixglo, Inc./OU=VPN-CIE/CN=tunnel.pixglo.com/name=Bala Chandrasekaran/emailAddress=bala@pixglo.com
                serial:A6:DB:C6:83:80:E6:A0:79

            X509v3 Extended Key Usage: 
                TLS Web Client Authentication
            X509v3 Key Usage: 
                Digital Signature
    Signature Algorithm: sha1WithRSAEncryption
         01:1f:18:a4:0a:be:6e:e5:a5:0b:22:20:d8:be:e0:be:df:cc:
         03:c9:d5:f4:fb:c6:b1:18:9d:b4:c5:54:a3:ba:ea:38:3d:b5:
         47:ad:03:21:bb:bf:d6:c5:68:cb:1b:a1:b9:eb:ea:46:46:00:
         b2:04:b6:16:22:a4:b2:bd:7a:1e:3d:14:00:86:dc:01:de:cc:
         b8:5e:aa:fb:b9:93:be:85:42:1d:c0:d9:3f:41:98:07:fa:d3:
         41:42:3a:58:cc:07:04:00:81:c7:85:b5:db:89:cf:24:fd:4d:
         18:9c:4a:78:d4:55:6e:29:0c:e3:c3:65:38:c3:ac:dc:d8:72:
         cb:84:ff:40:c4:71:4d:7a:9b:aa:be:63:73:6c:c0:1f:f2:e7:
         32:dc:0e:2d:55:5a:3f:c3:59:bd:89:16:f0:32:5c:8c:48:17:
         39:45:fb:2f:d8:b4:03:79:90:b5:4a:83:fd:52:4c:f0:a9:77:
         ec:5b:31:1c:ca:c0:89:d9:89:69:95:eb:28:0b:db:56:7a:62:
         31:de:4a:a9:ec:fe:55:5d:3d:c2:79:fb:56:86:6b:15:3b:41:
         3b:a7:a5:29:e8:d9:87:9c:da:6b:86:27:e7:05:1e:9f:ce:45:
         bf:e5:a3:b2:23:82:e0:cb:e2:c3:cf:13:30:12:c3:3d:96:37:
         58:96:0b:7d:b7:83:dd:f5:4e:4c:03:71:b3:5e:72:38:16:da:
         21:9b:bd:cd:57:48:a8:a3:ad:28:a0:1d:97:72:42:9d:b2:e2:
         40:3d:11:28:65:7a:58:a4:a5:ba:58:77:c9:d6:85:e8:ea:4d:
         48:a3:80:d3:16:ca:b1:d1:ef:06:53:5e:37:84:9d:cb:a4:28:
         e6:3b:e1:bb:08:60:eb:e9:46:91:94:9e:5e:1f:1f:ac:0e:81:
         a4:84:26:ae:cb:0c:98:2b:3c:3e:81:13:9c:9d:9d:67:73:da:
         15:12:db:c7:25:16:ec:a5:ce:61:d9:09:4a:01:fd:b8:07:01:
         96:12:47:61:17:09:5b:a8:8f:b0:71:05:6b:f3:12:01:4e:9a:
         50:7a:98:5b:e1:28:e5:08:1d:91:a4:b8:6b:85:ee:6e:3a:ed:
         a5:71:00:73:8c:59:f5:53:1c:ec:66:4a:43:f9:c5:e9:26:1d:
         41:6a:8b:6a:62:52:db:4f:aa:ca:21:15:03:f3:15:d6:48:b1:
         1d:55:2a:fe:ad:91:c9:1a:89:30:e5:64:67:2c:16:9e:5b:36:
         37:57:91:e6:d3:73:10:5f:bf:78:44:fd:7f:55:0f:b3:fb:74:
         cb:d1:8b:e1:8d:86:40:44:c6:6f:1b:5a:31:7d:e8:9e:bc:bb:
         27:ef:23:c1:04:a6:95:14
-----BEGIN CERTIFICATE-----
MIIHSDCCBTCgAwIBAgICAIswDQYJKoZIhvcNAQEFBQAwgbQxCzAJBgNVBAYTAlVT
MQswCQYDVQQIEwJDQTEVMBMGA1UEBxMMU2FuRnJhbmNpc2NvMRUwEwYDVQQKEwxQ
aXhnbG8sIEluYy4xEDAOBgNVBAsTB1ZQTi1DSUUxGjAYBgNVBAMTEXR1bm5lbC5w
aXhnbG8uY29tMRwwGgYDVQQpExNCYWxhIENoYW5kcmFzZWthcmFuMR4wHAYJKoZI
hvcNAQkBFg9iYWxhQHBpeGdsby5jb20wHhcNMTgwMjE0MDYyNjA5WhcNMjgwMjEy
MDYyNjA5WjCBqTELMAkGA1UEBhMCVVMxCzAJBgNVBAgTAkNBMRUwEwYDVQQHEwxT
YW5GcmFuY2lzY28xFTATBgNVBAoTDFBpeGdsbywgSW5jLjEQMA4GA1UECxMHVlBO
LUNJRTEPMA0GA1UEAxMGY2llMTM4MRwwGgYDVQQpExNCYWxhIENoYW5kcmFzZWth
cmFuMR4wHAYJKoZIhvcNAQkBFg9iYWxhQHBpeGdsby5jb20wggIiMA0GCSqGSIb3
DQEBAQUAA4ICDwAwggIKAoICAQDCIB9Kq7ybd/F/GfgrpVGiPHp0MRqG86gbrkd2
Er57CfpK1RyiQHXNb7nq74zpCZDxwdHUkoRxs0OMPLyWfTUkq7lWwsAznnYV/5Fk
6A2OSNIYhwfyOyyYy8QF+wP90WLQU6igOPhOprnn44GsnhFxxgmBN1sW6B1sgOo1
gP15kHPufDH7EC+OFMZi6HMIa3Oefy15RT8tTPwxiIhDIwJKgtorRCE+1Ap8Eh/w
mvWPGBRHTU5ycwlf7kxesBi0sqoxPnLKl4yDLHnh6DcOW3aRV+mr7RM6sWEOR47y
1UNpjA/3/C5r9P+/lyV03F62EgpB2+gOvkzNmpms+fTq1PXZybboSqQ0vq6XzWix
W18F7NKXCMVma/hdIwxTQmRKADoiAtgzdwWa4AA6M2vIAlp6BgM8UfN1hxzEMvAZ
YJoMWhEJWmhODBk7aBlD2E3G6pCL0jM9y8Pb1BIvnmjdYboSxf92mUPpMSPp9m7A
Jr4H69W0NJz48eBZVmezDx2E7WyLsGeeuqUpWpCFPv4IorGXUsrkikZNsqIaTNZj
9g2n8uy3U3/0QgZZHLfJbN/McLhIZnd0nNegmp3tb04RNXO3tjhoEHseZT9nOjLT
CXpq0eB9PWEbEMtiiiVucKoqPQmFqSqIL4Q1cGsOheCf1J/mlnxDCRPXrsqLzAEI
SKgnnQIDAQABo4IBazCCAWcwCQYDVR0TBAIwADAtBglghkgBhvhCAQ0EIBYeRWFz
eS1SU0EgR2VuZXJhdGVkIENlcnRpZmljYXRlMB0GA1UdDgQWBBSa5eBvVSfMZIB+
O+OuyD/25rIaYDCB6QYDVR0jBIHhMIHegBTvOI0UUFinW02cF3L837msp1GwEKGB
uqSBtzCBtDELMAkGA1UEBhMCVVMxCzAJBgNVBAgTAkNBMRUwEwYDVQQHEwxTYW5G
cmFuY2lzY28xFTATBgNVBAoTDFBpeGdsbywgSW5jLjEQMA4GA1UECxMHVlBOLUNJ
RTEaMBgGA1UEAxMRdHVubmVsLnBpeGdsby5jb20xHDAaBgNVBCkTE0JhbGEgQ2hh
bmRyYXNla2FyYW4xHjAcBgkqhkiG9w0BCQEWD2JhbGFAcGl4Z2xvLmNvbYIJAKbb
xoOA5qB5MBMGA1UdJQQMMAoGCCsGAQUFBwMCMAsGA1UdDwQEAwIHgDANBgkqhkiG
9w0BAQUFAAOCAgEAAR8YpAq+buWlCyIg2L7gvt/MA8nV9PvGsRidtMVUo7rqOD21
R60DIbu/1sVoyxuhuevqRkYAsgS2FiKksr16Hj0UAIbcAd7MuF6q+7mTvoVCHcDZ
P0GYB/rTQUI6WMwHBACBx4W124nPJP1NGJxKeNRVbikM48NlOMOs3Nhyy4T/QMRx
TXqbqr5jc2zAH/LnMtwOLVVaP8NZvYkW8DJcjEgXOUX7L9i0A3mQtUqD/VJM8Kl3
7FsxHMrAidmJaZXrKAvbVnpiMd5Kqez+VV09wnn7VoZrFTtBO6elKejZh5zaa4Yn
5wUen85Fv+WjsiOC4Mviw88TMBLDPZY3WJYLfbeD3fVOTANxs15yOBbaIZu9zVdI
qKOtKKAdl3JCnbLiQD0RKGV6WKSlulh3ydaF6OpNSKOA0xbKsdHvBlNeN4Sdy6Qo
5jvhuwhg6+lGkZSeXh8frA6BpIQmrssMmCs8PoETnJ2dZ3PaFRLbxyUW7KXOYdkJ
SgH9uAcBlhJHYRcJW6iPsHEFa/MSAU6aUHqYW+Eo5QgdkaS4a4XubjrtpXEAc4xZ
9VMc7GZKQ/nF6SYdQWqLamJS20+qyiEVA/MV1kixHVUq/q2RyRqJMOVkZywWnls2
N1eR5tNzEF+/eET9f1UPs/t0y9GL4Y2GQETGbxtaMX3onry7J+8jwQSmlRQ=
-----END CERTIFICATE-----
