Certificate:
    Data:
        Version: 3 (0x2)
        Serial Number: 140 (0x8c)
    Signature Algorithm: sha1WithRSAEncryption
        Issuer: C=US, ST=CA, L=SanFrancisco, O=Pixglo, Inc., OU=VPN-CIE, CN=tunnel.pixglo.com/name=Bala Chandrasekaran/emailAddress=bala@pixglo.com
        Validity
            Not Before: Feb 14 06:26:09 2018 GMT
            Not After : Feb 12 06:26:09 2028 GMT
        Subject: C=US, ST=CA, L=SanFrancisco, O=Pixglo, Inc., OU=VPN-CIE, CN=cie139/name=Bala Chandrasekaran/emailAddress=bala@pixglo.com
        Subject Public Key Info:
            Public Key Algorithm: rsaEncryption
                Public-Key: (4096 bit)
                Modulus:
                    00:d1:b9:9a:c0:55:bb:42:9a:d3:78:68:72:86:ee:
                    df:4c:b5:c5:16:2e:ed:8f:60:84:5f:63:ea:d8:15:
                    6a:22:f8:91:c6:f8:7b:56:40:e5:28:5a:85:59:9b:
                    1b:47:c4:b9:7e:38:d6:a4:e7:f0:4a:c6:86:29:b6:
                    d9:36:0b:53:56:5d:3b:05:48:d4:94:91:18:51:b9:
                    dc:3e:be:02:0d:36:18:4d:1e:b5:d8:23:7a:fa:22:
                    51:79:28:cb:8c:4d:c6:d7:11:07:48:c3:ac:b3:2d:
                    52:9e:b2:b2:13:08:f5:3c:59:cf:3b:b5:fb:9b:56:
                    e7:f9:de:ac:e2:ae:bb:89:0e:0a:b7:b6:1d:f8:a0:
                    ad:08:f3:70:6e:41:34:06:45:41:a4:ae:3d:4e:13:
                    62:4a:45:1d:0a:6f:cc:3c:4f:ef:43:1d:23:27:39:
                    64:6d:15:f3:42:bc:8d:2c:9c:63:74:20:0f:3c:57:
                    39:36:7b:9d:81:ee:08:52:89:05:ef:c0:61:7c:26:
                    0f:19:29:73:90:42:83:1b:92:95:4a:24:b3:96:5b:
                    93:4b:46:5c:ec:8c:1b:60:03:f8:e5:e2:7c:66:19:
                    85:21:5d:de:e3:06:9c:5e:0b:57:a6:3c:95:16:9b:
                    8a:3b:68:2e:59:f5:a6:92:08:06:dd:03:af:14:a2:
                    f7:eb:91:40:7c:9c:b9:b0:46:db:97:d8:11:d1:0a:
                    99:50:b1:85:46:0c:ee:6e:bf:15:90:58:2f:ba:4d:
                    91:16:d7:da:43:eb:95:25:73:72:35:98:73:6e:92:
                    c0:75:12:79:f3:e4:26:e6:a1:79:c2:7e:c6:9a:4e:
                    2e:35:7e:5e:be:8f:b6:df:b9:f9:f2:b5:f3:1b:c8:
                    00:9a:4d:26:77:4b:32:f8:8a:7c:6d:7f:c8:64:eb:
                    ac:16:5c:05:86:a5:43:b6:95:af:34:5b:9d:20:d1:
                    1c:17:0f:c9:32:c2:7a:7a:fb:46:a1:53:71:a3:d4:
                    8b:5c:eb:87:44:0e:54:aa:8e:7e:5a:f8:36:02:40:
                    ef:fe:15:43:f9:6c:45:1a:1c:65:38:6b:d4:7e:51:
                    47:1d:b0:04:46:1a:4d:fa:46:99:d9:7e:f7:6c:0a:
                    e8:b3:0a:52:63:6e:de:4f:68:c0:2b:90:c8:42:94:
                    b1:be:d6:ce:c7:5e:0e:c2:93:3c:9f:44:77:04:c9:
                    ae:8a:e8:50:b9:66:e0:31:4f:6e:bc:23:47:d6:d5:
                    49:fc:8f:a9:e6:47:ea:b0:9c:3e:65:3b:04:73:38:
                    e2:42:24:ab:33:0c:9b:f4:2d:7b:f1:02:ab:a8:d7:
                    68:50:5b:ff:ac:80:2a:c3:e0:38:1a:01:ff:ab:b8:
                    42:1a:27
                Exponent: 65537 (0x10001)
        X509v3 extensions:
            X509v3 Basic Constraints: 
                CA:FALSE
            Netscape Comment: 
                Easy-RSA Generated Certificate
            X509v3 Subject Key Identifier: 
                62:4C:B2:57:78:CD:32:7C:F2:A4:97:C3:BD:C0:E2:3C:14:E3:5E:BE
            X509v3 Authority Key Identifier: 
                keyid:EF:38:8D:14:50:58:A7:5B:4D:9C:17:72:FC:DF:B9:AC:A7:51:B0:10
                DirName:/C=US/ST=CA/L=SanFrancisco/O=Pixglo, Inc./OU=VPN-CIE/CN=tunnel.pixglo.com/name=Bala Chandrasekaran/emailAddress=bala@pixglo.com
                serial:A6:DB:C6:83:80:E6:A0:79

            X509v3 Extended Key Usage: 
                TLS Web Client Authentication
            X509v3 Key Usage: 
                Digital Signature
    Signature Algorithm: sha1WithRSAEncryption
         64:ae:47:3a:22:cd:56:f3:59:3f:39:80:c6:35:a4:fb:4c:76:
         90:44:a1:6a:6d:45:22:4b:43:9f:8b:b6:c2:4c:70:70:f8:ba:
         00:da:03:f3:bf:21:c9:5a:d1:28:01:a2:ca:22:c8:2d:5b:71:
         33:68:1b:f6:55:ab:61:1f:b3:71:83:a5:e2:69:e1:21:59:a9:
         13:81:f2:62:be:22:ef:ab:7f:b1:c9:67:b4:19:20:47:28:15:
         2a:c0:83:6c:a5:29:c3:bf:cf:19:5a:76:0a:10:8c:11:47:39:
         05:1a:7b:6e:e0:db:09:5f:c4:22:66:d3:df:12:cd:fd:be:2f:
         24:88:b0:c5:cd:05:2f:b6:81:06:fe:b6:42:85:78:45:4b:64:
         c7:b1:9e:eb:ef:e8:c1:01:f7:25:e6:ea:23:3b:a9:59:dc:f5:
         07:b0:ea:ca:1d:98:7a:8e:bd:0e:0a:61:f1:92:3b:f1:3a:6b:
         37:cf:d7:e5:e8:9e:96:a7:27:da:95:49:7e:ef:28:7e:ad:84:
         6f:f8:6f:5e:7b:a4:e9:31:fd:91:e9:d4:9e:e5:31:55:a2:42:
         f4:90:ea:3f:fb:23:21:48:6b:78:c0:08:d0:77:d2:de:18:b2:
         f2:3e:c3:af:f1:e3:e7:5a:6f:ae:48:68:1f:b1:b9:22:36:cd:
         b6:b1:a2:e9:7f:72:a4:09:45:78:95:3a:8d:7a:97:43:aa:f5:
         9a:c0:24:82:ee:2d:93:99:46:2f:c8:77:d2:fd:fb:83:10:05:
         13:4e:bf:a7:c5:2f:ca:78:67:5f:e1:fd:13:78:29:c8:d5:a3:
         dd:f7:cf:a7:0a:24:3d:79:b8:f7:9b:57:4c:d1:89:3d:13:db:
         0b:80:5c:c7:7e:6d:8d:65:96:28:0f:ba:dc:ee:57:ec:71:30:
         9d:7a:d5:ff:80:db:fd:92:35:78:31:29:0a:c9:8e:3d:b3:31:
         ee:9a:89:20:15:4f:dd:42:41:94:7e:cf:c9:04:d7:c0:79:9c:
         a6:91:3d:f8:ed:51:01:aa:68:86:66:9f:af:4e:55:73:97:0b:
         76:84:fa:56:2b:c3:3e:ac:80:e8:b2:25:2a:41:4c:f5:c1:dd:
         ac:99:d7:54:0c:56:f5:09:f4:26:8f:a1:e2:92:52:50:89:21:
         58:c6:97:92:5a:1f:09:b6:9d:ca:24:01:c2:22:7b:ec:c2:ea:
         66:8a:e9:11:3e:0e:c5:11:d5:12:40:61:a4:e7:9b:20:b7:eb:
         22:a2:f8:3a:43:c7:19:88:af:57:6b:3d:74:20:cd:01:df:16:
         ec:e3:54:e2:6c:41:7c:0b:0c:90:5f:ec:43:8f:23:b5:fb:fe:
         14:56:7d:9c:fd:83:0b:02
-----BEGIN CERTIFICATE-----
MIIHSDCCBTCgAwIBAgICAIwwDQYJKoZIhvcNAQEFBQAwgbQxCzAJBgNVBAYTAlVT
MQswCQYDVQQIEwJDQTEVMBMGA1UEBxMMU2FuRnJhbmNpc2NvMRUwEwYDVQQKEwxQ
aXhnbG8sIEluYy4xEDAOBgNVBAsTB1ZQTi1DSUUxGjAYBgNVBAMTEXR1bm5lbC5w
aXhnbG8uY29tMRwwGgYDVQQpExNCYWxhIENoYW5kcmFzZWthcmFuMR4wHAYJKoZI
hvcNAQkBFg9iYWxhQHBpeGdsby5jb20wHhcNMTgwMjE0MDYyNjA5WhcNMjgwMjEy
MDYyNjA5WjCBqTELMAkGA1UEBhMCVVMxCzAJBgNVBAgTAkNBMRUwEwYDVQQHEwxT
YW5GcmFuY2lzY28xFTATBgNVBAoTDFBpeGdsbywgSW5jLjEQMA4GA1UECxMHVlBO
LUNJRTEPMA0GA1UEAxMGY2llMTM5MRwwGgYDVQQpExNCYWxhIENoYW5kcmFzZWth
cmFuMR4wHAYJKoZIhvcNAQkBFg9iYWxhQHBpeGdsby5jb20wggIiMA0GCSqGSIb3
DQEBAQUAA4ICDwAwggIKAoICAQDRuZrAVbtCmtN4aHKG7t9MtcUWLu2PYIRfY+rY
FWoi+JHG+HtWQOUoWoVZmxtHxLl+ONak5/BKxoYpttk2C1NWXTsFSNSUkRhRudw+
vgINNhhNHrXYI3r6IlF5KMuMTcbXEQdIw6yzLVKesrITCPU8Wc87tfubVuf53qzi
rruJDgq3th34oK0I83BuQTQGRUGkrj1OE2JKRR0Kb8w8T+9DHSMnOWRtFfNCvI0s
nGN0IA88Vzk2e52B7ghSiQXvwGF8Jg8ZKXOQQoMbkpVKJLOWW5NLRlzsjBtgA/jl
4nxmGYUhXd7jBpxeC1emPJUWm4o7aC5Z9aaSCAbdA68UovfrkUB8nLmwRtuX2BHR
CplQsYVGDO5uvxWQWC+6TZEW19pD65Ulc3I1mHNuksB1Ennz5CbmoXnCfsaaTi41
fl6+j7bfufnytfMbyACaTSZ3SzL4inxtf8hk66wWXAWGpUO2la80W50g0RwXD8ky
wnp6+0ahU3Gj1Itc64dEDlSqjn5a+DYCQO/+FUP5bEUaHGU4a9R+UUcdsARGGk36
RpnZfvdsCuizClJjbt5PaMArkMhClLG+1s7HXg7CkzyfRHcEya6K6FC5ZuAxT268
I0fW1Un8j6nmR+qwnD5lOwRzOOJCJKszDJv0LXvxAquo12hQW/+sgCrD4DgaAf+r
uEIaJwIDAQABo4IBazCCAWcwCQYDVR0TBAIwADAtBglghkgBhvhCAQ0EIBYeRWFz
eS1SU0EgR2VuZXJhdGVkIENlcnRpZmljYXRlMB0GA1UdDgQWBBRiTLJXeM0yfPKk
l8O9wOI8FONevjCB6QYDVR0jBIHhMIHegBTvOI0UUFinW02cF3L837msp1GwEKGB
uqSBtzCBtDELMAkGA1UEBhMCVVMxCzAJBgNVBAgTAkNBMRUwEwYDVQQHEwxTYW5G
cmFuY2lzY28xFTATBgNVBAoTDFBpeGdsbywgSW5jLjEQMA4GA1UECxMHVlBOLUNJ
RTEaMBgGA1UEAxMRdHVubmVsLnBpeGdsby5jb20xHDAaBgNVBCkTE0JhbGEgQ2hh
bmRyYXNla2FyYW4xHjAcBgkqhkiG9w0BCQEWD2JhbGFAcGl4Z2xvLmNvbYIJAKbb
xoOA5qB5MBMGA1UdJQQMMAoGCCsGAQUFBwMCMAsGA1UdDwQEAwIHgDANBgkqhkiG
9w0BAQUFAAOCAgEAZK5HOiLNVvNZPzmAxjWk+0x2kESham1FIktDn4u2wkxwcPi6
ANoD878hyVrRKAGiyiLILVtxM2gb9lWrYR+zcYOl4mnhIVmpE4HyYr4i76t/scln
tBkgRygVKsCDbKUpw7/PGVp2ChCMEUc5BRp7buDbCV/EImbT3xLN/b4vJIiwxc0F
L7aBBv62QoV4RUtkx7Ge6+/owQH3JebqIzupWdz1B7Dqyh2Yeo69Dgph8ZI78Tpr
N8/X5eielqcn2pVJfu8ofq2Eb/hvXnuk6TH9kenUnuUxVaJC9JDqP/sjIUhreMAI
0HfS3hiy8j7Dr/Hj51pvrkhoH7G5IjbNtrGi6X9ypAlFeJU6jXqXQ6r1msAkgu4t
k5lGL8h30v37gxAFE06/p8UvynhnX+H9E3gpyNWj3ffPpwokPXm495tXTNGJPRPb
C4Bcx35tjWWWKA+63O5X7HEwnXrV/4Db/ZI1eDEpCsmOPbMx7pqJIBVP3UJBlH7P
yQTXwHmcppE9+O1RAapohmafr05Vc5cLdoT6VivDPqyA6LIlKkFM9cHdrJnXVAxW
9Qn0Jo+h4pJSUIkhWMaXklofCbadyiQBwiJ77MLqZorpET4OxRHVEkBhpOebILfr
IqL4OkPHGYivV2s9dCDNAd8W7ONU4mxBfAsMkF/sQ48jtfv+FFZ9nP2DCwI=
-----END CERTIFICATE-----
