Certificate:
    Data:
        Version: 3 (0x2)
        Serial Number: 142 (0x8e)
    Signature Algorithm: sha1WithRSAEncryption
        Issuer: C=US, ST=CA, L=SanFrancisco, O=Pixglo, Inc., OU=VPN-CIE, CN=tunnel.pixglo.com/name=Bala Chandrasekaran/emailAddress=bala@pixglo.com
        Validity
            Not Before: Feb 14 06:26:10 2018 GMT
            Not After : Feb 12 06:26:10 2028 GMT
        Subject: C=US, ST=CA, L=SanFrancisco, O=Pixglo, Inc., OU=VPN-CIE, CN=cie141/name=Bala Chandrasekaran/emailAddress=bala@pixglo.com
        Subject Public Key Info:
            Public Key Algorithm: rsaEncryption
                Public-Key: (4096 bit)
                Modulus:
                    00:c1:e8:0c:e6:22:17:d0:b2:d7:8c:5a:c6:af:31:
                    03:b5:46:0e:b8:61:b4:29:c3:bc:52:32:62:68:c9:
                    5a:c6:8f:2d:0c:20:90:99:1b:c2:03:6e:0a:4b:a9:
                    f7:39:23:2d:6d:f1:6a:43:ba:8c:c3:1b:37:43:61:
                    da:88:a7:a0:d8:91:02:08:1c:b3:5f:a0:2f:f7:8e:
                    3b:3d:b6:ce:1c:1b:ab:9a:2e:ec:da:7d:17:90:ba:
                    06:d3:e9:a7:32:12:7e:e7:51:a2:e5:f0:cd:99:37:
                    18:42:66:b1:14:4d:f4:c0:71:83:f9:3b:cb:55:04:
                    53:8b:7d:48:86:a8:f5:73:57:e2:68:67:90:26:49:
                    9c:50:47:31:ae:f9:68:78:cf:59:e0:7f:9b:96:95:
                    8c:b4:c0:de:b4:e9:7f:07:fd:24:92:71:88:8a:85:
                    0d:9d:08:5a:a0:9e:9e:80:b3:9b:ac:72:7b:c9:17:
                    48:16:1f:94:c2:c4:8f:4f:93:b4:62:51:21:d1:66:
                    06:88:6b:57:fc:2b:14:07:71:bc:d4:48:b1:f5:ec:
                    f8:bb:57:e1:53:57:50:c3:0a:84:5a:9c:ab:f4:fd:
                    81:d5:35:81:40:44:1a:ce:e1:57:55:3c:2d:6c:82:
                    24:9e:9b:00:43:ee:0c:01:c4:0d:77:ec:3b:d9:4b:
                    39:1e:54:83:90:54:0f:6b:e6:f9:a7:8a:74:10:19:
                    35:aa:8f:d3:3b:f3:b6:92:b1:d6:68:5f:c2:26:a5:
                    77:2b:57:1d:4b:3e:5b:9b:77:8a:72:0d:d7:5e:d8:
                    a6:08:16:6b:8c:c5:28:4b:42:3e:0d:06:8f:a1:8f:
                    04:8e:a3:3d:5b:e1:ac:9e:2c:2a:af:02:b0:da:36:
                    40:3b:83:1b:29:20:18:90:53:ef:e3:e9:65:87:ed:
                    c0:98:46:b2:07:dd:7e:52:fe:2e:dd:8a:54:2b:02:
                    56:2d:80:db:e0:56:cf:ef:00:62:9d:cd:80:e9:44:
                    8e:08:28:34:16:29:64:ab:26:a9:5f:81:a9:d3:cd:
                    e6:39:19:95:06:d5:47:c8:7a:60:67:35:89:16:86:
                    8e:bd:5f:3f:54:89:4a:de:b8:d9:3a:c2:a8:07:74:
                    56:f3:36:64:6a:13:9e:f1:81:e0:8d:7e:9b:33:ed:
                    90:f8:07:87:63:f9:fd:f4:9b:b4:e5:7c:f5:1b:f3:
                    a8:c7:e0:df:32:72:bf:67:49:c3:51:f5:2c:a1:8c:
                    c7:23:ee:00:c8:c9:7e:63:22:06:45:f4:b8:e4:e1:
                    3d:1c:0d:01:93:50:ac:a5:cf:7a:a4:e1:45:7c:58:
                    25:7c:eb:12:96:67:bb:8d:9e:90:50:8a:d2:8b:23:
                    67:c4:97
                Exponent: 65537 (0x10001)
        X509v3 extensions:
            X509v3 Basic Constraints: 
                CA:FALSE
            Netscape Comment: 
                Easy-RSA Generated Certificate
            X509v3 Subject Key Identifier: 
                25:C9:63:89:61:B8:7A:B4:CE:8A:51:49:0C:2E:49:28:7E:FB:BF:A1
            X509v3 Authority Key Identifier: 
                keyid:EF:38:8D:14:50:58:A7:5B:4D:9C:17:72:FC:DF:B9:AC:A7:51:B0:10
                DirName:/C=US/ST=CA/L=SanFrancisco/O=Pixglo, Inc./OU=VPN-CIE/CN=tunnel.pixglo.com/name=Bala Chandrasekaran/emailAddress=bala@pixglo.com
                serial:A6:DB:C6:83:80:E6:A0:79

            X509v3 Extended Key Usage: 
                TLS Web Client Authentication
            X509v3 Key Usage: 
                Digital Signature
    Signature Algorithm: sha1WithRSAEncryption
         48:f8:f8:79:e4:d6:0d:ab:60:a6:5a:b5:df:9a:f4:47:3d:24:
         87:08:13:c7:93:d0:49:f2:f9:c9:fa:d9:99:d2:d9:19:1e:36:
         b0:50:28:87:b1:ce:ff:fc:5c:09:3f:86:94:10:d1:30:a3:aa:
         dd:51:e1:e8:f9:1d:69:86:a7:23:e9:0d:1d:d7:53:34:2c:be:
         43:9c:9e:64:10:f4:c1:f7:83:36:f9:5c:fe:20:e2:ff:dc:36:
         02:34:e9:8c:78:93:db:80:9d:4b:ce:a8:6b:24:a7:c2:49:a7:
         2d:e1:2f:71:11:85:9e:d0:e9:c4:fd:b7:be:68:af:19:17:ec:
         7d:64:6d:16:f1:4c:ea:e0:7a:16:32:8c:1e:ac:cc:70:3a:1e:
         dc:22:ec:b3:28:c1:5a:78:f0:b1:7f:6a:3c:57:4a:83:bb:2d:
         a3:30:bd:75:ed:f7:49:bb:a6:5c:e8:d0:11:6a:56:2f:cc:d1:
         07:70:34:a2:7f:c7:f9:37:da:ca:34:e6:2c:53:05:51:86:fa:
         42:0f:11:b2:cd:d0:95:3b:59:37:92:c3:f7:5d:26:ef:b9:dc:
         d9:23:be:28:87:fa:44:f2:cb:b5:7f:9b:49:bf:4c:96:32:c2:
         9c:97:39:ca:14:0b:05:92:9e:d5:78:86:14:f0:da:a0:ea:f4:
         40:ab:1d:57:16:43:b9:19:26:52:13:ca:b0:97:b4:45:17:b6:
         1f:a4:81:8d:c7:5a:4e:eb:3b:8e:58:aa:28:7c:e9:a0:82:c6:
         a6:11:bf:f2:d3:2c:c0:03:6a:f0:2e:41:ce:30:a9:cc:1e:82:
         36:a4:1f:fb:54:6f:ce:80:e9:73:40:46:21:68:5f:96:83:f4:
         3c:83:e7:29:2f:6f:bf:ea:f5:3b:14:6a:4e:55:12:98:08:23:
         e0:39:91:d1:1f:b0:ec:b2:39:b3:f8:e3:d9:f2:51:a8:45:9f:
         bb:d1:7f:91:8e:b4:02:8c:3d:64:a5:4b:f8:13:0d:8e:bf:16:
         c7:28:1c:df:45:f1:15:7a:97:0a:7c:31:37:e9:f8:df:01:79:
         d1:bc:92:65:dd:61:c8:75:b7:af:85:ab:84:f2:0b:ea:40:81:
         aa:11:99:06:6f:3c:3e:74:ec:8e:9a:ad:b9:d5:7c:13:fb:e6:
         de:cf:47:de:6c:c1:8c:af:10:aa:fe:fd:96:b2:e3:5e:9d:91:
         aa:18:82:f6:ee:dd:fc:c4:85:93:c4:4c:e8:96:54:cf:63:9a:
         62:d2:b0:4f:36:61:d8:26:15:5b:d8:de:ee:84:1a:47:55:09:
         86:6e:f4:8c:2d:2c:e7:41:52:e9:c6:78:25:d2:f9:6e:e2:7e:
         ba:e2:19:f4:b8:d6:71:a2
-----BEGIN CERTIFICATE-----
MIIHSDCCBTCgAwIBAgICAI4wDQYJKoZIhvcNAQEFBQAwgbQxCzAJBgNVBAYTAlVT
MQswCQYDVQQIEwJDQTEVMBMGA1UEBxMMU2FuRnJhbmNpc2NvMRUwEwYDVQQKEwxQ
aXhnbG8sIEluYy4xEDAOBgNVBAsTB1ZQTi1DSUUxGjAYBgNVBAMTEXR1bm5lbC5w
aXhnbG8uY29tMRwwGgYDVQQpExNCYWxhIENoYW5kcmFzZWthcmFuMR4wHAYJKoZI
hvcNAQkBFg9iYWxhQHBpeGdsby5jb20wHhcNMTgwMjE0MDYyNjEwWhcNMjgwMjEy
MDYyNjEwWjCBqTELMAkGA1UEBhMCVVMxCzAJBgNVBAgTAkNBMRUwEwYDVQQHEwxT
YW5GcmFuY2lzY28xFTATBgNVBAoTDFBpeGdsbywgSW5jLjEQMA4GA1UECxMHVlBO
LUNJRTEPMA0GA1UEAxMGY2llMTQxMRwwGgYDVQQpExNCYWxhIENoYW5kcmFzZWth
cmFuMR4wHAYJKoZIhvcNAQkBFg9iYWxhQHBpeGdsby5jb20wggIiMA0GCSqGSIb3
DQEBAQUAA4ICDwAwggIKAoICAQDB6AzmIhfQsteMWsavMQO1Rg64YbQpw7xSMmJo
yVrGjy0MIJCZG8IDbgpLqfc5Iy1t8WpDuozDGzdDYdqIp6DYkQIIHLNfoC/3jjs9
ts4cG6uaLuzafReQugbT6acyEn7nUaLl8M2ZNxhCZrEUTfTAcYP5O8tVBFOLfUiG
qPVzV+JoZ5AmSZxQRzGu+Wh4z1ngf5uWlYy0wN606X8H/SSScYiKhQ2dCFqgnp6A
s5uscnvJF0gWH5TCxI9Pk7RiUSHRZgaIa1f8KxQHcbzUSLH17Pi7V+FTV1DDCoRa
nKv0/YHVNYFARBrO4VdVPC1sgiSemwBD7gwBxA137DvZSzkeVIOQVA9r5vmninQQ
GTWqj9M787aSsdZoX8ImpXcrVx1LPlubd4pyDdde2KYIFmuMxShLQj4NBo+hjwSO
oz1b4ayeLCqvArDaNkA7gxspIBiQU+/j6WWH7cCYRrIH3X5S/i7dilQrAlYtgNvg
Vs/vAGKdzYDpRI4IKDQWKWSrJqlfganTzeY5GZUG1UfIemBnNYkWho69Xz9UiUre
uNk6wqgHdFbzNmRqE57xgeCNfpsz7ZD4B4dj+f30m7TlfPUb86jH4N8ycr9nScNR
9SyhjMcj7gDIyX5jIgZF9Ljk4T0cDQGTUKylz3qk4UV8WCV86xKWZ7uNnpBQitKL
I2fElwIDAQABo4IBazCCAWcwCQYDVR0TBAIwADAtBglghkgBhvhCAQ0EIBYeRWFz
eS1SU0EgR2VuZXJhdGVkIENlcnRpZmljYXRlMB0GA1UdDgQWBBQlyWOJYbh6tM6K
UUkMLkkofvu/oTCB6QYDVR0jBIHhMIHegBTvOI0UUFinW02cF3L837msp1GwEKGB
uqSBtzCBtDELMAkGA1UEBhMCVVMxCzAJBgNVBAgTAkNBMRUwEwYDVQQHEwxTYW5G
cmFuY2lzY28xFTATBgNVBAoTDFBpeGdsbywgSW5jLjEQMA4GA1UECxMHVlBOLUNJ
RTEaMBgGA1UEAxMRdHVubmVsLnBpeGdsby5jb20xHDAaBgNVBCkTE0JhbGEgQ2hh
bmRyYXNla2FyYW4xHjAcBgkqhkiG9w0BCQEWD2JhbGFAcGl4Z2xvLmNvbYIJAKbb
xoOA5qB5MBMGA1UdJQQMMAoGCCsGAQUFBwMCMAsGA1UdDwQEAwIHgDANBgkqhkiG
9w0BAQUFAAOCAgEASPj4eeTWDatgplq135r0Rz0khwgTx5PQSfL5yfrZmdLZGR42
sFAoh7HO//xcCT+GlBDRMKOq3VHh6PkdaYanI+kNHddTNCy+Q5yeZBD0wfeDNvlc
/iDi/9w2AjTpjHiT24CdS86oaySnwkmnLeEvcRGFntDpxP23vmivGRfsfWRtFvFM
6uB6FjKMHqzMcDoe3CLssyjBWnjwsX9qPFdKg7stozC9de33SbumXOjQEWpWL8zR
B3A0on/H+TfayjTmLFMFUYb6Qg8Rss3QlTtZN5LD910m77nc2SO+KIf6RPLLtX+b
Sb9MljLCnJc5yhQLBZKe1XiGFPDaoOr0QKsdVxZDuRkmUhPKsJe0RRe2H6SBjcda
Tus7jliqKHzpoILGphG/8tMswANq8C5BzjCpzB6CNqQf+1RvzoDpc0BGIWhfloP0
PIPnKS9vv+r1OxRqTlUSmAgj4DmR0R+w7LI5s/jj2fJRqEWfu9F/kY60Aow9ZKVL
+BMNjr8Wxygc30XxFXqXCnwxN+n43wF50bySZd1hyHW3r4WrhPIL6kCBqhGZBm88
PnTsjpqtudV8E/vm3s9H3mzBjK8Qqv79lrLjXp2RqhiC9u7d/MSFk8RM6JZUz2Oa
YtKwTzZh2CYVW9je7oQaR1UJhm70jC0s50FS6cZ4JdL5buJ+uuIZ9LjWcaI=
-----END CERTIFICATE-----
