Certificate:
    Data:
        Version: 3 (0x2)
        Serial Number: 143 (0x8f)
    Signature Algorithm: sha1WithRSAEncryption
        Issuer: C=US, ST=CA, L=SanFrancisco, O=Pixglo, Inc., OU=VPN-CIE, CN=tunnel.pixglo.com/name=Bala Chandrasekaran/emailAddress=bala@pixglo.com
        Validity
            Not Before: Feb 14 06:26:12 2018 GMT
            Not After : Feb 12 06:26:12 2028 GMT
        Subject: C=US, ST=CA, L=SanFrancisco, O=Pixglo, Inc., OU=VPN-CIE, CN=cie142/name=Bala Chandrasekaran/emailAddress=bala@pixglo.com
        Subject Public Key Info:
            Public Key Algorithm: rsaEncryption
                Public-Key: (4096 bit)
                Modulus:
                    00:db:6b:a9:15:e1:66:ff:65:a8:35:96:b8:32:65:
                    03:94:0a:74:b0:3b:53:da:6b:b1:ab:69:b7:63:45:
                    f2:58:e5:21:a2:92:6c:5c:15:62:75:40:66:11:1f:
                    f7:b6:ab:89:6e:2e:6d:75:ec:e3:e6:51:74:2e:6d:
                    26:97:29:1b:f5:15:9e:2a:6e:41:e9:78:a0:74:4c:
                    98:52:45:8f:e9:03:fe:31:77:e9:76:48:f2:6f:8e:
                    a0:a3:6f:1d:08:40:29:8e:ce:b4:4b:b9:bd:18:ba:
                    b4:60:0a:9c:ce:07:d0:26:f1:62:81:92:7f:2a:d5:
                    bb:3d:62:ee:93:ab:4e:84:da:f9:11:e6:af:ef:de:
                    37:17:51:e1:c5:c1:c1:10:d9:b6:30:f2:24:f4:84:
                    11:76:ea:e2:a6:33:89:75:da:1c:b6:46:42:08:4a:
                    c4:03:a8:30:7e:60:60:0c:fd:d8:5d:8f:86:de:a6:
                    41:fb:58:8a:77:53:a3:da:50:cb:33:28:c8:2e:d1:
                    90:b0:3c:45:e6:b0:8e:a7:96:a1:8e:a3:ad:8c:2b:
                    06:22:42:c5:eb:e7:e1:35:b0:8a:19:a1:c8:39:42:
                    06:10:e7:03:e6:f9:b8:2c:09:82:f8:d2:f3:a2:b5:
                    a3:b5:a4:80:6d:fe:d6:5b:70:ca:99:9e:94:76:0f:
                    ec:ac:b5:81:bc:26:a1:9f:91:e5:d1:f2:a6:58:7d:
                    63:e0:e4:c4:4d:d7:71:e2:23:c2:cf:9d:46:32:46:
                    20:cf:f8:bd:9a:be:cf:fc:73:00:cd:c6:ea:c6:ab:
                    79:b0:34:3d:cc:d0:3a:13:67:91:f2:9f:2e:b3:a5:
                    23:af:32:14:c3:1a:03:88:34:d5:01:b7:d2:2b:51:
                    26:37:1e:b3:25:87:22:bc:27:ce:be:84:3e:62:63:
                    00:fe:23:32:52:9b:51:c7:93:bb:cc:b6:36:40:14:
                    f1:81:44:ee:94:df:6f:26:16:c3:27:5e:b5:0b:3d:
                    4b:44:35:83:b9:c1:dd:a8:10:78:f6:15:f0:c4:e6:
                    0f:5b:50:a0:b2:4b:81:6a:2e:55:bc:0e:ef:09:dd:
                    f0:85:b0:ea:df:2f:0e:66:89:0d:8a:11:12:a8:99:
                    86:9d:36:24:5b:55:db:ae:1b:b5:a1:3a:e7:95:32:
                    49:8d:4a:65:8a:3a:75:10:b5:8b:2b:fd:fb:18:b3:
                    e6:52:a1:73:42:a0:dd:a4:a9:d1:1b:82:24:b5:41:
                    f9:71:27:74:be:1f:5d:f8:87:7a:ce:ef:19:fa:68:
                    d5:f5:44:71:f1:9c:e0:93:80:c0:19:b5:75:82:9e:
                    e6:d2:a0:a2:3c:08:45:58:0a:02:fc:50:56:71:7d:
                    8d:5a:a5
                Exponent: 65537 (0x10001)
        X509v3 extensions:
            X509v3 Basic Constraints: 
                CA:FALSE
            Netscape Comment: 
                Easy-RSA Generated Certificate
            X509v3 Subject Key Identifier: 
                56:2E:B0:47:C8:05:0D:D6:63:54:9A:D8:30:9F:BD:02:1B:6E:3B:18
            X509v3 Authority Key Identifier: 
                keyid:EF:38:8D:14:50:58:A7:5B:4D:9C:17:72:FC:DF:B9:AC:A7:51:B0:10
                DirName:/C=US/ST=CA/L=SanFrancisco/O=Pixglo, Inc./OU=VPN-CIE/CN=tunnel.pixglo.com/name=Bala Chandrasekaran/emailAddress=bala@pixglo.com
                serial:A6:DB:C6:83:80:E6:A0:79

            X509v3 Extended Key Usage: 
                TLS Web Client Authentication
            X509v3 Key Usage: 
                Digital Signature
    Signature Algorithm: sha1WithRSAEncryption
         67:3d:8c:df:9b:a4:cb:06:dd:54:1b:2a:5f:1d:0e:7d:22:d6:
         6d:7f:89:b2:fa:e1:0e:6f:af:a7:cd:9d:9b:7c:a8:ee:a9:3a:
         41:19:d0:12:e8:f2:d5:8f:89:c7:8b:b9:80:52:23:96:a5:bc:
         bf:3e:14:c0:ea:db:50:2f:b4:69:41:28:71:85:c6:fc:e8:b3:
         cb:95:51:90:1d:26:71:2f:e4:e7:12:60:5f:5d:ee:28:5b:05:
         44:71:5c:a3:50:d1:e4:da:c9:43:b3:2e:05:4c:a5:50:c8:90:
         c9:8e:8f:48:b4:49:40:e3:87:c7:af:43:df:6a:5e:78:42:b1:
         18:44:bc:34:e1:68:be:3f:c1:e8:8d:b4:a2:1a:d3:22:6c:fa:
         4b:e8:e1:e0:09:23:12:68:dc:c5:90:6a:f7:8d:9f:0f:4f:72:
         8e:55:f0:3e:8e:cd:21:4d:8c:3e:a2:14:a7:f5:75:8a:b7:df:
         dd:0b:61:aa:0b:3e:09:4e:14:16:06:50:42:0b:7c:a3:2e:72:
         28:03:90:58:a9:1e:3c:af:94:31:12:ea:05:1f:8d:45:3d:b6:
         ce:5b:cc:0c:65:34:00:c3:55:ab:76:98:f6:2f:5f:b7:2d:20:
         ef:f8:76:8c:fc:5d:6d:bb:d9:08:5b:93:33:f7:a2:d7:bb:b0:
         16:47:ce:01:a4:c6:c8:2b:29:f5:bc:9e:0b:59:22:c2:0b:c4:
         b4:47:3a:3f:53:42:b0:ea:0f:dc:ba:6c:92:99:f0:41:cc:51:
         0e:19:c7:2a:32:51:3a:8f:a1:b4:d6:7b:65:7f:19:cd:2f:bf:
         85:08:0d:19:ab:16:88:e1:a9:8c:5e:14:10:40:15:59:14:95:
         36:0a:06:77:61:9a:6e:f9:96:bb:fc:6e:39:4c:4e:3f:e4:f4:
         d8:da:44:3d:83:97:06:08:2e:a4:6e:8b:b2:47:92:6d:db:93:
         7f:d3:de:32:29:ec:6d:3a:e1:31:76:04:6d:97:cb:61:a4:5e:
         6e:26:a5:77:c2:ec:60:ef:d6:7f:02:50:be:c0:30:dc:af:1d:
         11:89:08:f2:07:d0:8a:72:55:e8:be:87:f6:49:2f:38:2b:9d:
         93:f9:f2:98:78:82:cb:5f:34:13:b9:0f:29:e6:60:9f:25:ed:
         70:0e:77:05:c0:a6:eb:97:83:53:9a:aa:de:06:65:73:12:13:
         1d:2d:a6:27:0b:13:d9:63:8e:c9:78:a1:e3:96:4a:25:60:81:
         fa:cb:57:1f:73:91:e9:a5:e7:0e:5c:84:9e:1b:29:14:fd:0a:
         8f:ea:d3:6c:4c:f5:fb:6d:6f:f7:1e:05:29:36:65:94:4a:fe:
         56:c0:74:62:5f:5b:17:4c
-----BEGIN CERTIFICATE-----
MIIHSDCCBTCgAwIBAgICAI8wDQYJKoZIhvcNAQEFBQAwgbQxCzAJBgNVBAYTAlVT
MQswCQYDVQQIEwJDQTEVMBMGA1UEBxMMU2FuRnJhbmNpc2NvMRUwEwYDVQQKEwxQ
aXhnbG8sIEluYy4xEDAOBgNVBAsTB1ZQTi1DSUUxGjAYBgNVBAMTEXR1bm5lbC5w
aXhnbG8uY29tMRwwGgYDVQQpExNCYWxhIENoYW5kcmFzZWthcmFuMR4wHAYJKoZI
hvcNAQkBFg9iYWxhQHBpeGdsby5jb20wHhcNMTgwMjE0MDYyNjEyWhcNMjgwMjEy
MDYyNjEyWjCBqTELMAkGA1UEBhMCVVMxCzAJBgNVBAgTAkNBMRUwEwYDVQQHEwxT
YW5GcmFuY2lzY28xFTATBgNVBAoTDFBpeGdsbywgSW5jLjEQMA4GA1UECxMHVlBO
LUNJRTEPMA0GA1UEAxMGY2llMTQyMRwwGgYDVQQpExNCYWxhIENoYW5kcmFzZWth
cmFuMR4wHAYJKoZIhvcNAQkBFg9iYWxhQHBpeGdsby5jb20wggIiMA0GCSqGSIb3
DQEBAQUAA4ICDwAwggIKAoICAQDba6kV4Wb/Zag1lrgyZQOUCnSwO1Paa7Grabdj
RfJY5SGikmxcFWJ1QGYRH/e2q4luLm117OPmUXQubSaXKRv1FZ4qbkHpeKB0TJhS
RY/pA/4xd+l2SPJvjqCjbx0IQCmOzrRLub0YurRgCpzOB9Am8WKBkn8q1bs9Yu6T
q06E2vkR5q/v3jcXUeHFwcEQ2bYw8iT0hBF26uKmM4l12hy2RkIISsQDqDB+YGAM
/dhdj4bepkH7WIp3U6PaUMszKMgu0ZCwPEXmsI6nlqGOo62MKwYiQsXr5+E1sIoZ
ocg5QgYQ5wPm+bgsCYL40vOitaO1pIBt/tZbcMqZnpR2D+ystYG8JqGfkeXR8qZY
fWPg5MRN13HiI8LPnUYyRiDP+L2avs/8cwDNxurGq3mwND3M0DoTZ5Hyny6zpSOv
MhTDGgOINNUBt9IrUSY3HrMlhyK8J86+hD5iYwD+IzJSm1HHk7vMtjZAFPGBRO6U
328mFsMnXrULPUtENYO5wd2oEHj2FfDE5g9bUKCyS4FqLlW8Du8J3fCFsOrfLw5m
iQ2KERKomYadNiRbVduuG7WhOueVMkmNSmWKOnUQtYsr/fsYs+ZSoXNCoN2kqdEb
giS1QflxJ3S+H134h3rO7xn6aNX1RHHxnOCTgMAZtXWCnubSoKI8CEVYCgL8UFZx
fY1apQIDAQABo4IBazCCAWcwCQYDVR0TBAIwADAtBglghkgBhvhCAQ0EIBYeRWFz
eS1SU0EgR2VuZXJhdGVkIENlcnRpZmljYXRlMB0GA1UdDgQWBBRWLrBHyAUN1mNU
mtgwn70CG247GDCB6QYDVR0jBIHhMIHegBTvOI0UUFinW02cF3L837msp1GwEKGB
uqSBtzCBtDELMAkGA1UEBhMCVVMxCzAJBgNVBAgTAkNBMRUwEwYDVQQHEwxTYW5G
cmFuY2lzY28xFTATBgNVBAoTDFBpeGdsbywgSW5jLjEQMA4GA1UECxMHVlBOLUNJ
RTEaMBgGA1UEAxMRdHVubmVsLnBpeGdsby5jb20xHDAaBgNVBCkTE0JhbGEgQ2hh
bmRyYXNla2FyYW4xHjAcBgkqhkiG9w0BCQEWD2JhbGFAcGl4Z2xvLmNvbYIJAKbb
xoOA5qB5MBMGA1UdJQQMMAoGCCsGAQUFBwMCMAsGA1UdDwQEAwIHgDANBgkqhkiG
9w0BAQUFAAOCAgEAZz2M35ukywbdVBsqXx0OfSLWbX+JsvrhDm+vp82dm3yo7qk6
QRnQEujy1Y+Jx4u5gFIjlqW8vz4UwOrbUC+0aUEocYXG/Oizy5VRkB0mcS/k5xJg
X13uKFsFRHFco1DR5NrJQ7MuBUylUMiQyY6PSLRJQOOHx69D32peeEKxGES8NOFo
vj/B6I20ohrTImz6S+jh4AkjEmjcxZBq942fD09yjlXwPo7NIU2MPqIUp/V1irff
3Qthqgs+CU4UFgZQQgt8oy5yKAOQWKkePK+UMRLqBR+NRT22zlvMDGU0AMNVq3aY
9i9fty0g7/h2jPxdbbvZCFuTM/ei17uwFkfOAaTGyCsp9byeC1kiwgvEtEc6P1NC
sOoP3LpskpnwQcxRDhnHKjJROo+htNZ7ZX8ZzS+/hQgNGasWiOGpjF4UEEAVWRSV
NgoGd2GabvmWu/xuOUxOP+T02NpEPYOXBggupG6LskeSbduTf9PeMinsbTrhMXYE
bZfLYaRebiald8LsYO/WfwJQvsAw3K8dEYkI8gfQinJV6L6H9kkvOCudk/nymHiC
y180E7kPKeZgnyXtcA53BcCm65eDU5qq3gZlcxITHS2mJwsT2WOOyXih45ZKJWCB
+stXH3OR6aXnDlyEnhspFP0Kj+rTbEz1+21v9x4FKTZllEr+VsB0Yl9bF0w=
-----END CERTIFICATE-----
