Certificate:
    Data:
        Version: 3 (0x2)
        Serial Number: 144 (0x90)
    Signature Algorithm: sha1WithRSAEncryption
        Issuer: C=US, ST=CA, L=SanFrancisco, O=Pixglo, Inc., OU=VPN-CIE, CN=tunnel.pixglo.com/name=Bala Chandrasekaran/emailAddress=bala@pixglo.com
        Validity
            Not Before: Feb 14 06:26:12 2018 GMT
            Not After : Feb 12 06:26:12 2028 GMT
        Subject: C=US, ST=CA, L=SanFrancisco, O=Pixglo, Inc., OU=VPN-CIE, CN=cie143/name=Bala Chandrasekaran/emailAddress=bala@pixglo.com
        Subject Public Key Info:
            Public Key Algorithm: rsaEncryption
                Public-Key: (4096 bit)
                Modulus:
                    00:cc:00:b6:f3:ae:57:6a:40:3d:26:98:d6:b4:7d:
                    fc:ff:2e:8f:8b:a7:d1:4c:39:58:9f:5a:da:06:64:
                    70:79:39:93:90:d7:b2:7b:d3:ca:2f:0c:da:3b:52:
                    76:b8:1b:8d:ac:4d:37:52:62:79:a3:a5:3d:b0:8b:
                    b1:4c:3a:8b:44:49:c8:6c:f1:e7:a2:0d:9c:bb:2f:
                    65:ca:65:e6:68:85:22:23:87:80:b1:73:16:f1:2c:
                    2e:10:66:ff:90:8e:d4:c9:ef:80:44:a8:ab:d5:9d:
                    3f:5c:bc:91:57:9d:95:a3:ef:ea:95:50:8d:54:77:
                    3b:08:b4:1e:87:c0:56:80:a3:69:bc:7d:83:23:69:
                    ce:d6:c6:f8:3a:38:0c:a8:6e:c5:97:41:cb:d4:51:
                    97:95:7d:1f:6e:15:1d:65:c2:85:2b:7a:1e:07:d6:
                    ad:ad:2c:03:27:67:4f:fb:95:78:fc:2a:26:85:fd:
                    6f:22:2d:76:1e:61:dc:ca:c8:8a:4d:fa:f7:d1:15:
                    89:13:52:b3:f7:22:68:1e:27:c4:e4:8d:79:53:e9:
                    b7:0b:ed:c7:bf:78:96:96:c7:c2:96:66:56:b0:5e:
                    c6:60:fe:7e:f8:8e:d1:41:6c:f8:dc:1d:3c:05:9d:
                    a6:28:b2:10:4e:c7:27:a7:70:63:6e:7b:29:7c:51:
                    7c:9e:b4:12:2d:f2:93:6e:72:9f:77:7a:6b:a0:5a:
                    08:ee:ea:d5:6f:df:f6:be:4d:45:5f:a7:bf:1a:81:
                    f8:c7:3e:34:57:04:59:10:c1:62:f5:e5:d9:21:eb:
                    b5:ad:ab:d2:c1:5a:85:cf:a0:44:c6:95:39:5e:be:
                    dc:c9:c1:1b:5a:02:b1:14:af:60:85:e2:ce:2f:db:
                    fa:b6:65:14:4c:0c:31:3d:f5:f8:b7:97:9c:db:4e:
                    32:53:8e:84:c8:cf:e6:10:7f:4d:32:5f:9c:45:95:
                    5c:ca:11:58:a7:b5:9a:4c:77:1e:3a:80:82:b4:47:
                    df:44:56:78:bc:bf:0a:f6:f5:a6:bb:9d:c2:f3:de:
                    b4:b7:ae:d4:c4:46:0e:8d:36:1a:6e:0f:b7:6e:52:
                    6e:39:60:6e:11:df:99:bf:51:c5:47:1c:30:4e:40:
                    79:25:10:90:7d:4e:a2:82:b4:1a:62:d0:02:05:10:
                    9d:e5:25:df:b6:85:61:f2:db:4b:a3:91:26:ba:f3:
                    7c:0b:45:68:3f:23:67:91:00:cb:a1:37:8b:0d:6a:
                    61:87:a4:5e:82:b4:77:f7:f7:22:40:b4:03:23:28:
                    6a:cd:5d:89:a4:d0:e5:ba:eb:78:63:70:c0:4c:21:
                    54:2c:8b:4b:2e:72:d3:f8:93:f5:b6:f3:da:18:98:
                    cd:0a:0d
                Exponent: 65537 (0x10001)
        X509v3 extensions:
            X509v3 Basic Constraints: 
                CA:FALSE
            Netscape Comment: 
                Easy-RSA Generated Certificate
            X509v3 Subject Key Identifier: 
                97:B6:8D:A1:D7:F9:5C:2E:83:57:5A:53:B7:5E:20:B9:BC:2F:CE:81
            X509v3 Authority Key Identifier: 
                keyid:EF:38:8D:14:50:58:A7:5B:4D:9C:17:72:FC:DF:B9:AC:A7:51:B0:10
                DirName:/C=US/ST=CA/L=SanFrancisco/O=Pixglo, Inc./OU=VPN-CIE/CN=tunnel.pixglo.com/name=Bala Chandrasekaran/emailAddress=bala@pixglo.com
                serial:A6:DB:C6:83:80:E6:A0:79

            X509v3 Extended Key Usage: 
                TLS Web Client Authentication
            X509v3 Key Usage: 
                Digital Signature
    Signature Algorithm: sha1WithRSAEncryption
         5d:c1:6b:86:e9:50:8f:48:ff:4e:9b:27:51:0b:b2:75:a4:ae:
         4d:dd:2f:c7:b6:0e:64:c8:22:7a:5e:69:b8:f5:a0:17:e9:53:
         f5:d8:89:ad:e4:35:c1:35:bf:5d:15:c2:2a:92:cf:5a:02:b8:
         2f:cd:5f:1f:ec:f5:f6:5c:cc:d7:79:90:b7:b9:30:45:a4:ed:
         5c:9e:a7:e8:70:d5:bc:9a:7b:c0:21:bd:af:53:34:1e:60:66:
         f7:01:6f:9f:61:c8:70:4e:ea:a5:a3:73:ab:bd:c9:1c:7b:39:
         59:d8:d5:e6:e8:f7:e8:29:84:e0:70:34:38:f4:f6:c8:f4:e9:
         bb:d8:67:88:bc:dd:7b:94:e2:c1:bb:f1:02:68:96:54:0b:61:
         aa:b2:57:f7:54:cd:04:d3:46:47:5b:41:94:0d:e2:bc:10:8e:
         cc:6f:92:f9:9a:b6:7e:5f:c9:46:11:9f:33:c7:7f:1a:9c:7d:
         7a:ba:9b:a9:e9:e7:12:0c:53:0f:b5:ad:c9:38:0f:72:f0:be:
         f8:01:6e:fe:d8:c9:ce:1a:c7:6d:18:39:40:e9:22:45:d2:40:
         9d:96:08:0d:13:62:43:dd:eb:b6:ad:8c:c6:33:7d:0d:45:23:
         ce:b1:e0:e3:4e:30:d8:e0:a1:b8:26:8a:73:6b:e3:48:e9:71:
         4d:d1:84:d2:fe:86:9b:c7:57:10:e0:b4:b0:97:80:7e:8f:1d:
         3a:a3:ed:4d:96:ad:53:bf:78:33:70:c8:03:9b:b2:9c:d3:3f:
         34:b7:a6:a1:0f:05:a5:39:4f:63:3a:db:d4:77:5c:61:1c:31:
         2a:3e:01:3e:45:c9:ae:dd:6b:1a:59:a5:94:3f:6c:cb:d8:28:
         e9:f6:27:81:80:72:ac:af:5e:fc:6f:8b:10:a4:9d:ae:1e:13:
         bd:f2:dc:61:fe:96:f9:bf:63:2e:74:1b:d6:35:5e:92:0a:c6:
         0b:90:0a:8b:5e:da:4b:5d:46:34:0c:7b:9b:29:d2:83:52:24:
         7c:e2:d9:1a:35:04:34:28:94:34:ec:1b:7c:5e:94:05:ea:f0:
         4c:4a:68:b9:6a:ac:2e:16:1f:af:c5:dc:05:1f:36:74:48:b6:
         c5:b2:97:25:e0:9d:f8:cd:9e:00:56:a2:a7:17:4a:91:bf:a9:
         0c:98:1c:2d:eb:6e:c7:4e:09:67:07:b8:e6:4d:25:41:b4:8c:
         85:e6:e3:0a:79:e6:80:c8:aa:01:3e:17:3f:a9:2e:a8:f5:61:
         5a:6d:a2:72:f9:08:e8:ea:37:f3:0a:57:0c:b9:0d:4d:f2:97:
         cf:8b:8a:48:89:e1:dd:e1:5f:d9:65:f0:02:82:49:83:f0:dc:
         e5:a5:cd:6b:20:ca:f9:a9
-----BEGIN CERTIFICATE-----
MIIHSDCCBTCgAwIBAgICAJAwDQYJKoZIhvcNAQEFBQAwgbQxCzAJBgNVBAYTAlVT
MQswCQYDVQQIEwJDQTEVMBMGA1UEBxMMU2FuRnJhbmNpc2NvMRUwEwYDVQQKEwxQ
aXhnbG8sIEluYy4xEDAOBgNVBAsTB1ZQTi1DSUUxGjAYBgNVBAMTEXR1bm5lbC5w
aXhnbG8uY29tMRwwGgYDVQQpExNCYWxhIENoYW5kcmFzZWthcmFuMR4wHAYJKoZI
hvcNAQkBFg9iYWxhQHBpeGdsby5jb20wHhcNMTgwMjE0MDYyNjEyWhcNMjgwMjEy
MDYyNjEyWjCBqTELMAkGA1UEBhMCVVMxCzAJBgNVBAgTAkNBMRUwEwYDVQQHEwxT
YW5GcmFuY2lzY28xFTATBgNVBAoTDFBpeGdsbywgSW5jLjEQMA4GA1UECxMHVlBO
LUNJRTEPMA0GA1UEAxMGY2llMTQzMRwwGgYDVQQpExNCYWxhIENoYW5kcmFzZWth
cmFuMR4wHAYJKoZIhvcNAQkBFg9iYWxhQHBpeGdsby5jb20wggIiMA0GCSqGSIb3
DQEBAQUAA4ICDwAwggIKAoICAQDMALbzrldqQD0mmNa0ffz/Lo+Lp9FMOVifWtoG
ZHB5OZOQ17J708ovDNo7Una4G42sTTdSYnmjpT2wi7FMOotESchs8eeiDZy7L2XK
ZeZohSIjh4CxcxbxLC4QZv+QjtTJ74BEqKvVnT9cvJFXnZWj7+qVUI1UdzsItB6H
wFaAo2m8fYMjac7Wxvg6OAyobsWXQcvUUZeVfR9uFR1lwoUreh4H1q2tLAMnZ0/7
lXj8KiaF/W8iLXYeYdzKyIpN+vfRFYkTUrP3ImgeJ8TkjXlT6bcL7ce/eJaWx8KW
ZlawXsZg/n74jtFBbPjcHTwFnaYoshBOxyencGNueyl8UXyetBIt8pNucp93emug
Wgju6tVv3/a+TUVfp78agfjHPjRXBFkQwWL15dkh67Wtq9LBWoXPoETGlTlevtzJ
wRtaArEUr2CF4s4v2/q2ZRRMDDE99fi3l5zbTjJTjoTIz+YQf00yX5xFlVzKEVin
tZpMdx46gIK0R99EVni8vwr29aa7ncLz3rS3rtTERg6NNhpuD7duUm45YG4R35m/
UcVHHDBOQHklEJB9TqKCtBpi0AIFEJ3lJd+2hWHy20ujkSa683wLRWg/I2eRAMuh
N4sNamGHpF6CtHf39yJAtAMjKGrNXYmk0OW663hjcMBMIVQsi0suctP4k/W289oY
mM0KDQIDAQABo4IBazCCAWcwCQYDVR0TBAIwADAtBglghkgBhvhCAQ0EIBYeRWFz
eS1SU0EgR2VuZXJhdGVkIENlcnRpZmljYXRlMB0GA1UdDgQWBBSXto2h1/lcLoNX
WlO3XiC5vC/OgTCB6QYDVR0jBIHhMIHegBTvOI0UUFinW02cF3L837msp1GwEKGB
uqSBtzCBtDELMAkGA1UEBhMCVVMxCzAJBgNVBAgTAkNBMRUwEwYDVQQHEwxTYW5G
cmFuY2lzY28xFTATBgNVBAoTDFBpeGdsbywgSW5jLjEQMA4GA1UECxMHVlBOLUNJ
RTEaMBgGA1UEAxMRdHVubmVsLnBpeGdsby5jb20xHDAaBgNVBCkTE0JhbGEgQ2hh
bmRyYXNla2FyYW4xHjAcBgkqhkiG9w0BCQEWD2JhbGFAcGl4Z2xvLmNvbYIJAKbb
xoOA5qB5MBMGA1UdJQQMMAoGCCsGAQUFBwMCMAsGA1UdDwQEAwIHgDANBgkqhkiG
9w0BAQUFAAOCAgEAXcFrhulQj0j/TpsnUQuydaSuTd0vx7YOZMgiel5puPWgF+lT
9diJreQ1wTW/XRXCKpLPWgK4L81fH+z19lzM13mQt7kwRaTtXJ6n6HDVvJp7wCG9
r1M0HmBm9wFvn2HIcE7qpaNzq73JHHs5WdjV5uj36CmE4HA0OPT2yPTpu9hniLzd
e5TiwbvxAmiWVAthqrJX91TNBNNGR1tBlA3ivBCOzG+S+Zq2fl/JRhGfM8d/Gpx9
erqbqennEgxTD7WtyTgPcvC++AFu/tjJzhrHbRg5QOkiRdJAnZYIDRNiQ93rtq2M
xjN9DUUjzrHg404w2OChuCaKc2vjSOlxTdGE0v6Gm8dXEOC0sJeAfo8dOqPtTZat
U794M3DIA5uynNM/NLemoQ8FpTlPYzrb1HdcYRwxKj4BPkXJrt1rGlmllD9sy9go
6fYngYByrK9e/G+LEKSdrh4TvfLcYf6W+b9jLnQb1jVekgrGC5AKi17aS11GNAx7
mynSg1IkfOLZGjUENCiUNOwbfF6UBerwTEpouWqsLhYfr8XcBR82dEi2xbKXJeCd
+M2eAFaipxdKkb+pDJgcLetux04JZwe45k0lQbSMhebjCnnmgMiqAT4XP6kuqPVh
Wm2icvkI6Oo38wpXDLkNTfKXz4uKSInh3eFf2WXwAoJJg/Dc5aXNayDK+ak=
-----END CERTIFICATE-----
