Certificate:
    Data:
        Version: 3 (0x2)
        Serial Number: 147 (0x93)
    Signature Algorithm: sha1WithRSAEncryption
        Issuer: C=US, ST=CA, L=SanFrancisco, O=Pixglo, Inc., OU=VPN-CIE, CN=tunnel.pixglo.com/name=Bala Chandrasekaran/emailAddress=bala@pixglo.com
        Validity
            Not Before: Feb 14 06:26:14 2018 GMT
            Not After : Feb 12 06:26:14 2028 GMT
        Subject: C=US, ST=CA, L=SanFrancisco, O=Pixglo, Inc., OU=VPN-CIE, CN=cie146/name=Bala Chandrasekaran/emailAddress=bala@pixglo.com
        Subject Public Key Info:
            Public Key Algorithm: rsaEncryption
                Public-Key: (4096 bit)
                Modulus:
                    00:c0:02:c2:2a:2e:d7:95:67:29:e7:1a:b6:b5:b3:
                    1f:97:54:56:d8:cb:95:77:3c:8c:47:48:af:68:1f:
                    35:73:08:7e:ad:d6:e5:a5:1c:19:4b:7a:bd:b8:ea:
                    df:1a:39:32:5e:61:92:32:7b:31:c3:67:66:01:f1:
                    d0:da:0a:4a:41:b3:8b:b1:e7:90:27:36:b5:0c:a6:
                    ea:10:77:1e:30:63:ce:e4:38:ec:40:12:a6:0d:b1:
                    10:3b:f9:3f:f4:15:19:97:17:b7:5e:0e:dc:f9:e0:
                    99:44:20:de:02:28:97:b2:d6:c7:6a:9d:87:dc:30:
                    e0:d3:eb:da:ca:b4:8b:aa:f7:61:11:a1:67:01:20:
                    6f:76:2c:7c:04:24:7f:66:55:1f:2c:9c:be:9c:5d:
                    9e:2d:d8:ec:f7:0d:dd:95:33:b5:aa:bb:2d:16:cc:
                    55:75:ae:9e:e7:02:e5:e4:3d:a4:1e:7a:1c:ca:8e:
                    69:80:ae:62:ae:3c:f7:65:0e:6b:83:72:d2:fb:bd:
                    c9:ba:e7:74:0a:f6:bf:ab:0a:1d:4b:d5:0c:a2:29:
                    c3:09:6c:9d:6c:b3:61:04:0d:f4:9a:5e:e3:f7:46:
                    5a:a4:84:14:4e:54:ba:67:24:c5:77:7e:01:fb:c9:
                    d4:44:49:30:51:43:b7:80:e2:5d:91:a0:29:32:f7:
                    6c:c6:b9:32:79:49:b3:05:9c:85:6f:cf:82:b8:61:
                    02:ac:72:12:ce:70:fb:b1:5c:b3:0a:22:83:50:bc:
                    ad:f8:27:13:20:d1:79:6a:01:76:e1:0f:b2:64:81:
                    bc:4c:f5:a7:36:47:67:f7:cd:d1:8b:46:40:09:1b:
                    0e:d8:09:ff:27:4b:7e:e2:7a:98:77:fc:42:8e:85:
                    d0:79:41:77:5c:09:50:5f:0f:02:ff:91:dd:87:34:
                    43:61:f5:66:17:29:44:35:d2:a0:d9:16:14:51:14:
                    18:84:52:12:66:c1:db:25:9d:2f:29:b6:50:9a:97:
                    32:a1:d3:a2:30:b1:82:42:b2:08:6f:1a:57:27:50:
                    dc:e8:87:cd:d5:3c:90:40:b7:82:ba:e5:e4:fe:ee:
                    5b:2c:3a:79:87:50:c3:b5:b4:c7:51:91:bb:9a:3a:
                    ee:31:57:76:48:33:ad:8f:72:fb:6a:05:d5:20:d1:
                    d4:43:d1:40:8d:fe:80:29:bd:d5:49:ed:e8:36:3e:
                    67:2d:93:8a:9f:4a:8d:b3:09:1d:c3:f7:a4:e0:f0:
                    42:a4:5b:4f:4b:18:3f:7a:1e:51:52:eb:1e:c4:79:
                    25:a3:c7:5e:87:1d:17:bd:dc:f9:fc:ff:40:52:2f:
                    de:65:5b:27:5a:dc:fe:6b:59:ff:ab:1b:06:28:82:
                    9e:fb:cb
                Exponent: 65537 (0x10001)
        X509v3 extensions:
            X509v3 Basic Constraints: 
                CA:FALSE
            Netscape Comment: 
                Easy-RSA Generated Certificate
            X509v3 Subject Key Identifier: 
                C6:A8:42:05:64:D5:60:28:EB:50:30:A2:4D:67:69:95:B9:33:D5:A4
            X509v3 Authority Key Identifier: 
                keyid:EF:38:8D:14:50:58:A7:5B:4D:9C:17:72:FC:DF:B9:AC:A7:51:B0:10
                DirName:/C=US/ST=CA/L=SanFrancisco/O=Pixglo, Inc./OU=VPN-CIE/CN=tunnel.pixglo.com/name=Bala Chandrasekaran/emailAddress=bala@pixglo.com
                serial:A6:DB:C6:83:80:E6:A0:79

            X509v3 Extended Key Usage: 
                TLS Web Client Authentication
            X509v3 Key Usage: 
                Digital Signature
    Signature Algorithm: sha1WithRSAEncryption
         b4:6a:73:a9:bd:9d:de:9a:df:ea:a4:b8:f5:9b:e9:11:ff:11:
         fe:2e:bd:c9:89:e2:cf:d9:02:37:59:24:d5:a9:93:87:48:bb:
         c8:47:21:af:0c:e6:37:44:0e:0b:46:fd:87:88:6f:10:9c:69:
         dd:ff:9a:bf:8f:50:2c:75:0d:3b:ed:31:22:6e:1a:20:84:a0:
         f7:eb:79:7e:e1:90:51:96:d8:c9:21:d5:f7:d7:a7:71:97:7a:
         e8:7a:46:52:ef:58:1f:20:de:33:08:fb:b7:2a:62:39:44:26:
         64:c1:49:15:76:af:ea:f4:50:f1:91:52:64:d7:21:a4:91:cf:
         80:4c:81:ba:53:ab:ac:31:79:e0:76:fc:7a:ac:2a:b6:6e:68:
         32:1b:f1:9c:81:55:8a:80:cf:3d:a7:d3:54:db:26:f8:03:fe:
         41:10:7b:59:69:03:71:2a:76:bc:34:3d:af:82:d0:5f:f1:39:
         24:f9:18:da:c5:b4:92:b0:c7:b9:37:68:90:12:6d:08:ac:7e:
         54:88:8c:f6:b4:13:0f:7a:6a:98:e2:82:21:c0:fe:fb:cb:f3:
         a2:9c:3b:77:d7:13:a4:25:f7:7e:bb:55:4b:3d:3b:18:21:20:
         9e:9b:a2:c9:31:97:4d:4c:d6:eb:bf:17:47:00:78:34:a7:8d:
         91:c2:9b:66:5a:32:3c:0d:0c:85:cd:c6:3e:a1:b2:71:f9:08:
         d2:17:0b:6f:0e:f5:24:fe:e1:8b:c5:24:76:85:b2:a3:c9:42:
         51:6a:7c:5c:79:62:32:6b:03:30:75:6c:a3:7a:5d:10:a8:2a:
         7b:f4:9b:e2:74:d9:f7:d8:7a:bb:c3:f9:93:77:11:c1:92:52:
         78:de:45:e7:8f:5e:ae:28:05:e7:65:13:be:22:41:06:da:d1:
         2e:3c:0f:53:7a:bd:b9:7e:c7:e1:97:81:3f:d0:f5:05:83:de:
         63:90:06:ee:fe:eb:d9:b7:ca:37:40:1f:72:84:c8:0e:86:2a:
         f8:f6:e6:5d:74:da:22:8e:ba:b4:17:83:01:e4:c5:ca:c7:60:
         de:62:5f:a4:12:a6:e8:4e:0d:d1:d7:f4:eb:be:f4:9c:4a:40:
         c5:9e:e0:da:34:9f:c1:c7:86:d7:99:68:a8:b2:52:22:1d:5b:
         c9:52:cb:d9:90:83:7c:17:19:00:b8:aa:32:11:6f:36:f9:1c:
         94:9d:df:be:32:ef:1d:03:ae:05:e2:b1:68:9d:e9:96:61:0b:
         ec:9f:60:45:9d:aa:d4:33:73:ec:f8:d8:d0:9e:21:98:2d:8b:
         1f:33:a0:26:8a:2f:bf:93:25:5e:e7:81:90:45:e6:27:c7:99:
         2c:45:bc:37:17:f8:e3:c7
-----BEGIN CERTIFICATE-----
MIIHSDCCBTCgAwIBAgICAJMwDQYJKoZIhvcNAQEFBQAwgbQxCzAJBgNVBAYTAlVT
MQswCQYDVQQIEwJDQTEVMBMGA1UEBxMMU2FuRnJhbmNpc2NvMRUwEwYDVQQKEwxQ
aXhnbG8sIEluYy4xEDAOBgNVBAsTB1ZQTi1DSUUxGjAYBgNVBAMTEXR1bm5lbC5w
aXhnbG8uY29tMRwwGgYDVQQpExNCYWxhIENoYW5kcmFzZWthcmFuMR4wHAYJKoZI
hvcNAQkBFg9iYWxhQHBpeGdsby5jb20wHhcNMTgwMjE0MDYyNjE0WhcNMjgwMjEy
MDYyNjE0WjCBqTELMAkGA1UEBhMCVVMxCzAJBgNVBAgTAkNBMRUwEwYDVQQHEwxT
YW5GcmFuY2lzY28xFTATBgNVBAoTDFBpeGdsbywgSW5jLjEQMA4GA1UECxMHVlBO
LUNJRTEPMA0GA1UEAxMGY2llMTQ2MRwwGgYDVQQpExNCYWxhIENoYW5kcmFzZWth
cmFuMR4wHAYJKoZIhvcNAQkBFg9iYWxhQHBpeGdsby5jb20wggIiMA0GCSqGSIb3
DQEBAQUAA4ICDwAwggIKAoICAQDAAsIqLteVZynnGra1sx+XVFbYy5V3PIxHSK9o
HzVzCH6t1uWlHBlLer246t8aOTJeYZIyezHDZ2YB8dDaCkpBs4ux55AnNrUMpuoQ
dx4wY87kOOxAEqYNsRA7+T/0FRmXF7deDtz54JlEIN4CKJey1sdqnYfcMODT69rK
tIuq92ERoWcBIG92LHwEJH9mVR8snL6cXZ4t2Oz3Dd2VM7Wquy0WzFV1rp7nAuXk
PaQeehzKjmmArmKuPPdlDmuDctL7vcm653QK9r+rCh1L1QyiKcMJbJ1ss2EEDfSa
XuP3RlqkhBROVLpnJMV3fgH7ydRESTBRQ7eA4l2RoCky92zGuTJ5SbMFnIVvz4K4
YQKschLOcPuxXLMKIoNQvK34JxMg0XlqAXbhD7JkgbxM9ac2R2f3zdGLRkAJGw7Y
Cf8nS37ieph3/EKOhdB5QXdcCVBfDwL/kd2HNENh9WYXKUQ10qDZFhRRFBiEUhJm
wdslnS8ptlCalzKh06IwsYJCsghvGlcnUNzoh83VPJBAt4K65eT+7lssOnmHUMO1
tMdRkbuaOu4xV3ZIM62PcvtqBdUg0dRD0UCN/oApvdVJ7eg2Pmctk4qfSo2zCR3D
96Tg8EKkW09LGD96HlFS6x7EeSWjx16HHRe93Pn8/0BSL95lWyda3P5rWf+rGwYo
gp77ywIDAQABo4IBazCCAWcwCQYDVR0TBAIwADAtBglghkgBhvhCAQ0EIBYeRWFz
eS1SU0EgR2VuZXJhdGVkIENlcnRpZmljYXRlMB0GA1UdDgQWBBTGqEIFZNVgKOtQ
MKJNZ2mVuTPVpDCB6QYDVR0jBIHhMIHegBTvOI0UUFinW02cF3L837msp1GwEKGB
uqSBtzCBtDELMAkGA1UEBhMCVVMxCzAJBgNVBAgTAkNBMRUwEwYDVQQHEwxTYW5G
cmFuY2lzY28xFTATBgNVBAoTDFBpeGdsbywgSW5jLjEQMA4GA1UECxMHVlBOLUNJ
RTEaMBgGA1UEAxMRdHVubmVsLnBpeGdsby5jb20xHDAaBgNVBCkTE0JhbGEgQ2hh
bmRyYXNla2FyYW4xHjAcBgkqhkiG9w0BCQEWD2JhbGFAcGl4Z2xvLmNvbYIJAKbb
xoOA5qB5MBMGA1UdJQQMMAoGCCsGAQUFBwMCMAsGA1UdDwQEAwIHgDANBgkqhkiG
9w0BAQUFAAOCAgEAtGpzqb2d3prf6qS49ZvpEf8R/i69yYniz9kCN1kk1amTh0i7
yEchrwzmN0QOC0b9h4hvEJxp3f+av49QLHUNO+0xIm4aIISg9+t5fuGQUZbYySHV
99encZd66HpGUu9YHyDeMwj7typiOUQmZMFJFXav6vRQ8ZFSZNchpJHPgEyBulOr
rDF54Hb8eqwqtm5oMhvxnIFVioDPPafTVNsm+AP+QRB7WWkDcSp2vDQ9r4LQX/E5
JPkY2sW0krDHuTdokBJtCKx+VIiM9rQTD3pqmOKCIcD++8vzopw7d9cTpCX3frtV
Sz07GCEgnpuiyTGXTUzW678XRwB4NKeNkcKbZloyPA0Mhc3GPqGycfkI0hcLbw71
JP7hi8UkdoWyo8lCUWp8XHliMmsDMHVso3pdEKgqe/Sb4nTZ99h6u8P5k3cRwZJS
eN5F549erigF52UTviJBBtrRLjwPU3q9uX7H4ZeBP9D1BYPeY5AG7v7r2bfKN0Af
coTIDoYq+PbmXXTaIo66tBeDAeTFysdg3mJfpBKm6E4N0df06770nEpAxZ7g2jSf
wceG15loqLJSIh1byVLL2ZCDfBcZALiqMhFvNvkclJ3fvjLvHQOuBeKxaJ3plmEL
7J9gRZ2q1DNz7PjY0J4hmC2LHzOgJoovv5MlXueBkEXmJ8eZLEW8Nxf448c=
-----END CERTIFICATE-----
