Certificate:
    Data:
        Version: 3 (0x2)
        Serial Number: 150 (0x96)
    Signature Algorithm: sha1WithRSAEncryption
        Issuer: C=US, ST=CA, L=SanFrancisco, O=Pixglo, Inc., OU=VPN-CIE, CN=tunnel.pixglo.com/name=Bala Chandrasekaran/emailAddress=bala@pixglo.com
        Validity
            Not Before: Feb 14 06:26:17 2018 GMT
            Not After : Feb 12 06:26:17 2028 GMT
        Subject: C=US, ST=CA, L=SanFrancisco, O=Pixglo, Inc., OU=VPN-CIE, CN=cie149/name=Bala Chandrasekaran/emailAddress=bala@pixglo.com
        Subject Public Key Info:
            Public Key Algorithm: rsaEncryption
                Public-Key: (4096 bit)
                Modulus:
                    00:b7:cd:03:51:31:46:94:83:5d:91:db:56:d0:74:
                    2a:22:52:77:a8:31:71:fc:57:70:ed:14:8b:57:a2:
                    1d:b9:33:96:c1:86:69:ab:51:70:6a:7b:5f:55:b7:
                    09:9f:ea:16:ee:ad:59:6b:3c:b1:e2:0f:73:e2:cc:
                    2b:5b:74:99:89:25:f1:70:9d:48:ea:70:04:fc:24:
                    2c:7b:2f:57:ed:b3:4f:12:7b:44:1f:ec:7f:c6:99:
                    b6:cb:d7:ce:83:8c:7f:b0:37:d6:1f:4a:d0:36:4d:
                    ef:f1:54:74:c1:63:15:d9:f0:84:92:b5:15:ce:97:
                    bd:3a:10:2e:9c:af:3b:98:ae:ff:14:77:ec:4a:53:
                    51:20:c1:29:b9:23:21:5c:40:a7:9e:68:4b:36:41:
                    99:48:ed:05:64:35:80:ae:36:cd:4d:55:a1:a1:a1:
                    cc:02:5d:e2:a2:e9:1e:36:7f:17:f7:07:a0:39:ad:
                    7e:60:12:a0:55:14:15:7b:ca:cf:d6:b1:f0:1d:80:
                    f2:f5:be:a6:01:3b:88:a7:bb:01:49:dc:fb:b2:28:
                    cf:fe:2d:0f:37:92:fe:1f:45:53:f4:14:c8:17:15:
                    00:43:49:39:f0:6d:11:1c:fe:1d:e1:43:74:0c:97:
                    fc:44:a7:7e:6f:90:d1:ba:f0:26:2f:30:6e:37:39:
                    f5:ed:2f:a5:8d:47:2a:74:64:14:e5:f2:f8:04:6b:
                    70:0c:40:d4:d2:e2:dd:f6:59:46:67:38:99:74:cf:
                    99:b5:4f:54:9a:a4:d9:53:64:5d:f8:3c:cc:07:c6:
                    40:9c:82:89:1d:69:33:0b:16:53:47:48:56:da:ad:
                    73:65:cc:46:f4:8f:c4:a3:91:19:e4:2f:ee:a9:b5:
                    16:e2:40:64:4a:1d:12:29:b6:ee:35:ac:53:4d:a7:
                    70:fd:05:ad:e7:1f:0d:64:d0:45:c5:90:4d:61:c9:
                    70:85:5d:3a:0c:2d:38:21:0f:b2:5e:89:e6:ab:b4:
                    86:6d:ed:1e:96:a6:04:85:f4:a2:6e:55:fe:d3:4e:
                    01:d1:43:ce:be:f6:99:39:ec:68:b8:11:9f:ad:4c:
                    a1:5e:a0:07:e1:b6:69:30:ac:f7:dc:7b:8d:33:3a:
                    cb:bb:df:c4:cd:a3:98:8a:43:d4:b9:cd:78:cb:0f:
                    ec:f1:c9:76:bb:44:42:08:ed:3d:3e:f4:d0:03:07:
                    ac:9f:eb:24:da:dc:81:1d:d4:d1:ab:f5:5e:da:ee:
                    ec:db:db:19:e8:62:36:9c:47:60:d3:00:ac:95:a3:
                    de:67:67:e8:5c:77:50:f6:f1:04:f7:76:f2:dc:06:
                    b8:05:e4:dc:70:27:b1:aa:43:31:6c:73:32:53:b7:
                    f4:a0:4f
                Exponent: 65537 (0x10001)
        X509v3 extensions:
            X509v3 Basic Constraints: 
                CA:FALSE
            Netscape Comment: 
                Easy-RSA Generated Certificate
            X509v3 Subject Key Identifier: 
                06:FB:76:9B:03:67:B2:25:1C:AE:D6:2F:F7:6E:34:32:1C:EB:22:AF
            X509v3 Authority Key Identifier: 
                keyid:EF:38:8D:14:50:58:A7:5B:4D:9C:17:72:FC:DF:B9:AC:A7:51:B0:10
                DirName:/C=US/ST=CA/L=SanFrancisco/O=Pixglo, Inc./OU=VPN-CIE/CN=tunnel.pixglo.com/name=Bala Chandrasekaran/emailAddress=bala@pixglo.com
                serial:A6:DB:C6:83:80:E6:A0:79

            X509v3 Extended Key Usage: 
                TLS Web Client Authentication
            X509v3 Key Usage: 
                Digital Signature
    Signature Algorithm: sha1WithRSAEncryption
         6f:90:68:a1:83:f5:eb:da:bb:07:66:60:59:9d:6f:69:c3:77:
         4e:aa:5b:26:7f:a7:54:50:bd:f4:2c:a8:4a:f4:80:c3:a2:9a:
         0d:12:7f:df:05:f0:bf:b7:5a:0d:cf:f9:87:4f:7a:c0:89:7f:
         85:7d:01:38:78:b0:29:d0:01:23:a5:92:25:70:30:2b:f8:e0:
         48:0a:69:91:58:38:8e:a2:bd:fd:a5:3b:75:ab:e6:05:3c:14:
         7f:f8:45:8d:3e:24:da:34:e0:36:27:e9:8a:bb:a9:47:4e:fd:
         08:6c:07:18:b9:d6:99:67:6b:9e:3e:0b:74:3d:e6:d0:9e:5b:
         c9:19:81:3b:df:3f:77:80:26:e6:cd:6c:2f:24:7f:71:62:c7:
         2b:2e:98:4d:32:75:89:30:7c:00:05:7b:f3:61:db:d9:7e:98:
         6d:16:50:c5:66:90:8b:4b:a2:a6:fb:36:0c:a1:36:de:89:66:
         e0:d3:36:83:a7:e1:f4:a1:fb:0d:d3:b0:96:47:05:58:71:f9:
         1f:cc:8d:f7:2f:ce:95:7e:e6:2d:af:0b:01:49:af:e3:62:4c:
         a0:3a:ba:c5:ad:47:c7:87:5b:c8:25:ce:47:ed:eb:4e:ee:66:
         77:bd:7e:70:bb:c4:ce:59:3c:aa:c3:86:fa:ce:4b:a3:53:49:
         44:88:81:b6:f1:4d:a4:31:f6:36:0e:71:e6:40:ea:cd:86:9d:
         04:7d:4c:2a:07:c4:92:a1:f4:f0:54:15:20:ad:c5:38:6c:81:
         10:ee:1d:be:77:81:a7:69:1f:93:e4:2c:b2:56:ac:df:4a:42:
         10:f7:28:0e:89:ec:46:6f:a8:15:9e:1f:7d:7d:d1:52:01:dd:
         e5:5f:6e:44:36:59:45:8c:cf:56:93:a1:0e:e5:6c:1b:af:a3:
         40:c2:eb:ba:43:18:9b:36:73:31:31:e9:6d:dc:ec:f3:4a:12:
         08:7b:f1:b9:0c:11:f3:16:0c:4a:9e:87:b7:21:20:98:56:75:
         94:b9:41:11:6e:30:a7:c6:41:44:45:43:d2:b0:55:73:10:73:
         f4:0a:bf:79:27:7e:26:df:bb:69:75:58:8d:e5:72:f2:3a:6b:
         ea:1b:12:c1:4a:8c:23:5f:85:64:54:ed:66:ec:47:e0:5d:8d:
         6e:ff:09:f1:23:1b:1e:cf:ba:44:a7:bd:d9:bf:ed:06:65:01:
         c7:24:e2:2e:1a:2f:0e:0e:99:f5:77:be:f2:6c:e4:1c:ce:41:
         e3:9d:db:79:fb:03:e8:88:69:98:cf:1b:b4:38:29:6a:fd:e8:
         7a:dd:8f:c6:02:c1:b6:d7:93:32:5f:fc:a8:de:3e:f9:17:9e:
         b3:ec:f2:27:5f:71:b7:a9
-----BEGIN CERTIFICATE-----
MIIHSDCCBTCgAwIBAgICAJYwDQYJKoZIhvcNAQEFBQAwgbQxCzAJBgNVBAYTAlVT
MQswCQYDVQQIEwJDQTEVMBMGA1UEBxMMU2FuRnJhbmNpc2NvMRUwEwYDVQQKEwxQ
aXhnbG8sIEluYy4xEDAOBgNVBAsTB1ZQTi1DSUUxGjAYBgNVBAMTEXR1bm5lbC5w
aXhnbG8uY29tMRwwGgYDVQQpExNCYWxhIENoYW5kcmFzZWthcmFuMR4wHAYJKoZI
hvcNAQkBFg9iYWxhQHBpeGdsby5jb20wHhcNMTgwMjE0MDYyNjE3WhcNMjgwMjEy
MDYyNjE3WjCBqTELMAkGA1UEBhMCVVMxCzAJBgNVBAgTAkNBMRUwEwYDVQQHEwxT
YW5GcmFuY2lzY28xFTATBgNVBAoTDFBpeGdsbywgSW5jLjEQMA4GA1UECxMHVlBO
LUNJRTEPMA0GA1UEAxMGY2llMTQ5MRwwGgYDVQQpExNCYWxhIENoYW5kcmFzZWth
cmFuMR4wHAYJKoZIhvcNAQkBFg9iYWxhQHBpeGdsby5jb20wggIiMA0GCSqGSIb3
DQEBAQUAA4ICDwAwggIKAoICAQC3zQNRMUaUg12R21bQdCoiUneoMXH8V3DtFItX
oh25M5bBhmmrUXBqe19Vtwmf6hburVlrPLHiD3PizCtbdJmJJfFwnUjqcAT8JCx7
L1fts08Se0Qf7H/GmbbL186DjH+wN9YfStA2Te/xVHTBYxXZ8ISStRXOl706EC6c
rzuYrv8Ud+xKU1EgwSm5IyFcQKeeaEs2QZlI7QVkNYCuNs1NVaGhocwCXeKi6R42
fxf3B6A5rX5gEqBVFBV7ys/WsfAdgPL1vqYBO4inuwFJ3PuyKM/+LQ83kv4fRVP0
FMgXFQBDSTnwbREc/h3hQ3QMl/xEp35vkNG68CYvMG43OfXtL6WNRyp0ZBTl8vgE
a3AMQNTS4t32WUZnOJl0z5m1T1SapNlTZF34PMwHxkCcgokdaTMLFlNHSFbarXNl
zEb0j8SjkRnkL+6ptRbiQGRKHRIptu41rFNNp3D9Ba3nHw1k0EXFkE1hyXCFXToM
LTghD7JeieartIZt7R6WpgSF9KJuVf7TTgHRQ86+9pk57Gi4EZ+tTKFeoAfhtmkw
rPfce40zOsu738TNo5iKQ9S5zXjLD+zxyXa7REII7T0+9NADB6yf6yTa3IEd1NGr
9V7a7uzb2xnoYjacR2DTAKyVo95nZ+hcd1D28QT3dvLcBrgF5NxwJ7GqQzFsczJT
t/SgTwIDAQABo4IBazCCAWcwCQYDVR0TBAIwADAtBglghkgBhvhCAQ0EIBYeRWFz
eS1SU0EgR2VuZXJhdGVkIENlcnRpZmljYXRlMB0GA1UdDgQWBBQG+3abA2eyJRyu
1i/3bjQyHOsirzCB6QYDVR0jBIHhMIHegBTvOI0UUFinW02cF3L837msp1GwEKGB
uqSBtzCBtDELMAkGA1UEBhMCVVMxCzAJBgNVBAgTAkNBMRUwEwYDVQQHEwxTYW5G
cmFuY2lzY28xFTATBgNVBAoTDFBpeGdsbywgSW5jLjEQMA4GA1UECxMHVlBOLUNJ
RTEaMBgGA1UEAxMRdHVubmVsLnBpeGdsby5jb20xHDAaBgNVBCkTE0JhbGEgQ2hh
bmRyYXNla2FyYW4xHjAcBgkqhkiG9w0BCQEWD2JhbGFAcGl4Z2xvLmNvbYIJAKbb
xoOA5qB5MBMGA1UdJQQMMAoGCCsGAQUFBwMCMAsGA1UdDwQEAwIHgDANBgkqhkiG
9w0BAQUFAAOCAgEAb5BooYP169q7B2ZgWZ1vacN3TqpbJn+nVFC99CyoSvSAw6Ka
DRJ/3wXwv7daDc/5h096wIl/hX0BOHiwKdABI6WSJXAwK/jgSAppkVg4jqK9/aU7
davmBTwUf/hFjT4k2jTgNifpirupR079CGwHGLnWmWdrnj4LdD3m0J5byRmBO98/
d4Am5s1sLyR/cWLHKy6YTTJ1iTB8AAV782Hb2X6YbRZQxWaQi0uipvs2DKE23olm
4NM2g6fh9KH7DdOwlkcFWHH5H8yN9y/OlX7mLa8LAUmv42JMoDq6xa1Hx4dbyCXO
R+3rTu5md71+cLvEzlk8qsOG+s5Lo1NJRIiBtvFNpDH2Ng5x5kDqzYadBH1MKgfE
kqH08FQVIK3FOGyBEO4dvneBp2kfk+Qsslas30pCEPcoDonsRm+oFZ4ffX3RUgHd
5V9uRDZZRYzPVpOhDuVsG6+jQMLrukMYmzZzMTHpbdzs80oSCHvxuQwR8xYMSp6H
tyEgmFZ1lLlBEW4wp8ZBREVD0rBVcxBz9Aq/eSd+Jt+7aXVYjeVy8jpr6hsSwUqM
I1+FZFTtZuxH4F2Nbv8J8SMbHs+6RKe92b/tBmUBxyTiLhovDg6Z9Xe+8mzkHM5B
453befsD6IhpmM8btDgpav3oet2PxgLBtteTMl/8qN4++Rees+zyJ19xt6k=
-----END CERTIFICATE-----
