Certificate:
    Data:
        Version: 3 (0x2)
        Serial Number: 153 (0x99)
    Signature Algorithm: sha1WithRSAEncryption
        Issuer: C=US, ST=CA, L=SanFrancisco, O=Pixglo, Inc., OU=VPN-CIE, CN=tunnel.pixglo.com/name=Bala Chandrasekaran/emailAddress=bala@pixglo.com
        Validity
            Not Before: Feb 14 06:26:18 2018 GMT
            Not After : Feb 12 06:26:18 2028 GMT
        Subject: C=US, ST=CA, L=SanFrancisco, O=Pixglo, Inc., OU=VPN-CIE, CN=cie152/name=Bala Chandrasekaran/emailAddress=bala@pixglo.com
        Subject Public Key Info:
            Public Key Algorithm: rsaEncryption
                Public-Key: (4096 bit)
                Modulus:
                    00:b8:b9:1c:6b:12:3d:6e:bb:bc:ab:1b:e6:75:e0:
                    6b:8a:9f:56:b8:49:1b:23:16:36:ed:7f:b3:ee:6f:
                    b1:45:1a:07:6d:82:3e:eb:01:e9:8f:24:a6:9b:00:
                    b8:7d:94:72:e3:6d:ea:1c:79:8d:80:45:1f:0f:54:
                    5d:1b:2b:08:3d:84:17:73:8b:a6:50:80:be:f3:b8:
                    4f:9c:c5:bf:86:21:a7:8f:03:2e:ab:4a:aa:c2:c2:
                    6a:19:76:c9:ec:0d:1c:28:30:2b:22:77:de:09:33:
                    8a:e5:03:d9:09:57:f2:3c:7e:7d:9c:fb:92:18:04:
                    19:45:7d:9c:da:a4:ef:37:14:81:bd:eb:cb:92:bf:
                    5c:5e:1d:be:d5:bf:90:6e:b5:30:4a:52:4b:89:45:
                    74:79:11:df:63:ea:f7:86:30:14:fd:d8:ae:f9:f2:
                    7a:2c:5b:38:19:5d:16:a6:af:36:b0:87:79:ce:b1:
                    c9:c8:85:12:e9:0a:9d:59:d3:ba:d2:e3:c0:a5:4d:
                    8b:01:b7:90:c9:e8:4a:a4:d9:8f:ee:a3:90:d4:e4:
                    dd:53:bd:0c:4a:ab:42:47:23:39:3a:02:6a:bf:e2:
                    4c:d1:02:e4:1c:20:14:c1:c5:ac:37:73:4f:06:b3:
                    21:ec:6e:8a:32:b9:ce:30:74:04:2a:0b:06:73:a9:
                    9f:ab:e6:05:c5:ec:a1:7f:2b:c9:94:1f:d9:4a:a1:
                    1a:f6:06:8d:cb:35:dd:6b:73:b4:cd:77:97:36:44:
                    0f:bc:89:aa:00:d7:cb:aa:dd:36:ef:32:b4:4f:9e:
                    14:b8:5c:71:37:bb:54:14:c4:e5:60:95:94:6d:5c:
                    2d:10:4f:7f:d7:6e:5e:ac:06:f2:08:ea:a1:5f:56:
                    76:91:28:73:d7:2e:e9:60:b5:3b:1f:a0:12:ea:ac:
                    89:cc:b7:4b:fd:50:dd:ed:d7:bc:37:03:44:62:b2:
                    19:a1:ae:73:00:98:e5:77:df:9b:d2:9a:03:20:3b:
                    cf:75:6a:b7:ce:82:36:da:9f:90:fb:e4:70:cf:8c:
                    64:d7:9a:64:77:91:64:b9:39:23:a3:5b:fd:90:d7:
                    30:66:3b:02:0d:42:f4:a0:3b:d1:39:6e:43:e8:89:
                    69:13:65:84:26:bb:7f:2c:0f:66:44:c2:4e:2e:d6:
                    ae:fc:a6:fb:a7:90:d4:1c:bd:5e:8d:0f:88:a1:ec:
                    72:bb:d5:05:c6:1f:9d:a7:d2:c3:c9:ea:8b:50:eb:
                    cd:41:d6:87:4f:ea:6c:6f:e9:d7:38:04:1e:7c:d1:
                    0a:94:f9:3f:00:f9:22:9f:aa:2b:a2:7b:92:53:ae:
                    a0:3d:48:f3:af:06:a1:1d:f4:26:30:20:78:b4:52:
                    bc:03:b5
                Exponent: 65537 (0x10001)
        X509v3 extensions:
            X509v3 Basic Constraints: 
                CA:FALSE
            Netscape Comment: 
                Easy-RSA Generated Certificate
            X509v3 Subject Key Identifier: 
                5E:CB:AA:AA:8E:18:C0:3D:35:AE:9C:EA:8B:17:2E:1A:C0:46:AC:78
            X509v3 Authority Key Identifier: 
                keyid:EF:38:8D:14:50:58:A7:5B:4D:9C:17:72:FC:DF:B9:AC:A7:51:B0:10
                DirName:/C=US/ST=CA/L=SanFrancisco/O=Pixglo, Inc./OU=VPN-CIE/CN=tunnel.pixglo.com/name=Bala Chandrasekaran/emailAddress=bala@pixglo.com
                serial:A6:DB:C6:83:80:E6:A0:79

            X509v3 Extended Key Usage: 
                TLS Web Client Authentication
            X509v3 Key Usage: 
                Digital Signature
    Signature Algorithm: sha1WithRSAEncryption
         02:82:a5:89:be:1c:5b:01:12:e5:68:ca:9d:28:30:a2:9a:d7:
         ef:69:2b:d0:cf:74:12:3a:1c:52:59:d7:f0:a6:28:b5:85:53:
         5f:1b:53:93:25:3d:31:e7:c2:85:27:9b:45:08:7c:76:6e:25:
         42:4f:ff:0f:56:67:f7:37:96:66:8c:13:bd:47:44:f7:72:ca:
         d5:17:5b:5b:11:94:87:f8:8c:fd:df:8e:ef:1f:71:b1:3a:74:
         f0:07:98:a1:68:2a:2b:32:79:6e:5e:b9:ea:22:4a:bb:c4:d1:
         36:80:d2:d1:3b:e4:d1:b9:3f:99:06:06:b9:ab:a3:54:20:76:
         fd:91:d2:ac:d4:f8:1b:cd:b7:c7:5b:25:03:78:37:c1:b5:84:
         7a:d8:a0:ce:31:ee:93:46:c4:55:8d:eb:82:62:22:93:f3:61:
         86:4a:45:95:4a:0b:ef:59:27:29:ae:17:bd:d1:99:ef:47:ed:
         eb:f2:1f:be:52:74:a3:09:61:ad:ce:ef:ed:ee:5c:27:d2:86:
         94:57:e3:4b:69:76:28:a1:71:45:a8:38:70:b1:71:57:6c:6f:
         b5:b5:61:0f:6d:ec:49:be:17:23:87:be:a4:4a:30:7a:dc:e2:
         e9:4b:ff:96:64:3b:06:93:3b:fb:7c:21:25:ce:3b:a6:8d:0f:
         24:99:ad:48:55:49:ea:a5:84:c1:04:c7:a7:4b:8e:71:ce:8c:
         b5:16:f8:76:2a:80:06:50:d1:3d:8d:a0:ba:b3:dd:3e:75:b9:
         14:0e:4f:91:5e:18:a7:c0:fc:fd:a5:b1:71:67:ee:df:06:ad:
         9c:21:77:53:15:00:9d:cd:de:ee:0a:69:f5:36:6a:f1:b5:3e:
         d7:0b:c7:8a:da:50:43:b7:ff:c3:15:93:22:99:42:de:cf:6b:
         d0:ee:48:36:14:99:8d:77:77:49:44:46:93:e3:1a:04:2e:4a:
         92:3e:b5:87:4e:a8:27:10:44:1d:4f:52:f2:1a:3d:ad:a5:e6:
         92:b0:45:26:d1:40:73:c1:06:99:0f:6b:53:8e:90:1f:81:e8:
         40:d6:f6:d9:cd:83:51:ab:4d:28:af:fb:42:ae:41:5e:3d:c4:
         24:7b:55:50:af:45:b7:07:d0:bf:e5:51:ca:0c:39:96:25:3d:
         08:17:ee:de:ee:c7:3f:02:9a:66:30:8d:6b:e8:d2:bb:a0:35:
         5f:63:d1:95:c8:33:6b:b3:03:ea:15:97:57:86:87:52:8b:41:
         2c:5c:1a:2b:77:4c:48:76:ee:3f:e2:cb:f1:87:4a:70:86:a6:
         c6:29:43:c2:58:a5:e7:6b:4e:0a:b2:1d:09:79:48:bf:a3:96:
         42:dd:eb:a0:59:6a:33:8b
-----BEGIN CERTIFICATE-----
MIIHSDCCBTCgAwIBAgICAJkwDQYJKoZIhvcNAQEFBQAwgbQxCzAJBgNVBAYTAlVT
MQswCQYDVQQIEwJDQTEVMBMGA1UEBxMMU2FuRnJhbmNpc2NvMRUwEwYDVQQKEwxQ
aXhnbG8sIEluYy4xEDAOBgNVBAsTB1ZQTi1DSUUxGjAYBgNVBAMTEXR1bm5lbC5w
aXhnbG8uY29tMRwwGgYDVQQpExNCYWxhIENoYW5kcmFzZWthcmFuMR4wHAYJKoZI
hvcNAQkBFg9iYWxhQHBpeGdsby5jb20wHhcNMTgwMjE0MDYyNjE4WhcNMjgwMjEy
MDYyNjE4WjCBqTELMAkGA1UEBhMCVVMxCzAJBgNVBAgTAkNBMRUwEwYDVQQHEwxT
YW5GcmFuY2lzY28xFTATBgNVBAoTDFBpeGdsbywgSW5jLjEQMA4GA1UECxMHVlBO
LUNJRTEPMA0GA1UEAxMGY2llMTUyMRwwGgYDVQQpExNCYWxhIENoYW5kcmFzZWth
cmFuMR4wHAYJKoZIhvcNAQkBFg9iYWxhQHBpeGdsby5jb20wggIiMA0GCSqGSIb3
DQEBAQUAA4ICDwAwggIKAoICAQC4uRxrEj1uu7yrG+Z14GuKn1a4SRsjFjbtf7Pu
b7FFGgdtgj7rAemPJKabALh9lHLjbeoceY2ARR8PVF0bKwg9hBdzi6ZQgL7zuE+c
xb+GIaePAy6rSqrCwmoZdsnsDRwoMCsid94JM4rlA9kJV/I8fn2c+5IYBBlFfZza
pO83FIG968uSv1xeHb7Vv5ButTBKUkuJRXR5Ed9j6veGMBT92K758nosWzgZXRam
rzawh3nOscnIhRLpCp1Z07rS48ClTYsBt5DJ6Eqk2Y/uo5DU5N1TvQxKq0JHIzk6
Amq/4kzRAuQcIBTBxaw3c08GsyHsbooyuc4wdAQqCwZzqZ+r5gXF7KF/K8mUH9lK
oRr2Bo3LNd1rc7TNd5c2RA+8iaoA18uq3TbvMrRPnhS4XHE3u1QUxOVglZRtXC0Q
T3/Xbl6sBvII6qFfVnaRKHPXLulgtTsfoBLqrInMt0v9UN3t17w3A0RishmhrnMA
mOV335vSmgMgO891arfOgjban5D75HDPjGTXmmR3kWS5OSOjW/2Q1zBmOwINQvSg
O9E5bkPoiWkTZYQmu38sD2ZEwk4u1q78pvunkNQcvV6ND4ih7HK71QXGH52n0sPJ
6otQ681B1odP6mxv6dc4BB580QqU+T8A+SKfqiuie5JTrqA9SPOvBqEd9CYwIHi0
UrwDtQIDAQABo4IBazCCAWcwCQYDVR0TBAIwADAtBglghkgBhvhCAQ0EIBYeRWFz
eS1SU0EgR2VuZXJhdGVkIENlcnRpZmljYXRlMB0GA1UdDgQWBBRey6qqjhjAPTWu
nOqLFy4awEaseDCB6QYDVR0jBIHhMIHegBTvOI0UUFinW02cF3L837msp1GwEKGB
uqSBtzCBtDELMAkGA1UEBhMCVVMxCzAJBgNVBAgTAkNBMRUwEwYDVQQHEwxTYW5G
cmFuY2lzY28xFTATBgNVBAoTDFBpeGdsbywgSW5jLjEQMA4GA1UECxMHVlBOLUNJ
RTEaMBgGA1UEAxMRdHVubmVsLnBpeGdsby5jb20xHDAaBgNVBCkTE0JhbGEgQ2hh
bmRyYXNla2FyYW4xHjAcBgkqhkiG9w0BCQEWD2JhbGFAcGl4Z2xvLmNvbYIJAKbb
xoOA5qB5MBMGA1UdJQQMMAoGCCsGAQUFBwMCMAsGA1UdDwQEAwIHgDANBgkqhkiG
9w0BAQUFAAOCAgEAAoKlib4cWwES5WjKnSgwoprX72kr0M90EjocUlnX8KYotYVT
XxtTkyU9MefChSebRQh8dm4lQk//D1Zn9zeWZowTvUdE93LK1RdbWxGUh/iM/d+O
7x9xsTp08AeYoWgqKzJ5bl656iJKu8TRNoDS0Tvk0bk/mQYGuaujVCB2/ZHSrNT4
G823x1slA3g3wbWEetigzjHuk0bEVY3rgmIik/NhhkpFlUoL71knKa4XvdGZ70ft
6/IfvlJ0owlhrc7v7e5cJ9KGlFfjS2l2KKFxRag4cLFxV2xvtbVhD23sSb4XI4e+
pEowetzi6Uv/lmQ7BpM7+3whJc47po0PJJmtSFVJ6qWEwQTHp0uOcc6MtRb4diqA
BlDRPY2gurPdPnW5FA5PkV4Yp8D8/aWxcWfu3watnCF3UxUAnc3e7gpp9TZq8bU+
1wvHitpQQ7f/wxWTIplC3s9r0O5INhSZjXd3SURGk+MaBC5Kkj61h06oJxBEHU9S
8ho9raXmkrBFJtFAc8EGmQ9rU46QH4HoQNb22c2DUatNKK/7Qq5BXj3EJHtVUK9F
twfQv+VRygw5liU9CBfu3u7HPwKaZjCNa+jSu6A1X2PRlcgza7MD6hWXV4aHUotB
LFwaK3dMSHbuP+LL8YdKcIamxilDwlil52tOCrIdCXlIv6OWQt3roFlqM4s=
-----END CERTIFICATE-----
