Certificate:
    Data:
        Version: 3 (0x2)
        Serial Number: 154 (0x9a)
    Signature Algorithm: sha1WithRSAEncryption
        Issuer: C=US, ST=CA, L=SanFrancisco, O=Pixglo, Inc., OU=VPN-CIE, CN=tunnel.pixglo.com/name=Bala Chandrasekaran/emailAddress=bala@pixglo.com
        Validity
            Not Before: Feb 14 06:26:19 2018 GMT
            Not After : Feb 12 06:26:19 2028 GMT
        Subject: C=US, ST=CA, L=SanFrancisco, O=Pixglo, Inc., OU=VPN-CIE, CN=cie153/name=Bala Chandrasekaran/emailAddress=bala@pixglo.com
        Subject Public Key Info:
            Public Key Algorithm: rsaEncryption
                Public-Key: (4096 bit)
                Modulus:
                    00:d2:68:db:73:6f:07:17:bc:9c:7a:a4:af:06:44:
                    6d:bc:de:19:02:60:97:af:67:22:3a:84:af:53:d3:
                    2c:a1:e7:4f:1c:cd:4c:ee:d1:c3:7f:57:16:e7:2c:
                    3a:af:fe:65:0d:2d:56:da:8b:83:aa:10:fb:00:e1:
                    d2:9a:a5:e9:5b:3b:ee:cc:06:82:06:95:b3:8a:d2:
                    cc:8e:31:43:6a:ad:21:d3:aa:76:23:8d:cb:e9:40:
                    1c:ce:6c:26:c4:9b:48:bc:4f:d1:18:21:bf:9c:53:
                    f8:a0:71:b8:01:b6:84:b4:d4:aa:00:1e:16:10:ac:
                    5a:64:3d:9e:36:61:dd:80:8c:4c:26:c4:c8:38:f1:
                    95:70:df:74:9f:b7:4f:85:ec:fd:a7:c3:80:74:a5:
                    f8:3f:42:ba:36:1b:a1:7f:09:e0:79:ba:9a:6a:81:
                    3c:8e:0e:ea:35:dc:02:72:42:9c:1b:5f:94:15:84:
                    89:54:f3:b0:89:21:30:8a:d4:9f:8c:d2:80:2c:12:
                    67:9a:40:6a:12:6b:93:66:f3:e3:56:08:4b:16:4b:
                    6b:41:a9:7c:ad:7c:dc:74:01:d3:e3:d2:4d:30:6d:
                    be:a1:d7:08:88:4a:f8:5d:e4:d1:6f:1b:3d:8d:17:
                    9f:dc:d7:2a:0a:9d:89:07:30:44:0b:e1:1e:a3:62:
                    75:5c:f3:6b:64:75:43:9f:65:77:03:ba:d1:4f:6f:
                    73:1c:38:22:0a:89:bd:20:96:96:5d:37:5b:30:ce:
                    d0:3b:bb:f8:c8:eb:38:f5:03:0f:33:d7:bd:69:64:
                    31:35:6f:b5:dd:6e:a8:ce:fc:8d:a0:b1:c3:e4:5f:
                    aa:ce:56:ec:a1:f8:8f:56:30:83:39:d1:c1:75:27:
                    4b:0f:e9:27:e9:b5:4c:af:bd:34:75:cb:c0:7d:78:
                    c3:f4:2d:7d:6e:f2:14:66:81:b1:e9:63:13:64:0c:
                    61:b7:08:fd:39:04:e2:ae:ea:1a:8f:38:55:c1:6d:
                    4b:c4:cd:d5:42:87:60:e0:af:06:5f:99:61:63:a5:
                    98:f1:d0:8a:ff:26:4a:95:98:a9:15:7a:21:41:92:
                    41:e5:ba:cd:24:54:34:34:dc:2b:46:5d:50:a8:87:
                    30:3f:e0:20:f4:61:6c:7a:59:da:d7:ea:0e:cc:8c:
                    ff:22:0e:b8:31:a6:54:de:a3:20:18:53:9a:f7:03:
                    34:e5:01:1a:4c:ba:97:af:f9:29:e5:32:fc:71:09:
                    1f:a5:50:4a:ec:bd:88:b0:0d:1d:83:73:d4:8f:38:
                    e8:62:27:67:4e:a4:ab:43:5c:89:33:16:c7:64:1e:
                    e8:01:b9:a6:ab:ed:26:a2:0c:6f:59:22:95:74:2a:
                    3f:a5:31
                Exponent: 65537 (0x10001)
        X509v3 extensions:
            X509v3 Basic Constraints: 
                CA:FALSE
            Netscape Comment: 
                Easy-RSA Generated Certificate
            X509v3 Subject Key Identifier: 
                45:76:F9:06:F7:4E:77:33:CE:DA:E7:45:1E:BF:F2:0B:3B:F8:6B:B1
            X509v3 Authority Key Identifier: 
                keyid:EF:38:8D:14:50:58:A7:5B:4D:9C:17:72:FC:DF:B9:AC:A7:51:B0:10
                DirName:/C=US/ST=CA/L=SanFrancisco/O=Pixglo, Inc./OU=VPN-CIE/CN=tunnel.pixglo.com/name=Bala Chandrasekaran/emailAddress=bala@pixglo.com
                serial:A6:DB:C6:83:80:E6:A0:79

            X509v3 Extended Key Usage: 
                TLS Web Client Authentication
            X509v3 Key Usage: 
                Digital Signature
    Signature Algorithm: sha1WithRSAEncryption
         6a:c3:d5:4a:ac:30:29:86:90:ec:7c:53:0c:63:38:92:1c:62:
         86:6e:8d:c6:01:ee:b5:39:f6:c0:cd:1b:88:c0:26:d5:f0:dc:
         30:91:e3:89:af:5d:e8:1c:b7:1e:1d:94:e8:5c:72:44:96:3c:
         cf:73:a1:f3:d1:ad:42:71:42:22:44:e6:df:d4:8f:6c:25:1d:
         05:96:70:47:0b:1f:82:50:d9:8a:ec:ea:76:41:20:a1:c0:91:
         36:be:fa:17:04:9e:2b:1d:c6:06:09:c6:8a:04:92:d0:e6:b0:
         53:b3:3f:5c:8d:b6:76:4a:22:97:a9:f2:97:75:93:9b:aa:1b:
         10:4d:21:e6:e7:df:81:0d:ab:5a:45:3c:94:97:59:9b:6d:06:
         41:a6:59:39:b7:f7:40:ed:0d:20:43:79:6c:a4:23:0f:24:f9:
         a8:b8:ab:1c:61:fa:17:cf:9e:24:ae:9a:f9:63:39:9b:8b:d4:
         31:42:12:b9:6a:be:71:2c:98:8c:d3:2a:7f:46:10:de:e0:a5:
         3f:aa:e8:45:02:a5:8c:73:a4:73:a4:86:c9:69:73:2b:3f:92:
         97:c0:27:35:1f:14:86:13:e6:19:21:02:60:1e:58:df:55:9d:
         56:04:3b:f5:b6:5b:5e:ba:84:91:70:a1:55:6d:84:03:e9:85:
         f5:f9:fb:fb:04:ff:53:fa:fd:4f:a0:1a:bd:0f:c8:7d:55:3f:
         3e:f2:64:a7:56:45:c7:54:ba:57:5b:b3:5c:21:04:47:7b:26:
         4b:60:c4:14:a8:da:7e:24:5e:8e:a0:d0:99:e6:04:79:b3:fa:
         b7:68:c2:15:3c:1b:88:07:12:b0:17:91:d4:77:7e:45:16:99:
         58:f5:cc:9e:95:37:20:0f:e9:ac:06:4c:58:7e:e1:6f:eb:23:
         41:da:93:cb:52:6e:41:b3:0e:8c:b0:43:6d:4a:01:5c:e8:a4:
         e0:06:a3:e8:14:65:74:97:c3:c8:8b:07:8b:2b:e1:6c:17:1b:
         91:42:91:80:65:98:e9:08:0c:a4:d6:f8:6c:3a:74:f0:16:61:
         9d:6c:7d:3b:06:aa:d6:97:c9:28:6c:fc:e5:25:9f:f9:f9:53:
         d1:f8:17:9b:61:22:1b:0f:32:58:90:fd:f9:0f:5e:01:fa:4b:
         1e:d5:60:2f:da:40:28:4c:b9:df:cd:d1:3d:29:78:1a:82:a0:
         62:16:d9:ef:45:fa:7b:60:8b:a9:20:5c:66:96:7f:f6:8d:b7:
         08:3c:09:93:b9:cd:d8:31:0c:a5:49:c5:d1:44:f6:96:ac:43:
         ef:45:4e:26:74:c4:b0:b8:41:9c:1c:a8:d9:a5:f3:5e:d9:d2:
         44:86:0a:3d:47:d0:b0:5d
-----BEGIN CERTIFICATE-----
MIIHSDCCBTCgAwIBAgICAJowDQYJKoZIhvcNAQEFBQAwgbQxCzAJBgNVBAYTAlVT
MQswCQYDVQQIEwJDQTEVMBMGA1UEBxMMU2FuRnJhbmNpc2NvMRUwEwYDVQQKEwxQ
aXhnbG8sIEluYy4xEDAOBgNVBAsTB1ZQTi1DSUUxGjAYBgNVBAMTEXR1bm5lbC5w
aXhnbG8uY29tMRwwGgYDVQQpExNCYWxhIENoYW5kcmFzZWthcmFuMR4wHAYJKoZI
hvcNAQkBFg9iYWxhQHBpeGdsby5jb20wHhcNMTgwMjE0MDYyNjE5WhcNMjgwMjEy
MDYyNjE5WjCBqTELMAkGA1UEBhMCVVMxCzAJBgNVBAgTAkNBMRUwEwYDVQQHEwxT
YW5GcmFuY2lzY28xFTATBgNVBAoTDFBpeGdsbywgSW5jLjEQMA4GA1UECxMHVlBO
LUNJRTEPMA0GA1UEAxMGY2llMTUzMRwwGgYDVQQpExNCYWxhIENoYW5kcmFzZWth
cmFuMR4wHAYJKoZIhvcNAQkBFg9iYWxhQHBpeGdsby5jb20wggIiMA0GCSqGSIb3
DQEBAQUAA4ICDwAwggIKAoICAQDSaNtzbwcXvJx6pK8GRG283hkCYJevZyI6hK9T
0yyh508czUzu0cN/VxbnLDqv/mUNLVbai4OqEPsA4dKapelbO+7MBoIGlbOK0syO
MUNqrSHTqnYjjcvpQBzObCbEm0i8T9EYIb+cU/igcbgBtoS01KoAHhYQrFpkPZ42
Yd2AjEwmxMg48ZVw33Sft0+F7P2nw4B0pfg/Qro2G6F/CeB5uppqgTyODuo13AJy
QpwbX5QVhIlU87CJITCK1J+M0oAsEmeaQGoSa5Nm8+NWCEsWS2tBqXytfNx0AdPj
0k0wbb6h1wiISvhd5NFvGz2NF5/c1yoKnYkHMEQL4R6jYnVc82tkdUOfZXcDutFP
b3McOCIKib0glpZdN1swztA7u/jI6zj1Aw8z171pZDE1b7XdbqjO/I2gscPkX6rO
Vuyh+I9WMIM50cF1J0sP6SfptUyvvTR1y8B9eMP0LX1u8hRmgbHpYxNkDGG3CP05
BOKu6hqPOFXBbUvEzdVCh2DgrwZfmWFjpZjx0Ir/JkqVmKkVeiFBkkHlus0kVDQ0
3CtGXVCohzA/4CD0YWx6WdrX6g7MjP8iDrgxplTeoyAYU5r3AzTlARpMupev+Snl
MvxxCR+lUErsvYiwDR2Dc9SPOOhiJ2dOpKtDXIkzFsdkHugBuaar7SaiDG9ZIpV0
Kj+lMQIDAQABo4IBazCCAWcwCQYDVR0TBAIwADAtBglghkgBhvhCAQ0EIBYeRWFz
eS1SU0EgR2VuZXJhdGVkIENlcnRpZmljYXRlMB0GA1UdDgQWBBRFdvkG9053M87a
50Uev/ILO/hrsTCB6QYDVR0jBIHhMIHegBTvOI0UUFinW02cF3L837msp1GwEKGB
uqSBtzCBtDELMAkGA1UEBhMCVVMxCzAJBgNVBAgTAkNBMRUwEwYDVQQHEwxTYW5G
cmFuY2lzY28xFTATBgNVBAoTDFBpeGdsbywgSW5jLjEQMA4GA1UECxMHVlBOLUNJ
RTEaMBgGA1UEAxMRdHVubmVsLnBpeGdsby5jb20xHDAaBgNVBCkTE0JhbGEgQ2hh
bmRyYXNla2FyYW4xHjAcBgkqhkiG9w0BCQEWD2JhbGFAcGl4Z2xvLmNvbYIJAKbb
xoOA5qB5MBMGA1UdJQQMMAoGCCsGAQUFBwMCMAsGA1UdDwQEAwIHgDANBgkqhkiG
9w0BAQUFAAOCAgEAasPVSqwwKYaQ7HxTDGM4khxihm6NxgHutTn2wM0biMAm1fDc
MJHjia9d6By3Hh2U6FxyRJY8z3Oh89GtQnFCIkTm39SPbCUdBZZwRwsfglDZiuzq
dkEgocCRNr76FwSeKx3GBgnGigSS0OawU7M/XI22dkoil6nyl3WTm6obEE0h5uff
gQ2rWkU8lJdZm20GQaZZObf3QO0NIEN5bKQjDyT5qLirHGH6F8+eJK6a+WM5m4vU
MUISuWq+cSyYjNMqf0YQ3uClP6roRQKljHOkc6SGyWlzKz+Sl8AnNR8UhhPmGSEC
YB5Y31WdVgQ79bZbXrqEkXChVW2EA+mF9fn7+wT/U/r9T6AavQ/IfVU/PvJkp1ZF
x1S6V1uzXCEER3smS2DEFKjafiRejqDQmeYEebP6t2jCFTwbiAcSsBeR1Hd+RRaZ
WPXMnpU3IA/prAZMWH7hb+sjQdqTy1JuQbMOjLBDbUoBXOik4Aaj6BRldJfDyIsH
iyvhbBcbkUKRgGWY6QgMpNb4bDp08BZhnWx9Owaq1pfJKGz85SWf+flT0fgXm2Ei
Gw8yWJD9+Q9eAfpLHtVgL9pAKEy5383RPSl4GoKgYhbZ70X6e2CLqSBcZpZ/9o23
CDwJk7nN2DEMpUnF0UT2lqxD70VOJnTEsLhBnByo2aXzXtnSRIYKPUfQsF0=
-----END CERTIFICATE-----
