Certificate:
    Data:
        Version: 3 (0x2)
        Serial Number: 155 (0x9b)
    Signature Algorithm: sha1WithRSAEncryption
        Issuer: C=US, ST=CA, L=SanFrancisco, O=Pixglo, Inc., OU=VPN-CIE, CN=tunnel.pixglo.com/name=Bala Chandrasekaran/emailAddress=bala@pixglo.com
        Validity
            Not Before: Feb 14 06:26:20 2018 GMT
            Not After : Feb 12 06:26:20 2028 GMT
        Subject: C=US, ST=CA, L=SanFrancisco, O=Pixglo, Inc., OU=VPN-CIE, CN=cie154/name=Bala Chandrasekaran/emailAddress=bala@pixglo.com
        Subject Public Key Info:
            Public Key Algorithm: rsaEncryption
                Public-Key: (4096 bit)
                Modulus:
                    00:f8:ef:55:32:85:b6:4c:ab:98:2f:8a:a1:df:ff:
                    93:3a:9d:31:ea:fe:f0:47:da:b8:ec:c1:c9:7a:7d:
                    75:15:d0:a6:6d:d4:9f:60:6d:04:fc:a2:a6:c3:7c:
                    5e:d0:70:df:ca:aa:83:29:91:b5:e0:bd:89:ec:1b:
                    f4:cf:90:09:7a:1e:16:04:95:1f:70:4e:f0:50:2e:
                    56:fc:39:68:74:05:39:1f:04:09:50:db:17:bf:7f:
                    0f:dc:26:b6:17:72:98:1c:31:66:34:cb:b8:48:81:
                    67:33:4f:c2:2a:7f:ab:1a:14:83:66:80:e6:62:ac:
                    b9:a3:cd:2c:61:ba:74:37:18:ca:01:9b:b3:55:5a:
                    14:95:b3:46:a5:86:ad:ca:cb:14:e3:91:1b:77:6a:
                    1c:4f:22:8b:7d:f3:7a:82:d9:e9:16:2d:21:a3:8d:
                    9b:5f:02:77:24:df:10:aa:c4:a5:f6:b8:8a:50:46:
                    4f:0c:d8:d9:67:18:87:a8:87:47:ee:85:bc:42:50:
                    ba:55:32:f7:8e:44:56:8c:5a:8b:0f:4e:37:5a:25:
                    e2:b5:2a:1c:de:5c:85:10:75:e2:15:63:be:99:9e:
                    ad:46:cd:cb:e4:10:f7:e7:38:66:ab:54:03:f5:c7:
                    81:32:2c:a9:33:0e:b7:bc:91:f6:3e:05:4e:48:93:
                    4a:82:1a:90:1c:02:3a:f0:74:61:74:8e:e9:86:d4:
                    54:2c:fd:7d:90:e3:2f:95:aa:84:7e:31:e2:03:e6:
                    4a:bd:da:19:36:24:ca:94:0f:52:0d:b6:b3:01:7c:
                    17:b0:82:0f:ac:54:6b:a2:ce:1a:c7:74:7e:6c:74:
                    31:b9:a5:49:c7:b5:f6:ce:52:95:45:97:5f:fa:9f:
                    dd:60:0b:9e:41:f0:07:83:fa:b8:ee:6c:23:1b:11:
                    3d:7d:0f:bd:6f:7f:69:3f:77:73:86:23:f5:f9:3f:
                    be:7b:af:33:24:4b:ba:33:04:76:16:8a:64:ff:11:
                    33:61:af:6c:4c:32:32:5e:24:27:60:1a:19:10:d5:
                    e4:52:5a:cc:16:31:7d:7d:c4:d7:fa:39:05:d7:76:
                    87:48:ef:02:df:55:b9:71:d6:56:be:be:61:93:9f:
                    6d:ee:62:83:da:04:85:2c:fa:a2:1a:32:0f:65:08:
                    a6:3d:81:a8:05:b5:43:61:52:16:db:30:0f:2b:0e:
                    ca:c5:3d:7f:66:a8:34:3a:3b:de:71:2d:85:32:d1:
                    30:44:7a:a6:e8:22:57:db:5d:19:d4:fc:24:13:e0:
                    bf:47:b1:db:2a:e2:ba:74:e0:39:c4:35:71:9b:f6:
                    af:03:52:2d:95:ab:31:75:ed:26:a1:08:5c:30:7e:
                    8e:0b:b1
                Exponent: 65537 (0x10001)
        X509v3 extensions:
            X509v3 Basic Constraints: 
                CA:FALSE
            Netscape Comment: 
                Easy-RSA Generated Certificate
            X509v3 Subject Key Identifier: 
                93:E6:63:DD:46:80:FE:64:51:E3:30:05:EE:35:25:22:91:6F:FF:4E
            X509v3 Authority Key Identifier: 
                keyid:EF:38:8D:14:50:58:A7:5B:4D:9C:17:72:FC:DF:B9:AC:A7:51:B0:10
                DirName:/C=US/ST=CA/L=SanFrancisco/O=Pixglo, Inc./OU=VPN-CIE/CN=tunnel.pixglo.com/name=Bala Chandrasekaran/emailAddress=bala@pixglo.com
                serial:A6:DB:C6:83:80:E6:A0:79

            X509v3 Extended Key Usage: 
                TLS Web Client Authentication
            X509v3 Key Usage: 
                Digital Signature
    Signature Algorithm: sha1WithRSAEncryption
         e2:fd:6c:7d:e8:22:6b:a9:0b:52:29:bc:f7:2b:28:3f:23:bb:
         84:26:ee:38:7a:72:85:06:b1:c5:70:ba:b9:ac:8c:76:f9:60:
         a0:08:6c:d4:e7:e5:df:18:4c:98:c0:81:d2:02:ed:7c:5b:7c:
         65:7b:fc:0c:ef:3e:06:35:f9:8b:ad:cd:33:07:d7:bf:5c:2f:
         41:53:cc:c8:0d:07:bb:83:9d:99:f7:de:3e:84:64:c5:03:bb:
         4a:05:5f:07:3a:5f:e3:db:ef:7e:c2:13:72:56:c7:08:69:c5:
         d7:94:39:da:6d:4a:76:65:71:a2:57:a0:6a:79:42:4a:7d:82:
         14:bb:bf:b3:f5:2b:81:bc:9c:56:5f:03:e5:eb:56:9e:5c:ca:
         41:b3:04:ab:d4:76:cd:fb:38:fa:e6:94:45:83:79:cb:61:c5:
         4e:5d:a2:8b:71:78:9e:8c:cb:4a:b4:4a:a2:32:6f:9c:cb:3a:
         2b:ab:6b:06:2f:f9:5b:84:9f:37:e9:0a:14:af:aa:fd:f2:e7:
         15:95:d7:1e:c6:d9:87:8f:85:fb:69:83:51:a2:32:92:76:04:
         22:f6:be:8f:ff:18:e2:3a:c8:2a:5b:ce:28:aa:13:c5:4a:23:
         16:b5:38:56:e4:0c:aa:d9:4e:cc:2b:de:b4:0b:a8:a6:9e:5f:
         35:2e:a8:53:0f:c8:15:eb:df:0b:2b:c0:a3:fc:5b:a3:28:f1:
         80:90:d8:20:fd:cb:08:b5:a3:98:40:88:f6:97:be:eb:db:15:
         b7:57:69:15:b0:fc:10:ac:fa:3b:30:48:8c:b9:67:f4:53:79:
         53:2a:3e:21:b8:3a:a6:b9:54:64:0e:8e:c1:0e:19:a7:e3:76:
         ad:da:94:32:02:da:78:5e:00:3a:d8:41:2a:b7:e2:91:97:55:
         a9:d3:da:6d:25:06:3c:29:fa:8f:bf:00:06:a9:44:8e:e3:70:
         8a:f4:26:4b:da:8c:5e:cb:26:97:c4:ed:45:17:36:46:b3:59:
         c7:89:d7:74:c5:f8:6b:70:c4:15:14:7a:69:19:43:3b:b6:3b:
         5c:af:5f:55:b4:1c:ca:6b:80:98:3a:76:9a:e8:62:e7:c5:b0:
         f4:f2:59:43:d4:96:27:3b:2f:ba:7f:39:40:6b:ea:85:c0:b4:
         b5:5f:33:1e:7b:17:dc:53:6f:54:5e:79:09:c8:17:23:60:b0:
         f0:0d:d8:60:72:c8:fd:58:cd:7b:38:40:5b:04:4c:f1:10:55:
         72:68:94:b6:c1:84:a4:b8:37:63:1d:c4:4d:22:22:cf:34:31:
         48:84:3e:f9:4e:0e:23:b6:eb:35:45:e5:c8:0b:a4:ff:6c:aa:
         c4:32:e5:40:63:d1:1b:c1
-----BEGIN CERTIFICATE-----
MIIHSDCCBTCgAwIBAgICAJswDQYJKoZIhvcNAQEFBQAwgbQxCzAJBgNVBAYTAlVT
MQswCQYDVQQIEwJDQTEVMBMGA1UEBxMMU2FuRnJhbmNpc2NvMRUwEwYDVQQKEwxQ
aXhnbG8sIEluYy4xEDAOBgNVBAsTB1ZQTi1DSUUxGjAYBgNVBAMTEXR1bm5lbC5w
aXhnbG8uY29tMRwwGgYDVQQpExNCYWxhIENoYW5kcmFzZWthcmFuMR4wHAYJKoZI
hvcNAQkBFg9iYWxhQHBpeGdsby5jb20wHhcNMTgwMjE0MDYyNjIwWhcNMjgwMjEy
MDYyNjIwWjCBqTELMAkGA1UEBhMCVVMxCzAJBgNVBAgTAkNBMRUwEwYDVQQHEwxT
YW5GcmFuY2lzY28xFTATBgNVBAoTDFBpeGdsbywgSW5jLjEQMA4GA1UECxMHVlBO
LUNJRTEPMA0GA1UEAxMGY2llMTU0MRwwGgYDVQQpExNCYWxhIENoYW5kcmFzZWth
cmFuMR4wHAYJKoZIhvcNAQkBFg9iYWxhQHBpeGdsby5jb20wggIiMA0GCSqGSIb3
DQEBAQUAA4ICDwAwggIKAoICAQD471UyhbZMq5gviqHf/5M6nTHq/vBH2rjswcl6
fXUV0KZt1J9gbQT8oqbDfF7QcN/KqoMpkbXgvYnsG/TPkAl6HhYElR9wTvBQLlb8
OWh0BTkfBAlQ2xe/fw/cJrYXcpgcMWY0y7hIgWczT8Iqf6saFINmgOZirLmjzSxh
unQ3GMoBm7NVWhSVs0alhq3KyxTjkRt3ahxPIot983qC2ekWLSGjjZtfAnck3xCq
xKX2uIpQRk8M2NlnGIeoh0fuhbxCULpVMveORFaMWosPTjdaJeK1KhzeXIUQdeIV
Y76Znq1GzcvkEPfnOGarVAP1x4EyLKkzDre8kfY+BU5Ik0qCGpAcAjrwdGF0jumG
1FQs/X2Q4y+VqoR+MeID5kq92hk2JMqUD1INtrMBfBewgg+sVGuizhrHdH5sdDG5
pUnHtfbOUpVFl1/6n91gC55B8AeD+rjubCMbET19D71vf2k/d3OGI/X5P757rzMk
S7ozBHYWimT/ETNhr2xMMjJeJCdgGhkQ1eRSWswWMX19xNf6OQXXdodI7wLfVblx
1la+vmGTn23uYoPaBIUs+qIaMg9lCKY9gagFtUNhUhbbMA8rDsrFPX9mqDQ6O95x
LYUy0TBEeqboIlfbXRnU/CQT4L9Hsdsq4rp04DnENXGb9q8DUi2VqzF17SahCFww
fo4LsQIDAQABo4IBazCCAWcwCQYDVR0TBAIwADAtBglghkgBhvhCAQ0EIBYeRWFz
eS1SU0EgR2VuZXJhdGVkIENlcnRpZmljYXRlMB0GA1UdDgQWBBST5mPdRoD+ZFHj
MAXuNSUikW//TjCB6QYDVR0jBIHhMIHegBTvOI0UUFinW02cF3L837msp1GwEKGB
uqSBtzCBtDELMAkGA1UEBhMCVVMxCzAJBgNVBAgTAkNBMRUwEwYDVQQHEwxTYW5G
cmFuY2lzY28xFTATBgNVBAoTDFBpeGdsbywgSW5jLjEQMA4GA1UECxMHVlBOLUNJ
RTEaMBgGA1UEAxMRdHVubmVsLnBpeGdsby5jb20xHDAaBgNVBCkTE0JhbGEgQ2hh
bmRyYXNla2FyYW4xHjAcBgkqhkiG9w0BCQEWD2JhbGFAcGl4Z2xvLmNvbYIJAKbb
xoOA5qB5MBMGA1UdJQQMMAoGCCsGAQUFBwMCMAsGA1UdDwQEAwIHgDANBgkqhkiG
9w0BAQUFAAOCAgEA4v1sfegia6kLUim89ysoPyO7hCbuOHpyhQaxxXC6uayMdvlg
oAhs1Ofl3xhMmMCB0gLtfFt8ZXv8DO8+BjX5i63NMwfXv1wvQVPMyA0Hu4Odmffe
PoRkxQO7SgVfBzpf49vvfsITclbHCGnF15Q52m1KdmVxoleganlCSn2CFLu/s/Ur
gbycVl8D5etWnlzKQbMEq9R2zfs4+uaURYN5y2HFTl2ii3F4nozLSrRKojJvnMs6
K6trBi/5W4SfN+kKFK+q/fLnFZXXHsbZh4+F+2mDUaIyknYEIva+j/8Y4jrIKlvO
KKoTxUojFrU4VuQMqtlOzCvetAuopp5fNS6oUw/IFevfCyvAo/xboyjxgJDYIP3L
CLWjmECI9pe+69sVt1dpFbD8EKz6OzBIjLln9FN5Uyo+Ibg6prlUZA6OwQ4Zp+N2
rdqUMgLaeF4AOthBKrfikZdVqdPabSUGPCn6j78ABqlEjuNwivQmS9qMXssml8Tt
RRc2RrNZx4nXdMX4a3DEFRR6aRlDO7Y7XK9fVbQcymuAmDp2muhi58Ww9PJZQ9SW
Jzsvun85QGvqhcC0tV8zHnsX3FNvVF55CcgXI2Cw8A3YYHLI/VjNezhAWwRM8RBV
cmiUtsGEpLg3Yx3ETSIizzQxSIQ++U4OI7brNUXlyAuk/2yqxDLlQGPRG8E=
-----END CERTIFICATE-----
