Certificate:
    Data:
        Version: 3 (0x2)
        Serial Number: 158 (0x9e)
    Signature Algorithm: sha1WithRSAEncryption
        Issuer: C=US, ST=CA, L=SanFrancisco, O=Pixglo, Inc., OU=VPN-CIE, CN=tunnel.pixglo.com/name=Bala Chandrasekaran/emailAddress=bala@pixglo.com
        Validity
            Not Before: Feb 14 06:26:21 2018 GMT
            Not After : Feb 12 06:26:21 2028 GMT
        Subject: C=US, ST=CA, L=SanFrancisco, O=Pixglo, Inc., OU=VPN-CIE, CN=cie157/name=Bala Chandrasekaran/emailAddress=bala@pixglo.com
        Subject Public Key Info:
            Public Key Algorithm: rsaEncryption
                Public-Key: (4096 bit)
                Modulus:
                    00:c8:b3:1c:ad:fc:c8:b9:3b:d7:20:fa:24:5e:e9:
                    3a:e8:b2:1e:81:3b:7f:ee:53:f5:d3:1d:50:ae:ae:
                    a3:bd:07:87:dc:c8:fe:46:a1:51:a2:1b:5e:fa:01:
                    86:ad:d6:14:79:91:2a:79:35:55:31:66:d5:9e:71:
                    90:a0:6a:5b:98:dd:aa:46:8b:2d:cd:d4:4d:6d:af:
                    fd:fb:57:5f:0f:33:73:f0:98:98:3b:d1:09:a0:cc:
                    31:8b:41:17:91:f6:b5:e9:8e:1d:06:eb:12:ab:8d:
                    f0:7b:f6:f8:6f:03:2d:5a:65:bc:37:e7:f6:fc:2f:
                    e3:b0:7b:8a:16:5e:81:f7:7d:00:1f:b5:f3:60:84:
                    da:3f:e4:ba:78:18:d2:2c:49:54:ee:f6:21:43:5b:
                    c6:38:b6:47:c6:74:75:43:a4:cb:6b:10:20:97:5a:
                    89:e3:f5:ea:1c:83:59:f5:f7:f6:9f:7d:ca:24:cf:
                    86:d1:a3:8d:62:94:83:1c:de:51:aa:62:80:65:82:
                    2c:73:7a:2b:cf:57:1f:81:21:87:98:0f:99:e4:1b:
                    35:20:71:35:e1:cd:9e:56:f7:0f:1e:91:9e:38:bb:
                    ed:c9:f7:d3:82:9a:c8:17:2b:6c:5d:0e:d6:83:65:
                    98:95:26:10:22:87:4f:84:1a:52:a9:8c:98:f3:a3:
                    62:46:69:9a:76:02:ce:90:ad:ec:17:a6:c6:96:59:
                    c4:e0:2c:6e:df:ff:5b:be:af:43:f9:5d:b6:97:58:
                    85:75:62:4b:57:af:be:85:17:52:9b:24:c3:3d:6a:
                    4f:c2:60:8d:bb:c1:38:6c:d6:f2:d4:24:59:90:76:
                    d4:c9:a2:d9:3e:05:29:66:73:9e:67:9e:bb:41:5b:
                    a3:16:ce:ce:e9:4e:10:3c:6d:be:76:b0:36:1d:d2:
                    18:ea:2c:b4:23:d1:ce:49:4f:b6:af:e1:1f:c2:57:
                    a1:58:39:93:c1:9c:9b:08:56:35:ef:34:71:78:80:
                    f6:2a:39:2a:9e:71:3c:c4:60:45:e8:59:4e:69:ab:
                    ce:29:95:31:bf:10:26:a1:34:ee:6a:1a:11:13:33:
                    40:e2:29:03:63:1d:ac:73:f5:f0:91:af:cc:9b:75:
                    dc:7e:47:72:5a:83:c9:a5:d4:17:7a:6d:fe:84:e7:
                    20:b7:ca:70:e7:a7:cc:68:f9:eb:65:41:44:03:46:
                    23:b8:96:4c:29:f8:09:f5:3b:60:89:74:97:9d:50:
                    a7:3d:c1:93:70:5c:8f:2b:00:aa:f7:ad:5a:f2:8a:
                    ca:a8:93:38:29:a7:4d:55:75:4f:1f:1f:4f:ea:b2:
                    10:9c:76:c6:af:5b:78:ee:cc:14:0c:4f:7a:ab:0f:
                    b5:b1:67
                Exponent: 65537 (0x10001)
        X509v3 extensions:
            X509v3 Basic Constraints: 
                CA:FALSE
            Netscape Comment: 
                Easy-RSA Generated Certificate
            X509v3 Subject Key Identifier: 
                6C:8A:70:A4:2F:F9:27:9B:80:D5:27:9B:67:5C:F2:A1:06:5C:5C:4A
            X509v3 Authority Key Identifier: 
                keyid:EF:38:8D:14:50:58:A7:5B:4D:9C:17:72:FC:DF:B9:AC:A7:51:B0:10
                DirName:/C=US/ST=CA/L=SanFrancisco/O=Pixglo, Inc./OU=VPN-CIE/CN=tunnel.pixglo.com/name=Bala Chandrasekaran/emailAddress=bala@pixglo.com
                serial:A6:DB:C6:83:80:E6:A0:79

            X509v3 Extended Key Usage: 
                TLS Web Client Authentication
            X509v3 Key Usage: 
                Digital Signature
    Signature Algorithm: sha1WithRSAEncryption
         8c:15:44:4c:ae:96:73:3b:9b:94:1a:89:e9:32:82:7e:34:d9:
         ce:c6:7c:94:9f:72:3d:32:32:c8:82:0a:b3:1f:4d:27:2e:a3:
         46:b6:73:e5:f9:54:bc:dd:3a:71:b8:91:d5:4b:80:bb:a4:43:
         9c:78:0f:5e:90:bc:05:76:f9:18:59:76:58:39:52:0b:07:b0:
         a9:2d:b7:16:6b:cb:b8:27:90:c9:ad:8d:bb:86:b5:4d:ae:58:
         25:39:94:7d:55:30:77:9d:3a:e6:9d:a0:a3:e8:f9:96:05:3d:
         ba:be:3d:ca:b2:b4:85:3a:08:87:44:80:e3:5c:6d:55:87:db:
         15:75:6b:ab:09:65:de:14:df:9c:ca:1f:a5:a4:26:0c:c2:33:
         3e:02:53:38:d8:4a:ad:77:64:a7:38:02:38:7a:a8:69:2c:d5:
         38:22:4e:47:c5:a0:bf:d2:b5:c5:71:e0:44:40:67:3a:bd:6e:
         f8:4d:22:68:74:90:56:d9:76:ae:06:1d:98:1f:65:77:3e:f1:
         b6:be:63:45:3f:7f:52:3a:fd:c1:54:4a:42:ad:a0:a2:c3:17:
         56:86:3a:c0:34:36:92:59:b2:02:d8:41:55:62:cd:ef:77:a0:
         6f:e4:59:89:ea:34:f5:4f:53:46:92:bb:4a:0f:39:15:aa:36:
         f8:1b:ac:3c:d0:37:74:cd:bc:06:3f:cc:86:f5:c3:9a:b8:a0:
         20:09:ee:e3:9b:43:e6:37:a9:0c:13:31:de:13:ac:3e:b8:29:
         75:14:3c:4a:32:8f:63:66:5d:38:74:0c:da:06:9e:f7:1c:50:
         0e:79:c1:ee:2c:0b:e6:79:60:e8:e1:e6:c5:e5:e9:de:1f:56:
         e7:a3:6b:f3:e6:0e:fd:75:ea:35:27:75:23:17:24:7b:ba:75:
         c4:0b:bd:ab:ed:f1:41:f9:1b:73:38:51:f6:7f:bc:22:fa:70:
         1a:9e:b4:80:d8:1a:32:e5:e7:9f:98:cc:ec:1c:99:74:41:f7:
         f2:41:fc:19:ff:6e:d4:d1:73:9b:a0:95:8a:59:76:a4:dc:73:
         f4:14:f9:15:6d:12:e5:e6:f0:04:59:c0:94:bd:ec:9b:9b:e7:
         03:11:64:58:ce:7a:b0:83:5b:f2:a3:64:b1:6b:1a:49:c4:0b:
         72:1e:43:ae:e6:87:3a:6b:b4:14:45:a9:9a:2d:93:cc:67:13:
         76:1a:eb:30:8b:e7:92:82:15:24:eb:c2:3f:82:af:79:e8:0f:
         bb:bb:23:58:2a:23:60:a3:42:f4:9a:05:56:74:bb:76:33:30:
         2f:e9:da:98:d7:36:79:f2:0a:e4:aa:e7:48:39:c3:fd:80:29:
         62:53:6d:1e:c2:eb:16:d2
-----BEGIN CERTIFICATE-----
MIIHSDCCBTCgAwIBAgICAJ4wDQYJKoZIhvcNAQEFBQAwgbQxCzAJBgNVBAYTAlVT
MQswCQYDVQQIEwJDQTEVMBMGA1UEBxMMU2FuRnJhbmNpc2NvMRUwEwYDVQQKEwxQ
aXhnbG8sIEluYy4xEDAOBgNVBAsTB1ZQTi1DSUUxGjAYBgNVBAMTEXR1bm5lbC5w
aXhnbG8uY29tMRwwGgYDVQQpExNCYWxhIENoYW5kcmFzZWthcmFuMR4wHAYJKoZI
hvcNAQkBFg9iYWxhQHBpeGdsby5jb20wHhcNMTgwMjE0MDYyNjIxWhcNMjgwMjEy
MDYyNjIxWjCBqTELMAkGA1UEBhMCVVMxCzAJBgNVBAgTAkNBMRUwEwYDVQQHEwxT
YW5GcmFuY2lzY28xFTATBgNVBAoTDFBpeGdsbywgSW5jLjEQMA4GA1UECxMHVlBO
LUNJRTEPMA0GA1UEAxMGY2llMTU3MRwwGgYDVQQpExNCYWxhIENoYW5kcmFzZWth
cmFuMR4wHAYJKoZIhvcNAQkBFg9iYWxhQHBpeGdsby5jb20wggIiMA0GCSqGSIb3
DQEBAQUAA4ICDwAwggIKAoICAQDIsxyt/Mi5O9cg+iRe6Trosh6BO3/uU/XTHVCu
rqO9B4fcyP5GoVGiG176AYat1hR5kSp5NVUxZtWecZCgaluY3apGiy3N1E1tr/37
V18PM3PwmJg70QmgzDGLQReR9rXpjh0G6xKrjfB79vhvAy1aZbw35/b8L+Owe4oW
XoH3fQAftfNghNo/5Lp4GNIsSVTu9iFDW8Y4tkfGdHVDpMtrECCXWonj9eocg1n1
9/affcokz4bRo41ilIMc3lGqYoBlgixzeivPVx+BIYeYD5nkGzUgcTXhzZ5W9w8e
kZ44u+3J99OCmsgXK2xdDtaDZZiVJhAih0+EGlKpjJjzo2JGaZp2As6QrewXpsaW
WcTgLG7f/1u+r0P5XbaXWIV1YktXr76FF1KbJMM9ak/CYI27wThs1vLUJFmQdtTJ
otk+BSlmc55nnrtBW6MWzs7pThA8bb52sDYd0hjqLLQj0c5JT7av4R/CV6FYOZPB
nJsIVjXvNHF4gPYqOSqecTzEYEXoWU5pq84plTG/ECahNO5qGhETM0DiKQNjHaxz
9fCRr8ybddx+R3Jag8ml1Bd6bf6E5yC3ynDnp8xo+etlQUQDRiO4lkwp+An1O2CJ
dJedUKc9wZNwXI8rAKr3rVryisqokzgpp01VdU8fH0/qshCcdsavW3juzBQMT3qr
D7WxZwIDAQABo4IBazCCAWcwCQYDVR0TBAIwADAtBglghkgBhvhCAQ0EIBYeRWFz
eS1SU0EgR2VuZXJhdGVkIENlcnRpZmljYXRlMB0GA1UdDgQWBBRsinCkL/knm4DV
J5tnXPKhBlxcSjCB6QYDVR0jBIHhMIHegBTvOI0UUFinW02cF3L837msp1GwEKGB
uqSBtzCBtDELMAkGA1UEBhMCVVMxCzAJBgNVBAgTAkNBMRUwEwYDVQQHEwxTYW5G
cmFuY2lzY28xFTATBgNVBAoTDFBpeGdsbywgSW5jLjEQMA4GA1UECxMHVlBOLUNJ
RTEaMBgGA1UEAxMRdHVubmVsLnBpeGdsby5jb20xHDAaBgNVBCkTE0JhbGEgQ2hh
bmRyYXNla2FyYW4xHjAcBgkqhkiG9w0BCQEWD2JhbGFAcGl4Z2xvLmNvbYIJAKbb
xoOA5qB5MBMGA1UdJQQMMAoGCCsGAQUFBwMCMAsGA1UdDwQEAwIHgDANBgkqhkiG
9w0BAQUFAAOCAgEAjBVETK6WczublBqJ6TKCfjTZzsZ8lJ9yPTIyyIIKsx9NJy6j
RrZz5flUvN06cbiR1UuAu6RDnHgPXpC8BXb5GFl2WDlSCwewqS23FmvLuCeQya2N
u4a1Ta5YJTmUfVUwd5065p2go+j5lgU9ur49yrK0hToIh0SA41xtVYfbFXVrqwll
3hTfnMofpaQmDMIzPgJTONhKrXdkpzgCOHqoaSzVOCJOR8Wgv9K1xXHgREBnOr1u
+E0iaHSQVtl2rgYdmB9ldz7xtr5jRT9/Ujr9wVRKQq2gosMXVoY6wDQ2klmyAthB
VWLN73egb+RZieo09U9TRpK7Sg85Fao2+BusPNA3dM28Bj/MhvXDmrigIAnu45tD
5jepDBMx3hOsPrgpdRQ8SjKPY2ZdOHQM2gae9xxQDnnB7iwL5nlg6OHmxeXp3h9W
56Nr8+YO/XXqNSd1Ixcke7p1xAu9q+3xQfkbczhR9n+8IvpwGp60gNgaMuXnn5jM
7ByZdEH38kH8Gf9u1NFzm6CVill2pNxz9BT5FW0S5ebwBFnAlL3sm5vnAxFkWM56
sINb8qNksWsaScQLch5DruaHOmu0FEWpmi2TzGcTdhrrMIvnkoIVJOvCP4KveegP
u7sjWCojYKNC9JoFVnS7djMwL+namNc2efIK5KrnSDnD/YApYlNtHsLrFtI=
-----END CERTIFICATE-----
