Certificate:
    Data:
        Version: 3 (0x2)
        Serial Number: 163 (0xa3)
    Signature Algorithm: sha1WithRSAEncryption
        Issuer: C=US, ST=CA, L=SanFrancisco, O=Pixglo, Inc., OU=VPN-CIE, CN=tunnel.pixglo.com/name=Bala Chandrasekaran/emailAddress=bala@pixglo.com
        Validity
            Not Before: Feb 14 06:26:26 2018 GMT
            Not After : Feb 12 06:26:26 2028 GMT
        Subject: C=US, ST=CA, L=SanFrancisco, O=Pixglo, Inc., OU=VPN-CIE, CN=cie162/name=Bala Chandrasekaran/emailAddress=bala@pixglo.com
        Subject Public Key Info:
            Public Key Algorithm: rsaEncryption
                Public-Key: (4096 bit)
                Modulus:
                    00:e6:51:1b:5f:99:28:14:0e:87:2b:5a:67:2f:4e:
                    e4:da:c9:d6:9e:4c:d9:86:38:64:7c:a2:55:d2:bd:
                    60:12:e2:f8:01:4f:6c:0d:3d:f7:8f:e7:66:25:3c:
                    3f:ad:fc:50:1e:b9:96:0e:79:ba:31:58:2e:f1:f1:
                    14:1b:ff:bf:8a:00:32:3d:ec:31:e2:4b:34:63:61:
                    43:4c:4d:72:11:c3:e1:1c:a7:77:b4:54:92:47:95:
                    b1:42:20:90:82:4c:a7:85:77:8b:9e:2f:f1:42:e0:
                    22:c5:cf:4e:48:37:5b:0f:0f:72:3c:a4:d0:57:99:
                    52:dc:2c:31:76:15:b0:36:0c:da:2d:a0:f7:3c:b8:
                    de:ab:b1:77:d1:9e:78:9f:d7:2c:c1:07:b9:39:7e:
                    e6:ba:b0:6a:d0:7b:fd:ac:40:2d:51:f1:b2:b3:69:
                    67:a1:e0:c1:9e:e4:ff:90:da:cf:c9:c8:a6:84:fc:
                    ae:33:21:95:49:a6:f5:15:36:ed:42:29:bf:f5:c2:
                    fd:43:5d:3b:76:0e:7c:8f:63:fc:b8:ed:96:31:53:
                    ff:5f:d4:5c:75:79:c1:d5:b3:57:68:30:17:81:01:
                    16:5c:b3:18:95:92:0b:cc:b3:54:63:4b:18:a0:25:
                    d4:93:c6:0f:1c:e7:d9:19:e9:00:d3:6c:2a:5e:1d:
                    72:bd:6e:0a:97:66:71:eb:26:b9:cb:d1:18:e9:03:
                    32:ab:0e:4c:d8:ca:cb:a2:15:8c:b5:b8:24:42:de:
                    89:ad:6a:69:1d:30:72:5c:22:78:a4:a5:b8:77:8a:
                    50:58:29:1e:03:7f:45:b4:e8:6b:e3:9a:01:d9:a7:
                    28:6d:b2:9d:7c:c2:d0:18:88:69:bc:83:99:83:5a:
                    7d:8a:cd:8f:70:a0:38:e2:93:ca:88:f6:c2:4d:42:
                    aa:af:fc:82:29:b6:35:6e:71:bc:04:98:80:70:64:
                    69:16:1f:b3:17:a1:1c:5c:4d:cc:43:44:32:54:cc:
                    f4:e5:36:af:06:53:eb:b7:a9:7d:12:13:30:34:bd:
                    04:97:a8:da:51:0d:0b:6d:f3:e9:56:d2:d3:97:4d:
                    4e:84:78:3c:8b:65:1c:12:9f:f6:62:fd:06:a7:ee:
                    b0:c1:86:57:07:82:0b:83:34:bf:df:4a:ee:43:ff:
                    ea:3c:c1:a1:5b:5f:dc:da:c5:96:a0:ad:42:e8:b1:
                    6a:ae:c5:cb:9e:30:58:17:17:28:d9:4d:13:df:97:
                    bb:e8:ff:d8:f6:80:53:27:21:42:a4:a5:16:b0:e9:
                    27:2f:a4:5e:fc:0d:cf:cf:a7:56:b9:06:63:91:6a:
                    66:de:df:88:ec:1b:ea:6b:98:09:76:64:62:cc:61:
                    c2:9d:bf
                Exponent: 65537 (0x10001)
        X509v3 extensions:
            X509v3 Basic Constraints: 
                CA:FALSE
            Netscape Comment: 
                Easy-RSA Generated Certificate
            X509v3 Subject Key Identifier: 
                34:43:33:6E:9C:7E:79:AA:CB:2E:BA:4B:CF:DD:BD:C9:9A:A0:4D:77
            X509v3 Authority Key Identifier: 
                keyid:EF:38:8D:14:50:58:A7:5B:4D:9C:17:72:FC:DF:B9:AC:A7:51:B0:10
                DirName:/C=US/ST=CA/L=SanFrancisco/O=Pixglo, Inc./OU=VPN-CIE/CN=tunnel.pixglo.com/name=Bala Chandrasekaran/emailAddress=bala@pixglo.com
                serial:A6:DB:C6:83:80:E6:A0:79

            X509v3 Extended Key Usage: 
                TLS Web Client Authentication
            X509v3 Key Usage: 
                Digital Signature
    Signature Algorithm: sha1WithRSAEncryption
         38:27:66:6f:72:38:5f:54:2e:b2:05:38:b6:a1:25:5e:c2:81:
         80:54:da:2c:b4:6a:7a:90:69:db:be:d7:ff:9c:63:9d:bd:5e:
         cd:2f:59:58:72:88:7e:84:b3:6f:27:73:4f:ab:a6:02:93:7f:
         9c:5f:4a:e8:b8:57:2f:d0:50:55:42:96:f2:bb:56:ad:92:db:
         91:7e:90:43:f4:19:fd:03:7a:64:3d:b0:8e:e5:cc:95:e4:84:
         fe:49:b5:6d:39:c7:b8:ef:93:55:73:3a:58:33:46:50:fa:da:
         c2:2d:58:e6:62:73:ff:78:26:35:2d:07:17:a3:c7:64:97:d3:
         bd:b8:9e:55:6b:a7:34:2e:19:52:be:0b:a8:94:ce:c8:07:b8:
         2f:1c:f6:58:d8:3c:06:3a:37:7f:f8:b4:16:80:1f:91:26:75:
         a0:c3:07:25:da:94:7c:9f:17:1c:64:63:94:80:a2:c2:b1:76:
         d8:ab:f7:84:29:17:ba:a7:3f:a8:d1:8d:9b:ce:e8:9c:6a:f7:
         0d:27:f8:9b:82:e3:0c:88:c7:8e:8c:16:cb:27:d7:72:73:4a:
         84:33:bc:ee:5f:96:69:a8:eb:58:b1:ec:2f:9c:f9:79:bd:30:
         3c:35:83:15:87:7d:d5:11:1c:1b:a8:ed:b1:20:22:a2:56:69:
         29:1f:68:fa:89:1f:e5:b3:07:56:31:fe:25:22:23:89:02:35:
         73:18:7e:18:ab:39:fd:09:27:c7:e6:ac:af:66:7a:39:a1:62:
         b4:03:15:c4:b4:06:33:35:e5:d3:5c:c8:5c:79:72:e1:e5:5e:
         ce:36:de:91:fa:70:bb:6e:42:61:ee:10:a7:9a:4e:03:25:bb:
         9f:1f:25:c6:5e:87:f2:32:22:71:4f:9d:a7:6a:d9:c5:0f:f2:
         0c:46:be:1f:4c:3a:46:95:c3:c6:0c:7d:ec:3d:4d:9f:a7:ab:
         c7:dc:4e:bb:05:53:65:4a:06:de:30:19:56:e3:32:59:7f:1f:
         aa:85:78:bb:c9:4f:2f:33:81:5c:de:71:65:df:24:d0:56:d0:
         f9:c1:7b:d1:f4:95:c8:32:d4:26:21:66:69:0b:46:d0:2e:94:
         b6:20:9c:50:b9:ce:18:9a:ee:a8:06:e9:c1:05:f2:9b:58:8f:
         ad:86:ed:45:78:cc:37:23:08:55:c7:69:84:bd:d8:17:df:78:
         a4:8d:92:77:9b:d5:f7:df:11:ef:48:09:2e:f1:74:9d:98:79:
         60:f0:69:eb:e8:79:70:6f:98:99:2d:29:a4:93:69:40:c5:5b:
         cb:09:22:9b:81:b4:05:d5:55:c4:23:bb:a5:db:d0:28:38:c3:
         3e:16:b7:b5:dd:26:57:6f
-----BEGIN CERTIFICATE-----
MIIHSDCCBTCgAwIBAgICAKMwDQYJKoZIhvcNAQEFBQAwgbQxCzAJBgNVBAYTAlVT
MQswCQYDVQQIEwJDQTEVMBMGA1UEBxMMU2FuRnJhbmNpc2NvMRUwEwYDVQQKEwxQ
aXhnbG8sIEluYy4xEDAOBgNVBAsTB1ZQTi1DSUUxGjAYBgNVBAMTEXR1bm5lbC5w
aXhnbG8uY29tMRwwGgYDVQQpExNCYWxhIENoYW5kcmFzZWthcmFuMR4wHAYJKoZI
hvcNAQkBFg9iYWxhQHBpeGdsby5jb20wHhcNMTgwMjE0MDYyNjI2WhcNMjgwMjEy
MDYyNjI2WjCBqTELMAkGA1UEBhMCVVMxCzAJBgNVBAgTAkNBMRUwEwYDVQQHEwxT
YW5GcmFuY2lzY28xFTATBgNVBAoTDFBpeGdsbywgSW5jLjEQMA4GA1UECxMHVlBO
LUNJRTEPMA0GA1UEAxMGY2llMTYyMRwwGgYDVQQpExNCYWxhIENoYW5kcmFzZWth
cmFuMR4wHAYJKoZIhvcNAQkBFg9iYWxhQHBpeGdsby5jb20wggIiMA0GCSqGSIb3
DQEBAQUAA4ICDwAwggIKAoICAQDmURtfmSgUDocrWmcvTuTaydaeTNmGOGR8olXS
vWAS4vgBT2wNPfeP52YlPD+t/FAeuZYOeboxWC7x8RQb/7+KADI97DHiSzRjYUNM
TXIRw+Ecp3e0VJJHlbFCIJCCTKeFd4ueL/FC4CLFz05IN1sPD3I8pNBXmVLcLDF2
FbA2DNotoPc8uN6rsXfRnnif1yzBB7k5fua6sGrQe/2sQC1R8bKzaWeh4MGe5P+Q
2s/JyKaE/K4zIZVJpvUVNu1CKb/1wv1DXTt2DnyPY/y47ZYxU/9f1Fx1ecHVs1do
MBeBARZcsxiVkgvMs1RjSxigJdSTxg8c59kZ6QDTbCpeHXK9bgqXZnHrJrnL0Rjp
AzKrDkzYysuiFYy1uCRC3omtamkdMHJcInikpbh3ilBYKR4Df0W06GvjmgHZpyht
sp18wtAYiGm8g5mDWn2KzY9woDjik8qI9sJNQqqv/IIptjVucbwEmIBwZGkWH7MX
oRxcTcxDRDJUzPTlNq8GU+u3qX0SEzA0vQSXqNpRDQtt8+lW0tOXTU6EeDyLZRwS
n/Zi/Qan7rDBhlcHgguDNL/fSu5D/+o8waFbX9zaxZagrULosWquxcueMFgXFyjZ
TRPfl7vo/9j2gFMnIUKkpRaw6ScvpF78Dc/Pp1a5BmORambe34jsG+prmAl2ZGLM
YcKdvwIDAQABo4IBazCCAWcwCQYDVR0TBAIwADAtBglghkgBhvhCAQ0EIBYeRWFz
eS1SU0EgR2VuZXJhdGVkIENlcnRpZmljYXRlMB0GA1UdDgQWBBQ0QzNunH55qssu
ukvP3b3JmqBNdzCB6QYDVR0jBIHhMIHegBTvOI0UUFinW02cF3L837msp1GwEKGB
uqSBtzCBtDELMAkGA1UEBhMCVVMxCzAJBgNVBAgTAkNBMRUwEwYDVQQHEwxTYW5G
cmFuY2lzY28xFTATBgNVBAoTDFBpeGdsbywgSW5jLjEQMA4GA1UECxMHVlBOLUNJ
RTEaMBgGA1UEAxMRdHVubmVsLnBpeGdsby5jb20xHDAaBgNVBCkTE0JhbGEgQ2hh
bmRyYXNla2FyYW4xHjAcBgkqhkiG9w0BCQEWD2JhbGFAcGl4Z2xvLmNvbYIJAKbb
xoOA5qB5MBMGA1UdJQQMMAoGCCsGAQUFBwMCMAsGA1UdDwQEAwIHgDANBgkqhkiG
9w0BAQUFAAOCAgEAOCdmb3I4X1QusgU4tqElXsKBgFTaLLRqepBp277X/5xjnb1e
zS9ZWHKIfoSzbydzT6umApN/nF9K6LhXL9BQVUKW8rtWrZLbkX6QQ/QZ/QN6ZD2w
juXMleSE/km1bTnHuO+TVXM6WDNGUPrawi1Y5mJz/3gmNS0HF6PHZJfTvbieVWun
NC4ZUr4LqJTOyAe4Lxz2WNg8Bjo3f/i0FoAfkSZ1oMMHJdqUfJ8XHGRjlICiwrF2
2Kv3hCkXuqc/qNGNm87onGr3DSf4m4LjDIjHjowWyyfXcnNKhDO87l+WaajrWLHs
L5z5eb0wPDWDFYd91REcG6jtsSAiolZpKR9o+okf5bMHVjH+JSIjiQI1cxh+GKs5
/Qknx+asr2Z6OaFitAMVxLQGMzXl01zIXHly4eVezjbekfpwu25CYe4Qp5pOAyW7
nx8lxl6H8jIicU+dp2rZxQ/yDEa+H0w6RpXDxgx97D1Nn6erx9xOuwVTZUoG3jAZ
VuMyWX8fqoV4u8lPLzOBXN5xZd8k0FbQ+cF70fSVyDLUJiFmaQtG0C6UtiCcULnO
GJruqAbpwQXym1iPrYbtRXjMNyMIVcdphL3YF994pI2Sd5vV998R70gJLvF0nZh5
YPBp6+h5cG+YmS0ppJNpQMVbywkim4G0BdVVxCO7pdvQKDjDPha3td0mV28=
-----END CERTIFICATE-----
