Certificate:
    Data:
        Version: 3 (0x2)
        Serial Number: 166 (0xa6)
    Signature Algorithm: sha1WithRSAEncryption
        Issuer: C=US, ST=CA, L=SanFrancisco, O=Pixglo, Inc., OU=VPN-CIE, CN=tunnel.pixglo.com/name=Bala Chandrasekaran/emailAddress=bala@pixglo.com
        Validity
            Not Before: Feb 14 06:26:28 2018 GMT
            Not After : Feb 12 06:26:28 2028 GMT
        Subject: C=US, ST=CA, L=SanFrancisco, O=Pixglo, Inc., OU=VPN-CIE, CN=cie165/name=Bala Chandrasekaran/emailAddress=bala@pixglo.com
        Subject Public Key Info:
            Public Key Algorithm: rsaEncryption
                Public-Key: (4096 bit)
                Modulus:
                    00:ca:bf:3e:ab:a7:cb:ab:76:10:16:b3:f6:79:14:
                    c2:6c:58:34:2d:07:91:fb:15:b3:82:85:50:1f:0a:
                    a0:12:f9:e2:24:b1:18:ef:0f:24:0d:48:64:b1:37:
                    9e:d2:3a:84:2b:09:3b:a5:fb:0a:4e:93:3a:39:9c:
                    6e:ba:1f:ad:99:30:c1:a6:1e:0b:69:e6:99:62:ea:
                    0c:ec:fd:38:b7:a0:16:16:88:15:22:94:fa:58:1a:
                    82:3f:e2:8c:de:e7:ec:ac:b8:bb:af:dc:f4:9c:08:
                    05:a3:fe:2a:87:5d:48:66:cc:d0:4a:70:25:15:b5:
                    7c:31:52:c2:bf:cf:23:f4:e9:3e:e3:4b:c7:f3:f7:
                    6e:22:c9:6f:ca:16:98:ad:1f:d8:d4:0e:76:ed:6d:
                    94:bd:fa:18:1b:fc:24:cd:ba:07:59:20:ba:24:5d:
                    fe:2d:ae:c5:c8:ab:65:3b:38:a3:9b:68:8f:d2:eb:
                    ca:0c:6e:25:b9:65:45:f7:db:2e:9e:e6:1c:ad:d1:
                    47:30:ec:10:6b:91:53:33:9d:df:24:eb:85:99:ca:
                    44:2d:2b:12:2c:24:fd:9b:80:d9:0f:ce:29:9a:e3:
                    46:94:f0:93:06:db:6f:84:51:71:e4:fb:e3:f3:02:
                    aa:ca:09:df:2e:12:32:a5:d4:1e:c8:4c:9c:fa:48:
                    98:0f:c4:31:15:c7:70:37:95:e2:ba:84:3a:52:98:
                    d0:6f:c1:69:e6:2f:a4:2e:31:28:f6:f2:2e:b7:ef:
                    86:8b:74:a8:fd:c6:77:72:8d:e2:c3:de:cb:2b:69:
                    9d:ca:2f:26:d4:6f:5c:3b:ce:18:a2:81:8d:cf:2a:
                    ae:db:11:15:a6:22:14:2e:77:b1:51:de:bf:77:36:
                    6c:15:b8:74:8e:09:55:9f:b0:fd:14:f1:11:f1:5e:
                    74:c3:b7:11:b8:3d:c8:0f:87:36:17:9d:82:85:d4:
                    27:95:6b:fd:f8:b1:27:30:35:c3:2d:8a:12:d4:fd:
                    9d:5e:5d:2b:6f:f4:aa:42:f1:1b:6e:f7:d5:d9:b8:
                    48:98:3a:78:9d:a5:4c:f7:8d:22:ca:06:50:88:31:
                    18:36:04:cd:fa:b2:1e:57:a6:3c:1c:ee:4d:e3:58:
                    4d:9a:04:67:71:77:95:3e:e9:c7:df:20:3d:48:73:
                    24:83:9e:68:e0:f6:8c:df:ed:b2:aa:29:97:ca:77:
                    74:45:62:45:a8:b3:fc:1b:46:9a:91:b2:f1:30:73:
                    2c:95:87:b8:02:6e:49:c1:83:d9:a3:0a:9b:a4:02:
                    2b:de:87:17:cb:b7:59:2a:e9:bd:70:a5:b1:1c:3a:
                    8a:82:da:ea:17:43:92:1f:79:61:4c:c6:cb:08:aa:
                    e7:fd:bd
                Exponent: 65537 (0x10001)
        X509v3 extensions:
            X509v3 Basic Constraints: 
                CA:FALSE
            Netscape Comment: 
                Easy-RSA Generated Certificate
            X509v3 Subject Key Identifier: 
                17:92:26:4D:AD:24:BF:13:93:B5:B2:3C:33:FB:02:0C:AC:71:0D:7E
            X509v3 Authority Key Identifier: 
                keyid:EF:38:8D:14:50:58:A7:5B:4D:9C:17:72:FC:DF:B9:AC:A7:51:B0:10
                DirName:/C=US/ST=CA/L=SanFrancisco/O=Pixglo, Inc./OU=VPN-CIE/CN=tunnel.pixglo.com/name=Bala Chandrasekaran/emailAddress=bala@pixglo.com
                serial:A6:DB:C6:83:80:E6:A0:79

            X509v3 Extended Key Usage: 
                TLS Web Client Authentication
            X509v3 Key Usage: 
                Digital Signature
    Signature Algorithm: sha1WithRSAEncryption
         76:52:ba:e1:1f:01:d3:29:97:db:c7:3f:e3:20:7b:13:06:44:
         e5:3b:52:ef:8e:52:90:b6:49:d0:50:a2:20:28:ec:41:f8:a8:
         92:b9:72:55:27:c1:65:9a:52:c9:c3:dd:47:aa:7e:8c:32:df:
         07:a9:7e:c0:e7:36:99:56:48:cd:2c:a5:ff:a7:1a:25:d9:17:
         79:29:d0:a0:48:59:5f:39:e2:43:da:07:2a:f6:9c:92:d0:a8:
         5e:5d:4b:90:95:51:c1:64:f7:09:c8:b2:5b:77:89:c5:4d:a7:
         7f:48:42:c0:dd:6c:ce:23:23:55:44:08:c3:3f:7f:b6:4d:3c:
         11:72:38:cd:d7:90:d7:a5:49:a7:04:f6:bd:8d:49:f0:8f:e4:
         af:4a:01:3a:bc:87:ba:99:79:12:d7:b7:9f:14:12:9f:12:83:
         34:4b:2a:6c:64:c9:bb:b9:6e:fe:23:ee:e6:ae:39:0c:35:46:
         02:68:99:36:80:1d:0d:20:ff:67:65:4a:3d:e5:98:96:d0:da:
         38:95:2c:7a:90:c3:68:91:9e:31:52:76:90:99:d6:f4:52:a9:
         9f:9b:c8:59:26:4d:f2:68:04:52:31:8c:f7:f0:0a:25:9c:de:
         7c:f2:96:97:e7:76:c1:86:52:a4:72:fd:e0:f7:90:10:a7:9e:
         f6:79:e9:92:87:eb:53:54:13:9b:57:cb:65:1b:0f:8e:e4:35:
         3a:97:51:54:2c:80:84:a1:08:63:7b:d6:d1:ff:c8:19:8d:5d:
         84:78:11:2c:75:ab:04:41:c6:2c:b5:b5:38:69:d3:1b:28:fa:
         6b:89:f2:62:2a:bb:fc:ca:a3:eb:cc:c7:61:6b:f7:26:cf:31:
         97:4a:da:89:b6:b6:bc:f7:a3:41:15:e2:b6:5a:db:69:a7:21:
         bc:d5:75:ad:ae:b5:d7:56:53:9a:2c:ab:3e:d2:d2:11:d8:ac:
         20:7c:ce:aa:b9:d6:da:d8:c1:16:3d:55:90:74:f4:6c:79:b5:
         22:10:7a:00:89:c4:b8:c7:f1:ec:fb:91:97:4e:81:2e:18:8b:
         43:24:8e:83:a7:63:d1:44:44:45:57:76:62:68:03:c3:a5:f2:
         ff:08:8e:d4:c0:7c:fa:fa:9f:17:b0:be:50:b1:50:41:5e:56:
         d7:4a:17:08:d9:de:e6:98:59:25:c2:04:0c:37:f6:dc:d9:22:
         37:a2:a6:dc:f1:3c:02:fa:6d:f4:fd:f0:65:0c:5d:c1:88:5b:
         09:ba:5e:b5:4f:89:09:5e:28:cd:7e:81:2e:2c:eb:ab:a1:ed:
         d9:b5:e5:05:03:20:21:e4:02:92:77:30:48:30:96:73:7e:94:
         12:db:85:bb:13:b9:35:06
-----BEGIN CERTIFICATE-----
MIIHSDCCBTCgAwIBAgICAKYwDQYJKoZIhvcNAQEFBQAwgbQxCzAJBgNVBAYTAlVT
MQswCQYDVQQIEwJDQTEVMBMGA1UEBxMMU2FuRnJhbmNpc2NvMRUwEwYDVQQKEwxQ
aXhnbG8sIEluYy4xEDAOBgNVBAsTB1ZQTi1DSUUxGjAYBgNVBAMTEXR1bm5lbC5w
aXhnbG8uY29tMRwwGgYDVQQpExNCYWxhIENoYW5kcmFzZWthcmFuMR4wHAYJKoZI
hvcNAQkBFg9iYWxhQHBpeGdsby5jb20wHhcNMTgwMjE0MDYyNjI4WhcNMjgwMjEy
MDYyNjI4WjCBqTELMAkGA1UEBhMCVVMxCzAJBgNVBAgTAkNBMRUwEwYDVQQHEwxT
YW5GcmFuY2lzY28xFTATBgNVBAoTDFBpeGdsbywgSW5jLjEQMA4GA1UECxMHVlBO
LUNJRTEPMA0GA1UEAxMGY2llMTY1MRwwGgYDVQQpExNCYWxhIENoYW5kcmFzZWth
cmFuMR4wHAYJKoZIhvcNAQkBFg9iYWxhQHBpeGdsby5jb20wggIiMA0GCSqGSIb3
DQEBAQUAA4ICDwAwggIKAoICAQDKvz6rp8urdhAWs/Z5FMJsWDQtB5H7FbOChVAf
CqAS+eIksRjvDyQNSGSxN57SOoQrCTul+wpOkzo5nG66H62ZMMGmHgtp5pli6gzs
/Ti3oBYWiBUilPpYGoI/4oze5+ysuLuv3PScCAWj/iqHXUhmzNBKcCUVtXwxUsK/
zyP06T7jS8fz924iyW/KFpitH9jUDnbtbZS9+hgb/CTNugdZILokXf4trsXIq2U7
OKObaI/S68oMbiW5ZUX32y6e5hyt0Ucw7BBrkVMznd8k64WZykQtKxIsJP2bgNkP
zima40aU8JMG22+EUXHk++PzAqrKCd8uEjKl1B7ITJz6SJgPxDEVx3A3leK6hDpS
mNBvwWnmL6QuMSj28i6374aLdKj9xndyjeLD3ssraZ3KLybUb1w7zhiigY3PKq7b
ERWmIhQud7FR3r93NmwVuHSOCVWfsP0U8RHxXnTDtxG4PcgPhzYXnYKF1CeVa/34
sScwNcMtihLU/Z1eXStv9KpC8Rtu99XZuEiYOnidpUz3jSLKBlCIMRg2BM36sh5X
pjwc7k3jWE2aBGdxd5U+6cffID1IcySDnmjg9ozf7bKqKZfKd3RFYkWos/wbRpqR
svEwcyyVh7gCbknBg9mjCpukAivehxfLt1kq6b1wpbEcOoqC2uoXQ5IfeWFMxssI
quf9vQIDAQABo4IBazCCAWcwCQYDVR0TBAIwADAtBglghkgBhvhCAQ0EIBYeRWFz
eS1SU0EgR2VuZXJhdGVkIENlcnRpZmljYXRlMB0GA1UdDgQWBBQXkiZNrSS/E5O1
sjwz+wIMrHENfjCB6QYDVR0jBIHhMIHegBTvOI0UUFinW02cF3L837msp1GwEKGB
uqSBtzCBtDELMAkGA1UEBhMCVVMxCzAJBgNVBAgTAkNBMRUwEwYDVQQHEwxTYW5G
cmFuY2lzY28xFTATBgNVBAoTDFBpeGdsbywgSW5jLjEQMA4GA1UECxMHVlBOLUNJ
RTEaMBgGA1UEAxMRdHVubmVsLnBpeGdsby5jb20xHDAaBgNVBCkTE0JhbGEgQ2hh
bmRyYXNla2FyYW4xHjAcBgkqhkiG9w0BCQEWD2JhbGFAcGl4Z2xvLmNvbYIJAKbb
xoOA5qB5MBMGA1UdJQQMMAoGCCsGAQUFBwMCMAsGA1UdDwQEAwIHgDANBgkqhkiG
9w0BAQUFAAOCAgEAdlK64R8B0ymX28c/4yB7EwZE5TtS745SkLZJ0FCiICjsQfio
krlyVSfBZZpSycPdR6p+jDLfB6l+wOc2mVZIzSyl/6caJdkXeSnQoEhZXzniQ9oH
KvacktCoXl1LkJVRwWT3CciyW3eJxU2nf0hCwN1sziMjVUQIwz9/tk08EXI4zdeQ
16VJpwT2vY1J8I/kr0oBOryHupl5Ete3nxQSnxKDNEsqbGTJu7lu/iPu5q45DDVG
AmiZNoAdDSD/Z2VKPeWYltDaOJUsepDDaJGeMVJ2kJnW9FKpn5vIWSZN8mgEUjGM
9/AKJZzefPKWl+d2wYZSpHL94PeQEKee9nnpkofrU1QTm1fLZRsPjuQ1OpdRVCyA
hKEIY3vW0f/IGY1dhHgRLHWrBEHGLLW1OGnTGyj6a4nyYiq7/Mqj68zHYWv3Js8x
l0raiba2vPejQRXitlrbaachvNV1ra6111ZTmiyrPtLSEdisIHzOqrnW2tjBFj1V
kHT0bHm1IhB6AInEuMfx7PuRl06BLhiLQySOg6dj0URERVd2YmgDw6Xy/wiO1MB8
+vqfF7C+ULFQQV5W10oXCNne5phZJcIEDDf23NkiN6Km3PE8Avpt9P3wZQxdwYhb
CbpetU+JCV4ozX6BLizrq6Ht2bXlBQMgIeQCkncwSDCWc36UEtuFuxO5NQY=
-----END CERTIFICATE-----
