Certificate:
    Data:
        Version: 3 (0x2)
        Serial Number: 167 (0xa7)
    Signature Algorithm: sha1WithRSAEncryption
        Issuer: C=US, ST=CA, L=SanFrancisco, O=Pixglo, Inc., OU=VPN-CIE, CN=tunnel.pixglo.com/name=Bala Chandrasekaran/emailAddress=bala@pixglo.com
        Validity
            Not Before: Feb 14 06:26:29 2018 GMT
            Not After : Feb 12 06:26:29 2028 GMT
        Subject: C=US, ST=CA, L=SanFrancisco, O=Pixglo, Inc., OU=VPN-CIE, CN=cie166/name=Bala Chandrasekaran/emailAddress=bala@pixglo.com
        Subject Public Key Info:
            Public Key Algorithm: rsaEncryption
                Public-Key: (4096 bit)
                Modulus:
                    00:d1:cb:37:63:cd:59:a0:7e:d2:d0:e2:2c:1a:12:
                    e8:d4:0a:7e:e7:34:45:da:a0:74:3d:f6:16:83:6a:
                    fc:80:e0:40:b6:09:cb:a0:8f:d7:f3:4f:23:68:ac:
                    d3:a6:42:1c:31:89:13:07:46:bf:ab:a6:ca:24:58:
                    34:5d:59:32:c5:2f:85:b1:ef:7c:db:1d:c1:04:9c:
                    10:32:48:f6:ca:d1:c6:db:23:e3:df:3a:66:b8:55:
                    44:87:38:41:46:f3:86:1a:af:2b:2f:0a:7f:20:5d:
                    4a:e5:29:38:ce:70:3b:9b:bd:0c:6c:16:c8:aa:8a:
                    90:c3:8c:89:39:19:8f:76:66:e0:b2:6f:85:f1:d6:
                    2f:a1:3b:ef:cd:27:c0:86:0c:00:31:43:b4:2d:6d:
                    e0:70:31:6c:23:b5:60:e0:fe:76:77:6a:10:0a:c5:
                    63:cf:6f:4e:fc:8f:d0:ab:47:62:92:05:d1:c8:43:
                    2d:9e:aa:6c:98:73:1f:cd:8c:9c:84:57:97:24:ff:
                    0c:89:63:f9:46:88:2d:f0:04:b6:84:46:9f:9e:5b:
                    5c:5f:12:5c:4e:3d:eb:fd:4d:19:63:46:11:4d:28:
                    b5:0c:d2:4e:c6:33:55:f4:d6:9d:d9:d6:84:03:82:
                    58:13:a9:5b:e1:7f:e0:97:2b:42:f1:8b:85:6b:c9:
                    92:d0:78:3c:96:39:d8:e7:d4:8a:42:71:21:13:b2:
                    0f:88:ff:24:3b:46:b4:35:bd:35:0f:21:04:8b:86:
                    95:c2:d6:c0:eb:34:e2:8a:6d:d0:c0:d2:bd:1c:9f:
                    8b:20:90:f4:8b:98:9f:18:b2:61:83:53:77:4f:43:
                    18:e0:d9:3e:15:74:19:70:80:97:c2:fe:fd:6f:8b:
                    51:3b:c3:3d:5a:5b:90:e3:45:3a:11:df:1c:a4:82:
                    60:a3:c0:44:64:0a:c4:c8:89:c1:c7:d3:1b:27:e5:
                    3a:07:a8:74:19:f7:e5:94:88:15:c3:35:11:a0:52:
                    9e:9b:69:87:58:d5:95:97:28:96:52:3b:f2:25:ac:
                    03:9e:78:62:29:2f:0f:35:78:5d:59:9f:0d:4b:ef:
                    64:86:3d:58:c3:3a:69:c2:81:7c:14:0f:51:ea:24:
                    73:f3:c6:71:ec:a5:5e:54:e8:17:7f:e9:ba:c5:58:
                    bd:5c:d8:58:cf:98:48:1e:84:52:f3:35:b2:70:2b:
                    81:70:e2:f2:2b:d5:64:bf:49:bd:be:98:95:a7:08:
                    5d:66:16:5c:2c:34:5c:68:56:c5:3a:17:2b:70:e4:
                    a2:97:17:17:35:42:74:03:a5:04:45:2d:50:44:c0:
                    b0:1f:6c:72:52:80:47:98:21:66:20:32:85:41:38:
                    b1:8a:9d
                Exponent: 65537 (0x10001)
        X509v3 extensions:
            X509v3 Basic Constraints: 
                CA:FALSE
            Netscape Comment: 
                Easy-RSA Generated Certificate
            X509v3 Subject Key Identifier: 
                98:93:5D:E5:0B:19:49:C4:29:A1:09:7F:22:D4:66:28:4F:72:43:0C
            X509v3 Authority Key Identifier: 
                keyid:EF:38:8D:14:50:58:A7:5B:4D:9C:17:72:FC:DF:B9:AC:A7:51:B0:10
                DirName:/C=US/ST=CA/L=SanFrancisco/O=Pixglo, Inc./OU=VPN-CIE/CN=tunnel.pixglo.com/name=Bala Chandrasekaran/emailAddress=bala@pixglo.com
                serial:A6:DB:C6:83:80:E6:A0:79

            X509v3 Extended Key Usage: 
                TLS Web Client Authentication
            X509v3 Key Usage: 
                Digital Signature
    Signature Algorithm: sha1WithRSAEncryption
         6f:59:02:be:fe:0c:bc:dc:f9:fb:d9:f5:cd:ee:f4:a6:a1:32:
         88:88:d9:9c:36:4d:cf:04:f2:14:96:e5:66:98:54:f9:a3:6c:
         c9:15:9d:71:70:f5:06:15:0c:53:b7:5c:95:dc:3f:45:0f:84:
         da:9c:cb:1e:1b:89:f6:f4:b7:2f:82:f9:8c:5f:79:cf:56:d0:
         82:67:5b:63:6e:dc:cd:7e:a8:c4:a0:52:24:9f:f6:d5:68:47:
         4c:52:6d:78:ed:4d:00:12:42:10:89:02:a6:18:29:7b:0c:c3:
         07:32:39:36:e3:c6:67:f0:f3:6c:33:11:93:b8:08:1d:01:35:
         d7:7c:f2:e6:16:4a:67:cf:46:c8:44:0f:1b:7e:c6:5b:38:f0:
         b8:6e:54:6f:d4:3c:c1:4e:5a:96:3b:d6:ac:b4:05:64:0f:73:
         ea:aa:14:44:b1:a3:41:a4:cb:b4:b8:06:3e:0e:85:9b:92:67:
         e6:d2:2f:62:92:24:21:4e:d0:2e:37:41:90:94:3d:48:fa:74:
         bd:83:d1:a0:74:f1:aa:0f:79:3f:42:50:c6:3f:52:67:d1:d0:
         2a:b9:20:ca:e4:22:4f:a1:c9:1f:6b:46:5c:36:64:d2:ff:89:
         8a:a8:71:97:d3:92:23:e0:fc:07:b9:bf:90:1d:23:9c:90:8d:
         68:9e:a5:a7:25:d9:65:d2:ff:b5:cd:e1:46:cf:fd:4c:e5:7a:
         08:91:e6:02:69:2c:50:1e:a3:c5:9c:a9:20:a1:76:2f:fd:30:
         70:5d:e7:e0:15:40:77:bc:85:71:20:3d:32:32:e7:b1:ec:5f:
         fb:7c:5a:58:90:f8:a7:d4:c4:33:50:6f:99:f0:4d:a4:d0:8d:
         bd:20:70:44:4e:23:eb:49:30:09:7c:ed:6c:9f:f8:42:10:f3:
         01:e9:5d:7c:3a:ca:56:20:ad:2a:f4:13:7c:e4:3c:05:a6:15:
         27:cf:9e:6a:2f:5e:67:1f:6e:2e:a0:25:de:18:9a:a2:69:60:
         e3:e6:0b:16:ae:cb:3a:e8:59:12:26:39:99:10:f4:d5:cc:fb:
         2f:67:76:98:d1:65:00:f1:12:2c:8c:f7:78:70:1a:c8:79:a3:
         26:5c:e9:5c:5e:9a:43:76:bc:2b:1a:2c:9e:19:7c:a2:45:d7:
         ef:68:97:92:09:62:fa:cb:33:21:81:7d:c4:6d:af:cd:a8:0a:
         7f:d8:cf:3a:c4:18:b2:9b:1a:d6:ed:8c:f0:b3:08:a1:c6:03:
         5e:db:8c:d6:61:00:3d:3f:a0:aa:58:5f:ae:7c:5f:bd:7c:c4:
         a4:ff:0d:d2:31:7a:dc:42:7f:91:4c:e0:bc:1a:38:63:27:4e:
         e9:fa:c8:65:89:f5:20:51
-----BEGIN CERTIFICATE-----
MIIHSDCCBTCgAwIBAgICAKcwDQYJKoZIhvcNAQEFBQAwgbQxCzAJBgNVBAYTAlVT
MQswCQYDVQQIEwJDQTEVMBMGA1UEBxMMU2FuRnJhbmNpc2NvMRUwEwYDVQQKEwxQ
aXhnbG8sIEluYy4xEDAOBgNVBAsTB1ZQTi1DSUUxGjAYBgNVBAMTEXR1bm5lbC5w
aXhnbG8uY29tMRwwGgYDVQQpExNCYWxhIENoYW5kcmFzZWthcmFuMR4wHAYJKoZI
hvcNAQkBFg9iYWxhQHBpeGdsby5jb20wHhcNMTgwMjE0MDYyNjI5WhcNMjgwMjEy
MDYyNjI5WjCBqTELMAkGA1UEBhMCVVMxCzAJBgNVBAgTAkNBMRUwEwYDVQQHEwxT
YW5GcmFuY2lzY28xFTATBgNVBAoTDFBpeGdsbywgSW5jLjEQMA4GA1UECxMHVlBO
LUNJRTEPMA0GA1UEAxMGY2llMTY2MRwwGgYDVQQpExNCYWxhIENoYW5kcmFzZWth
cmFuMR4wHAYJKoZIhvcNAQkBFg9iYWxhQHBpeGdsby5jb20wggIiMA0GCSqGSIb3
DQEBAQUAA4ICDwAwggIKAoICAQDRyzdjzVmgftLQ4iwaEujUCn7nNEXaoHQ99haD
avyA4EC2Ccugj9fzTyNorNOmQhwxiRMHRr+rpsokWDRdWTLFL4Wx73zbHcEEnBAy
SPbK0cbbI+PfOma4VUSHOEFG84YarysvCn8gXUrlKTjOcDubvQxsFsiqipDDjIk5
GY92ZuCyb4Xx1i+hO+/NJ8CGDAAxQ7QtbeBwMWwjtWDg/nZ3ahAKxWPPb078j9Cr
R2KSBdHIQy2eqmyYcx/NjJyEV5ck/wyJY/lGiC3wBLaERp+eW1xfElxOPev9TRlj
RhFNKLUM0k7GM1X01p3Z1oQDglgTqVvhf+CXK0Lxi4VryZLQeDyWOdjn1IpCcSET
sg+I/yQ7RrQ1vTUPIQSLhpXC1sDrNOKKbdDA0r0cn4sgkPSLmJ8YsmGDU3dPQxjg
2T4VdBlwgJfC/v1vi1E7wz1aW5DjRToR3xykgmCjwERkCsTIicHH0xsn5ToHqHQZ
9+WUiBXDNRGgUp6baYdY1ZWXKJZSO/IlrAOeeGIpLw81eF1Znw1L72SGPVjDOmnC
gXwUD1HqJHPzxnHspV5U6Bd/6brFWL1c2FjPmEgehFLzNbJwK4Fw4vIr1WS/Sb2+
mJWnCF1mFlwsNFxoVsU6Fytw5KKXFxc1QnQDpQRFLVBEwLAfbHJSgEeYIWYgMoVB
OLGKnQIDAQABo4IBazCCAWcwCQYDVR0TBAIwADAtBglghkgBhvhCAQ0EIBYeRWFz
eS1SU0EgR2VuZXJhdGVkIENlcnRpZmljYXRlMB0GA1UdDgQWBBSYk13lCxlJxCmh
CX8i1GYoT3JDDDCB6QYDVR0jBIHhMIHegBTvOI0UUFinW02cF3L837msp1GwEKGB
uqSBtzCBtDELMAkGA1UEBhMCVVMxCzAJBgNVBAgTAkNBMRUwEwYDVQQHEwxTYW5G
cmFuY2lzY28xFTATBgNVBAoTDFBpeGdsbywgSW5jLjEQMA4GA1UECxMHVlBOLUNJ
RTEaMBgGA1UEAxMRdHVubmVsLnBpeGdsby5jb20xHDAaBgNVBCkTE0JhbGEgQ2hh
bmRyYXNla2FyYW4xHjAcBgkqhkiG9w0BCQEWD2JhbGFAcGl4Z2xvLmNvbYIJAKbb
xoOA5qB5MBMGA1UdJQQMMAoGCCsGAQUFBwMCMAsGA1UdDwQEAwIHgDANBgkqhkiG
9w0BAQUFAAOCAgEAb1kCvv4MvNz5+9n1ze70pqEyiIjZnDZNzwTyFJblZphU+aNs
yRWdcXD1BhUMU7dcldw/RQ+E2pzLHhuJ9vS3L4L5jF95z1bQgmdbY27czX6oxKBS
JJ/21WhHTFJteO1NABJCEIkCphgpewzDBzI5NuPGZ/DzbDMRk7gIHQE113zy5hZK
Z89GyEQPG37GWzjwuG5Ub9Q8wU5aljvWrLQFZA9z6qoURLGjQaTLtLgGPg6Fm5Jn
5tIvYpIkIU7QLjdBkJQ9SPp0vYPRoHTxqg95P0JQxj9SZ9HQKrkgyuQiT6HJH2tG
XDZk0v+Jiqhxl9OSI+D8B7m/kB0jnJCNaJ6lpyXZZdL/tc3hRs/9TOV6CJHmAmks
UB6jxZypIKF2L/0wcF3n4BVAd7yFcSA9MjLnsexf+3xaWJD4p9TEM1BvmfBNpNCN
vSBwRE4j60kwCXztbJ/4QhDzAeldfDrKViCtKvQTfOQ8BaYVJ8+eai9eZx9uLqAl
3hiaomlg4+YLFq7LOuhZEiY5mRD01cz7L2d2mNFlAPESLIz3eHAayHmjJlzpXF6a
Q3a8Kxosnhl8okXX72iXkgli+sszIYF9xG2vzagKf9jPOsQYspsa1u2M8LMIocYD
XtuM1mEAPT+gqlhfrnxfvXzEpP8N0jF63EJ/kUzgvBo4YydO6frIZYn1IFE=
-----END CERTIFICATE-----
