Certificate:
    Data:
        Version: 3 (0x2)
        Serial Number: 168 (0xa8)
    Signature Algorithm: sha1WithRSAEncryption
        Issuer: C=US, ST=CA, L=SanFrancisco, O=Pixglo, Inc., OU=VPN-CIE, CN=tunnel.pixglo.com/name=Bala Chandrasekaran/emailAddress=bala@pixglo.com
        Validity
            Not Before: Feb 14 06:26:29 2018 GMT
            Not After : Feb 12 06:26:29 2028 GMT
        Subject: C=US, ST=CA, L=SanFrancisco, O=Pixglo, Inc., OU=VPN-CIE, CN=cie167/name=Bala Chandrasekaran/emailAddress=bala@pixglo.com
        Subject Public Key Info:
            Public Key Algorithm: rsaEncryption
                Public-Key: (4096 bit)
                Modulus:
                    00:af:dc:df:6d:91:97:da:c4:a0:3e:ba:96:a9:40:
                    23:d4:16:10:06:c1:c1:f0:6d:2d:96:bf:f3:76:86:
                    7b:48:a8:94:6a:a4:8d:42:ac:6b:43:9b:49:82:ad:
                    2d:5c:24:31:94:6b:f4:01:a7:48:02:74:4b:ef:22:
                    4e:58:23:0a:a9:ba:80:dd:8e:69:be:b4:1c:2c:aa:
                    99:da:f9:e0:6b:da:17:d7:3d:2d:fd:76:85:a8:cc:
                    ce:5e:c9:11:d1:e6:bd:30:8d:45:f4:d5:ed:2e:ef:
                    d3:c4:6a:76:64:b6:75:45:b1:56:9b:cf:95:b2:fa:
                    b0:77:a5:b9:d9:88:d1:8a:16:8b:4c:10:51:d7:1a:
                    32:ea:fd:5e:fa:73:34:35:29:b2:81:06:52:9a:22:
                    6d:b6:bc:fc:e5:96:3a:e8:29:f9:d7:87:28:83:07:
                    c5:59:96:be:fe:98:7b:31:a7:2b:a1:91:3e:68:44:
                    dd:35:5a:4f:98:ff:d6:c2:2b:7a:2f:50:5d:4d:1c:
                    90:03:08:97:29:15:f9:ef:1b:ed:25:94:40:03:88:
                    2b:a4:11:23:47:91:ef:f6:ce:27:bb:c9:6b:96:a7:
                    d8:58:c6:20:3f:48:7c:7c:b9:a1:e8:a0:5d:44:d1:
                    f2:6c:ce:9c:82:18:97:be:a8:6e:5e:8f:4b:4b:b7:
                    c1:b4:3c:b5:ba:e0:be:33:62:e2:3b:1d:ad:a8:d0:
                    27:a5:ac:65:5a:09:38:f5:48:38:45:2a:b0:53:24:
                    e4:e6:49:1b:d3:32:ea:75:2c:0c:d3:fa:88:ef:9a:
                    06:80:7d:b3:13:65:23:65:27:ac:5d:38:39:6d:be:
                    84:8f:eb:99:c1:48:8a:38:ff:b4:29:5a:7a:09:35:
                    f4:0b:cd:4e:ad:2a:c0:51:4d:2d:50:4b:f2:71:2b:
                    54:3a:c2:f7:f0:5f:c2:97:11:c6:16:0e:21:42:28:
                    5f:d6:1b:5c:24:ba:ad:b6:65:08:a9:ad:b9:a0:19:
                    b4:06:29:a1:7e:67:7b:f3:00:9f:95:dc:2f:41:67:
                    4b:b6:9e:9c:a2:b6:18:ed:ef:21:5f:83:e9:aa:a1:
                    85:05:d5:10:53:c5:66:8f:b3:2a:e9:ce:de:22:32:
                    40:73:41:ea:0d:d3:a8:ca:6d:ec:d5:72:6d:ea:92:
                    9b:a4:26:10:c1:3a:43:43:74:92:47:6c:45:27:b4:
                    7b:36:71:d3:e1:fc:50:d2:45:98:0e:e9:c6:83:25:
                    58:22:62:0b:56:63:0b:0f:71:80:c0:ca:cd:c0:86:
                    75:a7:7b:3d:cf:93:0d:f4:29:a2:73:80:6e:21:9f:
                    7e:ee:0a:a8:5c:90:88:71:72:46:cf:65:d3:b5:32:
                    c1:8a:2b
                Exponent: 65537 (0x10001)
        X509v3 extensions:
            X509v3 Basic Constraints: 
                CA:FALSE
            Netscape Comment: 
                Easy-RSA Generated Certificate
            X509v3 Subject Key Identifier: 
                DF:D0:6B:63:08:7A:47:18:1A:10:75:4A:83:8B:1E:60:B9:B2:4C:6F
            X509v3 Authority Key Identifier: 
                keyid:EF:38:8D:14:50:58:A7:5B:4D:9C:17:72:FC:DF:B9:AC:A7:51:B0:10
                DirName:/C=US/ST=CA/L=SanFrancisco/O=Pixglo, Inc./OU=VPN-CIE/CN=tunnel.pixglo.com/name=Bala Chandrasekaran/emailAddress=bala@pixglo.com
                serial:A6:DB:C6:83:80:E6:A0:79

            X509v3 Extended Key Usage: 
                TLS Web Client Authentication
            X509v3 Key Usage: 
                Digital Signature
    Signature Algorithm: sha1WithRSAEncryption
         4a:98:ce:b9:e0:1f:df:60:4a:31:ba:d8:db:fc:b2:66:85:dc:
         a8:53:05:e0:4c:cb:f8:cc:ea:c8:41:83:22:cb:e9:e8:70:6c:
         72:ac:4b:4f:04:2e:d1:cb:61:a3:7d:a9:fc:61:23:43:9b:73:
         64:9e:7b:c3:d5:1c:3c:d8:9b:2f:13:eb:30:34:8d:4a:ed:c3:
         88:99:4a:c6:c0:e5:a4:18:10:ef:6a:49:fb:4d:e8:c1:ee:0c:
         eb:23:5b:60:b9:d8:54:6f:d2:c0:81:4e:3f:26:c4:4c:40:24:
         75:c2:8d:8b:68:56:fa:31:cb:a5:6c:98:85:0a:9f:77:57:f7:
         53:a8:c7:52:41:b0:6d:80:6e:b0:24:67:0f:3f:33:26:57:f3:
         7b:14:11:df:04:a3:1c:44:c5:ed:1f:48:37:5c:dd:11:3c:76:
         53:21:72:b9:8b:11:cb:61:3b:54:81:ec:4d:99:40:c2:64:c1:
         c5:17:9f:57:a9:e1:37:2c:97:65:8d:0e:e0:6b:ee:27:08:14:
         09:e4:15:c4:9a:8e:ba:8b:2b:cf:5b:62:57:5c:48:40:5c:d3:
         bd:10:1b:51:d2:84:91:b5:b7:b3:f0:91:01:99:2b:f1:5f:b0:
         8f:ee:fe:28:8b:48:fc:ce:c6:40:7c:cb:9f:ce:c1:8f:85:bf:
         e5:6c:1e:5a:21:8f:2c:c1:03:d2:f8:75:73:e8:11:13:fb:05:
         d9:b2:8e:92:49:89:65:72:ea:d5:ed:e0:ca:70:f4:1e:c6:3f:
         7f:34:81:50:65:6d:1d:23:0d:b7:0b:eb:f2:18:47:ac:80:e9:
         1a:7f:eb:a6:d4:eb:32:81:0d:24:ff:18:99:f5:fb:b3:b5:ae:
         b2:cd:6c:45:1f:11:48:f9:98:14:43:fc:ec:29:6a:14:d5:9f:
         e5:e7:f0:41:ff:8f:50:f8:f6:62:95:48:4d:67:d7:32:60:9d:
         23:1b:82:12:83:46:6a:77:08:88:77:e4:47:d3:cd:a3:b6:84:
         6c:05:a4:83:47:e4:00:ab:a5:75:e0:0a:ed:8f:45:ed:47:b5:
         66:22:6c:ef:fc:1e:1a:85:6a:bb:e8:41:a1:30:d8:16:2f:aa:
         05:55:09:38:23:a8:20:2e:6f:68:7d:7a:30:9b:71:8e:14:a5:
         59:ec:f1:96:9e:81:f1:7c:54:47:d1:da:3f:79:c9:c9:14:2b:
         35:92:01:60:84:0a:c1:64:02:16:80:db:56:6e:c7:1f:f7:f4:
         41:53:ed:98:55:1a:b3:80:6b:5b:a3:1f:a2:1c:eb:5e:ea:05:
         29:bf:ad:6f:02:bd:45:19:52:aa:10:3c:8e:cc:ae:dd:9f:fb:
         2d:fc:47:6c:24:66:bf:2c
-----BEGIN CERTIFICATE-----
MIIHSDCCBTCgAwIBAgICAKgwDQYJKoZIhvcNAQEFBQAwgbQxCzAJBgNVBAYTAlVT
MQswCQYDVQQIEwJDQTEVMBMGA1UEBxMMU2FuRnJhbmNpc2NvMRUwEwYDVQQKEwxQ
aXhnbG8sIEluYy4xEDAOBgNVBAsTB1ZQTi1DSUUxGjAYBgNVBAMTEXR1bm5lbC5w
aXhnbG8uY29tMRwwGgYDVQQpExNCYWxhIENoYW5kcmFzZWthcmFuMR4wHAYJKoZI
hvcNAQkBFg9iYWxhQHBpeGdsby5jb20wHhcNMTgwMjE0MDYyNjI5WhcNMjgwMjEy
MDYyNjI5WjCBqTELMAkGA1UEBhMCVVMxCzAJBgNVBAgTAkNBMRUwEwYDVQQHEwxT
YW5GcmFuY2lzY28xFTATBgNVBAoTDFBpeGdsbywgSW5jLjEQMA4GA1UECxMHVlBO
LUNJRTEPMA0GA1UEAxMGY2llMTY3MRwwGgYDVQQpExNCYWxhIENoYW5kcmFzZWth
cmFuMR4wHAYJKoZIhvcNAQkBFg9iYWxhQHBpeGdsby5jb20wggIiMA0GCSqGSIb3
DQEBAQUAA4ICDwAwggIKAoICAQCv3N9tkZfaxKA+upapQCPUFhAGwcHwbS2Wv/N2
hntIqJRqpI1CrGtDm0mCrS1cJDGUa/QBp0gCdEvvIk5YIwqpuoDdjmm+tBwsqpna
+eBr2hfXPS39doWozM5eyRHR5r0wjUX01e0u79PEanZktnVFsVabz5Wy+rB3pbnZ
iNGKFotMEFHXGjLq/V76czQ1KbKBBlKaIm22vPzlljroKfnXhyiDB8VZlr7+mHsx
pyuhkT5oRN01Wk+Y/9bCK3ovUF1NHJADCJcpFfnvG+0llEADiCukESNHke/2zie7
yWuWp9hYxiA/SHx8uaHooF1E0fJszpyCGJe+qG5ej0tLt8G0PLW64L4zYuI7Ha2o
0CelrGVaCTj1SDhFKrBTJOTmSRvTMup1LAzT+ojvmgaAfbMTZSNlJ6xdODltvoSP
65nBSIo4/7QpWnoJNfQLzU6tKsBRTS1QS/JxK1Q6wvfwX8KXEcYWDiFCKF/WG1wk
uq22ZQiprbmgGbQGKaF+Z3vzAJ+V3C9BZ0u2npyithjt7yFfg+mqoYUF1RBTxWaP
syrpzt4iMkBzQeoN06jKbezVcm3qkpukJhDBOkNDdJJHbEUntHs2cdPh/FDSRZgO
6caDJVgiYgtWYwsPcYDAys3AhnWnez3Pkw30KaJzgG4hn37uCqhckIhxckbPZdO1
MsGKKwIDAQABo4IBazCCAWcwCQYDVR0TBAIwADAtBglghkgBhvhCAQ0EIBYeRWFz
eS1SU0EgR2VuZXJhdGVkIENlcnRpZmljYXRlMB0GA1UdDgQWBBTf0GtjCHpHGBoQ
dUqDix5gubJMbzCB6QYDVR0jBIHhMIHegBTvOI0UUFinW02cF3L837msp1GwEKGB
uqSBtzCBtDELMAkGA1UEBhMCVVMxCzAJBgNVBAgTAkNBMRUwEwYDVQQHEwxTYW5G
cmFuY2lzY28xFTATBgNVBAoTDFBpeGdsbywgSW5jLjEQMA4GA1UECxMHVlBOLUNJ
RTEaMBgGA1UEAxMRdHVubmVsLnBpeGdsby5jb20xHDAaBgNVBCkTE0JhbGEgQ2hh
bmRyYXNla2FyYW4xHjAcBgkqhkiG9w0BCQEWD2JhbGFAcGl4Z2xvLmNvbYIJAKbb
xoOA5qB5MBMGA1UdJQQMMAoGCCsGAQUFBwMCMAsGA1UdDwQEAwIHgDANBgkqhkiG
9w0BAQUFAAOCAgEASpjOueAf32BKMbrY2/yyZoXcqFMF4EzL+MzqyEGDIsvp6HBs
cqxLTwQu0ctho32p/GEjQ5tzZJ57w9UcPNibLxPrMDSNSu3DiJlKxsDlpBgQ72pJ
+03owe4M6yNbYLnYVG/SwIFOPybETEAkdcKNi2hW+jHLpWyYhQqfd1f3U6jHUkGw
bYBusCRnDz8zJlfzexQR3wSjHETF7R9IN1zdETx2UyFyuYsRy2E7VIHsTZlAwmTB
xRefV6nhNyyXZY0O4GvuJwgUCeQVxJqOuosrz1tiV1xIQFzTvRAbUdKEkbW3s/CR
AZkr8V+wj+7+KItI/M7GQHzLn87Bj4W/5WweWiGPLMED0vh1c+gRE/sF2bKOkkmJ
ZXLq1e3gynD0HsY/fzSBUGVtHSMNtwvr8hhHrIDpGn/rptTrMoENJP8YmfX7s7Wu
ss1sRR8RSPmYFEP87ClqFNWf5efwQf+PUPj2YpVITWfXMmCdIxuCEoNGancIiHfk
R9PNo7aEbAWkg0fkAKuldeAK7Y9F7Ue1ZiJs7/weGoVqu+hBoTDYFi+qBVUJOCOo
IC5vaH16MJtxjhSlWezxlp6B8XxUR9HaP3nJyRQrNZIBYIQKwWQCFoDbVm7HH/f0
QVPtmFUas4BrW6MfohzrXuoFKb+tbwK9RRlSqhA8jsyu3Z/7LfxHbCRmvyw=
-----END CERTIFICATE-----
