Certificate:
    Data:
        Version: 3 (0x2)
        Serial Number: 169 (0xa9)
    Signature Algorithm: sha1WithRSAEncryption
        Issuer: C=US, ST=CA, L=SanFrancisco, O=Pixglo, Inc., OU=VPN-CIE, CN=tunnel.pixglo.com/name=Bala Chandrasekaran/emailAddress=bala@pixglo.com
        Validity
            Not Before: Feb 14 06:26:30 2018 GMT
            Not After : Feb 12 06:26:30 2028 GMT
        Subject: C=US, ST=CA, L=SanFrancisco, O=Pixglo, Inc., OU=VPN-CIE, CN=cie168/name=Bala Chandrasekaran/emailAddress=bala@pixglo.com
        Subject Public Key Info:
            Public Key Algorithm: rsaEncryption
                Public-Key: (4096 bit)
                Modulus:
                    00:de:26:2b:20:34:a6:4a:19:42:af:28:62:bb:20:
                    53:be:28:6a:94:b4:93:0c:10:e0:63:9f:6f:38:31:
                    92:0a:6f:f3:f2:02:c0:5f:e4:51:17:67:78:d0:b1:
                    84:6c:7e:23:a5:f7:84:90:27:a8:97:04:dc:3a:49:
                    67:7b:e0:78:ac:38:f5:69:2e:ab:c0:d0:b1:f2:0d:
                    e6:dc:7d:f6:22:ef:9b:80:a3:92:7d:b4:8f:7c:88:
                    05:a7:17:47:dd:2e:92:11:f5:fa:69:4d:3a:ea:97:
                    6d:93:bb:81:f8:95:ef:e1:f2:eb:8d:cf:9b:e6:e9:
                    ad:fd:0e:ce:93:bc:cd:ef:db:9c:e5:96:90:54:93:
                    7d:a9:4c:fd:15:74:69:da:54:eb:25:4d:b4:01:cc:
                    ef:15:a0:e6:34:b6:59:71:dd:0e:41:7d:e7:a7:5d:
                    12:1f:69:60:32:54:12:da:47:d0:7f:84:01:e7:62:
                    e4:05:71:ff:08:3a:f0:5c:78:db:75:88:1d:69:6c:
                    cd:2b:7b:d2:ad:4b:9d:84:2f:72:e6:b6:7c:3b:01:
                    9b:dc:d3:a3:11:66:c7:4f:00:fe:d1:ef:7e:51:0e:
                    63:ce:cc:1c:43:69:68:d9:93:28:f2:0e:52:8a:57:
                    8f:7d:dd:bd:c4:91:bc:37:ee:5a:d8:36:54:ca:b8:
                    a1:d5:30:c9:b7:f4:5f:65:ae:7d:df:70:c2:ad:45:
                    fa:f7:3a:e0:15:bd:5a:a1:80:f1:0b:a2:7b:ad:48:
                    a0:4a:2c:28:c2:01:a5:c9:c7:f7:52:c4:3a:d0:f6:
                    86:fe:68:5c:6c:7d:3f:b0:42:04:22:31:e0:bf:a9:
                    4e:9d:15:c1:90:c3:b8:9d:9e:e3:6b:0c:8d:09:0e:
                    01:bd:69:eb:4c:ce:99:be:a5:0a:43:1c:06:b1:65:
                    69:60:1a:b5:32:bf:9e:7d:70:94:51:16:84:e1:18:
                    d5:e2:37:76:f9:ce:ee:b9:4b:9a:a7:3c:04:6c:0f:
                    24:a0:bb:2b:54:d2:1f:99:cc:d4:a6:87:75:a6:10:
                    91:19:13:f0:ab:63:32:48:0b:88:69:8f:62:94:6e:
                    be:79:0d:1a:eb:7a:ba:76:c9:73:fa:ac:8b:89:e8:
                    62:98:c7:20:02:00:aa:23:81:2a:4c:fa:d7:23:19:
                    1d:6f:3d:bf:4f:86:83:11:2c:9c:f1:80:e7:47:81:
                    04:00:43:e6:17:88:24:2b:38:76:d5:ff:5e:44:72:
                    8e:2c:42:cf:c8:ee:c4:16:80:52:14:61:14:a9:38:
                    04:da:a3:a4:e2:ea:ba:28:fa:f0:da:ce:54:3e:1b:
                    7a:f7:03:10:f4:6c:f2:ec:ee:b7:5c:ba:ef:1f:85:
                    98:3b:4d
                Exponent: 65537 (0x10001)
        X509v3 extensions:
            X509v3 Basic Constraints: 
                CA:FALSE
            Netscape Comment: 
                Easy-RSA Generated Certificate
            X509v3 Subject Key Identifier: 
                BD:0C:E0:8F:0E:2B:A5:E9:9C:E6:1B:6B:0B:1A:24:48:F6:1B:36:33
            X509v3 Authority Key Identifier: 
                keyid:EF:38:8D:14:50:58:A7:5B:4D:9C:17:72:FC:DF:B9:AC:A7:51:B0:10
                DirName:/C=US/ST=CA/L=SanFrancisco/O=Pixglo, Inc./OU=VPN-CIE/CN=tunnel.pixglo.com/name=Bala Chandrasekaran/emailAddress=bala@pixglo.com
                serial:A6:DB:C6:83:80:E6:A0:79

            X509v3 Extended Key Usage: 
                TLS Web Client Authentication
            X509v3 Key Usage: 
                Digital Signature
    Signature Algorithm: sha1WithRSAEncryption
         af:5d:2c:07:c7:be:6e:95:80:35:02:e1:8f:dc:98:56:86:80:
         a5:47:7b:1b:e4:12:ff:12:c6:4c:44:07:a8:70:1e:55:33:e9:
         d6:a2:c9:43:00:4e:f6:76:7e:35:5f:1d:55:b0:58:f9:1f:6f:
         5d:6b:08:57:c3:05:72:7e:24:68:3b:67:cf:7e:38:1d:64:e5:
         71:46:30:b2:8b:ea:b5:22:62:8f:1e:c3:ca:54:9b:5a:1e:b6:
         32:cc:ab:87:31:c9:1e:62:2e:77:08:af:5a:ca:7f:b9:59:4a:
         02:c6:07:e8:20:5e:77:77:ee:d6:22:71:72:f4:04:ac:19:c5:
         f1:d6:1d:c0:85:6b:e0:bf:33:53:9f:81:98:d9:95:4f:35:7b:
         f6:fa:b3:46:3f:2f:6c:89:47:ed:09:5a:63:ba:69:b0:05:e2:
         85:4a:9b:1d:62:b9:0b:21:74:4a:4c:65:5b:4e:a2:e8:1b:df:
         cd:7e:3d:7f:03:a6:a7:9e:5b:49:51:01:8f:fa:52:27:e0:22:
         bb:c0:95:6f:24:3e:04:f9:80:6c:fd:f9:1e:13:21:44:f2:f0:
         d0:1f:d1:02:6c:f1:e5:8b:86:7b:11:c0:d2:9d:f6:aa:34:5f:
         d0:57:1b:02:79:eb:ce:9d:28:89:eb:4c:8d:c6:a4:52:e1:2e:
         f2:19:d1:3f:f4:6a:1c:b0:74:fa:29:fe:c2:01:58:ce:d4:3f:
         28:c0:57:8b:76:f6:b4:df:22:87:8e:6a:40:c8:70:1a:9d:d9:
         ef:0e:4b:da:72:41:da:a4:ae:55:4d:45:77:55:db:e3:fd:13:
         62:1c:92:4e:93:d9:d0:5b:a1:bd:50:e7:68:77:70:8f:80:66:
         12:5d:5b:21:df:c1:d8:24:3a:39:52:cf:1a:6e:61:82:ff:c0:
         dd:fe:75:ba:52:1f:cd:34:ba:9e:36:98:1a:da:45:fd:53:ba:
         3f:cb:9a:f5:6a:33:27:64:b9:06:67:de:a1:97:8a:d6:1b:a9:
         d3:86:60:d6:7f:7d:47:f4:a0:e4:94:f3:f1:a4:02:ac:8e:3f:
         ba:b2:81:8b:0c:a6:a8:b5:98:63:04:19:01:68:27:fd:57:24:
         c5:ab:b5:05:7b:23:b8:31:c3:b6:11:b8:32:72:c1:f9:c2:3f:
         62:4f:b6:83:0c:14:3c:04:d4:1d:7b:38:55:1c:e1:a8:76:c6:
         d6:dd:9a:d4:69:cd:31:78:51:fd:c5:34:3a:91:72:7a:29:18:
         28:35:e9:9c:68:b5:12:f7:c2:b1:78:a5:bd:17:95:c3:54:81:
         fe:76:59:f9:12:9c:46:06:86:b3:ae:ac:c8:3f:64:72:f8:fa:
         65:85:92:7c:aa:69:cb:74
-----BEGIN CERTIFICATE-----
MIIHSDCCBTCgAwIBAgICAKkwDQYJKoZIhvcNAQEFBQAwgbQxCzAJBgNVBAYTAlVT
MQswCQYDVQQIEwJDQTEVMBMGA1UEBxMMU2FuRnJhbmNpc2NvMRUwEwYDVQQKEwxQ
aXhnbG8sIEluYy4xEDAOBgNVBAsTB1ZQTi1DSUUxGjAYBgNVBAMTEXR1bm5lbC5w
aXhnbG8uY29tMRwwGgYDVQQpExNCYWxhIENoYW5kcmFzZWthcmFuMR4wHAYJKoZI
hvcNAQkBFg9iYWxhQHBpeGdsby5jb20wHhcNMTgwMjE0MDYyNjMwWhcNMjgwMjEy
MDYyNjMwWjCBqTELMAkGA1UEBhMCVVMxCzAJBgNVBAgTAkNBMRUwEwYDVQQHEwxT
YW5GcmFuY2lzY28xFTATBgNVBAoTDFBpeGdsbywgSW5jLjEQMA4GA1UECxMHVlBO
LUNJRTEPMA0GA1UEAxMGY2llMTY4MRwwGgYDVQQpExNCYWxhIENoYW5kcmFzZWth
cmFuMR4wHAYJKoZIhvcNAQkBFg9iYWxhQHBpeGdsby5jb20wggIiMA0GCSqGSIb3
DQEBAQUAA4ICDwAwggIKAoICAQDeJisgNKZKGUKvKGK7IFO+KGqUtJMMEOBjn284
MZIKb/PyAsBf5FEXZ3jQsYRsfiOl94SQJ6iXBNw6SWd74HisOPVpLqvA0LHyDebc
ffYi75uAo5J9tI98iAWnF0fdLpIR9fppTTrql22Tu4H4le/h8uuNz5vm6a39Ds6T
vM3v25zllpBUk32pTP0VdGnaVOslTbQBzO8VoOY0tllx3Q5BfeenXRIfaWAyVBLa
R9B/hAHnYuQFcf8IOvBceNt1iB1pbM0re9KtS52EL3Lmtnw7AZvc06MRZsdPAP7R
735RDmPOzBxDaWjZkyjyDlKKV4993b3Ekbw37lrYNlTKuKHVMMm39F9lrn3fcMKt
Rfr3OuAVvVqhgPELonutSKBKLCjCAaXJx/dSxDrQ9ob+aFxsfT+wQgQiMeC/qU6d
FcGQw7idnuNrDI0JDgG9aetMzpm+pQpDHAaxZWlgGrUyv559cJRRFoThGNXiN3b5
zu65S5qnPARsDySguytU0h+ZzNSmh3WmEJEZE/CrYzJIC4hpj2KUbr55DRrrerp2
yXP6rIuJ6GKYxyACAKojgSpM+tcjGR1vPb9PhoMRLJzxgOdHgQQAQ+YXiCQrOHbV
/15Eco4sQs/I7sQWgFIUYRSpOATao6Ti6roo+vDazlQ+G3r3AxD0bPLs7rdcuu8f
hZg7TQIDAQABo4IBazCCAWcwCQYDVR0TBAIwADAtBglghkgBhvhCAQ0EIBYeRWFz
eS1SU0EgR2VuZXJhdGVkIENlcnRpZmljYXRlMB0GA1UdDgQWBBS9DOCPDiul6Zzm
G2sLGiRI9hs2MzCB6QYDVR0jBIHhMIHegBTvOI0UUFinW02cF3L837msp1GwEKGB
uqSBtzCBtDELMAkGA1UEBhMCVVMxCzAJBgNVBAgTAkNBMRUwEwYDVQQHEwxTYW5G
cmFuY2lzY28xFTATBgNVBAoTDFBpeGdsbywgSW5jLjEQMA4GA1UECxMHVlBOLUNJ
RTEaMBgGA1UEAxMRdHVubmVsLnBpeGdsby5jb20xHDAaBgNVBCkTE0JhbGEgQ2hh
bmRyYXNla2FyYW4xHjAcBgkqhkiG9w0BCQEWD2JhbGFAcGl4Z2xvLmNvbYIJAKbb
xoOA5qB5MBMGA1UdJQQMMAoGCCsGAQUFBwMCMAsGA1UdDwQEAwIHgDANBgkqhkiG
9w0BAQUFAAOCAgEAr10sB8e+bpWANQLhj9yYVoaApUd7G+QS/xLGTEQHqHAeVTPp
1qLJQwBO9nZ+NV8dVbBY+R9vXWsIV8MFcn4kaDtnz344HWTlcUYwsovqtSJijx7D
ylSbWh62MsyrhzHJHmIudwivWsp/uVlKAsYH6CBed3fu1iJxcvQErBnF8dYdwIVr
4L8zU5+BmNmVTzV79vqzRj8vbIlH7QlaY7ppsAXihUqbHWK5CyF0SkxlW06i6Bvf
zX49fwOmp55bSVEBj/pSJ+Aiu8CVbyQ+BPmAbP35HhMhRPLw0B/RAmzx5YuGexHA
0p32qjRf0FcbAnnrzp0oietMjcakUuEu8hnRP/RqHLB0+in+wgFYztQ/KMBXi3b2
tN8ih45qQMhwGp3Z7w5L2nJB2qSuVU1Fd1Xb4/0TYhySTpPZ0FuhvVDnaHdwj4Bm
El1bId/B2CQ6OVLPGm5hgv/A3f51ulIfzTS6njaYGtpF/VO6P8ua9WozJ2S5Bmfe
oZeK1hup04Zg1n99R/Sg5JTz8aQCrI4/urKBiwymqLWYYwQZAWgn/Vckxau1BXsj
uDHDthG4MnLB+cI/Yk+2gwwUPATUHXs4VRzhqHbG1t2a1GnNMXhR/cU0OpFyeikY
KDXpnGi1EvfCsXilvReVw1SB/nZZ+RKcRgaGs66syD9kcvj6ZYWSfKppy3Q=
-----END CERTIFICATE-----
