Certificate:
    Data:
        Version: 3 (0x2)
        Serial Number: 171 (0xab)
    Signature Algorithm: sha1WithRSAEncryption
        Issuer: C=US, ST=CA, L=SanFrancisco, O=Pixglo, Inc., OU=VPN-CIE, CN=tunnel.pixglo.com/name=Bala Chandrasekaran/emailAddress=bala@pixglo.com
        Validity
            Not Before: Feb 14 06:26:32 2018 GMT
            Not After : Feb 12 06:26:32 2028 GMT
        Subject: C=US, ST=CA, L=SanFrancisco, O=Pixglo, Inc., OU=VPN-CIE, CN=cie170/name=Bala Chandrasekaran/emailAddress=bala@pixglo.com
        Subject Public Key Info:
            Public Key Algorithm: rsaEncryption
                Public-Key: (4096 bit)
                Modulus:
                    00:d0:49:18:60:b2:ab:c0:76:53:fa:ea:77:dc:81:
                    1e:b5:c2:44:f4:cc:ef:7f:8b:8b:5d:b7:02:c4:59:
                    12:52:37:fa:5e:48:3a:bd:ac:47:f5:05:2a:a8:92:
                    75:4c:f7:84:fb:cd:87:ec:28:ac:6b:b8:ba:4e:26:
                    15:2f:da:ae:b6:99:e0:61:03:1d:fd:62:38:2a:80:
                    00:67:8a:73:98:52:07:ba:ec:3e:5a:ef:fb:5d:ef:
                    f1:31:7b:ae:9a:37:bb:0a:22:67:b2:c7:94:a7:23:
                    55:bb:8a:2e:a1:e2:24:92:2b:64:e7:db:7d:6c:a9:
                    c2:59:e4:6a:ec:ac:8b:4d:58:ff:26:1a:b1:ab:6c:
                    7a:a3:96:7a:44:23:a3:bc:5d:93:83:b9:5a:0d:eb:
                    15:b5:6a:d4:c7:f9:c4:25:05:72:73:f2:56:77:06:
                    e2:5f:b7:c3:2a:15:6e:b7:48:97:3e:b6:c3:a1:fe:
                    ab:45:c1:25:90:90:b4:47:54:39:1a:6b:fd:18:8f:
                    ad:36:51:f0:b9:0c:1d:06:0e:93:cb:d3:45:6b:d7:
                    29:9d:86:81:10:a4:7b:26:c1:74:df:ea:2c:10:36:
                    fb:f7:9e:c0:46:24:f8:64:34:4d:33:61:62:86:57:
                    3c:d8:4e:73:d5:13:df:2c:b1:9d:78:c3:8d:2d:c7:
                    ba:b5:ef:63:35:ae:9d:77:a2:ff:76:43:1f:0b:62:
                    1f:69:1f:2a:8c:20:3a:5c:dd:97:c5:17:69:49:55:
                    51:ab:b4:8e:0d:e6:3e:9e:71:28:17:18:e3:71:ab:
                    e4:01:67:42:09:b0:b2:a2:cc:2a:bc:e6:8c:15:74:
                    79:76:93:cc:0e:92:f7:bd:bf:0d:70:6e:02:b0:cc:
                    f5:7f:b7:d9:7d:c6:b1:9d:b2:1b:dc:52:de:bf:6d:
                    ea:55:50:2d:4b:4b:9e:26:b9:e3:cd:1f:8a:31:c6:
                    c5:35:d4:aa:81:f8:0b:fe:2a:c1:cf:12:9f:ec:7e:
                    9e:4b:2c:8c:e1:d1:b4:7f:05:24:6a:0c:ca:a8:b8:
                    e9:4a:7c:19:b0:18:2d:92:85:74:f4:e0:c3:b6:08:
                    e7:0c:2a:17:4f:6b:a8:50:29:47:5b:37:99:a5:f4:
                    52:49:3d:be:b9:3d:12:37:22:3b:66:55:13:1e:ef:
                    c1:b8:16:27:56:e3:6d:0e:18:c6:c5:e0:21:b3:dd:
                    d5:26:28:fb:77:40:77:da:f9:f0:c2:0f:51:5e:75:
                    3f:ca:46:5a:70:43:18:f8:ba:42:f1:41:33:0f:f8:
                    e0:44:cb:a1:16:ba:31:36:dd:05:5f:db:4d:dd:93:
                    26:d2:f7:1b:90:4a:fe:59:6d:81:41:58:64:cb:7d:
                    29:46:37
                Exponent: 65537 (0x10001)
        X509v3 extensions:
            X509v3 Basic Constraints: 
                CA:FALSE
            Netscape Comment: 
                Easy-RSA Generated Certificate
            X509v3 Subject Key Identifier: 
                94:C3:01:01:3C:42:AC:3E:54:A9:27:CF:3B:53:AC:6B:BA:BC:32:53
            X509v3 Authority Key Identifier: 
                keyid:EF:38:8D:14:50:58:A7:5B:4D:9C:17:72:FC:DF:B9:AC:A7:51:B0:10
                DirName:/C=US/ST=CA/L=SanFrancisco/O=Pixglo, Inc./OU=VPN-CIE/CN=tunnel.pixglo.com/name=Bala Chandrasekaran/emailAddress=bala@pixglo.com
                serial:A6:DB:C6:83:80:E6:A0:79

            X509v3 Extended Key Usage: 
                TLS Web Client Authentication
            X509v3 Key Usage: 
                Digital Signature
    Signature Algorithm: sha1WithRSAEncryption
         76:69:a9:2f:30:18:0d:c5:89:c3:69:9d:b9:3f:91:52:f8:5b:
         af:60:40:3e:83:4d:f3:53:b3:5c:21:4d:7a:33:fc:d4:2c:00:
         16:f7:d7:c9:e8:9f:0e:ad:35:9b:98:89:60:c3:cd:cd:4b:18:
         3d:55:ee:52:cc:a8:ae:3d:41:31:2f:48:f3:6a:06:0d:ab:5c:
         af:3e:d4:fd:35:04:ea:8e:18:2d:82:74:96:7d:a9:ad:a5:47:
         78:70:7a:65:fb:e9:6e:b1:34:1a:31:02:48:80:d4:1c:e6:00:
         d7:c2:ed:53:ca:51:c9:fd:da:8a:09:02:04:30:e4:4a:d2:88:
         54:38:76:25:f7:ae:dc:43:66:79:04:bc:ac:0d:56:76:f5:7e:
         0f:55:a8:bf:dc:33:1b:23:da:ac:92:06:96:8f:92:85:35:61:
         fc:cf:bf:c3:1c:b6:a2:c6:e9:6a:95:af:e4:b4:20:93:17:32:
         ba:12:7a:6f:86:85:45:0a:6b:63:ee:51:36:83:f9:2a:5f:d8:
         33:9d:00:e2:3b:9f:2a:94:58:1b:5d:5a:e3:2a:01:6f:7f:dc:
         0d:d2:18:ce:93:f8:84:3f:86:5d:d2:d0:bc:0f:be:42:fb:54:
         f9:15:66:c7:c0:00:04:9e:97:cf:2f:89:97:a1:a3:17:26:d1:
         00:db:fb:8a:ca:bb:31:d0:95:69:ca:ae:e8:1b:58:a1:d8:3e:
         1d:3e:c4:8d:b5:e0:ff:38:fd:ef:bd:cb:88:b3:74:74:fe:33:
         0c:60:27:f7:e4:e4:90:a3:30:dc:51:b1:93:9b:f7:ff:52:ba:
         d1:29:1c:db:e7:51:fb:73:d4:dc:73:69:95:ed:f3:9c:9f:d3:
         78:e2:4b:17:83:69:72:f7:12:62:f7:bd:90:a3:f2:6f:4e:7c:
         dd:86:1f:8a:87:bd:9c:a2:9d:28:73:45:bc:3b:ce:e1:ba:8a:
         9e:20:2b:69:2e:c4:26:22:4d:53:46:4a:10:2a:b3:5d:d5:cc:
         1a:fd:5c:cc:7a:f8:f3:53:b8:00:c7:c0:ff:43:d5:54:48:ff:
         d5:14:af:75:ab:81:a3:29:aa:64:cc:4a:9d:bf:b5:47:aa:60:
         90:a0:7f:98:cd:86:a9:93:3f:d1:f8:26:12:2e:ba:d5:7c:91:
         f9:74:4e:fc:9f:47:0a:88:5e:ea:3d:81:9c:5a:12:bc:c4:43:
         b6:53:00:64:10:b3:7c:83:91:da:86:b3:8c:2b:6f:59:ae:0e:
         35:bc:9b:c1:f1:83:22:47:0b:7e:83:86:d4:64:d5:c7:23:b8:
         37:d7:2c:05:dd:46:52:ac:b2:82:b4:7e:64:76:f1:2d:64:29:
         0d:6e:51:22:87:97:dd:b0
-----BEGIN CERTIFICATE-----
MIIHSDCCBTCgAwIBAgICAKswDQYJKoZIhvcNAQEFBQAwgbQxCzAJBgNVBAYTAlVT
MQswCQYDVQQIEwJDQTEVMBMGA1UEBxMMU2FuRnJhbmNpc2NvMRUwEwYDVQQKEwxQ
aXhnbG8sIEluYy4xEDAOBgNVBAsTB1ZQTi1DSUUxGjAYBgNVBAMTEXR1bm5lbC5w
aXhnbG8uY29tMRwwGgYDVQQpExNCYWxhIENoYW5kcmFzZWthcmFuMR4wHAYJKoZI
hvcNAQkBFg9iYWxhQHBpeGdsby5jb20wHhcNMTgwMjE0MDYyNjMyWhcNMjgwMjEy
MDYyNjMyWjCBqTELMAkGA1UEBhMCVVMxCzAJBgNVBAgTAkNBMRUwEwYDVQQHEwxT
YW5GcmFuY2lzY28xFTATBgNVBAoTDFBpeGdsbywgSW5jLjEQMA4GA1UECxMHVlBO
LUNJRTEPMA0GA1UEAxMGY2llMTcwMRwwGgYDVQQpExNCYWxhIENoYW5kcmFzZWth
cmFuMR4wHAYJKoZIhvcNAQkBFg9iYWxhQHBpeGdsby5jb20wggIiMA0GCSqGSIb3
DQEBAQUAA4ICDwAwggIKAoICAQDQSRhgsqvAdlP66nfcgR61wkT0zO9/i4tdtwLE
WRJSN/peSDq9rEf1BSqoknVM94T7zYfsKKxruLpOJhUv2q62meBhAx39YjgqgABn
inOYUge67D5a7/td7/Exe66aN7sKImeyx5SnI1W7ii6h4iSSK2Tn231sqcJZ5Grs
rItNWP8mGrGrbHqjlnpEI6O8XZODuVoN6xW1atTH+cQlBXJz8lZ3BuJft8MqFW63
SJc+tsOh/qtFwSWQkLRHVDkaa/0Yj602UfC5DB0GDpPL00Vr1ymdhoEQpHsmwXTf
6iwQNvv3nsBGJPhkNE0zYWKGVzzYTnPVE98ssZ14w40tx7q172M1rp13ov92Qx8L
Yh9pHyqMIDpc3ZfFF2lJVVGrtI4N5j6ecSgXGONxq+QBZ0IJsLKizCq85owVdHl2
k8wOkve9vw1wbgKwzPV/t9l9xrGdshvcUt6/bepVUC1LS54muePNH4oxxsU11KqB
+Av+KsHPEp/sfp5LLIzh0bR/BSRqDMqouOlKfBmwGC2ShXT04MO2COcMKhdPa6hQ
KUdbN5ml9FJJPb65PRI3IjtmVRMe78G4FidW420OGMbF4CGz3dUmKPt3QHfa+fDC
D1FedT/KRlpwQxj4ukLxQTMP+OBEy6EWujE23QVf203dkybS9xuQSv5ZbYFBWGTL
fSlGNwIDAQABo4IBazCCAWcwCQYDVR0TBAIwADAtBglghkgBhvhCAQ0EIBYeRWFz
eS1SU0EgR2VuZXJhdGVkIENlcnRpZmljYXRlMB0GA1UdDgQWBBSUwwEBPEKsPlSp
J887U6xrurwyUzCB6QYDVR0jBIHhMIHegBTvOI0UUFinW02cF3L837msp1GwEKGB
uqSBtzCBtDELMAkGA1UEBhMCVVMxCzAJBgNVBAgTAkNBMRUwEwYDVQQHEwxTYW5G
cmFuY2lzY28xFTATBgNVBAoTDFBpeGdsbywgSW5jLjEQMA4GA1UECxMHVlBOLUNJ
RTEaMBgGA1UEAxMRdHVubmVsLnBpeGdsby5jb20xHDAaBgNVBCkTE0JhbGEgQ2hh
bmRyYXNla2FyYW4xHjAcBgkqhkiG9w0BCQEWD2JhbGFAcGl4Z2xvLmNvbYIJAKbb
xoOA5qB5MBMGA1UdJQQMMAoGCCsGAQUFBwMCMAsGA1UdDwQEAwIHgDANBgkqhkiG
9w0BAQUFAAOCAgEAdmmpLzAYDcWJw2mduT+RUvhbr2BAPoNN81OzXCFNejP81CwA
FvfXyeifDq01m5iJYMPNzUsYPVXuUsyorj1BMS9I82oGDatcrz7U/TUE6o4YLYJ0
ln2praVHeHB6ZfvpbrE0GjECSIDUHOYA18LtU8pRyf3aigkCBDDkStKIVDh2Jfeu
3ENmeQS8rA1WdvV+D1Wov9wzGyParJIGlo+ShTVh/M+/wxy2osbpapWv5LQgkxcy
uhJ6b4aFRQprY+5RNoP5Kl/YM50A4jufKpRYG11a4yoBb3/cDdIYzpP4hD+GXdLQ
vA++QvtU+RVmx8AABJ6Xzy+Jl6GjFybRANv7isq7MdCVacqu6BtYodg+HT7EjbXg
/zj9773LiLN0dP4zDGAn9+TkkKMw3FGxk5v3/1K60Skc2+dR+3PU3HNple3znJ/T
eOJLF4NpcvcSYve9kKPyb0583YYfioe9nKKdKHNFvDvO4bqKniAraS7EJiJNU0ZK
ECqzXdXMGv1czHr481O4AMfA/0PVVEj/1RSvdauBoymqZMxKnb+1R6pgkKB/mM2G
qZM/0fgmEi661XyR+XRO/J9HCohe6j2BnFoSvMRDtlMAZBCzfIOR2oazjCtvWa4O
NbybwfGDIkcLfoOG1GTVxyO4N9csBd1GUqyygrR+ZHbxLWQpDW5RIoeX3bA=
-----END CERTIFICATE-----
