Certificate:
    Data:
        Version: 3 (0x2)
        Serial Number: 172 (0xac)
    Signature Algorithm: sha1WithRSAEncryption
        Issuer: C=US, ST=CA, L=SanFrancisco, O=Pixglo, Inc., OU=VPN-CIE, CN=tunnel.pixglo.com/name=Bala Chandrasekaran/emailAddress=bala@pixglo.com
        Validity
            Not Before: Feb 14 06:26:33 2018 GMT
            Not After : Feb 12 06:26:33 2028 GMT
        Subject: C=US, ST=CA, L=SanFrancisco, O=Pixglo, Inc., OU=VPN-CIE, CN=cie171/name=Bala Chandrasekaran/emailAddress=bala@pixglo.com
        Subject Public Key Info:
            Public Key Algorithm: rsaEncryption
                Public-Key: (4096 bit)
                Modulus:
                    00:98:16:5c:2f:b3:57:37:bf:3d:60:14:18:5b:0c:
                    81:dc:7d:a7:80:50:28:2f:4c:d4:34:da:f0:14:7b:
                    4a:c9:5d:9c:de:58:9c:69:d8:83:26:72:f4:fe:a0:
                    e2:0f:6e:3b:4e:f7:4d:fb:1c:08:0b:58:2a:a0:36:
                    01:2e:da:1a:27:bb:8c:5a:51:50:da:92:d3:b6:b0:
                    9e:a4:86:4e:de:dc:cf:28:7c:2c:9d:9f:cd:f4:7e:
                    18:12:02:05:1a:78:5d:99:5d:23:97:2d:c8:2a:8a:
                    2e:2c:8c:2f:c5:17:c5:29:4e:3f:74:60:0a:db:8b:
                    45:8a:8e:f0:60:9a:60:71:77:fc:43:ff:e7:1e:79:
                    3b:0e:29:6d:cf:15:5e:da:06:7d:ab:9c:e2:9e:6b:
                    de:79:f6:58:01:b8:6a:2c:f0:22:ed:19:28:33:20:
                    61:7e:03:12:a0:97:ba:fe:fe:3f:1f:b0:7e:f1:65:
                    45:e4:7f:59:e7:b7:31:8d:20:65:b7:3c:8d:51:4e:
                    e4:b0:c4:52:ad:a5:1d:a5:70:e3:48:90:0d:21:52:
                    93:9c:6a:3e:99:10:0d:b3:35:65:43:7e:44:e8:fc:
                    e3:b1:f3:62:d3:a4:79:2d:16:dd:ea:05:99:04:e7:
                    46:d3:49:0d:93:b1:7c:60:5f:34:86:bb:e5:06:6a:
                    ad:d7:cd:1e:69:fc:3f:48:70:7f:aa:83:ab:03:1c:
                    d1:a1:cd:c8:ea:6f:fb:0c:1a:3f:01:06:33:73:47:
                    e8:94:e7:96:21:a1:b2:98:d0:d2:ad:e9:af:7d:47:
                    39:33:ab:7e:70:ed:9e:1f:4f:23:24:40:ff:b4:14:
                    6a:d2:41:d9:23:7b:d0:97:49:8a:a3:9d:9e:5d:b8:
                    9c:0b:82:94:66:ee:e8:9c:6b:4f:29:a4:43:96:b4:
                    86:a9:89:84:a5:64:24:29:bd:fd:64:c1:9e:a9:43:
                    13:98:ab:fe:aa:d5:27:c0:c4:57:d1:f7:b4:e4:fa:
                    95:27:6a:4b:02:01:3d:2f:89:1a:45:89:78:d1:16:
                    1b:89:b5:75:97:e4:52:cf:b8:9b:5f:23:1e:b7:71:
                    81:40:8c:5c:c6:88:05:af:ad:d2:7e:ba:43:9f:f8:
                    1f:09:b4:fa:1c:61:ff:85:7d:96:82:fc:6e:a0:49:
                    a5:c1:d1:c1:3f:e4:50:d5:a6:9b:f1:c8:a5:04:98:
                    c7:4f:53:7f:1f:20:be:c3:63:73:13:68:fc:ad:c9:
                    13:71:ed:9c:c3:3f:d8:dd:c7:13:94:df:82:c6:a3:
                    d2:90:9e:1e:d8:08:20:5d:39:b4:07:1d:a3:a6:74:
                    98:06:c6:db:49:f9:cb:5f:e8:c3:6c:e0:63:a5:9e:
                    7d:4e:35
                Exponent: 65537 (0x10001)
        X509v3 extensions:
            X509v3 Basic Constraints: 
                CA:FALSE
            Netscape Comment: 
                Easy-RSA Generated Certificate
            X509v3 Subject Key Identifier: 
                B6:8C:DE:73:0B:5A:B5:60:81:37:E3:C0:4D:DE:D9:FA:16:1E:D7:DF
            X509v3 Authority Key Identifier: 
                keyid:EF:38:8D:14:50:58:A7:5B:4D:9C:17:72:FC:DF:B9:AC:A7:51:B0:10
                DirName:/C=US/ST=CA/L=SanFrancisco/O=Pixglo, Inc./OU=VPN-CIE/CN=tunnel.pixglo.com/name=Bala Chandrasekaran/emailAddress=bala@pixglo.com
                serial:A6:DB:C6:83:80:E6:A0:79

            X509v3 Extended Key Usage: 
                TLS Web Client Authentication
            X509v3 Key Usage: 
                Digital Signature
    Signature Algorithm: sha1WithRSAEncryption
         3f:28:41:9b:dd:f9:c8:21:d7:6e:5b:25:0a:4f:b1:89:d5:74:
         c5:00:39:97:7b:bf:95:a5:4d:ad:7b:6e:f7:a3:68:02:26:2b:
         ed:44:0a:55:86:e6:5e:a2:1d:64:2f:cf:b4:95:af:15:f2:55:
         f8:3b:cb:7a:0c:6f:5f:e1:79:13:1c:5d:a2:a5:c5:54:a4:72:
         80:df:97:96:61:b9:13:0c:62:68:30:78:df:91:21:a7:ac:76:
         8e:93:74:36:05:36:06:ab:a1:ff:7f:25:f0:05:5e:2e:cf:d6:
         3e:4c:1b:a6:16:35:93:38:2d:d2:c1:f5:74:03:c7:a5:fb:d6:
         2d:fc:a6:a9:21:db:7b:69:51:64:1b:f2:ec:f6:25:93:0b:a1:
         e6:64:20:a6:14:38:55:ca:ab:51:9e:09:54:72:32:5b:14:04:
         c6:ec:3b:77:c0:26:c0:92:5f:f8:3d:61:e0:cf:4d:0b:ff:10:
         66:46:f0:b9:06:7e:d9:00:b5:14:3a:cf:a2:65:a6:de:c4:5f:
         60:2a:d5:8b:83:70:20:2d:e6:d1:d3:e9:aa:af:10:59:04:4b:
         2d:01:77:62:b8:29:3f:7d:2e:04:35:49:4f:30:47:16:80:30:
         d2:b7:43:2a:52:5e:b9:90:2e:36:6d:38:16:f9:2e:55:13:f4:
         12:57:e4:52:43:59:6f:78:bf:55:99:d3:c6:cd:3a:e2:30:4f:
         ae:fb:e1:af:69:f4:4f:0d:ba:42:cb:ae:88:6b:0e:de:55:0f:
         47:2d:36:5c:bc:7c:ca:85:f8:a8:1d:81:97:72:37:89:58:85:
         fd:dc:36:42:e7:42:54:f3:df:6e:3f:e3:06:98:a9:ad:84:0b:
         bb:08:cf:d2:bf:3f:2a:75:47:ad:11:24:69:0c:9e:8b:7e:c0:
         66:95:a5:85:7b:02:45:fc:92:25:12:6c:80:76:bb:3a:86:cf:
         be:80:32:9b:2a:f8:c4:5f:6f:fa:17:eb:96:33:0a:0b:0b:1c:
         f0:8a:3d:f3:ca:37:8c:93:90:f8:d0:91:ed:bc:5d:5f:11:17:
         c3:61:b4:ef:15:3e:75:cc:cd:fc:a8:2c:7b:18:56:54:07:79:
         89:5b:c1:8e:45:64:ef:d5:c5:ef:d1:10:5f:1b:4e:73:b2:39:
         fe:4c:ad:db:53:c1:94:57:52:78:53:6c:08:9a:de:4c:f0:f7:
         75:8e:e2:6f:29:73:5d:a1:77:ff:6e:79:5a:8d:4b:2b:df:d6:
         ab:d0:90:1b:fc:6a:ac:55:ba:64:b2:82:2d:4e:f2:c6:15:ef:
         c6:22:0e:bb:fa:13:ec:df:67:a3:a7:e7:70:cf:cc:65:d5:aa:
         15:89:46:b0:70:39:e3:cb
-----BEGIN CERTIFICATE-----
MIIHSDCCBTCgAwIBAgICAKwwDQYJKoZIhvcNAQEFBQAwgbQxCzAJBgNVBAYTAlVT
MQswCQYDVQQIEwJDQTEVMBMGA1UEBxMMU2FuRnJhbmNpc2NvMRUwEwYDVQQKEwxQ
aXhnbG8sIEluYy4xEDAOBgNVBAsTB1ZQTi1DSUUxGjAYBgNVBAMTEXR1bm5lbC5w
aXhnbG8uY29tMRwwGgYDVQQpExNCYWxhIENoYW5kcmFzZWthcmFuMR4wHAYJKoZI
hvcNAQkBFg9iYWxhQHBpeGdsby5jb20wHhcNMTgwMjE0MDYyNjMzWhcNMjgwMjEy
MDYyNjMzWjCBqTELMAkGA1UEBhMCVVMxCzAJBgNVBAgTAkNBMRUwEwYDVQQHEwxT
YW5GcmFuY2lzY28xFTATBgNVBAoTDFBpeGdsbywgSW5jLjEQMA4GA1UECxMHVlBO
LUNJRTEPMA0GA1UEAxMGY2llMTcxMRwwGgYDVQQpExNCYWxhIENoYW5kcmFzZWth
cmFuMR4wHAYJKoZIhvcNAQkBFg9iYWxhQHBpeGdsby5jb20wggIiMA0GCSqGSIb3
DQEBAQUAA4ICDwAwggIKAoICAQCYFlwvs1c3vz1gFBhbDIHcfaeAUCgvTNQ02vAU
e0rJXZzeWJxp2IMmcvT+oOIPbjtO9037HAgLWCqgNgEu2honu4xaUVDaktO2sJ6k
hk7e3M8ofCydn830fhgSAgUaeF2ZXSOXLcgqii4sjC/FF8UpTj90YArbi0WKjvBg
mmBxd/xD/+ceeTsOKW3PFV7aBn2rnOKea9559lgBuGos8CLtGSgzIGF+AxKgl7r+
/j8fsH7xZUXkf1nntzGNIGW3PI1RTuSwxFKtpR2lcONIkA0hUpOcaj6ZEA2zNWVD
fkTo/OOx82LTpHktFt3qBZkE50bTSQ2TsXxgXzSGu+UGaq3XzR5p/D9IcH+qg6sD
HNGhzcjqb/sMGj8BBjNzR+iU55YhobKY0NKt6a99Rzkzq35w7Z4fTyMkQP+0FGrS
Qdkje9CXSYqjnZ5duJwLgpRm7uica08ppEOWtIapiYSlZCQpvf1kwZ6pQxOYq/6q
1SfAxFfR97Tk+pUnaksCAT0viRpFiXjRFhuJtXWX5FLPuJtfIx63cYFAjFzGiAWv
rdJ+ukOf+B8JtPocYf+FfZaC/G6gSaXB0cE/5FDVppvxyKUEmMdPU38fIL7DY3MT
aPytyRNx7ZzDP9jdxxOU34LGo9KQnh7YCCBdObQHHaOmdJgGxttJ+ctf6MNs4GOl
nn1ONQIDAQABo4IBazCCAWcwCQYDVR0TBAIwADAtBglghkgBhvhCAQ0EIBYeRWFz
eS1SU0EgR2VuZXJhdGVkIENlcnRpZmljYXRlMB0GA1UdDgQWBBS2jN5zC1q1YIE3
48BN3tn6Fh7X3zCB6QYDVR0jBIHhMIHegBTvOI0UUFinW02cF3L837msp1GwEKGB
uqSBtzCBtDELMAkGA1UEBhMCVVMxCzAJBgNVBAgTAkNBMRUwEwYDVQQHEwxTYW5G
cmFuY2lzY28xFTATBgNVBAoTDFBpeGdsbywgSW5jLjEQMA4GA1UECxMHVlBOLUNJ
RTEaMBgGA1UEAxMRdHVubmVsLnBpeGdsby5jb20xHDAaBgNVBCkTE0JhbGEgQ2hh
bmRyYXNla2FyYW4xHjAcBgkqhkiG9w0BCQEWD2JhbGFAcGl4Z2xvLmNvbYIJAKbb
xoOA5qB5MBMGA1UdJQQMMAoGCCsGAQUFBwMCMAsGA1UdDwQEAwIHgDANBgkqhkiG
9w0BAQUFAAOCAgEAPyhBm935yCHXblslCk+xidV0xQA5l3u/laVNrXtu96NoAiYr
7UQKVYbmXqIdZC/PtJWvFfJV+DvLegxvX+F5ExxdoqXFVKRygN+XlmG5EwxiaDB4
35Ehp6x2jpN0NgU2Bquh/38l8AVeLs/WPkwbphY1kzgt0sH1dAPHpfvWLfymqSHb
e2lRZBvy7PYlkwuh5mQgphQ4VcqrUZ4JVHIyWxQExuw7d8AmwJJf+D1h4M9NC/8Q
ZkbwuQZ+2QC1FDrPomWm3sRfYCrVi4NwIC3m0dPpqq8QWQRLLQF3YrgpP30uBDVJ
TzBHFoAw0rdDKlJeuZAuNm04FvkuVRP0ElfkUkNZb3i/VZnTxs064jBPrvvhr2n0
Tw26QsuuiGsO3lUPRy02XLx8yoX4qB2Bl3I3iViF/dw2QudCVPPfbj/jBpiprYQL
uwjP0r8/KnVHrREkaQyei37AZpWlhXsCRfySJRJsgHa7OobPvoAymyr4xF9v+hfr
ljMKCwsc8Io988o3jJOQ+NCR7bxdXxEXw2G07xU+dczN/KgsexhWVAd5iVvBjkVk
79XF79EQXxtOc7I5/kyt21PBlFdSeFNsCJreTPD3dY7ibylzXaF3/255Wo1LK9/W
q9CQG/xqrFW6ZLKCLU7yxhXvxiIOu/oT7N9no6fncM/MZdWqFYlGsHA548s=
-----END CERTIFICATE-----
