Certificate:
    Data:
        Version: 3 (0x2)
        Serial Number: 173 (0xad)
    Signature Algorithm: sha1WithRSAEncryption
        Issuer: C=US, ST=CA, L=SanFrancisco, O=Pixglo, Inc., OU=VPN-CIE, CN=tunnel.pixglo.com/name=Bala Chandrasekaran/emailAddress=bala@pixglo.com
        Validity
            Not Before: Feb 14 06:26:33 2018 GMT
            Not After : Feb 12 06:26:33 2028 GMT
        Subject: C=US, ST=CA, L=SanFrancisco, O=Pixglo, Inc., OU=VPN-CIE, CN=cie172/name=Bala Chandrasekaran/emailAddress=bala@pixglo.com
        Subject Public Key Info:
            Public Key Algorithm: rsaEncryption
                Public-Key: (4096 bit)
                Modulus:
                    00:d5:88:d7:ba:f9:db:c2:ce:12:2a:13:9d:f5:71:
                    fb:b5:1e:9a:b2:38:00:3d:b7:04:47:45:f0:5b:c5:
                    f1:b1:4c:ad:4b:65:f0:29:5a:8a:83:b1:aa:60:74:
                    ae:05:71:ac:89:e8:4a:89:40:e3:f7:ab:6c:95:8e:
                    62:06:58:5f:29:9f:aa:f0:1d:ad:a7:9b:2a:40:74:
                    28:3d:2f:4f:ce:c8:76:6f:5c:3a:35:09:93:8e:4d:
                    90:30:67:ac:d1:23:6b:73:c2:0d:ca:2a:9b:9e:35:
                    e8:8a:92:14:bb:39:00:81:bb:d7:21:bf:17:fa:06:
                    f5:45:ab:5d:bc:b3:33:1b:7c:22:22:a3:45:2f:ff:
                    e8:df:23:0d:b5:ba:b8:4e:9f:c1:57:ae:23:1d:1d:
                    09:f2:d2:13:48:9f:8b:1a:fc:9f:8d:0c:c0:27:8f:
                    ea:f0:3f:0e:b7:21:e8:e9:03:b8:71:4d:ad:60:7b:
                    bf:d4:03:81:c3:df:19:27:51:8f:9c:b2:2f:4b:e8:
                    3c:6f:99:17:67:37:4f:79:17:73:41:7f:df:74:07:
                    08:37:ea:30:4d:90:fd:b2:e6:5d:ab:d7:65:64:bb:
                    91:fc:aa:c9:f9:db:b6:a6:2d:4d:d8:5a:66:ed:8b:
                    36:34:71:9d:62:80:3e:8d:79:df:d4:5d:ba:b3:9f:
                    a7:5b:f7:d1:86:4a:78:c9:6b:f2:0a:6a:1f:d6:fa:
                    d8:da:c9:bb:e8:7c:bc:35:ca:37:d7:ed:f4:2d:c7:
                    ec:25:98:61:ea:4d:b0:d8:ca:b2:df:db:3f:65:c9:
                    94:b2:84:33:b6:7c:d8:35:e5:d0:33:ff:ac:3e:01:
                    25:b3:73:54:34:0e:51:3d:a2:07:b5:43:b1:89:2f:
                    cd:a2:5d:59:5f:e0:63:5d:ab:dd:b2:be:c5:87:5d:
                    77:99:55:8c:ca:94:7f:5f:2e:04:18:f7:96:13:c3:
                    f1:e6:62:b2:89:f8:97:b1:78:8f:96:3d:09:d8:e3:
                    08:1c:55:da:5a:7a:f4:26:16:01:db:b1:f2:c3:6c:
                    15:dd:65:7f:e6:bf:6e:37:fd:69:7f:be:b6:b8:c3:
                    04:bb:98:bf:b1:61:13:6d:8e:d5:ce:6c:5f:3d:64:
                    44:cd:d2:3c:40:ff:76:c7:59:e9:39:d7:ed:ac:68:
                    95:7a:6d:4a:89:e6:65:66:87:22:e5:7d:14:61:c8:
                    3e:be:09:d1:64:0e:c9:76:dd:f0:a8:53:d2:14:ac:
                    fe:90:78:68:c8:fb:e7:4e:58:40:7e:64:84:93:1e:
                    69:e5:28:f7:f9:20:0c:c0:2e:07:b4:59:48:ae:06:
                    2a:e9:70:f5:0a:b9:0d:0b:18:90:bf:f8:eb:1b:13:
                    97:83:8b
                Exponent: 65537 (0x10001)
        X509v3 extensions:
            X509v3 Basic Constraints: 
                CA:FALSE
            Netscape Comment: 
                Easy-RSA Generated Certificate
            X509v3 Subject Key Identifier: 
                FF:44:AF:42:B4:E5:0E:E0:78:9C:3C:04:02:0F:5A:C3:99:4C:21:3E
            X509v3 Authority Key Identifier: 
                keyid:EF:38:8D:14:50:58:A7:5B:4D:9C:17:72:FC:DF:B9:AC:A7:51:B0:10
                DirName:/C=US/ST=CA/L=SanFrancisco/O=Pixglo, Inc./OU=VPN-CIE/CN=tunnel.pixglo.com/name=Bala Chandrasekaran/emailAddress=bala@pixglo.com
                serial:A6:DB:C6:83:80:E6:A0:79

            X509v3 Extended Key Usage: 
                TLS Web Client Authentication
            X509v3 Key Usage: 
                Digital Signature
    Signature Algorithm: sha1WithRSAEncryption
         1e:a8:11:5c:d1:12:b6:47:87:ce:ff:37:1a:e1:5c:16:60:51:
         e2:0b:8a:08:b5:af:e3:3b:54:97:22:76:38:52:6b:0d:80:a3:
         33:18:35:1a:2e:da:e4:1d:3d:4b:72:be:10:f9:7b:da:d3:6f:
         04:46:b4:b8:b4:02:4c:29:90:68:59:ed:13:78:96:81:62:c5:
         01:7d:40:05:8d:0d:61:d1:e4:03:82:4a:2d:05:4a:43:27:b6:
         a3:c2:95:2f:cc:a2:c5:9d:35:2c:e8:7b:07:6c:43:b1:fb:07:
         1f:9a:8e:f1:83:f4:1d:1e:46:9c:fd:e8:d3:53:a7:1a:b9:10:
         24:95:a3:1a:b0:81:c1:70:1b:33:97:f0:97:ab:ee:b7:5f:53:
         71:6d:99:dd:f7:f1:f9:18:dd:fa:56:92:68:69:08:8e:12:32:
         64:16:0f:a3:9b:ff:52:51:08:3d:3e:ec:a3:12:e5:2a:35:09:
         14:ec:ee:c0:90:9a:3a:cc:03:37:6d:5d:65:e6:a6:0b:4f:3d:
         8f:e1:f2:80:59:54:63:e1:5c:34:ce:9d:36:ff:51:26:e5:98:
         f0:ee:4c:d6:c2:94:44:74:a3:b9:73:6e:06:3c:e9:07:a4:44:
         44:2c:14:92:68:ba:00:8e:b8:69:95:d3:49:23:e8:46:b3:f4:
         3f:9f:a0:6c:93:57:95:2a:2e:92:27:6c:c5:3c:ed:c3:01:e4:
         83:50:6a:1d:4a:6f:e7:72:27:e4:5d:bf:b5:c9:52:8b:b4:b7:
         96:11:72:73:68:b4:cd:f0:bb:e6:95:36:d6:ec:78:ec:3e:39:
         f5:8c:31:a6:b5:68:df:87:77:49:8a:cd:36:52:5d:27:9e:4f:
         25:6e:85:ea:56:d5:b6:9a:0d:9a:42:78:12:8c:45:4b:91:ee:
         64:41:b8:1f:66:31:ae:4f:ca:e3:ad:dd:cf:7a:ad:25:e0:3b:
         6a:e1:36:4c:2d:59:72:a5:83:84:c6:a5:f2:bc:6e:07:fd:ee:
         3d:4d:d7:dd:e7:4c:44:18:10:85:d8:85:b3:1e:49:bd:e6:ea:
         67:55:70:05:3c:86:13:2b:13:c4:dc:40:2a:17:23:04:97:79:
         a5:95:a4:ec:77:09:b7:5d:f0:fc:c8:69:ef:d1:7f:29:47:a2:
         4a:d8:be:f1:16:c8:d8:4c:92:31:c4:2a:b4:81:e7:76:97:b0:
         29:b2:39:a3:f1:6a:1b:6b:b7:79:03:ef:cd:ba:47:d7:77:e7:
         8c:1d:46:23:7f:db:de:1e:aa:38:74:d5:d5:ca:2e:e9:c0:5e:
         bb:39:27:e1:3b:7b:56:17:3e:46:34:a2:65:91:6b:83:37:72:
         95:ba:88:09:62:aa:cd:14
-----BEGIN CERTIFICATE-----
MIIHSDCCBTCgAwIBAgICAK0wDQYJKoZIhvcNAQEFBQAwgbQxCzAJBgNVBAYTAlVT
MQswCQYDVQQIEwJDQTEVMBMGA1UEBxMMU2FuRnJhbmNpc2NvMRUwEwYDVQQKEwxQ
aXhnbG8sIEluYy4xEDAOBgNVBAsTB1ZQTi1DSUUxGjAYBgNVBAMTEXR1bm5lbC5w
aXhnbG8uY29tMRwwGgYDVQQpExNCYWxhIENoYW5kcmFzZWthcmFuMR4wHAYJKoZI
hvcNAQkBFg9iYWxhQHBpeGdsby5jb20wHhcNMTgwMjE0MDYyNjMzWhcNMjgwMjEy
MDYyNjMzWjCBqTELMAkGA1UEBhMCVVMxCzAJBgNVBAgTAkNBMRUwEwYDVQQHEwxT
YW5GcmFuY2lzY28xFTATBgNVBAoTDFBpeGdsbywgSW5jLjEQMA4GA1UECxMHVlBO
LUNJRTEPMA0GA1UEAxMGY2llMTcyMRwwGgYDVQQpExNCYWxhIENoYW5kcmFzZWth
cmFuMR4wHAYJKoZIhvcNAQkBFg9iYWxhQHBpeGdsby5jb20wggIiMA0GCSqGSIb3
DQEBAQUAA4ICDwAwggIKAoICAQDViNe6+dvCzhIqE531cfu1HpqyOAA9twRHRfBb
xfGxTK1LZfApWoqDsapgdK4FcayJ6EqJQOP3q2yVjmIGWF8pn6rwHa2nmypAdCg9
L0/OyHZvXDo1CZOOTZAwZ6zRI2tzwg3KKpueNeiKkhS7OQCBu9chvxf6BvVFq128
szMbfCIio0Uv/+jfIw21urhOn8FXriMdHQny0hNIn4sa/J+NDMAnj+rwPw63Iejp
A7hxTa1ge7/UA4HD3xknUY+csi9L6DxvmRdnN095F3NBf990Bwg36jBNkP2y5l2r
12Vku5H8qsn527amLU3YWmbtizY0cZ1igD6Ned/UXbqzn6db99GGSnjJa/IKah/W
+tjaybvofLw1yjfX7fQtx+wlmGHqTbDYyrLf2z9lyZSyhDO2fNg15dAz/6w+ASWz
c1Q0DlE9oge1Q7GJL82iXVlf4GNdq92yvsWHXXeZVYzKlH9fLgQY95YTw/HmYrKJ
+JexeI+WPQnY4wgcVdpaevQmFgHbsfLDbBXdZX/mv243/Wl/vra4wwS7mL+xYRNt
jtXObF89ZETN0jxA/3bHWek51+2saJV6bUqJ5mVmhyLlfRRhyD6+CdFkDsl23fCo
U9IUrP6QeGjI++dOWEB+ZISTHmnlKPf5IAzALge0WUiuBirpcPUKuQ0LGJC/+Osb
E5eDiwIDAQABo4IBazCCAWcwCQYDVR0TBAIwADAtBglghkgBhvhCAQ0EIBYeRWFz
eS1SU0EgR2VuZXJhdGVkIENlcnRpZmljYXRlMB0GA1UdDgQWBBT/RK9CtOUO4Hic
PAQCD1rDmUwhPjCB6QYDVR0jBIHhMIHegBTvOI0UUFinW02cF3L837msp1GwEKGB
uqSBtzCBtDELMAkGA1UEBhMCVVMxCzAJBgNVBAgTAkNBMRUwEwYDVQQHEwxTYW5G
cmFuY2lzY28xFTATBgNVBAoTDFBpeGdsbywgSW5jLjEQMA4GA1UECxMHVlBOLUNJ
RTEaMBgGA1UEAxMRdHVubmVsLnBpeGdsby5jb20xHDAaBgNVBCkTE0JhbGEgQ2hh
bmRyYXNla2FyYW4xHjAcBgkqhkiG9w0BCQEWD2JhbGFAcGl4Z2xvLmNvbYIJAKbb
xoOA5qB5MBMGA1UdJQQMMAoGCCsGAQUFBwMCMAsGA1UdDwQEAwIHgDANBgkqhkiG
9w0BAQUFAAOCAgEAHqgRXNEStkeHzv83GuFcFmBR4guKCLWv4ztUlyJ2OFJrDYCj
Mxg1Gi7a5B09S3K+EPl72tNvBEa0uLQCTCmQaFntE3iWgWLFAX1ABY0NYdHkA4JK
LQVKQye2o8KVL8yixZ01LOh7B2xDsfsHH5qO8YP0HR5GnP3o01OnGrkQJJWjGrCB
wXAbM5fwl6vut19TcW2Z3ffx+Rjd+laSaGkIjhIyZBYPo5v/UlEIPT7soxLlKjUJ
FOzuwJCaOswDN21dZeamC089j+HygFlUY+FcNM6dNv9RJuWY8O5M1sKURHSjuXNu
BjzpB6RERCwUkmi6AI64aZXTSSPoRrP0P5+gbJNXlSoukidsxTztwwHkg1BqHUpv
53In5F2/tclSi7S3lhFyc2i0zfC75pU21ux47D459YwxprVo34d3SYrNNlJdJ55P
JW6F6lbVtpoNmkJ4EoxFS5HuZEG4H2Yxrk/K463dz3qtJeA7auE2TC1ZcqWDhMal
8rxuB/3uPU3X3edMRBgQhdiFsx5JvebqZ1VwBTyGEysTxNxAKhcjBJd5pZWk7HcJ
t13w/Mhp79F/KUeiSti+8RbI2EySMcQqtIHndpewKbI5o/FqG2u3eQPvzbpH13fn
jB1GI3/b3h6qOHTV1cou6cBeuzkn4Tt7Vhc+RjSiZZFrgzdylbqICWKqzRQ=
-----END CERTIFICATE-----
