Certificate:
    Data:
        Version: 3 (0x2)
        Serial Number: 174 (0xae)
    Signature Algorithm: sha1WithRSAEncryption
        Issuer: C=US, ST=CA, L=SanFrancisco, O=Pixglo, Inc., OU=VPN-CIE, CN=tunnel.pixglo.com/name=Bala Chandrasekaran/emailAddress=bala@pixglo.com
        Validity
            Not Before: Feb 14 06:26:34 2018 GMT
            Not After : Feb 12 06:26:34 2028 GMT
        Subject: C=US, ST=CA, L=SanFrancisco, O=Pixglo, Inc., OU=VPN-CIE, CN=cie173/name=Bala Chandrasekaran/emailAddress=bala@pixglo.com
        Subject Public Key Info:
            Public Key Algorithm: rsaEncryption
                Public-Key: (4096 bit)
                Modulus:
                    00:de:91:88:1d:b8:58:57:cd:24:f2:50:ee:60:b3:
                    e2:e6:b6:85:53:5f:00:00:cd:a2:1e:cf:01:9d:35:
                    d2:af:6b:96:1f:5d:8d:af:61:c0:80:ed:bc:78:c0:
                    89:6a:6e:7b:99:ba:03:85:4e:b6:9d:72:ae:2b:0b:
                    c6:10:bf:85:cb:d4:f8:a3:2b:eb:c0:12:a5:34:66:
                    2b:89:1f:9d:a1:87:58:5d:4f:da:08:82:45:2c:13:
                    d8:99:45:2b:6b:34:63:26:87:c8:f8:6d:a4:8a:3f:
                    cf:43:b2:27:09:86:b5:eb:99:90:ea:aa:3a:f4:d7:
                    91:33:e7:fd:3f:22:9c:b6:14:ff:66:3c:b2:0c:05:
                    59:9c:7b:0d:fe:9e:ed:73:af:d9:4c:0d:40:94:d2:
                    e5:a7:8a:e1:35:2b:51:26:dc:95:ec:e9:3d:c7:a1:
                    72:ec:a7:bd:f0:9e:ac:ab:8e:1b:11:19:18:66:23:
                    2d:29:1a:b5:cb:5b:1f:c7:6b:82:69:d4:90:d3:a9:
                    50:8f:d2:59:3c:37:91:58:fc:9f:b2:d6:63:58:ba:
                    3f:95:4b:f5:2d:b4:6e:7f:b8:ff:2e:fb:11:41:a0:
                    08:10:b8:07:cf:d3:72:7c:19:5c:5a:4d:58:01:ca:
                    9b:1c:65:8c:67:21:d4:c3:e2:2f:63:99:46:ac:79:
                    6e:e4:97:58:a7:9c:77:52:36:60:a8:e2:e0:08:0c:
                    fe:f9:8d:5a:0f:dd:8b:d4:35:b8:72:a4:01:6a:59:
                    25:fe:a4:85:6f:22:2d:7c:89:32:4d:9c:43:6d:8f:
                    18:9e:9f:1f:80:35:13:da:4f:af:6c:bb:73:ff:0a:
                    9c:5a:1b:2d:a8:c1:3a:20:fe:ce:15:00:02:01:89:
                    6e:c2:bd:33:30:e7:7d:31:c3:ac:c6:17:56:86:8c:
                    33:23:24:cd:46:6e:46:36:6f:83:44:df:c0:d5:d7:
                    10:b6:c6:56:61:19:0e:21:a1:98:eb:a8:9e:b1:b4:
                    77:91:eb:75:39:55:ca:46:dc:79:b1:02:a2:46:2f:
                    71:b0:8e:5f:0b:c4:17:d6:81:73:88:1c:54:16:92:
                    cb:a0:85:74:34:dc:68:e1:dd:ce:f7:53:29:d5:19:
                    d4:ea:57:c9:7a:b3:08:12:2e:42:25:c7:5c:0a:98:
                    c8:25:4d:45:fc:33:11:f0:ef:a9:3a:6b:f3:6b:6f:
                    cd:51:32:e6:4d:39:53:95:38:58:60:b2:51:20:fe:
                    29:5e:52:3b:85:e0:7a:bb:c4:19:f4:4f:40:8b:ca:
                    fd:0f:ad:00:83:2a:ba:63:cc:28:3d:c2:0f:e4:a8:
                    ec:b9:6c:e3:c5:99:09:5d:48:19:ee:7f:96:b8:47:
                    1b:a8:fb
                Exponent: 65537 (0x10001)
        X509v3 extensions:
            X509v3 Basic Constraints: 
                CA:FALSE
            Netscape Comment: 
                Easy-RSA Generated Certificate
            X509v3 Subject Key Identifier: 
                25:64:DB:81:3E:8E:0B:95:76:75:78:EF:BC:7D:EB:A8:0E:44:DE:A3
            X509v3 Authority Key Identifier: 
                keyid:EF:38:8D:14:50:58:A7:5B:4D:9C:17:72:FC:DF:B9:AC:A7:51:B0:10
                DirName:/C=US/ST=CA/L=SanFrancisco/O=Pixglo, Inc./OU=VPN-CIE/CN=tunnel.pixglo.com/name=Bala Chandrasekaran/emailAddress=bala@pixglo.com
                serial:A6:DB:C6:83:80:E6:A0:79

            X509v3 Extended Key Usage: 
                TLS Web Client Authentication
            X509v3 Key Usage: 
                Digital Signature
    Signature Algorithm: sha1WithRSAEncryption
         6a:0d:b1:a2:0b:4e:3c:10:5b:8c:70:ba:b4:48:1a:89:8d:19:
         e1:f3:33:03:47:4f:97:bf:48:e6:a5:05:48:ae:e6:e6:24:85:
         3b:5a:dc:fd:fe:5b:57:1f:41:e5:5e:13:04:aa:ab:ce:23:16:
         29:b8:0c:db:c6:e8:ea:d5:53:01:76:ee:d5:4a:6a:47:8b:85:
         7a:da:5f:57:e9:31:67:2d:d5:3d:6a:b8:44:5d:ea:87:23:7a:
         81:c2:9a:d9:41:8e:d4:11:a6:ab:8c:ad:7c:70:5a:57:ac:c5:
         5d:cc:9a:57:42:aa:cd:39:7f:9a:00:9e:b7:77:04:0d:7b:34:
         7a:eb:6b:72:8d:fe:1d:f2:56:a7:78:3b:3d:db:88:ca:a1:72:
         a5:68:ba:36:98:cb:68:a4:ad:cb:0d:7e:b3:f5:a5:b7:82:7b:
         2f:1b:de:22:e6:df:5b:f0:3c:b1:a1:e6:46:47:4a:58:e1:77:
         b0:d8:8e:7b:fc:74:4a:20:dc:2b:03:d4:c5:68:14:63:8e:e3:
         0d:3f:94:59:db:eb:0b:1b:28:55:ee:e0:56:6a:9d:e2:62:7d:
         c9:b8:ba:5f:09:b1:55:4c:23:86:21:b5:20:ab:8a:3e:b3:fc:
         b3:1e:41:1b:60:a9:0a:a7:cf:c9:0c:fc:a6:ad:75:12:f5:81:
         2c:f1:be:75:e0:81:b3:ac:06:f0:3a:af:49:3f:04:dc:e7:a5:
         98:3a:f3:ad:3f:e7:37:2a:93:b2:07:b1:ec:7b:df:2b:77:a5:
         36:4d:6b:a1:38:4d:1c:32:d1:f9:42:5a:92:59:ea:54:db:fa:
         a0:1e:65:18:49:c7:e4:56:a8:e8:6e:09:ae:d3:e1:ac:cd:22:
         45:e9:99:3d:9e:45:c3:c7:c3:50:61:9a:85:d4:d0:4b:06:5f:
         a0:a3:0d:35:44:ee:93:8e:5d:53:78:b7:54:69:e9:61:fe:a9:
         85:66:00:ab:97:f0:59:3a:0f:14:ea:67:e2:60:9b:28:8d:e2:
         1a:f4:34:fc:9e:c5:37:9d:b1:be:31:bf:8b:86:81:ca:15:dd:
         32:d6:91:36:16:eb:00:86:08:35:19:ce:7b:f0:ae:3b:b6:67:
         c0:41:30:9c:e8:44:95:5c:e7:e7:a0:5d:9a:4c:58:ff:94:f9:
         a0:d7:ec:41:c0:15:88:96:51:43:e0:8e:e7:7c:2d:5a:c1:11:
         b1:68:31:ff:ab:5a:41:2b:3c:70:8a:d7:1c:e6:d9:d2:1b:1a:
         a2:86:50:7d:a4:65:c2:e5:30:6c:2b:16:ab:01:5e:dc:5c:62:
         6d:f6:3f:45:81:13:68:bf:67:4f:66:d8:b9:d5:31:bb:4d:40:
         49:22:1d:96:0b:20:bd:5a
-----BEGIN CERTIFICATE-----
MIIHSDCCBTCgAwIBAgICAK4wDQYJKoZIhvcNAQEFBQAwgbQxCzAJBgNVBAYTAlVT
MQswCQYDVQQIEwJDQTEVMBMGA1UEBxMMU2FuRnJhbmNpc2NvMRUwEwYDVQQKEwxQ
aXhnbG8sIEluYy4xEDAOBgNVBAsTB1ZQTi1DSUUxGjAYBgNVBAMTEXR1bm5lbC5w
aXhnbG8uY29tMRwwGgYDVQQpExNCYWxhIENoYW5kcmFzZWthcmFuMR4wHAYJKoZI
hvcNAQkBFg9iYWxhQHBpeGdsby5jb20wHhcNMTgwMjE0MDYyNjM0WhcNMjgwMjEy
MDYyNjM0WjCBqTELMAkGA1UEBhMCVVMxCzAJBgNVBAgTAkNBMRUwEwYDVQQHEwxT
YW5GcmFuY2lzY28xFTATBgNVBAoTDFBpeGdsbywgSW5jLjEQMA4GA1UECxMHVlBO
LUNJRTEPMA0GA1UEAxMGY2llMTczMRwwGgYDVQQpExNCYWxhIENoYW5kcmFzZWth
cmFuMR4wHAYJKoZIhvcNAQkBFg9iYWxhQHBpeGdsby5jb20wggIiMA0GCSqGSIb3
DQEBAQUAA4ICDwAwggIKAoICAQDekYgduFhXzSTyUO5gs+LmtoVTXwAAzaIezwGd
NdKva5YfXY2vYcCA7bx4wIlqbnuZugOFTradcq4rC8YQv4XL1PijK+vAEqU0ZiuJ
H52hh1hdT9oIgkUsE9iZRStrNGMmh8j4baSKP89DsicJhrXrmZDqqjr015Ez5/0/
Ipy2FP9mPLIMBVmcew3+nu1zr9lMDUCU0uWniuE1K1Em3JXs6T3HoXLsp73wnqyr
jhsRGRhmIy0pGrXLWx/Ha4Jp1JDTqVCP0lk8N5FY/J+y1mNYuj+VS/UttG5/uP8u
+xFBoAgQuAfP03J8GVxaTVgBypscZYxnIdTD4i9jmUaseW7kl1innHdSNmCo4uAI
DP75jVoP3YvUNbhypAFqWSX+pIVvIi18iTJNnENtjxienx+ANRPaT69su3P/Cpxa
Gy2owTog/s4VAAIBiW7CvTMw530xw6zGF1aGjDMjJM1GbkY2b4NE38DV1xC2xlZh
GQ4hoZjrqJ6xtHeR63U5VcpG3HmxAqJGL3Gwjl8LxBfWgXOIHFQWksughXQ03Gjh
3c73UynVGdTqV8l6swgSLkIlx1wKmMglTUX8MxHw76k6a/Nrb81RMuZNOVOVOFhg
slEg/ileUjuF4Hq7xBn0T0CLyv0PrQCDKrpjzCg9wg/kqOy5bOPFmQldSBnuf5a4
Rxuo+wIDAQABo4IBazCCAWcwCQYDVR0TBAIwADAtBglghkgBhvhCAQ0EIBYeRWFz
eS1SU0EgR2VuZXJhdGVkIENlcnRpZmljYXRlMB0GA1UdDgQWBBQlZNuBPo4LlXZ1
eO+8feuoDkTeozCB6QYDVR0jBIHhMIHegBTvOI0UUFinW02cF3L837msp1GwEKGB
uqSBtzCBtDELMAkGA1UEBhMCVVMxCzAJBgNVBAgTAkNBMRUwEwYDVQQHEwxTYW5G
cmFuY2lzY28xFTATBgNVBAoTDFBpeGdsbywgSW5jLjEQMA4GA1UECxMHVlBOLUNJ
RTEaMBgGA1UEAxMRdHVubmVsLnBpeGdsby5jb20xHDAaBgNVBCkTE0JhbGEgQ2hh
bmRyYXNla2FyYW4xHjAcBgkqhkiG9w0BCQEWD2JhbGFAcGl4Z2xvLmNvbYIJAKbb
xoOA5qB5MBMGA1UdJQQMMAoGCCsGAQUFBwMCMAsGA1UdDwQEAwIHgDANBgkqhkiG
9w0BAQUFAAOCAgEAag2xogtOPBBbjHC6tEgaiY0Z4fMzA0dPl79I5qUFSK7m5iSF
O1rc/f5bVx9B5V4TBKqrziMWKbgM28bo6tVTAXbu1UpqR4uFetpfV+kxZy3VPWq4
RF3qhyN6gcKa2UGO1BGmq4ytfHBaV6zFXcyaV0KqzTl/mgCet3cEDXs0eutrco3+
HfJWp3g7PduIyqFypWi6NpjLaKStyw1+s/Wlt4J7LxveIubfW/A8saHmRkdKWOF3
sNiOe/x0SiDcKwPUxWgUY47jDT+UWdvrCxsoVe7gVmqd4mJ9ybi6XwmxVUwjhiG1
IKuKPrP8sx5BG2CpCqfPyQz8pq11EvWBLPG+deCBs6wG8DqvST8E3OelmDrzrT/n
NyqTsgex7HvfK3elNk1roThNHDLR+UJaklnqVNv6oB5lGEnH5Fao6G4JrtPhrM0i
RemZPZ5Fw8fDUGGahdTQSwZfoKMNNUTuk45dU3i3VGnpYf6phWYAq5fwWToPFOpn
4mCbKI3iGvQ0/J7FN52xvjG/i4aByhXdMtaRNhbrAIYINRnOe/CuO7ZnwEEwnOhE
lVzn56BdmkxY/5T5oNfsQcAViJZRQ+CO53wtWsERsWgx/6taQSs8cIrXHObZ0hsa
ooZQfaRlwuUwbCsWqwFe3FxibfY/RYETaL9nT2bYudUxu01ASSIdlgsgvVo=
-----END CERTIFICATE-----
