Certificate:
    Data:
        Version: 3 (0x2)
        Serial Number: 177 (0xb1)
    Signature Algorithm: sha1WithRSAEncryption
        Issuer: C=US, ST=CA, L=SanFrancisco, O=Pixglo, Inc., OU=VPN-CIE, CN=tunnel.pixglo.com/name=Bala Chandrasekaran/emailAddress=bala@pixglo.com
        Validity
            Not Before: Feb 14 06:26:35 2018 GMT
            Not After : Feb 12 06:26:35 2028 GMT
        Subject: C=US, ST=CA, L=SanFrancisco, O=Pixglo, Inc., OU=VPN-CIE, CN=cie176/name=Bala Chandrasekaran/emailAddress=bala@pixglo.com
        Subject Public Key Info:
            Public Key Algorithm: rsaEncryption
                Public-Key: (4096 bit)
                Modulus:
                    00:b3:d4:d3:98:33:c8:3b:35:fc:20:4c:da:6b:cc:
                    1b:49:db:21:b1:26:3a:b2:7d:94:2d:93:51:e0:8a:
                    f4:29:5e:8f:1c:91:c9:42:74:d6:37:02:22:71:14:
                    8f:ad:46:5d:e3:79:1a:1e:f6:5a:c9:1f:3c:50:1d:
                    9e:7d:f8:c2:c4:45:c0:52:37:ad:d0:0a:32:a2:d1:
                    38:a3:bf:c8:82:60:84:5f:5f:af:83:cb:5f:c7:2b:
                    90:9c:60:75:24:68:6d:bd:57:fd:4b:ca:56:70:d5:
                    b7:39:c0:e4:4f:7b:f5:74:4f:99:7e:12:aa:1c:5f:
                    81:1c:d4:b9:f8:26:16:88:7e:7c:6e:0a:d5:65:d4:
                    c6:c0:a8:9f:42:35:1c:35:b3:21:dc:77:ac:dd:29:
                    37:72:ac:2b:70:e8:ba:ca:75:d0:81:6d:6c:94:f4:
                    21:8f:45:6e:6b:95:58:a0:e5:48:a1:d4:c6:30:d3:
                    d5:70:1e:dc:b9:e4:2e:e6:9a:2f:32:b9:c8:33:8d:
                    31:91:22:94:4b:a5:57:e6:06:27:3b:a5:f8:cf:b2:
                    4f:c3:59:2e:d6:de:d4:9e:4c:b3:72:47:7f:0a:02:
                    21:f7:03:c1:d5:88:2c:f5:84:e9:f5:68:7b:ca:d8:
                    42:f7:8d:02:0b:95:2e:f9:e9:3f:58:bf:a3:9e:39:
                    9f:d1:79:ac:6d:4f:e0:98:3c:81:8a:fd:ce:d4:a4:
                    5d:9d:81:5d:d4:a4:bb:c8:76:7a:a9:49:65:49:15:
                    42:b9:9a:f5:2e:3d:8d:55:40:f5:bf:8a:85:76:b9:
                    0d:84:82:82:8a:74:46:37:2a:cd:e5:1f:45:8d:31:
                    a3:71:52:70:72:c3:8a:69:04:7d:a9:85:93:48:ad:
                    76:68:57:4a:1c:78:3f:14:68:d1:c5:63:26:0a:70:
                    9f:a8:33:f7:99:9a:13:86:6c:df:3f:fc:d1:eb:66:
                    a5:6a:d0:bb:99:ab:04:90:49:25:8d:ef:1e:d0:38:
                    68:c4:92:b4:b6:80:0f:dc:08:5a:a7:f0:47:04:13:
                    fd:d4:4b:c8:53:0a:b7:4a:fd:f5:ec:e6:2c:cb:7c:
                    d9:cd:a3:c8:3f:d3:79:b6:f5:b4:58:ee:a9:d7:be:
                    af:62:7c:30:35:8c:d0:8b:1d:f7:7e:73:d6:2d:d6:
                    65:4c:0d:f3:21:01:15:99:d4:a1:48:0c:95:5f:ba:
                    7e:08:1c:7e:ef:ce:1c:68:c4:2b:9f:e1:3a:cb:51:
                    8c:e0:e1:47:60:f8:cb:cd:c8:12:a6:fc:11:58:a2:
                    77:62:b1:42:59:33:f7:b8:69:28:cc:a7:3e:85:17:
                    ad:8c:59:13:39:dd:9d:f2:92:ff:9e:cc:4a:bf:6e:
                    d5:6e:29
                Exponent: 65537 (0x10001)
        X509v3 extensions:
            X509v3 Basic Constraints: 
                CA:FALSE
            Netscape Comment: 
                Easy-RSA Generated Certificate
            X509v3 Subject Key Identifier: 
                49:D0:2B:C6:5D:E2:50:DA:64:79:DA:22:E0:BF:4F:67:4D:DA:62:C6
            X509v3 Authority Key Identifier: 
                keyid:EF:38:8D:14:50:58:A7:5B:4D:9C:17:72:FC:DF:B9:AC:A7:51:B0:10
                DirName:/C=US/ST=CA/L=SanFrancisco/O=Pixglo, Inc./OU=VPN-CIE/CN=tunnel.pixglo.com/name=Bala Chandrasekaran/emailAddress=bala@pixglo.com
                serial:A6:DB:C6:83:80:E6:A0:79

            X509v3 Extended Key Usage: 
                TLS Web Client Authentication
            X509v3 Key Usage: 
                Digital Signature
    Signature Algorithm: sha1WithRSAEncryption
         c3:e4:08:2e:d2:89:7c:25:e0:59:13:7b:fe:fc:b5:4a:40:76:
         5d:51:94:5d:2e:4d:4f:9f:fa:55:3a:9a:d2:63:29:94:c6:8b:
         40:38:e6:ce:a7:ea:b0:13:7a:0d:08:8d:0c:cc:b9:9e:d9:98:
         04:76:7e:8b:b5:80:0d:c0:5b:b8:47:f5:f2:2a:cf:89:9a:6e:
         da:a8:ba:6b:d0:e3:5c:2f:24:d4:fa:7b:25:c7:79:7d:b1:c0:
         80:6c:80:7a:0a:a7:93:04:60:7b:4d:ca:86:4a:35:17:2f:66:
         43:aa:2b:b8:78:cf:82:ba:f1:b5:f6:a1:14:4d:7e:12:02:a0:
         3b:5b:72:9d:4d:32:aa:3b:02:48:58:ec:38:8d:7e:ac:cf:1c:
         ce:9a:21:00:b2:14:1f:b2:49:66:9b:14:18:3d:38:33:6f:23:
         08:e2:c6:26:f9:0b:da:46:26:df:dc:2c:f1:51:a9:80:99:1e:
         0a:0b:03:55:6f:06:c5:dd:cd:aa:81:01:c3:d1:3b:dc:0b:ce:
         ec:72:ee:85:29:57:79:35:c1:1b:ef:98:63:32:41:51:4b:7d:
         ce:c8:6c:f8:cc:21:38:7e:a5:11:bb:99:fe:59:af:ae:d7:27:
         e8:fc:fa:e4:45:25:d3:2e:ba:b8:e2:e1:83:bd:c7:8c:de:39:
         03:0e:5a:6d:53:17:7e:c5:d2:71:cb:97:27:0f:82:4b:b5:a0:
         72:11:8c:0b:4b:cd:1d:06:42:dd:34:71:0c:2c:01:9a:e3:bc:
         39:26:fc:04:e9:ba:58:dc:b5:b0:9d:b8:e4:ec:31:d7:93:64:
         06:62:ac:d8:da:e1:22:a3:9d:0e:e1:eb:0f:f6:9a:76:c4:c1:
         8f:c9:c3:87:a4:12:de:60:06:43:22:48:f4:dd:6f:52:26:66:
         4b:5a:4a:cb:35:47:89:54:6b:fa:f2:a1:59:01:2f:8a:a9:7a:
         0c:ad:bb:8c:4d:de:2e:e1:46:a0:db:f5:9a:bd:ed:bc:50:83:
         96:e1:0c:bf:a4:ec:4a:b7:20:8f:41:39:4e:cb:8e:70:f1:23:
         3f:e9:3b:ca:94:92:07:b1:4c:a7:08:3c:28:1d:de:1f:c0:4e:
         f0:e4:5f:f1:14:50:9a:80:86:5c:40:93:88:01:9e:f4:9d:1d:
         7f:42:bb:17:f3:0a:d0:bf:dc:b0:37:3c:7f:25:79:cc:9d:85:
         77:fb:7c:2b:cc:be:9c:8e:d0:11:12:ec:95:26:bb:b0:ee:0b:
         be:ee:0e:7e:69:21:fe:8c:27:8d:75:c5:ef:80:b5:3f:b3:a0:
         d8:6b:70:9d:c5:2f:9b:cb:20:d5:0c:5c:3a:3c:b0:20:6e:73:
         a7:17:6d:1f:f5:2a:1f:7a
-----BEGIN CERTIFICATE-----
MIIHSDCCBTCgAwIBAgICALEwDQYJKoZIhvcNAQEFBQAwgbQxCzAJBgNVBAYTAlVT
MQswCQYDVQQIEwJDQTEVMBMGA1UEBxMMU2FuRnJhbmNpc2NvMRUwEwYDVQQKEwxQ
aXhnbG8sIEluYy4xEDAOBgNVBAsTB1ZQTi1DSUUxGjAYBgNVBAMTEXR1bm5lbC5w
aXhnbG8uY29tMRwwGgYDVQQpExNCYWxhIENoYW5kcmFzZWthcmFuMR4wHAYJKoZI
hvcNAQkBFg9iYWxhQHBpeGdsby5jb20wHhcNMTgwMjE0MDYyNjM1WhcNMjgwMjEy
MDYyNjM1WjCBqTELMAkGA1UEBhMCVVMxCzAJBgNVBAgTAkNBMRUwEwYDVQQHEwxT
YW5GcmFuY2lzY28xFTATBgNVBAoTDFBpeGdsbywgSW5jLjEQMA4GA1UECxMHVlBO
LUNJRTEPMA0GA1UEAxMGY2llMTc2MRwwGgYDVQQpExNCYWxhIENoYW5kcmFzZWth
cmFuMR4wHAYJKoZIhvcNAQkBFg9iYWxhQHBpeGdsby5jb20wggIiMA0GCSqGSIb3
DQEBAQUAA4ICDwAwggIKAoICAQCz1NOYM8g7NfwgTNprzBtJ2yGxJjqyfZQtk1Hg
ivQpXo8ckclCdNY3AiJxFI+tRl3jeRoe9lrJHzxQHZ59+MLERcBSN63QCjKi0Tij
v8iCYIRfX6+Dy1/HK5CcYHUkaG29V/1LylZw1bc5wORPe/V0T5l+EqocX4Ec1Ln4
JhaIfnxuCtVl1MbAqJ9CNRw1syHcd6zdKTdyrCtw6LrKddCBbWyU9CGPRW5rlVig
5Uih1MYw09VwHty55C7mmi8yucgzjTGRIpRLpVfmBic7pfjPsk/DWS7W3tSeTLNy
R38KAiH3A8HViCz1hOn1aHvK2EL3jQILlS756T9Yv6OeOZ/ReaxtT+CYPIGK/c7U
pF2dgV3UpLvIdnqpSWVJFUK5mvUuPY1VQPW/ioV2uQ2EgoKKdEY3Ks3lH0WNMaNx
UnByw4ppBH2phZNIrXZoV0oceD8UaNHFYyYKcJ+oM/eZmhOGbN8//NHrZqVq0LuZ
qwSQSSWN7x7QOGjEkrS2gA/cCFqn8EcEE/3US8hTCrdK/fXs5izLfNnNo8g/03m2
9bRY7qnXvq9ifDA1jNCLHfd+c9Yt1mVMDfMhARWZ1KFIDJVfun4IHH7vzhxoxCuf
4TrLUYzg4Udg+MvNyBKm/BFYondisUJZM/e4aSjMpz6FF62MWRM53Z3ykv+ezEq/
btVuKQIDAQABo4IBazCCAWcwCQYDVR0TBAIwADAtBglghkgBhvhCAQ0EIBYeRWFz
eS1SU0EgR2VuZXJhdGVkIENlcnRpZmljYXRlMB0GA1UdDgQWBBRJ0CvGXeJQ2mR5
2iLgv09nTdpixjCB6QYDVR0jBIHhMIHegBTvOI0UUFinW02cF3L837msp1GwEKGB
uqSBtzCBtDELMAkGA1UEBhMCVVMxCzAJBgNVBAgTAkNBMRUwEwYDVQQHEwxTYW5G
cmFuY2lzY28xFTATBgNVBAoTDFBpeGdsbywgSW5jLjEQMA4GA1UECxMHVlBOLUNJ
RTEaMBgGA1UEAxMRdHVubmVsLnBpeGdsby5jb20xHDAaBgNVBCkTE0JhbGEgQ2hh
bmRyYXNla2FyYW4xHjAcBgkqhkiG9w0BCQEWD2JhbGFAcGl4Z2xvLmNvbYIJAKbb
xoOA5qB5MBMGA1UdJQQMMAoGCCsGAQUFBwMCMAsGA1UdDwQEAwIHgDANBgkqhkiG
9w0BAQUFAAOCAgEAw+QILtKJfCXgWRN7/vy1SkB2XVGUXS5NT5/6VTqa0mMplMaL
QDjmzqfqsBN6DQiNDMy5ntmYBHZ+i7WADcBbuEf18irPiZpu2qi6a9DjXC8k1Pp7
Jcd5fbHAgGyAegqnkwRge03Khko1Fy9mQ6oruHjPgrrxtfahFE1+EgKgO1tynU0y
qjsCSFjsOI1+rM8czpohALIUH7JJZpsUGD04M28jCOLGJvkL2kYm39ws8VGpgJke
CgsDVW8Gxd3NqoEBw9E73AvO7HLuhSlXeTXBG++YYzJBUUt9zshs+MwhOH6lEbuZ
/lmvrtcn6Pz65EUl0y66uOLhg73HjN45Aw5abVMXfsXSccuXJw+CS7WgchGMC0vN
HQZC3TRxDCwBmuO8OSb8BOm6WNy1sJ245Owx15NkBmKs2NrhIqOdDuHrD/aadsTB
j8nDh6QS3mAGQyJI9N1vUiZmS1pKyzVHiVRr+vKhWQEviql6DK27jE3eLuFGoNv1
mr3tvFCDluEMv6TsSrcgj0E5TsuOcPEjP+k7ypSSB7FMpwg8KB3eH8BO8ORf8RRQ
moCGXECTiAGe9J0df0K7F/MK0L/csDc8fyV5zJ2Fd/t8K8y+nI7QERLslSa7sO4L
vu4Ofmkh/ownjXXF74C1P7Og2GtwncUvm8sg1QxcOjywIG5zpxdtH/UqH3o=
-----END CERTIFICATE-----
