Certificate:
    Data:
        Version: 3 (0x2)
        Serial Number: 179 (0xb3)
    Signature Algorithm: sha1WithRSAEncryption
        Issuer: C=US, ST=CA, L=SanFrancisco, O=Pixglo, Inc., OU=VPN-CIE, CN=tunnel.pixglo.com/name=Bala Chandrasekaran/emailAddress=bala@pixglo.com
        Validity
            Not Before: Feb 14 06:26:38 2018 GMT
            Not After : Feb 12 06:26:38 2028 GMT
        Subject: C=US, ST=CA, L=SanFrancisco, O=Pixglo, Inc., OU=VPN-CIE, CN=cie178/name=Bala Chandrasekaran/emailAddress=bala@pixglo.com
        Subject Public Key Info:
            Public Key Algorithm: rsaEncryption
                Public-Key: (4096 bit)
                Modulus:
                    00:e3:6f:30:d3:93:28:6f:d6:0e:4e:ad:76:ad:75:
                    26:89:51:98:c1:64:40:06:d6:08:43:dc:1c:1f:31:
                    5e:89:03:c7:68:5c:96:8e:f5:d7:22:1b:38:de:12:
                    2c:69:ca:23:20:1e:3b:f1:70:4d:5f:80:e8:56:a2:
                    b6:ea:2c:61:ed:0b:7d:13:32:20:41:cb:3a:39:1a:
                    0e:39:de:14:af:63:2f:5f:12:b6:39:dd:70:40:d5:
                    d1:b4:d4:84:17:27:c3:ff:93:5f:45:c1:4a:8b:51:
                    c1:5c:44:8b:2b:61:5a:28:3f:68:26:b2:ba:84:24:
                    cb:7a:ad:3d:4e:1d:87:24:22:9d:ee:47:e9:d9:84:
                    42:28:00:57:d9:5c:48:8e:84:10:f6:e0:b5:d9:b0:
                    04:47:6f:7e:59:37:91:1a:53:f9:45:09:d5:c2:fc:
                    ee:c0:ac:06:2b:40:4d:b1:2f:50:cd:82:c9:99:d2:
                    eb:59:cc:24:02:bb:36:1a:14:23:98:94:f2:c8:65:
                    17:37:09:8b:a7:e9:a7:fe:77:a4:11:17:ef:81:a2:
                    99:db:03:50:6f:03:41:ca:f8:32:3f:3e:17:2b:67:
                    fe:68:81:7d:8a:e0:30:df:c5:b3:5d:de:6e:0b:3d:
                    05:c2:ca:7d:33:60:64:17:74:bd:46:88:32:ca:5a:
                    70:fb:8d:00:25:36:3a:74:a9:e7:cd:fa:8f:4a:ad:
                    46:90:cd:47:59:49:d2:77:eb:fb:29:5d:05:8b:f2:
                    70:09:5b:22:b1:91:f1:5a:7f:1c:fc:9a:c1:12:50:
                    2d:c2:9b:f1:2e:cd:d3:8f:e4:9f:5c:ab:58:5f:58:
                    c8:d6:3f:9e:13:6c:c0:6c:f8:a1:da:63:be:68:44:
                    ae:0a:cf:06:c1:01:6a:ef:8e:b2:9c:22:24:40:88:
                    21:61:28:63:90:84:0f:13:f5:85:8d:48:a4:44:83:
                    fa:9b:62:44:48:90:da:7e:d4:b3:0b:24:0e:f3:47:
                    4f:c3:1f:5a:b9:65:db:62:5d:da:cb:74:f2:80:91:
                    57:2b:4d:ed:e8:30:2b:6a:34:44:52:e3:18:ca:e8:
                    93:b4:51:b3:36:53:6c:7c:26:76:b7:83:f2:af:c6:
                    df:43:9f:fd:f6:a8:89:ff:55:30:60:8c:3c:13:4a:
                    c2:ee:73:36:8b:86:02:0f:08:ec:af:ea:09:d5:8c:
                    43:91:60:2b:03:16:06:6e:c3:fe:8b:a1:74:49:d4:
                    71:09:d8:5f:5f:d5:83:d7:b7:4a:50:bb:96:43:06:
                    4a:cd:72:75:04:47:5a:a2:6b:46:d5:48:77:17:2a:
                    a6:73:1f:8b:dc:cd:85:af:6f:75:28:82:b6:cc:95:
                    da:75:51
                Exponent: 65537 (0x10001)
        X509v3 extensions:
            X509v3 Basic Constraints: 
                CA:FALSE
            Netscape Comment: 
                Easy-RSA Generated Certificate
            X509v3 Subject Key Identifier: 
                8E:D1:AD:08:86:6C:2D:9C:70:A4:0D:AA:B7:A3:6E:35:D7:A8:22:61
            X509v3 Authority Key Identifier: 
                keyid:EF:38:8D:14:50:58:A7:5B:4D:9C:17:72:FC:DF:B9:AC:A7:51:B0:10
                DirName:/C=US/ST=CA/L=SanFrancisco/O=Pixglo, Inc./OU=VPN-CIE/CN=tunnel.pixglo.com/name=Bala Chandrasekaran/emailAddress=bala@pixglo.com
                serial:A6:DB:C6:83:80:E6:A0:79

            X509v3 Extended Key Usage: 
                TLS Web Client Authentication
            X509v3 Key Usage: 
                Digital Signature
    Signature Algorithm: sha1WithRSAEncryption
         30:74:76:53:1d:22:15:2d:81:fe:bd:d3:f0:12:b9:d5:fe:66:
         e9:a4:b3:1d:2c:d6:09:84:be:cb:14:75:fc:6f:6c:92:68:3e:
         28:5e:5d:2d:9f:54:8e:2c:75:35:aa:39:40:8a:15:de:e7:61:
         a5:ba:42:d1:ca:82:fe:50:42:49:8b:b2:25:ae:c4:17:f3:b5:
         55:5a:6a:34:d5:50:40:98:93:1f:7e:ae:8e:47:4a:b5:9e:75:
         3e:2b:99:27:81:9c:e2:43:dd:86:85:af:df:f4:9e:1c:31:05:
         9c:61:1e:f2:87:58:e7:ff:27:f0:7e:53:11:f9:20:1a:de:da:
         cc:be:0d:f2:26:20:97:b6:91:34:4d:a3:10:fe:c8:b2:77:54:
         6d:ff:35:8d:bf:b1:a9:ac:b5:8b:00:0d:bb:db:0f:35:b9:4d:
         84:fa:c8:38:2e:28:96:f7:75:8c:2e:f6:46:93:c6:6c:a2:c5:
         7d:39:d6:b5:f4:ed:dd:2d:75:e5:d1:23:a8:39:c2:83:d4:4f:
         5c:25:37:79:57:b0:3b:73:78:61:da:54:59:2d:05:82:05:86:
         01:5c:05:eb:b2:49:56:67:a6:02:d6:dc:da:98:ea:d9:03:b7:
         cc:f5:cd:b1:a0:75:1a:4f:21:a1:05:43:65:0c:cd:10:c8:f8:
         08:d5:75:a0:ba:26:ed:53:b8:d1:e9:c4:f4:bc:9d:68:0b:b5:
         86:1e:b9:51:71:e5:f2:96:61:17:99:40:e9:6d:4b:6e:6c:3d:
         ad:d8:99:f0:8e:bd:8d:7a:85:f4:f9:49:5c:70:c4:21:b3:e0:
         4f:77:a0:3a:b6:d4:58:a1:40:10:e4:6a:99:85:a3:88:20:14:
         f2:f7:62:45:3e:40:3c:03:e2:0b:5e:d9:cf:63:cd:a9:30:18:
         78:e5:fe:e5:51:b6:29:4d:4d:83:38:bd:ad:16:df:ac:c4:8b:
         bb:84:c6:ec:b8:38:07:99:4a:02:75:ea:70:e0:3e:40:c2:a3:
         97:7c:1e:b0:cc:3d:8e:4a:6d:87:5f:03:24:62:02:d9:9a:f9:
         59:94:59:b9:7e:52:ab:28:7b:18:48:20:59:e0:d5:a1:77:1e:
         7c:a4:08:b6:f8:80:e0:c5:ef:2f:c9:48:19:db:de:dd:37:8e:
         40:6a:33:ac:76:b3:80:3d:67:b8:99:75:83:de:91:6e:ad:3c:
         e2:1f:01:ad:e1:24:cf:30:2c:2b:f2:b3:25:65:b4:e5:b8:09:
         f3:72:bc:ca:30:f5:aa:1a:04:65:86:87:e3:83:20:dd:61:53:
         2e:43:f1:67:b7:e1:11:3a:6b:bc:ed:02:75:82:19:ef:30:2d:
         2d:a9:bc:23:42:e8:f9:bc
-----BEGIN CERTIFICATE-----
MIIHSDCCBTCgAwIBAgICALMwDQYJKoZIhvcNAQEFBQAwgbQxCzAJBgNVBAYTAlVT
MQswCQYDVQQIEwJDQTEVMBMGA1UEBxMMU2FuRnJhbmNpc2NvMRUwEwYDVQQKEwxQ
aXhnbG8sIEluYy4xEDAOBgNVBAsTB1ZQTi1DSUUxGjAYBgNVBAMTEXR1bm5lbC5w
aXhnbG8uY29tMRwwGgYDVQQpExNCYWxhIENoYW5kcmFzZWthcmFuMR4wHAYJKoZI
hvcNAQkBFg9iYWxhQHBpeGdsby5jb20wHhcNMTgwMjE0MDYyNjM4WhcNMjgwMjEy
MDYyNjM4WjCBqTELMAkGA1UEBhMCVVMxCzAJBgNVBAgTAkNBMRUwEwYDVQQHEwxT
YW5GcmFuY2lzY28xFTATBgNVBAoTDFBpeGdsbywgSW5jLjEQMA4GA1UECxMHVlBO
LUNJRTEPMA0GA1UEAxMGY2llMTc4MRwwGgYDVQQpExNCYWxhIENoYW5kcmFzZWth
cmFuMR4wHAYJKoZIhvcNAQkBFg9iYWxhQHBpeGdsby5jb20wggIiMA0GCSqGSIb3
DQEBAQUAA4ICDwAwggIKAoICAQDjbzDTkyhv1g5OrXatdSaJUZjBZEAG1ghD3Bwf
MV6JA8doXJaO9dciGzjeEixpyiMgHjvxcE1fgOhWorbqLGHtC30TMiBByzo5Gg45
3hSvYy9fErY53XBA1dG01IQXJ8P/k19FwUqLUcFcRIsrYVooP2gmsrqEJMt6rT1O
HYckIp3uR+nZhEIoAFfZXEiOhBD24LXZsARHb35ZN5EaU/lFCdXC/O7ArAYrQE2x
L1DNgsmZ0utZzCQCuzYaFCOYlPLIZRc3CYun6af+d6QRF++BopnbA1BvA0HK+DI/
PhcrZ/5ogX2K4DDfxbNd3m4LPQXCyn0zYGQXdL1GiDLKWnD7jQAlNjp0qefN+o9K
rUaQzUdZSdJ36/spXQWL8nAJWyKxkfFafxz8msESUC3Cm/EuzdOP5J9cq1hfWMjW
P54TbMBs+KHaY75oRK4KzwbBAWrvjrKcIiRAiCFhKGOQhA8T9YWNSKREg/qbYkRI
kNp+1LMLJA7zR0/DH1q5ZdtiXdrLdPKAkVcrTe3oMCtqNERS4xjK6JO0UbM2U2x8
Jna3g/Kvxt9Dn/32qIn/VTBgjDwTSsLuczaLhgIPCOyv6gnVjEORYCsDFgZuw/6L
oXRJ1HEJ2F9f1YPXt0pQu5ZDBkrNcnUER1qia0bVSHcXKqZzH4vczYWvb3UogrbM
ldp1UQIDAQABo4IBazCCAWcwCQYDVR0TBAIwADAtBglghkgBhvhCAQ0EIBYeRWFz
eS1SU0EgR2VuZXJhdGVkIENlcnRpZmljYXRlMB0GA1UdDgQWBBSO0a0IhmwtnHCk
Daq3o24116giYTCB6QYDVR0jBIHhMIHegBTvOI0UUFinW02cF3L837msp1GwEKGB
uqSBtzCBtDELMAkGA1UEBhMCVVMxCzAJBgNVBAgTAkNBMRUwEwYDVQQHEwxTYW5G
cmFuY2lzY28xFTATBgNVBAoTDFBpeGdsbywgSW5jLjEQMA4GA1UECxMHVlBOLUNJ
RTEaMBgGA1UEAxMRdHVubmVsLnBpeGdsby5jb20xHDAaBgNVBCkTE0JhbGEgQ2hh
bmRyYXNla2FyYW4xHjAcBgkqhkiG9w0BCQEWD2JhbGFAcGl4Z2xvLmNvbYIJAKbb
xoOA5qB5MBMGA1UdJQQMMAoGCCsGAQUFBwMCMAsGA1UdDwQEAwIHgDANBgkqhkiG
9w0BAQUFAAOCAgEAMHR2Ux0iFS2B/r3T8BK51f5m6aSzHSzWCYS+yxR1/G9skmg+
KF5dLZ9Ujix1Nao5QIoV3udhpbpC0cqC/lBCSYuyJa7EF/O1VVpqNNVQQJiTH36u
jkdKtZ51PiuZJ4Gc4kPdhoWv3/SeHDEFnGEe8odY5/8n8H5TEfkgGt7azL4N8iYg
l7aRNE2jEP7IsndUbf81jb+xqay1iwANu9sPNblNhPrIOC4olvd1jC72RpPGbKLF
fTnWtfTt3S115dEjqDnCg9RPXCU3eVewO3N4YdpUWS0FggWGAVwF67JJVmemAtbc
2pjq2QO3zPXNsaB1Gk8hoQVDZQzNEMj4CNV1oLom7VO40enE9LydaAu1hh65UXHl
8pZhF5lA6W1Lbmw9rdiZ8I69jXqF9PlJXHDEIbPgT3egOrbUWKFAEORqmYWjiCAU
8vdiRT5APAPiC17Zz2PNqTAYeOX+5VG2KU1Ngzi9rRbfrMSLu4TG7Lg4B5lKAnXq
cOA+QMKjl3wesMw9jkpth18DJGIC2Zr5WZRZuX5Sqyh7GEggWeDVoXcefKQItviA
4MXvL8lIGdve3TeOQGozrHazgD1nuJl1g96Rbq084h8BreEkzzAsK/KzJWW05bgJ
83K8yjD1qhoEZYaH44Mg3WFTLkPxZ7fhETprvO0CdYIZ7zAtLam8I0Lo+bw=
-----END CERTIFICATE-----
