Certificate:
    Data:
        Version: 3 (0x2)
        Serial Number: 183 (0xb7)
    Signature Algorithm: sha1WithRSAEncryption
        Issuer: C=US, ST=CA, L=SanFrancisco, O=Pixglo, Inc., OU=VPN-CIE, CN=tunnel.pixglo.com/name=Bala Chandrasekaran/emailAddress=bala@pixglo.com
        Validity
            Not Before: Feb 14 06:26:42 2018 GMT
            Not After : Feb 12 06:26:42 2028 GMT
        Subject: C=US, ST=CA, L=SanFrancisco, O=Pixglo, Inc., OU=VPN-CIE, CN=cie182/name=Bala Chandrasekaran/emailAddress=bala@pixglo.com
        Subject Public Key Info:
            Public Key Algorithm: rsaEncryption
                Public-Key: (4096 bit)
                Modulus:
                    00:bb:84:17:d2:31:d1:46:2f:1d:4c:c1:dc:ff:84:
                    3c:65:07:69:d0:97:1e:9d:2b:db:12:ae:7b:c2:d9:
                    24:d6:89:0e:ee:c8:65:05:f4:5d:38:9e:dc:eb:59:
                    42:f3:0d:ed:84:23:04:cc:8c:ae:4b:f4:d7:98:cf:
                    5b:bd:51:4c:79:8f:7e:ed:ca:61:9e:f7:18:aa:3f:
                    d8:ee:32:58:56:c0:e4:b8:b3:4f:59:b2:9e:91:04:
                    b4:a3:05:f3:d5:40:74:59:d8:48:61:87:27:97:09:
                    f3:d4:b8:87:8b:e2:bc:28:04:00:79:a6:4d:2b:cc:
                    e4:5b:52:cc:74:4f:82:d4:3b:4d:35:42:33:78:a7:
                    39:2a:f4:e1:22:43:82:54:04:3e:dd:21:f4:75:db:
                    9e:eb:8a:d6:8b:1d:1b:1b:55:de:4d:0b:02:69:a6:
                    a6:5c:05:a6:46:a3:54:3d:bc:ca:65:d4:6f:57:8a:
                    b8:36:57:6b:11:38:b6:2c:3c:e5:57:91:b9:81:ec:
                    5b:cd:38:e3:63:0b:5c:1b:8d:73:61:d5:0c:21:b4:
                    65:e9:35:02:70:41:bb:1a:19:38:9b:6a:7a:a2:5c:
                    8f:02:a7:b0:70:32:2e:0b:19:46:b6:7b:33:43:32:
                    76:b0:a9:b4:a7:c3:10:fe:d9:06:b2:b4:41:1e:06:
                    21:bf:32:db:d7:ed:61:b5:3e:36:81:dd:65:98:ef:
                    67:7d:86:85:ec:07:b3:de:24:5e:26:0b:f1:d3:d1:
                    5c:8a:56:2d:96:2e:82:6c:04:fc:32:98:22:84:ff:
                    97:4e:8b:3c:13:13:64:08:f8:35:59:11:a5:8b:36:
                    c2:88:1b:62:1a:81:07:71:fa:fa:8a:6d:49:fe:6b:
                    28:7d:30:0d:7a:dc:9b:a6:a4:b8:48:75:64:66:2c:
                    62:98:ba:1c:bb:88:fb:ff:4a:0f:7b:e5:f6:9c:05:
                    da:c4:30:f0:f9:09:82:a6:11:d8:8c:f2:cf:1a:55:
                    cb:a0:2c:75:95:a2:e9:38:95:c5:9a:e1:71:7c:f7:
                    9f:9a:1b:20:0a:08:33:91:c6:fb:af:71:94:62:72:
                    b1:d6:aa:f1:9e:fc:d0:6a:d4:be:da:a4:57:6c:94:
                    43:7d:77:6b:1b:64:05:86:05:ee:16:3c:ae:01:34:
                    b0:7b:a7:9d:64:fd:37:bc:34:ec:17:1f:bf:a7:3a:
                    0f:aa:a4:21:85:7d:8e:63:82:c3:32:05:59:93:75:
                    9a:d4:a6:9a:a7:38:dd:e0:57:36:4b:dd:f7:9d:bf:
                    38:77:b7:80:0e:07:6a:83:9a:a0:4c:25:1c:68:e8:
                    be:79:1b:8f:ec:b3:a0:88:9a:8f:fe:c8:b7:64:2a:
                    23:16:d3
                Exponent: 65537 (0x10001)
        X509v3 extensions:
            X509v3 Basic Constraints: 
                CA:FALSE
            Netscape Comment: 
                Easy-RSA Generated Certificate
            X509v3 Subject Key Identifier: 
                C3:01:65:81:B7:CB:B5:01:B8:A6:E4:FD:68:07:89:43:4C:FB:28:48
            X509v3 Authority Key Identifier: 
                keyid:EF:38:8D:14:50:58:A7:5B:4D:9C:17:72:FC:DF:B9:AC:A7:51:B0:10
                DirName:/C=US/ST=CA/L=SanFrancisco/O=Pixglo, Inc./OU=VPN-CIE/CN=tunnel.pixglo.com/name=Bala Chandrasekaran/emailAddress=bala@pixglo.com
                serial:A6:DB:C6:83:80:E6:A0:79

            X509v3 Extended Key Usage: 
                TLS Web Client Authentication
            X509v3 Key Usage: 
                Digital Signature
    Signature Algorithm: sha1WithRSAEncryption
         de:f9:96:b3:ec:67:26:a9:01:57:65:6c:e6:79:79:7d:0c:03:
         5d:e4:97:57:d4:85:b6:27:f7:b3:f1:75:87:89:f5:12:37:2d:
         b6:55:15:6d:f5:77:9a:19:a0:d1:82:91:4f:e5:8f:8b:72:de:
         47:73:94:ef:79:d3:e9:e8:6c:13:75:43:ec:10:c3:6a:36:0c:
         db:59:40:d2:63:9d:23:53:ea:7f:a6:24:21:fe:41:1a:75:8f:
         44:09:4c:d3:1e:62:09:49:2e:2f:21:79:b8:e6:4d:3f:ac:1f:
         aa:f7:d0:bc:de:39:f4:71:c6:fc:6d:5c:30:4c:cb:e8:97:e2:
         d9:6f:d1:c0:c6:04:62:e3:65:ad:52:bc:55:f2:d5:29:93:ea:
         67:63:e4:d5:17:61:d3:84:ef:55:90:63:22:c0:c3:33:86:17:
         1d:d6:63:f2:b9:36:46:5d:f6:bf:8a:17:7e:99:ae:02:61:b8:
         26:f8:11:bf:61:91:f4:e7:82:31:2a:b4:21:95:dc:7a:12:e2:
         b5:df:34:9b:00:2d:04:75:3f:3b:9b:97:71:e0:9a:73:22:4e:
         9d:94:f0:a8:d3:b1:54:b4:4a:9b:66:e8:bc:02:02:5f:12:63:
         4c:d5:45:a8:4c:ec:d7:2d:51:34:d0:36:d2:51:a4:3c:ba:18:
         82:4d:93:68:cf:5f:99:19:79:bc:bb:32:7c:1b:6f:aa:ee:21:
         94:46:44:b3:9f:3c:b0:f2:96:70:6b:78:a8:03:ff:85:2b:b5:
         35:fa:32:d8:69:a2:29:12:e9:79:b4:53:80:a9:e3:f7:ef:2d:
         ca:c3:a2:e5:76:2b:be:88:27:75:3d:ff:eb:b8:ef:04:00:bd:
         01:6b:9d:a5:51:0e:d8:f9:59:98:56:0c:67:1b:a1:ef:a8:07:
         a4:14:81:49:c5:de:9b:9c:e7:19:fe:d6:9f:40:f7:c5:37:f3:
         d7:85:82:00:2f:30:df:5e:82:38:3f:2b:7e:b5:b6:b3:02:30:
         79:67:bc:e9:68:ee:76:b1:77:f4:9b:c7:82:9d:27:aa:55:97:
         5b:fa:ff:53:d6:1d:a5:92:43:53:4a:b9:b1:4f:e2:2b:12:46:
         49:57:24:12:ea:a3:63:17:70:86:79:a6:2b:b4:86:d4:d8:6c:
         8a:04:f8:b5:78:07:a6:f1:40:5a:53:b9:b7:36:e8:8b:e2:e1:
         c1:66:70:b1:cc:a5:a9:03:f1:1f:c0:32:6f:b7:e9:69:2c:b1:
         e3:6f:03:00:91:3f:4c:90:66:58:fc:67:75:db:f4:16:40:93:
         f8:3b:87:81:38:b8:fa:e3:24:55:8f:50:dc:ed:2d:36:5a:98:
         8f:84:7d:e3:da:72:e6:95
-----BEGIN CERTIFICATE-----
MIIHSDCCBTCgAwIBAgICALcwDQYJKoZIhvcNAQEFBQAwgbQxCzAJBgNVBAYTAlVT
MQswCQYDVQQIEwJDQTEVMBMGA1UEBxMMU2FuRnJhbmNpc2NvMRUwEwYDVQQKEwxQ
aXhnbG8sIEluYy4xEDAOBgNVBAsTB1ZQTi1DSUUxGjAYBgNVBAMTEXR1bm5lbC5w
aXhnbG8uY29tMRwwGgYDVQQpExNCYWxhIENoYW5kcmFzZWthcmFuMR4wHAYJKoZI
hvcNAQkBFg9iYWxhQHBpeGdsby5jb20wHhcNMTgwMjE0MDYyNjQyWhcNMjgwMjEy
MDYyNjQyWjCBqTELMAkGA1UEBhMCVVMxCzAJBgNVBAgTAkNBMRUwEwYDVQQHEwxT
YW5GcmFuY2lzY28xFTATBgNVBAoTDFBpeGdsbywgSW5jLjEQMA4GA1UECxMHVlBO
LUNJRTEPMA0GA1UEAxMGY2llMTgyMRwwGgYDVQQpExNCYWxhIENoYW5kcmFzZWth
cmFuMR4wHAYJKoZIhvcNAQkBFg9iYWxhQHBpeGdsby5jb20wggIiMA0GCSqGSIb3
DQEBAQUAA4ICDwAwggIKAoICAQC7hBfSMdFGLx1Mwdz/hDxlB2nQlx6dK9sSrnvC
2STWiQ7uyGUF9F04ntzrWULzDe2EIwTMjK5L9NeYz1u9UUx5j37tymGe9xiqP9ju
MlhWwOS4s09Zsp6RBLSjBfPVQHRZ2EhhhyeXCfPUuIeL4rwoBAB5pk0rzORbUsx0
T4LUO001QjN4pzkq9OEiQ4JUBD7dIfR1257ritaLHRsbVd5NCwJppqZcBaZGo1Q9
vMpl1G9Xirg2V2sROLYsPOVXkbmB7FvNOONjC1wbjXNh1QwhtGXpNQJwQbsaGTib
anqiXI8Cp7BwMi4LGUa2ezNDMnawqbSnwxD+2QaytEEeBiG/MtvX7WG1PjaB3WWY
72d9hoXsB7PeJF4mC/HT0VyKVi2WLoJsBPwymCKE/5dOizwTE2QI+DVZEaWLNsKI
G2IagQdx+vqKbUn+ayh9MA163JumpLhIdWRmLGKYuhy7iPv/Sg975facBdrEMPD5
CYKmEdiM8s8aVcugLHWVouk4lcWa4XF895+aGyAKCDORxvuvcZRicrHWqvGe/NBq
1L7apFdslEN9d2sbZAWGBe4WPK4BNLB7p51k/Te8NOwXH7+nOg+qpCGFfY5jgsMy
BVmTdZrUppqnON3gVzZL3fedvzh3t4AOB2qDmqBMJRxo6L55G4/ss6CImo/+yLdk
KiMW0wIDAQABo4IBazCCAWcwCQYDVR0TBAIwADAtBglghkgBhvhCAQ0EIBYeRWFz
eS1SU0EgR2VuZXJhdGVkIENlcnRpZmljYXRlMB0GA1UdDgQWBBTDAWWBt8u1Abim
5P1oB4lDTPsoSDCB6QYDVR0jBIHhMIHegBTvOI0UUFinW02cF3L837msp1GwEKGB
uqSBtzCBtDELMAkGA1UEBhMCVVMxCzAJBgNVBAgTAkNBMRUwEwYDVQQHEwxTYW5G
cmFuY2lzY28xFTATBgNVBAoTDFBpeGdsbywgSW5jLjEQMA4GA1UECxMHVlBOLUNJ
RTEaMBgGA1UEAxMRdHVubmVsLnBpeGdsby5jb20xHDAaBgNVBCkTE0JhbGEgQ2hh
bmRyYXNla2FyYW4xHjAcBgkqhkiG9w0BCQEWD2JhbGFAcGl4Z2xvLmNvbYIJAKbb
xoOA5qB5MBMGA1UdJQQMMAoGCCsGAQUFBwMCMAsGA1UdDwQEAwIHgDANBgkqhkiG
9w0BAQUFAAOCAgEA3vmWs+xnJqkBV2Vs5nl5fQwDXeSXV9SFtif3s/F1h4n1Ejct
tlUVbfV3mhmg0YKRT+WPi3LeR3OU73nT6ehsE3VD7BDDajYM21lA0mOdI1Pqf6Yk
If5BGnWPRAlM0x5iCUkuLyF5uOZNP6wfqvfQvN459HHG/G1cMEzL6Jfi2W/RwMYE
YuNlrVK8VfLVKZPqZ2Pk1Rdh04TvVZBjIsDDM4YXHdZj8rk2Rl32v4oXfpmuAmG4
JvgRv2GR9OeCMSq0IZXcehLitd80mwAtBHU/O5uXceCacyJOnZTwqNOxVLRKm2bo
vAICXxJjTNVFqEzs1y1RNNA20lGkPLoYgk2TaM9fmRl5vLsyfBtvqu4hlEZEs588
sPKWcGt4qAP/hSu1Nfoy2GmiKRLpebRTgKnj9+8tysOi5XYrvogndT3/67jvBAC9
AWudpVEO2PlZmFYMZxuh76gHpBSBScXem5znGf7Wn0D3xTfz14WCAC8w316COD8r
frW2swIweWe86WjudrF39JvHgp0nqlWXW/r/U9YdpZJDU0q5sU/iKxJGSVckEuqj
YxdwhnmmK7SG1NhsigT4tXgHpvFAWlO5tzboi+LhwWZwscylqQPxH8Ayb7fpaSyx
428DAJE/TJBmWPxnddv0FkCT+DuHgTi4+uMkVY9Q3O0tNlqYj4R949py5pU=
-----END CERTIFICATE-----
