Certificate:
    Data:
        Version: 3 (0x2)
        Serial Number: 185 (0xb9)
    Signature Algorithm: sha1WithRSAEncryption
        Issuer: C=US, ST=CA, L=SanFrancisco, O=Pixglo, Inc., OU=VPN-CIE, CN=tunnel.pixglo.com/name=Bala Chandrasekaran/emailAddress=bala@pixglo.com
        Validity
            Not Before: Feb 14 06:26:43 2018 GMT
            Not After : Feb 12 06:26:43 2028 GMT
        Subject: C=US, ST=CA, L=SanFrancisco, O=Pixglo, Inc., OU=VPN-CIE, CN=cie184/name=Bala Chandrasekaran/emailAddress=bala@pixglo.com
        Subject Public Key Info:
            Public Key Algorithm: rsaEncryption
                Public-Key: (4096 bit)
                Modulus:
                    00:d7:ad:be:c8:11:2d:61:b5:5b:a0:e8:de:29:de:
                    47:d6:83:0f:df:0b:cb:40:a7:6a:9a:ec:b0:74:01:
                    92:ab:54:ef:9d:48:c5:4c:d5:5c:6f:f0:27:f6:63:
                    7d:06:ba:68:d5:75:13:a6:bc:fd:32:af:5a:a6:1e:
                    48:91:0e:02:3e:c8:ec:a1:90:3f:2d:e3:05:33:b4:
                    67:52:10:87:a0:36:ca:2f:a7:10:9c:56:57:e6:ff:
                    92:43:d8:00:37:fb:ba:95:3e:22:ee:35:85:03:77:
                    3d:dd:0a:64:17:48:a4:d4:8d:0e:8e:79:d3:6f:e8:
                    22:49:a8:3c:d7:d9:42:a6:a6:6f:1f:cd:67:25:dd:
                    07:5e:04:d3:4b:f6:d3:c0:3e:3e:ea:af:b7:68:e6:
                    45:c7:8f:8b:55:b6:ea:53:7c:a2:e7:88:fa:11:ef:
                    80:3b:0d:1f:09:1b:c8:75:b7:46:77:3c:82:bb:52:
                    ad:9f:71:fe:45:11:53:86:ea:3a:3d:ec:fe:f8:d9:
                    4f:ad:4d:b2:ea:2e:60:28:5b:dc:bf:89:4e:b7:78:
                    3b:56:42:a4:6f:27:c2:05:32:37:cc:0b:37:d2:c7:
                    d2:a0:59:ec:2f:d9:dc:e4:96:36:26:40:13:a7:73:
                    ef:41:47:52:65:21:2c:91:64:28:4e:dd:b5:28:15:
                    48:c6:62:1b:df:40:56:c6:9c:2b:57:78:0c:f6:13:
                    10:0c:09:2c:ab:86:7a:f7:f6:87:d0:e6:b7:22:e8:
                    c8:e3:42:c1:11:72:8c:19:5a:f1:cb:40:8d:7f:70:
                    ac:c9:21:8a:a9:76:8b:10:ca:8e:ca:a9:d4:6b:cb:
                    56:f5:b0:d0:87:dd:60:57:2f:2a:44:67:bb:36:35:
                    97:42:6e:6d:ab:bc:10:5c:bd:b5:2f:58:8e:35:12:
                    e8:9f:d4:2f:7b:d7:cf:8d:4b:e6:34:73:6e:53:20:
                    d2:e5:b0:f8:54:22:d1:bf:30:7d:03:52:11:f0:61:
                    4f:76:8b:50:04:b9:70:db:d9:72:16:b3:3c:03:e8:
                    5c:00:9e:09:52:82:31:33:3b:60:66:9a:5f:fd:ad:
                    50:42:b4:a3:b2:24:02:c4:28:1e:e7:7e:81:42:f7:
                    3b:a3:1c:df:b0:f6:fe:23:e4:58:0a:33:c0:e8:18:
                    54:7b:3d:a7:37:87:34:11:77:c8:fd:a4:a6:ce:d0:
                    35:fd:b3:5f:18:26:ff:34:eb:69:6a:e5:39:80:20:
                    b9:26:96:4c:0f:a7:a3:ae:26:ea:82:5d:3d:ce:08:
                    0b:72:45:6c:f5:cc:42:8c:47:a3:81:c6:19:d4:8b:
                    3e:43:2a:e0:00:55:97:c7:36:6e:00:a0:b5:f6:39:
                    cf:a7:c3
                Exponent: 65537 (0x10001)
        X509v3 extensions:
            X509v3 Basic Constraints: 
                CA:FALSE
            Netscape Comment: 
                Easy-RSA Generated Certificate
            X509v3 Subject Key Identifier: 
                B5:61:34:B2:F4:99:C3:D1:43:04:41:40:00:E0:0E:D9:D0:9B:0D:AA
            X509v3 Authority Key Identifier: 
                keyid:EF:38:8D:14:50:58:A7:5B:4D:9C:17:72:FC:DF:B9:AC:A7:51:B0:10
                DirName:/C=US/ST=CA/L=SanFrancisco/O=Pixglo, Inc./OU=VPN-CIE/CN=tunnel.pixglo.com/name=Bala Chandrasekaran/emailAddress=bala@pixglo.com
                serial:A6:DB:C6:83:80:E6:A0:79

            X509v3 Extended Key Usage: 
                TLS Web Client Authentication
            X509v3 Key Usage: 
                Digital Signature
    Signature Algorithm: sha1WithRSAEncryption
         76:ac:c7:4d:b7:9d:44:e2:93:ec:66:78:b4:4b:0c:88:7e:39:
         1a:82:28:b8:9a:12:92:88:75:01:9d:e9:cf:f2:4a:e3:8b:1b:
         86:a5:60:9b:cd:6b:52:40:4e:51:2e:47:e2:30:87:00:42:cc:
         1a:c8:81:e7:5b:96:01:25:a9:7c:ee:57:e2:43:2c:ed:f0:10:
         0f:8d:37:91:b7:38:fc:ef:85:3b:be:a3:59:be:43:6c:ca:16:
         33:47:5c:c9:a4:42:a8:35:59:44:09:9b:78:af:67:ed:7e:80:
         46:3c:ed:35:77:11:96:37:bb:4f:6b:ea:5e:37:fa:81:87:38:
         9e:0e:2b:a5:2d:3e:32:91:d9:be:cb:9a:5a:7f:57:e7:d3:28:
         26:e9:1f:02:78:91:e9:4e:54:1b:5a:11:a6:e9:4e:25:0c:a6:
         ff:bb:f8:46:71:7e:d1:91:f1:95:63:87:1a:c4:ef:68:75:9c:
         f6:1a:bd:4b:72:70:a5:84:58:16:a7:97:a4:de:1a:70:d8:ca:
         48:02:9a:71:51:c9:0a:67:89:4e:5d:fd:33:87:32:12:30:9f:
         ea:be:54:5d:1e:5a:f7:30:29:c6:21:35:f5:71:c5:88:9f:8a:
         9a:1f:0d:54:a8:ce:65:da:fe:89:4a:0c:8f:0a:16:4e:1d:68:
         23:ca:1f:46:65:47:61:99:f7:63:7c:3c:16:f2:61:13:28:e8:
         db:b9:e0:8f:47:0e:52:9b:df:b5:81:2b:bf:f6:9a:b1:a1:19:
         7b:56:75:47:41:f9:db:53:9b:31:68:67:be:52:da:f4:4e:11:
         21:a7:d9:bb:c3:ab:bb:f5:6b:80:4f:de:0a:cb:01:01:95:c7:
         0a:3c:f1:01:e1:24:b8:cb:d0:fe:95:bf:3a:4d:f5:8c:ad:6f:
         3c:a4:bd:52:ed:ea:24:29:05:68:a1:8f:64:0b:09:6f:48:d8:
         71:25:28:84:74:fa:6e:48:6b:13:b9:e4:82:67:d0:0c:41:78:
         a8:e4:4a:2b:0c:21:db:a8:d0:1e:50:6a:30:85:b4:12:e1:29:
         55:f2:32:ce:4f:fe:0c:9a:f0:47:6d:27:59:64:c3:60:36:e5:
         d1:00:45:20:dd:c5:d1:16:9e:9c:fc:22:db:7e:09:61:39:9c:
         a5:f8:3c:2b:12:08:ab:f8:e7:d4:57:55:bb:6d:0a:77:d0:ec:
         01:46:06:a6:1a:35:fe:9d:97:d3:27:d7:70:08:e9:62:81:1f:
         0f:6f:7b:ef:37:77:7b:71:9a:c6:ff:1d:e7:08:42:21:23:71:
         1c:f2:e1:1c:a8:38:db:1d:3f:1f:8e:de:f7:df:4e:d5:2f:2e:
         91:c4:45:66:c0:79:2d:e3
-----BEGIN CERTIFICATE-----
MIIHSDCCBTCgAwIBAgICALkwDQYJKoZIhvcNAQEFBQAwgbQxCzAJBgNVBAYTAlVT
MQswCQYDVQQIEwJDQTEVMBMGA1UEBxMMU2FuRnJhbmNpc2NvMRUwEwYDVQQKEwxQ
aXhnbG8sIEluYy4xEDAOBgNVBAsTB1ZQTi1DSUUxGjAYBgNVBAMTEXR1bm5lbC5w
aXhnbG8uY29tMRwwGgYDVQQpExNCYWxhIENoYW5kcmFzZWthcmFuMR4wHAYJKoZI
hvcNAQkBFg9iYWxhQHBpeGdsby5jb20wHhcNMTgwMjE0MDYyNjQzWhcNMjgwMjEy
MDYyNjQzWjCBqTELMAkGA1UEBhMCVVMxCzAJBgNVBAgTAkNBMRUwEwYDVQQHEwxT
YW5GcmFuY2lzY28xFTATBgNVBAoTDFBpeGdsbywgSW5jLjEQMA4GA1UECxMHVlBO
LUNJRTEPMA0GA1UEAxMGY2llMTg0MRwwGgYDVQQpExNCYWxhIENoYW5kcmFzZWth
cmFuMR4wHAYJKoZIhvcNAQkBFg9iYWxhQHBpeGdsby5jb20wggIiMA0GCSqGSIb3
DQEBAQUAA4ICDwAwggIKAoICAQDXrb7IES1htVug6N4p3kfWgw/fC8tAp2qa7LB0
AZKrVO+dSMVM1Vxv8Cf2Y30GumjVdROmvP0yr1qmHkiRDgI+yOyhkD8t4wUztGdS
EIegNsovpxCcVlfm/5JD2AA3+7qVPiLuNYUDdz3dCmQXSKTUjQ6OedNv6CJJqDzX
2UKmpm8fzWcl3QdeBNNL9tPAPj7qr7do5kXHj4tVtupTfKLniPoR74A7DR8JG8h1
t0Z3PIK7Uq2fcf5FEVOG6jo97P742U+tTbLqLmAoW9y/iU63eDtWQqRvJ8IFMjfM
CzfSx9KgWewv2dzkljYmQBOnc+9BR1JlISyRZChO3bUoFUjGYhvfQFbGnCtXeAz2
ExAMCSyrhnr39ofQ5rci6MjjQsERcowZWvHLQI1/cKzJIYqpdosQyo7KqdRry1b1
sNCH3WBXLypEZ7s2NZdCbm2rvBBcvbUvWI41Euif1C9718+NS+Y0c25TINLlsPhU
ItG/MH0DUhHwYU92i1AEuXDb2XIWszwD6FwAnglSgjEzO2Bmml/9rVBCtKOyJALE
KB7nfoFC9zujHN+w9v4j5FgKM8DoGFR7Pac3hzQRd8j9pKbO0DX9s18YJv8062lq
5TmAILkmlkwPp6OuJuqCXT3OCAtyRWz1zEKMR6OBxhnUiz5DKuAAVZfHNm4AoLX2
Oc+nwwIDAQABo4IBazCCAWcwCQYDVR0TBAIwADAtBglghkgBhvhCAQ0EIBYeRWFz
eS1SU0EgR2VuZXJhdGVkIENlcnRpZmljYXRlMB0GA1UdDgQWBBS1YTSy9JnD0UME
QUAA4A7Z0JsNqjCB6QYDVR0jBIHhMIHegBTvOI0UUFinW02cF3L837msp1GwEKGB
uqSBtzCBtDELMAkGA1UEBhMCVVMxCzAJBgNVBAgTAkNBMRUwEwYDVQQHEwxTYW5G
cmFuY2lzY28xFTATBgNVBAoTDFBpeGdsbywgSW5jLjEQMA4GA1UECxMHVlBOLUNJ
RTEaMBgGA1UEAxMRdHVubmVsLnBpeGdsby5jb20xHDAaBgNVBCkTE0JhbGEgQ2hh
bmRyYXNla2FyYW4xHjAcBgkqhkiG9w0BCQEWD2JhbGFAcGl4Z2xvLmNvbYIJAKbb
xoOA5qB5MBMGA1UdJQQMMAoGCCsGAQUFBwMCMAsGA1UdDwQEAwIHgDANBgkqhkiG
9w0BAQUFAAOCAgEAdqzHTbedROKT7GZ4tEsMiH45GoIouJoSkoh1AZ3pz/JK44sb
hqVgm81rUkBOUS5H4jCHAELMGsiB51uWASWpfO5X4kMs7fAQD403kbc4/O+FO76j
Wb5DbMoWM0dcyaRCqDVZRAmbeK9n7X6ARjztNXcRlje7T2vqXjf6gYc4ng4rpS0+
MpHZvsuaWn9X59MoJukfAniR6U5UG1oRpulOJQym/7v4RnF+0ZHxlWOHGsTvaHWc
9hq9S3JwpYRYFqeXpN4acNjKSAKacVHJCmeJTl39M4cyEjCf6r5UXR5a9zApxiE1
9XHFiJ+Kmh8NVKjOZdr+iUoMjwoWTh1oI8ofRmVHYZn3Y3w8FvJhEyjo27ngj0cO
UpvftYErv/aasaEZe1Z1R0H521ObMWhnvlLa9E4RIafZu8Oru/VrgE/eCssBAZXH
CjzxAeEkuMvQ/pW/Ok31jK1vPKS9Uu3qJCkFaKGPZAsJb0jYcSUohHT6bkhrE7nk
gmfQDEF4qORKKwwh26jQHlBqMIW0EuEpVfIyzk/+DJrwR20nWWTDYDbl0QBFIN3F
0RaenPwi234JYTmcpfg8KxIIq/jn1FdVu20Kd9DsAUYGpho1/p2X0yfXcAjpYoEf
D2977zd3e3Gaxv8d5whCISNxHPLhHKg42x0/H47e999O1S8ukcRFZsB5LeM=
-----END CERTIFICATE-----
