Certificate:
    Data:
        Version: 3 (0x2)
        Serial Number: 186 (0xba)
    Signature Algorithm: sha1WithRSAEncryption
        Issuer: C=US, ST=CA, L=SanFrancisco, O=Pixglo, Inc., OU=VPN-CIE, CN=tunnel.pixglo.com/name=Bala Chandrasekaran/emailAddress=bala@pixglo.com
        Validity
            Not Before: Feb 14 06:26:44 2018 GMT
            Not After : Feb 12 06:26:44 2028 GMT
        Subject: C=US, ST=CA, L=SanFrancisco, O=Pixglo, Inc., OU=VPN-CIE, CN=cie185/name=Bala Chandrasekaran/emailAddress=bala@pixglo.com
        Subject Public Key Info:
            Public Key Algorithm: rsaEncryption
                Public-Key: (4096 bit)
                Modulus:
                    00:fc:d2:93:19:e1:1c:79:23:44:7e:08:f2:4c:6f:
                    a6:2d:d9:97:ee:b6:a2:f0:24:35:c2:6a:b5:0f:2f:
                    06:48:8a:e8:d3:87:99:6b:e8:2d:6d:d2:85:ff:f6:
                    52:22:2c:49:2e:f6:c5:b1:e8:cf:e6:4c:a4:ac:df:
                    f4:d7:47:65:26:a1:0b:f4:cf:12:4e:cc:af:3d:e7:
                    9e:e4:e3:2f:de:7c:c2:9f:1d:b8:b9:f9:86:37:68:
                    ae:99:39:ad:e6:0c:24:cd:dc:62:47:aa:b6:59:7d:
                    a9:3f:30:ac:9a:48:63:ef:db:c5:a4:50:2f:2c:0f:
                    48:af:4d:67:3b:0f:38:73:67:b2:fe:5e:fb:03:03:
                    24:7a:ca:5e:c2:3d:e1:2d:4f:e4:8e:09:a5:38:c6:
                    32:6d:dc:48:07:d3:e4:d4:a4:80:fe:df:2d:38:4d:
                    3b:5e:0b:b8:5c:42:3e:43:33:16:b2:a4:a2:0d:44:
                    a9:7e:9f:b8:cc:c1:a2:8f:c5:9e:58:5a:2b:fe:39:
                    cc:e1:ff:90:9b:fe:e4:b3:49:a3:f7:ad:39:0d:e2:
                    c8:fe:00:f0:fe:3b:e4:26:8e:64:d5:b7:16:a7:e7:
                    8a:9b:1b:96:e4:56:f8:68:6c:8b:bd:78:f9:b6:6b:
                    6c:92:7a:26:53:b5:7e:c9:c3:d7:44:8a:69:d3:83:
                    86:c1:87:34:14:48:b7:fb:a8:d1:9e:4f:d4:a4:66:
                    9e:dd:d1:ac:77:3e:84:3e:d9:5e:1f:34:ee:4c:e0:
                    65:68:1e:d3:55:c7:18:81:27:1d:93:3d:13:9b:2a:
                    1b:6a:b7:72:28:22:2f:b9:8d:f4:fe:e2:61:33:7b:
                    cc:ae:d9:e7:72:08:92:47:2d:8a:25:99:3c:58:06:
                    28:7a:d0:dc:c0:47:6b:46:16:65:3e:c2:fb:cb:47:
                    9f:1d:86:7a:16:35:18:9b:2e:70:e0:ed:a2:43:44:
                    c5:e5:95:f2:a0:71:e7:d1:4f:79:df:a5:29:8d:83:
                    37:bb:45:c9:9a:03:5c:2a:ac:94:27:2b:30:c9:bd:
                    ca:6e:06:4f:a7:39:f0:6a:a7:af:e6:1a:cb:ae:2b:
                    c1:b4:14:ff:f2:e5:19:80:09:eb:ba:54:dd:74:f5:
                    c2:a5:1e:8c:22:32:82:d8:a0:43:84:b3:ae:a2:c1:
                    95:90:a1:b7:66:dc:0c:b8:ab:be:07:15:0b:5f:60:
                    68:21:32:85:5e:b0:0d:47:18:9e:27:34:2b:80:87:
                    74:c3:59:ae:0c:b6:4f:c3:fa:ee:af:9a:cd:22:0b:
                    d3:ce:d4:c4:1a:b5:e0:6e:eb:f2:f9:b5:94:41:4d:
                    af:12:cc:2a:57:0c:c5:33:3c:ba:27:13:3d:f8:c4:
                    a1:aa:d1
                Exponent: 65537 (0x10001)
        X509v3 extensions:
            X509v3 Basic Constraints: 
                CA:FALSE
            Netscape Comment: 
                Easy-RSA Generated Certificate
            X509v3 Subject Key Identifier: 
                B0:9A:43:B6:67:B0:0D:5E:7C:EF:F9:62:19:13:3D:32:42:4E:13:8D
            X509v3 Authority Key Identifier: 
                keyid:EF:38:8D:14:50:58:A7:5B:4D:9C:17:72:FC:DF:B9:AC:A7:51:B0:10
                DirName:/C=US/ST=CA/L=SanFrancisco/O=Pixglo, Inc./OU=VPN-CIE/CN=tunnel.pixglo.com/name=Bala Chandrasekaran/emailAddress=bala@pixglo.com
                serial:A6:DB:C6:83:80:E6:A0:79

            X509v3 Extended Key Usage: 
                TLS Web Client Authentication
            X509v3 Key Usage: 
                Digital Signature
    Signature Algorithm: sha1WithRSAEncryption
         96:b3:50:3b:19:d7:36:55:60:1a:7d:7f:53:35:7f:ec:07:89:
         65:47:15:d4:63:b7:84:e8:6a:4c:3c:9d:7b:ab:2d:92:9a:51:
         59:1d:a1:25:72:f3:1c:a9:f5:ce:b0:7e:91:11:f7:a3:6a:8d:
         e6:d5:ae:ec:74:02:5f:11:3c:c4:7d:bd:ac:42:28:42:08:e2:
         67:e2:97:69:dc:dc:80:c5:1f:aa:6b:c6:c8:60:4d:38:2e:85:
         d3:78:1d:2b:52:de:46:d9:5d:29:fb:fb:a3:dd:6f:43:f4:61:
         4b:f8:31:6b:c0:c0:5a:56:f0:f5:18:9c:39:b1:52:7c:ca:a0:
         0b:d5:82:5f:73:ba:86:20:72:97:40:0f:3b:73:47:27:60:45:
         ec:ef:98:05:60:1c:fb:b1:0f:70:57:f7:3b:44:a6:84:bd:fd:
         de:5b:94:43:05:19:a5:32:47:ef:7f:e6:b6:75:a5:62:e3:c2:
         a2:8e:06:c1:59:49:ed:e2:df:fc:04:8b:50:dc:0e:c8:ff:7b:
         28:ea:1a:96:d2:90:4c:8b:64:ea:75:dd:8a:19:4b:52:a4:b1:
         3b:93:60:fa:d6:c2:f6:87:8b:9a:5c:6b:79:90:d5:1a:56:be:
         81:69:93:ac:9f:3e:a7:02:1f:f3:80:4e:af:1a:51:d2:43:94:
         15:2a:8b:32:99:15:35:6a:81:c6:7f:a9:41:03:3c:1b:5d:fc:
         be:2b:a2:ba:85:b2:f6:4c:2d:a4:9e:06:d9:af:06:a1:7a:05:
         33:1c:1a:22:e2:be:c3:00:e2:2b:0d:9c:54:a9:38:e2:0a:1f:
         18:12:6f:31:17:1e:5c:0d:10:dd:af:cf:6b:c6:66:76:f4:b1:
         99:2b:05:6f:fa:07:65:db:3e:3f:6f:7e:75:4b:db:91:cf:bb:
         05:ac:6b:a7:06:ea:ce:11:06:57:55:24:df:4f:a8:8a:29:8c:
         87:9e:b2:4d:2e:57:6e:4e:e4:95:be:a6:fc:f4:c3:7a:6a:f2:
         42:97:aa:43:fd:18:a2:60:1c:80:db:b6:78:08:03:88:c5:34:
         6d:a7:bf:76:aa:15:c9:3c:94:2e:cf:bd:16:73:cb:85:05:a4:
         fa:09:cd:1c:b3:1e:db:cf:64:50:50:98:b1:88:e5:97:5c:0f:
         fd:16:c6:54:3b:1c:04:9e:49:71:ce:21:89:67:58:fa:ce:b8:
         f0:94:c4:9d:51:36:1a:0e:7a:a6:98:54:3e:3e:3b:2a:56:89:
         79:6c:c7:59:b2:13:b5:7b:ce:a2:5d:14:2a:d9:2f:d0:2c:2c:
         37:17:85:9b:42:a9:07:85:ed:da:6a:d3:7f:d0:c9:f3:a3:5b:
         40:00:90:4e:c7:ae:28:80
-----BEGIN CERTIFICATE-----
MIIHSDCCBTCgAwIBAgICALowDQYJKoZIhvcNAQEFBQAwgbQxCzAJBgNVBAYTAlVT
MQswCQYDVQQIEwJDQTEVMBMGA1UEBxMMU2FuRnJhbmNpc2NvMRUwEwYDVQQKEwxQ
aXhnbG8sIEluYy4xEDAOBgNVBAsTB1ZQTi1DSUUxGjAYBgNVBAMTEXR1bm5lbC5w
aXhnbG8uY29tMRwwGgYDVQQpExNCYWxhIENoYW5kcmFzZWthcmFuMR4wHAYJKoZI
hvcNAQkBFg9iYWxhQHBpeGdsby5jb20wHhcNMTgwMjE0MDYyNjQ0WhcNMjgwMjEy
MDYyNjQ0WjCBqTELMAkGA1UEBhMCVVMxCzAJBgNVBAgTAkNBMRUwEwYDVQQHEwxT
YW5GcmFuY2lzY28xFTATBgNVBAoTDFBpeGdsbywgSW5jLjEQMA4GA1UECxMHVlBO
LUNJRTEPMA0GA1UEAxMGY2llMTg1MRwwGgYDVQQpExNCYWxhIENoYW5kcmFzZWth
cmFuMR4wHAYJKoZIhvcNAQkBFg9iYWxhQHBpeGdsby5jb20wggIiMA0GCSqGSIb3
DQEBAQUAA4ICDwAwggIKAoICAQD80pMZ4Rx5I0R+CPJMb6Yt2ZfutqLwJDXCarUP
LwZIiujTh5lr6C1t0oX/9lIiLEku9sWx6M/mTKSs3/TXR2UmoQv0zxJOzK89557k
4y/efMKfHbi5+YY3aK6ZOa3mDCTN3GJHqrZZfak/MKyaSGPv28WkUC8sD0ivTWc7
DzhzZ7L+XvsDAyR6yl7CPeEtT+SOCaU4xjJt3EgH0+TUpID+3y04TTteC7hcQj5D
MxaypKINRKl+n7jMwaKPxZ5YWiv+Oczh/5Cb/uSzSaP3rTkN4sj+APD+O+QmjmTV
txan54qbG5bkVvhobIu9ePm2a2ySeiZTtX7Jw9dEimnTg4bBhzQUSLf7qNGeT9Sk
Zp7d0ax3PoQ+2V4fNO5M4GVoHtNVxxiBJx2TPRObKhtqt3IoIi+5jfT+4mEze8yu
2edyCJJHLYolmTxYBih60NzAR2tGFmU+wvvLR58dhnoWNRibLnDg7aJDRMXllfKg
cefRT3nfpSmNgze7RcmaA1wqrJQnKzDJvcpuBk+nOfBqp6/mGsuuK8G0FP/y5RmA
Ceu6VN109cKlHowiMoLYoEOEs66iwZWQobdm3Ay4q74HFQtfYGghMoVesA1HGJ4n
NCuAh3TDWa4Mtk/D+u6vms0iC9PO1MQateBu6/L5tZRBTa8SzCpXDMUzPLonEz34
xKGq0QIDAQABo4IBazCCAWcwCQYDVR0TBAIwADAtBglghkgBhvhCAQ0EIBYeRWFz
eS1SU0EgR2VuZXJhdGVkIENlcnRpZmljYXRlMB0GA1UdDgQWBBSwmkO2Z7ANXnzv
+WIZEz0yQk4TjTCB6QYDVR0jBIHhMIHegBTvOI0UUFinW02cF3L837msp1GwEKGB
uqSBtzCBtDELMAkGA1UEBhMCVVMxCzAJBgNVBAgTAkNBMRUwEwYDVQQHEwxTYW5G
cmFuY2lzY28xFTATBgNVBAoTDFBpeGdsbywgSW5jLjEQMA4GA1UECxMHVlBOLUNJ
RTEaMBgGA1UEAxMRdHVubmVsLnBpeGdsby5jb20xHDAaBgNVBCkTE0JhbGEgQ2hh
bmRyYXNla2FyYW4xHjAcBgkqhkiG9w0BCQEWD2JhbGFAcGl4Z2xvLmNvbYIJAKbb
xoOA5qB5MBMGA1UdJQQMMAoGCCsGAQUFBwMCMAsGA1UdDwQEAwIHgDANBgkqhkiG
9w0BAQUFAAOCAgEAlrNQOxnXNlVgGn1/UzV/7AeJZUcV1GO3hOhqTDyde6stkppR
WR2hJXLzHKn1zrB+kRH3o2qN5tWu7HQCXxE8xH29rEIoQgjiZ+KXadzcgMUfqmvG
yGBNOC6F03gdK1LeRtldKfv7o91vQ/RhS/gxa8DAWlbw9RicObFSfMqgC9WCX3O6
hiByl0APO3NHJ2BF7O+YBWAc+7EPcFf3O0SmhL393luUQwUZpTJH73/mtnWlYuPC
oo4GwVlJ7eLf/ASLUNwOyP97KOoaltKQTItk6nXdihlLUqSxO5Ng+tbC9oeLmlxr
eZDVGla+gWmTrJ8+pwIf84BOrxpR0kOUFSqLMpkVNWqBxn+pQQM8G138viuiuoWy
9kwtpJ4G2a8GoXoFMxwaIuK+wwDiKw2cVKk44gofGBJvMRceXA0Q3a/Pa8ZmdvSx
mSsFb/oHZds+P29+dUvbkc+7BaxrpwbqzhEGV1Uk30+oiimMh56yTS5Xbk7klb6m
/PTDemryQpeqQ/0YomAcgNu2eAgDiMU0bae/dqoVyTyULs+9FnPLhQWk+gnNHLMe
289kUFCYsYjll1wP/RbGVDscBJ5Jcc4hiWdY+s648JTEnVE2Gg56pphUPj47KlaJ
eWzHWbITtXvOol0UKtkv0CwsNxeFm0KpB4Xt2mrTf9DJ86NbQACQTseuKIA=
-----END CERTIFICATE-----
