Certificate:
    Data:
        Version: 3 (0x2)
        Serial Number: 189 (0xbd)
    Signature Algorithm: sha1WithRSAEncryption
        Issuer: C=US, ST=CA, L=SanFrancisco, O=Pixglo, Inc., OU=VPN-CIE, CN=tunnel.pixglo.com/name=Bala Chandrasekaran/emailAddress=bala@pixglo.com
        Validity
            Not Before: Feb 14 06:26:47 2018 GMT
            Not After : Feb 12 06:26:47 2028 GMT
        Subject: C=US, ST=CA, L=SanFrancisco, O=Pixglo, Inc., OU=VPN-CIE, CN=cie188/name=Bala Chandrasekaran/emailAddress=bala@pixglo.com
        Subject Public Key Info:
            Public Key Algorithm: rsaEncryption
                Public-Key: (4096 bit)
                Modulus:
                    00:db:68:db:50:2b:d0:78:1a:2c:2d:4c:e2:78:b8:
                    0a:ee:62:02:58:1b:c2:b4:24:ed:7a:57:e0:28:fa:
                    cb:49:9d:22:09:70:2b:60:49:4e:80:c1:c9:e9:10:
                    97:ba:cd:83:51:b6:31:ae:04:57:54:e6:e3:b8:bb:
                    0c:7f:f0:c7:5b:8a:7f:03:8b:6c:c8:7f:55:96:ba:
                    ca:34:20:ae:d7:76:46:30:9f:3a:46:e3:53:aa:92:
                    77:7f:97:e4:63:c3:6a:13:72:3c:03:42:59:30:ba:
                    98:09:f4:cb:84:f2:17:45:7a:9b:fd:b3:6a:b6:b5:
                    68:0c:8f:a6:c9:63:7b:67:14:b8:1d:bc:e6:9e:36:
                    4d:b3:b1:3f:48:81:e3:30:d0:e9:a8:6c:1a:d7:04:
                    4b:ca:32:ff:a0:37:ae:de:5a:4d:72:3b:59:04:61:
                    da:e1:5c:42:cb:98:bd:04:35:51:74:14:ce:14:66:
                    fc:66:5f:3e:0c:41:40:27:0c:ae:e3:76:9d:29:65:
                    1f:01:8e:d7:5d:f5:2e:37:9b:bf:c9:87:a0:8b:2e:
                    9b:e7:81:33:93:4d:9a:9a:2e:99:c6:68:01:04:96:
                    28:e6:66:ad:84:68:bf:6e:db:67:aa:fd:c8:24:58:
                    61:24:7f:34:6a:9c:48:d8:9f:fc:a0:6c:dc:16:78:
                    b7:57:17:05:8e:5c:34:5a:54:7b:6c:2c:32:26:43:
                    3b:0c:99:a3:4b:25:48:ab:e6:e4:cb:a6:dc:17:09:
                    58:10:cc:3e:b5:38:9d:f0:5f:bb:fe:b9:5d:92:65:
                    7f:18:70:c9:e8:17:e4:b9:41:55:4a:a4:73:fc:7c:
                    fa:bc:79:9d:9f:8a:3d:c4:14:08:d3:99:24:ed:a2:
                    c6:35:fa:fc:cd:21:eb:4f:ef:a0:9f:b3:11:e3:58:
                    f2:c7:47:88:7b:eb:04:e7:f2:a1:53:e9:e9:d2:9a:
                    8b:54:68:78:2d:82:99:3d:8d:d1:74:a3:01:cf:86:
                    b6:51:7e:6a:ee:95:5f:c9:37:1d:45:7c:54:df:1a:
                    a0:83:95:61:7e:f1:67:a7:5c:30:ee:2e:4c:08:3a:
                    b0:27:d8:9d:b6:2b:85:07:71:73:fd:77:e2:ea:3a:
                    80:5a:dc:b2:dd:d2:75:70:86:e2:f0:1f:6c:2c:4a:
                    42:51:e0:0e:21:ea:96:e1:59:1e:cf:de:b3:76:d8:
                    51:ca:17:3c:a1:cf:56:95:b5:62:1a:fd:6d:b9:d8:
                    ac:ef:7f:84:7a:a8:01:eb:7f:1c:10:b5:39:30:26:
                    27:24:58:fa:48:73:f8:30:43:aa:ab:d0:ae:68:24:
                    8c:74:b8:b3:dc:8b:b8:6e:ac:9c:e8:ec:b2:d2:46:
                    b8:fb:d1
                Exponent: 65537 (0x10001)
        X509v3 extensions:
            X509v3 Basic Constraints: 
                CA:FALSE
            Netscape Comment: 
                Easy-RSA Generated Certificate
            X509v3 Subject Key Identifier: 
                5B:D8:4B:62:18:B5:F0:C2:0A:D9:FD:A6:2F:15:14:75:27:EF:67:FA
            X509v3 Authority Key Identifier: 
                keyid:EF:38:8D:14:50:58:A7:5B:4D:9C:17:72:FC:DF:B9:AC:A7:51:B0:10
                DirName:/C=US/ST=CA/L=SanFrancisco/O=Pixglo, Inc./OU=VPN-CIE/CN=tunnel.pixglo.com/name=Bala Chandrasekaran/emailAddress=bala@pixglo.com
                serial:A6:DB:C6:83:80:E6:A0:79

            X509v3 Extended Key Usage: 
                TLS Web Client Authentication
            X509v3 Key Usage: 
                Digital Signature
    Signature Algorithm: sha1WithRSAEncryption
         a0:bf:77:cb:bb:ad:63:ee:f2:1e:80:55:0c:af:bc:14:43:d5:
         2f:52:5a:70:9a:49:7d:d0:90:12:dc:79:70:68:ec:92:47:b1:
         62:ca:20:24:fb:d2:b9:67:b8:71:f8:b2:8a:b7:d7:df:20:6f:
         86:49:0d:4b:18:21:2c:82:9c:b6:a2:b6:db:1f:08:e5:48:22:
         85:f7:c4:49:d9:40:8c:da:1b:97:91:95:ab:a8:50:6a:5d:5a:
         fb:a4:81:a5:be:6b:73:0d:8c:69:1f:2c:15:80:81:17:c7:e9:
         75:20:6a:e8:54:f5:68:17:81:59:ae:3b:91:94:60:b0:98:90:
         5e:55:53:2c:3c:a4:f8:77:49:bc:ee:29:76:3f:62:3e:99:3e:
         0e:35:df:52:dc:9f:ff:85:00:07:05:8d:a2:da:d4:71:70:45:
         04:b9:a5:c1:56:65:f4:d3:11:29:1c:63:fb:10:60:6b:e9:b5:
         d3:a5:e2:62:b6:36:ee:b7:7b:46:40:47:fc:5d:11:35:60:56:
         80:7e:84:f0:db:3b:b4:0b:c1:40:1a:8b:83:74:51:67:7e:79:
         84:a8:35:68:6e:54:66:4d:6b:d2:bb:6a:98:16:d9:c8:cc:61:
         0d:74:cc:33:b0:a8:de:47:65:a9:9a:8c:ea:0a:d0:8f:35:e7:
         db:43:8d:c8:a1:82:81:cd:ce:5a:eb:49:60:70:4a:d4:d5:25:
         e5:90:ec:20:57:1d:e1:3c:4a:23:28:85:57:e8:d8:c9:0c:83:
         43:6a:b7:d8:3a:fe:02:02:3b:0d:17:13:96:07:1e:d9:e3:e2:
         29:62:9a:c8:ee:b2:49:d3:db:69:1c:83:13:4d:8a:c9:11:d3:
         79:ac:b3:85:e5:7c:3f:1a:17:63:3d:9d:cf:4b:19:a4:aa:bf:
         8d:80:09:1f:cb:ce:bf:01:6b:12:c5:d3:13:5d:c5:bc:da:fc:
         a0:5e:ee:f1:45:34:e1:05:9a:74:7c:af:ca:57:71:04:a0:1c:
         25:ff:3d:d0:c1:66:2f:49:cb:22:a5:e1:9c:03:c8:b6:2a:02:
         69:90:1e:fd:a9:0a:81:9a:76:1b:76:ea:42:64:08:9c:2b:71:
         75:d5:d4:38:8a:0e:6a:a8:ec:5f:a1:7a:56:59:31:89:00:5d:
         a8:0b:39:2b:20:f1:e1:4d:5e:12:36:54:e4:65:a2:6c:f3:91:
         94:b7:ed:c9:72:61:da:d7:fa:77:80:45:3c:3b:05:1f:a4:23:
         0c:85:1d:ae:5e:b3:c1:d3:d3:20:1a:ed:df:99:34:cd:33:e8:
         f0:b5:00:1d:eb:c2:d3:8a:60:8f:9a:8c:c4:bc:f7:0c:c8:49:
         de:41:1d:7a:3a:d3:0e:e7
-----BEGIN CERTIFICATE-----
MIIHSDCCBTCgAwIBAgICAL0wDQYJKoZIhvcNAQEFBQAwgbQxCzAJBgNVBAYTAlVT
MQswCQYDVQQIEwJDQTEVMBMGA1UEBxMMU2FuRnJhbmNpc2NvMRUwEwYDVQQKEwxQ
aXhnbG8sIEluYy4xEDAOBgNVBAsTB1ZQTi1DSUUxGjAYBgNVBAMTEXR1bm5lbC5w
aXhnbG8uY29tMRwwGgYDVQQpExNCYWxhIENoYW5kcmFzZWthcmFuMR4wHAYJKoZI
hvcNAQkBFg9iYWxhQHBpeGdsby5jb20wHhcNMTgwMjE0MDYyNjQ3WhcNMjgwMjEy
MDYyNjQ3WjCBqTELMAkGA1UEBhMCVVMxCzAJBgNVBAgTAkNBMRUwEwYDVQQHEwxT
YW5GcmFuY2lzY28xFTATBgNVBAoTDFBpeGdsbywgSW5jLjEQMA4GA1UECxMHVlBO
LUNJRTEPMA0GA1UEAxMGY2llMTg4MRwwGgYDVQQpExNCYWxhIENoYW5kcmFzZWth
cmFuMR4wHAYJKoZIhvcNAQkBFg9iYWxhQHBpeGdsby5jb20wggIiMA0GCSqGSIb3
DQEBAQUAA4ICDwAwggIKAoICAQDbaNtQK9B4GiwtTOJ4uAruYgJYG8K0JO16V+Ao
+stJnSIJcCtgSU6AwcnpEJe6zYNRtjGuBFdU5uO4uwx/8Mdbin8Di2zIf1WWuso0
IK7XdkYwnzpG41Oqknd/l+Rjw2oTcjwDQlkwupgJ9MuE8hdFepv9s2q2tWgMj6bJ
Y3tnFLgdvOaeNk2zsT9IgeMw0OmobBrXBEvKMv+gN67eWk1yO1kEYdrhXELLmL0E
NVF0FM4UZvxmXz4MQUAnDK7jdp0pZR8Bjtdd9S43m7/Jh6CLLpvngTOTTZqaLpnG
aAEElijmZq2EaL9u22eq/cgkWGEkfzRqnEjYn/ygbNwWeLdXFwWOXDRaVHtsLDIm
QzsMmaNLJUir5uTLptwXCVgQzD61OJ3wX7v+uV2SZX8YcMnoF+S5QVVKpHP8fPq8
eZ2fij3EFAjTmSTtosY1+vzNIetP76CfsxHjWPLHR4h76wTn8qFT6enSmotUaHgt
gpk9jdF0owHPhrZRfmrulV/JNx1FfFTfGqCDlWF+8WenXDDuLkwIOrAn2J22K4UH
cXP9d+LqOoBa3LLd0nVwhuLwH2wsSkJR4A4h6pbhWR7P3rN22FHKFzyhz1aVtWIa
/W252Kzvf4R6qAHrfxwQtTkwJickWPpIc/gwQ6qr0K5oJIx0uLPci7hurJzo7LLS
Rrj70QIDAQABo4IBazCCAWcwCQYDVR0TBAIwADAtBglghkgBhvhCAQ0EIBYeRWFz
eS1SU0EgR2VuZXJhdGVkIENlcnRpZmljYXRlMB0GA1UdDgQWBBRb2EtiGLXwwgrZ
/aYvFRR1J+9n+jCB6QYDVR0jBIHhMIHegBTvOI0UUFinW02cF3L837msp1GwEKGB
uqSBtzCBtDELMAkGA1UEBhMCVVMxCzAJBgNVBAgTAkNBMRUwEwYDVQQHEwxTYW5G
cmFuY2lzY28xFTATBgNVBAoTDFBpeGdsbywgSW5jLjEQMA4GA1UECxMHVlBOLUNJ
RTEaMBgGA1UEAxMRdHVubmVsLnBpeGdsby5jb20xHDAaBgNVBCkTE0JhbGEgQ2hh
bmRyYXNla2FyYW4xHjAcBgkqhkiG9w0BCQEWD2JhbGFAcGl4Z2xvLmNvbYIJAKbb
xoOA5qB5MBMGA1UdJQQMMAoGCCsGAQUFBwMCMAsGA1UdDwQEAwIHgDANBgkqhkiG
9w0BAQUFAAOCAgEAoL93y7utY+7yHoBVDK+8FEPVL1JacJpJfdCQEtx5cGjskkex
YsogJPvSuWe4cfiyirfX3yBvhkkNSxghLIKctqK22x8I5UgihffESdlAjNobl5GV
q6hQal1a+6SBpb5rcw2MaR8sFYCBF8fpdSBq6FT1aBeBWa47kZRgsJiQXlVTLDyk
+HdJvO4pdj9iPpk+DjXfUtyf/4UABwWNotrUcXBFBLmlwVZl9NMRKRxj+xBga+m1
06XiYrY27rd7RkBH/F0RNWBWgH6E8Ns7tAvBQBqLg3RRZ355hKg1aG5UZk1r0rtq
mBbZyMxhDXTMM7Co3kdlqZqM6grQjzXn20ONyKGCgc3OWutJYHBK1NUl5ZDsIFcd
4TxKIyiFV+jYyQyDQ2q32Dr+AgI7DRcTlgce2ePiKWKayO6ySdPbaRyDE02KyRHT
eayzheV8PxoXYz2dz0sZpKq/jYAJH8vOvwFrEsXTE13FvNr8oF7u8UU04QWadHyv
yldxBKAcJf890MFmL0nLIqXhnAPItioCaZAe/akKgZp2G3bqQmQInCtxddXUOIoO
aqjsX6F6VlkxiQBdqAs5KyDx4U1eEjZU5GWibPORlLftyXJh2tf6d4BFPDsFH6Qj
DIUdrl6zwdPTIBrt35k0zTPo8LUAHevC04pgj5qMxLz3DMhJ3kEdejrTDuc=
-----END CERTIFICATE-----
