Certificate:
    Data:
        Version: 3 (0x2)
        Serial Number: 190 (0xbe)
    Signature Algorithm: sha1WithRSAEncryption
        Issuer: C=US, ST=CA, L=SanFrancisco, O=Pixglo, Inc., OU=VPN-CIE, CN=tunnel.pixglo.com/name=Bala Chandrasekaran/emailAddress=bala@pixglo.com
        Validity
            Not Before: Feb 14 06:26:49 2018 GMT
            Not After : Feb 12 06:26:49 2028 GMT
        Subject: C=US, ST=CA, L=SanFrancisco, O=Pixglo, Inc., OU=VPN-CIE, CN=cie189/name=Bala Chandrasekaran/emailAddress=bala@pixglo.com
        Subject Public Key Info:
            Public Key Algorithm: rsaEncryption
                Public-Key: (4096 bit)
                Modulus:
                    00:ca:04:37:48:b8:66:05:78:74:71:32:b5:2b:04:
                    5b:b9:93:6c:9d:33:a0:08:c2:67:59:a1:e5:ad:fd:
                    8e:18:6a:fa:7e:25:e9:20:68:41:e8:1e:69:c9:72:
                    48:27:df:54:02:c7:eb:8e:07:80:e1:cb:7a:8b:67:
                    e1:47:3f:fb:6f:04:8f:85:db:40:75:82:15:98:ad:
                    3f:4d:c1:3c:86:00:04:ae:43:15:84:e3:05:44:c9:
                    d4:68:4e:2d:01:34:08:12:77:35:19:ce:41:12:77:
                    79:07:cd:1c:87:83:b7:f8:ab:6c:a7:ed:bb:38:ed:
                    63:fa:d5:da:7d:95:8d:bd:cc:a6:c1:4f:7f:2d:05:
                    ca:93:87:3a:28:80:db:ca:f2:b3:c3:d7:0a:81:d3:
                    60:62:89:c3:a2:7c:12:af:c0:c9:e9:48:de:ab:d4:
                    e3:66:b9:a0:05:08:67:b9:d1:d4:e7:8c:63:ed:51:
                    8e:c2:2f:96:c4:91:7f:9b:b3:a4:7d:b4:14:18:1a:
                    da:09:11:3c:8c:69:1c:28:73:fd:4c:94:a8:1c:7b:
                    19:9b:ff:9c:61:62:aa:13:41:d4:7b:cf:b4:21:86:
                    10:71:96:64:5d:0e:5e:61:03:a9:d3:a3:86:47:30:
                    f5:cf:87:c8:26:12:f5:da:8b:0b:44:80:dc:32:7e:
                    75:a8:b8:83:7a:46:4d:8f:38:82:71:5b:60:5c:7c:
                    41:29:c1:cd:14:9d:e5:e0:4b:58:ed:51:ad:bf:f4:
                    82:18:2a:14:29:a6:c9:9e:02:be:a4:11:b3:05:8f:
                    2d:a0:18:98:31:c4:bb:82:19:d0:eb:93:e4:af:34:
                    6a:30:d1:7a:74:3a:c7:30:45:7a:d6:19:c3:e5:f7:
                    fa:b2:de:09:ab:ee:58:a4:5b:b4:49:62:40:15:dd:
                    53:dc:7f:bd:c6:dc:16:17:1f:a9:39:e1:ef:ab:4f:
                    58:fa:60:ed:13:8f:c9:a9:cd:77:77:5c:e2:5d:12:
                    bc:8c:71:91:b5:1a:1d:07:09:f5:92:45:1e:8f:38:
                    be:32:cc:79:2e:1c:a9:4b:fd:ff:70:f7:de:11:c6:
                    6e:c7:3a:c1:33:5b:8e:78:f7:2d:08:5f:cc:4a:49:
                    74:58:36:b6:ab:b6:de:37:a2:ae:4b:5e:90:1c:f1:
                    18:d4:4f:ba:ea:91:50:2a:fc:c3:57:31:20:50:5e:
                    65:da:9f:df:7b:1e:d1:40:ad:47:de:e6:9d:01:77:
                    c5:5d:d9:80:3c:12:94:c1:3f:87:3c:3b:40:84:7c:
                    51:18:94:1c:6d:2e:70:9d:9f:31:28:11:98:87:bd:
                    21:d5:d7:e6:a2:97:88:ee:a8:e5:43:f5:5a:94:55:
                    31:a7:87
                Exponent: 65537 (0x10001)
        X509v3 extensions:
            X509v3 Basic Constraints: 
                CA:FALSE
            Netscape Comment: 
                Easy-RSA Generated Certificate
            X509v3 Subject Key Identifier: 
                35:F5:E8:D4:60:EE:0E:A7:2F:92:40:22:35:44:67:C6:75:10:32:FE
            X509v3 Authority Key Identifier: 
                keyid:EF:38:8D:14:50:58:A7:5B:4D:9C:17:72:FC:DF:B9:AC:A7:51:B0:10
                DirName:/C=US/ST=CA/L=SanFrancisco/O=Pixglo, Inc./OU=VPN-CIE/CN=tunnel.pixglo.com/name=Bala Chandrasekaran/emailAddress=bala@pixglo.com
                serial:A6:DB:C6:83:80:E6:A0:79

            X509v3 Extended Key Usage: 
                TLS Web Client Authentication
            X509v3 Key Usage: 
                Digital Signature
    Signature Algorithm: sha1WithRSAEncryption
         79:f1:48:e7:ed:01:61:e5:96:29:3b:41:46:87:42:de:ea:89:
         3e:af:6c:45:e8:d5:de:fc:6f:31:72:df:18:8c:49:36:d7:df:
         49:b8:3d:40:ff:71:fb:a4:6a:87:43:64:24:b6:9b:cb:93:a1:
         0e:f8:1b:46:6f:99:87:21:d4:27:44:f6:e4:53:9b:77:95:27:
         3b:ba:80:83:28:97:74:56:ce:4f:8f:1a:be:d2:91:66:bb:aa:
         37:a7:60:30:47:f4:41:cd:37:81:80:52:c0:b5:b6:c4:97:b8:
         2c:8e:3c:f1:d2:2b:5d:17:f2:fc:c5:49:01:e6:1b:86:c8:de:
         47:c9:d4:23:40:70:16:57:5b:7b:55:c3:04:8d:9b:05:83:bd:
         7b:a1:82:6f:c9:db:98:42:0d:33:79:47:c4:10:8e:4b:6b:43:
         59:c5:84:91:fc:38:d3:7c:1e:7d:f0:ae:b5:a7:1c:51:7f:e6:
         7e:2b:ab:bb:1f:1d:d5:2f:5d:c1:7f:8f:83:2f:57:32:87:cd:
         8d:14:c4:47:74:e1:c4:f9:44:e7:18:04:b0:3f:06:03:cf:12:
         f6:3b:eb:2e:65:70:62:c7:5e:82:be:6c:05:f9:d7:e3:da:e3:
         2c:75:68:e2:60:6b:5a:ab:c4:cf:57:49:52:38:46:2b:a7:9b:
         c3:1c:98:26:91:2b:1f:fa:64:40:01:27:dd:5b:b4:6a:cc:76:
         83:6a:50:f9:ed:cb:68:22:31:17:0a:c6:e2:12:36:5f:09:ca:
         f1:13:ca:0f:91:ef:e7:5b:64:36:ca:c4:4c:ca:63:c6:f2:f6:
         95:b7:03:c7:36:e2:66:46:d3:31:db:a1:64:3d:9c:f7:77:26:
         07:f1:6d:eb:86:1d:e2:e1:ae:66:e9:c0:65:c0:83:1a:93:28:
         67:ab:55:c3:16:be:89:d1:a8:15:70:c8:a8:16:d4:ed:20:b2:
         7c:5c:20:9f:0f:da:89:d9:ae:80:be:02:61:fd:3b:98:04:25:
         ea:84:c2:78:5a:e2:f7:cd:4f:49:ff:0f:50:7e:51:60:35:cf:
         19:aa:33:25:40:2b:54:ce:5f:95:b5:a7:19:d9:05:e8:f7:ed:
         24:7e:fe:78:f0:8a:0b:00:f8:10:80:8c:19:20:73:19:6b:84:
         13:51:dd:77:70:ea:3f:fc:fe:80:22:f8:c2:94:85:ed:93:c7:
         a3:5e:6d:24:1b:a9:cc:ed:99:1a:5c:c9:19:61:0b:8d:dc:06:
         8c:5c:67:5b:df:d8:bf:50:68:3f:fb:f0:ea:cb:bb:a5:0d:02:
         4b:11:ff:b1:cd:72:92:ae:3c:90:e2:a1:e8:cf:bc:d3:e0:11:
         e6:50:ef:a6:58:ce:cc:2c
-----BEGIN CERTIFICATE-----
MIIHSDCCBTCgAwIBAgICAL4wDQYJKoZIhvcNAQEFBQAwgbQxCzAJBgNVBAYTAlVT
MQswCQYDVQQIEwJDQTEVMBMGA1UEBxMMU2FuRnJhbmNpc2NvMRUwEwYDVQQKEwxQ
aXhnbG8sIEluYy4xEDAOBgNVBAsTB1ZQTi1DSUUxGjAYBgNVBAMTEXR1bm5lbC5w
aXhnbG8uY29tMRwwGgYDVQQpExNCYWxhIENoYW5kcmFzZWthcmFuMR4wHAYJKoZI
hvcNAQkBFg9iYWxhQHBpeGdsby5jb20wHhcNMTgwMjE0MDYyNjQ5WhcNMjgwMjEy
MDYyNjQ5WjCBqTELMAkGA1UEBhMCVVMxCzAJBgNVBAgTAkNBMRUwEwYDVQQHEwxT
YW5GcmFuY2lzY28xFTATBgNVBAoTDFBpeGdsbywgSW5jLjEQMA4GA1UECxMHVlBO
LUNJRTEPMA0GA1UEAxMGY2llMTg5MRwwGgYDVQQpExNCYWxhIENoYW5kcmFzZWth
cmFuMR4wHAYJKoZIhvcNAQkBFg9iYWxhQHBpeGdsby5jb20wggIiMA0GCSqGSIb3
DQEBAQUAA4ICDwAwggIKAoICAQDKBDdIuGYFeHRxMrUrBFu5k2ydM6AIwmdZoeWt
/Y4Yavp+JekgaEHoHmnJckgn31QCx+uOB4Dhy3qLZ+FHP/tvBI+F20B1ghWYrT9N
wTyGAASuQxWE4wVEydRoTi0BNAgSdzUZzkESd3kHzRyHg7f4q2yn7bs47WP61dp9
lY29zKbBT38tBcqThzoogNvK8rPD1wqB02BiicOifBKvwMnpSN6r1ONmuaAFCGe5
0dTnjGPtUY7CL5bEkX+bs6R9tBQYGtoJETyMaRwoc/1MlKgcexmb/5xhYqoTQdR7
z7QhhhBxlmRdDl5hA6nTo4ZHMPXPh8gmEvXaiwtEgNwyfnWouIN6Rk2POIJxW2Bc
fEEpwc0UneXgS1jtUa2/9IIYKhQppsmeAr6kEbMFjy2gGJgxxLuCGdDrk+SvNGow
0Xp0OscwRXrWGcPl9/qy3gmr7likW7RJYkAV3VPcf73G3BYXH6k54e+rT1j6YO0T
j8mpzXd3XOJdEryMcZG1Gh0HCfWSRR6POL4yzHkuHKlL/f9w994Rxm7HOsEzW454
9y0IX8xKSXRYNrartt43oq5LXpAc8RjUT7rqkVAq/MNXMSBQXmXan997HtFArUfe
5p0Bd8Vd2YA8EpTBP4c8O0CEfFEYlBxtLnCdnzEoEZiHvSHV1+ail4juqOVD9VqU
VTGnhwIDAQABo4IBazCCAWcwCQYDVR0TBAIwADAtBglghkgBhvhCAQ0EIBYeRWFz
eS1SU0EgR2VuZXJhdGVkIENlcnRpZmljYXRlMB0GA1UdDgQWBBQ19ejUYO4Opy+S
QCI1RGfGdRAy/jCB6QYDVR0jBIHhMIHegBTvOI0UUFinW02cF3L837msp1GwEKGB
uqSBtzCBtDELMAkGA1UEBhMCVVMxCzAJBgNVBAgTAkNBMRUwEwYDVQQHEwxTYW5G
cmFuY2lzY28xFTATBgNVBAoTDFBpeGdsbywgSW5jLjEQMA4GA1UECxMHVlBOLUNJ
RTEaMBgGA1UEAxMRdHVubmVsLnBpeGdsby5jb20xHDAaBgNVBCkTE0JhbGEgQ2hh
bmRyYXNla2FyYW4xHjAcBgkqhkiG9w0BCQEWD2JhbGFAcGl4Z2xvLmNvbYIJAKbb
xoOA5qB5MBMGA1UdJQQMMAoGCCsGAQUFBwMCMAsGA1UdDwQEAwIHgDANBgkqhkiG
9w0BAQUFAAOCAgEAefFI5+0BYeWWKTtBRodC3uqJPq9sRejV3vxvMXLfGIxJNtff
Sbg9QP9x+6Rqh0NkJLaby5OhDvgbRm+ZhyHUJ0T25FObd5UnO7qAgyiXdFbOT48a
vtKRZruqN6dgMEf0Qc03gYBSwLW2xJe4LI488dIrXRfy/MVJAeYbhsjeR8nUI0Bw
Fldbe1XDBI2bBYO9e6GCb8nbmEINM3lHxBCOS2tDWcWEkfw403weffCutaccUX/m
fiurux8d1S9dwX+Pgy9XMofNjRTER3ThxPlE5xgEsD8GA88S9jvrLmVwYsdegr5s
BfnX49rjLHVo4mBrWqvEz1dJUjhGK6ebwxyYJpErH/pkQAEn3Vu0asx2g2pQ+e3L
aCIxFwrG4hI2XwnK8RPKD5Hv51tkNsrETMpjxvL2lbcDxzbiZkbTMduhZD2c93cm
B/Ft64Yd4uGuZunAZcCDGpMoZ6tVwxa+idGoFXDIqBbU7SCyfFwgnw/aidmugL4C
Yf07mAQl6oTCeFri981PSf8PUH5RYDXPGaozJUArVM5flbWnGdkF6PftJH7+ePCK
CwD4EICMGSBzGWuEE1Hdd3DqP/z+gCL4wpSF7ZPHo15tJBupzO2ZGlzJGWELjdwG
jFxnW9/Yv1BoP/vw6su7pQ0CSxH/sc1ykq48kOKh6M+80+AR5lDvpljOzCw=
-----END CERTIFICATE-----
