Certificate:
    Data:
        Version: 3 (0x2)
        Serial Number: 191 (0xbf)
    Signature Algorithm: sha1WithRSAEncryption
        Issuer: C=US, ST=CA, L=SanFrancisco, O=Pixglo, Inc., OU=VPN-CIE, CN=tunnel.pixglo.com/name=Bala Chandrasekaran/emailAddress=bala@pixglo.com
        Validity
            Not Before: Feb 14 06:26:50 2018 GMT
            Not After : Feb 12 06:26:50 2028 GMT
        Subject: C=US, ST=CA, L=SanFrancisco, O=Pixglo, Inc., OU=VPN-CIE, CN=cie190/name=Bala Chandrasekaran/emailAddress=bala@pixglo.com
        Subject Public Key Info:
            Public Key Algorithm: rsaEncryption
                Public-Key: (4096 bit)
                Modulus:
                    00:ca:ce:7c:63:4b:16:5c:54:a8:86:fb:cc:02:3b:
                    5d:d9:55:7f:a9:12:2e:1b:71:47:8c:8e:90:38:26:
                    71:36:57:ee:e0:a5:d2:30:a7:af:42:11:db:43:f1:
                    b9:c1:f2:b0:40:60:cb:b8:59:a6:78:40:e2:d1:d2:
                    d9:7e:18:91:0f:be:c2:b1:74:c1:ba:40:fd:74:0d:
                    6a:f7:3a:b3:a8:6f:7a:d1:15:a6:59:a0:ef:2d:6a:
                    61:5a:2f:29:b1:5a:75:32:09:69:eb:7a:4d:71:a5:
                    ab:54:f7:74:9e:28:79:82:41:67:1c:09:42:15:2d:
                    12:5e:6a:f6:ed:a4:80:10:38:0d:9f:8d:0a:6b:9c:
                    e7:5d:1a:17:1e:c8:cf:aa:9c:b3:05:12:7e:7c:88:
                    6f:91:11:a7:6a:ed:a9:f1:f8:36:86:1d:75:dd:84:
                    a6:5b:df:cf:43:8d:ed:52:18:27:6d:50:d1:8b:3c:
                    63:b3:2e:26:1b:b3:2c:4c:86:c7:49:54:42:7b:66:
                    14:f8:52:e8:85:83:ca:44:ca:42:86:f7:16:ef:b6:
                    00:f7:d7:22:67:70:52:cf:e6:b8:50:87:9c:21:0f:
                    20:46:d9:2b:a5:4d:76:a6:36:a0:cf:3d:72:d9:57:
                    ae:c6:d1:f4:99:c9:9d:a0:48:ef:c0:3a:1f:45:f0:
                    d9:65:80:8a:8c:dd:26:bc:94:13:3c:fd:66:2a:6f:
                    9d:fe:46:b8:0d:f2:c2:30:01:88:47:7e:0c:c2:c8:
                    1d:dc:f1:3c:46:0a:b0:76:71:d5:79:de:9e:b4:4a:
                    d1:83:26:80:f1:e1:49:74:d6:8d:53:36:bd:18:ad:
                    14:b4:82:99:af:3c:75:61:0f:e5:20:39:85:23:6e:
                    c5:25:4d:b8:78:70:14:19:be:81:8b:0a:56:09:5a:
                    a3:eb:a4:b1:7e:6c:22:9a:02:91:a4:af:cc:76:1d:
                    8e:15:6a:ba:db:69:05:4d:1f:af:99:95:c8:73:54:
                    49:f7:29:b4:f4:e9:b2:c9:cc:38:bc:2d:90:63:71:
                    91:71:03:2e:08:a5:7d:97:49:d0:68:cd:88:54:e4:
                    f4:68:53:cd:90:87:a1:fa:77:c4:37:47:8d:4a:f7:
                    65:62:77:37:c9:03:65:66:0f:e7:b3:98:5f:67:1e:
                    83:ad:00:4a:70:c4:47:68:1b:f8:18:72:0b:31:21:
                    09:2a:97:fb:42:1e:2f:9a:75:13:6c:88:e3:fa:98:
                    32:29:10:66:d3:4b:8a:f0:58:5f:04:88:0e:7c:bd:
                    12:0f:3d:8a:27:ec:18:e2:38:e6:e7:2f:e7:5f:86:
                    c8:03:56:ca:b0:20:db:a9:ae:79:3f:90:12:8f:96:
                    c2:68:99
                Exponent: 65537 (0x10001)
        X509v3 extensions:
            X509v3 Basic Constraints: 
                CA:FALSE
            Netscape Comment: 
                Easy-RSA Generated Certificate
            X509v3 Subject Key Identifier: 
                B7:6B:0C:4F:53:54:6E:42:D9:38:5A:3D:84:5D:88:6A:2C:DA:45:78
            X509v3 Authority Key Identifier: 
                keyid:EF:38:8D:14:50:58:A7:5B:4D:9C:17:72:FC:DF:B9:AC:A7:51:B0:10
                DirName:/C=US/ST=CA/L=SanFrancisco/O=Pixglo, Inc./OU=VPN-CIE/CN=tunnel.pixglo.com/name=Bala Chandrasekaran/emailAddress=bala@pixglo.com
                serial:A6:DB:C6:83:80:E6:A0:79

            X509v3 Extended Key Usage: 
                TLS Web Client Authentication
            X509v3 Key Usage: 
                Digital Signature
    Signature Algorithm: sha1WithRSAEncryption
         ba:37:62:42:c1:20:bb:bd:68:b8:7d:1a:31:8c:09:67:20:8e:
         70:b6:63:49:56:c4:0b:28:4c:42:c7:25:a2:a9:e8:9b:ef:ec:
         d3:50:8c:a6:e8:d8:37:c0:dc:f8:a7:cc:16:3c:e9:50:45:78:
         8f:13:e9:ac:e0:a1:b5:b9:fa:92:a5:08:0c:63:b7:6c:91:b5:
         42:4c:62:1a:15:5a:74:bc:6d:78:59:56:4d:18:9d:b4:82:00:
         68:1b:e3:dc:22:ab:08:3a:df:f7:8f:1c:8c:20:46:85:a5:58:
         c5:9b:09:7d:f0:0d:dc:14:e2:3e:ab:33:e1:9b:d6:f6:a1:9e:
         65:59:90:6e:fa:17:e3:2d:04:64:e0:df:f4:ab:0a:ab:bc:57:
         d2:fd:87:5f:e6:46:aa:79:5f:f9:c7:81:e7:c4:44:e7:8f:e4:
         ff:2f:79:7b:ed:5c:3c:75:df:97:c0:80:5a:95:d4:13:37:53:
         99:25:ff:75:04:dd:c3:99:9b:73:c6:c3:ab:a9:ce:36:a7:0f:
         c0:e4:f9:7c:75:af:94:2c:2d:3b:ce:10:14:e7:13:6a:dc:8a:
         f5:1a:66:18:08:ea:45:77:a8:71:77:f9:f3:28:e6:cb:dd:a5:
         26:c6:0d:b6:b3:52:bf:e2:a9:16:c3:e6:30:a3:bb:42:f5:3b:
         ea:48:f7:83:b5:a0:9e:c5:94:85:c2:c4:2f:66:99:ae:b1:16:
         0d:1c:ec:f6:0d:86:a7:72:89:c0:6f:ec:02:0e:05:a9:a9:2d:
         63:6e:da:30:9d:ec:cd:25:b2:15:09:5d:f0:07:c9:3c:29:5b:
         90:6d:af:6c:c0:bc:2f:0c:19:54:c5:f9:d1:62:51:10:7b:a2:
         a2:6b:38:34:13:42:a8:2e:cf:67:ae:0b:80:61:56:59:c8:20:
         59:6d:bb:be:bf:4e:b8:5f:87:1f:cd:6d:78:ec:ec:4c:90:ab:
         69:2e:32:12:e8:3f:00:1d:c0:f0:34:06:60:8c:d1:8f:5d:91:
         65:ec:dc:47:87:5e:73:d9:72:41:59:09:b3:e9:b4:c2:4b:12:
         d3:27:9b:4f:d0:46:85:70:31:8b:3d:f6:3f:a3:ca:0d:42:2b:
         5c:4a:3f:bd:46:9d:f8:27:c3:fc:9d:79:bb:f5:03:e7:83:00:
         c9:b1:22:53:b8:05:dd:19:43:be:de:3e:84:b5:e4:fc:19:f8:
         44:b5:c3:98:26:9a:0f:a1:7f:ec:00:84:2a:91:63:5f:19:07:
         33:b0:aa:d1:7d:f4:ab:f1:cd:f7:d0:1c:fc:98:40:d0:5c:3a:
         de:46:0d:cb:ae:e7:cc:85:06:5e:90:40:4f:e5:ef:f5:85:f2:
         4d:4f:5a:9c:7b:93:24:41
-----BEGIN CERTIFICATE-----
MIIHSDCCBTCgAwIBAgICAL8wDQYJKoZIhvcNAQEFBQAwgbQxCzAJBgNVBAYTAlVT
MQswCQYDVQQIEwJDQTEVMBMGA1UEBxMMU2FuRnJhbmNpc2NvMRUwEwYDVQQKEwxQ
aXhnbG8sIEluYy4xEDAOBgNVBAsTB1ZQTi1DSUUxGjAYBgNVBAMTEXR1bm5lbC5w
aXhnbG8uY29tMRwwGgYDVQQpExNCYWxhIENoYW5kcmFzZWthcmFuMR4wHAYJKoZI
hvcNAQkBFg9iYWxhQHBpeGdsby5jb20wHhcNMTgwMjE0MDYyNjUwWhcNMjgwMjEy
MDYyNjUwWjCBqTELMAkGA1UEBhMCVVMxCzAJBgNVBAgTAkNBMRUwEwYDVQQHEwxT
YW5GcmFuY2lzY28xFTATBgNVBAoTDFBpeGdsbywgSW5jLjEQMA4GA1UECxMHVlBO
LUNJRTEPMA0GA1UEAxMGY2llMTkwMRwwGgYDVQQpExNCYWxhIENoYW5kcmFzZWth
cmFuMR4wHAYJKoZIhvcNAQkBFg9iYWxhQHBpeGdsby5jb20wggIiMA0GCSqGSIb3
DQEBAQUAA4ICDwAwggIKAoICAQDKznxjSxZcVKiG+8wCO13ZVX+pEi4bcUeMjpA4
JnE2V+7gpdIwp69CEdtD8bnB8rBAYMu4WaZ4QOLR0tl+GJEPvsKxdMG6QP10DWr3
OrOob3rRFaZZoO8tamFaLymxWnUyCWnrek1xpatU93SeKHmCQWccCUIVLRJeavbt
pIAQOA2fjQprnOddGhceyM+qnLMFEn58iG+REadq7anx+DaGHXXdhKZb389Dje1S
GCdtUNGLPGOzLiYbsyxMhsdJVEJ7ZhT4UuiFg8pEykKG9xbvtgD31yJncFLP5rhQ
h5whDyBG2SulTXamNqDPPXLZV67G0fSZyZ2gSO/AOh9F8NllgIqM3Sa8lBM8/WYq
b53+RrgN8sIwAYhHfgzCyB3c8TxGCrB2cdV53p60StGDJoDx4Ul01o1TNr0YrRS0
gpmvPHVhD+UgOYUjbsUlTbh4cBQZvoGLClYJWqPrpLF+bCKaApGkr8x2HY4Varrb
aQVNH6+ZlchzVEn3KbT06bLJzDi8LZBjcZFxAy4IpX2XSdBozYhU5PRoU82Qh6H6
d8Q3R41K92VidzfJA2VmD+ezmF9nHoOtAEpwxEdoG/gYcgsxIQkql/tCHi+adRNs
iOP6mDIpEGbTS4rwWF8EiA58vRIPPYon7BjiOObnL+dfhsgDVsqwINuprnk/kBKP
lsJomQIDAQABo4IBazCCAWcwCQYDVR0TBAIwADAtBglghkgBhvhCAQ0EIBYeRWFz
eS1SU0EgR2VuZXJhdGVkIENlcnRpZmljYXRlMB0GA1UdDgQWBBS3awxPU1RuQtk4
Wj2EXYhqLNpFeDCB6QYDVR0jBIHhMIHegBTvOI0UUFinW02cF3L837msp1GwEKGB
uqSBtzCBtDELMAkGA1UEBhMCVVMxCzAJBgNVBAgTAkNBMRUwEwYDVQQHEwxTYW5G
cmFuY2lzY28xFTATBgNVBAoTDFBpeGdsbywgSW5jLjEQMA4GA1UECxMHVlBOLUNJ
RTEaMBgGA1UEAxMRdHVubmVsLnBpeGdsby5jb20xHDAaBgNVBCkTE0JhbGEgQ2hh
bmRyYXNla2FyYW4xHjAcBgkqhkiG9w0BCQEWD2JhbGFAcGl4Z2xvLmNvbYIJAKbb
xoOA5qB5MBMGA1UdJQQMMAoGCCsGAQUFBwMCMAsGA1UdDwQEAwIHgDANBgkqhkiG
9w0BAQUFAAOCAgEAujdiQsEgu71ouH0aMYwJZyCOcLZjSVbECyhMQscloqnom+/s
01CMpujYN8Dc+KfMFjzpUEV4jxPprOChtbn6kqUIDGO3bJG1QkxiGhVadLxteFlW
TRidtIIAaBvj3CKrCDrf948cjCBGhaVYxZsJffAN3BTiPqsz4ZvW9qGeZVmQbvoX
4y0EZODf9KsKq7xX0v2HX+ZGqnlf+ceB58RE54/k/y95e+1cPHXfl8CAWpXUEzdT
mSX/dQTdw5mbc8bDq6nONqcPwOT5fHWvlCwtO84QFOcTatyK9RpmGAjqRXeocXf5
8yjmy92lJsYNtrNSv+KpFsPmMKO7QvU76kj3g7WgnsWUhcLEL2aZrrEWDRzs9g2G
p3KJwG/sAg4FqaktY27aMJ3szSWyFQld8AfJPClbkG2vbMC8LwwZVMX50WJREHui
oms4NBNCqC7PZ64LgGFWWcggWW27vr9OuF+HH81teOzsTJCraS4yEug/AB3A8DQG
YIzRj12RZezcR4dec9lyQVkJs+m0wksS0yebT9BGhXAxiz32P6PKDUIrXEo/vUad
+CfD/J15u/UD54MAybEiU7gF3RlDvt4+hLXk/Bn4RLXDmCaaD6F/7ACEKpFjXxkH
M7Cq0X30q/HN99Ac/JhA0Fw63kYNy67nzIUGXpBAT+Xv9YXyTU9anHuTJEE=
-----END CERTIFICATE-----
