Certificate:
    Data:
        Version: 3 (0x2)
        Serial Number: 192 (0xc0)
    Signature Algorithm: sha1WithRSAEncryption
        Issuer: C=US, ST=CA, L=SanFrancisco, O=Pixglo, Inc., OU=VPN-CIE, CN=tunnel.pixglo.com/name=Bala Chandrasekaran/emailAddress=bala@pixglo.com
        Validity
            Not Before: Feb 14 06:26:50 2018 GMT
            Not After : Feb 12 06:26:50 2028 GMT
        Subject: C=US, ST=CA, L=SanFrancisco, O=Pixglo, Inc., OU=VPN-CIE, CN=cie191/name=Bala Chandrasekaran/emailAddress=bala@pixglo.com
        Subject Public Key Info:
            Public Key Algorithm: rsaEncryption
                Public-Key: (4096 bit)
                Modulus:
                    00:b6:36:cd:d5:e7:fa:46:c9:7a:60:d5:35:72:75:
                    9b:30:43:7c:72:62:10:a7:67:a3:52:f4:d9:53:5c:
                    ff:3e:7a:68:9d:ce:77:46:64:53:81:84:f4:e0:cc:
                    83:b9:25:f9:fd:16:b8:15:1a:de:9b:0b:a0:39:51:
                    c1:5e:b3:3b:ac:51:42:94:dc:7c:3d:a4:b7:7c:b4:
                    d8:0b:3f:8d:1c:5a:c2:72:5b:bd:d2:6d:67:e0:be:
                    be:43:37:79:27:d4:9f:db:0e:1b:5d:9a:12:75:e2:
                    63:59:f0:61:f4:d3:29:6f:69:66:67:26:ca:6c:c4:
                    15:6f:86:d2:d4:8b:99:f7:00:46:12:09:7a:be:c3:
                    c1:d0:b7:0d:54:98:2b:13:f6:5c:74:d1:33:26:0b:
                    0e:1d:d2:98:01:f1:f6:29:0e:e9:28:69:7e:79:f7:
                    16:03:9c:fe:77:ce:29:8a:71:48:91:78:f9:ff:63:
                    52:d4:ec:a2:1c:8f:47:c8:b1:5c:29:fd:b5:ca:66:
                    d8:3c:39:aa:65:09:ce:4d:d4:47:a8:e0:a4:ff:09:
                    75:4a:8c:ba:89:71:fd:27:8f:dd:dd:2a:40:33:fd:
                    7e:5c:1c:71:9c:df:1c:7f:09:58:cf:be:90:4d:96:
                    89:b5:aa:9a:3a:c3:c0:99:b9:b8:41:9e:1c:47:a3:
                    9b:5c:9d:9c:3b:0f:4b:21:0d:0a:fd:ba:6c:cf:7b:
                    25:18:e0:f9:4e:8e:a9:6d:97:7e:fe:a3:96:13:b8:
                    06:4b:c7:df:cb:5a:39:b7:ee:49:d1:86:b3:08:63:
                    05:83:46:07:86:49:77:2f:03:a1:2b:8c:b6:75:89:
                    e0:02:23:de:2b:10:5a:8a:2f:dc:7f:89:e3:39:cb:
                    cf:54:9e:27:7e:cc:ce:7d:98:b8:2d:a5:86:f2:e3:
                    d9:97:e7:1b:fd:c4:01:c3:85:28:d3:7b:a5:4b:21:
                    79:90:34:26:2c:a5:4f:57:15:91:4d:fa:96:a3:a4:
                    c3:1f:70:4e:28:6c:a0:3b:b5:7c:56:d7:03:46:c5:
                    04:93:19:41:57:de:93:c5:8e:4f:98:db:cc:29:b6:
                    11:de:51:cf:02:4a:75:6b:5b:3e:3f:24:6c:88:bd:
                    08:65:78:5d:7e:de:d3:a9:10:6f:bf:1c:0d:14:13:
                    06:60:db:2c:68:69:4d:28:5c:07:b4:ff:e3:39:15:
                    35:85:12:af:45:1f:62:b9:88:5e:7d:d7:d8:37:94:
                    e8:ed:41:54:fe:9d:59:e4:bd:56:b1:bd:13:63:68:
                    52:ae:6f:59:4d:9a:f0:ba:91:ad:12:3c:9b:c9:a4:
                    a9:97:8d:f8:27:2c:49:0c:1b:9b:6b:26:47:b5:8c:
                    f7:04:dd
                Exponent: 65537 (0x10001)
        X509v3 extensions:
            X509v3 Basic Constraints: 
                CA:FALSE
            Netscape Comment: 
                Easy-RSA Generated Certificate
            X509v3 Subject Key Identifier: 
                2F:0A:50:94:72:CD:DF:55:ED:9E:6D:A0:92:7F:B3:9F:9A:C1:CD:F4
            X509v3 Authority Key Identifier: 
                keyid:EF:38:8D:14:50:58:A7:5B:4D:9C:17:72:FC:DF:B9:AC:A7:51:B0:10
                DirName:/C=US/ST=CA/L=SanFrancisco/O=Pixglo, Inc./OU=VPN-CIE/CN=tunnel.pixglo.com/name=Bala Chandrasekaran/emailAddress=bala@pixglo.com
                serial:A6:DB:C6:83:80:E6:A0:79

            X509v3 Extended Key Usage: 
                TLS Web Client Authentication
            X509v3 Key Usage: 
                Digital Signature
    Signature Algorithm: sha1WithRSAEncryption
         54:9d:1c:c7:92:32:5f:d4:b1:a9:b1:75:05:99:08:c3:41:a0:
         e1:dd:2f:c2:ac:11:9c:d1:17:13:3e:35:46:d0:17:f6:fd:1a:
         93:9a:11:b4:db:bc:75:b2:f3:ec:b4:2d:1e:48:98:9e:06:ad:
         fd:be:26:89:ad:fd:26:ed:56:37:fa:70:f6:7e:3b:08:78:23:
         a7:dd:c9:d3:b6:6e:aa:7e:e3:1d:ca:68:82:8c:0d:c9:27:7f:
         01:0f:0e:d6:1e:51:8b:dc:e4:de:a0:1b:c7:9f:07:f0:87:63:
         8a:a6:d3:e5:0d:37:06:db:4c:86:4b:d1:69:3d:ef:a5:2b:14:
         01:14:c5:d0:23:86:31:62:cd:0d:de:28:b7:1d:71:c2:7c:75:
         af:e7:0f:63:00:7c:a9:40:0b:77:6b:b2:3a:f2:ba:ae:df:b5:
         3c:fc:bf:22:71:49:4d:06:d3:09:b4:72:ce:f8:4d:d0:69:5d:
         69:6d:87:2d:5c:75:7f:38:05:7b:4f:8a:86:f3:b9:42:58:66:
         3c:61:ad:55:b5:c6:96:04:69:c6:a1:9d:ee:08:32:51:1d:53:
         6a:d0:97:1b:27:6c:45:ad:3e:e3:f5:3d:f8:7e:b4:17:c6:78:
         eb:83:ca:1b:2c:99:e6:1c:9d:45:60:f7:a2:f7:b5:00:f2:61:
         2e:4a:ed:d8:60:a4:21:2b:66:bd:4e:a7:37:30:22:01:9a:13:
         38:db:fd:8c:ca:a3:1d:60:e8:d6:ee:6e:38:59:43:2d:1e:75:
         91:7e:6c:ba:e0:80:49:b1:36:32:d4:cc:cb:5e:cf:91:c0:b3:
         e2:86:85:f3:28:56:ea:14:59:34:8d:55:3a:c0:36:f7:55:26:
         8b:16:6c:a9:ba:b0:a5:d4:52:4d:3d:2a:a1:21:5b:fc:d1:c4:
         0a:4a:47:35:9e:3a:1f:fc:78:51:8b:e1:32:3b:a8:b5:b5:0a:
         84:4e:54:f7:72:53:4b:5f:ff:c6:e0:2f:d6:93:86:9d:53:31:
         e8:5f:de:b9:53:c8:48:6b:37:31:da:2b:8a:b3:d1:ad:e2:e5:
         13:f3:a5:7b:14:01:52:35:92:2a:c3:31:3d:a6:47:11:dd:99:
         97:6b:3d:6d:c5:4b:b2:d4:f9:9b:11:70:18:a7:78:be:df:88:
         fd:6c:b2:a4:2f:7a:ae:1d:60:0f:29:1f:95:38:5b:5a:6f:09:
         38:00:f5:0f:76:ca:91:e0:be:8f:a1:81:b3:bc:1a:a5:0e:4f:
         36:f2:6a:36:1c:e8:68:2b:b0:8b:9f:e7:97:cd:b1:71:3d:4e:
         a0:1c:49:be:fb:e3:b0:99:80:74:cc:00:22:d9:e1:b4:a3:81:
         92:03:0d:cc:c2:7e:8c:17
-----BEGIN CERTIFICATE-----
MIIHSDCCBTCgAwIBAgICAMAwDQYJKoZIhvcNAQEFBQAwgbQxCzAJBgNVBAYTAlVT
MQswCQYDVQQIEwJDQTEVMBMGA1UEBxMMU2FuRnJhbmNpc2NvMRUwEwYDVQQKEwxQ
aXhnbG8sIEluYy4xEDAOBgNVBAsTB1ZQTi1DSUUxGjAYBgNVBAMTEXR1bm5lbC5w
aXhnbG8uY29tMRwwGgYDVQQpExNCYWxhIENoYW5kcmFzZWthcmFuMR4wHAYJKoZI
hvcNAQkBFg9iYWxhQHBpeGdsby5jb20wHhcNMTgwMjE0MDYyNjUwWhcNMjgwMjEy
MDYyNjUwWjCBqTELMAkGA1UEBhMCVVMxCzAJBgNVBAgTAkNBMRUwEwYDVQQHEwxT
YW5GcmFuY2lzY28xFTATBgNVBAoTDFBpeGdsbywgSW5jLjEQMA4GA1UECxMHVlBO
LUNJRTEPMA0GA1UEAxMGY2llMTkxMRwwGgYDVQQpExNCYWxhIENoYW5kcmFzZWth
cmFuMR4wHAYJKoZIhvcNAQkBFg9iYWxhQHBpeGdsby5jb20wggIiMA0GCSqGSIb3
DQEBAQUAA4ICDwAwggIKAoICAQC2Ns3V5/pGyXpg1TVydZswQ3xyYhCnZ6NS9NlT
XP8+emidzndGZFOBhPTgzIO5Jfn9FrgVGt6bC6A5UcFeszusUUKU3Hw9pLd8tNgL
P40cWsJyW73SbWfgvr5DN3kn1J/bDhtdmhJ14mNZ8GH00ylvaWZnJspsxBVvhtLU
i5n3AEYSCXq+w8HQtw1UmCsT9lx00TMmCw4d0pgB8fYpDukoaX559xYDnP53zimK
cUiRePn/Y1LU7KIcj0fIsVwp/bXKZtg8OaplCc5N1Eeo4KT/CXVKjLqJcf0nj93d
KkAz/X5cHHGc3xx/CVjPvpBNlom1qpo6w8CZubhBnhxHo5tcnZw7D0shDQr9umzP
eyUY4PlOjqltl37+o5YTuAZLx9/LWjm37knRhrMIYwWDRgeGSXcvA6ErjLZ1ieAC
I94rEFqKL9x/ieM5y89Unid+zM59mLgtpYby49mX5xv9xAHDhSjTe6VLIXmQNCYs
pU9XFZFN+pajpMMfcE4obKA7tXxW1wNGxQSTGUFX3pPFjk+Y28wpthHeUc8CSnVr
Wz4/JGyIvQhleF1+3tOpEG+/HA0UEwZg2yxoaU0oXAe0/+M5FTWFEq9FH2K5iF59
19g3lOjtQVT+nVnkvVaxvRNjaFKub1lNmvC6ka0SPJvJpKmXjfgnLEkMG5trJke1
jPcE3QIDAQABo4IBazCCAWcwCQYDVR0TBAIwADAtBglghkgBhvhCAQ0EIBYeRWFz
eS1SU0EgR2VuZXJhdGVkIENlcnRpZmljYXRlMB0GA1UdDgQWBBQvClCUcs3fVe2e
baCSf7OfmsHN9DCB6QYDVR0jBIHhMIHegBTvOI0UUFinW02cF3L837msp1GwEKGB
uqSBtzCBtDELMAkGA1UEBhMCVVMxCzAJBgNVBAgTAkNBMRUwEwYDVQQHEwxTYW5G
cmFuY2lzY28xFTATBgNVBAoTDFBpeGdsbywgSW5jLjEQMA4GA1UECxMHVlBOLUNJ
RTEaMBgGA1UEAxMRdHVubmVsLnBpeGdsby5jb20xHDAaBgNVBCkTE0JhbGEgQ2hh
bmRyYXNla2FyYW4xHjAcBgkqhkiG9w0BCQEWD2JhbGFAcGl4Z2xvLmNvbYIJAKbb
xoOA5qB5MBMGA1UdJQQMMAoGCCsGAQUFBwMCMAsGA1UdDwQEAwIHgDANBgkqhkiG
9w0BAQUFAAOCAgEAVJ0cx5IyX9SxqbF1BZkIw0Gg4d0vwqwRnNEXEz41RtAX9v0a
k5oRtNu8dbLz7LQtHkiYngat/b4mia39Ju1WN/pw9n47CHgjp93J07Zuqn7jHcpo
gowNySd/AQ8O1h5Ri9zk3qAbx58H8IdjiqbT5Q03BttMhkvRaT3vpSsUARTF0COG
MWLNDd4otx1xwnx1r+cPYwB8qUALd2uyOvK6rt+1PPy/InFJTQbTCbRyzvhN0Gld
aW2HLVx1fzgFe0+KhvO5QlhmPGGtVbXGlgRpxqGd7ggyUR1TatCXGydsRa0+4/U9
+H60F8Z464PKGyyZ5hydRWD3ove1APJhLkrt2GCkIStmvU6nNzAiAZoTONv9jMqj
HWDo1u5uOFlDLR51kX5suuCASbE2MtTMy17PkcCz4oaF8yhW6hRZNI1VOsA291Um
ixZsqbqwpdRSTT0qoSFb/NHECkpHNZ46H/x4UYvhMjuotbUKhE5U93JTS1//xuAv
1pOGnVMx6F/euVPISGs3MdorirPRreLlE/OlexQBUjWSKsMxPaZHEd2Zl2s9bcVL
stT5mxFwGKd4vt+I/WyypC96rh1gDykflThbWm8JOAD1D3bKkeC+j6GBs7wapQ5P
NvJqNhzoaCuwi5/nl82xcT1OoBxJvvvjsJmAdMwAItnhtKOBkgMNzMJ+jBc=
-----END CERTIFICATE-----
