Certificate:
    Data:
        Version: 3 (0x2)
        Serial Number: 193 (0xc1)
    Signature Algorithm: sha1WithRSAEncryption
        Issuer: C=US, ST=CA, L=SanFrancisco, O=Pixglo, Inc., OU=VPN-CIE, CN=tunnel.pixglo.com/name=Bala Chandrasekaran/emailAddress=bala@pixglo.com
        Validity
            Not Before: Feb 14 06:26:50 2018 GMT
            Not After : Feb 12 06:26:50 2028 GMT
        Subject: C=US, ST=CA, L=SanFrancisco, O=Pixglo, Inc., OU=VPN-CIE, CN=cie192/name=Bala Chandrasekaran/emailAddress=bala@pixglo.com
        Subject Public Key Info:
            Public Key Algorithm: rsaEncryption
                Public-Key: (4096 bit)
                Modulus:
                    00:bf:e6:43:9e:aa:b7:fa:54:d0:10:bf:fe:29:2e:
                    46:41:5d:a6:b2:72:8d:38:5c:4c:89:3c:ea:b5:02:
                    d5:8e:ea:31:05:b1:60:0e:7d:e8:38:f2:0b:f7:f8:
                    07:88:aa:e6:4b:b7:45:58:c7:2c:5b:c7:6b:99:b3:
                    81:21:e1:29:cb:88:94:a6:58:64:cf:95:6c:04:ec:
                    8b:9e:a2:24:a8:1e:44:f1:c0:d9:f7:32:af:3a:ce:
                    06:6d:71:e7:c1:87:99:6c:43:43:34:bb:30:12:86:
                    5f:23:c5:56:4f:0e:3c:ea:df:71:83:99:13:34:82:
                    69:6a:da:86:9a:88:32:6c:48:a9:35:32:07:16:9d:
                    06:fe:d7:bd:34:a8:81:cc:9e:2b:f9:39:c5:0b:15:
                    87:dd:5f:ae:fd:dd:ed:64:de:54:64:55:e2:d0:11:
                    8f:4d:e6:67:ac:b0:29:e8:f1:d8:1f:92:58:07:40:
                    2f:9b:a0:65:4d:13:c0:48:98:1c:e4:cc:61:ab:e8:
                    41:5e:fe:7e:94:3b:99:a6:7d:46:08:7f:7c:99:5a:
                    5a:7b:08:4e:9f:b2:b0:30:a1:31:e4:97:8c:8f:17:
                    ad:e0:a8:c5:a3:8f:18:67:96:ab:e0:1f:cc:fd:19:
                    3b:f8:d6:f9:da:99:f6:0f:d9:a2:36:a6:16:58:dc:
                    6c:a0:50:8f:d0:1e:95:b9:85:98:59:71:1e:03:90:
                    b0:7a:2d:d1:2f:a3:d4:11:c7:0a:1d:c1:9d:f3:bd:
                    03:2e:44:e6:65:a7:fa:0f:01:51:9a:22:1b:14:b8:
                    2d:4b:a5:5f:98:bb:b7:a6:1d:bb:8b:d0:67:88:d9:
                    d7:1c:1d:8f:dd:f9:81:05:f9:59:b9:e0:fe:ae:d2:
                    b1:f3:c8:f4:9b:08:3c:bd:80:3e:17:bf:34:da:f3:
                    f8:d1:8c:87:0d:95:38:66:c0:b9:44:3f:ae:3a:fb:
                    69:c8:e1:98:9f:9d:a4:76:bf:34:4d:3d:83:91:05:
                    af:df:28:d3:fa:d0:3f:e5:85:58:64:cd:ce:37:49:
                    91:eb:f2:98:38:15:2a:be:91:8e:95:51:88:5e:9a:
                    48:e5:7a:ab:84:ee:ff:c9:ec:36:d6:8f:c1:dc:2d:
                    e8:12:28:86:f4:58:41:2e:af:b8:bf:b2:ca:5b:a7:
                    7e:57:9c:a6:87:37:13:7e:e7:a1:fd:07:8a:5f:15:
                    1f:02:4d:4f:79:ca:68:68:62:3b:64:9e:c5:10:d5:
                    2d:db:f0:9f:4e:37:fb:df:9d:a7:3f:87:ff:f6:dd:
                    3a:35:b3:6c:7b:13:de:e3:3e:72:fc:75:d9:b3:c8:
                    ca:00:4a:dd:1f:69:35:c7:ee:b3:e4:7b:fd:2d:67:
                    ae:7d:9f
                Exponent: 65537 (0x10001)
        X509v3 extensions:
            X509v3 Basic Constraints: 
                CA:FALSE
            Netscape Comment: 
                Easy-RSA Generated Certificate
            X509v3 Subject Key Identifier: 
                2D:E3:77:60:8F:18:2B:06:66:86:3E:18:DC:F2:62:95:3E:E7:3F:7C
            X509v3 Authority Key Identifier: 
                keyid:EF:38:8D:14:50:58:A7:5B:4D:9C:17:72:FC:DF:B9:AC:A7:51:B0:10
                DirName:/C=US/ST=CA/L=SanFrancisco/O=Pixglo, Inc./OU=VPN-CIE/CN=tunnel.pixglo.com/name=Bala Chandrasekaran/emailAddress=bala@pixglo.com
                serial:A6:DB:C6:83:80:E6:A0:79

            X509v3 Extended Key Usage: 
                TLS Web Client Authentication
            X509v3 Key Usage: 
                Digital Signature
    Signature Algorithm: sha1WithRSAEncryption
         99:2e:82:5d:23:42:e2:8c:5d:70:a5:c5:1c:1a:d9:f6:d1:2b:
         bd:6e:cd:9c:27:a8:f2:3d:9f:32:7d:b6:e0:63:ae:dd:0b:07:
         9e:fa:16:7f:94:2f:6a:c7:84:f0:96:98:bd:ad:52:16:93:4b:
         9c:c5:4e:a3:94:bb:96:4c:58:52:e2:70:65:56:1b:3f:48:72:
         7c:57:18:2b:ef:d0:26:82:da:0c:53:c9:88:d0:0e:52:98:70:
         72:22:7c:e2:f0:0b:2d:7f:c4:6a:4c:66:a5:05:c8:28:33:75:
         cb:8d:e4:e8:7c:f0:32:7c:8e:2b:cd:ae:b1:a6:50:a7:c6:86:
         d0:29:a7:99:26:e6:62:9d:93:b3:d9:7a:ec:7a:19:80:03:5e:
         1a:f3:25:4c:5b:4b:6b:b4:dc:39:52:00:aa:d7:ad:9a:f3:15:
         e3:e9:10:b3:b0:ed:e3:81:68:57:e6:3f:79:0a:4e:ef:f1:27:
         f4:10:1c:b8:93:45:78:43:a0:16:7c:72:08:20:5b:29:06:77:
         e3:ea:36:3c:b4:38:15:b2:62:3d:08:8a:29:68:41:de:51:85:
         c4:70:52:1e:d6:76:11:76:c0:8b:c0:d5:b0:1f:25:d5:a0:fc:
         21:7e:51:4e:7c:12:15:23:fb:92:30:00:4a:b3:dd:a2:85:c6:
         bb:b4:10:81:f5:ff:2b:6a:aa:26:76:45:b3:f9:14:58:5c:70:
         a3:df:61:79:61:b8:0e:62:e2:ed:8d:b5:d5:71:11:c3:96:39:
         e0:4a:c4:05:6e:c3:c0:7e:ae:e0:f4:b3:f5:e9:fb:67:c2:1e:
         c5:b0:f2:e2:4a:a5:4c:36:88:82:ed:56:08:bc:e7:a5:99:75:
         15:ea:90:23:74:9b:57:6f:b0:db:1e:06:f3:17:5a:df:49:00:
         57:98:78:51:96:4c:ae:c3:60:7e:a1:d0:cf:27:f9:3f:72:72:
         b3:05:f7:4b:dd:74:d2:39:1e:7d:da:8b:b1:74:58:87:da:bb:
         34:34:8e:e1:bc:0a:a1:ba:98:04:77:41:e4:f7:a8:35:0c:fe:
         81:ac:a0:52:85:56:27:bd:b3:23:83:0f:a0:9f:ce:69:a1:9f:
         7e:22:57:3e:ad:00:61:94:ef:4f:f2:ef:3c:bc:0f:5c:21:d5:
         30:53:25:70:0b:05:29:90:e9:9c:05:b6:91:98:fa:56:35:ed:
         26:78:37:3f:17:89:4e:8c:67:bc:ad:88:d1:0f:96:64:78:48:
         2d:31:87:3b:a9:5a:48:c4:b9:88:21:b2:b4:a8:c6:02:90:f9:
         19:f8:2f:73:d0:f5:08:a6:59:eb:b3:98:68:34:b5:71:ff:f6:
         a0:58:1d:06:84:e8:a6:d4
-----BEGIN CERTIFICATE-----
MIIHSDCCBTCgAwIBAgICAMEwDQYJKoZIhvcNAQEFBQAwgbQxCzAJBgNVBAYTAlVT
MQswCQYDVQQIEwJDQTEVMBMGA1UEBxMMU2FuRnJhbmNpc2NvMRUwEwYDVQQKEwxQ
aXhnbG8sIEluYy4xEDAOBgNVBAsTB1ZQTi1DSUUxGjAYBgNVBAMTEXR1bm5lbC5w
aXhnbG8uY29tMRwwGgYDVQQpExNCYWxhIENoYW5kcmFzZWthcmFuMR4wHAYJKoZI
hvcNAQkBFg9iYWxhQHBpeGdsby5jb20wHhcNMTgwMjE0MDYyNjUwWhcNMjgwMjEy
MDYyNjUwWjCBqTELMAkGA1UEBhMCVVMxCzAJBgNVBAgTAkNBMRUwEwYDVQQHEwxT
YW5GcmFuY2lzY28xFTATBgNVBAoTDFBpeGdsbywgSW5jLjEQMA4GA1UECxMHVlBO
LUNJRTEPMA0GA1UEAxMGY2llMTkyMRwwGgYDVQQpExNCYWxhIENoYW5kcmFzZWth
cmFuMR4wHAYJKoZIhvcNAQkBFg9iYWxhQHBpeGdsby5jb20wggIiMA0GCSqGSIb3
DQEBAQUAA4ICDwAwggIKAoICAQC/5kOeqrf6VNAQv/4pLkZBXaayco04XEyJPOq1
AtWO6jEFsWAOfeg48gv3+AeIquZLt0VYxyxbx2uZs4Eh4SnLiJSmWGTPlWwE7Iue
oiSoHkTxwNn3Mq86zgZtcefBh5lsQ0M0uzAShl8jxVZPDjzq33GDmRM0gmlq2oaa
iDJsSKk1MgcWnQb+1700qIHMniv5OcULFYfdX6793e1k3lRkVeLQEY9N5messCno
8dgfklgHQC+boGVNE8BImBzkzGGr6EFe/n6UO5mmfUYIf3yZWlp7CE6fsrAwoTHk
l4yPF63gqMWjjxhnlqvgH8z9GTv41vnamfYP2aI2phZY3GygUI/QHpW5hZhZcR4D
kLB6LdEvo9QRxwodwZ3zvQMuROZlp/oPAVGaIhsUuC1LpV+Yu7emHbuL0GeI2dcc
HY/d+YEF+Vm54P6u0rHzyPSbCDy9gD4XvzTa8/jRjIcNlThmwLlEP646+2nI4Zif
naR2vzRNPYORBa/fKNP60D/lhVhkzc43SZHr8pg4FSq+kY6VUYhemkjlequE7v/J
7DbWj8HcLegSKIb0WEEur7i/sspbp35XnKaHNxN+56H9B4pfFR8CTU95ymhoYjtk
nsUQ1S3b8J9ON/vfnac/h//23To1s2x7E97jPnL8ddmzyMoASt0faTXH7rPke/0t
Z659nwIDAQABo4IBazCCAWcwCQYDVR0TBAIwADAtBglghkgBhvhCAQ0EIBYeRWFz
eS1SU0EgR2VuZXJhdGVkIENlcnRpZmljYXRlMB0GA1UdDgQWBBQt43dgjxgrBmaG
Phjc8mKVPuc/fDCB6QYDVR0jBIHhMIHegBTvOI0UUFinW02cF3L837msp1GwEKGB
uqSBtzCBtDELMAkGA1UEBhMCVVMxCzAJBgNVBAgTAkNBMRUwEwYDVQQHEwxTYW5G
cmFuY2lzY28xFTATBgNVBAoTDFBpeGdsbywgSW5jLjEQMA4GA1UECxMHVlBOLUNJ
RTEaMBgGA1UEAxMRdHVubmVsLnBpeGdsby5jb20xHDAaBgNVBCkTE0JhbGEgQ2hh
bmRyYXNla2FyYW4xHjAcBgkqhkiG9w0BCQEWD2JhbGFAcGl4Z2xvLmNvbYIJAKbb
xoOA5qB5MBMGA1UdJQQMMAoGCCsGAQUFBwMCMAsGA1UdDwQEAwIHgDANBgkqhkiG
9w0BAQUFAAOCAgEAmS6CXSNC4oxdcKXFHBrZ9tErvW7NnCeo8j2fMn224GOu3QsH
nvoWf5QvaseE8JaYva1SFpNLnMVOo5S7lkxYUuJwZVYbP0hyfFcYK+/QJoLaDFPJ
iNAOUphwciJ84vALLX/EakxmpQXIKDN1y43k6HzwMnyOK82usaZQp8aG0CmnmSbm
Yp2Ts9l67HoZgANeGvMlTFtLa7TcOVIAqtetmvMV4+kQs7Dt44FoV+Y/eQpO7/En
9BAcuJNFeEOgFnxyCCBbKQZ34+o2PLQ4FbJiPQiKKWhB3lGFxHBSHtZ2EXbAi8DV
sB8l1aD8IX5RTnwSFSP7kjAASrPdooXGu7QQgfX/K2qqJnZFs/kUWFxwo99heWG4
DmLi7Y211XERw5Y54ErEBW7DwH6u4PSz9en7Z8IexbDy4kqlTDaIgu1WCLznpZl1
FeqQI3SbV2+w2x4G8xda30kAV5h4UZZMrsNgfqHQzyf5P3JyswX3S9100jkefdqL
sXRYh9q7NDSO4bwKobqYBHdB5PeoNQz+gaygUoVWJ72zI4MPoJ/OaaGffiJXPq0A
YZTvT/LvPLwPXCHVMFMlcAsFKZDpnAW2kZj6VjXtJng3PxeJToxnvK2I0Q+WZHhI
LTGHO6laSMS5iCGytKjGApD5Gfgvc9D1CKZZ67OYaDS1cf/2oFgdBoToptQ=
-----END CERTIFICATE-----
