Certificate:
    Data:
        Version: 3 (0x2)
        Serial Number: 194 (0xc2)
    Signature Algorithm: sha1WithRSAEncryption
        Issuer: C=US, ST=CA, L=SanFrancisco, O=Pixglo, Inc., OU=VPN-CIE, CN=tunnel.pixglo.com/name=Bala Chandrasekaran/emailAddress=bala@pixglo.com
        Validity
            Not Before: Feb 14 06:26:51 2018 GMT
            Not After : Feb 12 06:26:51 2028 GMT
        Subject: C=US, ST=CA, L=SanFrancisco, O=Pixglo, Inc., OU=VPN-CIE, CN=cie193/name=Bala Chandrasekaran/emailAddress=bala@pixglo.com
        Subject Public Key Info:
            Public Key Algorithm: rsaEncryption
                Public-Key: (4096 bit)
                Modulus:
                    00:bd:be:45:d4:55:0a:ec:9c:10:df:6e:9d:98:e8:
                    78:6e:b2:46:d3:30:2d:7f:43:b8:d1:49:b5:06:0b:
                    84:74:ae:89:cf:07:ff:d7:03:91:4e:3d:de:fc:10:
                    3b:fc:c0:5d:37:a0:ed:e1:b3:26:3e:f5:47:93:08:
                    b4:e4:d4:34:51:a5:b8:e5:ec:37:27:85:fa:f7:39:
                    43:8f:75:f1:6c:e3:7f:6c:20:77:e7:44:71:50:5e:
                    07:da:44:a8:f9:35:60:bb:fc:ea:62:14:8b:a0:f9:
                    66:d7:e1:ac:3b:b3:67:49:24:8c:b5:87:35:6f:99:
                    3f:d1:63:d2:bb:12:a6:ce:d2:5a:8a:36:f3:4a:6b:
                    87:4d:31:02:01:e6:48:86:fa:aa:7b:1e:65:a3:b8:
                    c8:da:91:bf:80:3b:2e:02:75:d7:a4:e9:dd:13:f2:
                    fd:d0:3b:26:5a:2b:37:1c:2c:8d:5b:a4:8e:68:87:
                    b8:dd:e9:07:90:a5:5e:fd:89:05:d1:be:ec:fe:96:
                    77:82:4f:95:03:1a:49:a3:17:c3:49:52:19:b9:46:
                    d7:99:79:9d:72:7c:30:f3:f1:24:e6:55:86:e9:ab:
                    e5:79:bd:dd:07:41:49:d0:89:c6:1d:0e:f4:8c:e9:
                    f9:f9:de:29:eb:62:25:e8:9c:3c:a1:81:96:3b:f7:
                    18:0c:96:1b:f0:d4:c6:db:b4:f2:11:43:ec:76:0c:
                    2b:2f:4d:86:47:db:a4:3c:fd:01:92:70:4e:0d:5a:
                    45:fb:95:2e:03:32:b3:22:f0:1c:cf:9d:ab:cb:a2:
                    de:c3:b1:ba:4f:3f:4e:5c:cd:3e:45:94:3c:d8:79:
                    f1:d4:9a:f2:19:8e:98:ab:3b:6f:a7:62:fd:5a:18:
                    da:5b:ca:37:df:be:31:5e:c5:2e:ae:9f:c4:44:d4:
                    3d:d0:ff:27:21:c4:ba:0b:83:ba:cc:ab:9d:58:8b:
                    e0:9b:ad:d1:b9:db:fe:74:74:ec:57:65:4f:b6:c7:
                    1c:0a:e7:96:ec:65:c8:29:10:b6:17:30:ed:bb:f9:
                    de:d2:8d:86:7b:57:39:06:61:d5:48:ec:7e:71:d1:
                    58:29:dc:aa:0e:40:8f:35:67:a7:34:ee:ac:e5:3b:
                    93:8f:9f:21:81:91:8a:52:c1:47:04:80:f2:ae:2f:
                    df:f5:5a:c6:20:8d:cd:c5:08:9b:52:f7:a0:b8:38:
                    2d:83:9d:05:a2:d8:ea:71:4c:ea:a2:df:1d:4c:9c:
                    a9:d1:79:60:42:a2:96:e5:2c:2d:9c:b7:ad:33:61:
                    92:31:6b:b2:f7:1e:70:01:92:e5:ce:ba:5e:59:86:
                    9a:eb:89:e2:34:09:34:8e:c5:b6:9d:10:32:2d:6c:
                    75:db:85
                Exponent: 65537 (0x10001)
        X509v3 extensions:
            X509v3 Basic Constraints: 
                CA:FALSE
            Netscape Comment: 
                Easy-RSA Generated Certificate
            X509v3 Subject Key Identifier: 
                58:18:78:10:9C:9D:A0:FD:52:EA:52:3E:D1:56:2A:14:82:D5:02:1C
            X509v3 Authority Key Identifier: 
                keyid:EF:38:8D:14:50:58:A7:5B:4D:9C:17:72:FC:DF:B9:AC:A7:51:B0:10
                DirName:/C=US/ST=CA/L=SanFrancisco/O=Pixglo, Inc./OU=VPN-CIE/CN=tunnel.pixglo.com/name=Bala Chandrasekaran/emailAddress=bala@pixglo.com
                serial:A6:DB:C6:83:80:E6:A0:79

            X509v3 Extended Key Usage: 
                TLS Web Client Authentication
            X509v3 Key Usage: 
                Digital Signature
    Signature Algorithm: sha1WithRSAEncryption
         26:46:70:0c:88:86:a5:34:ad:10:76:62:2e:c3:ab:88:57:d0:
         74:0e:94:ad:a4:3c:fa:18:d6:88:f9:e1:75:df:4b:9f:9a:f5:
         70:d2:c2:6f:3c:0a:2c:d8:54:7a:6b:66:7b:f9:69:f3:5a:27:
         fb:18:97:8a:3a:4b:8b:02:ff:a1:23:90:75:73:e9:8e:74:e6:
         d2:fb:4b:6e:43:f0:72:4d:3f:02:1b:15:53:f7:c0:d2:c2:dd:
         5e:3c:89:e2:62:bd:72:b5:dc:cc:9e:e7:f6:f0:42:c5:3f:7a:
         bb:02:4f:a3:ba:ae:72:07:69:bb:6e:8b:a5:b0:f1:44:7e:63:
         a1:66:96:0e:2d:82:25:b5:90:97:0e:27:31:d1:92:11:45:14:
         da:33:e4:a6:51:cc:4c:a6:0c:e3:bd:64:a2:b7:0b:3d:24:d1:
         2c:9c:1a:64:7b:5b:dc:b9:9f:a6:7a:82:00:eb:d8:d8:32:b8:
         59:96:0f:7e:7d:93:cd:b7:33:d4:cc:8a:9d:56:50:d7:86:09:
         07:a8:03:de:08:61:8d:ee:9e:b4:e2:41:f7:88:00:26:42:1b:
         7c:81:65:82:bc:9e:77:73:0d:5f:07:11:d5:9e:21:a9:7a:a9:
         70:09:4b:b9:51:41:64:9b:cb:ec:63:5c:e8:e2:43:21:bb:94:
         d5:ab:10:d8:e7:12:6d:29:27:63:c8:e3:9c:72:cf:b6:1f:bb:
         97:c8:e7:40:e1:18:71:76:37:bf:fc:db:e3:6f:ea:81:d1:3f:
         ca:58:19:3f:16:07:d2:6d:ac:b4:b5:33:8e:d0:f0:0d:51:df:
         45:a1:be:45:71:c6:03:14:58:40:84:65:3a:a4:7b:f6:4d:3f:
         33:e8:45:76:cc:a8:04:f6:69:02:81:65:67:c9:77:33:52:d4:
         1a:a8:49:49:0d:c4:ea:83:01:f1:4d:b5:47:2c:04:7b:9c:ea:
         46:22:b5:7d:76:45:f8:f7:c6:cd:0c:75:f7:d0:2a:21:a0:fb:
         21:3a:73:2d:e9:23:5e:cc:aa:6b:c2:c0:bb:b0:4d:bf:3b:0c:
         9c:8d:15:bb:92:fa:a8:a6:12:79:1c:f2:ab:e4:90:b1:44:28:
         3f:f2:58:be:b3:40:2f:0c:ad:04:5d:07:fd:43:b0:ee:8c:df:
         93:16:33:b9:5b:73:73:35:5b:62:6e:9e:0d:b1:96:0c:09:c5:
         51:0f:50:27:05:e5:75:fb:9a:23:46:04:e0:29:55:26:c9:4a:
         da:7d:df:58:2d:bc:5d:6c:8e:59:49:67:d4:d3:f3:c5:c5:f7:
         73:68:d7:fa:5e:be:19:0a:df:cb:c7:44:01:af:db:8c:95:a1:
         1b:77:92:03:73:15:3f:55
-----BEGIN CERTIFICATE-----
MIIHSDCCBTCgAwIBAgICAMIwDQYJKoZIhvcNAQEFBQAwgbQxCzAJBgNVBAYTAlVT
MQswCQYDVQQIEwJDQTEVMBMGA1UEBxMMU2FuRnJhbmNpc2NvMRUwEwYDVQQKEwxQ
aXhnbG8sIEluYy4xEDAOBgNVBAsTB1ZQTi1DSUUxGjAYBgNVBAMTEXR1bm5lbC5w
aXhnbG8uY29tMRwwGgYDVQQpExNCYWxhIENoYW5kcmFzZWthcmFuMR4wHAYJKoZI
hvcNAQkBFg9iYWxhQHBpeGdsby5jb20wHhcNMTgwMjE0MDYyNjUxWhcNMjgwMjEy
MDYyNjUxWjCBqTELMAkGA1UEBhMCVVMxCzAJBgNVBAgTAkNBMRUwEwYDVQQHEwxT
YW5GcmFuY2lzY28xFTATBgNVBAoTDFBpeGdsbywgSW5jLjEQMA4GA1UECxMHVlBO
LUNJRTEPMA0GA1UEAxMGY2llMTkzMRwwGgYDVQQpExNCYWxhIENoYW5kcmFzZWth
cmFuMR4wHAYJKoZIhvcNAQkBFg9iYWxhQHBpeGdsby5jb20wggIiMA0GCSqGSIb3
DQEBAQUAA4ICDwAwggIKAoICAQC9vkXUVQrsnBDfbp2Y6HhuskbTMC1/Q7jRSbUG
C4R0ronPB//XA5FOPd78EDv8wF03oO3hsyY+9UeTCLTk1DRRpbjl7Dcnhfr3OUOP
dfFs439sIHfnRHFQXgfaRKj5NWC7/OpiFIug+WbX4aw7s2dJJIy1hzVvmT/RY9K7
EqbO0lqKNvNKa4dNMQIB5kiG+qp7HmWjuMjakb+AOy4Cddek6d0T8v3QOyZaKzcc
LI1bpI5oh7jd6QeQpV79iQXRvuz+lneCT5UDGkmjF8NJUhm5RteZeZ1yfDDz8STm
VYbpq+V5vd0HQUnQicYdDvSM6fn53inrYiXonDyhgZY79xgMlhvw1MbbtPIRQ+x2
DCsvTYZH26Q8/QGScE4NWkX7lS4DMrMi8BzPnavLot7DsbpPP05czT5FlDzYefHU
mvIZjpirO2+nYv1aGNpbyjffvjFexS6un8RE1D3Q/ychxLoLg7rMq51Yi+CbrdG5
2/50dOxXZU+2xxwK55bsZcgpELYXMO27+d7SjYZ7VzkGYdVI7H5x0Vgp3KoOQI81
Z6c07qzlO5OPnyGBkYpSwUcEgPKuL9/1WsYgjc3FCJtS96C4OC2DnQWi2OpxTOqi
3x1MnKnReWBCopblLC2ct60zYZIxa7L3HnABkuXOul5ZhprrieI0CTSOxbadEDIt
bHXbhQIDAQABo4IBazCCAWcwCQYDVR0TBAIwADAtBglghkgBhvhCAQ0EIBYeRWFz
eS1SU0EgR2VuZXJhdGVkIENlcnRpZmljYXRlMB0GA1UdDgQWBBRYGHgQnJ2g/VLq
Uj7RVioUgtUCHDCB6QYDVR0jBIHhMIHegBTvOI0UUFinW02cF3L837msp1GwEKGB
uqSBtzCBtDELMAkGA1UEBhMCVVMxCzAJBgNVBAgTAkNBMRUwEwYDVQQHEwxTYW5G
cmFuY2lzY28xFTATBgNVBAoTDFBpeGdsbywgSW5jLjEQMA4GA1UECxMHVlBOLUNJ
RTEaMBgGA1UEAxMRdHVubmVsLnBpeGdsby5jb20xHDAaBgNVBCkTE0JhbGEgQ2hh
bmRyYXNla2FyYW4xHjAcBgkqhkiG9w0BCQEWD2JhbGFAcGl4Z2xvLmNvbYIJAKbb
xoOA5qB5MBMGA1UdJQQMMAoGCCsGAQUFBwMCMAsGA1UdDwQEAwIHgDANBgkqhkiG
9w0BAQUFAAOCAgEAJkZwDIiGpTStEHZiLsOriFfQdA6UraQ8+hjWiPnhdd9Ln5r1
cNLCbzwKLNhUemtme/lp81on+xiXijpLiwL/oSOQdXPpjnTm0vtLbkPwck0/AhsV
U/fA0sLdXjyJ4mK9crXczJ7n9vBCxT96uwJPo7qucgdpu26LpbDxRH5joWaWDi2C
JbWQlw4nMdGSEUUU2jPkplHMTKYM471korcLPSTRLJwaZHtb3LmfpnqCAOvY2DK4
WZYPfn2Tzbcz1MyKnVZQ14YJB6gD3ghhje6etOJB94gAJkIbfIFlgryed3MNXwcR
1Z4hqXqpcAlLuVFBZJvL7GNc6OJDIbuU1asQ2OcSbSknY8jjnHLPth+7l8jnQOEY
cXY3v/zb42/qgdE/ylgZPxYH0m2stLUzjtDwDVHfRaG+RXHGAxRYQIRlOqR79k0/
M+hFdsyoBPZpAoFlZ8l3M1LUGqhJSQ3E6oMB8U21RywEe5zqRiK1fXZF+PfGzQx1
99AqIaD7ITpzLekjXsyqa8LAu7BNvzsMnI0Vu5L6qKYSeRzyq+SQsUQoP/JYvrNA
LwytBF0H/UOw7ozfkxYzuVtzczVbYm6eDbGWDAnFUQ9QJwXldfuaI0YE4ClVJslK
2n3fWC28XWyOWUln1NPzxcX3c2jX+l6+GQrfy8dEAa/bjJWhG3eSA3MVP1U=
-----END CERTIFICATE-----
