Certificate:
    Data:
        Version: 3 (0x2)
        Serial Number: 196 (0xc4)
    Signature Algorithm: sha1WithRSAEncryption
        Issuer: C=US, ST=CA, L=SanFrancisco, O=Pixglo, Inc., OU=VPN-CIE, CN=tunnel.pixglo.com/name=Bala Chandrasekaran/emailAddress=bala@pixglo.com
        Validity
            Not Before: Feb 14 06:26:52 2018 GMT
            Not After : Feb 12 06:26:52 2028 GMT
        Subject: C=US, ST=CA, L=SanFrancisco, O=Pixglo, Inc., OU=VPN-CIE, CN=cie195/name=Bala Chandrasekaran/emailAddress=bala@pixglo.com
        Subject Public Key Info:
            Public Key Algorithm: rsaEncryption
                Public-Key: (4096 bit)
                Modulus:
                    00:e3:c8:32:72:09:8b:c9:fd:cf:19:64:49:67:e7:
                    2c:10:08:f3:84:b3:80:3b:6f:ee:60:f7:c7:10:bf:
                    88:50:6b:f4:37:bd:66:47:61:f3:38:8d:c5:e2:99:
                    31:8f:b1:5a:6a:00:9d:de:0c:5f:dc:d3:c3:ca:4e:
                    b2:b2:5f:e4:27:1b:20:c4:75:f2:fa:1a:e6:20:27:
                    73:66:74:7c:6d:23:a3:c9:6e:98:7a:90:b4:b7:49:
                    e3:9a:c5:0c:4f:1f:1f:36:57:6a:fe:b8:1a:a4:fe:
                    54:3a:86:2c:8b:0e:32:ae:b0:95:e3:e5:28:91:21:
                    e5:92:4b:56:ea:59:aa:ad:e2:a2:2d:9c:1c:8b:32:
                    7b:80:37:2c:40:1c:d0:d5:c5:85:a7:0d:a3:7e:1e:
                    b6:22:58:de:9d:62:0c:b4:62:02:8d:cb:0f:d1:e0:
                    ba:1c:0d:72:87:25:f7:42:fe:8b:5c:4f:86:cc:44:
                    a3:15:03:d2:51:c1:dd:a2:c9:49:01:c9:a7:71:a1:
                    a8:9e:11:17:98:4c:ce:4b:57:b1:4d:d4:ff:89:0f:
                    57:14:22:82:e3:33:75:73:61:2c:ef:04:24:4f:ec:
                    cc:73:e5:2b:4c:a7:81:5b:27:08:bb:46:06:4d:83:
                    bd:a0:50:a8:f3:ef:d4:70:f5:c5:73:d6:99:16:07:
                    94:bd:d5:d5:39:d4:ae:19:59:69:cc:95:77:e5:80:
                    9a:16:42:98:8d:22:60:d7:0d:a9:75:b1:4a:34:e5:
                    fe:ac:80:cd:28:9d:2e:1f:a6:7a:19:55:1c:5b:4e:
                    3c:d3:e2:9e:3f:d5:d3:66:47:90:02:ac:35:98:d0:
                    75:b5:87:f6:ba:bc:51:c9:a5:08:66:3e:a1:6e:d3:
                    1b:df:c4:11:e0:36:55:b1:19:38:88:32:2f:f9:86:
                    2b:78:a7:c8:df:52:f3:6b:5a:a7:7c:bc:67:27:3f:
                    74:86:cf:81:a5:66:c7:6f:3a:80:a9:0d:04:34:81:
                    6e:a9:cb:96:7b:dc:0c:1a:c6:c4:1e:26:94:a4:8f:
                    c7:6b:28:68:4a:dd:d1:37:3b:1d:3d:f8:50:a1:89:
                    e1:fd:23:23:f3:b6:dd:64:93:97:f0:29:75:ad:fe:
                    f4:2a:c3:12:ab:2b:9a:f8:e1:da:82:10:23:b7:c5:
                    d4:0f:41:da:91:f9:59:aa:e8:ce:10:e9:19:8c:d2:
                    a7:40:f6:c6:45:a2:59:56:e7:e5:71:9e:31:d6:37:
                    85:43:34:57:a1:a1:78:c1:70:32:45:32:ff:00:af:
                    8d:62:a1:99:9e:ab:2b:f7:0a:d9:cd:a6:5f:10:2f:
                    02:c4:ee:a5:8a:c0:ca:20:7a:25:6d:7a:72:b9:24:
                    6b:49:9b
                Exponent: 65537 (0x10001)
        X509v3 extensions:
            X509v3 Basic Constraints: 
                CA:FALSE
            Netscape Comment: 
                Easy-RSA Generated Certificate
            X509v3 Subject Key Identifier: 
                7B:58:76:58:28:99:15:19:55:9F:6B:9B:82:8D:95:AD:7B:20:7C:C5
            X509v3 Authority Key Identifier: 
                keyid:EF:38:8D:14:50:58:A7:5B:4D:9C:17:72:FC:DF:B9:AC:A7:51:B0:10
                DirName:/C=US/ST=CA/L=SanFrancisco/O=Pixglo, Inc./OU=VPN-CIE/CN=tunnel.pixglo.com/name=Bala Chandrasekaran/emailAddress=bala@pixglo.com
                serial:A6:DB:C6:83:80:E6:A0:79

            X509v3 Extended Key Usage: 
                TLS Web Client Authentication
            X509v3 Key Usage: 
                Digital Signature
    Signature Algorithm: sha1WithRSAEncryption
         37:64:60:3e:53:8d:ac:09:cc:b1:2d:a1:4a:85:12:86:f5:59:
         0b:82:6d:53:74:39:13:6b:64:9c:6e:93:97:77:0e:e5:6a:87:
         03:3b:ab:22:24:31:fe:0b:ad:3f:b9:44:54:f1:85:3f:17:e7:
         a5:84:d4:9f:e6:95:d1:a8:02:10:5a:b8:57:74:8e:fd:29:70:
         7d:91:6c:2e:6b:d6:a6:c8:aa:dc:a0:88:69:bb:c2:1b:89:24:
         73:83:9a:2c:6c:8a:db:72:9e:03:e9:5e:36:00:39:d9:dd:57:
         3a:3c:db:65:31:89:95:af:37:5c:e7:20:f9:6e:d2:c9:e4:b6:
         c0:7a:bf:ee:0c:99:f8:cd:90:c7:59:d9:68:7d:42:2b:83:81:
         19:95:f9:d1:03:fc:ab:6b:07:aa:24:ff:49:3a:8a:86:e1:98:
         ee:3a:ac:6f:a7:86:41:13:c6:5a:48:6d:e9:87:c8:9f:b3:9d:
         08:84:4d:e7:7f:5a:62:4f:fa:65:9e:9d:fb:88:15:76:3e:aa:
         37:1f:01:52:16:49:d9:c0:44:f1:d9:a4:01:8e:c1:bd:e1:46:
         7d:12:3e:eb:35:72:bf:32:0e:3c:06:25:7c:fe:41:e7:a5:ea:
         2d:12:36:65:ae:81:9a:e4:e1:80:12:ff:60:19:58:7e:f1:44:
         04:b8:95:4b:dd:77:ed:4f:f7:63:2b:bc:3e:bc:f3:9b:a5:26:
         23:2c:6c:cd:ce:1d:db:65:71:ab:4a:7e:5a:b0:4d:40:dc:b4:
         cd:7a:0d:f1:c2:3a:cb:1c:a5:8c:a2:d1:30:57:aa:dd:ba:fb:
         a9:44:b8:3f:79:73:58:10:dc:f6:7c:0b:ea:e6:f1:1b:5b:dc:
         d4:34:04:8e:32:f7:9c:75:57:09:f3:22:3b:90:33:f8:f0:1b:
         d3:83:92:49:15:5d:a9:cf:b3:60:9a:ea:81:c3:93:b1:33:24:
         82:51:d2:16:1d:6e:cd:97:7c:5e:e1:79:9b:c5:9e:12:da:5a:
         3f:e2:2b:7d:21:ee:81:16:6f:67:ed:d3:f1:5a:20:fe:ac:0e:
         67:b1:97:6c:cb:46:26:5c:a0:6b:f0:83:08:42:ac:06:ef:5c:
         ef:5f:f5:19:04:73:c9:50:0b:8e:a7:e1:57:0b:30:62:18:78:
         64:c3:b5:30:f9:14:ed:d6:2a:27:7c:e6:22:8b:08:0b:ee:25:
         6f:cc:10:c8:de:33:d0:ce:af:1a:5b:2e:aa:38:ab:55:9d:f9:
         a1:40:01:aa:51:4e:43:8c:4e:87:ed:34:29:68:17:42:4f:f6:
         8a:20:18:f3:bc:ae:84:0e:44:8d:45:5d:4b:7a:7b:8e:0f:37:
         44:54:8f:e9:cd:3a:8a:da
-----BEGIN CERTIFICATE-----
MIIHSDCCBTCgAwIBAgICAMQwDQYJKoZIhvcNAQEFBQAwgbQxCzAJBgNVBAYTAlVT
MQswCQYDVQQIEwJDQTEVMBMGA1UEBxMMU2FuRnJhbmNpc2NvMRUwEwYDVQQKEwxQ
aXhnbG8sIEluYy4xEDAOBgNVBAsTB1ZQTi1DSUUxGjAYBgNVBAMTEXR1bm5lbC5w
aXhnbG8uY29tMRwwGgYDVQQpExNCYWxhIENoYW5kcmFzZWthcmFuMR4wHAYJKoZI
hvcNAQkBFg9iYWxhQHBpeGdsby5jb20wHhcNMTgwMjE0MDYyNjUyWhcNMjgwMjEy
MDYyNjUyWjCBqTELMAkGA1UEBhMCVVMxCzAJBgNVBAgTAkNBMRUwEwYDVQQHEwxT
YW5GcmFuY2lzY28xFTATBgNVBAoTDFBpeGdsbywgSW5jLjEQMA4GA1UECxMHVlBO
LUNJRTEPMA0GA1UEAxMGY2llMTk1MRwwGgYDVQQpExNCYWxhIENoYW5kcmFzZWth
cmFuMR4wHAYJKoZIhvcNAQkBFg9iYWxhQHBpeGdsby5jb20wggIiMA0GCSqGSIb3
DQEBAQUAA4ICDwAwggIKAoICAQDjyDJyCYvJ/c8ZZEln5ywQCPOEs4A7b+5g98cQ
v4hQa/Q3vWZHYfM4jcXimTGPsVpqAJ3eDF/c08PKTrKyX+QnGyDEdfL6GuYgJ3Nm
dHxtI6PJbph6kLS3SeOaxQxPHx82V2r+uBqk/lQ6hiyLDjKusJXj5SiRIeWSS1bq
Waqt4qItnByLMnuANyxAHNDVxYWnDaN+HrYiWN6dYgy0YgKNyw/R4LocDXKHJfdC
/otcT4bMRKMVA9JRwd2iyUkByadxoaieEReYTM5LV7FN1P+JD1cUIoLjM3VzYSzv
BCRP7Mxz5StMp4FbJwi7RgZNg72gUKjz79Rw9cVz1pkWB5S91dU51K4ZWWnMlXfl
gJoWQpiNImDXDal1sUo05f6sgM0onS4fpnoZVRxbTjzT4p4/1dNmR5ACrDWY0HW1
h/a6vFHJpQhmPqFu0xvfxBHgNlWxGTiIMi/5hit4p8jfUvNrWqd8vGcnP3SGz4Gl
ZsdvOoCpDQQ0gW6py5Z73AwaxsQeJpSkj8drKGhK3dE3Ox09+FChieH9IyPztt1k
k5fwKXWt/vQqwxKrK5r44dqCECO3xdQPQdqR+Vmq6M4Q6RmM0qdA9sZFollW5+Vx
njHWN4VDNFehoXjBcDJFMv8Ar41ioZmeqyv3CtnNpl8QLwLE7qWKwMogeiVtenK5
JGtJmwIDAQABo4IBazCCAWcwCQYDVR0TBAIwADAtBglghkgBhvhCAQ0EIBYeRWFz
eS1SU0EgR2VuZXJhdGVkIENlcnRpZmljYXRlMB0GA1UdDgQWBBR7WHZYKJkVGVWf
a5uCjZWteyB8xTCB6QYDVR0jBIHhMIHegBTvOI0UUFinW02cF3L837msp1GwEKGB
uqSBtzCBtDELMAkGA1UEBhMCVVMxCzAJBgNVBAgTAkNBMRUwEwYDVQQHEwxTYW5G
cmFuY2lzY28xFTATBgNVBAoTDFBpeGdsbywgSW5jLjEQMA4GA1UECxMHVlBOLUNJ
RTEaMBgGA1UEAxMRdHVubmVsLnBpeGdsby5jb20xHDAaBgNVBCkTE0JhbGEgQ2hh
bmRyYXNla2FyYW4xHjAcBgkqhkiG9w0BCQEWD2JhbGFAcGl4Z2xvLmNvbYIJAKbb
xoOA5qB5MBMGA1UdJQQMMAoGCCsGAQUFBwMCMAsGA1UdDwQEAwIHgDANBgkqhkiG
9w0BAQUFAAOCAgEAN2RgPlONrAnMsS2hSoUShvVZC4JtU3Q5E2tknG6Tl3cO5WqH
AzurIiQx/gutP7lEVPGFPxfnpYTUn+aV0agCEFq4V3SO/SlwfZFsLmvWpsiq3KCI
abvCG4kkc4OaLGyK23KeA+leNgA52d1XOjzbZTGJla83XOcg+W7SyeS2wHq/7gyZ
+M2Qx1nZaH1CK4OBGZX50QP8q2sHqiT/STqKhuGY7jqsb6eGQRPGWkht6YfIn7Od
CIRN539aYk/6ZZ6d+4gVdj6qNx8BUhZJ2cBE8dmkAY7BveFGfRI+6zVyvzIOPAYl
fP5B56XqLRI2Za6BmuThgBL/YBlYfvFEBLiVS9137U/3Yyu8Przzm6UmIyxszc4d
22Vxq0p+WrBNQNy0zXoN8cI6yxyljKLRMFeq3br7qUS4P3lzWBDc9nwL6ubxG1vc
1DQEjjL3nHVXCfMiO5Az+PAb04OSSRVdqc+zYJrqgcOTsTMkglHSFh1uzZd8XuF5
m8WeEtpaP+IrfSHugRZvZ+3T8Vog/qwOZ7GXbMtGJlyga/CDCEKsBu9c71/1GQRz
yVALjqfhVwswYhh4ZMO1MPkU7dYqJ3zmIosIC+4lb8wQyN4z0M6vGlsuqjirVZ35
oUABqlFOQ4xOh+00KWgXQk/2iiAY87yuhA5EjUVdS3p7jg83RFSP6c06ito=
-----END CERTIFICATE-----
