Certificate:
    Data:
        Version: 3 (0x2)
        Serial Number: 198 (0xc6)
    Signature Algorithm: sha1WithRSAEncryption
        Issuer: C=US, ST=CA, L=SanFrancisco, O=Pixglo, Inc., OU=VPN-CIE, CN=tunnel.pixglo.com/name=Bala Chandrasekaran/emailAddress=bala@pixglo.com
        Validity
            Not Before: Feb 14 06:26:55 2018 GMT
            Not After : Feb 12 06:26:55 2028 GMT
        Subject: C=US, ST=CA, L=SanFrancisco, O=Pixglo, Inc., OU=VPN-CIE, CN=cie197/name=Bala Chandrasekaran/emailAddress=bala@pixglo.com
        Subject Public Key Info:
            Public Key Algorithm: rsaEncryption
                Public-Key: (4096 bit)
                Modulus:
                    00:b9:28:e1:95:ab:34:2e:37:47:03:25:ed:fc:b2:
                    4f:87:18:36:e2:c5:eb:2e:54:ce:e0:17:6c:29:28:
                    a9:4c:99:89:5f:6a:d7:80:55:5d:56:ab:db:1b:7b:
                    3f:1a:7d:3d:85:54:71:7d:7d:6c:b8:39:f9:da:ad:
                    95:96:19:93:aa:5d:08:ef:46:0b:77:f1:8d:22:cc:
                    0d:1e:53:91:f6:40:63:0e:03:7e:e6:d0:5b:7b:06:
                    9c:3e:2f:b7:42:c7:36:a3:71:6d:64:4c:4a:e0:28:
                    19:06:f1:05:55:f8:ad:48:0c:7b:66:8f:3e:03:76:
                    cb:d1:19:db:45:02:24:a9:97:1f:b7:5b:6c:5d:24:
                    7b:fb:c9:f8:6f:5e:52:aa:f0:34:e6:c7:57:31:83:
                    d2:90:3d:b8:93:f9:bd:0a:84:72:fe:2e:ed:45:ac:
                    53:17:bd:d5:3c:4c:34:10:00:32:05:07:cd:bb:22:
                    7f:df:cc:df:76:71:61:ff:82:0e:c6:a6:ec:20:a0:
                    69:89:ac:de:44:7c:9e:3e:ec:87:57:65:64:6f:e5:
                    2d:39:2d:e1:e4:c9:14:21:0a:d7:e9:a7:ca:94:54:
                    98:e8:cd:ee:eb:e7:65:18:87:e5:e3:1b:77:e6:a0:
                    73:92:99:b3:29:6b:8c:72:b6:b6:36:ec:e7:61:85:
                    07:0e:bf:63:c9:b0:61:cb:4a:1b:89:63:d3:ec:84:
                    9c:19:0c:23:85:c7:64:4a:4a:70:da:7b:4d:cd:5b:
                    e6:5c:f1:50:a1:99:42:e5:31:32:02:77:58:16:e1:
                    42:00:74:e7:09:1a:0c:01:e4:df:0f:c8:b5:fb:ac:
                    4c:18:81:2e:86:0a:a7:9e:fb:f4:0d:08:f9:99:d9:
                    a6:b7:3f:3a:bb:2d:c3:fa:a2:42:02:82:3d:fe:5d:
                    46:23:11:27:db:6f:59:fa:d0:68:f5:a5:20:cb:19:
                    1e:d8:7a:f4:7a:5b:e4:1e:ee:9c:25:81:07:46:45:
                    7a:43:5e:35:ce:2b:e6:3d:59:dc:3a:2e:4e:3f:a4:
                    fa:45:2a:b5:6c:db:31:93:9d:82:d6:99:89:d8:24:
                    49:be:b2:7b:a3:2f:3a:71:2a:e9:68:65:53:39:f3:
                    54:fa:aa:8e:53:56:d6:57:94:f2:35:86:ce:c8:ac:
                    ed:aa:0a:22:b2:8d:1f:8c:e1:4c:88:64:c4:cf:9f:
                    f0:ea:91:f1:be:d7:71:60:dd:6c:5b:ca:4e:bc:4d:
                    d2:44:cf:5d:61:79:71:3f:0e:b0:d9:c2:97:1d:f7:
                    31:3f:b3:36:6f:df:b7:8b:a5:8b:25:d3:9c:f5:9a:
                    9c:24:c7:d5:4e:2d:ff:39:2e:57:c6:c8:12:72:36:
                    90:d1:55
                Exponent: 65537 (0x10001)
        X509v3 extensions:
            X509v3 Basic Constraints: 
                CA:FALSE
            Netscape Comment: 
                Easy-RSA Generated Certificate
            X509v3 Subject Key Identifier: 
                36:6F:FF:30:A2:1E:59:0A:BA:58:77:3B:77:1A:E5:C6:DB:9C:20:94
            X509v3 Authority Key Identifier: 
                keyid:EF:38:8D:14:50:58:A7:5B:4D:9C:17:72:FC:DF:B9:AC:A7:51:B0:10
                DirName:/C=US/ST=CA/L=SanFrancisco/O=Pixglo, Inc./OU=VPN-CIE/CN=tunnel.pixglo.com/name=Bala Chandrasekaran/emailAddress=bala@pixglo.com
                serial:A6:DB:C6:83:80:E6:A0:79

            X509v3 Extended Key Usage: 
                TLS Web Client Authentication
            X509v3 Key Usage: 
                Digital Signature
    Signature Algorithm: sha1WithRSAEncryption
         54:28:2f:91:b2:7c:08:9e:bc:9e:c0:30:ed:8a:ab:53:d4:cb:
         fe:5f:70:78:ad:1a:d0:0d:87:a3:d4:31:84:b3:2c:c6:9a:75:
         9d:17:10:32:c6:08:f0:e9:ac:05:a0:15:4c:97:4b:69:99:fa:
         b0:7b:cc:d0:3b:e4:83:66:40:09:77:89:21:6a:b0:f8:be:3f:
         d8:4a:ce:82:2f:54:e3:75:27:72:b7:0d:bc:55:67:28:27:f1:
         40:d8:09:0e:b4:15:87:af:c4:ea:58:56:0a:0e:dc:26:23:32:
         c0:00:0a:4b:44:f1:3b:cc:9f:f5:d4:36:7f:35:91:d7:23:c0:
         ca:b0:42:50:47:ee:0d:22:7f:e9:35:1c:e7:50:84:19:22:a8:
         a7:e1:5a:6a:b5:a5:ba:30:09:1e:ba:5f:c1:db:17:03:19:c7:
         05:61:ac:e0:09:51:1a:5c:2b:ba:74:ab:4e:fa:45:49:da:a2:
         e3:35:23:6a:3d:e3:a5:39:60:74:42:3a:fa:76:18:1b:f0:11:
         78:1e:9c:1e:b4:7d:40:87:f8:0c:6d:f1:e0:89:55:8e:d1:4d:
         2a:14:2e:ae:f0:4a:f3:e6:b7:d3:5a:f9:79:66:f2:3f:ce:c0:
         4a:ba:12:e1:af:f8:90:46:dd:ba:d9:74:14:c1:2f:31:1b:87:
         ae:c1:cb:a2:2b:ab:1d:9c:d3:f0:c8:19:b9:53:71:3e:5e:75:
         dd:a4:9f:c5:a6:b8:d3:a9:f1:84:8b:26:91:d6:bf:c6:3d:fa:
         1a:99:3a:6b:d3:0d:75:35:88:8a:43:22:c0:82:67:b9:47:a7:
         bc:2c:f0:1f:b3:53:6c:16:f0:b6:1c:3e:e9:03:88:07:7b:b3:
         b4:bf:24:9f:e3:14:41:af:e7:ca:6d:0a:a7:25:9d:47:14:4a:
         ed:62:2d:ad:52:05:ad:3f:38:13:fd:e7:8e:c5:2f:93:e0:98:
         c5:7d:b3:d7:66:37:6f:54:14:82:0c:11:9f:da:a0:6e:b5:9b:
         5f:e2:a4:47:91:ed:aa:ef:0f:65:67:1a:cf:47:d4:5d:e9:ab:
         20:56:da:64:15:07:0a:80:eb:c7:1a:6f:d8:c6:10:f7:f6:a1:
         50:a8:bf:ca:1a:a4:fb:c9:e2:f1:99:69:c4:2e:1e:5e:19:e9:
         d7:d8:06:1e:1f:a9:e0:35:a1:5d:17:dd:aa:8c:bf:91:d5:3d:
         ee:d4:68:65:8b:33:52:45:2a:7b:ca:17:76:9a:da:b3:ad:12:
         7d:3c:7b:87:7a:e5:a7:b1:3e:aa:ce:5d:a5:ac:0c:c3:26:93:
         ef:6b:4a:fc:27:c2:2f:5e:5e:8d:db:50:34:39:ef:90:e3:c4:
         eb:dd:19:c0:42:3b:bc:5c
-----BEGIN CERTIFICATE-----
MIIHSDCCBTCgAwIBAgICAMYwDQYJKoZIhvcNAQEFBQAwgbQxCzAJBgNVBAYTAlVT
MQswCQYDVQQIEwJDQTEVMBMGA1UEBxMMU2FuRnJhbmNpc2NvMRUwEwYDVQQKEwxQ
aXhnbG8sIEluYy4xEDAOBgNVBAsTB1ZQTi1DSUUxGjAYBgNVBAMTEXR1bm5lbC5w
aXhnbG8uY29tMRwwGgYDVQQpExNCYWxhIENoYW5kcmFzZWthcmFuMR4wHAYJKoZI
hvcNAQkBFg9iYWxhQHBpeGdsby5jb20wHhcNMTgwMjE0MDYyNjU1WhcNMjgwMjEy
MDYyNjU1WjCBqTELMAkGA1UEBhMCVVMxCzAJBgNVBAgTAkNBMRUwEwYDVQQHEwxT
YW5GcmFuY2lzY28xFTATBgNVBAoTDFBpeGdsbywgSW5jLjEQMA4GA1UECxMHVlBO
LUNJRTEPMA0GA1UEAxMGY2llMTk3MRwwGgYDVQQpExNCYWxhIENoYW5kcmFzZWth
cmFuMR4wHAYJKoZIhvcNAQkBFg9iYWxhQHBpeGdsby5jb20wggIiMA0GCSqGSIb3
DQEBAQUAA4ICDwAwggIKAoICAQC5KOGVqzQuN0cDJe38sk+HGDbixesuVM7gF2wp
KKlMmYlfateAVV1Wq9sbez8afT2FVHF9fWy4OfnarZWWGZOqXQjvRgt38Y0izA0e
U5H2QGMOA37m0Ft7Bpw+L7dCxzajcW1kTErgKBkG8QVV+K1IDHtmjz4DdsvRGdtF
AiSplx+3W2xdJHv7yfhvXlKq8DTmx1cxg9KQPbiT+b0KhHL+Lu1FrFMXvdU8TDQQ
ADIFB827In/fzN92cWH/gg7GpuwgoGmJrN5EfJ4+7IdXZWRv5S05LeHkyRQhCtfp
p8qUVJjoze7r52UYh+XjG3fmoHOSmbMpa4xytrY27OdhhQcOv2PJsGHLShuJY9Ps
hJwZDCOFx2RKSnDae03NW+Zc8VChmULlMTICd1gW4UIAdOcJGgwB5N8PyLX7rEwY
gS6GCqee+/QNCPmZ2aa3Pzq7LcP6okICgj3+XUYjESfbb1n60Gj1pSDLGR7YevR6
W+Qe7pwlgQdGRXpDXjXOK+Y9Wdw6Lk4/pPpFKrVs2zGTnYLWmYnYJEm+snujLzpx
KuloZVM581T6qo5TVtZXlPI1hs7IrO2qCiKyjR+M4UyIZMTPn/DqkfG+13Fg3Wxb
yk68TdJEz11heXE/DrDZwpcd9zE/szZv37eLpYsl05z1mpwkx9VOLf85LlfGyBJy
NpDRVQIDAQABo4IBazCCAWcwCQYDVR0TBAIwADAtBglghkgBhvhCAQ0EIBYeRWFz
eS1SU0EgR2VuZXJhdGVkIENlcnRpZmljYXRlMB0GA1UdDgQWBBQ2b/8woh5ZCrpY
dzt3GuXG25wglDCB6QYDVR0jBIHhMIHegBTvOI0UUFinW02cF3L837msp1GwEKGB
uqSBtzCBtDELMAkGA1UEBhMCVVMxCzAJBgNVBAgTAkNBMRUwEwYDVQQHEwxTYW5G
cmFuY2lzY28xFTATBgNVBAoTDFBpeGdsbywgSW5jLjEQMA4GA1UECxMHVlBOLUNJ
RTEaMBgGA1UEAxMRdHVubmVsLnBpeGdsby5jb20xHDAaBgNVBCkTE0JhbGEgQ2hh
bmRyYXNla2FyYW4xHjAcBgkqhkiG9w0BCQEWD2JhbGFAcGl4Z2xvLmNvbYIJAKbb
xoOA5qB5MBMGA1UdJQQMMAoGCCsGAQUFBwMCMAsGA1UdDwQEAwIHgDANBgkqhkiG
9w0BAQUFAAOCAgEAVCgvkbJ8CJ68nsAw7YqrU9TL/l9weK0a0A2Ho9QxhLMsxpp1
nRcQMsYI8OmsBaAVTJdLaZn6sHvM0Dvkg2ZACXeJIWqw+L4/2ErOgi9U43UncrcN
vFVnKCfxQNgJDrQVh6/E6lhWCg7cJiMywAAKS0TxO8yf9dQ2fzWR1yPAyrBCUEfu
DSJ/6TUc51CEGSKop+FaarWlujAJHrpfwdsXAxnHBWGs4AlRGlwrunSrTvpFSdqi
4zUjaj3jpTlgdEI6+nYYG/AReB6cHrR9QIf4DG3x4IlVjtFNKhQurvBK8+a301r5
eWbyP87ASroS4a/4kEbdutl0FMEvMRuHrsHLoiurHZzT8MgZuVNxPl513aSfxaa4
06nxhIsmkda/xj36Gpk6a9MNdTWIikMiwIJnuUenvCzwH7NTbBbwthw+6QOIB3uz
tL8kn+MUQa/nym0KpyWdRxRK7WItrVIFrT84E/3njsUvk+CYxX2z12Y3b1QUggwR
n9qgbrWbX+KkR5Htqu8PZWcaz0fUXemrIFbaZBUHCoDrxxpv2MYQ9/ahUKi/yhqk
+8ni8ZlpxC4eXhnp19gGHh+p4DWhXRfdqoy/kdU97tRoZYszUkUqe8oXdpras60S
fTx7h3rlp7E+qs5dpawMwyaT72tK/CfCL15ejdtQNDnvkOPE690ZwEI7vFw=
-----END CERTIFICATE-----
