Certificate:
    Data:
        Version: 3 (0x2)
        Serial Number: 200 (0xc8)
    Signature Algorithm: sha1WithRSAEncryption
        Issuer: C=US, ST=CA, L=SanFrancisco, O=Pixglo, Inc., OU=VPN-CIE, CN=tunnel.pixglo.com/name=Bala Chandrasekaran/emailAddress=bala@pixglo.com
        Validity
            Not Before: Feb 14 06:26:57 2018 GMT
            Not After : Feb 12 06:26:57 2028 GMT
        Subject: C=US, ST=CA, L=SanFrancisco, O=Pixglo, Inc., OU=VPN-CIE, CN=cie199/name=Bala Chandrasekaran/emailAddress=bala@pixglo.com
        Subject Public Key Info:
            Public Key Algorithm: rsaEncryption
                Public-Key: (4096 bit)
                Modulus:
                    00:db:c5:ed:fe:44:5b:21:f0:34:61:c7:e5:03:e6:
                    51:02:ff:9e:65:82:f9:8c:00:3a:ca:28:39:c9:81:
                    b2:24:87:39:09:83:a3:c2:5d:a2:25:fd:ce:cf:0d:
                    b5:62:ad:7a:3d:b2:4d:67:56:5c:d3:99:8b:93:85:
                    36:88:ae:83:2e:b8:08:e4:ca:cf:89:e9:1a:6d:8b:
                    60:0e:0b:e3:90:49:db:62:30:f8:a2:ff:78:5e:68:
                    74:f6:af:37:c0:bf:2f:f3:c4:ec:d0:14:53:20:a4:
                    3f:10:c3:0c:fd:54:b1:4c:16:81:b1:fe:5c:dc:99:
                    b1:30:5a:17:3d:18:82:41:0d:f9:3e:76:fa:db:d1:
                    d5:b3:62:a6:30:e5:55:8f:14:dc:0c:6d:26:5b:db:
                    e9:12:0f:6d:f9:6e:23:64:45:89:06:24:30:c0:77:
                    01:08:94:e7:54:33:19:ad:a4:5d:af:26:60:62:67:
                    3f:d0:cb:7b:e1:4e:a9:11:ea:6d:d4:d1:46:4e:ea:
                    4a:11:89:1e:b2:86:07:85:e0:4a:17:6e:43:1b:64:
                    da:89:99:ea:7c:fa:7b:f8:5a:29:28:49:5c:37:96:
                    b7:9e:af:6e:bc:6e:91:ce:8f:d2:ee:75:4c:24:d3:
                    f6:f6:20:5c:f9:32:05:1c:4b:14:10:cb:dd:9e:54:
                    aa:db:4a:a9:5c:6c:dc:8f:da:44:b7:09:30:5b:19:
                    31:d6:76:60:34:bf:97:56:2a:83:af:74:fc:cc:c8:
                    3f:9a:bf:1b:a3:6a:1d:80:26:c4:7b:ae:0e:1d:02:
                    ca:f8:32:23:65:11:06:ed:17:e6:7a:01:7f:fc:2f:
                    9f:02:6b:21:73:c3:f3:56:c9:03:36:5f:70:23:7a:
                    20:e4:13:69:b8:2a:b6:ad:0e:39:83:4e:3e:30:a7:
                    f2:d5:ab:3c:95:43:32:84:69:46:ca:7d:39:01:00:
                    72:b9:8f:5a:55:83:b1:b5:e3:61:6a:2e:ea:74:4b:
                    00:5c:02:59:1a:ed:0e:ba:c0:32:50:a7:39:76:22:
                    0f:7a:9b:b7:0d:d5:50:bf:ff:cb:df:06:b8:a9:7c:
                    c9:62:a8:f4:ac:78:ac:6b:cb:1f:76:ea:88:f2:cf:
                    91:b4:49:48:01:80:21:f3:ec:34:5b:61:6b:4c:69:
                    65:f5:ac:3b:21:d9:fe:19:46:65:1b:fe:2d:cc:bb:
                    03:ea:10:eb:7f:94:9c:8b:b4:70:d7:7e:bd:51:d7:
                    36:99:0e:42:66:51:98:8f:52:a5:50:d2:ed:b0:92:
                    c5:0b:96:c6:b1:ad:f8:62:6c:3b:50:70:bb:07:d3:
                    2f:0e:c1:2c:78:98:af:42:a8:45:e5:54:58:6a:fc:
                    5e:77:59
                Exponent: 65537 (0x10001)
        X509v3 extensions:
            X509v3 Basic Constraints: 
                CA:FALSE
            Netscape Comment: 
                Easy-RSA Generated Certificate
            X509v3 Subject Key Identifier: 
                65:66:7C:A7:7B:1F:8C:A7:05:26:A7:4E:2F:09:45:05:C8:DD:BF:25
            X509v3 Authority Key Identifier: 
                keyid:EF:38:8D:14:50:58:A7:5B:4D:9C:17:72:FC:DF:B9:AC:A7:51:B0:10
                DirName:/C=US/ST=CA/L=SanFrancisco/O=Pixglo, Inc./OU=VPN-CIE/CN=tunnel.pixglo.com/name=Bala Chandrasekaran/emailAddress=bala@pixglo.com
                serial:A6:DB:C6:83:80:E6:A0:79

            X509v3 Extended Key Usage: 
                TLS Web Client Authentication
            X509v3 Key Usage: 
                Digital Signature
    Signature Algorithm: sha1WithRSAEncryption
         83:cb:5c:6e:a0:36:30:67:c6:02:32:d5:5a:13:c4:66:40:b4:
         64:f5:ea:77:10:e8:d7:d0:ab:b1:8d:a3:36:4d:5b:13:00:77:
         ed:c7:2c:b8:a3:7b:3a:b2:c1:35:d4:0c:12:31:d8:3b:aa:6c:
         de:20:ca:03:bd:6d:c0:ba:f9:1c:8b:84:6d:cc:64:2c:be:f6:
         c5:26:ef:53:f0:34:1b:a2:ae:65:a3:b0:28:13:f7:16:0f:94:
         2b:1b:58:bb:d9:f2:1d:68:48:6a:6c:2b:44:42:6a:8c:13:88:
         37:a5:ef:b3:7b:35:d6:e5:bc:97:c3:20:57:6b:b1:41:c3:b0:
         91:3c:17:e4:a5:0f:9b:22:e2:7f:50:e5:5b:ab:9c:d6:e2:17:
         f7:45:47:eb:ee:f5:7b:e3:21:76:68:38:da:f3:12:88:1d:5e:
         e4:e3:ee:a9:2b:a8:08:41:c3:f8:d6:d3:db:26:2d:85:13:e3:
         e5:70:13:43:8c:b9:99:5c:4e:7e:18:70:88:b7:36:e7:ba:a8:
         bb:4f:09:d4:26:ee:74:eb:f8:82:da:77:44:3b:d9:78:91:1b:
         9c:fc:c3:c9:6f:7a:ac:91:b1:e1:d4:bd:21:46:80:75:6e:f2:
         f9:51:dd:15:e4:1b:96:80:1a:fa:30:8c:c0:f7:20:21:86:0f:
         60:26:f5:7b:b2:86:e2:24:4b:eb:ec:8c:38:59:20:a6:4e:74:
         3d:95:22:6b:36:e3:9b:9c:87:15:d3:81:70:e1:d1:d7:f4:1d:
         96:16:48:de:f8:c1:84:cc:f4:e1:a8:34:04:7a:7c:bd:fb:d6:
         ad:60:b4:1e:a9:f2:fe:29:92:4b:5c:a2:08:89:2d:95:c4:94:
         6e:c4:49:b6:8c:8d:aa:6b:d8:53:44:68:97:57:89:1e:7a:09:
         43:41:02:50:76:7c:11:56:2b:e0:3c:74:85:9b:79:7c:43:e4:
         5a:b1:28:00:d4:18:16:4b:6f:a3:15:4c:61:3e:f2:47:27:81:
         26:94:3d:1a:ce:3a:43:10:b0:1c:af:5f:33:4b:20:47:4d:01:
         7e:72:2d:1c:84:7f:20:bc:b8:b4:53:c4:2b:dd:39:b8:64:8a:
         23:8e:f6:4a:10:1d:1b:cd:09:97:1f:bf:e0:fc:16:51:1d:07:
         f6:68:98:53:f0:0c:d7:af:b0:6b:2d:12:fc:9f:75:f6:8e:6d:
         04:d1:d7:fe:83:ac:30:d3:01:4c:7b:10:82:59:da:0a:33:21:
         4c:e8:ee:13:0a:a4:4b:74:b6:71:78:cb:e1:b4:63:39:33:87:
         f6:6a:12:6d:66:1a:2d:53:26:99:63:2c:49:0e:9a:ef:7d:54:
         9f:ba:a5:1e:77:33:2e:ff
-----BEGIN CERTIFICATE-----
MIIHSDCCBTCgAwIBAgICAMgwDQYJKoZIhvcNAQEFBQAwgbQxCzAJBgNVBAYTAlVT
MQswCQYDVQQIEwJDQTEVMBMGA1UEBxMMU2FuRnJhbmNpc2NvMRUwEwYDVQQKEwxQ
aXhnbG8sIEluYy4xEDAOBgNVBAsTB1ZQTi1DSUUxGjAYBgNVBAMTEXR1bm5lbC5w
aXhnbG8uY29tMRwwGgYDVQQpExNCYWxhIENoYW5kcmFzZWthcmFuMR4wHAYJKoZI
hvcNAQkBFg9iYWxhQHBpeGdsby5jb20wHhcNMTgwMjE0MDYyNjU3WhcNMjgwMjEy
MDYyNjU3WjCBqTELMAkGA1UEBhMCVVMxCzAJBgNVBAgTAkNBMRUwEwYDVQQHEwxT
YW5GcmFuY2lzY28xFTATBgNVBAoTDFBpeGdsbywgSW5jLjEQMA4GA1UECxMHVlBO
LUNJRTEPMA0GA1UEAxMGY2llMTk5MRwwGgYDVQQpExNCYWxhIENoYW5kcmFzZWth
cmFuMR4wHAYJKoZIhvcNAQkBFg9iYWxhQHBpeGdsby5jb20wggIiMA0GCSqGSIb3
DQEBAQUAA4ICDwAwggIKAoICAQDbxe3+RFsh8DRhx+UD5lEC/55lgvmMADrKKDnJ
gbIkhzkJg6PCXaIl/c7PDbVirXo9sk1nVlzTmYuThTaIroMuuAjkys+J6Rpti2AO
C+OQSdtiMPii/3heaHT2rzfAvy/zxOzQFFMgpD8Qwwz9VLFMFoGx/lzcmbEwWhc9
GIJBDfk+dvrb0dWzYqYw5VWPFNwMbSZb2+kSD235biNkRYkGJDDAdwEIlOdUMxmt
pF2vJmBiZz/Qy3vhTqkR6m3U0UZO6koRiR6yhgeF4EoXbkMbZNqJmep8+nv4Wiko
SVw3lreer268bpHOj9LudUwk0/b2IFz5MgUcSxQQy92eVKrbSqlcbNyP2kS3CTBb
GTHWdmA0v5dWKoOvdPzMyD+avxujah2AJsR7rg4dAsr4MiNlEQbtF+Z6AX/8L58C
ayFzw/NWyQM2X3AjeiDkE2m4KratDjmDTj4wp/LVqzyVQzKEaUbKfTkBAHK5j1pV
g7G142FqLup0SwBcAlka7Q66wDJQpzl2Ig96m7cN1VC//8vfBripfMliqPSseKxr
yx926ojyz5G0SUgBgCHz7DRbYWtMaWX1rDsh2f4ZRmUb/i3MuwPqEOt/lJyLtHDX
fr1R1zaZDkJmUZiPUqVQ0u2wksULlsaxrfhibDtQcLsH0y8OwSx4mK9CqEXlVFhq
/F53WQIDAQABo4IBazCCAWcwCQYDVR0TBAIwADAtBglghkgBhvhCAQ0EIBYeRWFz
eS1SU0EgR2VuZXJhdGVkIENlcnRpZmljYXRlMB0GA1UdDgQWBBRlZnynex+MpwUm
p04vCUUFyN2/JTCB6QYDVR0jBIHhMIHegBTvOI0UUFinW02cF3L837msp1GwEKGB
uqSBtzCBtDELMAkGA1UEBhMCVVMxCzAJBgNVBAgTAkNBMRUwEwYDVQQHEwxTYW5G
cmFuY2lzY28xFTATBgNVBAoTDFBpeGdsbywgSW5jLjEQMA4GA1UECxMHVlBOLUNJ
RTEaMBgGA1UEAxMRdHVubmVsLnBpeGdsby5jb20xHDAaBgNVBCkTE0JhbGEgQ2hh
bmRyYXNla2FyYW4xHjAcBgkqhkiG9w0BCQEWD2JhbGFAcGl4Z2xvLmNvbYIJAKbb
xoOA5qB5MBMGA1UdJQQMMAoGCCsGAQUFBwMCMAsGA1UdDwQEAwIHgDANBgkqhkiG
9w0BAQUFAAOCAgEAg8tcbqA2MGfGAjLVWhPEZkC0ZPXqdxDo19CrsY2jNk1bEwB3
7ccsuKN7OrLBNdQMEjHYO6ps3iDKA71twLr5HIuEbcxkLL72xSbvU/A0G6KuZaOw
KBP3Fg+UKxtYu9nyHWhIamwrREJqjBOIN6Xvs3s11uW8l8MgV2uxQcOwkTwX5KUP
myLif1DlW6uc1uIX90VH6+71e+Mhdmg42vMSiB1e5OPuqSuoCEHD+NbT2yYthRPj
5XATQ4y5mVxOfhhwiLc257qou08J1CbudOv4gtp3RDvZeJEbnPzDyW96rJGx4dS9
IUaAdW7y+VHdFeQbloAa+jCMwPcgIYYPYCb1e7KG4iRL6+yMOFkgpk50PZUiazbj
m5yHFdOBcOHR1/QdlhZI3vjBhMz04ag0BHp8vfvWrWC0Hqny/imSS1yiCIktlcSU
bsRJtoyNqmvYU0Rol1eJHnoJQ0ECUHZ8EVYr4Dx0hZt5fEPkWrEoANQYFktvoxVM
YT7yRyeBJpQ9Gs46QxCwHK9fM0sgR00BfnItHIR/ILy4tFPEK905uGSKI472ShAd
G80Jlx+/4PwWUR0H9miYU/AM16+way0S/J919o5tBNHX/oOsMNMBTHsQglnaCjMh
TOjuEwqkS3S2cXjL4bRjOTOH9moSbWYaLVMmmWMsSQ6a731Un7qlHnczLv8=
-----END CERTIFICATE-----
