Certificate:
    Data:
        Version: 3 (0x2)
        Serial Number: 201 (0xc9)
    Signature Algorithm: sha1WithRSAEncryption
        Issuer: C=US, ST=CA, L=SanFrancisco, O=Pixglo, Inc., OU=VPN-CIE, CN=tunnel.pixglo.com/name=Bala Chandrasekaran/emailAddress=bala@pixglo.com
        Validity
            Not Before: Feb 14 06:26:58 2018 GMT
            Not After : Feb 12 06:26:58 2028 GMT
        Subject: C=US, ST=CA, L=SanFrancisco, O=Pixglo, Inc., OU=VPN-CIE, CN=cie200/name=Bala Chandrasekaran/emailAddress=bala@pixglo.com
        Subject Public Key Info:
            Public Key Algorithm: rsaEncryption
                Public-Key: (4096 bit)
                Modulus:
                    00:a5:48:3d:11:ae:c3:0e:64:18:18:f6:b1:50:a5:
                    fd:62:e7:7e:ba:ce:06:1f:b1:72:b4:7f:2f:fe:42:
                    ef:e5:d7:b6:45:cb:c6:df:10:aa:45:7f:52:4d:5c:
                    46:e4:60:e4:25:90:10:81:a8:9f:62:56:c2:e7:36:
                    8b:90:7d:33:8d:09:cf:02:ef:53:39:7d:16:23:30:
                    6e:c9:6d:ca:8c:1c:a2:56:6c:49:03:3b:5a:0c:20:
                    43:b2:7a:6b:c2:6d:9a:8b:b5:4c:aa:d7:91:8c:e9:
                    2e:05:63:ca:f0:e2:dc:dd:4f:51:d3:24:0a:1d:90:
                    f6:e7:40:09:36:ab:ee:b1:c0:a0:1e:59:25:bb:0a:
                    a0:5d:a7:8d:78:3d:f7:c3:1f:1e:7d:24:12:e4:a9:
                    d0:a3:f9:23:a0:fc:00:3d:07:33:68:60:07:ff:d5:
                    f8:44:6b:88:3a:22:26:0f:0b:4f:0b:62:0b:72:3e:
                    51:f6:ac:a3:71:21:0f:30:4e:cf:f8:73:f3:ea:d7:
                    11:41:e6:2f:dd:02:db:5e:6d:72:02:30:0a:ab:a1:
                    e6:6e:2d:bd:68:ab:43:5b:16:a6:2a:7e:bf:8f:e1:
                    d0:f9:0e:56:a7:c3:d7:5c:98:d0:dd:44:c1:95:e2:
                    d7:18:b5:e3:e1:61:03:4d:69:b4:5e:85:e3:85:37:
                    4f:c2:d8:b8:e3:83:f7:ed:71:cf:94:f4:10:09:8a:
                    e0:65:e7:7d:5c:20:9b:8e:e7:d1:73:f2:41:21:09:
                    75:28:10:df:4f:8b:a6:aa:29:f5:0d:ff:48:15:01:
                    76:bb:18:8d:ca:47:c1:c8:6d:25:82:d5:c4:da:ad:
                    be:f1:ba:6a:75:db:7b:c4:33:b7:de:db:b6:8c:c5:
                    37:ec:50:fd:9d:a0:52:48:9c:a4:9d:95:a2:7b:9a:
                    e8:55:13:7a:aa:08:48:dd:20:a3:56:2d:9e:79:d9:
                    19:08:ce:43:0c:20:d0:89:ec:b6:79:70:6c:78:9e:
                    94:d5:c5:2e:01:e0:e5:75:c6:cc:fa:0e:9e:b5:51:
                    07:37:3c:ec:9e:1c:75:e6:65:3e:86:ab:dc:86:39:
                    db:62:8b:1f:e6:b5:2b:28:27:c9:2a:e6:86:c6:91:
                    73:dd:29:f4:64:80:46:3b:ff:e4:59:42:0b:4d:4f:
                    a3:c7:74:9f:8c:17:e4:2f:63:35:1b:ec:6d:c5:66:
                    12:88:12:ce:7f:53:4a:87:e9:02:71:c7:19:b4:10:
                    c5:31:a5:99:ff:89:06:cb:a9:67:04:07:90:39:61:
                    4a:24:1c:65:87:a1:65:db:41:fc:ec:72:1f:33:92:
                    cc:9b:c3:3e:e8:c7:ba:bc:89:51:94:20:b2:a3:6e:
                    7f:6b:b9
                Exponent: 65537 (0x10001)
        X509v3 extensions:
            X509v3 Basic Constraints: 
                CA:FALSE
            Netscape Comment: 
                Easy-RSA Generated Certificate
            X509v3 Subject Key Identifier: 
                F8:1C:AB:37:02:F1:D1:75:B6:09:A4:8E:54:39:71:E9:41:AA:D3:8D
            X509v3 Authority Key Identifier: 
                keyid:EF:38:8D:14:50:58:A7:5B:4D:9C:17:72:FC:DF:B9:AC:A7:51:B0:10
                DirName:/C=US/ST=CA/L=SanFrancisco/O=Pixglo, Inc./OU=VPN-CIE/CN=tunnel.pixglo.com/name=Bala Chandrasekaran/emailAddress=bala@pixglo.com
                serial:A6:DB:C6:83:80:E6:A0:79

            X509v3 Extended Key Usage: 
                TLS Web Client Authentication
            X509v3 Key Usage: 
                Digital Signature
    Signature Algorithm: sha1WithRSAEncryption
         53:67:9b:fc:16:78:fa:73:ab:10:db:30:2d:04:0a:89:fe:f2:
         45:8f:7c:f9:a4:59:e4:75:af:d5:f9:a0:c7:6b:1b:20:4b:0b:
         f2:02:56:8d:ba:59:e4:14:20:cf:e9:e2:19:2f:a8:3c:8e:a8:
         83:9d:c6:c6:c6:17:f3:85:c5:90:8c:fc:0c:be:65:04:a5:d7:
         ee:3e:66:ec:7e:36:91:15:ca:7c:91:f5:ec:6c:74:c9:96:60:
         54:e6:b0:76:c9:ec:dd:71:2e:c2:72:64:64:be:16:96:21:b6:
         9a:96:03:63:86:12:93:85:de:dd:09:ef:db:46:e1:d5:dd:aa:
         11:4c:e0:a3:8c:82:52:a5:2d:93:19:25:71:64:ae:e2:c1:c4:
         0e:7e:1f:cd:fd:88:a8:28:e1:c3:40:2d:0f:2c:66:c3:bf:44:
         ab:ad:fa:79:da:b8:ca:c5:ff:7d:ee:82:ee:b1:9e:35:4c:ed:
         d8:93:fa:c4:51:80:f4:9a:17:57:9f:65:2e:7b:08:8f:dc:61:
         ee:6f:2c:13:7c:a9:45:b7:e8:e2:66:29:4f:13:b7:15:c0:44:
         35:47:55:00:12:cc:e4:12:8b:83:84:66:f6:34:18:5a:13:24:
         c9:ca:b7:4c:d5:3b:9d:ce:08:ff:0e:53:43:96:23:39:f3:de:
         f0:b5:a6:e7:38:f7:cf:46:80:86:3c:b8:23:e2:24:d4:88:e5:
         fe:3f:d6:ae:e3:f9:7c:e7:d1:9c:06:48:2e:29:ed:56:14:e4:
         22:65:ac:f2:46:a5:c1:fa:86:79:8c:3a:22:4d:72:7e:a5:47:
         93:e2:67:bd:68:9c:d9:c2:22:c9:28:aa:63:29:21:86:52:e8:
         66:b0:38:12:6a:67:61:5b:d0:99:ab:da:5f:ca:d6:16:98:7c:
         b9:69:11:21:e5:bc:de:ad:2d:2f:be:f1:48:dd:c3:ba:41:84:
         96:f7:50:bb:d2:ed:cd:c9:5e:93:4e:fc:9f:96:cf:03:a7:ea:
         d7:b5:ab:37:84:ab:8c:6b:71:87:f9:a0:0f:4a:b8:26:18:fc:
         09:76:4d:d7:9e:07:79:2b:43:8c:b5:ee:e1:48:f8:04:9d:44:
         63:92:16:fa:81:8f:04:af:59:94:a5:d9:a8:26:8f:43:65:ab:
         ef:ce:d9:39:98:79:16:3e:e2:19:3a:f0:53:82:a0:f3:58:5c:
         97:04:34:fa:65:64:63:43:3c:b3:eb:4f:6b:c7:5b:fd:1e:26:
         f6:be:50:47:2b:ee:08:9b:1d:c3:7b:f8:44:58:92:d0:29:be:
         92:4f:1d:3d:52:95:fe:ef:63:82:3c:fd:a0:8c:b6:54:25:d0:
         e3:3e:f3:9e:98:e0:65:43
-----BEGIN CERTIFICATE-----
MIIHSDCCBTCgAwIBAgICAMkwDQYJKoZIhvcNAQEFBQAwgbQxCzAJBgNVBAYTAlVT
MQswCQYDVQQIEwJDQTEVMBMGA1UEBxMMU2FuRnJhbmNpc2NvMRUwEwYDVQQKEwxQ
aXhnbG8sIEluYy4xEDAOBgNVBAsTB1ZQTi1DSUUxGjAYBgNVBAMTEXR1bm5lbC5w
aXhnbG8uY29tMRwwGgYDVQQpExNCYWxhIENoYW5kcmFzZWthcmFuMR4wHAYJKoZI
hvcNAQkBFg9iYWxhQHBpeGdsby5jb20wHhcNMTgwMjE0MDYyNjU4WhcNMjgwMjEy
MDYyNjU4WjCBqTELMAkGA1UEBhMCVVMxCzAJBgNVBAgTAkNBMRUwEwYDVQQHEwxT
YW5GcmFuY2lzY28xFTATBgNVBAoTDFBpeGdsbywgSW5jLjEQMA4GA1UECxMHVlBO
LUNJRTEPMA0GA1UEAxMGY2llMjAwMRwwGgYDVQQpExNCYWxhIENoYW5kcmFzZWth
cmFuMR4wHAYJKoZIhvcNAQkBFg9iYWxhQHBpeGdsby5jb20wggIiMA0GCSqGSIb3
DQEBAQUAA4ICDwAwggIKAoICAQClSD0RrsMOZBgY9rFQpf1i5366zgYfsXK0fy/+
Qu/l17ZFy8bfEKpFf1JNXEbkYOQlkBCBqJ9iVsLnNouQfTONCc8C71M5fRYjMG7J
bcqMHKJWbEkDO1oMIEOyemvCbZqLtUyq15GM6S4FY8rw4tzdT1HTJAodkPbnQAk2
q+6xwKAeWSW7CqBdp414PffDHx59JBLkqdCj+SOg/AA9BzNoYAf/1fhEa4g6IiYP
C08LYgtyPlH2rKNxIQ8wTs/4c/Pq1xFB5i/dAttebXICMAqroeZuLb1oq0NbFqYq
fr+P4dD5Dlanw9dcmNDdRMGV4tcYtePhYQNNabReheOFN0/C2Ljjg/ftcc+U9BAJ
iuBl531cIJuO59Fz8kEhCXUoEN9Pi6aqKfUN/0gVAXa7GI3KR8HIbSWC1cTarb7x
ump123vEM7fe27aMxTfsUP2doFJInKSdlaJ7muhVE3qqCEjdIKNWLZ552RkIzkMM
INCJ7LZ5cGx4npTVxS4B4OV1xsz6Dp61UQc3POyeHHXmZT6Gq9yGOdtiix/mtSso
J8kq5obGkXPdKfRkgEY7/+RZQgtNT6PHdJ+MF+QvYzUb7G3FZhKIEs5/U0qH6QJx
xxm0EMUxpZn/iQbLqWcEB5A5YUokHGWHoWXbQfzsch8zksybwz7ox7q8iVGUILKj
bn9ruQIDAQABo4IBazCCAWcwCQYDVR0TBAIwADAtBglghkgBhvhCAQ0EIBYeRWFz
eS1SU0EgR2VuZXJhdGVkIENlcnRpZmljYXRlMB0GA1UdDgQWBBT4HKs3AvHRdbYJ
pI5UOXHpQarTjTCB6QYDVR0jBIHhMIHegBTvOI0UUFinW02cF3L837msp1GwEKGB
uqSBtzCBtDELMAkGA1UEBhMCVVMxCzAJBgNVBAgTAkNBMRUwEwYDVQQHEwxTYW5G
cmFuY2lzY28xFTATBgNVBAoTDFBpeGdsbywgSW5jLjEQMA4GA1UECxMHVlBOLUNJ
RTEaMBgGA1UEAxMRdHVubmVsLnBpeGdsby5jb20xHDAaBgNVBCkTE0JhbGEgQ2hh
bmRyYXNla2FyYW4xHjAcBgkqhkiG9w0BCQEWD2JhbGFAcGl4Z2xvLmNvbYIJAKbb
xoOA5qB5MBMGA1UdJQQMMAoGCCsGAQUFBwMCMAsGA1UdDwQEAwIHgDANBgkqhkiG
9w0BAQUFAAOCAgEAU2eb/BZ4+nOrENswLQQKif7yRY98+aRZ5HWv1fmgx2sbIEsL
8gJWjbpZ5BQgz+niGS+oPI6og53GxsYX84XFkIz8DL5lBKXX7j5m7H42kRXKfJH1
7Gx0yZZgVOawdsns3XEuwnJkZL4WliG2mpYDY4YSk4Xe3Qnv20bh1d2qEUzgo4yC
UqUtkxklcWSu4sHEDn4fzf2IqCjhw0AtDyxmw79Eq636edq4ysX/fe6C7rGeNUzt
2JP6xFGA9JoXV59lLnsIj9xh7m8sE3ypRbfo4mYpTxO3FcBENUdVABLM5BKLg4Rm
9jQYWhMkycq3TNU7nc4I/w5TQ5YjOfPe8LWm5zj3z0aAhjy4I+Ik1Ijl/j/WruP5
fOfRnAZILintVhTkImWs8kalwfqGeYw6Ik1yfqVHk+JnvWic2cIiySiqYykhhlLo
ZrA4EmpnYVvQmavaX8rWFph8uWkRIeW83q0tL77xSN3DukGElvdQu9Ltzclek078
n5bPA6fq17WrN4SrjGtxh/mgD0q4Jhj8CXZN154HeStDjLXu4Uj4BJ1EY5IW+oGP
BK9ZlKXZqCaPQ2Wr787ZOZh5Fj7iGTrwU4Kg81hclwQ0+mVkY0M8s+tPa8db/R4m
9r5QRyvuCJsdw3v4RFiS0Cm+kk8dPVKV/u9jgjz9oIy2VCXQ4z7znpjgZUM=
-----END CERTIFICATE-----
