Certificate:
    Data:
        Version: 3 (0x2)
        Serial Number: 202 (0xca)
    Signature Algorithm: sha1WithRSAEncryption
        Issuer: C=US, ST=CA, L=SanFrancisco, O=Pixglo, Inc., OU=VPN-CIE, CN=tunnel.pixglo.com/name=Bala Chandrasekaran/emailAddress=bala@pixglo.com
        Validity
            Not Before: Feb 14 06:26:58 2018 GMT
            Not After : Feb 12 06:26:58 2028 GMT
        Subject: C=US, ST=CA, L=SanFrancisco, O=Pixglo, Inc., OU=VPN-CIE, CN=cie201/name=Bala Chandrasekaran/emailAddress=bala@pixglo.com
        Subject Public Key Info:
            Public Key Algorithm: rsaEncryption
                Public-Key: (4096 bit)
                Modulus:
                    00:b6:a4:94:91:00:3c:d0:d8:6a:e7:09:61:00:d0:
                    05:99:2f:6b:10:30:e2:94:7a:95:dd:4d:43:fe:ac:
                    6d:dc:8c:ee:be:b8:b6:5f:45:13:a9:6e:d6:58:fc:
                    c8:e1:0a:80:bd:58:53:2f:42:fe:9d:2a:d6:1b:f0:
                    d3:a8:cd:d9:4a:8e:95:8f:a1:88:8e:3e:32:3e:ae:
                    11:81:41:7a:a8:25:90:ea:4f:ff:d2:9f:92:ec:9c:
                    5f:7c:10:db:15:fc:ea:5f:a8:8c:b7:6d:85:25:4d:
                    0e:86:4b:f5:77:e0:b4:4d:8f:a9:c7:2c:9f:18:16:
                    7a:13:46:6e:b6:61:c1:15:3e:ad:8e:73:5e:af:8a:
                    39:c1:15:b9:29:d7:22:b1:57:73:cb:01:f7:f5:2f:
                    79:31:7e:f4:61:19:ce:e0:08:97:3b:19:84:55:04:
                    5a:d6:e3:6f:66:ff:bc:75:f9:32:e9:b4:12:05:11:
                    a9:73:71:fb:e8:ec:99:99:21:e4:21:cc:4e:c4:a5:
                    57:ad:e6:35:1d:cf:75:37:64:74:ae:3a:b0:2c:33:
                    c6:5b:4d:06:e3:f8:f2:28:92:40:2e:21:18:08:cc:
                    91:50:7c:71:1d:61:95:a3:5c:f1:4b:8e:f4:85:5b:
                    d2:c7:cd:87:f7:e6:80:d7:71:b0:84:eb:a6:6d:98:
                    70:3e:20:da:90:7d:95:ec:ce:d9:53:93:94:70:76:
                    3a:68:c3:b3:82:96:5b:10:71:6a:18:91:9a:11:68:
                    4d:29:a3:0b:17:a2:f8:0b:8f:35:d7:11:a7:c3:08:
                    62:6b:5a:88:f3:e1:95:cd:42:c2:bc:46:c4:5f:1b:
                    f9:95:4e:6b:5d:3c:2a:08:5e:a3:fc:0c:1b:6e:90:
                    03:aa:43:92:95:aa:db:23:10:86:a5:db:56:a5:1f:
                    f1:2d:d0:73:62:a4:a6:93:58:6e:bc:ea:df:bd:f1:
                    20:34:fc:93:e0:63:08:f0:75:e5:7a:d6:73:fb:e3:
                    54:f7:fc:99:5a:89:7a:71:9f:c4:0f:b9:cc:58:d6:
                    ec:7d:3a:86:04:1c:5b:1b:c6:31:41:7f:41:8f:34:
                    e7:45:01:60:61:2d:99:62:5e:90:be:5b:2d:41:a2:
                    00:4e:4d:c4:78:02:7d:03:a5:3a:6f:7e:bd:ac:78:
                    5f:7f:97:69:97:93:5d:1d:23:ca:1b:1d:84:a1:50:
                    23:4c:75:29:81:e6:21:4d:12:0c:47:13:98:0b:f9:
                    1c:bd:72:74:c8:04:5d:46:72:da:61:f6:02:76:39:
                    a4:cd:aa:7b:9a:aa:f1:3e:88:fd:ad:ae:ea:be:43:
                    d7:57:3a:de:72:21:18:2f:71:ae:f5:5b:e4:cb:5c:
                    dc:0c:01
                Exponent: 65537 (0x10001)
        X509v3 extensions:
            X509v3 Basic Constraints: 
                CA:FALSE
            Netscape Comment: 
                Easy-RSA Generated Certificate
            X509v3 Subject Key Identifier: 
                78:98:25:53:C9:39:EB:AE:37:C8:53:7D:CB:5E:91:5E:F2:72:81:24
            X509v3 Authority Key Identifier: 
                keyid:EF:38:8D:14:50:58:A7:5B:4D:9C:17:72:FC:DF:B9:AC:A7:51:B0:10
                DirName:/C=US/ST=CA/L=SanFrancisco/O=Pixglo, Inc./OU=VPN-CIE/CN=tunnel.pixglo.com/name=Bala Chandrasekaran/emailAddress=bala@pixglo.com
                serial:A6:DB:C6:83:80:E6:A0:79

            X509v3 Extended Key Usage: 
                TLS Web Client Authentication
            X509v3 Key Usage: 
                Digital Signature
    Signature Algorithm: sha1WithRSAEncryption
         9a:99:c0:84:a5:d9:62:0f:5d:53:66:43:25:6d:87:4f:14:44:
         2b:3f:a7:39:2c:2c:19:7a:09:36:10:59:35:9c:00:8f:e2:06:
         2d:bc:57:64:e9:8e:5f:74:8c:4b:07:15:a9:ba:5e:6b:da:33:
         17:95:cd:d0:fc:b3:f6:1f:fc:e8:77:f1:b2:a9:55:39:75:41:
         fc:ee:37:6f:9d:05:4f:f2:9f:2e:84:ed:12:7a:48:c3:d4:d4:
         3e:7f:6f:e2:4f:0f:52:b5:cc:e6:56:b3:20:9f:de:bc:54:f0:
         3f:7f:b6:ed:41:88:d0:cc:c9:78:23:8c:95:65:b7:8c:40:7d:
         4e:ae:66:ce:7c:f3:a0:d8:a3:88:f5:a1:2d:88:fa:9a:ba:85:
         ad:a1:38:72:ae:ec:49:e1:d4:56:f5:63:31:51:36:be:69:c4:
         37:74:32:30:f7:ca:60:dc:08:1d:32:e9:72:19:85:b0:fe:99:
         e2:62:91:41:a0:3e:65:0a:65:d7:19:01:0c:87:70:f0:98:fd:
         fd:a8:51:ad:22:34:bc:39:bf:f2:b1:3b:8d:81:88:4d:d8:de:
         79:34:c4:f6:61:e5:8b:4d:a2:bb:56:9a:71:18:96:dd:89:71:
         88:19:18:5f:35:ea:e5:68:7d:a1:82:9a:ed:13:cc:65:10:1d:
         63:ae:00:cd:aa:5b:5f:5d:b1:9a:5f:76:b8:0d:c8:45:31:57:
         51:87:83:1d:df:db:89:1c:97:2e:79:f0:60:6b:51:69:a1:bf:
         2c:75:38:d4:43:5f:3a:53:d5:f6:17:ae:49:ea:ef:7b:8a:47:
         87:09:de:c8:eb:7f:5a:a8:11:a5:d3:55:dc:37:59:9f:f5:8f:
         af:ab:91:9f:5f:18:dc:1e:fa:e4:f4:76:5e:93:73:fc:29:8c:
         c0:e4:ab:5e:ad:62:d0:26:78:ea:79:22:d8:7c:6d:9c:a0:03:
         c9:16:22:8e:c7:e4:96:83:46:f7:49:98:ec:16:82:86:d3:ce:
         80:34:5e:df:2f:e6:0d:56:88:79:fa:2b:f9:99:bb:61:e2:84:
         e2:04:53:d0:57:16:32:b4:de:78:b6:04:fd:f3:c7:ce:86:d7:
         d9:e0:dd:61:2e:13:a8:f3:9e:ed:11:b7:81:82:16:b8:81:78:
         a0:e8:14:7f:05:7f:43:36:f2:12:4d:fe:25:a4:84:89:0c:49:
         c6:20:bb:44:be:df:fc:06:29:e0:a5:4e:7e:d0:49:0b:88:61:
         b8:c6:2b:d2:6a:29:c1:ef:12:f3:30:50:3a:de:1a:9a:36:dc:
         24:46:17:57:56:c0:ab:85:f0:64:b3:5d:a6:0a:44:f4:78:93:
         35:44:e5:70:31:39:6e:c7
-----BEGIN CERTIFICATE-----
MIIHSDCCBTCgAwIBAgICAMowDQYJKoZIhvcNAQEFBQAwgbQxCzAJBgNVBAYTAlVT
MQswCQYDVQQIEwJDQTEVMBMGA1UEBxMMU2FuRnJhbmNpc2NvMRUwEwYDVQQKEwxQ
aXhnbG8sIEluYy4xEDAOBgNVBAsTB1ZQTi1DSUUxGjAYBgNVBAMTEXR1bm5lbC5w
aXhnbG8uY29tMRwwGgYDVQQpExNCYWxhIENoYW5kcmFzZWthcmFuMR4wHAYJKoZI
hvcNAQkBFg9iYWxhQHBpeGdsby5jb20wHhcNMTgwMjE0MDYyNjU4WhcNMjgwMjEy
MDYyNjU4WjCBqTELMAkGA1UEBhMCVVMxCzAJBgNVBAgTAkNBMRUwEwYDVQQHEwxT
YW5GcmFuY2lzY28xFTATBgNVBAoTDFBpeGdsbywgSW5jLjEQMA4GA1UECxMHVlBO
LUNJRTEPMA0GA1UEAxMGY2llMjAxMRwwGgYDVQQpExNCYWxhIENoYW5kcmFzZWth
cmFuMR4wHAYJKoZIhvcNAQkBFg9iYWxhQHBpeGdsby5jb20wggIiMA0GCSqGSIb3
DQEBAQUAA4ICDwAwggIKAoICAQC2pJSRADzQ2GrnCWEA0AWZL2sQMOKUepXdTUP+
rG3cjO6+uLZfRROpbtZY/MjhCoC9WFMvQv6dKtYb8NOozdlKjpWPoYiOPjI+rhGB
QXqoJZDqT//Sn5LsnF98ENsV/OpfqIy3bYUlTQ6GS/V34LRNj6nHLJ8YFnoTRm62
YcEVPq2Oc16vijnBFbkp1yKxV3PLAff1L3kxfvRhGc7gCJc7GYRVBFrW429m/7x1
+TLptBIFEalzcfvo7JmZIeQhzE7EpVet5jUdz3U3ZHSuOrAsM8ZbTQbj+PIokkAu
IRgIzJFQfHEdYZWjXPFLjvSFW9LHzYf35oDXcbCE66ZtmHA+INqQfZXsztlTk5Rw
djpow7OCllsQcWoYkZoRaE0powsXovgLjzXXEafDCGJrWojz4ZXNQsK8RsRfG/mV
TmtdPCoIXqP8DBtukAOqQ5KVqtsjEIal21alH/Et0HNipKaTWG686t+98SA0/JPg
YwjwdeV61nP741T3/JlaiXpxn8QPucxY1ux9OoYEHFsbxjFBf0GPNOdFAWBhLZli
XpC+Wy1BogBOTcR4An0DpTpvfr2seF9/l2mXk10dI8obHYShUCNMdSmB5iFNEgxH
E5gL+Ry9cnTIBF1Gctph9gJ2OaTNqnuaqvE+iP2truq+Q9dXOt5yIRgvca71W+TL
XNwMAQIDAQABo4IBazCCAWcwCQYDVR0TBAIwADAtBglghkgBhvhCAQ0EIBYeRWFz
eS1SU0EgR2VuZXJhdGVkIENlcnRpZmljYXRlMB0GA1UdDgQWBBR4mCVTyTnrrjfI
U33LXpFe8nKBJDCB6QYDVR0jBIHhMIHegBTvOI0UUFinW02cF3L837msp1GwEKGB
uqSBtzCBtDELMAkGA1UEBhMCVVMxCzAJBgNVBAgTAkNBMRUwEwYDVQQHEwxTYW5G
cmFuY2lzY28xFTATBgNVBAoTDFBpeGdsbywgSW5jLjEQMA4GA1UECxMHVlBOLUNJ
RTEaMBgGA1UEAxMRdHVubmVsLnBpeGdsby5jb20xHDAaBgNVBCkTE0JhbGEgQ2hh
bmRyYXNla2FyYW4xHjAcBgkqhkiG9w0BCQEWD2JhbGFAcGl4Z2xvLmNvbYIJAKbb
xoOA5qB5MBMGA1UdJQQMMAoGCCsGAQUFBwMCMAsGA1UdDwQEAwIHgDANBgkqhkiG
9w0BAQUFAAOCAgEAmpnAhKXZYg9dU2ZDJW2HTxREKz+nOSwsGXoJNhBZNZwAj+IG
LbxXZOmOX3SMSwcVqbpea9ozF5XN0Pyz9h/86HfxsqlVOXVB/O43b50FT/KfLoTt
EnpIw9TUPn9v4k8PUrXM5lazIJ/evFTwP3+27UGI0MzJeCOMlWW3jEB9Tq5mznzz
oNijiPWhLYj6mrqFraE4cq7sSeHUVvVjMVE2vmnEN3QyMPfKYNwIHTLpchmFsP6Z
4mKRQaA+ZQpl1xkBDIdw8Jj9/ahRrSI0vDm/8rE7jYGITdjeeTTE9mHli02iu1aa
cRiW3YlxiBkYXzXq5Wh9oYKa7RPMZRAdY64AzapbX12xml92uA3IRTFXUYeDHd/b
iRyXLnnwYGtRaaG/LHU41ENfOlPV9heuServe4pHhwneyOt/WqgRpdNV3DdZn/WP
r6uRn18Y3B765PR2XpNz/CmMwOSrXq1i0CZ46nki2HxtnKADyRYijsfkloNG90mY
7BaChtPOgDRe3y/mDVaIefor+Zm7YeKE4gRT0FcWMrTeeLYE/fPHzobX2eDdYS4T
qPOe7RG3gYIWuIF4oOgUfwV/QzbyEk3+JaSEiQxJxiC7RL7f/AYp4KVOftBJC4hh
uMYr0mopwe8S8zBQOt4amjbcJEYXV1bAq4XwZLNdpgpE9HiTNUTlcDE5bsc=
-----END CERTIFICATE-----
