Certificate:
    Data:
        Version: 3 (0x2)
        Serial Number: 206 (0xce)
    Signature Algorithm: sha1WithRSAEncryption
        Issuer: C=US, ST=CA, L=SanFrancisco, O=Pixglo, Inc., OU=VPN-CIE, CN=tunnel.pixglo.com/name=Bala Chandrasekaran/emailAddress=bala@pixglo.com
        Validity
            Not Before: Feb 14 06:27:02 2018 GMT
            Not After : Feb 12 06:27:02 2028 GMT
        Subject: C=US, ST=CA, L=SanFrancisco, O=Pixglo, Inc., OU=VPN-CIE, CN=cie205/name=Bala Chandrasekaran/emailAddress=bala@pixglo.com
        Subject Public Key Info:
            Public Key Algorithm: rsaEncryption
                Public-Key: (4096 bit)
                Modulus:
                    00:d0:0d:7c:8b:59:b4:41:59:51:34:f2:5e:a2:01:
                    41:41:cc:49:da:7c:e1:9b:bc:54:40:d0:f0:e9:18:
                    38:9c:4b:e3:29:9f:2e:eb:4c:a0:6a:d3:f6:9c:44:
                    41:a5:87:41:45:45:65:ee:28:a5:ef:2d:e4:66:5d:
                    33:56:8e:6f:a7:d1:f2:52:5b:54:7b:1b:8e:75:04:
                    bd:63:50:13:5e:3c:57:85:99:70:5e:3f:fd:43:e0:
                    de:01:78:8a:e3:7d:19:35:e0:83:97:9f:51:36:1e:
                    eb:8e:3a:69:9c:fd:ae:5e:91:1f:e7:0c:20:20:6a:
                    3e:a1:9a:70:99:15:35:75:89:f3:79:c8:9c:da:e4:
                    52:78:99:0f:83:dd:8a:2f:7d:5e:1b:44:c6:5b:40:
                    01:c2:b0:88:26:e9:9d:b2:b9:74:49:39:67:9f:dd:
                    ee:38:15:81:15:eb:57:a9:8b:6c:77:45:5c:3e:2b:
                    ab:bc:90:18:85:67:64:3b:19:dc:85:0a:f3:c7:07:
                    32:2b:e4:a4:91:90:23:41:bc:bc:89:ae:9e:cb:c5:
                    45:bc:8a:4b:c1:9c:78:5c:16:7d:09:f1:1a:41:05:
                    a8:4e:ad:c6:ed:31:b3:3a:ce:76:d4:a7:58:44:8b:
                    01:4e:6c:85:5a:24:08:17:3b:82:c1:12:e1:1f:4f:
                    0b:09:99:12:e8:80:44:1b:f6:6d:93:8d:d6:4b:cc:
                    6d:d3:3c:46:96:25:20:c2:53:cd:46:49:a5:28:1b:
                    51:66:84:77:5d:ae:21:61:ae:5c:e8:0a:cf:4d:52:
                    9e:03:22:12:0b:e6:c2:6d:98:70:14:b0:e9:89:2a:
                    d9:6c:2d:1c:64:04:0c:cb:c1:5e:5b:47:7c:6a:37:
                    2b:66:8e:89:8e:7d:4e:d0:6b:3a:6e:9e:31:bf:73:
                    cb:07:6c:83:03:23:d2:01:c3:7e:cc:0f:12:ab:c6:
                    a9:a7:89:5f:aa:2c:df:83:34:b2:47:fa:ae:7f:3b:
                    84:fc:5c:5d:dc:d7:00:31:c7:84:fa:5c:15:18:49:
                    7a:15:f9:68:61:06:b8:00:7c:5f:4a:33:3d:ee:ef:
                    cb:0a:3a:a6:7e:72:b1:2b:3d:cd:9d:76:24:f3:c7:
                    f2:62:0a:e3:af:25:ea:ae:7b:f0:20:df:4d:b9:3e:
                    ee:3d:df:a8:c8:29:f9:bd:96:c4:95:fe:85:64:5c:
                    2d:ba:db:f5:73:49:f6:4e:c7:ee:37:a3:88:7f:ff:
                    4a:ce:2a:dd:ea:ca:00:4f:5b:99:52:89:ae:46:21:
                    4d:78:71:e2:ea:de:1a:0a:a5:cb:9f:12:6a:37:66:
                    a4:51:48:75:9f:ca:a1:4a:a2:68:f0:de:8f:59:e1:
                    75:aa:01
                Exponent: 65537 (0x10001)
        X509v3 extensions:
            X509v3 Basic Constraints: 
                CA:FALSE
            Netscape Comment: 
                Easy-RSA Generated Certificate
            X509v3 Subject Key Identifier: 
                60:B8:3D:03:6E:C4:50:CC:BB:A6:FC:91:8B:F9:FE:2A:C8:C1:A7:1F
            X509v3 Authority Key Identifier: 
                keyid:EF:38:8D:14:50:58:A7:5B:4D:9C:17:72:FC:DF:B9:AC:A7:51:B0:10
                DirName:/C=US/ST=CA/L=SanFrancisco/O=Pixglo, Inc./OU=VPN-CIE/CN=tunnel.pixglo.com/name=Bala Chandrasekaran/emailAddress=bala@pixglo.com
                serial:A6:DB:C6:83:80:E6:A0:79

            X509v3 Extended Key Usage: 
                TLS Web Client Authentication
            X509v3 Key Usage: 
                Digital Signature
    Signature Algorithm: sha1WithRSAEncryption
         57:da:9d:93:d2:d6:0b:b1:29:7a:d6:f1:00:b2:9c:d2:83:f3:
         79:06:4f:8e:de:ae:55:ec:da:43:b6:c4:6a:56:05:f4:80:20:
         99:0d:d4:18:db:01:8a:ba:ce:74:d2:fe:30:67:55:a9:a0:6e:
         27:d2:54:fc:25:15:ed:ff:e3:fc:72:25:2a:88:6e:af:ec:93:
         cb:20:23:d9:b6:95:0a:d3:20:05:e3:e6:b0:0c:67:14:3a:19:
         c1:fd:48:2f:2f:31:06:09:bc:89:07:e8:75:67:d4:06:c7:e9:
         5f:f6:7b:ae:88:92:3f:ba:73:5b:b1:f4:04:73:60:6b:3c:ce:
         06:09:d3:33:f9:67:7b:7e:0c:71:1e:39:fb:c1:83:f7:a8:f7:
         58:32:8f:ca:ba:34:7a:63:13:d2:9b:26:93:8a:7c:f0:7d:ac:
         97:97:d4:2a:2d:73:1f:72:82:59:a6:41:3e:70:51:52:31:3f:
         bb:52:97:56:b5:53:22:3e:a0:27:63:ef:73:2e:f1:c8:0f:47:
         7f:a6:b4:54:b6:9f:9d:34:b1:5a:cf:84:46:d7:7d:77:7c:a5:
         de:ff:3b:4d:8b:8e:1e:eb:24:8d:33:41:f3:53:7d:8d:ed:1e:
         dc:69:79:4b:83:72:a4:a9:73:11:a4:dc:ee:c4:3c:41:a1:d5:
         e3:7d:c2:d8:fa:eb:ec:d1:73:12:60:df:5f:7b:94:d1:a7:88:
         89:df:5c:d7:10:1c:10:df:57:31:d9:92:71:1a:4b:b0:e9:7e:
         98:6a:71:12:cc:63:4d:af:1b:ec:ef:d2:4e:20:dd:0c:b6:99:
         32:36:1c:a3:2d:ca:e8:41:4f:09:5b:1c:5b:99:33:b8:0d:57:
         f6:d1:76:9f:67:1e:b9:cf:83:f3:7b:53:b0:cb:69:bc:f3:38:
         69:be:7e:d2:17:c8:aa:02:8a:53:92:53:80:a1:11:99:76:6b:
         4a:c7:a5:7d:0a:7f:97:94:98:c7:8d:f9:51:7d:92:36:a7:ca:
         16:37:18:70:d1:49:b2:7c:a0:ec:69:bc:27:c9:f4:2e:51:fb:
         e3:d3:23:de:70:3f:14:13:45:af:fe:b7:c1:fb:48:6c:a7:84:
         6e:89:a8:d3:73:69:a6:98:11:f9:2e:d8:04:f2:b4:78:b6:70:
         7f:f5:a2:50:75:e9:cf:76:ab:c3:f6:65:00:d4:bb:d8:f5:10:
         c3:55:3c:3f:d8:e7:f7:7c:82:da:8b:3a:f7:17:1b:15:94:69:
         bd:e1:62:16:03:d4:57:d5:4e:17:e8:65:51:0f:5d:2f:86:01:
         6a:fb:be:63:89:8b:e7:bc:20:8f:0e:4d:58:43:2c:af:af:a0:
         38:df:c3:26:ed:25:06:c4
-----BEGIN CERTIFICATE-----
MIIHSDCCBTCgAwIBAgICAM4wDQYJKoZIhvcNAQEFBQAwgbQxCzAJBgNVBAYTAlVT
MQswCQYDVQQIEwJDQTEVMBMGA1UEBxMMU2FuRnJhbmNpc2NvMRUwEwYDVQQKEwxQ
aXhnbG8sIEluYy4xEDAOBgNVBAsTB1ZQTi1DSUUxGjAYBgNVBAMTEXR1bm5lbC5w
aXhnbG8uY29tMRwwGgYDVQQpExNCYWxhIENoYW5kcmFzZWthcmFuMR4wHAYJKoZI
hvcNAQkBFg9iYWxhQHBpeGdsby5jb20wHhcNMTgwMjE0MDYyNzAyWhcNMjgwMjEy
MDYyNzAyWjCBqTELMAkGA1UEBhMCVVMxCzAJBgNVBAgTAkNBMRUwEwYDVQQHEwxT
YW5GcmFuY2lzY28xFTATBgNVBAoTDFBpeGdsbywgSW5jLjEQMA4GA1UECxMHVlBO
LUNJRTEPMA0GA1UEAxMGY2llMjA1MRwwGgYDVQQpExNCYWxhIENoYW5kcmFzZWth
cmFuMR4wHAYJKoZIhvcNAQkBFg9iYWxhQHBpeGdsby5jb20wggIiMA0GCSqGSIb3
DQEBAQUAA4ICDwAwggIKAoICAQDQDXyLWbRBWVE08l6iAUFBzEnafOGbvFRA0PDp
GDicS+Mpny7rTKBq0/acREGlh0FFRWXuKKXvLeRmXTNWjm+n0fJSW1R7G451BL1j
UBNePFeFmXBeP/1D4N4BeIrjfRk14IOXn1E2HuuOOmmc/a5ekR/nDCAgaj6hmnCZ
FTV1ifN5yJza5FJ4mQ+D3YovfV4bRMZbQAHCsIgm6Z2yuXRJOWef3e44FYEV61ep
i2x3RVw+K6u8kBiFZ2Q7GdyFCvPHBzIr5KSRkCNBvLyJrp7LxUW8ikvBnHhcFn0J
8RpBBahOrcbtMbM6znbUp1hEiwFObIVaJAgXO4LBEuEfTwsJmRLogEQb9m2TjdZL
zG3TPEaWJSDCU81GSaUoG1FmhHddriFhrlzoCs9NUp4DIhIL5sJtmHAUsOmJKtls
LRxkBAzLwV5bR3xqNytmjomOfU7QazpunjG/c8sHbIMDI9IBw37MDxKrxqmniV+q
LN+DNLJH+q5/O4T8XF3c1wAxx4T6XBUYSXoV+WhhBrgAfF9KMz3u78sKOqZ+crEr
Pc2ddiTzx/JiCuOvJeque/Ag3025Pu4936jIKfm9lsSV/oVkXC262/VzSfZOx+43
o4h//0rOKt3qygBPW5lSia5GIU14ceLq3hoKpcufEmo3ZqRRSHWfyqFKomjw3o9Z
4XWqAQIDAQABo4IBazCCAWcwCQYDVR0TBAIwADAtBglghkgBhvhCAQ0EIBYeRWFz
eS1SU0EgR2VuZXJhdGVkIENlcnRpZmljYXRlMB0GA1UdDgQWBBRguD0DbsRQzLum
/JGL+f4qyMGnHzCB6QYDVR0jBIHhMIHegBTvOI0UUFinW02cF3L837msp1GwEKGB
uqSBtzCBtDELMAkGA1UEBhMCVVMxCzAJBgNVBAgTAkNBMRUwEwYDVQQHEwxTYW5G
cmFuY2lzY28xFTATBgNVBAoTDFBpeGdsbywgSW5jLjEQMA4GA1UECxMHVlBOLUNJ
RTEaMBgGA1UEAxMRdHVubmVsLnBpeGdsby5jb20xHDAaBgNVBCkTE0JhbGEgQ2hh
bmRyYXNla2FyYW4xHjAcBgkqhkiG9w0BCQEWD2JhbGFAcGl4Z2xvLmNvbYIJAKbb
xoOA5qB5MBMGA1UdJQQMMAoGCCsGAQUFBwMCMAsGA1UdDwQEAwIHgDANBgkqhkiG
9w0BAQUFAAOCAgEAV9qdk9LWC7EpetbxALKc0oPzeQZPjt6uVezaQ7bEalYF9IAg
mQ3UGNsBirrOdNL+MGdVqaBuJ9JU/CUV7f/j/HIlKohur+yTyyAj2baVCtMgBePm
sAxnFDoZwf1ILy8xBgm8iQfodWfUBsfpX/Z7roiSP7pzW7H0BHNgazzOBgnTM/ln
e34McR45+8GD96j3WDKPyro0emMT0psmk4p88H2sl5fUKi1zH3KCWaZBPnBRUjE/
u1KXVrVTIj6gJ2Pvcy7xyA9Hf6a0VLafnTSxWs+ERtd9d3yl3v87TYuOHuskjTNB
81N9je0e3Gl5S4NypKlzEaTc7sQ8QaHV433C2Prr7NFzEmDfX3uU0aeIid9c1xAc
EN9XMdmScRpLsOl+mGpxEsxjTa8b7O/STiDdDLaZMjYcoy3K6EFPCVscW5kzuA1X
9tF2n2ceuc+D83tTsMtpvPM4ab5+0hfIqgKKU5JTgKERmXZrSselfQp/l5SYx435
UX2SNqfKFjcYcNFJsnyg7Gm8J8n0LlH749Mj3nA/FBNFr/63wftIbKeEbomo03Np
ppgR+S7YBPK0eLZwf/WiUHXpz3arw/ZlANS72PUQw1U8P9jn93yC2os69xcbFZRp
veFiFgPUV9VOF+hlUQ9dL4YBavu+Y4mL57wgjw5NWEMsr6+gON/DJu0lBsQ=
-----END CERTIFICATE-----
