Certificate:
    Data:
        Version: 3 (0x2)
        Serial Number: 207 (0xcf)
    Signature Algorithm: sha1WithRSAEncryption
        Issuer: C=US, ST=CA, L=SanFrancisco, O=Pixglo, Inc., OU=VPN-CIE, CN=tunnel.pixglo.com/name=Bala Chandrasekaran/emailAddress=bala@pixglo.com
        Validity
            Not Before: Feb 14 06:27:02 2018 GMT
            Not After : Feb 12 06:27:02 2028 GMT
        Subject: C=US, ST=CA, L=SanFrancisco, O=Pixglo, Inc., OU=VPN-CIE, CN=cie206/name=Bala Chandrasekaran/emailAddress=bala@pixglo.com
        Subject Public Key Info:
            Public Key Algorithm: rsaEncryption
                Public-Key: (4096 bit)
                Modulus:
                    00:b8:f6:b0:4c:7d:03:36:b5:1f:cf:98:47:0d:af:
                    5c:ae:ed:94:0b:b9:2e:5c:99:5d:54:bb:36:ff:44:
                    4f:60:8c:c4:c2:eb:f7:df:12:56:fd:8e:65:3e:6f:
                    57:46:8e:d3:6d:ad:1a:57:00:b0:df:5a:6f:3d:88:
                    d2:d6:d6:d6:38:1b:97:1a:df:0f:b5:44:ac:22:fc:
                    a9:88:2c:a5:2d:a0:ae:6a:83:e2:a2:9b:68:2e:06:
                    b5:81:37:bd:a9:50:d0:ae:c7:11:57:8a:56:75:04:
                    17:bb:a3:68:c3:a5:24:38:07:b2:d9:6b:1e:bd:53:
                    6d:72:6c:fe:26:6d:25:75:9e:7e:1a:d8:fc:6b:e8:
                    b1:94:57:53:61:11:82:e2:0a:7b:1e:4a:1d:ad:74:
                    0b:d0:ee:6c:0c:20:fd:f8:b0:4c:c9:ba:45:5e:46:
                    e7:55:6a:4e:1e:6a:00:3a:23:21:0c:f8:62:ce:56:
                    f1:9a:85:f3:5f:c3:e1:65:46:4e:d0:6f:55:85:0c:
                    f9:39:81:3a:24:07:f5:1d:f7:f2:a3:c4:d9:4a:45:
                    21:a2:8f:de:74:e0:0d:d8:cc:67:bf:63:ac:97:25:
                    0f:4b:0a:fa:e0:f6:03:d9:08:a6:f7:29:60:ab:75:
                    3d:33:f6:68:3b:86:32:23:be:5f:a1:d9:99:65:2b:
                    51:3f:28:6b:5c:d7:79:d0:0a:32:b6:a2:9d:81:9d:
                    dc:bc:d0:2f:a8:29:1b:89:db:1c:89:c2:70:e0:db:
                    b7:64:c4:7e:91:dd:75:8e:62:67:3d:84:8f:1b:1f:
                    1f:4b:68:99:46:2e:cd:a3:64:99:68:a0:3d:aa:64:
                    c7:57:f2:77:9b:e1:38:6b:a3:7a:75:55:d5:f2:9c:
                    a0:d0:f6:74:b8:f0:9c:0b:36:c2:f0:c3:e2:ca:65:
                    9c:d9:29:f9:47:bb:04:a9:fc:27:22:2f:41:85:e7:
                    73:d1:f8:db:49:4a:13:cd:2d:cf:49:d2:10:f3:33:
                    52:e9:6f:8d:16:ac:fb:54:fb:a8:04:34:54:db:2f:
                    47:57:96:0c:ab:c8:74:ee:70:82:00:ef:e7:6d:d8:
                    0f:97:55:e4:03:df:81:9e:b2:5d:2f:4b:d5:69:d1:
                    60:ec:0a:53:0c:e6:af:af:fe:82:e4:30:8b:17:a8:
                    33:30:14:f9:d1:de:84:15:00:77:4e:a4:67:f9:b3:
                    9a:16:a0:7a:97:1f:b2:d1:e9:f9:ee:b7:e8:ce:7e:
                    7e:72:89:f7:fd:ec:16:de:85:ae:eb:6a:75:1e:22:
                    62:91:f9:6e:95:3f:f4:aa:fa:49:83:14:e5:99:b7:
                    db:8a:14:e9:1f:6e:48:06:fb:3f:1d:d2:02:80:cc:
                    3a:17:7b
                Exponent: 65537 (0x10001)
        X509v3 extensions:
            X509v3 Basic Constraints: 
                CA:FALSE
            Netscape Comment: 
                Easy-RSA Generated Certificate
            X509v3 Subject Key Identifier: 
                B5:4F:ED:79:E3:E5:98:65:35:40:55:D6:39:32:04:5E:D0:E8:99:AA
            X509v3 Authority Key Identifier: 
                keyid:EF:38:8D:14:50:58:A7:5B:4D:9C:17:72:FC:DF:B9:AC:A7:51:B0:10
                DirName:/C=US/ST=CA/L=SanFrancisco/O=Pixglo, Inc./OU=VPN-CIE/CN=tunnel.pixglo.com/name=Bala Chandrasekaran/emailAddress=bala@pixglo.com
                serial:A6:DB:C6:83:80:E6:A0:79

            X509v3 Extended Key Usage: 
                TLS Web Client Authentication
            X509v3 Key Usage: 
                Digital Signature
    Signature Algorithm: sha1WithRSAEncryption
         c0:24:57:75:49:3c:53:ba:66:6a:04:c4:b9:4c:d5:95:c7:aa:
         f2:56:ea:17:1f:86:e5:2b:c8:f3:0a:6f:50:d1:0f:07:15:8e:
         69:7f:54:1a:6c:32:2e:af:41:6e:7b:0e:85:dc:9d:90:ed:f4:
         89:84:89:04:0e:85:38:b7:45:c4:8f:87:9f:ea:fb:b2:b8:73:
         93:46:7b:ba:ab:a5:a8:a4:51:44:87:c2:e1:d8:68:d4:8c:20:
         93:26:66:a5:86:e7:93:1f:d9:57:d1:e5:df:bd:13:cf:04:55:
         28:a9:ec:d4:c3:c6:c8:9e:27:e3:e0:7b:64:60:d7:5b:12:24:
         be:a1:ef:cf:39:2c:b9:a0:4d:53:fb:43:03:7f:f1:f8:b7:4d:
         10:7c:19:d9:a1:d0:03:89:64:74:25:16:96:3a:0f:f0:7c:f9:
         cb:71:1d:e2:56:f1:24:7b:74:bf:c5:2f:6d:19:72:11:a7:a7:
         ec:63:45:c0:2d:59:2e:b8:59:d5:36:50:3a:b5:08:93:e3:6b:
         63:da:84:58:fc:6f:20:74:39:6f:a6:b3:df:df:8f:2e:17:ac:
         83:27:07:94:01:bc:7d:2c:b8:5d:4d:c2:ce:e4:d6:1a:49:26:
         5c:80:07:9f:2e:a8:74:49:99:f0:01:8a:97:29:81:ce:17:8f:
         6d:9a:f1:b8:92:8e:cb:5b:4c:55:81:fb:e8:37:12:68:fa:e4:
         60:8f:4d:71:2b:f4:70:1b:64:62:04:15:91:d1:71:c4:f9:f0:
         06:68:b9:0c:19:4e:cc:eb:74:da:f1:b0:c7:93:cb:a7:2a:d4:
         fb:6b:c0:11:6f:aa:16:76:6e:9f:bc:dc:11:36:65:7f:56:12:
         3c:d0:d8:90:06:19:d2:0d:8f:8f:02:ff:35:c6:ee:43:95:ff:
         dd:db:6a:c8:a7:0b:6f:13:e1:89:49:19:1f:8c:b7:f2:4a:c8:
         a5:d1:8f:3a:da:d8:64:83:b9:f6:0a:f9:c0:5b:14:38:2a:a9:
         08:33:cb:c9:9b:c3:3e:9b:39:7f:d2:0c:77:c0:3e:e7:e0:39:
         e9:87:6f:18:6e:61:63:0c:10:93:13:0c:99:c1:1e:a1:33:e9:
         df:38:31:a1:03:17:eb:0f:57:4a:58:e6:56:46:2b:ee:7f:1f:
         d0:bd:55:ae:74:45:e6:97:42:1c:da:3a:a2:94:f2:34:87:1c:
         6a:9f:6c:58:bf:68:dd:4d:89:41:fc:19:f1:93:1b:68:cf:b4:
         37:f0:e1:94:ca:66:25:81:17:d8:56:96:8c:af:7f:50:e4:a0:
         b0:34:af:f7:a5:70:3c:1a:c9:69:83:4b:52:3c:f0:23:1d:29:
         34:43:7e:1c:d9:43:99:ba
-----BEGIN CERTIFICATE-----
MIIHSDCCBTCgAwIBAgICAM8wDQYJKoZIhvcNAQEFBQAwgbQxCzAJBgNVBAYTAlVT
MQswCQYDVQQIEwJDQTEVMBMGA1UEBxMMU2FuRnJhbmNpc2NvMRUwEwYDVQQKEwxQ
aXhnbG8sIEluYy4xEDAOBgNVBAsTB1ZQTi1DSUUxGjAYBgNVBAMTEXR1bm5lbC5w
aXhnbG8uY29tMRwwGgYDVQQpExNCYWxhIENoYW5kcmFzZWthcmFuMR4wHAYJKoZI
hvcNAQkBFg9iYWxhQHBpeGdsby5jb20wHhcNMTgwMjE0MDYyNzAyWhcNMjgwMjEy
MDYyNzAyWjCBqTELMAkGA1UEBhMCVVMxCzAJBgNVBAgTAkNBMRUwEwYDVQQHEwxT
YW5GcmFuY2lzY28xFTATBgNVBAoTDFBpeGdsbywgSW5jLjEQMA4GA1UECxMHVlBO
LUNJRTEPMA0GA1UEAxMGY2llMjA2MRwwGgYDVQQpExNCYWxhIENoYW5kcmFzZWth
cmFuMR4wHAYJKoZIhvcNAQkBFg9iYWxhQHBpeGdsby5jb20wggIiMA0GCSqGSIb3
DQEBAQUAA4ICDwAwggIKAoICAQC49rBMfQM2tR/PmEcNr1yu7ZQLuS5cmV1Uuzb/
RE9gjMTC6/ffElb9jmU+b1dGjtNtrRpXALDfWm89iNLW1tY4G5ca3w+1RKwi/KmI
LKUtoK5qg+Kim2guBrWBN72pUNCuxxFXilZ1BBe7o2jDpSQ4B7LZax69U21ybP4m
bSV1nn4a2Pxr6LGUV1NhEYLiCnseSh2tdAvQ7mwMIP34sEzJukVeRudVak4eagA6
IyEM+GLOVvGahfNfw+FlRk7Qb1WFDPk5gTokB/Ud9/KjxNlKRSGij9504A3YzGe/
Y6yXJQ9LCvrg9gPZCKb3KWCrdT0z9mg7hjIjvl+h2ZllK1E/KGtc13nQCjK2op2B
ndy80C+oKRuJ2xyJwnDg27dkxH6R3XWOYmc9hI8bHx9LaJlGLs2jZJlooD2qZMdX
8neb4Thro3p1VdXynKDQ9nS48JwLNsLww+LKZZzZKflHuwSp/CciL0GF53PR+NtJ
ShPNLc9J0hDzM1Lpb40WrPtU+6gENFTbL0dXlgyryHTucIIA7+dt2A+XVeQD34Ge
sl0vS9Vp0WDsClMM5q+v/oLkMIsXqDMwFPnR3oQVAHdOpGf5s5oWoHqXH7LR6fnu
t+jOfn5yiff97Bbeha7ranUeImKR+W6VP/Sq+kmDFOWZt9uKFOkfbkgG+z8d0gKA
zDoXewIDAQABo4IBazCCAWcwCQYDVR0TBAIwADAtBglghkgBhvhCAQ0EIBYeRWFz
eS1SU0EgR2VuZXJhdGVkIENlcnRpZmljYXRlMB0GA1UdDgQWBBS1T+154+WYZTVA
VdY5MgRe0OiZqjCB6QYDVR0jBIHhMIHegBTvOI0UUFinW02cF3L837msp1GwEKGB
uqSBtzCBtDELMAkGA1UEBhMCVVMxCzAJBgNVBAgTAkNBMRUwEwYDVQQHEwxTYW5G
cmFuY2lzY28xFTATBgNVBAoTDFBpeGdsbywgSW5jLjEQMA4GA1UECxMHVlBOLUNJ
RTEaMBgGA1UEAxMRdHVubmVsLnBpeGdsby5jb20xHDAaBgNVBCkTE0JhbGEgQ2hh
bmRyYXNla2FyYW4xHjAcBgkqhkiG9w0BCQEWD2JhbGFAcGl4Z2xvLmNvbYIJAKbb
xoOA5qB5MBMGA1UdJQQMMAoGCCsGAQUFBwMCMAsGA1UdDwQEAwIHgDANBgkqhkiG
9w0BAQUFAAOCAgEAwCRXdUk8U7pmagTEuUzVlceq8lbqFx+G5SvI8wpvUNEPBxWO
aX9UGmwyLq9BbnsOhdydkO30iYSJBA6FOLdFxI+Hn+r7srhzk0Z7uqulqKRRRIfC
4dho1IwgkyZmpYbnkx/ZV9Hl370TzwRVKKns1MPGyJ4n4+B7ZGDXWxIkvqHvzzks
uaBNU/tDA3/x+LdNEHwZ2aHQA4lkdCUWljoP8Hz5y3Ed4lbxJHt0v8UvbRlyEaen
7GNFwC1ZLrhZ1TZQOrUIk+NrY9qEWPxvIHQ5b6az39+PLhesgycHlAG8fSy4XU3C
zuTWGkkmXIAHny6odEmZ8AGKlymBzhePbZrxuJKOy1tMVYH76DcSaPrkYI9NcSv0
cBtkYgQVkdFxxPnwBmi5DBlOzOt02vGwx5PLpyrU+2vAEW+qFnZun7zcETZlf1YS
PNDYkAYZ0g2PjwL/NcbuQ5X/3dtqyKcLbxPhiUkZH4y38krIpdGPOtrYZIO59gr5
wFsUOCqpCDPLyZvDPps5f9IMd8A+5+A56YdvGG5hYwwQkxMMmcEeoTPp3zgxoQMX
6w9XSljmVkYr7n8f0L1VrnRF5pdCHNo6opTyNIccap9sWL9o3U2JQfwZ8ZMbaM+0
N/DhlMpmJYEX2FaWjK9/UOSgsDSv96VwPBrJaYNLUjzwIx0pNEN+HNlDmbo=
-----END CERTIFICATE-----
