Certificate:
    Data:
        Version: 3 (0x2)
        Serial Number: 105 (0x69)
    Signature Algorithm: sha1WithRSAEncryption
        Issuer: C=US, ST=CA, L=SanFrancisco, O=Pixglo, Inc., OU=VPN-CIE, CN=tunnel.pixglo.com/name=Bala Chandrasekaran/emailAddress=bala@pixglo.com
        Validity
            Not Before: Feb 14 06:25:43 2018 GMT
            Not After : Feb 12 06:25:43 2028 GMT
        Subject: C=US, ST=CA, L=SanFrancisco, O=Pixglo, Inc., OU=VPN-CIE, CN=cie104/name=Bala Chandrasekaran/emailAddress=bala@pixglo.com
        Subject Public Key Info:
            Public Key Algorithm: rsaEncryption
                Public-Key: (4096 bit)
                Modulus:
                    00:af:10:0d:f6:b2:3b:76:13:ae:82:39:f7:50:01:
                    10:46:fb:8a:0e:b9:dc:bd:26:cf:a3:70:78:01:f8:
                    d7:7d:03:36:ee:b6:b9:5c:5d:88:14:0a:a7:20:a7:
                    d8:bd:10:c4:d2:30:8d:22:33:76:03:db:a6:13:1d:
                    95:ec:46:bb:b4:36:3c:64:12:4f:ae:a7:30:37:e7:
                    aa:78:04:34:b9:70:80:81:00:07:ea:d5:e8:a4:8b:
                    4f:6c:e4:8f:c6:65:e9:93:0f:3e:56:e5:57:84:f3:
                    a5:b6:ba:ff:77:04:a0:9a:72:42:fb:41:59:72:e8:
                    cb:21:4e:21:26:20:c6:20:f9:ba:81:62:91:b9:95:
                    15:97:0d:b7:48:99:31:0b:69:44:1b:03:3e:b1:6c:
                    6e:82:76:eb:50:10:46:29:70:c8:37:15:0b:3f:31:
                    12:4b:e1:d8:38:ab:da:16:5b:17:95:04:be:b3:29:
                    a2:27:71:4b:55:d9:6d:28:36:dc:95:18:24:23:88:
                    dc:c9:bb:29:89:12:cc:3a:96:4e:61:e6:28:1a:5b:
                    05:f2:ca:a2:09:e5:7d:63:c1:e7:15:7b:28:52:87:
                    65:a0:8a:43:e4:d5:65:df:54:bd:2b:13:0e:96:10:
                    54:0e:e0:25:ea:db:d8:be:e1:bd:3b:39:92:76:f7:
                    12:0e:2c:e3:51:4a:25:25:9a:81:1e:5a:c8:e1:2d:
                    39:35:fd:cc:02:d3:62:9b:df:44:70:13:90:4e:aa:
                    9c:0d:2c:8d:ad:ff:2a:be:91:ac:64:b7:a6:d1:18:
                    b5:3c:a4:37:25:aa:d9:46:1d:b7:ea:fa:97:7a:52:
                    60:e9:f4:b4:d1:dd:86:42:72:64:cb:76:c9:b6:a3:
                    91:b2:9f:1d:34:72:ac:97:53:17:b7:3b:8a:d8:41:
                    7c:73:b8:68:b8:83:f2:b3:ea:d1:66:80:88:f9:a1:
                    a7:e5:86:23:da:56:8d:d0:42:46:6a:6c:22:5a:b9:
                    9f:db:5c:7e:02:02:0a:eb:48:f2:a4:b0:58:dd:67:
                    93:1e:99:2f:8f:ff:7e:e6:1a:6f:38:fd:23:25:77:
                    88:07:bc:a0:45:ab:80:dd:80:9a:fc:7d:d9:e6:d7:
                    36:56:26:f5:c0:89:20:3f:65:d1:0e:5b:62:9f:80:
                    b9:8c:0b:c9:98:ff:1b:f8:6b:3a:db:08:dc:eb:3b:
                    c4:b4:46:7c:ca:f9:5e:f4:d1:04:96:97:98:77:ae:
                    c0:1e:3c:be:b0:3d:f8:ec:35:87:0d:b6:bc:52:07:
                    de:c1:87:6c:b7:3c:23:9e:63:59:16:8d:1c:bb:3c:
                    3b:0b:17:54:6e:d5:66:fc:13:ef:d3:6b:b1:30:e0:
                    1e:f3:e9
                Exponent: 65537 (0x10001)
        X509v3 extensions:
            X509v3 Basic Constraints: 
                CA:FALSE
            Netscape Comment: 
                Easy-RSA Generated Certificate
            X509v3 Subject Key Identifier: 
                E0:A0:11:4E:B4:BF:D8:A6:2F:86:1D:D6:E0:0A:C2:01:25:32:51:33
            X509v3 Authority Key Identifier: 
                keyid:EF:38:8D:14:50:58:A7:5B:4D:9C:17:72:FC:DF:B9:AC:A7:51:B0:10
                DirName:/C=US/ST=CA/L=SanFrancisco/O=Pixglo, Inc./OU=VPN-CIE/CN=tunnel.pixglo.com/name=Bala Chandrasekaran/emailAddress=bala@pixglo.com
                serial:A6:DB:C6:83:80:E6:A0:79

            X509v3 Extended Key Usage: 
                TLS Web Client Authentication
            X509v3 Key Usage: 
                Digital Signature
    Signature Algorithm: sha1WithRSAEncryption
         bc:c9:88:ee:ba:54:55:86:a1:d3:83:71:12:df:2b:e9:e9:dd:
         58:90:cd:7c:2b:63:b3:13:77:78:88:8f:b4:3d:79:44:47:d7:
         b7:0d:b1:c2:24:c3:b6:0e:f2:a6:d9:18:d6:f2:ab:d3:68:23:
         a9:ef:68:70:36:8a:25:ad:1b:f8:2c:ee:33:f2:6f:1a:53:55:
         e1:fb:ca:c5:db:c0:35:8f:60:99:4c:e2:7a:b7:75:b4:9d:3a:
         22:9b:65:68:81:fb:71:05:c9:47:af:9d:d4:1e:ad:20:d8:fe:
         35:4f:25:28:41:74:f2:7c:df:14:49:bf:64:ff:2e:1a:d6:c5:
         e1:ba:cb:76:85:33:01:f0:18:6f:e9:38:f0:7b:f9:67:24:12:
         10:67:e1:33:00:b0:5f:46:30:8d:fb:33:f8:78:e6:37:0d:43:
         92:69:51:58:99:5f:58:f2:e1:74:6b:ad:5d:6d:08:2e:51:82:
         98:3d:61:75:1c:5e:d0:4d:71:cc:80:75:de:04:ea:8c:70:e0:
         3d:34:cc:c8:eb:47:e8:8b:51:e1:8d:c7:7f:c9:94:8b:4d:38:
         18:fe:3b:d2:41:7b:0f:d8:ee:26:85:65:68:be:ac:18:23:1a:
         e7:c4:bd:04:ee:0b:68:e6:4a:ab:e4:3e:a8:d7:5d:cb:58:5e:
         9e:8d:bf:7f:28:b8:c6:8e:70:39:07:a6:e4:6c:66:0d:1f:5d:
         f3:a9:d5:ac:ca:c5:fa:13:b3:01:18:c5:b6:a1:cb:c7:5c:6d:
         c8:07:b7:4c:1a:8a:2d:cb:24:31:5a:84:e6:7f:88:b4:93:62:
         26:0c:4c:0f:19:c1:74:ee:ba:7b:58:b7:a3:dd:08:15:b7:08:
         be:90:f5:42:09:c8:86:74:39:88:1a:eb:17:47:ed:29:dc:33:
         c1:4a:22:00:3e:b6:27:0c:aa:43:c0:67:7a:bf:0b:43:68:bc:
         6a:c7:87:50:c4:88:c6:15:aa:be:c0:91:4a:2e:1d:cf:36:86:
         e9:6d:10:de:96:4c:97:1a:8a:c8:c7:53:7d:c5:d1:1e:d1:54:
         b2:47:ba:99:d3:71:7c:4c:e0:16:a6:2e:46:fc:10:7f:e5:1e:
         6a:8f:97:e4:d1:5c:f7:c1:dc:d3:fe:0c:ed:a7:3f:a2:c0:4a:
         41:b1:e9:42:6f:d6:fd:f7:44:54:85:c8:9c:95:27:6b:1b:8d:
         42:78:52:7f:21:60:21:d4:b0:fa:85:98:a0:37:d0:03:fe:fa:
         7c:42:ba:df:9d:31:1f:b0:42:8a:6d:82:35:51:02:5a:48:f7:
         52:be:81:cb:41:75:fc:c4:95:0c:7d:62:3a:7b:e1:7d:51:0c:
         cc:d0:23:15:4a:af:8f:12
-----BEGIN CERTIFICATE-----
MIIHRzCCBS+gAwIBAgIBaTANBgkqhkiG9w0BAQUFADCBtDELMAkGA1UEBhMCVVMx
CzAJBgNVBAgTAkNBMRUwEwYDVQQHEwxTYW5GcmFuY2lzY28xFTATBgNVBAoTDFBp
eGdsbywgSW5jLjEQMA4GA1UECxMHVlBOLUNJRTEaMBgGA1UEAxMRdHVubmVsLnBp
eGdsby5jb20xHDAaBgNVBCkTE0JhbGEgQ2hhbmRyYXNla2FyYW4xHjAcBgkqhkiG
9w0BCQEWD2JhbGFAcGl4Z2xvLmNvbTAeFw0xODAyMTQwNjI1NDNaFw0yODAyMTIw
NjI1NDNaMIGpMQswCQYDVQQGEwJVUzELMAkGA1UECBMCQ0ExFTATBgNVBAcTDFNh
bkZyYW5jaXNjbzEVMBMGA1UEChMMUGl4Z2xvLCBJbmMuMRAwDgYDVQQLEwdWUE4t
Q0lFMQ8wDQYDVQQDEwZjaWUxMDQxHDAaBgNVBCkTE0JhbGEgQ2hhbmRyYXNla2Fy
YW4xHjAcBgkqhkiG9w0BCQEWD2JhbGFAcGl4Z2xvLmNvbTCCAiIwDQYJKoZIhvcN
AQEBBQADggIPADCCAgoCggIBAK8QDfayO3YTroI591ABEEb7ig653L0mz6NweAH4
130DNu62uVxdiBQKpyCn2L0QxNIwjSIzdgPbphMdlexGu7Q2PGQST66nMDfnqngE
NLlwgIEAB+rV6KSLT2zkj8Zl6ZMPPlblV4Tzpba6/3cEoJpyQvtBWXLoyyFOISYg
xiD5uoFikbmVFZcNt0iZMQtpRBsDPrFsboJ261AQRilwyDcVCz8xEkvh2Dir2hZb
F5UEvrMpoidxS1XZbSg23JUYJCOI3Mm7KYkSzDqWTmHmKBpbBfLKognlfWPB5xV7
KFKHZaCKQ+TVZd9UvSsTDpYQVA7gJerb2L7hvTs5knb3Eg4s41FKJSWagR5ayOEt
OTX9zALTYpvfRHATkE6qnA0sja3/Kr6RrGS3ptEYtTykNyWq2UYdt+r6l3pSYOn0
tNHdhkJyZMt2ybajkbKfHTRyrJdTF7c7ithBfHO4aLiD8rPq0WaAiPmhp+WGI9pW
jdBCRmpsIlq5n9tcfgICCutI8qSwWN1nkx6ZL4//fuYabzj9IyV3iAe8oEWrgN2A
mvx92ebXNlYm9cCJID9l0Q5bYp+AuYwLyZj/G/hrOtsI3Os7xLRGfMr5XvTRBJaX
mHeuwB48vrA9+Ow1hw22vFIH3sGHbLc8I55jWRaNHLs8OwsXVG7VZvwT79NrsTDg
HvPpAgMBAAGjggFrMIIBZzAJBgNVHRMEAjAAMC0GCWCGSAGG+EIBDQQgFh5FYXN5
LVJTQSBHZW5lcmF0ZWQgQ2VydGlmaWNhdGUwHQYDVR0OBBYEFOCgEU60v9imL4Yd
1uAKwgElMlEzMIHpBgNVHSMEgeEwgd6AFO84jRRQWKdbTZwXcvzfuaynUbAQoYG6
pIG3MIG0MQswCQYDVQQGEwJVUzELMAkGA1UECBMCQ0ExFTATBgNVBAcTDFNhbkZy
YW5jaXNjbzEVMBMGA1UEChMMUGl4Z2xvLCBJbmMuMRAwDgYDVQQLEwdWUE4tQ0lF
MRowGAYDVQQDExF0dW5uZWwucGl4Z2xvLmNvbTEcMBoGA1UEKRMTQmFsYSBDaGFu
ZHJhc2VrYXJhbjEeMBwGCSqGSIb3DQEJARYPYmFsYUBwaXhnbG8uY29tggkAptvG
g4DmoHkwEwYDVR0lBAwwCgYIKwYBBQUHAwIwCwYDVR0PBAQDAgeAMA0GCSqGSIb3
DQEBBQUAA4ICAQC8yYjuulRVhqHTg3ES3yvp6d1YkM18K2OzE3d4iI+0PXlER9e3
DbHCJMO2DvKm2RjW8qvTaCOp72hwNoolrRv4LO4z8m8aU1Xh+8rF28A1j2CZTOJ6
t3W0nToim2VogftxBclHr53UHq0g2P41TyUoQXTyfN8USb9k/y4a1sXhust2hTMB
8Bhv6Tjwe/lnJBIQZ+EzALBfRjCN+zP4eOY3DUOSaVFYmV9Y8uF0a61dbQguUYKY
PWF1HF7QTXHMgHXeBOqMcOA9NMzI60foi1Hhjcd/yZSLTTgY/jvSQXsP2O4mhWVo
vqwYIxrnxL0E7gto5kqr5D6o113LWF6ejb9/KLjGjnA5B6bkbGYNH13zqdWsysX6
E7MBGMW2ocvHXG3IB7dMGootyyQxWoTmf4i0k2ImDEwPGcF07rp7WLej3QgVtwi+
kPVCCciGdDmIGusXR+0p3DPBSiIAPrYnDKpDwGd6vwtDaLxqx4dQxIjGFaq+wJFK
Lh3PNobpbRDelkyXGorIx1N9xdEe0VSyR7qZ03F8TOAWpi5G/BB/5R5qj5fk0Vz3
wdzT/gztpz+iwEpBselCb9b990RUhciclSdrG41CeFJ/IWAh1LD6hZigN9AD/vp8
QrrfnTEfsEKKbYI1UQJaSPdSvoHLQXX8xJUMfWI6e+F9UQzM0CMVSq+PEg==
-----END CERTIFICATE-----
