Certificate:
    Data:
        Version: 3 (0x2)
        Serial Number: 182 (0xb6)
    Signature Algorithm: sha1WithRSAEncryption
        Issuer: C=US, ST=CA, L=SanFrancisco, O=Pixglo, Inc., OU=VPN-CIE, CN=tunnel.pixglo.com/name=Bala Chandrasekaran/emailAddress=bala@pixglo.com
        Validity
            Not Before: Feb 14 06:26:41 2018 GMT
            Not After : Feb 12 06:26:41 2028 GMT
        Subject: C=US, ST=CA, L=SanFrancisco, O=Pixglo, Inc., OU=VPN-CIE, CN=cie181/name=Bala Chandrasekaran/emailAddress=bala@pixglo.com
        Subject Public Key Info:
            Public Key Algorithm: rsaEncryption
                Public-Key: (4096 bit)
                Modulus:
                    00:c6:ec:e7:9d:7e:d8:37:1c:7e:de:ec:e1:0c:30:
                    f8:4d:03:3d:32:9a:0f:d5:20:d4:e0:68:29:8a:e1:
                    ae:67:63:2a:a3:4e:11:36:81:e5:2c:d6:02:f4:88:
                    9b:cd:a7:e5:7f:fd:64:9d:fc:2d:b0:79:95:29:06:
                    3e:75:72:85:75:9b:a2:a2:ea:b6:9d:9d:a1:53:91:
                    1b:0c:46:d5:bd:60:1d:ed:62:be:c0:38:aa:d1:b0:
                    fe:68:93:ce:2b:02:4a:83:94:a4:70:6f:14:94:3a:
                    d9:36:af:c1:86:c5:11:c7:0f:a4:6a:3f:7e:45:0e:
                    d4:21:f0:97:f7:3c:31:01:f0:8c:81:51:cc:f0:0e:
                    a3:7f:5d:72:b6:97:8e:b5:6b:3b:2d:5f:d5:75:c0:
                    60:74:a4:27:0f:39:cc:57:91:ab:7a:54:51:de:63:
                    78:79:c6:16:32:8b:06:2f:8c:c0:ce:20:29:1e:e4:
                    5a:f9:47:c9:cb:61:2e:22:63:ef:b5:fb:3b:2e:06:
                    d1:23:7f:40:63:0c:39:31:d8:db:48:b1:61:70:4e:
                    06:aa:ed:a7:38:cf:97:a6:c6:30:52:2e:6c:43:86:
                    b8:27:c4:c5:56:b4:b8:78:8a:33:b9:76:71:99:3c:
                    2d:84:de:ac:3e:12:f4:a9:52:40:1a:75:8e:47:88:
                    0f:da:86:fc:42:c6:02:27:0f:ef:dd:85:11:40:69:
                    31:76:b0:b6:ca:bb:7b:30:26:cc:00:16:3e:36:92:
                    ba:fe:57:d3:09:2c:ca:1f:89:b1:4b:41:fc:10:9d:
                    65:66:06:9d:1b:48:d0:9f:72:b6:4b:a1:74:e0:80:
                    d6:9a:5f:f2:fb:2d:58:f9:1e:c6:c8:94:18:14:84:
                    21:47:09:61:23:16:26:72:f7:92:57:3e:ea:c0:b5:
                    dc:8b:95:e3:ee:2d:c1:d4:8c:f2:7b:62:ae:ef:41:
                    1d:eb:76:67:0a:49:ad:e0:4a:5e:74:38:01:1b:2f:
                    0c:fd:78:ab:63:75:56:97:12:59:0a:1e:05:d0:4e:
                    5c:e3:20:c8:66:01:97:22:ae:41:c7:a3:ae:79:37:
                    1a:6d:ac:a8:4a:5c:af:4f:02:0f:25:a5:4a:94:95:
                    8e:fa:34:a1:6f:d2:c8:22:e8:37:96:86:0e:06:62:
                    8d:a9:20:ac:39:c3:16:52:00:23:e5:52:d2:ec:6e:
                    d6:ac:83:10:bc:38:b9:8e:9c:bb:ae:ed:84:64:bd:
                    37:87:0b:11:d3:54:47:e2:a9:47:a9:55:1f:55:77:
                    a9:11:aa:50:c1:85:6b:d2:bd:52:23:5e:79:7d:63:
                    71:bc:81:c3:0f:29:c1:70:6a:40:35:89:34:5b:42:
                    b3:ac:23
                Exponent: 65537 (0x10001)
        X509v3 extensions:
            X509v3 Basic Constraints: 
                CA:FALSE
            Netscape Comment: 
                Easy-RSA Generated Certificate
            X509v3 Subject Key Identifier: 
                6C:AB:CF:43:6D:17:24:D8:90:D7:82:9A:DB:52:3A:AB:7A:3B:68:F9
            X509v3 Authority Key Identifier: 
                keyid:EF:38:8D:14:50:58:A7:5B:4D:9C:17:72:FC:DF:B9:AC:A7:51:B0:10
                DirName:/C=US/ST=CA/L=SanFrancisco/O=Pixglo, Inc./OU=VPN-CIE/CN=tunnel.pixglo.com/name=Bala Chandrasekaran/emailAddress=bala@pixglo.com
                serial:A6:DB:C6:83:80:E6:A0:79

            X509v3 Extended Key Usage: 
                TLS Web Client Authentication
            X509v3 Key Usage: 
                Digital Signature
    Signature Algorithm: sha1WithRSAEncryption
         89:42:28:b6:bb:91:4b:65:c1:59:e7:85:0a:8c:4d:17:da:1b:
         cb:2c:de:ef:3a:b9:dd:0b:0d:e9:df:59:1a:ae:a9:dd:bd:e6:
         86:b9:d7:23:f1:a9:2b:bb:43:77:31:59:8e:a8:72:9c:dd:79:
         10:55:9f:01:ea:ac:57:bc:a2:f1:6a:0f:d3:b8:b5:67:34:4c:
         84:50:eb:48:a4:81:ea:11:b1:d8:81:ae:27:fa:bc:fd:c3:ee:
         c2:98:dc:f5:7d:27:70:81:db:e6:b6:d9:dd:77:1c:80:2c:72:
         a1:e1:95:4e:4d:c8:1a:94:85:2b:a7:a7:1e:9c:ae:68:18:58:
         09:19:2f:3f:a1:5a:ae:c2:be:7f:08:04:95:5b:93:c2:89:59:
         f0:63:f7:c3:a4:fc:65:eb:02:e9:be:8f:c8:85:b6:ac:12:4d:
         a3:88:fe:73:cb:f6:a5:b7:9f:0a:08:43:00:f7:2e:33:7d:6a:
         cd:a6:87:81:d3:89:b4:d7:7f:e5:8e:3e:ea:b1:49:79:04:ec:
         ea:4c:25:76:ea:37:c2:1b:c9:f3:36:9d:81:85:55:42:51:1f:
         15:db:df:43:06:ca:4d:14:a3:e0:a7:ae:91:c0:fa:af:53:47:
         cf:22:6a:39:88:08:dd:0f:f3:fe:41:0b:14:05:d2:e8:83:24:
         f5:c1:5e:73:11:f9:72:63:99:a9:d8:42:88:e2:35:57:2b:9e:
         38:77:2f:f6:d6:08:78:9a:0b:91:c1:a8:10:75:1a:26:30:63:
         e4:69:5a:97:fd:92:1f:6d:d2:2e:9a:e6:ae:5d:64:01:b4:e2:
         14:85:60:78:70:e0:55:9e:b1:ca:08:13:d7:d8:56:d9:05:8e:
         28:db:3d:75:25:9e:56:dc:2b:b6:77:15:0f:1d:ea:3b:9f:1b:
         20:9d:aa:6d:5f:3c:17:73:0c:6b:2a:d5:97:27:4b:5a:a8:a0:
         af:7b:f9:2e:1a:85:9f:f5:9c:e3:73:42:00:a5:91:7a:b5:db:
         d5:cd:31:e8:ab:d7:02:c0:f2:1d:76:c9:d0:d7:cc:32:7a:02:
         51:b4:a8:ed:cc:d0:1b:77:26:9e:0f:19:c5:65:e6:40:70:4c:
         55:29:14:83:98:01:4f:8e:23:39:92:4b:bc:fa:69:6d:23:74:
         bf:de:66:fc:8c:dd:6b:9e:0e:f1:93:06:ef:fa:f9:90:ff:3d:
         40:f0:c7:bd:dd:70:0b:f5:6c:ff:79:55:5e:be:9a:1a:d9:25:
         a0:85:14:21:85:c0:1c:9b:66:d4:fd:10:ff:8c:79:35:65:72:
         01:40:18:6c:bb:8d:71:e2:1b:c1:e2:e5:58:37:76:9b:d9:49:
         e6:22:8a:08:d1:cc:95:64
-----BEGIN CERTIFICATE-----
MIIHSDCCBTCgAwIBAgICALYwDQYJKoZIhvcNAQEFBQAwgbQxCzAJBgNVBAYTAlVT
MQswCQYDVQQIEwJDQTEVMBMGA1UEBxMMU2FuRnJhbmNpc2NvMRUwEwYDVQQKEwxQ
aXhnbG8sIEluYy4xEDAOBgNVBAsTB1ZQTi1DSUUxGjAYBgNVBAMTEXR1bm5lbC5w
aXhnbG8uY29tMRwwGgYDVQQpExNCYWxhIENoYW5kcmFzZWthcmFuMR4wHAYJKoZI
hvcNAQkBFg9iYWxhQHBpeGdsby5jb20wHhcNMTgwMjE0MDYyNjQxWhcNMjgwMjEy
MDYyNjQxWjCBqTELMAkGA1UEBhMCVVMxCzAJBgNVBAgTAkNBMRUwEwYDVQQHEwxT
YW5GcmFuY2lzY28xFTATBgNVBAoTDFBpeGdsbywgSW5jLjEQMA4GA1UECxMHVlBO
LUNJRTEPMA0GA1UEAxMGY2llMTgxMRwwGgYDVQQpExNCYWxhIENoYW5kcmFzZWth
cmFuMR4wHAYJKoZIhvcNAQkBFg9iYWxhQHBpeGdsby5jb20wggIiMA0GCSqGSIb3
DQEBAQUAA4ICDwAwggIKAoICAQDG7Oedftg3HH7e7OEMMPhNAz0ymg/VINTgaCmK
4a5nYyqjThE2geUs1gL0iJvNp+V//WSd/C2weZUpBj51coV1m6Ki6radnaFTkRsM
RtW9YB3tYr7AOKrRsP5ok84rAkqDlKRwbxSUOtk2r8GGxRHHD6RqP35FDtQh8Jf3
PDEB8IyBUczwDqN/XXK2l461azstX9V1wGB0pCcPOcxXkat6VFHeY3h5xhYyiwYv
jMDOICke5Fr5R8nLYS4iY++1+zsuBtEjf0BjDDkx2NtIsWFwTgaq7ac4z5emxjBS
LmxDhrgnxMVWtLh4ijO5dnGZPC2E3qw+EvSpUkAadY5HiA/ahvxCxgInD+/dhRFA
aTF2sLbKu3swJswAFj42krr+V9MJLMofibFLQfwQnWVmBp0bSNCfcrZLoXTggNaa
X/L7LVj5HsbIlBgUhCFHCWEjFiZy95JXPurAtdyLlePuLcHUjPJ7Yq7vQR3rdmcK
Sa3gSl50OAEbLwz9eKtjdVaXElkKHgXQTlzjIMhmAZcirkHHo655NxptrKhKXK9P
Ag8lpUqUlY76NKFv0sgi6DeWhg4GYo2pIKw5wxZSACPlUtLsbtasgxC8OLmOnLuu
7YRkvTeHCxHTVEfiqUepVR9Vd6kRqlDBhWvSvVIjXnl9Y3G8gcMPKcFwakA1iTRb
QrOsIwIDAQABo4IBazCCAWcwCQYDVR0TBAIwADAtBglghkgBhvhCAQ0EIBYeRWFz
eS1SU0EgR2VuZXJhdGVkIENlcnRpZmljYXRlMB0GA1UdDgQWBBRsq89DbRck2JDX
gprbUjqrejto+TCB6QYDVR0jBIHhMIHegBTvOI0UUFinW02cF3L837msp1GwEKGB
uqSBtzCBtDELMAkGA1UEBhMCVVMxCzAJBgNVBAgTAkNBMRUwEwYDVQQHEwxTYW5G
cmFuY2lzY28xFTATBgNVBAoTDFBpeGdsbywgSW5jLjEQMA4GA1UECxMHVlBOLUNJ
RTEaMBgGA1UEAxMRdHVubmVsLnBpeGdsby5jb20xHDAaBgNVBCkTE0JhbGEgQ2hh
bmRyYXNla2FyYW4xHjAcBgkqhkiG9w0BCQEWD2JhbGFAcGl4Z2xvLmNvbYIJAKbb
xoOA5qB5MBMGA1UdJQQMMAoGCCsGAQUFBwMCMAsGA1UdDwQEAwIHgDANBgkqhkiG
9w0BAQUFAAOCAgEAiUIotruRS2XBWeeFCoxNF9obyyze7zq53QsN6d9ZGq6p3b3m
hrnXI/GpK7tDdzFZjqhynN15EFWfAeqsV7yi8WoP07i1ZzRMhFDrSKSB6hGx2IGu
J/q8/cPuwpjc9X0ncIHb5rbZ3XccgCxyoeGVTk3IGpSFK6enHpyuaBhYCRkvP6Fa
rsK+fwgElVuTwolZ8GP3w6T8ZesC6b6PyIW2rBJNo4j+c8v2pbefCghDAPcuM31q
zaaHgdOJtNd/5Y4+6rFJeQTs6kwlduo3whvJ8zadgYVVQlEfFdvfQwbKTRSj4Keu
kcD6r1NHzyJqOYgI3Q/z/kELFAXS6IMk9cFecxH5cmOZqdhCiOI1VyueOHcv9tYI
eJoLkcGoEHUaJjBj5Glal/2SH23SLprmrl1kAbTiFIVgeHDgVZ6xyggT19hW2QWO
KNs9dSWeVtwrtncVDx3qO58bIJ2qbV88F3MMayrVlydLWqigr3v5LhqFn/Wc43NC
AKWRerXb1c0x6KvXAsDyHXbJ0NfMMnoCUbSo7czQG3cmng8ZxWXmQHBMVSkUg5gB
T44jOZJLvPppbSN0v95m/Izda54O8ZMG7/r5kP89QPDHvd1wC/Vs/3lVXr6aGtkl
oIUUIYXAHJtm1P0Q/4x5NWVyAUAYbLuNceIbweLlWDd2m9lJ5iKKCNHMlWQ=
-----END CERTIFICATE-----
