Certificate:
    Data:
        Version: 3 (0x2)
        Serial Number: 151 (0x97)
    Signature Algorithm: sha1WithRSAEncryption
        Issuer: C=US, ST=CA, L=SanFrancisco, O=Pixglo, Inc., OU=VPN-CIE, CN=tunnel.pixglo.com/name=Bala Chandrasekaran/emailAddress=bala@pixglo.com
        Validity
            Not Before: Feb 14 06:26:17 2018 GMT
            Not After : Feb 12 06:26:17 2028 GMT
        Subject: C=US, ST=CA, L=SanFrancisco, O=Pixglo, Inc., OU=VPN-CIE, CN=cie150/name=Bala Chandrasekaran/emailAddress=bala@pixglo.com
        Subject Public Key Info:
            Public Key Algorithm: rsaEncryption
                Public-Key: (4096 bit)
                Modulus:
                    00:cb:fa:f0:68:e2:85:36:14:77:a9:c6:26:69:f2:
                    40:be:cd:de:d7:cc:ba:83:91:14:ca:02:a6:53:b7:
                    84:35:5e:6e:16:8c:77:d9:7e:e0:4e:1f:d2:40:aa:
                    13:a5:0f:e8:67:6a:80:c0:67:15:d0:bd:91:4c:b1:
                    ca:39:8e:ee:52:33:05:ef:40:a2:5a:be:6e:fa:23:
                    43:43:f2:59:ec:2f:43:7d:48:ee:f4:2d:fe:1a:b5:
                    97:15:7a:36:90:80:ef:a3:9e:41:b1:fb:7c:9c:7f:
                    7a:9c:9b:88:eb:ed:18:55:a4:3f:a7:3b:ff:d0:a8:
                    a3:9c:35:9c:5f:01:da:52:38:76:b5:c3:9a:a9:32:
                    67:c8:22:ff:46:d9:4f:2a:29:15:02:d2:01:20:09:
                    e5:0a:fc:a0:8f:c8:27:d9:49:09:2a:ce:c4:22:4c:
                    cb:41:51:54:ab:87:76:64:60:21:d1:ef:d3:27:0a:
                    57:c3:12:e7:d3:ec:4b:52:94:d9:5f:ee:27:12:d5:
                    0f:8f:fe:b9:6d:c5:58:ac:6e:e3:a5:ec:82:ab:7f:
                    12:56:76:cc:f9:67:d6:19:fb:4f:c6:b8:c6:9c:26:
                    ab:ce:97:5a:8c:36:8c:a0:08:f2:1d:68:3c:2a:8d:
                    43:e0:ea:20:3b:94:90:45:08:93:78:ee:c8:4b:6b:
                    d9:25:f8:a6:47:49:fe:d4:74:dc:f8:7b:d6:e0:54:
                    a1:a3:83:d9:02:5e:64:5a:4a:7a:14:2b:87:8f:00:
                    47:ea:aa:e7:d0:ae:db:c0:67:cb:c9:c6:67:33:da:
                    57:d8:4f:45:2d:95:ba:0f:ad:fe:95:a8:0c:99:3f:
                    32:9f:2e:d3:d8:8c:12:be:f7:22:c1:f4:0b:53:a2:
                    75:26:53:69:8c:cd:0a:96:93:f2:56:26:ba:2d:90:
                    a1:8e:a2:6b:f1:8c:cf:ea:ce:45:3f:48:08:85:6a:
                    00:4b:f7:75:22:1e:1a:f2:84:a7:7e:b1:39:66:c5:
                    3a:24:a9:a4:42:20:c2:5e:22:a5:85:6b:6d:fe:e8:
                    44:b7:0e:11:05:ec:82:47:10:ee:39:2b:36:d4:31:
                    98:b4:cb:72:98:f4:7b:01:ac:89:89:b3:88:c3:5b:
                    a8:22:2b:5c:cf:9d:f7:50:c1:c5:55:45:ec:df:13:
                    c4:64:77:24:a8:5f:8d:ca:7e:e8:7c:b3:10:95:91:
                    1b:8d:be:0a:a2:f6:b3:b0:43:3d:79:a3:30:cd:bc:
                    6a:f8:b4:0e:35:5f:ad:5d:b0:e2:3e:a5:19:fc:70:
                    63:0f:be:59:bc:b1:29:4c:e8:ce:b0:94:df:1a:19:
                    3c:48:43:40:ff:96:6d:92:96:80:c8:59:dd:d4:7b:
                    86:35:b5
                Exponent: 65537 (0x10001)
        X509v3 extensions:
            X509v3 Basic Constraints: 
                CA:FALSE
            Netscape Comment: 
                Easy-RSA Generated Certificate
            X509v3 Subject Key Identifier: 
                71:63:29:B9:F6:97:6C:A0:44:F9:9E:63:1D:AC:B1:B1:11:A7:05:7D
            X509v3 Authority Key Identifier: 
                keyid:EF:38:8D:14:50:58:A7:5B:4D:9C:17:72:FC:DF:B9:AC:A7:51:B0:10
                DirName:/C=US/ST=CA/L=SanFrancisco/O=Pixglo, Inc./OU=VPN-CIE/CN=tunnel.pixglo.com/name=Bala Chandrasekaran/emailAddress=bala@pixglo.com
                serial:A6:DB:C6:83:80:E6:A0:79

            X509v3 Extended Key Usage: 
                TLS Web Client Authentication
            X509v3 Key Usage: 
                Digital Signature
    Signature Algorithm: sha1WithRSAEncryption
         29:4a:2d:d8:37:98:e5:cf:da:2d:e6:59:1f:c5:ec:57:c2:ef:
         9e:f3:ec:50:09:0f:0f:cd:3e:4a:19:3b:85:cb:1f:e9:fe:f4:
         a3:c7:38:c8:4b:d5:02:f1:31:95:8d:75:4d:51:d3:5a:17:95:
         3e:ac:f7:b2:90:27:98:1f:8c:50:44:89:81:30:db:02:85:a3:
         7d:3b:3f:09:7f:d9:01:75:ad:9b:42:02:0b:bb:86:4a:07:88:
         70:ec:5e:13:e1:03:8a:0b:17:ce:7b:69:8a:66:d8:61:d0:42:
         69:8c:06:81:5f:6e:5d:2d:9e:5a:35:4d:d5:40:57:0d:24:23:
         e4:dc:7d:39:60:23:e0:e2:20:57:b1:ee:7b:3b:fc:93:ce:6b:
         4d:fc:95:b9:77:cc:0c:17:6c:6b:4f:e7:6f:03:44:62:43:e3:
         3e:41:6e:0f:4e:e2:71:cc:a9:d8:33:70:2e:48:f0:0f:c1:a1:
         ee:b7:f7:6a:c7:24:10:c2:65:9a:59:77:b5:70:44:b6:0b:af:
         eb:22:e9:d7:3f:5a:be:67:2a:c5:f7:7e:f1:0c:39:25:9b:37:
         56:0d:24:b7:8f:70:0c:25:33:25:7c:6b:de:09:db:b5:27:7e:
         b8:97:5c:7c:30:29:7a:ff:af:51:2a:0e:7e:73:b8:ce:fc:35:
         dd:62:89:a2:bd:42:c7:26:73:18:6f:70:31:b3:a6:e1:92:fc:
         2b:ff:cd:3b:73:ce:fe:9e:14:79:38:6c:f4:51:87:9d:b0:4d:
         71:59:41:fb:77:c1:47:cd:f7:b5:6f:70:70:89:e5:03:fa:18:
         1c:8a:07:ce:73:fd:a4:e5:ee:38:bd:af:33:74:46:01:cd:30:
         25:c7:0e:4b:5d:14:1b:d4:cc:94:ef:02:d3:f4:5a:40:a1:40:
         f4:f9:d5:3e:26:eb:31:91:d6:12:32:6a:2d:6b:1d:d1:37:1f:
         95:59:8d:3e:55:2b:46:7f:41:9f:f7:97:6d:12:ee:9a:d5:1d:
         6e:0e:0b:c3:21:be:4d:a4:1b:23:76:da:64:f2:58:60:cc:de:
         55:cd:fa:a1:d4:25:03:c1:50:b9:6e:d1:35:85:a3:a8:8f:a2:
         e0:80:ec:32:b2:42:77:89:ab:a9:51:5e:a5:e4:c4:b2:dc:74:
         a0:a7:4c:ab:a0:04:53:3d:33:c1:1b:96:e2:44:04:6d:96:81:
         3b:b9:09:32:57:d7:6a:87:18:47:31:23:25:0e:56:cc:f8:f0:
         62:f8:ff:7b:46:ee:67:65:2d:62:5b:d6:1f:ec:36:ca:5f:ea:
         0b:61:ff:07:39:cb:3c:8f:99:da:b4:82:bc:62:65:c9:17:5e:
         49:cf:57:75:a8:be:17:89
-----BEGIN CERTIFICATE-----
MIIHSDCCBTCgAwIBAgICAJcwDQYJKoZIhvcNAQEFBQAwgbQxCzAJBgNVBAYTAlVT
MQswCQYDVQQIEwJDQTEVMBMGA1UEBxMMU2FuRnJhbmNpc2NvMRUwEwYDVQQKEwxQ
aXhnbG8sIEluYy4xEDAOBgNVBAsTB1ZQTi1DSUUxGjAYBgNVBAMTEXR1bm5lbC5w
aXhnbG8uY29tMRwwGgYDVQQpExNCYWxhIENoYW5kcmFzZWthcmFuMR4wHAYJKoZI
hvcNAQkBFg9iYWxhQHBpeGdsby5jb20wHhcNMTgwMjE0MDYyNjE3WhcNMjgwMjEy
MDYyNjE3WjCBqTELMAkGA1UEBhMCVVMxCzAJBgNVBAgTAkNBMRUwEwYDVQQHEwxT
YW5GcmFuY2lzY28xFTATBgNVBAoTDFBpeGdsbywgSW5jLjEQMA4GA1UECxMHVlBO
LUNJRTEPMA0GA1UEAxMGY2llMTUwMRwwGgYDVQQpExNCYWxhIENoYW5kcmFzZWth
cmFuMR4wHAYJKoZIhvcNAQkBFg9iYWxhQHBpeGdsby5jb20wggIiMA0GCSqGSIb3
DQEBAQUAA4ICDwAwggIKAoICAQDL+vBo4oU2FHepxiZp8kC+zd7XzLqDkRTKAqZT
t4Q1Xm4WjHfZfuBOH9JAqhOlD+hnaoDAZxXQvZFMsco5ju5SMwXvQKJavm76I0ND
8lnsL0N9SO70Lf4atZcVejaQgO+jnkGx+3ycf3qcm4jr7RhVpD+nO//QqKOcNZxf
AdpSOHa1w5qpMmfIIv9G2U8qKRUC0gEgCeUK/KCPyCfZSQkqzsQiTMtBUVSrh3Zk
YCHR79MnClfDEufT7EtSlNlf7icS1Q+P/rltxVisbuOl7IKrfxJWdsz5Z9YZ+0/G
uMacJqvOl1qMNoygCPIdaDwqjUPg6iA7lJBFCJN47shLa9kl+KZHSf7UdNz4e9bg
VKGjg9kCXmRaSnoUK4ePAEfqqufQrtvAZ8vJxmcz2lfYT0UtlboPrf6VqAyZPzKf
LtPYjBK+9yLB9AtTonUmU2mMzQqWk/JWJrotkKGOomvxjM/qzkU/SAiFagBL93Ui
HhryhKd+sTlmxTokqaRCIMJeIqWFa23+6ES3DhEF7IJHEO45KzbUMZi0y3KY9HsB
rImJs4jDW6giK1zPnfdQwcVVRezfE8RkdySoX43Kfuh8sxCVkRuNvgqi9rOwQz15
ozDNvGr4tA41X61dsOI+pRn8cGMPvlm8sSlM6M6wlN8aGTxIQ0D/lm2SloDIWd3U
e4Y1tQIDAQABo4IBazCCAWcwCQYDVR0TBAIwADAtBglghkgBhvhCAQ0EIBYeRWFz
eS1SU0EgR2VuZXJhdGVkIENlcnRpZmljYXRlMB0GA1UdDgQWBBRxYym59pdsoET5
nmMdrLGxEacFfTCB6QYDVR0jBIHhMIHegBTvOI0UUFinW02cF3L837msp1GwEKGB
uqSBtzCBtDELMAkGA1UEBhMCVVMxCzAJBgNVBAgTAkNBMRUwEwYDVQQHEwxTYW5G
cmFuY2lzY28xFTATBgNVBAoTDFBpeGdsbywgSW5jLjEQMA4GA1UECxMHVlBOLUNJ
RTEaMBgGA1UEAxMRdHVubmVsLnBpeGdsby5jb20xHDAaBgNVBCkTE0JhbGEgQ2hh
bmRyYXNla2FyYW4xHjAcBgkqhkiG9w0BCQEWD2JhbGFAcGl4Z2xvLmNvbYIJAKbb
xoOA5qB5MBMGA1UdJQQMMAoGCCsGAQUFBwMCMAsGA1UdDwQEAwIHgDANBgkqhkiG
9w0BAQUFAAOCAgEAKUot2DeY5c/aLeZZH8XsV8LvnvPsUAkPD80+Shk7hcsf6f70
o8c4yEvVAvExlY11TVHTWheVPqz3spAnmB+MUESJgTDbAoWjfTs/CX/ZAXWtm0IC
C7uGSgeIcOxeE+EDigsXzntpimbYYdBCaYwGgV9uXS2eWjVN1UBXDSQj5Nx9OWAj
4OIgV7Huezv8k85rTfyVuXfMDBdsa0/nbwNEYkPjPkFuD07iccyp2DNwLkjwD8Gh
7rf3asckEMJlmll3tXBEtguv6yLp1z9avmcqxfd+8Qw5JZs3Vg0kt49wDCUzJXxr
3gnbtSd+uJdcfDApev+vUSoOfnO4zvw13WKJor1CxyZzGG9wMbOm4ZL8K//NO3PO
/p4UeThs9FGHnbBNcVlB+3fBR833tW9wcInlA/oYHIoHznP9pOXuOL2vM3RGAc0w
JccOS10UG9TMlO8C0/RaQKFA9PnVPibrMZHWEjJqLWsd0TcflVmNPlUrRn9Bn/eX
bRLumtUdbg4LwyG+TaQbI3baZPJYYMzeVc36odQlA8FQuW7RNYWjqI+i4IDsMrJC
d4mrqVFepeTEstx0oKdMq6AEUz0zwRuW4kQEbZaBO7kJMlfXaocYRzEjJQ5WzPjw
Yvj/e0buZ2UtYlvWH+w2yl/qC2H/BznLPI+Z2rSCvGJlyRdeSc9Xdai+F4k=
-----END CERTIFICATE-----
