Certificate:
    Data:
        Version: 3 (0x2)
        Serial Number: 138 (0x8a)
    Signature Algorithm: sha1WithRSAEncryption
        Issuer: C=US, ST=CA, L=SanFrancisco, O=Pixglo, Inc., OU=VPN-CIE, CN=tunnel.pixglo.com/name=Bala Chandrasekaran/emailAddress=bala@pixglo.com
        Validity
            Not Before: Feb 14 06:26:09 2018 GMT
            Not After : Feb 12 06:26:09 2028 GMT
        Subject: C=US, ST=CA, L=SanFrancisco, O=Pixglo, Inc., OU=VPN-CIE, CN=cie137/name=Bala Chandrasekaran/emailAddress=bala@pixglo.com
        Subject Public Key Info:
            Public Key Algorithm: rsaEncryption
                Public-Key: (4096 bit)
                Modulus:
                    00:c1:13:6a:e7:ff:a0:bd:17:ff:c3:f7:3b:24:c5:
                    6e:6d:1d:b6:b1:c4:90:d9:b4:b5:fa:b8:c9:0d:5f:
                    6d:ba:11:cd:fc:27:da:3d:dd:b0:39:47:b7:c6:7d:
                    4a:9a:d4:a0:26:ba:46:e9:c1:61:2b:93:e6:b8:6a:
                    fc:d6:41:34:3a:9a:1f:85:4d:54:b0:30:e5:85:24:
                    63:2f:6a:af:58:a2:c2:9d:9b:52:db:82:ca:0d:17:
                    61:ac:31:7d:8c:4d:03:eb:47:40:f6:84:3f:d4:bd:
                    52:30:9f:92:c3:37:55:f6:68:82:fe:8b:97:10:64:
                    e5:a0:19:09:c3:81:ac:ff:47:66:04:6e:06:c0:56:
                    b6:e2:d0:ea:ad:33:10:7d:7d:d9:d3:d5:3d:67:86:
                    3f:3f:59:21:e6:05:cb:94:d2:ad:64:53:2e:a7:a9:
                    f0:01:8d:d3:ec:cc:94:1e:e5:b3:ca:3d:64:a5:49:
                    56:3d:57:3e:92:8b:64:e9:b2:98:e8:bb:ea:6d:16:
                    38:aa:b1:fd:d2:73:66:87:db:d2:19:ea:7e:8e:45:
                    06:b7:1d:2c:89:99:4b:92:49:2c:22:2f:02:cf:33:
                    72:69:76:fe:38:dd:b2:f1:f4:3d:9d:4c:59:ab:eb:
                    8d:22:a9:0e:4b:9d:98:94:1e:eb:3d:88:a0:17:b1:
                    a1:1e:af:0b:60:61:d8:07:00:15:4c:3f:59:eb:1f:
                    94:41:b5:fa:43:ff:47:4e:a6:67:b8:b1:9f:37:ae:
                    b8:17:96:98:bd:91:58:31:26:d1:5e:18:b3:69:4c:
                    a3:63:ad:81:cb:d8:09:76:06:a8:01:94:a5:ec:d2:
                    7c:96:5d:02:f7:95:e6:d6:96:c8:14:f0:3c:9c:12:
                    8e:11:4c:4a:3b:61:a2:e2:f9:77:ee:e7:e9:ed:e9:
                    4e:eb:51:5a:cb:be:97:45:b1:0d:ba:1f:86:a7:9b:
                    89:04:2b:16:7e:da:10:ee:42:0f:8d:d6:f1:e2:79:
                    e0:a4:73:d1:1a:13:53:96:11:79:a9:5a:de:64:d0:
                    89:89:1b:94:ac:72:e5:ea:1e:e0:22:ba:07:14:72:
                    fc:17:7c:dd:8b:66:20:cd:f4:39:3e:e4:92:d5:25:
                    50:c2:12:52:3e:c7:1f:bf:7c:a1:fe:66:74:77:f4:
                    d9:e8:20:7d:88:d3:86:f2:66:a2:ce:2b:3a:8a:c1:
                    45:bb:9a:e5:44:6a:0f:89:94:a1:b7:a9:19:ee:28:
                    cf:4e:eb:d2:4a:79:c8:34:13:30:cf:93:16:0f:d8:
                    d2:30:75:2b:dd:21:7d:ae:c3:e2:37:b6:bc:d1:96:
                    87:25:92:c6:53:be:d5:39:67:ee:58:33:6c:e2:79:
                    ae:ba:c1
                Exponent: 65537 (0x10001)
        X509v3 extensions:
            X509v3 Basic Constraints: 
                CA:FALSE
            Netscape Comment: 
                Easy-RSA Generated Certificate
            X509v3 Subject Key Identifier: 
                D9:AF:63:12:08:91:E0:E7:5E:3E:33:E6:56:4B:A0:6B:9A:58:AC:23
            X509v3 Authority Key Identifier: 
                keyid:EF:38:8D:14:50:58:A7:5B:4D:9C:17:72:FC:DF:B9:AC:A7:51:B0:10
                DirName:/C=US/ST=CA/L=SanFrancisco/O=Pixglo, Inc./OU=VPN-CIE/CN=tunnel.pixglo.com/name=Bala Chandrasekaran/emailAddress=bala@pixglo.com
                serial:A6:DB:C6:83:80:E6:A0:79

            X509v3 Extended Key Usage: 
                TLS Web Client Authentication
            X509v3 Key Usage: 
                Digital Signature
    Signature Algorithm: sha1WithRSAEncryption
         77:b2:9a:2e:dc:8a:6c:35:bc:af:26:6c:1e:6b:e8:66:73:ef:
         11:1f:e9:68:cd:27:06:7e:62:a4:20:35:9e:c9:41:c5:a9:94:
         eb:f6:e5:4f:22:e4:4a:90:7f:ba:48:68:d3:42:d7:f0:21:de:
         30:8f:19:3c:24:84:a0:58:fc:a4:f6:95:43:44:08:35:2d:0f:
         cf:0c:0a:ba:de:f1:eb:d5:71:19:0b:85:93:73:84:71:53:85:
         70:a2:ae:75:c5:94:e2:d7:86:8b:80:75:37:d2:3e:b6:c8:cb:
         a1:a1:0c:e1:6f:b4:5e:6f:c8:9c:4a:27:ca:e0:0e:45:01:35:
         87:b5:ae:55:49:0f:4a:2d:6d:df:b4:07:1b:74:e0:7c:b3:29:
         02:71:0b:a0:14:0a:83:2f:23:e2:81:ac:cb:7e:53:9b:33:99:
         c7:5a:df:cd:00:b2:38:6b:cc:24:24:d8:07:25:4c:ae:27:d3:
         a2:13:a7:3f:9f:46:1a:d6:c7:94:e9:23:41:50:14:e8:1f:df:
         04:e2:48:f1:4d:b8:75:a7:2b:f1:29:1a:a5:c4:71:36:56:2b:
         fb:cc:8e:8c:08:cd:cc:72:8f:33:51:54:34:86:1a:a9:5a:f5:
         cb:38:c2:c1:e6:12:bb:d0:7e:df:80:0f:32:e7:29:6f:9e:29:
         ee:77:04:a9:ec:00:57:e2:05:f6:1d:d1:43:52:d0:41:e1:6f:
         a2:2b:bb:15:b1:4b:ac:5e:15:a4:53:46:42:a3:e4:9e:07:c6:
         9d:18:64:51:bc:2a:e0:23:43:81:6b:64:79:7f:94:4b:60:9d:
         87:13:c8:10:62:85:04:e8:e6:31:54:45:2e:42:ba:1c:6b:f9:
         70:85:f9:af:5e:99:97:46:d1:0d:5f:a2:29:92:55:12:4a:e9:
         1a:a0:d3:7c:49:98:b5:ea:2f:39:fe:46:f0:67:81:f6:fe:55:
         88:9c:c1:64:39:92:69:72:f5:e1:a7:b1:12:c0:61:b0:42:e2:
         d7:fb:b8:e0:5e:29:d3:d4:3e:8c:67:f2:36:cc:27:45:7a:e7:
         a5:d2:4a:5d:4e:95:a7:1b:7e:7a:0a:55:b8:d6:fa:63:d0:4e:
         ff:2e:b5:0d:9d:19:43:82:19:16:03:09:e0:90:f4:38:d0:e3:
         74:8b:13:5b:82:38:1f:65:8f:f5:d0:1e:95:a2:4a:86:ea:6c:
         f3:45:b1:2c:d1:e3:23:af:74:30:76:d3:1a:5d:8c:48:20:42:
         a6:94:d3:f5:2e:39:8b:c4:bf:fe:8b:f1:f1:88:e7:b3:c5:6e:
         1f:7d:36:4b:bc:a9:c7:8b:50:50:40:bf:4c:94:0f:d9:4c:57:
         91:e5:11:12:9d:19:63:50
-----BEGIN CERTIFICATE-----
MIIHSDCCBTCgAwIBAgICAIowDQYJKoZIhvcNAQEFBQAwgbQxCzAJBgNVBAYTAlVT
MQswCQYDVQQIEwJDQTEVMBMGA1UEBxMMU2FuRnJhbmNpc2NvMRUwEwYDVQQKEwxQ
aXhnbG8sIEluYy4xEDAOBgNVBAsTB1ZQTi1DSUUxGjAYBgNVBAMTEXR1bm5lbC5w
aXhnbG8uY29tMRwwGgYDVQQpExNCYWxhIENoYW5kcmFzZWthcmFuMR4wHAYJKoZI
hvcNAQkBFg9iYWxhQHBpeGdsby5jb20wHhcNMTgwMjE0MDYyNjA5WhcNMjgwMjEy
MDYyNjA5WjCBqTELMAkGA1UEBhMCVVMxCzAJBgNVBAgTAkNBMRUwEwYDVQQHEwxT
YW5GcmFuY2lzY28xFTATBgNVBAoTDFBpeGdsbywgSW5jLjEQMA4GA1UECxMHVlBO
LUNJRTEPMA0GA1UEAxMGY2llMTM3MRwwGgYDVQQpExNCYWxhIENoYW5kcmFzZWth
cmFuMR4wHAYJKoZIhvcNAQkBFg9iYWxhQHBpeGdsby5jb20wggIiMA0GCSqGSIb3
DQEBAQUAA4ICDwAwggIKAoICAQDBE2rn/6C9F//D9zskxW5tHbaxxJDZtLX6uMkN
X226Ec38J9o93bA5R7fGfUqa1KAmukbpwWErk+a4avzWQTQ6mh+FTVSwMOWFJGMv
aq9YosKdm1LbgsoNF2GsMX2MTQPrR0D2hD/UvVIwn5LDN1X2aIL+i5cQZOWgGQnD
gaz/R2YEbgbAVrbi0OqtMxB9fdnT1T1nhj8/WSHmBcuU0q1kUy6nqfABjdPszJQe
5bPKPWSlSVY9Vz6Si2Tpspjou+ptFjiqsf3Sc2aH29IZ6n6ORQa3HSyJmUuSSSwi
LwLPM3Jpdv443bLx9D2dTFmr640iqQ5LnZiUHus9iKAXsaEerwtgYdgHABVMP1nr
H5RBtfpD/0dOpme4sZ83rrgXlpi9kVgxJtFeGLNpTKNjrYHL2Al2BqgBlKXs0nyW
XQL3lebWlsgU8DycEo4RTEo7YaLi+Xfu5+nt6U7rUVrLvpdFsQ26H4anm4kEKxZ+
2hDuQg+N1vHieeCkc9EaE1OWEXmpWt5k0ImJG5SscuXqHuAiugcUcvwXfN2LZiDN
9Dk+5JLVJVDCElI+xx+/fKH+ZnR39NnoIH2I04byZqLOKzqKwUW7muVEag+JlKG3
qRnuKM9O69JKecg0EzDPkxYP2NIwdSvdIX2uw+I3trzRloclksZTvtU5Z+5YM2zi
ea66wQIDAQABo4IBazCCAWcwCQYDVR0TBAIwADAtBglghkgBhvhCAQ0EIBYeRWFz
eS1SU0EgR2VuZXJhdGVkIENlcnRpZmljYXRlMB0GA1UdDgQWBBTZr2MSCJHg514+
M+ZWS6BrmlisIzCB6QYDVR0jBIHhMIHegBTvOI0UUFinW02cF3L837msp1GwEKGB
uqSBtzCBtDELMAkGA1UEBhMCVVMxCzAJBgNVBAgTAkNBMRUwEwYDVQQHEwxTYW5G
cmFuY2lzY28xFTATBgNVBAoTDFBpeGdsbywgSW5jLjEQMA4GA1UECxMHVlBOLUNJ
RTEaMBgGA1UEAxMRdHVubmVsLnBpeGdsby5jb20xHDAaBgNVBCkTE0JhbGEgQ2hh
bmRyYXNla2FyYW4xHjAcBgkqhkiG9w0BCQEWD2JhbGFAcGl4Z2xvLmNvbYIJAKbb
xoOA5qB5MBMGA1UdJQQMMAoGCCsGAQUFBwMCMAsGA1UdDwQEAwIHgDANBgkqhkiG
9w0BAQUFAAOCAgEAd7KaLtyKbDW8ryZsHmvoZnPvER/paM0nBn5ipCA1nslBxamU
6/blTyLkSpB/ukho00LX8CHeMI8ZPCSEoFj8pPaVQ0QINS0PzwwKut7x69VxGQuF
k3OEcVOFcKKudcWU4teGi4B1N9I+tsjLoaEM4W+0Xm/InEonyuAORQE1h7WuVUkP
Si1t37QHG3TgfLMpAnELoBQKgy8j4oGsy35TmzOZx1rfzQCyOGvMJCTYByVMrifT
ohOnP59GGtbHlOkjQVAU6B/fBOJI8U24dacr8SkapcRxNlYr+8yOjAjNzHKPM1FU
NIYaqVr1yzjCweYSu9B+34APMucpb54p7ncEqewAV+IF9h3RQ1LQQeFvoiu7FbFL
rF4VpFNGQqPkngfGnRhkUbwq4CNDgWtkeX+US2CdhxPIEGKFBOjmMVRFLkK6HGv5
cIX5r16Zl0bRDV+iKZJVEkrpGqDTfEmYteovOf5G8GeB9v5ViJzBZDmSaXL14aex
EsBhsELi1/u44F4p09Q+jGfyNswnRXrnpdJKXU6Vpxt+egpVuNb6Y9BO/y61DZ0Z
Q4IZFgMJ4JD0ONDjdIsTW4I4H2WP9dAelaJKhups80WxLNHjI690MHbTGl2MSCBC
ppTT9S45i8S//ovx8Yjns8VuH302S7ypx4tQUEC/TJQP2UxXkeUREp0ZY1A=
-----END CERTIFICATE-----
