Certificate:
    Data:
        Version: 3 (0x2)
        Serial Number: 128 (0x80)
    Signature Algorithm: sha1WithRSAEncryption
        Issuer: C=US, ST=CA, L=SanFrancisco, O=Pixglo, Inc., OU=VPN-CIE, CN=tunnel.pixglo.com/name=Bala Chandrasekaran/emailAddress=bala@pixglo.com
        Validity
            Not Before: Feb 14 06:26:00 2018 GMT
            Not After : Feb 12 06:26:00 2028 GMT
        Subject: C=US, ST=CA, L=SanFrancisco, O=Pixglo, Inc., OU=VPN-CIE, CN=cie127/name=Bala Chandrasekaran/emailAddress=bala@pixglo.com
        Subject Public Key Info:
            Public Key Algorithm: rsaEncryption
                Public-Key: (4096 bit)
                Modulus:
                    00:bc:e8:76:8f:9e:fe:61:52:7e:be:61:d5:80:d2:
                    09:57:14:d1:2b:12:67:46:7b:6e:6e:ee:83:9d:51:
                    77:f8:29:57:4c:e3:16:19:84:90:21:f6:b0:4d:14:
                    9e:59:ae:e4:e2:ec:29:e1:21:88:51:34:b4:88:ca:
                    4c:2d:c8:20:7c:77:ff:3d:db:44:40:c0:46:1a:b1:
                    d2:7c:f4:db:8a:fb:d8:f9:9e:37:43:c7:03:d5:34:
                    86:a0:7a:c5:fc:d4:58:0c:ed:da:6c:ea:f4:68:fc:
                    03:82:1b:89:4b:02:b3:d2:8d:64:ad:49:13:ab:51:
                    56:07:4f:46:15:44:98:42:a4:28:77:9f:f8:4d:c8:
                    b7:18:19:d1:7f:c6:e7:f7:80:5b:53:cc:37:59:5e:
                    05:dd:86:88:a1:67:26:64:a6:b6:97:88:d5:d0:c8:
                    26:65:a5:53:d0:aa:4e:53:3a:df:ee:b0:c4:a4:84:
                    d8:dd:b8:f3:f7:46:8a:65:1c:bc:ff:0d:98:10:01:
                    ab:c1:f0:bf:d3:ad:d9:fc:65:fe:b3:f6:ff:bb:b8:
                    3f:4d:f3:01:f9:7c:b1:ce:38:92:19:ee:09:4e:a4:
                    8e:fd:58:9b:a8:74:83:b8:20:cf:21:ff:1d:03:31:
                    34:a0:d2:c9:1f:30:5c:40:1a:de:87:10:2d:a3:0d:
                    e1:ef:51:2c:59:07:0d:a8:90:1e:da:d0:10:e1:99:
                    b2:94:dc:9a:9b:10:ec:c5:2f:7a:20:97:3c:93:db:
                    cc:e9:a6:fc:47:d8:73:77:b0:4e:e9:31:67:02:8c:
                    31:73:72:e3:78:2e:2b:99:17:c0:5a:f2:aa:8e:4a:
                    4f:eb:f9:05:8b:e1:61:75:47:b6:d8:04:4a:39:03:
                    6f:bd:8d:54:ef:e4:9e:ee:11:9f:a5:6f:47:89:6f:
                    00:34:0a:e6:ac:5e:45:29:44:21:33:70:80:9f:eb:
                    0b:69:21:e8:ad:c0:62:9a:66:cb:68:07:0d:22:d5:
                    0c:99:46:2d:6d:35:a4:e4:4f:43:dd:d1:dc:88:e5:
                    ce:9d:6e:e1:85:eb:48:1d:98:47:79:72:2a:ed:ca:
                    80:b7:16:fa:27:a3:46:53:fd:77:60:85:0b:6f:d1:
                    a8:9d:53:ee:8a:55:80:a1:49:ae:6f:86:5b:8e:83:
                    d9:dc:df:e4:17:4b:25:fb:49:c8:d7:86:41:ad:64:
                    a0:01:f8:4c:c8:8f:84:9a:ec:dd:23:3f:9e:3c:1f:
                    45:30:c8:9d:af:ea:d0:41:54:e5:30:b4:5b:5e:55:
                    5d:ff:c5:bf:e9:8c:bc:ea:b9:3b:93:90:e4:44:65:
                    e7:c3:cb:7b:ad:24:16:91:ce:d9:f8:9b:ba:ba:cb:
                    31:42:0d
                Exponent: 65537 (0x10001)
        X509v3 extensions:
            X509v3 Basic Constraints: 
                CA:FALSE
            Netscape Comment: 
                Easy-RSA Generated Certificate
            X509v3 Subject Key Identifier: 
                FC:D2:94:9C:73:2B:35:93:15:2E:FB:A3:2D:DF:8E:F5:C7:F2:12:80
            X509v3 Authority Key Identifier: 
                keyid:EF:38:8D:14:50:58:A7:5B:4D:9C:17:72:FC:DF:B9:AC:A7:51:B0:10
                DirName:/C=US/ST=CA/L=SanFrancisco/O=Pixglo, Inc./OU=VPN-CIE/CN=tunnel.pixglo.com/name=Bala Chandrasekaran/emailAddress=bala@pixglo.com
                serial:A6:DB:C6:83:80:E6:A0:79

            X509v3 Extended Key Usage: 
                TLS Web Client Authentication
            X509v3 Key Usage: 
                Digital Signature
    Signature Algorithm: sha1WithRSAEncryption
         c7:9b:26:3b:08:60:65:2b:fe:a7:56:2b:2f:39:ac:90:6a:19:
         f4:ff:8a:b7:cb:32:bf:d1:76:d6:8a:20:c8:66:c4:da:3e:78:
         ab:2e:ff:13:49:bb:31:35:ea:06:39:24:61:74:71:3a:1d:0f:
         31:42:16:91:2e:fa:a6:d2:7f:45:9e:9d:c0:3e:2e:10:9a:08:
         17:b9:fb:e9:b1:22:36:fc:dc:20:06:1d:d8:b5:25:ef:43:d9:
         75:35:65:37:3e:fa:33:00:2d:64:3a:b5:7f:cd:cf:91:f5:44:
         39:dd:83:c2:d5:02:44:80:d9:be:c5:b0:e1:e0:5e:22:a4:49:
         15:4e:4b:9f:dc:e5:a1:ce:63:18:20:e4:c6:89:3a:29:ba:5c:
         7c:fb:42:2a:2e:18:7b:18:8a:58:53:36:e7:df:23:54:81:87:
         2c:11:77:5f:1b:fc:a0:f5:4d:86:81:c0:fa:81:09:1b:f1:8b:
         f0:12:8b:53:89:9f:b4:6e:bd:aa:08:12:08:4c:1c:ea:86:49:
         70:6f:6e:2d:47:af:33:b4:31:a6:02:74:03:72:57:5f:13:fa:
         43:9a:04:0b:08:29:bb:f8:a8:2a:e8:16:18:8a:79:94:73:7b:
         d0:70:e7:4e:3e:3a:21:e7:60:6a:43:78:b4:34:9a:ba:19:f9:
         30:aa:90:47:6b:60:a6:13:81:7c:12:91:94:13:d0:df:6f:31:
         5d:93:e8:e2:9a:76:50:74:a6:7d:ea:a4:3e:a6:fc:84:53:23:
         23:bf:82:32:b3:f9:5e:5f:ce:5d:84:48:8d:68:c3:5c:ae:9d:
         50:65:aa:1e:e3:62:5d:46:ba:63:7c:02:37:fd:6a:25:2e:4f:
         d9:fe:24:67:39:c5:59:97:c3:9b:b6:82:d9:de:0b:0e:e2:c4:
         66:c6:d1:96:79:22:53:b9:ab:b7:f7:d6:d1:7a:94:fe:dc:91:
         f9:11:2e:17:09:8d:c9:96:b0:0f:cc:33:4d:70:c6:f0:f9:99:
         2e:9e:96:e6:cf:53:3d:bf:69:14:12:68:56:d6:5a:d0:a9:73:
         cc:ab:7e:4b:11:29:f0:6c:99:2a:02:d3:a8:b4:d5:78:54:e3:
         e5:f5:3f:76:60:c0:3c:60:d3:31:4b:66:b1:07:82:a2:db:54:
         60:9b:fa:e4:20:62:fa:d4:bf:6e:42:c6:e0:29:c7:41:23:61:
         29:d3:9f:c6:f1:ca:59:08:4e:8d:bb:6d:8f:ac:a7:c9:55:c8:
         50:6c:91:90:60:4b:d8:2f:89:23:83:62:14:99:41:2e:87:11:
         74:f8:54:c9:d2:4b:9a:f0:3a:d7:46:60:e7:42:59:d0:43:5a:
         88:92:06:a2:b7:e7:0e:4a
-----BEGIN CERTIFICATE-----
MIIHSDCCBTCgAwIBAgICAIAwDQYJKoZIhvcNAQEFBQAwgbQxCzAJBgNVBAYTAlVT
MQswCQYDVQQIEwJDQTEVMBMGA1UEBxMMU2FuRnJhbmNpc2NvMRUwEwYDVQQKEwxQ
aXhnbG8sIEluYy4xEDAOBgNVBAsTB1ZQTi1DSUUxGjAYBgNVBAMTEXR1bm5lbC5w
aXhnbG8uY29tMRwwGgYDVQQpExNCYWxhIENoYW5kcmFzZWthcmFuMR4wHAYJKoZI
hvcNAQkBFg9iYWxhQHBpeGdsby5jb20wHhcNMTgwMjE0MDYyNjAwWhcNMjgwMjEy
MDYyNjAwWjCBqTELMAkGA1UEBhMCVVMxCzAJBgNVBAgTAkNBMRUwEwYDVQQHEwxT
YW5GcmFuY2lzY28xFTATBgNVBAoTDFBpeGdsbywgSW5jLjEQMA4GA1UECxMHVlBO
LUNJRTEPMA0GA1UEAxMGY2llMTI3MRwwGgYDVQQpExNCYWxhIENoYW5kcmFzZWth
cmFuMR4wHAYJKoZIhvcNAQkBFg9iYWxhQHBpeGdsby5jb20wggIiMA0GCSqGSIb3
DQEBAQUAA4ICDwAwggIKAoICAQC86HaPnv5hUn6+YdWA0glXFNErEmdGe25u7oOd
UXf4KVdM4xYZhJAh9rBNFJ5ZruTi7CnhIYhRNLSIykwtyCB8d/8920RAwEYasdJ8
9NuK+9j5njdDxwPVNIagesX81FgM7dps6vRo/AOCG4lLArPSjWStSROrUVYHT0YV
RJhCpCh3n/hNyLcYGdF/xuf3gFtTzDdZXgXdhoihZyZkpraXiNXQyCZlpVPQqk5T
Ot/usMSkhNjduPP3RoplHLz/DZgQAavB8L/Trdn8Zf6z9v+7uD9N8wH5fLHOOJIZ
7glOpI79WJuodIO4IM8h/x0DMTSg0skfMFxAGt6HEC2jDeHvUSxZBw2okB7a0BDh
mbKU3JqbEOzFL3oglzyT28zppvxH2HN3sE7pMWcCjDFzcuN4LiuZF8Ba8qqOSk/r
+QWL4WF1R7bYBEo5A2+9jVTv5J7uEZ+lb0eJbwA0CuasXkUpRCEzcICf6wtpIeit
wGKaZstoBw0i1QyZRi1tNaTkT0Pd0dyI5c6dbuGF60gdmEd5cirtyoC3Fvono0ZT
/XdghQtv0aidU+6KVYChSa5vhluOg9nc3+QXSyX7ScjXhkGtZKAB+EzIj4Sa7N0j
P548H0UwyJ2v6tBBVOUwtFteVV3/xb/pjLzquTuTkOREZefDy3utJBaRztn4m7q6
yzFCDQIDAQABo4IBazCCAWcwCQYDVR0TBAIwADAtBglghkgBhvhCAQ0EIBYeRWFz
eS1SU0EgR2VuZXJhdGVkIENlcnRpZmljYXRlMB0GA1UdDgQWBBT80pSccys1kxUu
+6Mt3471x/ISgDCB6QYDVR0jBIHhMIHegBTvOI0UUFinW02cF3L837msp1GwEKGB
uqSBtzCBtDELMAkGA1UEBhMCVVMxCzAJBgNVBAgTAkNBMRUwEwYDVQQHEwxTYW5G
cmFuY2lzY28xFTATBgNVBAoTDFBpeGdsbywgSW5jLjEQMA4GA1UECxMHVlBOLUNJ
RTEaMBgGA1UEAxMRdHVubmVsLnBpeGdsby5jb20xHDAaBgNVBCkTE0JhbGEgQ2hh
bmRyYXNla2FyYW4xHjAcBgkqhkiG9w0BCQEWD2JhbGFAcGl4Z2xvLmNvbYIJAKbb
xoOA5qB5MBMGA1UdJQQMMAoGCCsGAQUFBwMCMAsGA1UdDwQEAwIHgDANBgkqhkiG
9w0BAQUFAAOCAgEAx5smOwhgZSv+p1YrLzmskGoZ9P+Kt8syv9F21oogyGbE2j54
qy7/E0m7MTXqBjkkYXRxOh0PMUIWkS76ptJ/RZ6dwD4uEJoIF7n76bEiNvzcIAYd
2LUl70PZdTVlNz76MwAtZDq1f83PkfVEOd2DwtUCRIDZvsWw4eBeIqRJFU5Ln9zl
oc5jGCDkxok6KbpcfPtCKi4YexiKWFM2598jVIGHLBF3Xxv8oPVNhoHA+oEJG/GL
8BKLU4mftG69qggSCEwc6oZJcG9uLUevM7QxpgJ0A3JXXxP6Q5oECwgpu/ioKugW
GIp5lHN70HDnTj46IedgakN4tDSauhn5MKqQR2tgphOBfBKRlBPQ328xXZPo4pp2
UHSmfeqkPqb8hFMjI7+CMrP5Xl/OXYRIjWjDXK6dUGWqHuNiXUa6Y3wCN/1qJS5P
2f4kZznFWZfDm7aC2d4LDuLEZsbRlnkiU7mrt/fW0XqU/tyR+REuFwmNyZawD8wz
TXDG8PmZLp6W5s9TPb9pFBJoVtZa0KlzzKt+SxEp8GyZKgLTqLTVeFTj5fU/dmDA
PGDTMUtmsQeCottUYJv65CBi+tS/bkLG4CnHQSNhKdOfxvHKWQhOjbttj6ynyVXI
UGyRkGBL2C+JI4NiFJlBLocRdPhUydJLmvA610Zg50JZ0ENaiJIGorfnDko=
-----END CERTIFICATE-----
