Certificate:
    Data:
        Version: 3 (0x2)
        Serial Number: 114 (0x72)
    Signature Algorithm: sha1WithRSAEncryption
        Issuer: C=US, ST=CA, L=SanFrancisco, O=Pixglo, Inc., OU=VPN-CIE, CN=tunnel.pixglo.com/name=Bala Chandrasekaran/emailAddress=bala@pixglo.com
        Validity
            Not Before: Feb 14 06:25:51 2018 GMT
            Not After : Feb 12 06:25:51 2028 GMT
        Subject: C=US, ST=CA, L=SanFrancisco, O=Pixglo, Inc., OU=VPN-CIE, CN=cie113/name=Bala Chandrasekaran/emailAddress=bala@pixglo.com
        Subject Public Key Info:
            Public Key Algorithm: rsaEncryption
                Public-Key: (4096 bit)
                Modulus:
                    00:a5:1e:2d:d1:ba:0f:85:8b:24:59:aa:06:26:3c:
                    7f:1d:74:7f:d4:b5:67:92:97:fa:b9:ae:fb:a4:05:
                    9e:24:c2:ff:00:3c:0a:7d:24:5c:1a:db:35:dc:95:
                    5c:ee:fa:e8:af:2a:ab:47:8e:aa:df:b7:5b:73:cb:
                    f3:ea:01:11:1b:cd:99:30:cb:aa:ec:07:de:00:fb:
                    78:60:e8:d1:f5:49:3d:09:11:c9:af:5e:72:2e:a1:
                    8b:e7:d3:0c:af:0b:9a:85:9f:96:de:6c:bd:0d:58:
                    55:66:c3:08:87:b7:4c:0d:6e:96:43:fb:94:8e:1d:
                    51:3e:eb:12:e4:89:a3:90:20:58:2e:e8:5d:a3:96:
                    02:1f:0d:74:73:40:9b:95:28:8a:99:61:e2:9c:17:
                    d1:9f:19:85:8f:e6:db:d2:1f:7a:a1:ce:c3:f4:ab:
                    e0:60:71:19:d4:37:06:46:be:43:61:3b:73:ee:ff:
                    a8:8a:78:94:73:29:3e:c2:37:c8:fd:07:68:00:cd:
                    b1:54:c8:86:ce:75:1c:ab:ab:c9:a6:5e:50:58:49:
                    80:fa:cf:58:70:a7:62:18:85:48:07:a6:9a:76:27:
                    2f:d7:74:41:01:45:45:d1:7f:34:cc:86:c4:5a:58:
                    fa:9c:68:e5:da:7b:6b:d6:6e:75:40:de:6e:19:42:
                    ee:cb:53:d7:13:11:fb:f6:6e:67:37:75:4a:73:fd:
                    ed:a3:68:ff:21:26:c4:e3:19:1f:df:a6:0a:ea:4a:
                    7a:5b:ec:0d:e5:27:57:7d:49:e1:7b:eb:d2:43:5b:
                    2f:a6:19:8b:fc:33:9e:e5:cb:48:92:cd:bc:84:55:
                    df:47:a6:98:4e:34:96:1c:7f:30:a3:f0:eb:ac:56:
                    50:de:4b:d6:fa:63:d0:7c:39:dc:b4:48:e4:9a:07:
                    eb:12:68:25:08:6d:0d:b8:74:c3:8e:01:45:86:81:
                    08:1d:86:25:22:22:8e:59:7d:fe:02:64:9b:34:d6:
                    53:34:e5:64:fa:f0:ad:03:b4:4d:70:32:21:c5:10:
                    cb:4d:b8:64:e0:bf:cd:15:98:1c:cd:97:c2:da:8d:
                    7f:bc:92:87:06:1e:45:c7:84:4a:1d:27:14:3c:bd:
                    96:70:eb:11:7b:a4:9d:96:d3:88:33:06:05:0f:e7:
                    4c:8b:55:10:b9:9e:53:bf:3d:96:3d:48:d7:26:9e:
                    38:82:26:e6:37:4b:9c:b2:a5:67:39:80:86:c9:00:
                    2c:08:bb:a6:27:07:5f:c5:b7:b4:68:fd:84:d0:64:
                    ef:33:c3:5b:a8:61:14:8d:79:e8:44:55:9c:97:71:
                    93:04:cd:62:82:bd:3f:fe:a1:40:62:d9:b9:44:17:
                    48:fa:cb
                Exponent: 65537 (0x10001)
        X509v3 extensions:
            X509v3 Basic Constraints: 
                CA:FALSE
            Netscape Comment: 
                Easy-RSA Generated Certificate
            X509v3 Subject Key Identifier: 
                BC:F0:4C:CA:DE:2B:54:39:9C:27:5E:34:A3:00:EB:7D:6B:CF:F3:5B
            X509v3 Authority Key Identifier: 
                keyid:EF:38:8D:14:50:58:A7:5B:4D:9C:17:72:FC:DF:B9:AC:A7:51:B0:10
                DirName:/C=US/ST=CA/L=SanFrancisco/O=Pixglo, Inc./OU=VPN-CIE/CN=tunnel.pixglo.com/name=Bala Chandrasekaran/emailAddress=bala@pixglo.com
                serial:A6:DB:C6:83:80:E6:A0:79

            X509v3 Extended Key Usage: 
                TLS Web Client Authentication
            X509v3 Key Usage: 
                Digital Signature
    Signature Algorithm: sha1WithRSAEncryption
         87:95:f1:7a:c2:59:75:ab:7c:50:b2:d0:92:19:21:29:77:ec:
         89:e2:20:e5:8f:86:e9:63:99:65:66:39:0a:0c:ec:ef:b4:a2:
         d8:f2:b3:87:92:e6:82:e0:ef:62:82:4c:11:28:43:7b:29:10:
         54:6d:e4:74:0b:33:db:69:0f:24:10:ce:54:f7:a2:6f:15:fe:
         0a:3a:1d:e4:50:40:66:0b:78:02:b6:fb:9d:a5:66:3d:e2:b1:
         a4:85:f0:65:c0:0d:7a:c4:aa:7e:40:da:27:f3:c3:6b:0a:eb:
         1e:3a:cf:ea:45:d8:a9:26:15:23:2b:58:3d:0a:49:87:9e:19:
         2a:b0:f3:b0:f1:f8:55:88:a5:be:aa:cb:63:20:1a:a1:3c:37:
         e3:29:f3:df:ca:b1:49:27:b4:d2:3d:a1:c3:96:7a:49:3a:bb:
         b3:99:a3:c1:c0:91:7a:77:59:93:56:59:78:3e:bd:f1:00:a9:
         78:ca:6e:bc:bf:4c:ac:40:29:32:9b:e5:15:e4:27:26:1b:52:
         73:14:f4:a3:c3:35:07:42:9c:39:81:d5:f8:23:49:ed:16:65:
         ef:a5:59:13:d0:f2:d7:78:96:a6:29:a0:82:76:b6:3c:54:28:
         b2:7b:f5:7a:67:27:56:10:e3:1f:c6:fb:78:4d:64:56:97:be:
         2f:2b:3e:d9:f0:0d:ce:75:82:b7:5f:6e:88:9f:e7:b3:ac:b2:
         50:e6:f0:0d:d9:f3:f9:53:34:a4:96:2b:2c:41:5b:0f:e4:7d:
         b8:d5:9d:e8:25:a2:b1:15:57:d5:4a:31:aa:24:5f:98:d9:6d:
         66:9f:5b:df:73:dc:b3:45:d0:4f:14:a6:32:52:7c:40:16:1a:
         f8:1f:89:4d:f3:26:46:88:86:25:14:cf:c1:35:97:91:e0:66:
         2f:5e:66:68:f7:b4:18:70:66:e3:ee:43:69:3e:64:40:59:68:
         48:42:92:55:a2:aa:65:74:9a:6e:ac:f6:59:d1:7b:c6:c3:af:
         04:69:cf:ca:7d:de:e0:85:66:17:9f:9a:e9:42:7b:87:2e:35:
         31:c0:13:5c:71:9f:83:7f:37:a3:3a:e3:6a:07:1c:c0:18:47:
         fd:af:bf:ad:4e:ac:de:86:24:04:05:dc:ee:51:d8:97:89:61:
         02:ad:80:d4:6f:83:12:1b:96:08:b4:37:cb:a9:e9:e5:27:a3:
         6d:94:8c:6f:01:8b:41:de:18:d3:c7:d6:8c:ba:f1:49:04:00:
         f9:e7:48:ca:f3:6a:5c:1d:15:dc:a3:cb:91:a0:f7:38:19:37:
         e9:15:22:ac:e6:b3:58:cd:0d:fe:6a:52:39:39:15:38:a0:ae:
         8d:09:da:a5:32:71:45:cb
-----BEGIN CERTIFICATE-----
MIIHRzCCBS+gAwIBAgIBcjANBgkqhkiG9w0BAQUFADCBtDELMAkGA1UEBhMCVVMx
CzAJBgNVBAgTAkNBMRUwEwYDVQQHEwxTYW5GcmFuY2lzY28xFTATBgNVBAoTDFBp
eGdsbywgSW5jLjEQMA4GA1UECxMHVlBOLUNJRTEaMBgGA1UEAxMRdHVubmVsLnBp
eGdsby5jb20xHDAaBgNVBCkTE0JhbGEgQ2hhbmRyYXNla2FyYW4xHjAcBgkqhkiG
9w0BCQEWD2JhbGFAcGl4Z2xvLmNvbTAeFw0xODAyMTQwNjI1NTFaFw0yODAyMTIw
NjI1NTFaMIGpMQswCQYDVQQGEwJVUzELMAkGA1UECBMCQ0ExFTATBgNVBAcTDFNh
bkZyYW5jaXNjbzEVMBMGA1UEChMMUGl4Z2xvLCBJbmMuMRAwDgYDVQQLEwdWUE4t
Q0lFMQ8wDQYDVQQDEwZjaWUxMTMxHDAaBgNVBCkTE0JhbGEgQ2hhbmRyYXNla2Fy
YW4xHjAcBgkqhkiG9w0BCQEWD2JhbGFAcGl4Z2xvLmNvbTCCAiIwDQYJKoZIhvcN
AQEBBQADggIPADCCAgoCggIBAKUeLdG6D4WLJFmqBiY8fx10f9S1Z5KX+rmu+6QF
niTC/wA8Cn0kXBrbNdyVXO766K8qq0eOqt+3W3PL8+oBERvNmTDLquwH3gD7eGDo
0fVJPQkRya9eci6hi+fTDK8LmoWflt5svQ1YVWbDCIe3TA1ulkP7lI4dUT7rEuSJ
o5AgWC7oXaOWAh8NdHNAm5Uoiplh4pwX0Z8ZhY/m29IfeqHOw/Sr4GBxGdQ3Bka+
Q2E7c+7/qIp4lHMpPsI3yP0HaADNsVTIhs51HKuryaZeUFhJgPrPWHCnYhiFSAem
mnYnL9d0QQFFRdF/NMyGxFpY+pxo5dp7a9ZudUDebhlC7stT1xMR+/ZuZzd1SnP9
7aNo/yEmxOMZH9+mCupKelvsDeUnV31J4Xvr0kNbL6YZi/wznuXLSJLNvIRV30em
mE40lhx/MKPw66xWUN5L1vpj0Hw53LRI5JoH6xJoJQhtDbh0w44BRYaBCB2GJSIi
jll9/gJkmzTWUzTlZPrwrQO0TXAyIcUQy024ZOC/zRWYHM2XwtqNf7yShwYeRceE
Sh0nFDy9lnDrEXuknZbTiDMGBQ/nTItVELmeU789lj1I1yaeOIIm5jdLnLKlZzmA
hskALAi7picHX8W3tGj9hNBk7zPDW6hhFI156ERVnJdxkwTNYoK9P/6hQGLZuUQX
SPrLAgMBAAGjggFrMIIBZzAJBgNVHRMEAjAAMC0GCWCGSAGG+EIBDQQgFh5FYXN5
LVJTQSBHZW5lcmF0ZWQgQ2VydGlmaWNhdGUwHQYDVR0OBBYEFLzwTMreK1Q5nCde
NKMA631rz/NbMIHpBgNVHSMEgeEwgd6AFO84jRRQWKdbTZwXcvzfuaynUbAQoYG6
pIG3MIG0MQswCQYDVQQGEwJVUzELMAkGA1UECBMCQ0ExFTATBgNVBAcTDFNhbkZy
YW5jaXNjbzEVMBMGA1UEChMMUGl4Z2xvLCBJbmMuMRAwDgYDVQQLEwdWUE4tQ0lF
MRowGAYDVQQDExF0dW5uZWwucGl4Z2xvLmNvbTEcMBoGA1UEKRMTQmFsYSBDaGFu
ZHJhc2VrYXJhbjEeMBwGCSqGSIb3DQEJARYPYmFsYUBwaXhnbG8uY29tggkAptvG
g4DmoHkwEwYDVR0lBAwwCgYIKwYBBQUHAwIwCwYDVR0PBAQDAgeAMA0GCSqGSIb3
DQEBBQUAA4ICAQCHlfF6wll1q3xQstCSGSEpd+yJ4iDlj4bpY5llZjkKDOzvtKLY
8rOHkuaC4O9igkwRKEN7KRBUbeR0CzPbaQ8kEM5U96JvFf4KOh3kUEBmC3gCtvud
pWY94rGkhfBlwA16xKp+QNon88NrCuseOs/qRdipJhUjK1g9CkmHnhkqsPOw8fhV
iKW+qstjIBqhPDfjKfPfyrFJJ7TSPaHDlnpJOruzmaPBwJF6d1mTVll4Pr3xAKl4
ym68v0ysQCkym+UV5CcmG1JzFPSjwzUHQpw5gdX4I0ntFmXvpVkT0PLXeJamKaCC
drY8VCiye/V6ZydWEOMfxvt4TWRWl74vKz7Z8A3OdYK3X26In+ezrLJQ5vAN2fP5
UzSklissQVsP5H241Z3oJaKxFVfVSjGqJF+Y2W1mn1vfc9yzRdBPFKYyUnxAFhr4
H4lN8yZGiIYlFM/BNZeR4GYvXmZo97QYcGbj7kNpPmRAWWhIQpJVoqpldJpurPZZ
0XvGw68Eac/Kfd7ghWYXn5rpQnuHLjUxwBNccZ+DfzejOuNqBxzAGEf9r7+tTqze
hiQEBdzuUdiXiWECrYDUb4MSG5YItDfLqenlJ6NtlIxvAYtB3hjTx9aMuvFJBAD5
50jK82pcHRXco8uRoPc4GTfpFSKs5rNYzQ3+alI5ORU4oK6NCdqlMnFFyw==
-----END CERTIFICATE-----
