Certificate:
    Data:
        Version: 3 (0x2)
        Serial Number: 120 (0x78)
    Signature Algorithm: sha1WithRSAEncryption
        Issuer: C=US, ST=CA, L=SanFrancisco, O=Pixglo, Inc., OU=VPN-CIE, CN=tunnel.pixglo.com/name=Bala Chandrasekaran/emailAddress=bala@pixglo.com
        Validity
            Not Before: Feb 14 06:25:55 2018 GMT
            Not After : Feb 12 06:25:55 2028 GMT
        Subject: C=US, ST=CA, L=SanFrancisco, O=Pixglo, Inc., OU=VPN-CIE, CN=cie119/name=Bala Chandrasekaran/emailAddress=bala@pixglo.com
        Subject Public Key Info:
            Public Key Algorithm: rsaEncryption
                Public-Key: (4096 bit)
                Modulus:
                    00:ce:a4:70:c0:33:50:21:e2:f7:5a:4e:31:dc:ca:
                    20:a8:5a:b1:98:b8:71:ed:db:97:04:eb:f4:d6:ab:
                    b8:31:e0:72:c1:ff:43:e3:a4:1e:ca:a1:1b:42:ea:
                    5e:21:70:8c:41:cd:4d:db:68:bd:ae:61:c3:ba:51:
                    18:61:35:68:97:01:ac:f7:f4:9e:75:b7:e7:a8:81:
                    d8:dc:cb:49:67:a5:56:d2:94:d2:8e:6a:fd:cc:21:
                    ed:d8:8a:3c:9b:42:18:2b:54:28:70:e9:8d:46:5d:
                    aa:bd:53:e7:01:73:89:da:39:0b:6b:af:c4:22:11:
                    21:54:2a:d7:17:58:8d:e6:1b:07:4f:2e:a1:3f:1a:
                    6b:bd:b0:12:c2:89:2c:7e:8f:b4:0b:52:16:67:eb:
                    21:8e:58:b9:18:17:ed:0c:6e:c6:46:83:60:d2:c0:
                    f6:7a:a1:1e:84:7b:69:c7:d3:d6:9f:f3:37:60:63:
                    25:25:a3:d3:31:89:a2:b3:04:78:34:ee:2c:ac:97:
                    d8:94:eb:dd:f1:37:21:68:76:4f:5e:a0:53:d0:24:
                    c8:24:75:fa:3a:9f:54:e8:4a:26:92:27:26:f0:aa:
                    76:5c:40:df:7b:ee:5a:40:55:d3:58:bb:3e:91:3d:
                    ff:8f:00:36:f9:15:3c:47:1c:ec:8d:19:a6:a6:b1:
                    db:13:59:c3:b7:84:9a:96:37:62:bf:f0:67:1b:52:
                    bd:f8:77:5e:4c:2b:cc:e9:2e:5a:51:b2:0c:82:17:
                    76:5d:89:28:6f:2e:1b:33:e3:b2:af:1e:48:f9:2b:
                    05:c6:71:76:14:84:74:be:ca:27:69:00:d1:af:c4:
                    c7:b9:bb:4c:e1:e9:56:c1:e5:52:09:9c:cf:c4:81:
                    1d:eb:9b:a6:17:73:63:7c:95:a8:1f:da:72:e3:2f:
                    db:a7:ad:d3:c4:d8:23:a0:5b:66:ae:2a:fc:b9:02:
                    b8:58:8b:19:81:28:8a:a8:d7:fb:b5:85:36:52:84:
                    23:c4:73:e7:92:99:3f:2a:1d:10:c3:03:e5:8a:c1:
                    d4:2e:f9:05:12:ac:9d:50:e8:1e:56:75:eb:81:41:
                    4e:a9:5e:98:55:9b:82:ce:19:90:79:4b:8a:c0:cc:
                    73:54:ac:70:30:a4:d9:73:32:27:44:f3:ff:d0:3a:
                    7c:3b:79:96:a9:24:b4:ab:8a:88:63:8f:1f:5e:21:
                    27:2b:a6:01:e7:e7:93:93:76:9a:38:d9:e9:97:f8:
                    e2:e8:d3:39:b7:92:49:e0:a1:7e:a8:ed:13:78:ee:
                    39:d5:17:c0:f3:ec:e3:9c:f5:54:9d:73:bd:6a:7d:
                    16:5e:1d:dc:a7:70:0c:d2:7b:86:28:06:31:14:51:
                    f9:47:8b
                Exponent: 65537 (0x10001)
        X509v3 extensions:
            X509v3 Basic Constraints: 
                CA:FALSE
            Netscape Comment: 
                Easy-RSA Generated Certificate
            X509v3 Subject Key Identifier: 
                8E:A2:CC:81:06:42:44:46:60:46:BE:FF:C4:BE:38:15:20:F8:AF:93
            X509v3 Authority Key Identifier: 
                keyid:EF:38:8D:14:50:58:A7:5B:4D:9C:17:72:FC:DF:B9:AC:A7:51:B0:10
                DirName:/C=US/ST=CA/L=SanFrancisco/O=Pixglo, Inc./OU=VPN-CIE/CN=tunnel.pixglo.com/name=Bala Chandrasekaran/emailAddress=bala@pixglo.com
                serial:A6:DB:C6:83:80:E6:A0:79

            X509v3 Extended Key Usage: 
                TLS Web Client Authentication
            X509v3 Key Usage: 
                Digital Signature
    Signature Algorithm: sha1WithRSAEncryption
         26:13:bf:d1:87:a0:ad:f1:71:43:7d:3d:70:7c:0b:f8:d3:00:
         83:81:d0:aa:42:c6:73:38:7b:3d:fd:63:01:29:4d:91:88:a3:
         25:44:30:79:c9:7f:2e:96:76:8b:fb:a1:a5:78:58:be:b5:e2:
         43:bb:42:c7:33:44:ea:1e:e1:a0:85:89:eb:c1:0a:22:13:fa:
         c7:48:db:95:66:74:61:9f:84:0b:5f:62:c5:e5:96:44:a5:23:
         2a:41:52:2d:bf:71:45:1b:83:a8:26:ed:d1:fc:fb:4b:97:62:
         76:ba:d1:58:d8:12:3e:44:7f:88:bb:52:25:f9:e4:4b:d8:df:
         e9:49:55:71:30:00:00:07:0c:c1:48:6d:c2:e6:dc:e9:0c:5a:
         80:44:ea:4c:14:da:3b:76:83:d7:b9:15:03:f2:db:c1:dd:74:
         2b:ee:c9:86:9a:ee:7a:f8:13:28:a8:15:86:71:10:21:ab:c5:
         ef:96:f7:39:3f:a7:51:3c:fc:03:8d:5a:ab:4c:86:08:7e:45:
         b7:d9:5f:ef:d9:c4:fa:97:ab:0b:49:ab:54:7d:bd:ea:2f:5a:
         87:8c:f0:86:d4:a9:b9:a4:6e:6b:09:90:1b:8b:85:90:cd:df:
         cd:18:5e:69:6b:12:7c:e7:f2:75:60:01:2b:91:74:07:ad:3b:
         72:c1:b5:48:50:0c:58:cf:4b:d5:35:91:5e:0c:37:9d:de:63:
         dc:f2:b0:c4:c9:d1:40:4a:24:0d:07:9e:24:75:63:ff:88:fd:
         6f:40:cf:46:3f:f0:31:5a:2d:39:ca:9c:7e:68:af:b2:a2:db:
         82:9a:9f:45:b6:9d:9e:4e:90:8f:05:6d:56:34:fe:94:18:ff:
         be:cb:03:d6:ba:ca:59:06:47:20:36:48:41:1a:34:41:3e:3f:
         b0:54:d4:52:23:d6:86:ac:bc:04:18:45:b9:a9:f8:bf:72:60:
         55:d4:7e:09:6a:bf:da:0a:2d:d9:d5:5e:2b:ce:d0:ff:4a:8b:
         17:d3:60:4f:2f:a0:0b:d8:fa:bc:16:0b:ef:10:8a:6d:41:06:
         3a:27:d7:7c:7d:fe:5a:5a:7c:05:a4:68:82:de:22:f8:6c:32:
         8f:7d:27:95:85:88:fb:0d:64:1d:bf:26:f8:03:c6:3a:20:6a:
         e4:51:9f:9f:81:2e:25:27:81:0a:5f:c3:ae:9d:60:3a:31:e3:
         3c:01:ba:f9:99:19:18:51:7d:87:ce:c2:97:57:7e:87:aa:06:
         ab:82:01:4c:ce:6d:5b:21:1b:da:66:79:2b:ec:b7:ca:dc:b7:
         f8:de:68:b6:a9:2f:da:5f:32:d2:de:5e:91:ff:2f:ab:53:de:
         a5:e7:81:e3:44:23:e1:97
-----BEGIN CERTIFICATE-----
MIIHRzCCBS+gAwIBAgIBeDANBgkqhkiG9w0BAQUFADCBtDELMAkGA1UEBhMCVVMx
CzAJBgNVBAgTAkNBMRUwEwYDVQQHEwxTYW5GcmFuY2lzY28xFTATBgNVBAoTDFBp
eGdsbywgSW5jLjEQMA4GA1UECxMHVlBOLUNJRTEaMBgGA1UEAxMRdHVubmVsLnBp
eGdsby5jb20xHDAaBgNVBCkTE0JhbGEgQ2hhbmRyYXNla2FyYW4xHjAcBgkqhkiG
9w0BCQEWD2JhbGFAcGl4Z2xvLmNvbTAeFw0xODAyMTQwNjI1NTVaFw0yODAyMTIw
NjI1NTVaMIGpMQswCQYDVQQGEwJVUzELMAkGA1UECBMCQ0ExFTATBgNVBAcTDFNh
bkZyYW5jaXNjbzEVMBMGA1UEChMMUGl4Z2xvLCBJbmMuMRAwDgYDVQQLEwdWUE4t
Q0lFMQ8wDQYDVQQDEwZjaWUxMTkxHDAaBgNVBCkTE0JhbGEgQ2hhbmRyYXNla2Fy
YW4xHjAcBgkqhkiG9w0BCQEWD2JhbGFAcGl4Z2xvLmNvbTCCAiIwDQYJKoZIhvcN
AQEBBQADggIPADCCAgoCggIBAM6kcMAzUCHi91pOMdzKIKhasZi4ce3blwTr9Nar
uDHgcsH/Q+OkHsqhG0LqXiFwjEHNTdtova5hw7pRGGE1aJcBrPf0nnW356iB2NzL
SWelVtKU0o5q/cwh7diKPJtCGCtUKHDpjUZdqr1T5wFzido5C2uvxCIRIVQq1xdY
jeYbB08uoT8aa72wEsKJLH6PtAtSFmfrIY5YuRgX7QxuxkaDYNLA9nqhHoR7acfT
1p/zN2BjJSWj0zGJorMEeDTuLKyX2JTr3fE3IWh2T16gU9AkyCR1+jqfVOhKJpIn
JvCqdlxA33vuWkBV01i7PpE9/48ANvkVPEcc7I0Zpqax2xNZw7eEmpY3Yr/wZxtS
vfh3XkwrzOkuWlGyDIIXdl2JKG8uGzPjsq8eSPkrBcZxdhSEdL7KJ2kA0a/Ex7m7
TOHpVsHlUgmcz8SBHeubphdzY3yVqB/acuMv26et08TYI6BbZq4q/LkCuFiLGYEo
iqjX+7WFNlKEI8Rz55KZPyodEMMD5YrB1C75BRKsnVDoHlZ164FBTqlemFWbgs4Z
kHlLisDMc1SscDCk2XMyJ0Tz/9A6fDt5lqkktKuKiGOPH14hJyumAefnk5N2mjjZ
6Zf44ujTObeSSeChfqjtE3juOdUXwPPs45z1VJ1zvWp9Fl4d3KdwDNJ7higGMRRR
+UeLAgMBAAGjggFrMIIBZzAJBgNVHRMEAjAAMC0GCWCGSAGG+EIBDQQgFh5FYXN5
LVJTQSBHZW5lcmF0ZWQgQ2VydGlmaWNhdGUwHQYDVR0OBBYEFI6izIEGQkRGYEa+
/8S+OBUg+K+TMIHpBgNVHSMEgeEwgd6AFO84jRRQWKdbTZwXcvzfuaynUbAQoYG6
pIG3MIG0MQswCQYDVQQGEwJVUzELMAkGA1UECBMCQ0ExFTATBgNVBAcTDFNhbkZy
YW5jaXNjbzEVMBMGA1UEChMMUGl4Z2xvLCBJbmMuMRAwDgYDVQQLEwdWUE4tQ0lF
MRowGAYDVQQDExF0dW5uZWwucGl4Z2xvLmNvbTEcMBoGA1UEKRMTQmFsYSBDaGFu
ZHJhc2VrYXJhbjEeMBwGCSqGSIb3DQEJARYPYmFsYUBwaXhnbG8uY29tggkAptvG
g4DmoHkwEwYDVR0lBAwwCgYIKwYBBQUHAwIwCwYDVR0PBAQDAgeAMA0GCSqGSIb3
DQEBBQUAA4ICAQAmE7/Rh6Ct8XFDfT1wfAv40wCDgdCqQsZzOHs9/WMBKU2RiKMl
RDB5yX8ulnaL+6GleFi+teJDu0LHM0TqHuGghYnrwQoiE/rHSNuVZnRhn4QLX2LF
5ZZEpSMqQVItv3FFG4OoJu3R/PtLl2J2utFY2BI+RH+Iu1Il+eRL2N/pSVVxMAAA
BwzBSG3C5tzpDFqAROpMFNo7doPXuRUD8tvB3XQr7smGmu56+BMoqBWGcRAhq8Xv
lvc5P6dRPPwDjVqrTIYIfkW32V/v2cT6l6sLSatUfb3qL1qHjPCG1Km5pG5rCZAb
i4WQzd/NGF5paxJ85/J1YAErkXQHrTtywbVIUAxYz0vVNZFeDDed3mPc8rDEydFA
SiQNB54kdWP/iP1vQM9GP/AxWi05ypx+aK+yotuCmp9Ftp2eTpCPBW1WNP6UGP++
ywPWuspZBkcgNkhBGjRBPj+wVNRSI9aGrLwEGEW5qfi/cmBV1H4Jar/aCi3Z1V4r
ztD/SosX02BPL6AL2Pq8FgvvEIptQQY6J9d8ff5aWnwFpGiC3iL4bDKPfSeVhYj7
DWQdvyb4A8Y6IGrkUZ+fgS4lJ4EKX8OunWA6MeM8Abr5mRkYUX2HzsKXV36Hqgar
ggFMzm1bIRvaZnkr7LfK3Lf43mi2qS/aXzLS3l6R/y+rU96l54HjRCPhlw==
-----END CERTIFICATE-----
