Certificate:
    Data:
        Version: 3 (0x2)
        Serial Number: 113 (0x71)
    Signature Algorithm: sha1WithRSAEncryption
        Issuer: C=US, ST=CA, L=SanFrancisco, O=Pixglo, Inc., OU=VPN-CIE, CN=tunnel.pixglo.com/name=Bala Chandrasekaran/emailAddress=bala@pixglo.com
        Validity
            Not Before: Feb 14 06:25:50 2018 GMT
            Not After : Feb 12 06:25:50 2028 GMT
        Subject: C=US, ST=CA, L=SanFrancisco, O=Pixglo, Inc., OU=VPN-CIE, CN=cie112/name=Bala Chandrasekaran/emailAddress=bala@pixglo.com
        Subject Public Key Info:
            Public Key Algorithm: rsaEncryption
                Public-Key: (4096 bit)
                Modulus:
                    00:d0:07:22:cd:f7:d3:d2:26:c4:f1:9a:8d:07:d6:
                    72:cc:c9:79:bf:77:d6:d5:b9:51:94:95:50:32:5c:
                    a7:8e:3e:7e:66:cd:35:4a:68:65:57:01:e7:db:50:
                    6e:89:cc:b3:1b:c4:7f:72:3c:b6:d8:22:c6:c1:31:
                    4c:e3:b6:fa:87:49:2f:94:ed:39:e6:30:fb:6c:f3:
                    21:28:a4:c0:ca:77:b7:4b:cd:06:1f:ea:d4:9a:1e:
                    9c:f2:61:22:a5:36:62:8b:14:93:61:3b:05:55:4f:
                    77:ef:5d:a9:62:28:74:83:84:70:36:82:93:ff:7c:
                    25:7c:4a:9f:67:37:30:20:98:32:63:13:fb:8d:c0:
                    50:40:2c:29:b0:af:82:60:1e:64:54:4a:0e:7b:d7:
                    29:fb:f0:04:76:97:4e:06:57:af:6c:46:2f:e1:7b:
                    6f:96:f8:d5:4e:c6:b4:57:77:10:92:7d:9e:d9:75:
                    ae:1e:37:69:41:64:e9:08:f3:9f:c0:ef:57:19:9c:
                    96:2d:fe:72:b5:16:7d:84:08:0e:67:45:15:d7:eb:
                    98:87:d2:e4:be:75:8a:ad:df:37:09:91:c6:a4:d3:
                    6a:cf:ae:4b:85:5a:92:46:83:f8:98:e4:cc:20:45:
                    66:5f:99:dd:4b:86:5b:90:c0:34:02:a0:84:2a:e4:
                    ef:b8:0c:0a:f6:51:99:eb:1e:82:ba:20:b1:c7:4e:
                    eb:3f:82:17:cf:9a:5b:53:25:66:81:25:5a:04:4e:
                    ca:7b:f5:8b:79:97:60:b6:69:cb:b7:e6:d7:56:1c:
                    73:a0:0f:6d:28:a7:18:bd:e3:65:33:12:88:87:d2:
                    58:f8:14:e8:3b:2c:59:0d:18:68:59:9b:33:05:0a:
                    1f:68:f2:4a:39:6a:f9:62:28:26:d6:98:04:12:9e:
                    ff:75:f0:0c:3a:b7:00:c6:f2:6e:30:eb:6f:33:4a:
                    55:3a:93:2d:8b:1e:8f:86:3f:d4:7a:d6:ef:1e:8c:
                    0f:78:e8:06:c8:cf:ff:16:79:fc:01:4d:c2:55:c2:
                    54:bb:22:74:eb:df:79:5d:90:cf:43:76:43:e4:ff:
                    90:26:ea:e8:22:20:c8:7a:7e:a4:a6:d5:37:a2:81:
                    52:f8:a9:13:4b:82:f6:8b:d5:48:67:13:1b:fa:3b:
                    5f:08:6a:28:a2:81:ab:a3:25:64:ba:62:81:f3:a9:
                    11:d5:96:4b:64:24:05:23:25:e4:68:e4:d4:ef:92:
                    fe:7a:4b:fd:b2:36:57:22:fb:17:88:1f:87:a6:39:
                    8f:86:bf:64:c0:c5:44:d0:62:c5:27:28:06:f8:de:
                    99:54:32:33:36:95:a7:7f:39:7b:81:9d:9c:24:4f:
                    af:5d:d9
                Exponent: 65537 (0x10001)
        X509v3 extensions:
            X509v3 Basic Constraints: 
                CA:FALSE
            Netscape Comment: 
                Easy-RSA Generated Certificate
            X509v3 Subject Key Identifier: 
                74:22:F3:8D:A6:92:C7:31:E3:AE:EE:88:0A:1A:71:07:C4:97:42:9A
            X509v3 Authority Key Identifier: 
                keyid:EF:38:8D:14:50:58:A7:5B:4D:9C:17:72:FC:DF:B9:AC:A7:51:B0:10
                DirName:/C=US/ST=CA/L=SanFrancisco/O=Pixglo, Inc./OU=VPN-CIE/CN=tunnel.pixglo.com/name=Bala Chandrasekaran/emailAddress=bala@pixglo.com
                serial:A6:DB:C6:83:80:E6:A0:79

            X509v3 Extended Key Usage: 
                TLS Web Client Authentication
            X509v3 Key Usage: 
                Digital Signature
    Signature Algorithm: sha1WithRSAEncryption
         3d:c0:ea:b6:c1:b9:26:37:a4:61:93:c4:71:ef:62:70:ec:41:
         53:8a:de:1e:b9:a6:8c:0b:41:58:74:cf:06:b9:79:09:62:8f:
         bf:a5:07:3c:27:8c:8e:37:03:73:3d:85:87:22:4b:f8:24:1c:
         95:8b:87:be:c9:ac:75:f6:8a:a1:fd:18:f9:68:51:05:75:db:
         ae:7d:b8:29:e3:e3:65:a7:1e:44:09:47:a9:2a:3a:64:37:c0:
         5e:e5:8e:90:19:c6:dd:56:06:ce:b3:f5:dc:92:7c:e4:0b:6e:
         c1:38:12:5e:05:75:29:eb:62:98:62:54:31:c9:73:ae:55:f8:
         bf:0c:fc:88:a0:ae:82:d9:ee:b4:be:7e:58:59:cd:d2:ab:d4:
         48:7f:77:ab:03:9c:57:67:21:e4:42:14:a4:17:45:42:53:9c:
         3b:38:85:08:2c:51:90:2b:9e:b9:2d:eb:49:f0:e5:33:75:33:
         e9:51:3e:e7:8f:67:8c:f7:45:00:70:69:eb:52:0f:86:e2:a1:
         be:1c:19:c3:81:4f:62:1d:5f:35:b0:24:73:41:a4:3d:04:35:
         37:60:d5:b2:0b:2e:84:5b:60:5f:ad:c9:19:47:71:69:88:f6:
         1d:cd:09:84:68:d1:7b:1a:ec:97:e3:1e:ba:26:40:f0:63:7b:
         28:63:54:33:11:ca:75:36:8d:5a:d3:c8:e5:a5:19:bd:c0:41:
         60:e4:89:7d:79:0d:d8:7f:03:fd:73:e7:00:37:68:56:b4:c1:
         8d:63:e1:fe:1c:97:81:c7:ff:b0:58:c5:b8:cc:9e:75:2e:94:
         a8:6c:4f:4c:ed:17:11:76:25:dd:72:18:fe:6a:f1:e1:14:89:
         77:07:51:d8:5a:01:67:de:f3:66:78:f8:0d:63:37:cc:3f:8e:
         9e:e4:58:51:c1:27:55:22:8c:ab:16:78:ff:b8:33:99:77:84:
         0b:63:89:ac:4c:2f:78:02:a4:6c:da:6b:4a:35:f8:db:07:d9:
         33:d3:a4:db:b0:50:01:e4:08:3f:0a:7f:f9:50:af:67:f9:66:
         fe:63:bd:68:ea:8e:b5:7f:94:a4:e8:33:b5:6e:82:30:b2:ff:
         db:2d:23:10:ab:70:e6:49:37:2c:29:18:71:a7:a2:4c:11:9c:
         ef:de:7d:9e:e1:a1:d2:e6:0a:28:2e:13:f3:1f:38:e5:3e:28:
         58:b7:cf:85:e3:e5:4f:40:b8:01:f1:1c:b7:f5:26:a6:61:e4:
         91:c3:57:cb:ae:8a:bd:27:24:2e:14:4f:4a:e4:d3:3f:ef:b1:
         3e:9d:62:6f:42:84:5d:ed:2f:fa:19:3c:5f:8b:d5:5f:ff:49:
         b0:bd:1a:0f:a6:9c:d9:54
-----BEGIN CERTIFICATE-----
MIIHRzCCBS+gAwIBAgIBcTANBgkqhkiG9w0BAQUFADCBtDELMAkGA1UEBhMCVVMx
CzAJBgNVBAgTAkNBMRUwEwYDVQQHEwxTYW5GcmFuY2lzY28xFTATBgNVBAoTDFBp
eGdsbywgSW5jLjEQMA4GA1UECxMHVlBOLUNJRTEaMBgGA1UEAxMRdHVubmVsLnBp
eGdsby5jb20xHDAaBgNVBCkTE0JhbGEgQ2hhbmRyYXNla2FyYW4xHjAcBgkqhkiG
9w0BCQEWD2JhbGFAcGl4Z2xvLmNvbTAeFw0xODAyMTQwNjI1NTBaFw0yODAyMTIw
NjI1NTBaMIGpMQswCQYDVQQGEwJVUzELMAkGA1UECBMCQ0ExFTATBgNVBAcTDFNh
bkZyYW5jaXNjbzEVMBMGA1UEChMMUGl4Z2xvLCBJbmMuMRAwDgYDVQQLEwdWUE4t
Q0lFMQ8wDQYDVQQDEwZjaWUxMTIxHDAaBgNVBCkTE0JhbGEgQ2hhbmRyYXNla2Fy
YW4xHjAcBgkqhkiG9w0BCQEWD2JhbGFAcGl4Z2xvLmNvbTCCAiIwDQYJKoZIhvcN
AQEBBQADggIPADCCAgoCggIBANAHIs3309ImxPGajQfWcszJeb931tW5UZSVUDJc
p44+fmbNNUpoZVcB59tQbonMsxvEf3I8ttgixsExTOO2+odJL5TtOeYw+2zzISik
wMp3t0vNBh/q1JoenPJhIqU2YosUk2E7BVVPd+9dqWIodIOEcDaCk/98JXxKn2c3
MCCYMmMT+43AUEAsKbCvgmAeZFRKDnvXKfvwBHaXTgZXr2xGL+F7b5b41U7GtFd3
EJJ9ntl1rh43aUFk6Qjzn8DvVxmcli3+crUWfYQIDmdFFdfrmIfS5L51iq3fNwmR
xqTTas+uS4VakkaD+JjkzCBFZl+Z3UuGW5DANAKghCrk77gMCvZRmesegrogscdO
6z+CF8+aW1MlZoElWgROynv1i3mXYLZpy7fm11Ycc6APbSinGL3jZTMSiIfSWPgU
6DssWQ0YaFmbMwUKH2jySjlq+WIoJtaYBBKe/3XwDDq3AMbybjDrbzNKVTqTLYse
j4Y/1HrW7x6MD3joBsjP/xZ5/AFNwlXCVLsidOvfeV2Qz0N2Q+T/kCbq6CIgyHp+
pKbVN6KBUvipE0uC9ovVSGcTG/o7XwhqKKKBq6MlZLpigfOpEdWWS2QkBSMl5Gjk
1O+S/npL/bI2VyL7F4gfh6Y5j4a/ZMDFRNBixScoBvjemVQyMzaVp385e4GdnCRP
r13ZAgMBAAGjggFrMIIBZzAJBgNVHRMEAjAAMC0GCWCGSAGG+EIBDQQgFh5FYXN5
LVJTQSBHZW5lcmF0ZWQgQ2VydGlmaWNhdGUwHQYDVR0OBBYEFHQi842mkscx467u
iAoacQfEl0KaMIHpBgNVHSMEgeEwgd6AFO84jRRQWKdbTZwXcvzfuaynUbAQoYG6
pIG3MIG0MQswCQYDVQQGEwJVUzELMAkGA1UECBMCQ0ExFTATBgNVBAcTDFNhbkZy
YW5jaXNjbzEVMBMGA1UEChMMUGl4Z2xvLCBJbmMuMRAwDgYDVQQLEwdWUE4tQ0lF
MRowGAYDVQQDExF0dW5uZWwucGl4Z2xvLmNvbTEcMBoGA1UEKRMTQmFsYSBDaGFu
ZHJhc2VrYXJhbjEeMBwGCSqGSIb3DQEJARYPYmFsYUBwaXhnbG8uY29tggkAptvG
g4DmoHkwEwYDVR0lBAwwCgYIKwYBBQUHAwIwCwYDVR0PBAQDAgeAMA0GCSqGSIb3
DQEBBQUAA4ICAQA9wOq2wbkmN6Rhk8Rx72Jw7EFTit4euaaMC0FYdM8GuXkJYo+/
pQc8J4yONwNzPYWHIkv4JByVi4e+yax19oqh/Rj5aFEFdduufbgp4+Nlpx5ECUep
KjpkN8Be5Y6QGcbdVgbOs/XcknzkC27BOBJeBXUp62KYYlQxyXOuVfi/DPyIoK6C
2e60vn5YWc3Sq9RIf3erA5xXZyHkQhSkF0VCU5w7OIUILFGQK565LetJ8OUzdTPp
UT7nj2eM90UAcGnrUg+G4qG+HBnDgU9iHV81sCRzQaQ9BDU3YNWyCy6EW2BfrckZ
R3FpiPYdzQmEaNF7GuyX4x66JkDwY3soY1QzEcp1No1a08jlpRm9wEFg5Il9eQ3Y
fwP9c+cAN2hWtMGNY+H+HJeBx/+wWMW4zJ51LpSobE9M7RcRdiXdchj+avHhFIl3
B1HYWgFn3vNmePgNYzfMP46e5FhRwSdVIoyrFnj/uDOZd4QLY4msTC94AqRs2mtK
NfjbB9kz06TbsFAB5Ag/Cn/5UK9n+Wb+Y71o6o61f5Sk6DO1boIwsv/bLSMQq3Dm
STcsKRhxp6JMEZzv3n2e4aHS5gooLhPzHzjlPihYt8+F4+VPQLgB8Ry39SamYeSR
w1fLroq9JyQuFE9K5NM/77E+nWJvQoRd7S/6GTxfi9Vf/0mwvRoPppzZVA==
-----END CERTIFICATE-----
