Certificate:
    Data:
        Version: 3 (0x2)
        Serial Number: 176 (0xb0)
    Signature Algorithm: sha1WithRSAEncryption
        Issuer: C=US, ST=CA, L=SanFrancisco, O=Pixglo, Inc., OU=VPN-CIE, CN=tunnel.pixglo.com/name=Bala Chandrasekaran/emailAddress=bala@pixglo.com
        Validity
            Not Before: Feb 14 06:26:35 2018 GMT
            Not After : Feb 12 06:26:35 2028 GMT
        Subject: C=US, ST=CA, L=SanFrancisco, O=Pixglo, Inc., OU=VPN-CIE, CN=cie175/name=Bala Chandrasekaran/emailAddress=bala@pixglo.com
        Subject Public Key Info:
            Public Key Algorithm: rsaEncryption
                Public-Key: (4096 bit)
                Modulus:
                    00:e3:26:bc:eb:d2:ba:b1:fc:b4:03:4f:04:60:f2:
                    c7:b1:b9:b6:c1:59:d5:73:c0:e7:47:12:67:7c:2e:
                    17:9d:6e:75:b8:02:06:21:04:ba:a4:cf:b6:0d:4b:
                    33:6e:c0:49:62:be:f9:f9:a8:34:2a:e8:2f:d2:cd:
                    c4:f6:fd:c1:ee:79:be:99:bb:4a:45:4e:6a:43:4f:
                    45:71:24:e0:c9:34:d1:0e:d7:29:b4:0e:23:0a:ad:
                    0f:83:c8:05:ac:9c:49:b9:b9:45:2e:76:3a:2e:ac:
                    38:c0:f6:16:bf:62:6f:eb:58:b8:29:03:0f:3a:36:
                    d6:9e:a2:5b:bb:82:fd:1a:5c:79:2c:f1:c1:57:34:
                    32:a8:72:f1:e3:fc:96:66:cd:92:96:58:ee:14:6f:
                    c7:a0:1d:45:b8:19:08:e5:15:20:87:8b:d9:98:41:
                    4e:da:ec:df:7d:32:1b:61:3f:fe:64:51:ae:fd:15:
                    2e:1a:3c:31:d7:81:a8:5b:c6:00:cb:5d:2a:d7:32:
                    76:15:1e:93:0f:0f:ad:f5:67:bd:83:8b:eb:22:65:
                    ef:9b:b1:d6:d1:52:02:be:92:2b:17:82:ce:a4:99:
                    1b:9a:55:8f:fb:75:6e:54:5c:e4:8a:89:3d:b0:c3:
                    20:59:06:89:7e:46:c7:f5:e3:7f:89:b8:76:6c:4d:
                    be:73:f9:4f:f6:c0:e7:1b:fe:c8:5e:72:60:70:f2:
                    33:9a:d9:39:7d:e2:90:57:69:89:cc:c8:ee:2d:28:
                    3a:67:15:c3:d6:e9:3a:d4:c6:da:e9:fb:bf:a8:34:
                    a5:bd:db:0f:61:78:a9:90:a0:f1:6d:6f:4a:3f:e7:
                    d5:1c:da:3e:e2:2b:4f:da:40:cf:0f:c6:79:24:42:
                    83:da:02:19:70:60:c3:4c:16:9b:f9:ba:e3:e3:c9:
                    5b:ba:38:61:1b:d4:3e:07:3a:1b:d2:47:3f:ab:80:
                    4b:b6:aa:85:50:a6:11:30:2e:6c:44:c0:72:8b:9f:
                    7a:8f:0c:90:8f:28:17:e0:d6:08:75:f4:1a:f8:5b:
                    8a:36:0f:8b:1f:4a:46:67:18:83:6e:6f:a4:d2:6a:
                    de:f8:1d:f9:38:b5:38:fc:d6:a4:ad:2b:0d:95:09:
                    f8:87:13:74:2c:95:e3:7e:e3:a1:da:55:ae:7f:ea:
                    60:03:73:8f:a0:fc:35:23:95:30:aa:56:b1:52:04:
                    41:53:60:5d:46:c8:9d:95:52:89:0b:2f:78:9c:f6:
                    b9:c6:25:5b:4f:dc:23:cd:9f:d1:b4:05:2d:01:5a:
                    c9:47:5f:e2:e9:a5:e2:65:e2:4d:19:02:eb:b8:88:
                    9e:58:b0:da:60:10:05:c9:6a:ca:f3:9a:e5:85:f5:
                    33:bf:85
                Exponent: 65537 (0x10001)
        X509v3 extensions:
            X509v3 Basic Constraints: 
                CA:FALSE
            Netscape Comment: 
                Easy-RSA Generated Certificate
            X509v3 Subject Key Identifier: 
                2B:DD:D4:F7:3E:14:44:C8:A1:36:4E:D2:D7:E1:D1:67:2F:97:03:74
            X509v3 Authority Key Identifier: 
                keyid:EF:38:8D:14:50:58:A7:5B:4D:9C:17:72:FC:DF:B9:AC:A7:51:B0:10
                DirName:/C=US/ST=CA/L=SanFrancisco/O=Pixglo, Inc./OU=VPN-CIE/CN=tunnel.pixglo.com/name=Bala Chandrasekaran/emailAddress=bala@pixglo.com
                serial:A6:DB:C6:83:80:E6:A0:79

            X509v3 Extended Key Usage: 
                TLS Web Client Authentication
            X509v3 Key Usage: 
                Digital Signature
    Signature Algorithm: sha1WithRSAEncryption
         a4:f8:8d:53:50:2d:f0:3b:0a:9d:bf:8a:db:08:87:4b:a4:e0:
         db:0d:fd:18:6a:c3:22:62:40:5f:fe:47:0a:f0:e6:50:a5:99:
         26:06:c7:5b:2a:89:9a:be:76:e0:86:8f:64:12:ff:6c:5f:ec:
         2e:16:30:45:79:80:53:14:f2:80:db:4b:6f:de:f2:ae:3e:51:
         9c:9b:76:92:6b:47:3e:56:3b:31:d0:58:db:0c:f7:cd:b4:51:
         60:3e:f4:72:23:32:2f:c0:dd:92:20:82:b9:42:fb:6a:6e:8f:
         64:4f:65:1e:33:bb:2b:a9:6c:f3:b6:11:06:c8:ad:d4:95:c8:
         1f:cd:c8:5c:b5:eb:64:c0:1a:02:63:61:2b:28:d1:bb:cc:8d:
         e6:52:5e:36:16:49:d8:1a:db:c1:9a:e6:a8:52:9a:9c:a2:07:
         81:19:10:c8:ef:8a:bd:c5:38:52:f6:6c:77:6b:08:8e:05:d2:
         4a:bf:ac:52:7a:11:75:64:e0:2a:7a:b9:bb:51:7b:ef:8d:5f:
         bc:00:1d:30:c4:f7:b3:6b:46:48:ce:7f:e0:f4:48:39:36:73:
         83:c1:3d:56:fb:0e:92:8e:12:85:02:c9:b3:5d:93:de:ab:3e:
         1f:7a:d9:c7:a2:1c:f4:20:c7:ee:2c:24:e1:9d:b3:23:eb:06:
         c5:7f:a3:3d:bb:ac:ba:1f:45:bc:32:86:af:3e:8d:b1:6a:98:
         2f:c5:2e:03:3a:92:0a:8b:67:34:ec:70:8b:32:a9:df:32:40:
         43:9c:3f:42:27:db:a6:e5:49:6f:bc:b9:d7:9d:be:3f:26:b0:
         1a:13:2f:f8:03:34:e0:04:2d:90:86:93:41:ef:69:d2:a0:5c:
         0b:9d:a4:b2:6d:d9:0e:70:95:a0:21:ec:69:41:b4:7f:9d:51:
         4c:43:4c:38:3c:46:cb:4d:59:8b:dd:26:06:3a:59:dd:ab:c0:
         2a:04:43:fa:8e:4f:76:f7:fb:41:e2:f0:72:f2:ab:a6:d2:99:
         41:b9:46:e9:c8:f5:8f:61:a0:de:fa:20:d1:d4:09:51:26:16:
         ad:51:3f:82:66:c0:44:03:c0:af:7b:40:c7:cf:46:cd:42:44:
         22:73:c9:fe:12:a9:7f:c8:3d:56:23:ec:db:f8:90:0f:15:03:
         ea:b3:c0:ff:34:07:be:56:fc:f7:95:20:36:8a:76:34:10:02:
         e0:6a:93:2b:84:1d:f7:fb:ff:b8:bc:c1:5a:3a:73:82:8a:ca:
         b6:d4:46:4b:dd:ef:fe:85:90:94:cc:f0:2a:14:25:02:b4:da:
         e2:46:46:e9:f0:3b:84:0e:fb:0f:fe:a0:13:86:1b:0e:72:b4:
         24:98:fd:4e:a9:ba:05:c9
-----BEGIN CERTIFICATE-----
MIIHSDCCBTCgAwIBAgICALAwDQYJKoZIhvcNAQEFBQAwgbQxCzAJBgNVBAYTAlVT
MQswCQYDVQQIEwJDQTEVMBMGA1UEBxMMU2FuRnJhbmNpc2NvMRUwEwYDVQQKEwxQ
aXhnbG8sIEluYy4xEDAOBgNVBAsTB1ZQTi1DSUUxGjAYBgNVBAMTEXR1bm5lbC5w
aXhnbG8uY29tMRwwGgYDVQQpExNCYWxhIENoYW5kcmFzZWthcmFuMR4wHAYJKoZI
hvcNAQkBFg9iYWxhQHBpeGdsby5jb20wHhcNMTgwMjE0MDYyNjM1WhcNMjgwMjEy
MDYyNjM1WjCBqTELMAkGA1UEBhMCVVMxCzAJBgNVBAgTAkNBMRUwEwYDVQQHEwxT
YW5GcmFuY2lzY28xFTATBgNVBAoTDFBpeGdsbywgSW5jLjEQMA4GA1UECxMHVlBO
LUNJRTEPMA0GA1UEAxMGY2llMTc1MRwwGgYDVQQpExNCYWxhIENoYW5kcmFzZWth
cmFuMR4wHAYJKoZIhvcNAQkBFg9iYWxhQHBpeGdsby5jb20wggIiMA0GCSqGSIb3
DQEBAQUAA4ICDwAwggIKAoICAQDjJrzr0rqx/LQDTwRg8sexubbBWdVzwOdHEmd8
LhedbnW4AgYhBLqkz7YNSzNuwElivvn5qDQq6C/SzcT2/cHueb6Zu0pFTmpDT0Vx
JODJNNEO1ym0DiMKrQ+DyAWsnEm5uUUudjourDjA9ha/Ym/rWLgpAw86Ntaeolu7
gv0aXHks8cFXNDKocvHj/JZmzZKWWO4Ub8egHUW4GQjlFSCHi9mYQU7a7N99Mhth
P/5kUa79FS4aPDHXgahbxgDLXSrXMnYVHpMPD631Z72Di+siZe+bsdbRUgK+kisX
gs6kmRuaVY/7dW5UXOSKiT2wwyBZBol+Rsf143+JuHZsTb5z+U/2wOcb/shecmBw
8jOa2Tl94pBXaYnMyO4tKDpnFcPW6TrUxtrp+7+oNKW92w9heKmQoPFtb0o/59Uc
2j7iK0/aQM8PxnkkQoPaAhlwYMNMFpv5uuPjyVu6OGEb1D4HOhvSRz+rgEu2qoVQ
phEwLmxEwHKLn3qPDJCPKBfg1gh19Br4W4o2D4sfSkZnGINub6TSat74Hfk4tTj8
1qStKw2VCfiHE3QsleN+46HaVa5/6mADc4+g/DUjlTCqVrFSBEFTYF1GyJ2VUokL
L3ic9rnGJVtP3CPNn9G0BS0BWslHX+LppeJl4k0ZAuu4iJ5YsNpgEAXJasrzmuWF
9TO/hQIDAQABo4IBazCCAWcwCQYDVR0TBAIwADAtBglghkgBhvhCAQ0EIBYeRWFz
eS1SU0EgR2VuZXJhdGVkIENlcnRpZmljYXRlMB0GA1UdDgQWBBQr3dT3PhREyKE2
TtLX4dFnL5cDdDCB6QYDVR0jBIHhMIHegBTvOI0UUFinW02cF3L837msp1GwEKGB
uqSBtzCBtDELMAkGA1UEBhMCVVMxCzAJBgNVBAgTAkNBMRUwEwYDVQQHEwxTYW5G
cmFuY2lzY28xFTATBgNVBAoTDFBpeGdsbywgSW5jLjEQMA4GA1UECxMHVlBOLUNJ
RTEaMBgGA1UEAxMRdHVubmVsLnBpeGdsby5jb20xHDAaBgNVBCkTE0JhbGEgQ2hh
bmRyYXNla2FyYW4xHjAcBgkqhkiG9w0BCQEWD2JhbGFAcGl4Z2xvLmNvbYIJAKbb
xoOA5qB5MBMGA1UdJQQMMAoGCCsGAQUFBwMCMAsGA1UdDwQEAwIHgDANBgkqhkiG
9w0BAQUFAAOCAgEApPiNU1At8DsKnb+K2wiHS6Tg2w39GGrDImJAX/5HCvDmUKWZ
JgbHWyqJmr524IaPZBL/bF/sLhYwRXmAUxTygNtLb97yrj5RnJt2kmtHPlY7MdBY
2wz3zbRRYD70ciMyL8DdkiCCuUL7am6PZE9lHjO7K6ls87YRBsit1JXIH83IXLXr
ZMAaAmNhKyjRu8yN5lJeNhZJ2BrbwZrmqFKanKIHgRkQyO+KvcU4UvZsd2sIjgXS
Sr+sUnoRdWTgKnq5u1F7741fvAAdMMT3s2tGSM5/4PRIOTZzg8E9VvsOko4ShQLJ
s12T3qs+H3rZx6Ic9CDH7iwk4Z2zI+sGxX+jPbusuh9FvDKGrz6NsWqYL8UuAzqS
CotnNOxwizKp3zJAQ5w/QifbpuVJb7y5152+PyawGhMv+AM04AQtkIaTQe9p0qBc
C52ksm3ZDnCVoCHsaUG0f51RTENMODxGy01Zi90mBjpZ3avAKgRD+o5Pdvf7QeLw
cvKrptKZQblG6cj1j2Gg3vog0dQJUSYWrVE/gmbARAPAr3tAx89GzUJEInPJ/hKp
f8g9ViPs2/iQDxUD6rPA/zQHvlb895UgNop2NBAC4GqTK4Qd9/v/uLzBWjpzgorK
ttRGS93v/oWQlMzwKhQlArTa4kZG6fA7hA77D/6gE4YbDnK0JJj9Tqm6Bck=
-----END CERTIFICATE-----
