Certificate:
    Data:
        Version: 3 (0x2)
        Serial Number: 110 (0x6e)
    Signature Algorithm: sha1WithRSAEncryption
        Issuer: C=US, ST=CA, L=SanFrancisco, O=Pixglo, Inc., OU=VPN-CIE, CN=tunnel.pixglo.com/name=Bala Chandrasekaran/emailAddress=bala@pixglo.com
        Validity
            Not Before: Feb 14 06:25:48 2018 GMT
            Not After : Feb 12 06:25:48 2028 GMT
        Subject: C=US, ST=CA, L=SanFrancisco, O=Pixglo, Inc., OU=VPN-CIE, CN=cie109/name=Bala Chandrasekaran/emailAddress=bala@pixglo.com
        Subject Public Key Info:
            Public Key Algorithm: rsaEncryption
                Public-Key: (4096 bit)
                Modulus:
                    00:c8:19:76:33:92:a2:b0:98:4e:c3:aa:53:2d:83:
                    4c:5c:43:9e:aa:56:3b:e9:f7:b4:1f:b1:5a:94:f8:
                    2d:f9:1b:b6:c5:b2:56:70:6c:5c:bb:b2:72:45:a5:
                    f1:f4:40:6c:1c:dd:b1:29:39:57:3e:80:11:02:77:
                    40:82:07:e8:05:05:49:c4:08:88:ba:d8:eb:a8:c5:
                    aa:3f:3f:aa:a8:d1:2f:a3:75:e6:34:85:a8:8d:a0:
                    2e:bb:74:f3:39:4b:47:b0:90:b7:4b:5f:27:28:94:
                    32:e1:5c:f3:cb:03:b7:3f:1f:d3:ed:4a:e3:f6:77:
                    4d:94:d4:39:5d:0a:9b:b2:6c:c5:42:52:27:48:2a:
                    cb:41:13:16:70:8a:f0:33:97:88:90:39:d9:6a:54:
                    42:7a:b3:82:22:eb:37:15:83:8d:1f:f8:6f:47:70:
                    9b:74:9d:0c:40:f7:5b:f4:21:a6:25:33:ec:80:b7:
                    f8:c9:ca:d4:f6:22:a3:8d:93:80:66:e2:b8:01:99:
                    2d:cd:fd:4f:0b:d9:f6:72:a7:82:42:72:c7:52:ea:
                    6c:e9:b8:1e:7b:46:d3:40:b6:2a:59:12:80:d0:f2:
                    44:af:a4:08:57:9c:4d:fe:6d:0d:2b:1f:1a:3d:27:
                    9e:cd:8c:df:c3:bb:6d:91:fe:5e:6f:88:10:b9:4b:
                    4e:c7:94:9f:b5:33:08:e0:29:8e:7c:57:e6:37:b6:
                    79:bf:b5:94:e8:ce:d5:3f:57:64:3d:40:28:d3:8e:
                    9d:b5:e9:f7:11:7e:7f:76:46:53:aa:c7:47:4f:77:
                    4a:a4:2f:3e:48:fa:61:17:49:b5:3a:31:86:49:4d:
                    7e:45:ab:43:27:d5:32:16:1e:1a:e6:e8:01:6b:eb:
                    9e:46:f7:17:e0:6f:e5:98:74:fa:9a:1c:cc:9a:1f:
                    88:d4:9e:c4:c2:e2:82:a3:27:88:61:e5:a6:02:56:
                    17:d7:ee:9f:7f:2c:64:6f:34:6e:6b:aa:05:bd:96:
                    fa:1c:11:9d:e7:39:d1:37:9b:01:0a:bf:c0:ff:5f:
                    a2:85:50:92:43:f9:f4:f0:02:47:60:1e:52:b6:c8:
                    ab:28:3f:aa:7e:73:24:e8:f1:40:12:6b:81:50:89:
                    1e:bc:c9:b0:85:7d:a0:4d:dc:e2:29:65:91:71:0a:
                    2f:5f:c4:21:53:35:5d:66:39:e9:0f:cd:50:34:50:
                    4b:be:c8:63:88:7e:af:e7:b9:c9:65:a7:ba:9c:ac:
                    36:2b:74:45:cf:86:ff:82:77:31:40:5d:57:15:1e:
                    1e:80:a2:52:8b:17:18:e9:cf:7c:a7:4b:ce:74:0c:
                    f2:8f:52:77:c5:5c:d4:58:5b:6e:10:99:84:f0:78:
                    c3:80:b5
                Exponent: 65537 (0x10001)
        X509v3 extensions:
            X509v3 Basic Constraints: 
                CA:FALSE
            Netscape Comment: 
                Easy-RSA Generated Certificate
            X509v3 Subject Key Identifier: 
                9D:46:4F:06:01:EB:52:C1:B1:5D:66:D8:AA:C9:96:F5:39:4C:D4:C3
            X509v3 Authority Key Identifier: 
                keyid:EF:38:8D:14:50:58:A7:5B:4D:9C:17:72:FC:DF:B9:AC:A7:51:B0:10
                DirName:/C=US/ST=CA/L=SanFrancisco/O=Pixglo, Inc./OU=VPN-CIE/CN=tunnel.pixglo.com/name=Bala Chandrasekaran/emailAddress=bala@pixglo.com
                serial:A6:DB:C6:83:80:E6:A0:79

            X509v3 Extended Key Usage: 
                TLS Web Client Authentication
            X509v3 Key Usage: 
                Digital Signature
    Signature Algorithm: sha1WithRSAEncryption
         b5:78:35:4a:bb:c9:9b:9b:43:7b:38:96:52:62:0f:52:b9:f2:
         3e:b8:02:17:16:66:27:2b:3c:87:37:94:5b:e2:7b:ec:cf:14:
         a6:ad:11:9b:49:b8:f6:e1:c0:ce:fd:f6:e2:54:4b:0e:47:55:
         9e:b9:ab:38:3e:9d:36:5a:d0:f6:dc:77:e2:a7:38:2e:92:f6:
         95:48:66:a9:45:b2:00:6a:4d:cd:e9:1d:12:22:39:56:5b:58:
         b9:e1:95:08:44:b2:58:a4:db:12:37:c4:c1:ad:e9:c4:2c:af:
         28:96:cf:4c:94:3a:8c:c6:8c:d3:1d:26:33:10:94:41:8f:ea:
         ac:18:7d:15:ef:96:e7:f5:75:aa:c2:8b:f7:67:a7:24:2b:6f:
         06:bf:cf:3d:a2:5d:56:f7:3e:f9:4a:db:b1:cb:e6:42:90:25:
         f8:12:62:a6:3d:ba:77:c6:a3:3b:91:4c:c5:40:28:4b:fb:23:
         c6:8b:34:62:b9:dc:ac:7b:7b:b5:07:a4:a3:00:1b:89:3f:44:
         f4:a9:ec:02:76:f9:2e:81:69:90:0d:59:3d:11:b1:80:a7:23:
         fc:4a:21:0e:bb:47:dc:35:2e:bc:fa:d8:60:3a:7d:78:fd:67:
         6e:ef:6e:d2:a6:a5:51:cc:a9:c4:59:73:6d:12:ab:cb:aa:55:
         5b:ac:c6:bd:2b:d6:01:3e:77:25:fc:83:da:18:1e:c0:d9:56:
         98:06:9c:ef:3c:f8:2f:06:69:f2:b8:ce:86:39:61:3e:14:5b:
         bc:9f:59:c1:ef:54:ea:f0:11:b1:39:5a:4b:9e:21:a5:c9:7a:
         40:8b:31:fc:27:4a:73:4b:df:48:08:ba:51:d6:86:1f:72:5a:
         b6:54:62:5c:dc:fe:00:0d:17:2d:c5:ad:ff:78:c1:0a:77:d9:
         50:c5:2b:23:33:c6:00:5f:00:8d:f4:69:04:5d:1d:ff:86:b7:
         03:72:0b:cb:1a:b3:03:ee:b6:69:d5:c2:38:e7:85:4d:89:ca:
         e2:90:88:40:b3:0a:4a:94:f9:d9:13:b6:09:b8:d1:a5:21:23:
         ed:58:e7:18:9c:0f:d2:14:6c:ee:d4:fd:cc:b7:00:2c:20:7f:
         0a:9e:d7:20:30:8a:97:86:c8:d1:97:66:60:1f:7e:69:59:bf:
         1b:9a:20:f6:17:fe:57:c0:ed:6d:66:28:8d:e6:a3:38:3f:f6:
         5f:80:af:04:d5:31:0a:cb:b2:7a:bc:84:b0:3d:9d:fe:a1:a8:
         d5:c9:91:f8:91:1d:56:54:bb:b2:88:20:50:48:55:56:d1:92:
         40:f5:55:f7:5f:07:06:e2:72:bd:1b:50:0f:94:e1:fb:56:31:
         c4:23:b8:bf:19:44:36:8d
-----BEGIN CERTIFICATE-----
MIIHRzCCBS+gAwIBAgIBbjANBgkqhkiG9w0BAQUFADCBtDELMAkGA1UEBhMCVVMx
CzAJBgNVBAgTAkNBMRUwEwYDVQQHEwxTYW5GcmFuY2lzY28xFTATBgNVBAoTDFBp
eGdsbywgSW5jLjEQMA4GA1UECxMHVlBOLUNJRTEaMBgGA1UEAxMRdHVubmVsLnBp
eGdsby5jb20xHDAaBgNVBCkTE0JhbGEgQ2hhbmRyYXNla2FyYW4xHjAcBgkqhkiG
9w0BCQEWD2JhbGFAcGl4Z2xvLmNvbTAeFw0xODAyMTQwNjI1NDhaFw0yODAyMTIw
NjI1NDhaMIGpMQswCQYDVQQGEwJVUzELMAkGA1UECBMCQ0ExFTATBgNVBAcTDFNh
bkZyYW5jaXNjbzEVMBMGA1UEChMMUGl4Z2xvLCBJbmMuMRAwDgYDVQQLEwdWUE4t
Q0lFMQ8wDQYDVQQDEwZjaWUxMDkxHDAaBgNVBCkTE0JhbGEgQ2hhbmRyYXNla2Fy
YW4xHjAcBgkqhkiG9w0BCQEWD2JhbGFAcGl4Z2xvLmNvbTCCAiIwDQYJKoZIhvcN
AQEBBQADggIPADCCAgoCggIBAMgZdjOSorCYTsOqUy2DTFxDnqpWO+n3tB+xWpT4
LfkbtsWyVnBsXLuyckWl8fRAbBzdsSk5Vz6AEQJ3QIIH6AUFScQIiLrY66jFqj8/
qqjRL6N15jSFqI2gLrt08zlLR7CQt0tfJyiUMuFc88sDtz8f0+1K4/Z3TZTUOV0K
m7JsxUJSJ0gqy0ETFnCK8DOXiJA52WpUQnqzgiLrNxWDjR/4b0dwm3SdDED3W/Qh
piUz7IC3+MnK1PYio42TgGbiuAGZLc39TwvZ9nKngkJyx1LqbOm4HntG00C2KlkS
gNDyRK+kCFecTf5tDSsfGj0nns2M38O7bZH+Xm+IELlLTseUn7UzCOApjnxX5je2
eb+1lOjO1T9XZD1AKNOOnbXp9xF+f3ZGU6rHR093SqQvPkj6YRdJtToxhklNfkWr
QyfVMhYeGuboAWvrnkb3F+Bv5Zh0+poczJofiNSexMLigqMniGHlpgJWF9fun38s
ZG80bmuqBb2W+hwRnec50TebAQq/wP9fooVQkkP59PACR2AeUrbIqyg/qn5zJOjx
QBJrgVCJHrzJsIV9oE3c4illkXEKL1/EIVM1XWY56Q/NUDRQS77IY4h+r+e5yWWn
upysNit0Rc+G/4J3MUBdVxUeHoCiUosXGOnPfKdLznQM8o9Sd8Vc1FhbbhCZhPB4
w4C1AgMBAAGjggFrMIIBZzAJBgNVHRMEAjAAMC0GCWCGSAGG+EIBDQQgFh5FYXN5
LVJTQSBHZW5lcmF0ZWQgQ2VydGlmaWNhdGUwHQYDVR0OBBYEFJ1GTwYB61LBsV1m
2KrJlvU5TNTDMIHpBgNVHSMEgeEwgd6AFO84jRRQWKdbTZwXcvzfuaynUbAQoYG6
pIG3MIG0MQswCQYDVQQGEwJVUzELMAkGA1UECBMCQ0ExFTATBgNVBAcTDFNhbkZy
YW5jaXNjbzEVMBMGA1UEChMMUGl4Z2xvLCBJbmMuMRAwDgYDVQQLEwdWUE4tQ0lF
MRowGAYDVQQDExF0dW5uZWwucGl4Z2xvLmNvbTEcMBoGA1UEKRMTQmFsYSBDaGFu
ZHJhc2VrYXJhbjEeMBwGCSqGSIb3DQEJARYPYmFsYUBwaXhnbG8uY29tggkAptvG
g4DmoHkwEwYDVR0lBAwwCgYIKwYBBQUHAwIwCwYDVR0PBAQDAgeAMA0GCSqGSIb3
DQEBBQUAA4ICAQC1eDVKu8mbm0N7OJZSYg9SufI+uAIXFmYnKzyHN5Rb4nvszxSm
rRGbSbj24cDO/fbiVEsOR1Weuas4Pp02WtD23HfipzgukvaVSGapRbIAak3N6R0S
IjlWW1i54ZUIRLJYpNsSN8TBrenELK8ols9MlDqMxozTHSYzEJRBj+qsGH0V75bn
9XWqwov3Z6ckK28Gv889ol1W9z75Stuxy+ZCkCX4EmKmPbp3xqM7kUzFQChL+yPG
izRiudyse3u1B6SjABuJP0T0qewCdvkugWmQDVk9EbGApyP8SiEOu0fcNS68+thg
On14/Wdu727SpqVRzKnEWXNtEqvLqlVbrMa9K9YBPncl/IPaGB7A2VaYBpzvPPgv
BmnyuM6GOWE+FFu8n1nB71Tq8BGxOVpLniGlyXpAizH8J0pzS99ICLpR1oYfclq2
VGJc3P4ADRctxa3/eMEKd9lQxSsjM8YAXwCN9GkEXR3/hrcDcgvLGrMD7rZp1cI4
54VNicrikIhAswpKlPnZE7YJuNGlISPtWOcYnA/SFGzu1P3MtwAsIH8KntcgMIqX
hsjRl2ZgH35pWb8bmiD2F/5XwO1tZiiN5qM4P/ZfgK8E1TEKy7J6vISwPZ3+oajV
yZH4kR1WVLuyiCBQSFVW0ZJA9VX3XwcG4nK9G1APlOH7VjHEI7i/GUQ2jQ==
-----END CERTIFICATE-----
