Certificate:
    Data:
        Version: 3 (0x2)
        Serial Number: 188 (0xbc)
    Signature Algorithm: sha1WithRSAEncryption
        Issuer: C=US, ST=CA, L=SanFrancisco, O=Pixglo, Inc., OU=VPN-CIE, CN=tunnel.pixglo.com/name=Bala Chandrasekaran/emailAddress=bala@pixglo.com
        Validity
            Not Before: Feb 14 06:26:46 2018 GMT
            Not After : Feb 12 06:26:46 2028 GMT
        Subject: C=US, ST=CA, L=SanFrancisco, O=Pixglo, Inc., OU=VPN-CIE, CN=cie187/name=Bala Chandrasekaran/emailAddress=bala@pixglo.com
        Subject Public Key Info:
            Public Key Algorithm: rsaEncryption
                Public-Key: (4096 bit)
                Modulus:
                    00:ad:2c:75:48:f6:73:65:25:25:cc:0c:07:ca:52:
                    87:b2:f3:8b:ae:2d:97:93:6c:ea:e7:9d:0c:a5:1e:
                    1a:06:85:ad:da:90:ae:20:d4:83:e3:b0:5a:49:17:
                    78:c7:c9:8c:3c:3e:85:08:51:e8:3a:0b:98:67:77:
                    da:d4:84:e9:ce:37:44:a8:dd:82:fd:93:6e:64:a6:
                    1a:52:ec:7c:39:c2:1e:2b:c7:b9:d2:5a:88:92:4e:
                    c2:ee:83:13:df:06:af:ff:bc:be:6b:6b:bd:12:95:
                    e3:f4:ac:3a:4b:a3:2c:92:30:5d:cd:d0:3d:35:88:
                    9c:9e:c7:b7:51:7f:7b:c6:65:a7:31:9b:cb:14:2f:
                    b1:63:de:a1:6b:34:47:36:ae:72:81:a8:3c:89:5a:
                    39:44:ee:17:68:4e:d5:9b:b9:9b:37:0a:e7:df:99:
                    c9:89:71:f4:f0:cf:32:16:14:86:33:68:f6:2a:ef:
                    f1:71:18:81:66:a2:03:b8:5f:01:db:5e:59:32:6b:
                    33:a2:8f:fd:c9:18:b5:81:b3:ee:04:85:28:15:09:
                    a8:80:b8:97:ea:fe:15:5b:d8:47:18:cb:71:2e:7a:
                    5c:a9:37:0c:14:40:7b:e2:1d:fc:30:ee:0e:54:cf:
                    ef:09:75:45:9d:d1:34:1f:22:13:a6:f7:8c:40:ce:
                    55:4b:4c:82:c2:b6:84:18:1e:74:63:53:bb:2b:f8:
                    30:26:36:30:18:05:1e:40:8c:b9:f6:d1:b2:cd:d6:
                    35:58:d3:37:b5:97:56:49:6c:e8:94:a1:1f:e7:84:
                    60:63:54:99:f2:05:3c:8a:3e:b5:b9:d5:df:0e:4c:
                    7b:09:f7:1c:7d:fe:ee:d9:80:3e:15:56:16:ef:22:
                    17:85:8d:8d:63:a0:79:d1:75:2d:96:a5:e2:f8:fe:
                    61:9a:5d:a4:76:d4:91:00:72:89:79:d2:81:cb:15:
                    9d:e7:fd:8c:33:d3:c9:fd:4b:43:26:29:f3:19:71:
                    ff:d6:a9:94:55:87:38:bf:7a:8c:3c:71:8a:b9:ec:
                    6a:c2:d7:4f:2e:06:eb:62:af:cd:10:31:dd:60:d6:
                    b0:4c:a8:34:7c:28:99:ed:58:12:27:00:6c:a7:f4:
                    b1:16:9c:3e:40:9a:04:5e:6e:34:88:d6:d3:3e:85:
                    de:da:9c:2f:d1:e6:22:39:cc:58:0f:b3:51:2a:25:
                    5c:ff:f4:ce:fe:21:b0:02:81:a2:2b:b8:f8:50:b4:
                    f2:93:2b:97:2c:67:b7:53:07:3e:4f:d1:e9:06:62:
                    70:31:9d:fa:cb:19:bb:ba:3e:a0:d6:0f:af:54:57:
                    fb:40:0c:1e:8a:e3:2d:a8:48:fd:d1:38:02:66:62:
                    cc:8c:77
                Exponent: 65537 (0x10001)
        X509v3 extensions:
            X509v3 Basic Constraints: 
                CA:FALSE
            Netscape Comment: 
                Easy-RSA Generated Certificate
            X509v3 Subject Key Identifier: 
                2C:3F:60:03:41:F7:7E:E5:F9:72:A7:8C:ED:7C:B7:C2:65:B9:E7:95
            X509v3 Authority Key Identifier: 
                keyid:EF:38:8D:14:50:58:A7:5B:4D:9C:17:72:FC:DF:B9:AC:A7:51:B0:10
                DirName:/C=US/ST=CA/L=SanFrancisco/O=Pixglo, Inc./OU=VPN-CIE/CN=tunnel.pixglo.com/name=Bala Chandrasekaran/emailAddress=bala@pixglo.com
                serial:A6:DB:C6:83:80:E6:A0:79

            X509v3 Extended Key Usage: 
                TLS Web Client Authentication
            X509v3 Key Usage: 
                Digital Signature
    Signature Algorithm: sha1WithRSAEncryption
         87:7b:b5:ab:61:80:7d:08:35:73:ca:5b:89:e5:1c:34:8e:07:
         4d:0b:d5:67:2a:10:7f:af:36:49:b6:cd:00:1f:ec:02:b7:e8:
         17:e9:c9:71:28:aa:e8:40:70:63:e4:44:e2:fa:ea:fe:32:71:
         3a:92:3a:f6:f6:30:da:80:38:40:a7:67:6d:35:cf:42:f9:94:
         d1:a7:ac:bc:0b:89:2a:a2:00:21:5f:4c:a8:00:cd:d2:70:48:
         47:d4:17:65:44:cc:4a:fa:65:b2:42:6e:4a:c3:fa:70:52:6b:
         38:a7:e3:30:da:f1:16:c2:e5:79:89:16:97:e7:da:88:b0:9c:
         35:c4:84:99:2e:03:cf:9e:34:5f:e1:db:0d:d9:fe:7b:2b:cb:
         55:22:f8:af:e3:a8:1d:fb:cf:0a:fe:bc:c1:c3:c6:93:93:89:
         dd:23:2d:06:f4:70:08:80:76:5e:3c:38:cb:2a:9b:36:a2:c7:
         67:dd:7a:9e:ae:63:f0:72:2f:e1:7b:47:0a:e8:1a:d6:63:c3:
         f5:c5:f7:52:fe:6f:9f:9c:24:9f:b5:25:3c:07:24:a2:50:ef:
         86:db:87:61:79:4e:a1:3d:8d:c9:15:99:c3:6c:c0:01:6f:9b:
         f0:ce:fb:a2:a1:eb:d6:f9:47:e7:ee:f9:cf:05:0a:01:2a:63:
         6a:af:29:34:25:0f:ce:f2:79:1a:b3:4c:b9:98:be:6c:3d:6b:
         e9:72:b9:88:dc:70:1f:04:db:d9:a6:ea:5e:05:dd:12:85:35:
         9e:cc:6a:12:c9:a3:08:3f:32:19:ec:d7:d4:6f:33:8d:f0:ec:
         50:5f:73:02:0c:95:1c:90:3f:44:43:27:91:aa:d9:a5:3e:f3:
         ce:b9:f4:e5:ae:31:5b:43:a3:9b:ff:e7:c4:c3:12:bf:31:81:
         d2:0c:38:d1:b4:d9:58:f9:11:16:e5:63:1f:f7:8b:9a:e1:aa:
         6e:0a:ec:5f:42:ba:7a:56:70:85:5a:a5:53:93:9e:7d:8f:64:
         dd:01:d3:18:87:56:15:c2:4d:4d:fe:4b:9e:7b:d8:96:97:ab:
         60:df:ba:32:ec:43:51:7a:31:97:86:c6:1c:49:18:3a:94:87:
         b6:15:37:5d:58:3f:12:38:5b:7f:2e:25:e0:5d:d6:f5:5e:44:
         7b:eb:e5:68:9e:8d:1e:b5:a7:fb:60:76:87:73:c9:be:bf:21:
         3d:c8:03:24:a8:92:f1:42:3b:37:fc:f2:cb:dc:c1:c1:d0:96:
         44:27:68:d0:ae:97:cc:d5:f2:46:92:24:39:ab:cd:1e:50:84:
         7b:19:f7:37:95:55:6c:0a:ab:2c:7d:82:2f:b8:21:f8:42:d2:
         71:92:77:45:f7:96:0b:ac
-----BEGIN CERTIFICATE-----
MIIHSDCCBTCgAwIBAgICALwwDQYJKoZIhvcNAQEFBQAwgbQxCzAJBgNVBAYTAlVT
MQswCQYDVQQIEwJDQTEVMBMGA1UEBxMMU2FuRnJhbmNpc2NvMRUwEwYDVQQKEwxQ
aXhnbG8sIEluYy4xEDAOBgNVBAsTB1ZQTi1DSUUxGjAYBgNVBAMTEXR1bm5lbC5w
aXhnbG8uY29tMRwwGgYDVQQpExNCYWxhIENoYW5kcmFzZWthcmFuMR4wHAYJKoZI
hvcNAQkBFg9iYWxhQHBpeGdsby5jb20wHhcNMTgwMjE0MDYyNjQ2WhcNMjgwMjEy
MDYyNjQ2WjCBqTELMAkGA1UEBhMCVVMxCzAJBgNVBAgTAkNBMRUwEwYDVQQHEwxT
YW5GcmFuY2lzY28xFTATBgNVBAoTDFBpeGdsbywgSW5jLjEQMA4GA1UECxMHVlBO
LUNJRTEPMA0GA1UEAxMGY2llMTg3MRwwGgYDVQQpExNCYWxhIENoYW5kcmFzZWth
cmFuMR4wHAYJKoZIhvcNAQkBFg9iYWxhQHBpeGdsby5jb20wggIiMA0GCSqGSIb3
DQEBAQUAA4ICDwAwggIKAoICAQCtLHVI9nNlJSXMDAfKUoey84uuLZeTbOrnnQyl
HhoGha3akK4g1IPjsFpJF3jHyYw8PoUIUeg6C5hnd9rUhOnON0So3YL9k25kphpS
7Hw5wh4rx7nSWoiSTsLugxPfBq//vL5ra70SleP0rDpLoyySMF3N0D01iJyex7dR
f3vGZacxm8sUL7Fj3qFrNEc2rnKBqDyJWjlE7hdoTtWbuZs3CuffmcmJcfTwzzIW
FIYzaPYq7/FxGIFmogO4XwHbXlkyazOij/3JGLWBs+4EhSgVCaiAuJfq/hVb2EcY
y3EuelypNwwUQHviHfww7g5Uz+8JdUWd0TQfIhOm94xAzlVLTILCtoQYHnRjU7sr
+DAmNjAYBR5AjLn20bLN1jVY0ze1l1ZJbOiUoR/nhGBjVJnyBTyKPrW51d8OTHsJ
9xx9/u7ZgD4VVhbvIheFjY1joHnRdS2WpeL4/mGaXaR21JEAcol50oHLFZ3n/Ywz
08n9S0MmKfMZcf/WqZRVhzi/eow8cYq57GrC108uButir80QMd1g1rBMqDR8KJnt
WBInAGyn9LEWnD5AmgRebjSI1tM+hd7anC/R5iI5zFgPs1EqJVz/9M7+IbACgaIr
uPhQtPKTK5csZ7dTBz5P0ekGYnAxnfrLGbu6PqDWD69UV/tADB6K4y2oSP3ROAJm
YsyMdwIDAQABo4IBazCCAWcwCQYDVR0TBAIwADAtBglghkgBhvhCAQ0EIBYeRWFz
eS1SU0EgR2VuZXJhdGVkIENlcnRpZmljYXRlMB0GA1UdDgQWBBQsP2ADQfd+5fly
p4ztfLfCZbnnlTCB6QYDVR0jBIHhMIHegBTvOI0UUFinW02cF3L837msp1GwEKGB
uqSBtzCBtDELMAkGA1UEBhMCVVMxCzAJBgNVBAgTAkNBMRUwEwYDVQQHEwxTYW5G
cmFuY2lzY28xFTATBgNVBAoTDFBpeGdsbywgSW5jLjEQMA4GA1UECxMHVlBOLUNJ
RTEaMBgGA1UEAxMRdHVubmVsLnBpeGdsby5jb20xHDAaBgNVBCkTE0JhbGEgQ2hh
bmRyYXNla2FyYW4xHjAcBgkqhkiG9w0BCQEWD2JhbGFAcGl4Z2xvLmNvbYIJAKbb
xoOA5qB5MBMGA1UdJQQMMAoGCCsGAQUFBwMCMAsGA1UdDwQEAwIHgDANBgkqhkiG
9w0BAQUFAAOCAgEAh3u1q2GAfQg1c8pbieUcNI4HTQvVZyoQf682SbbNAB/sArfo
F+nJcSiq6EBwY+RE4vrq/jJxOpI69vYw2oA4QKdnbTXPQvmU0aesvAuJKqIAIV9M
qADN0nBIR9QXZUTMSvplskJuSsP6cFJrOKfjMNrxFsLleYkWl+faiLCcNcSEmS4D
z540X+HbDdn+eyvLVSL4r+OoHfvPCv68wcPGk5OJ3SMtBvRwCIB2Xjw4yyqbNqLH
Z916nq5j8HIv4XtHCuga1mPD9cX3Uv5vn5wkn7UlPAckolDvhtuHYXlOoT2NyRWZ
w2zAAW+b8M77oqHr1vlH5+75zwUKASpjaq8pNCUPzvJ5GrNMuZi+bD1r6XK5iNxw
HwTb2abqXgXdEoU1nsxqEsmjCD8yGezX1G8zjfDsUF9zAgyVHJA/REMnkarZpT7z
zrn05a4xW0Ojm//nxMMSvzGB0gw40bTZWPkRFuVjH/eLmuGqbgrsX0K6elZwhVql
U5OefY9k3QHTGIdWFcJNTf5LnnvYlperYN+6MuxDUXoxl4bGHEkYOpSHthU3XVg/
Ejhbfy4l4F3W9V5Ee+vlaJ6NHrWn+2B2h3PJvr8hPcgDJKiS8UI7N/zyy9zBwdCW
RCdo0K6XzNXyRpIkOavNHlCEexn3N5VVbAqrLH2CL7gh+ELScZJ3RfeWC6w=
-----END CERTIFICATE-----
