Certificate:
    Data:
        Version: 3 (0x2)
        Serial Number: 170 (0xaa)
    Signature Algorithm: sha1WithRSAEncryption
        Issuer: C=US, ST=CA, L=SanFrancisco, O=Pixglo, Inc., OU=VPN-CIE, CN=tunnel.pixglo.com/name=Bala Chandrasekaran/emailAddress=bala@pixglo.com
        Validity
            Not Before: Feb 14 06:26:31 2018 GMT
            Not After : Feb 12 06:26:31 2028 GMT
        Subject: C=US, ST=CA, L=SanFrancisco, O=Pixglo, Inc., OU=VPN-CIE, CN=cie169/name=Bala Chandrasekaran/emailAddress=bala@pixglo.com
        Subject Public Key Info:
            Public Key Algorithm: rsaEncryption
                Public-Key: (4096 bit)
                Modulus:
                    00:cf:35:15:b2:f2:be:24:84:35:d4:22:01:71:a7:
                    75:fe:e2:84:d6:03:72:b3:fe:12:3e:53:cd:5a:64:
                    14:ff:53:ce:5b:a3:fa:6b:51:b5:8a:7f:5c:22:89:
                    99:17:42:6e:36:01:ee:c9:9b:7b:e8:14:c2:83:9e:
                    4d:f5:92:6b:45:5d:df:8b:18:26:f5:7c:a6:58:c5:
                    93:80:50:29:25:d2:61:e7:d8:61:a5:2d:d3:b2:d8:
                    fe:16:18:f8:d4:3e:ef:2a:08:5b:15:bf:bb:6a:f8:
                    70:d1:77:13:e6:3b:b9:29:10:d5:ca:89:19:5c:b1:
                    d8:db:17:ba:f7:78:31:dd:38:fb:20:b0:e6:e8:44:
                    fa:87:18:e9:eb:26:16:59:f5:0f:fb:70:ae:d7:02:
                    31:79:2b:44:fe:39:88:39:27:b4:45:a4:39:76:74:
                    36:2c:e2:ef:34:c7:13:ae:b0:04:de:2d:2f:9d:15:
                    ea:86:00:a9:7b:4f:91:06:e4:3b:0f:86:f6:53:20:
                    cf:ff:77:db:64:21:76:78:e9:d1:12:25:96:21:85:
                    01:9a:40:0c:d5:21:89:98:6b:bb:7b:da:ee:dd:18:
                    ac:00:12:6a:6f:9f:1d:18:b0:cc:e7:75:c3:d3:2f:
                    21:c1:5d:ef:78:80:d8:3c:e9:b6:da:e6:8d:c2:a9:
                    8f:f2:93:fa:61:c7:4b:48:51:83:e8:05:e5:9e:e5:
                    ce:7b:b7:7a:83:2a:bb:55:a1:c2:14:35:28:eb:a8:
                    9b:f5:00:65:1a:e8:4e:f7:5e:ee:d1:62:03:02:90:
                    14:c0:21:d0:1d:8b:54:38:51:93:d9:51:b0:33:b6:
                    e3:1b:7a:8b:f0:b2:22:eb:89:f7:b3:c9:b2:d1:4a:
                    14:51:74:5c:00:b5:cd:b0:8d:a5:d0:77:48:24:8e:
                    fd:d1:52:27:4f:67:f5:06:b2:f8:77:43:75:2c:a5:
                    c0:0b:8f:85:e9:b5:95:8e:9b:26:a1:d1:fc:af:9e:
                    f4:51:df:cb:4b:33:a6:2c:ea:79:67:ec:7e:a3:de:
                    b2:ba:6c:12:8f:3b:53:d5:ff:fe:33:dc:ad:ae:01:
                    8a:94:c4:3a:c8:2a:cb:b0:1b:a4:13:7c:37:d9:dc:
                    2b:d7:ae:bd:48:97:6a:b8:d8:31:80:ad:9b:ce:b0:
                    97:16:e8:0d:ca:ef:82:5f:24:d7:81:a5:45:35:9b:
                    1e:b5:f8:9e:02:ee:07:9a:8f:4f:e7:a1:f6:c1:c1:
                    74:69:6f:f3:5c:46:fa:69:0d:a9:a5:49:43:b9:57:
                    20:ab:6c:88:32:9f:d2:cc:d7:58:aa:0f:96:92:69:
                    e1:7d:fc:ec:61:e5:2a:c0:75:5f:19:e6:9e:ab:75:
                    3e:c8:4d
                Exponent: 65537 (0x10001)
        X509v3 extensions:
            X509v3 Basic Constraints: 
                CA:FALSE
            Netscape Comment: 
                Easy-RSA Generated Certificate
            X509v3 Subject Key Identifier: 
                1F:5C:C4:68:D5:CE:28:0F:4F:AB:50:36:0F:27:5B:5A:29:44:99:A4
            X509v3 Authority Key Identifier: 
                keyid:EF:38:8D:14:50:58:A7:5B:4D:9C:17:72:FC:DF:B9:AC:A7:51:B0:10
                DirName:/C=US/ST=CA/L=SanFrancisco/O=Pixglo, Inc./OU=VPN-CIE/CN=tunnel.pixglo.com/name=Bala Chandrasekaran/emailAddress=bala@pixglo.com
                serial:A6:DB:C6:83:80:E6:A0:79

            X509v3 Extended Key Usage: 
                TLS Web Client Authentication
            X509v3 Key Usage: 
                Digital Signature
    Signature Algorithm: sha1WithRSAEncryption
         d0:71:83:9e:ec:32:c0:3c:16:a0:1a:50:8a:d7:df:db:52:d4:
         19:33:de:17:38:fc:57:a7:5e:65:ce:94:92:33:fe:e4:c0:c1:
         15:21:cf:ab:d6:23:f8:f5:2b:38:79:65:2d:cd:60:4f:c5:79:
         af:33:54:f4:af:02:d2:cd:a7:93:b5:e4:c5:5e:61:2d:40:a5:
         98:0a:ce:3d:6a:ff:2f:0d:52:cc:b6:7c:7b:35:51:5c:ed:a6:
         01:6d:10:e1:ba:1e:6c:d0:ff:07:5c:63:3f:cb:6b:50:b8:87:
         09:b4:9d:55:27:89:82:5a:03:49:8d:67:2a:08:10:d2:51:e4:
         57:92:1e:b4:d1:4e:24:ab:34:8c:56:99:a5:65:47:c0:cf:ac:
         f8:48:07:78:53:74:01:bd:88:0e:6f:f1:f7:1a:9c:40:81:f0:
         00:ce:7d:65:8b:e3:76:67:83:de:5f:51:5a:a1:34:cb:a6:69:
         4a:b7:35:cd:cb:6a:78:2c:81:3d:f7:68:2c:fc:a0:e7:30:20:
         88:1f:b1:bc:90:78:be:3d:ac:74:83:fb:aa:c2:34:e9:75:a4:
         98:16:e5:89:bd:6c:b6:d5:c2:71:0c:b1:aa:c0:78:2c:d7:bd:
         00:c8:58:4d:10:4d:4e:16:1f:ec:ad:31:f5:72:b9:b1:4e:5e:
         c3:e7:e1:0d:74:87:eb:05:b0:85:be:8c:8a:78:b1:1e:9c:66:
         e9:9f:03:29:81:e7:5f:75:b7:b5:d6:a0:df:33:86:44:3f:a0:
         1d:6e:e3:48:8e:64:0f:24:20:6b:c7:6f:68:75:6e:df:89:f2:
         28:68:60:94:e4:dc:03:21:d6:ed:18:b0:53:4f:ed:2b:ef:45:
         8b:c1:b9:63:da:a5:87:c0:70:de:d9:6a:d7:be:40:a9:fa:aa:
         2b:8b:89:15:63:93:03:49:fd:f0:9e:49:3a:cb:14:37:db:74:
         44:44:26:a0:94:a7:4f:ff:ca:2e:71:f2:2d:38:f0:7a:57:04:
         94:c3:e4:57:d3:d5:48:32:c9:ac:82:1b:1e:68:6d:e0:58:80:
         9f:21:18:52:61:34:0c:2d:bd:8e:57:90:76:e7:75:a7:60:51:
         94:5b:c8:6a:f1:35:95:15:41:67:48:b8:35:e6:74:a1:fd:f5:
         24:81:e4:02:40:65:87:2b:b3:42:bc:74:b5:2f:b8:cc:e7:d6:
         88:8f:aa:88:3e:94:83:af:cb:99:fb:20:4b:bb:05:05:dc:1b:
         94:56:f2:dc:66:1c:e9:87:33:9f:9f:77:0c:c1:d9:2e:ad:9a:
         14:49:3e:67:5f:5b:e9:01:84:a9:ae:d9:88:88:3f:d3:5f:bc:
         b2:c8:3a:dd:87:18:c5:60
-----BEGIN CERTIFICATE-----
MIIHSDCCBTCgAwIBAgICAKowDQYJKoZIhvcNAQEFBQAwgbQxCzAJBgNVBAYTAlVT
MQswCQYDVQQIEwJDQTEVMBMGA1UEBxMMU2FuRnJhbmNpc2NvMRUwEwYDVQQKEwxQ
aXhnbG8sIEluYy4xEDAOBgNVBAsTB1ZQTi1DSUUxGjAYBgNVBAMTEXR1bm5lbC5w
aXhnbG8uY29tMRwwGgYDVQQpExNCYWxhIENoYW5kcmFzZWthcmFuMR4wHAYJKoZI
hvcNAQkBFg9iYWxhQHBpeGdsby5jb20wHhcNMTgwMjE0MDYyNjMxWhcNMjgwMjEy
MDYyNjMxWjCBqTELMAkGA1UEBhMCVVMxCzAJBgNVBAgTAkNBMRUwEwYDVQQHEwxT
YW5GcmFuY2lzY28xFTATBgNVBAoTDFBpeGdsbywgSW5jLjEQMA4GA1UECxMHVlBO
LUNJRTEPMA0GA1UEAxMGY2llMTY5MRwwGgYDVQQpExNCYWxhIENoYW5kcmFzZWth
cmFuMR4wHAYJKoZIhvcNAQkBFg9iYWxhQHBpeGdsby5jb20wggIiMA0GCSqGSIb3
DQEBAQUAA4ICDwAwggIKAoICAQDPNRWy8r4khDXUIgFxp3X+4oTWA3Kz/hI+U81a
ZBT/U85bo/prUbWKf1wiiZkXQm42Ae7Jm3voFMKDnk31kmtFXd+LGCb1fKZYxZOA
UCkl0mHn2GGlLdOy2P4WGPjUPu8qCFsVv7tq+HDRdxPmO7kpENXKiRlcsdjbF7r3
eDHdOPsgsOboRPqHGOnrJhZZ9Q/7cK7XAjF5K0T+OYg5J7RFpDl2dDYs4u80xxOu
sATeLS+dFeqGAKl7T5EG5DsPhvZTIM//d9tkIXZ46dESJZYhhQGaQAzVIYmYa7t7
2u7dGKwAEmpvnx0YsMzndcPTLyHBXe94gNg86bba5o3CqY/yk/phx0tIUYPoBeWe
5c57t3qDKrtVocIUNSjrqJv1AGUa6E73Xu7RYgMCkBTAIdAdi1Q4UZPZUbAztuMb
eovwsiLrifezybLRShRRdFwAtc2wjaXQd0gkjv3RUidPZ/UGsvh3Q3UspcALj4Xp
tZWOmyah0fyvnvRR38tLM6Ys6nln7H6j3rK6bBKPO1PV//4z3K2uAYqUxDrIKsuw
G6QTfDfZ3CvXrr1Il2q42DGArZvOsJcW6A3K74JfJNeBpUU1mx61+J4C7geaj0/n
ofbBwXRpb/NcRvppDamlSUO5VyCrbIgyn9LM11iqD5aSaeF9/Oxh5SrAdV8Z5p6r
dT7ITQIDAQABo4IBazCCAWcwCQYDVR0TBAIwADAtBglghkgBhvhCAQ0EIBYeRWFz
eS1SU0EgR2VuZXJhdGVkIENlcnRpZmljYXRlMB0GA1UdDgQWBBQfXMRo1c4oD0+r
UDYPJ1taKUSZpDCB6QYDVR0jBIHhMIHegBTvOI0UUFinW02cF3L837msp1GwEKGB
uqSBtzCBtDELMAkGA1UEBhMCVVMxCzAJBgNVBAgTAkNBMRUwEwYDVQQHEwxTYW5G
cmFuY2lzY28xFTATBgNVBAoTDFBpeGdsbywgSW5jLjEQMA4GA1UECxMHVlBOLUNJ
RTEaMBgGA1UEAxMRdHVubmVsLnBpeGdsby5jb20xHDAaBgNVBCkTE0JhbGEgQ2hh
bmRyYXNla2FyYW4xHjAcBgkqhkiG9w0BCQEWD2JhbGFAcGl4Z2xvLmNvbYIJAKbb
xoOA5qB5MBMGA1UdJQQMMAoGCCsGAQUFBwMCMAsGA1UdDwQEAwIHgDANBgkqhkiG
9w0BAQUFAAOCAgEA0HGDnuwywDwWoBpQitff21LUGTPeFzj8V6deZc6UkjP+5MDB
FSHPq9Yj+PUrOHllLc1gT8V5rzNU9K8C0s2nk7XkxV5hLUClmArOPWr/Lw1SzLZ8
ezVRXO2mAW0Q4boebND/B1xjP8trULiHCbSdVSeJgloDSY1nKggQ0lHkV5IetNFO
JKs0jFaZpWVHwM+s+EgHeFN0Ab2IDm/x9xqcQIHwAM59ZYvjdmeD3l9RWqE0y6Zp
Src1zctqeCyBPfdoLPyg5zAgiB+xvJB4vj2sdIP7qsI06XWkmBblib1sttXCcQyx
qsB4LNe9AMhYTRBNThYf7K0x9XK5sU5ew+fhDXSH6wWwhb6MinixHpxm6Z8DKYHn
X3W3tdag3zOGRD+gHW7jSI5kDyQga8dvaHVu34nyKGhglOTcAyHW7RiwU0/tK+9F
i8G5Y9qlh8Bw3tlq175AqfqqK4uJFWOTA0n98J5JOssUN9t0REQmoJSnT//KLnHy
LTjwelcElMPkV9PVSDLJrIIbHmht4FiAnyEYUmE0DC29jleQdud1p2BRlFvIavE1
lRVBZ0i4NeZ0of31JIHkAkBlhyuzQrx0tS+4zOfWiI+qiD6Ug6/LmfsgS7sFBdwb
lFby3GYc6Yczn593DMHZLq2aFEk+Z19b6QGEqa7ZiIg/01+8ssg63YcYxWA=
-----END CERTIFICATE-----
