Certificate:
    Data:
        Version: 3 (0x2)
        Serial Number: 106 (0x6a)
    Signature Algorithm: sha1WithRSAEncryption
        Issuer: C=US, ST=CA, L=SanFrancisco, O=Pixglo, Inc., OU=VPN-CIE, CN=tunnel.pixglo.com/name=Bala Chandrasekaran/emailAddress=bala@pixglo.com
        Validity
            Not Before: Feb 14 06:25:44 2018 GMT
            Not After : Feb 12 06:25:44 2028 GMT
        Subject: C=US, ST=CA, L=SanFrancisco, O=Pixglo, Inc., OU=VPN-CIE, CN=cie105/name=Bala Chandrasekaran/emailAddress=bala@pixglo.com
        Subject Public Key Info:
            Public Key Algorithm: rsaEncryption
                Public-Key: (4096 bit)
                Modulus:
                    00:e5:a1:e0:ae:de:f4:33:ce:11:2b:9e:21:8a:db:
                    05:31:e3:71:75:eb:a0:6d:40:da:f1:49:77:0a:cb:
                    92:ca:eb:f6:84:ab:94:4b:a7:44:a3:37:ea:b3:69:
                    2b:63:d8:9f:e8:d9:cb:3f:93:80:5b:4b:85:0b:a9:
                    e7:0b:13:ac:ae:4d:56:55:f1:2e:ef:dc:98:3c:84:
                    18:bf:7f:b3:a4:cb:e1:75:b8:52:8c:08:9a:66:2c:
                    94:f7:38:d9:de:f6:03:24:61:dc:66:a3:cc:f0:2e:
                    bd:66:47:e6:6a:18:86:d4:1b:60:0d:c9:ed:bf:9a:
                    ce:f9:c9:b7:6d:58:d9:77:99:93:e3:67:18:51:37:
                    42:99:b7:f7:7e:59:56:fb:46:e6:4a:df:5c:76:b4:
                    24:db:82:4f:78:f8:66:16:34:1d:48:a0:71:97:1a:
                    30:05:e7:45:3e:6a:48:bf:a7:82:97:a2:f5:7f:b8:
                    6f:ba:7a:50:8e:05:1d:46:68:3a:b8:13:58:82:df:
                    cc:e2:5b:63:3a:eb:22:02:14:96:33:c4:cc:57:e8:
                    a7:f5:6d:03:ad:82:a1:dd:49:9a:c7:40:cd:16:e0:
                    d0:03:55:d3:dd:73:ce:47:bf:64:4b:f6:6b:8d:84:
                    b0:30:b8:1b:92:23:b8:f6:b2:c2:1d:67:ce:4c:77:
                    00:1a:b5:60:4b:11:21:2c:3d:ed:ae:25:29:fd:e9:
                    26:78:e5:30:66:84:75:e6:61:b9:18:26:9e:28:e2:
                    4f:fd:18:24:18:87:ad:3b:b6:9a:56:5d:c9:8b:12:
                    e8:48:31:c8:99:da:5d:6b:51:65:b2:0b:33:45:93:
                    c5:9a:32:fa:ba:e9:9e:ec:9c:96:90:da:52:cb:00:
                    3a:fb:41:a8:0f:85:ec:a4:b5:e9:8d:ab:d4:2b:9e:
                    19:d0:cd:68:92:a1:75:ab:16:49:14:15:04:b9:0c:
                    db:5f:8f:32:88:cc:f4:e4:89:ea:68:d6:b7:9b:b4:
                    88:6e:ea:97:69:aa:5a:e6:4d:cd:12:66:78:85:8c:
                    12:c6:ca:90:55:2b:ce:33:06:5f:cf:51:2b:60:14:
                    fa:4d:15:24:01:cb:93:ef:96:3d:31:7c:76:69:ba:
                    64:5a:0a:c2:5f:c7:95:8b:72:09:0f:16:38:e1:d1:
                    d3:f4:7a:7d:26:25:6c:19:49:4f:32:3f:4f:b8:ca:
                    4b:73:b0:fe:6d:d6:26:07:1f:52:3f:9b:45:ff:d0:
                    80:6e:e4:7a:5f:26:2b:63:c0:50:a3:5c:d3:29:cb:
                    18:8b:a3:19:ba:21:a7:19:22:e8:4e:76:b4:75:cb:
                    eb:79:a7:37:c7:a1:8a:7d:ba:cf:7b:15:66:bc:0a:
                    4e:45:7d
                Exponent: 65537 (0x10001)
        X509v3 extensions:
            X509v3 Basic Constraints: 
                CA:FALSE
            Netscape Comment: 
                Easy-RSA Generated Certificate
            X509v3 Subject Key Identifier: 
                AC:98:2B:F0:9F:65:66:0A:1D:85:AD:AF:D6:8E:62:53:00:4C:DB:54
            X509v3 Authority Key Identifier: 
                keyid:EF:38:8D:14:50:58:A7:5B:4D:9C:17:72:FC:DF:B9:AC:A7:51:B0:10
                DirName:/C=US/ST=CA/L=SanFrancisco/O=Pixglo, Inc./OU=VPN-CIE/CN=tunnel.pixglo.com/name=Bala Chandrasekaran/emailAddress=bala@pixglo.com
                serial:A6:DB:C6:83:80:E6:A0:79

            X509v3 Extended Key Usage: 
                TLS Web Client Authentication
            X509v3 Key Usage: 
                Digital Signature
    Signature Algorithm: sha1WithRSAEncryption
         42:57:11:7e:d1:1d:95:33:c2:21:f8:5b:24:94:c2:4a:42:7b:
         12:a5:ee:49:2f:15:04:11:06:07:2d:0f:ea:12:59:4d:9b:c6:
         b6:e4:05:91:84:28:67:a1:f0:78:10:23:ec:83:f1:0d:c0:73:
         59:06:e8:38:f7:5f:3e:4a:5a:5d:07:7d:44:62:fd:bf:09:6a:
         16:91:c3:6c:27:5e:eb:73:89:a0:00:1c:03:ef:71:f1:69:ed:
         ee:8f:7d:aa:97:96:51:f8:ba:4b:05:2d:14:ea:dc:d3:90:02:
         76:f9:7c:85:34:42:99:06:78:b7:78:f5:dc:82:c7:b5:e7:c6:
         a3:2e:21:b4:9d:56:cd:d8:c8:bb:c6:d7:18:3b:be:76:b1:9e:
         e5:67:2e:0c:2c:43:ab:72:b1:a5:5a:e0:4b:3e:5f:25:92:a1:
         e4:8c:f0:29:39:60:5f:1f:61:16:5b:41:b6:a9:4a:f4:ee:10:
         36:94:00:03:eb:65:85:22:4d:27:65:4c:aa:2e:f0:29:26:61:
         82:04:6e:83:20:2f:e7:21:ad:80:49:f8:69:2f:e1:9b:6e:81:
         f3:7f:22:b1:b7:70:9e:a1:eb:64:d4:ba:82:b0:c1:b3:d3:4f:
         bd:bc:1a:92:49:49:cb:2b:36:c7:29:aa:fa:23:0f:95:13:f4:
         cc:1f:e7:53:83:07:d8:2b:3c:95:f4:f7:b2:33:42:7c:eb:95:
         1a:60:30:94:13:8a:68:a3:f2:7d:30:ca:9b:30:4a:80:d2:13:
         f4:a4:0d:4c:0e:4f:10:a1:38:d8:2e:1a:83:71:69:ea:0e:fc:
         66:bf:34:09:94:92:42:5f:b0:6b:67:a9:28:d9:d5:06:fc:62:
         ec:7a:bd:4f:1c:90:c2:07:a0:2b:29:92:67:63:ef:5d:10:29:
         8a:32:83:41:b0:2d:b5:86:ab:ba:73:de:99:dc:61:1f:6d:48:
         81:33:90:41:f3:28:d8:0c:5e:89:cd:30:c1:8f:db:fa:12:d8:
         9e:fa:e4:ae:47:fa:97:f1:83:35:71:60:a7:7d:3c:6e:01:43:
         61:e8:18:b7:ba:03:b1:a0:e8:20:f4:0e:0d:0c:09:a9:2a:29:
         e2:19:30:74:83:e9:82:85:c1:b4:a7:a8:b5:0f:1c:9c:2c:02:
         f6:48:cf:b5:01:bf:f0:8d:71:d0:af:b1:3f:68:b6:a2:fb:3c:
         57:d2:eb:eb:82:bf:e6:75:4d:79:ad:b0:06:1b:64:d9:fc:af:
         dc:86:1f:a5:ea:27:5e:61:60:0d:4c:27:3d:ae:72:14:ad:6e:
         a9:eb:17:63:49:06:2f:97:ba:ec:13:22:b9:c9:35:ab:2f:f5:
         04:ef:6e:7d:e9:46:20:91
-----BEGIN CERTIFICATE-----
MIIHRzCCBS+gAwIBAgIBajANBgkqhkiG9w0BAQUFADCBtDELMAkGA1UEBhMCVVMx
CzAJBgNVBAgTAkNBMRUwEwYDVQQHEwxTYW5GcmFuY2lzY28xFTATBgNVBAoTDFBp
eGdsbywgSW5jLjEQMA4GA1UECxMHVlBOLUNJRTEaMBgGA1UEAxMRdHVubmVsLnBp
eGdsby5jb20xHDAaBgNVBCkTE0JhbGEgQ2hhbmRyYXNla2FyYW4xHjAcBgkqhkiG
9w0BCQEWD2JhbGFAcGl4Z2xvLmNvbTAeFw0xODAyMTQwNjI1NDRaFw0yODAyMTIw
NjI1NDRaMIGpMQswCQYDVQQGEwJVUzELMAkGA1UECBMCQ0ExFTATBgNVBAcTDFNh
bkZyYW5jaXNjbzEVMBMGA1UEChMMUGl4Z2xvLCBJbmMuMRAwDgYDVQQLEwdWUE4t
Q0lFMQ8wDQYDVQQDEwZjaWUxMDUxHDAaBgNVBCkTE0JhbGEgQ2hhbmRyYXNla2Fy
YW4xHjAcBgkqhkiG9w0BCQEWD2JhbGFAcGl4Z2xvLmNvbTCCAiIwDQYJKoZIhvcN
AQEBBQADggIPADCCAgoCggIBAOWh4K7e9DPOESueIYrbBTHjcXXroG1A2vFJdwrL
ksrr9oSrlEunRKM36rNpK2PYn+jZyz+TgFtLhQup5wsTrK5NVlXxLu/cmDyEGL9/
s6TL4XW4UowImmYslPc42d72AyRh3GajzPAuvWZH5moYhtQbYA3J7b+azvnJt21Y
2XeZk+NnGFE3Qpm3935ZVvtG5krfXHa0JNuCT3j4ZhY0HUigcZcaMAXnRT5qSL+n
gpei9X+4b7p6UI4FHUZoOrgTWILfzOJbYzrrIgIUljPEzFfop/VtA62Cod1JmsdA
zRbg0ANV091zzke/ZEv2a42EsDC4G5IjuPaywh1nzkx3ABq1YEsRISw97a4lKf3p
JnjlMGaEdeZhuRgmnijiT/0YJBiHrTu2mlZdyYsS6EgxyJnaXWtRZbILM0WTxZoy
+rrpnuyclpDaUssAOvtBqA+F7KS16Y2r1CueGdDNaJKhdasWSRQVBLkM21+PMojM
9OSJ6mjWt5u0iG7ql2mqWuZNzRJmeIWMEsbKkFUrzjMGX89RK2AU+k0VJAHLk++W
PTF8dmm6ZFoKwl/HlYtyCQ8WOOHR0/R6fSYlbBlJTzI/T7jKS3Ow/m3WJgcfUj+b
Rf/QgG7kel8mK2PAUKNc0ynLGIujGbohpxki6E52tHXL63mnN8ehin26z3sVZrwK
TkV9AgMBAAGjggFrMIIBZzAJBgNVHRMEAjAAMC0GCWCGSAGG+EIBDQQgFh5FYXN5
LVJTQSBHZW5lcmF0ZWQgQ2VydGlmaWNhdGUwHQYDVR0OBBYEFKyYK/CfZWYKHYWt
r9aOYlMATNtUMIHpBgNVHSMEgeEwgd6AFO84jRRQWKdbTZwXcvzfuaynUbAQoYG6
pIG3MIG0MQswCQYDVQQGEwJVUzELMAkGA1UECBMCQ0ExFTATBgNVBAcTDFNhbkZy
YW5jaXNjbzEVMBMGA1UEChMMUGl4Z2xvLCBJbmMuMRAwDgYDVQQLEwdWUE4tQ0lF
MRowGAYDVQQDExF0dW5uZWwucGl4Z2xvLmNvbTEcMBoGA1UEKRMTQmFsYSBDaGFu
ZHJhc2VrYXJhbjEeMBwGCSqGSIb3DQEJARYPYmFsYUBwaXhnbG8uY29tggkAptvG
g4DmoHkwEwYDVR0lBAwwCgYIKwYBBQUHAwIwCwYDVR0PBAQDAgeAMA0GCSqGSIb3
DQEBBQUAA4ICAQBCVxF+0R2VM8Ih+FsklMJKQnsSpe5JLxUEEQYHLQ/qEllNm8a2
5AWRhChnofB4ECPsg/ENwHNZBug4918+SlpdB31EYv2/CWoWkcNsJ17rc4mgABwD
73Hxae3uj32ql5ZR+LpLBS0U6tzTkAJ2+XyFNEKZBni3ePXcgse158ajLiG0nVbN
2Mi7xtcYO752sZ7lZy4MLEOrcrGlWuBLPl8lkqHkjPApOWBfH2EWW0G2qUr07hA2
lAAD62WFIk0nZUyqLvApJmGCBG6DIC/nIa2ASfhpL+GbboHzfyKxt3Ceoetk1LqC
sMGz00+9vBqSSUnLKzbHKar6Iw+VE/TMH+dTgwfYKzyV9PeyM0J865UaYDCUE4po
o/J9MMqbMEqA0hP0pA1MDk8QoTjYLhqDcWnqDvxmvzQJlJJCX7BrZ6ko2dUG/GLs
er1PHJDCB6ArKZJnY+9dECmKMoNBsC21hqu6c96Z3GEfbUiBM5BB8yjYDF6JzTDB
j9v6Etie+uSuR/qX8YM1cWCnfTxuAUNh6Bi3ugOxoOgg9A4NDAmpKiniGTB0g+mC
hcG0p6i1DxycLAL2SM+1Ab/wjXHQr7E/aLai+zxX0uvrgr/mdU15rbAGG2TZ/K/c
hh+l6ideYWANTCc9rnIUrW6p6xdjSQYvl7rsEyK5yTWrL/UE72596UYgkQ==
-----END CERTIFICATE-----
