Certificate:
    Data:
        Version: 3 (0x2)
        Serial Number: 152 (0x98)
    Signature Algorithm: sha1WithRSAEncryption
        Issuer: C=US, ST=CA, L=SanFrancisco, O=Pixglo, Inc., OU=VPN-CIE, CN=tunnel.pixglo.com/name=Bala Chandrasekaran/emailAddress=bala@pixglo.com
        Validity
            Not Before: Feb 14 06:26:17 2018 GMT
            Not After : Feb 12 06:26:17 2028 GMT
        Subject: C=US, ST=CA, L=SanFrancisco, O=Pixglo, Inc., OU=VPN-CIE, CN=cie151/name=Bala Chandrasekaran/emailAddress=bala@pixglo.com
        Subject Public Key Info:
            Public Key Algorithm: rsaEncryption
                Public-Key: (4096 bit)
                Modulus:
                    00:bb:bc:af:8f:98:8a:d5:68:63:99:3c:3e:df:94:
                    2f:c0:9b:ee:fe:9e:0f:f0:72:3d:a9:b2:76:88:f0:
                    8e:11:50:5a:3c:a4:d9:8c:d7:ad:9d:75:fb:fa:bf:
                    8c:88:1a:95:78:d7:3a:a1:ae:12:58:d0:5f:f6:7d:
                    c8:f7:47:30:8e:d5:82:5b:d2:cd:b4:b0:d2:84:c6:
                    36:89:9d:04:2f:58:dc:be:39:e7:51:2d:95:ad:03:
                    54:a8:5c:f2:7d:3a:f1:58:69:e6:dd:08:eb:2f:ad:
                    7f:68:f4:31:b8:dc:57:70:02:79:cf:bd:7a:d3:88:
                    bc:6b:c8:22:49:2a:2c:3e:dd:2a:2b:58:3d:42:91:
                    14:bb:88:72:84:24:b6:9f:41:84:6f:44:e3:30:5d:
                    f2:dd:43:1a:40:78:0d:ef:b3:55:be:ad:a4:34:61:
                    96:ef:35:56:2a:07:77:14:c9:a3:d8:d9:1e:49:0e:
                    fe:9d:e9:c1:aa:98:2c:7c:b9:ff:1b:2d:18:2e:13:
                    f7:f1:ef:4c:9c:71:79:69:c7:4f:97:6b:73:87:2b:
                    5e:33:38:12:d4:78:5b:70:09:1f:6d:e9:bd:9d:5d:
                    0d:c5:c8:94:eb:0d:eb:de:37:3f:69:85:ef:cc:90:
                    19:49:c7:50:f7:78:fd:4f:ae:8e:89:e1:24:38:3e:
                    5b:25:e2:e3:c9:a1:41:5b:f2:91:f6:27:87:81:a8:
                    31:5a:fa:6a:af:84:74:37:35:0a:26:62:2f:5c:1d:
                    1e:f8:b4:17:25:ce:65:1a:9d:98:41:7e:25:a7:31:
                    80:af:4d:24:86:16:38:3f:cf:14:52:6c:c4:45:13:
                    88:72:40:05:56:27:ed:4c:67:3c:6f:0e:fc:7e:bc:
                    15:45:d9:13:c3:d1:ef:05:dd:ee:ea:77:49:ee:63:
                    08:e5:2f:5b:c4:6b:2b:73:4f:86:94:a5:04:81:77:
                    97:49:62:11:a7:d1:1e:92:7f:5b:a3:21:e8:0c:c7:
                    e9:42:0e:4f:75:21:e1:2e:92:f5:26:dd:f3:13:ee:
                    4f:55:16:16:1f:bb:f6:ec:3c:07:43:e2:91:14:ef:
                    74:35:a7:9a:dc:33:1e:e1:40:b6:44:8d:c6:e6:7d:
                    fe:f3:c9:a1:04:fa:dd:99:2f:8b:d4:ae:de:ad:75:
                    60:28:74:c9:af:15:84:68:18:6e:55:ab:f0:81:89:
                    40:3a:17:3c:04:0b:5a:cf:ef:da:3e:b1:2f:3f:0f:
                    5e:05:af:b6:f5:68:4e:2e:45:db:c1:91:af:28:64:
                    29:b8:8c:4e:ac:d6:6e:cf:92:56:48:e0:22:1e:77:
                    a5:4a:f6:ab:3a:a8:87:f1:a6:74:8b:b3:83:75:52:
                    80:2d:a7
                Exponent: 65537 (0x10001)
        X509v3 extensions:
            X509v3 Basic Constraints: 
                CA:FALSE
            Netscape Comment: 
                Easy-RSA Generated Certificate
            X509v3 Subject Key Identifier: 
                DC:15:A5:40:67:A6:D7:3D:47:4D:59:E0:D4:D9:F0:F4:B5:7A:88:0E
            X509v3 Authority Key Identifier: 
                keyid:EF:38:8D:14:50:58:A7:5B:4D:9C:17:72:FC:DF:B9:AC:A7:51:B0:10
                DirName:/C=US/ST=CA/L=SanFrancisco/O=Pixglo, Inc./OU=VPN-CIE/CN=tunnel.pixglo.com/name=Bala Chandrasekaran/emailAddress=bala@pixglo.com
                serial:A6:DB:C6:83:80:E6:A0:79

            X509v3 Extended Key Usage: 
                TLS Web Client Authentication
            X509v3 Key Usage: 
                Digital Signature
    Signature Algorithm: sha1WithRSAEncryption
         99:84:bb:83:63:3f:91:d8:f1:03:d3:d4:27:85:72:a1:a6:49:
         4e:d3:e1:09:c0:1c:9e:d6:79:54:02:b9:37:07:1d:48:1f:bb:
         b2:7f:9e:c4:d7:fe:fb:a9:14:4e:b1:0c:91:2b:1d:1b:ff:ae:
         86:44:2a:98:17:21:62:5c:dc:5c:60:2e:68:a2:04:86:83:09:
         20:d6:13:c5:d0:a0:10:e2:97:d9:c1:40:af:ed:89:73:75:d8:
         72:b1:ef:23:80:fa:aa:e0:a3:27:8b:4e:36:4e:85:76:04:ed:
         f2:58:a9:3e:1b:cd:ba:76:46:00:fe:d5:81:c5:e8:1e:5f:88:
         77:2f:ad:ae:f6:b3:a7:c6:0e:97:df:a3:33:60:89:2c:8c:9f:
         5c:c0:9d:92:48:d8:88:20:2a:f7:e1:4a:2e:b2:e1:c7:fa:0e:
         d0:c6:e6:29:95:f5:5b:4c:3c:35:d0:e3:d8:d8:88:0d:f3:da:
         4b:45:d5:d3:69:c1:ff:ca:cc:fb:36:dc:33:67:72:ad:07:c7:
         bc:fd:16:bd:67:92:54:73:d6:bc:bd:ae:8b:cd:f8:bc:a7:59:
         57:2c:8d:e5:3f:fb:ae:d0:36:5f:79:44:47:fa:22:46:47:a5:
         fb:1a:28:46:21:57:b7:89:c0:bf:5f:34:d2:98:69:03:aa:d3:
         6d:6e:22:5b:90:0a:15:62:70:bb:cd:f0:b1:3d:99:8c:28:2c:
         98:80:51:03:8e:73:7f:9b:3a:7d:47:c2:ae:ff:bd:7d:4f:bc:
         11:29:4a:01:0b:8d:8c:b1:9f:d5:3d:89:cd:8d:72:ff:32:ff:
         d1:ec:eb:21:19:05:44:73:0e:ba:04:e8:97:b4:a0:c4:cc:a3:
         31:d6:34:1d:91:8b:8a:8c:e1:8e:a7:5c:a4:4b:14:5c:a3:fa:
         65:56:7c:1e:91:8a:48:ae:83:a0:da:7b:42:fb:d3:cb:fe:a1:
         92:78:3a:0c:79:46:7c:d5:9b:9f:5c:0f:ad:34:a7:9f:aa:18:
         4e:cc:22:3c:9e:72:58:22:d2:e6:12:2e:16:54:d4:0d:ea:e2:
         d6:87:94:76:db:fb:3d:b9:03:78:ed:48:ab:74:54:a3:90:79:
         22:32:ae:3e:62:29:73:c9:d4:ca:f3:40:b1:7c:89:0a:25:7e:
         c0:42:f0:f0:41:9a:04:8a:82:e2:3d:9f:91:ba:20:e1:28:fd:
         37:a0:58:32:0b:98:9c:a3:30:59:c8:8e:d9:cd:fb:8c:66:6e:
         37:75:8f:80:87:81:8e:d2:05:99:03:68:d1:c9:3a:c2:42:e0:
         81:e4:20:32:25:0c:0f:56:f4:d6:72:d3:62:1b:ea:44:33:9f:
         82:a1:14:93:12:a4:d0:56
-----BEGIN CERTIFICATE-----
MIIHSDCCBTCgAwIBAgICAJgwDQYJKoZIhvcNAQEFBQAwgbQxCzAJBgNVBAYTAlVT
MQswCQYDVQQIEwJDQTEVMBMGA1UEBxMMU2FuRnJhbmNpc2NvMRUwEwYDVQQKEwxQ
aXhnbG8sIEluYy4xEDAOBgNVBAsTB1ZQTi1DSUUxGjAYBgNVBAMTEXR1bm5lbC5w
aXhnbG8uY29tMRwwGgYDVQQpExNCYWxhIENoYW5kcmFzZWthcmFuMR4wHAYJKoZI
hvcNAQkBFg9iYWxhQHBpeGdsby5jb20wHhcNMTgwMjE0MDYyNjE3WhcNMjgwMjEy
MDYyNjE3WjCBqTELMAkGA1UEBhMCVVMxCzAJBgNVBAgTAkNBMRUwEwYDVQQHEwxT
YW5GcmFuY2lzY28xFTATBgNVBAoTDFBpeGdsbywgSW5jLjEQMA4GA1UECxMHVlBO
LUNJRTEPMA0GA1UEAxMGY2llMTUxMRwwGgYDVQQpExNCYWxhIENoYW5kcmFzZWth
cmFuMR4wHAYJKoZIhvcNAQkBFg9iYWxhQHBpeGdsby5jb20wggIiMA0GCSqGSIb3
DQEBAQUAA4ICDwAwggIKAoICAQC7vK+PmIrVaGOZPD7flC/Am+7+ng/wcj2psnaI
8I4RUFo8pNmM162ddfv6v4yIGpV41zqhrhJY0F/2fcj3RzCO1YJb0s20sNKExjaJ
nQQvWNy+OedRLZWtA1SoXPJ9OvFYaebdCOsvrX9o9DG43FdwAnnPvXrTiLxryCJJ
Kiw+3SorWD1CkRS7iHKEJLafQYRvROMwXfLdQxpAeA3vs1W+raQ0YZbvNVYqB3cU
yaPY2R5JDv6d6cGqmCx8uf8bLRguE/fx70yccXlpx0+Xa3OHK14zOBLUeFtwCR9t
6b2dXQ3FyJTrDeveNz9phe/MkBlJx1D3eP1Pro6J4SQ4Plsl4uPJoUFb8pH2J4eB
qDFa+mqvhHQ3NQomYi9cHR74tBclzmUanZhBfiWnMYCvTSSGFjg/zxRSbMRFE4hy
QAVWJ+1MZzxvDvx+vBVF2RPD0e8F3e7qd0nuYwjlL1vEaytzT4aUpQSBd5dJYhGn
0R6Sf1ujIegMx+lCDk91IeEukvUm3fMT7k9VFhYfu/bsPAdD4pEU73Q1p5rcMx7h
QLZEjcbmff7zyaEE+t2ZL4vUrt6tdWAodMmvFYRoGG5Vq/CBiUA6FzwEC1rP79o+
sS8/D14Fr7b1aE4uRdvBka8oZCm4jE6s1m7PklZI4CIed6VK9qs6qIfxpnSLs4N1
UoAtpwIDAQABo4IBazCCAWcwCQYDVR0TBAIwADAtBglghkgBhvhCAQ0EIBYeRWFz
eS1SU0EgR2VuZXJhdGVkIENlcnRpZmljYXRlMB0GA1UdDgQWBBTcFaVAZ6bXPUdN
WeDU2fD0tXqIDjCB6QYDVR0jBIHhMIHegBTvOI0UUFinW02cF3L837msp1GwEKGB
uqSBtzCBtDELMAkGA1UEBhMCVVMxCzAJBgNVBAgTAkNBMRUwEwYDVQQHEwxTYW5G
cmFuY2lzY28xFTATBgNVBAoTDFBpeGdsbywgSW5jLjEQMA4GA1UECxMHVlBOLUNJ
RTEaMBgGA1UEAxMRdHVubmVsLnBpeGdsby5jb20xHDAaBgNVBCkTE0JhbGEgQ2hh
bmRyYXNla2FyYW4xHjAcBgkqhkiG9w0BCQEWD2JhbGFAcGl4Z2xvLmNvbYIJAKbb
xoOA5qB5MBMGA1UdJQQMMAoGCCsGAQUFBwMCMAsGA1UdDwQEAwIHgDANBgkqhkiG
9w0BAQUFAAOCAgEAmYS7g2M/kdjxA9PUJ4VyoaZJTtPhCcAcntZ5VAK5NwcdSB+7
sn+exNf++6kUTrEMkSsdG/+uhkQqmBchYlzcXGAuaKIEhoMJINYTxdCgEOKX2cFA
r+2Jc3XYcrHvI4D6quCjJ4tONk6FdgTt8lipPhvNunZGAP7VgcXoHl+Idy+trvaz
p8YOl9+jM2CJLIyfXMCdkkjYiCAq9+FKLrLhx/oO0MbmKZX1W0w8NdDj2NiIDfPa
S0XV02nB/8rM+zbcM2dyrQfHvP0WvWeSVHPWvL2ui834vKdZVyyN5T/7rtA2X3lE
R/oiRkel+xooRiFXt4nAv1800phpA6rTbW4iW5AKFWJwu83wsT2ZjCgsmIBRA45z
f5s6fUfCrv+9fU+8ESlKAQuNjLGf1T2JzY1y/zL/0ezrIRkFRHMOugTol7SgxMyj
MdY0HZGLiozhjqdcpEsUXKP6ZVZ8HpGKSK6DoNp7QvvTy/6hkng6DHlGfNWbn1wP
rTSnn6oYTswiPJ5yWCLS5hIuFlTUDeri1oeUdtv7PbkDeO1Iq3RUo5B5IjKuPmIp
c8nUyvNAsXyJCiV+wELw8EGaBIqC4j2fkbog4Sj9N6BYMguYnKMwWciO2c37jGZu
N3WPgIeBjtIFmQNo0ck6wkLggeQgMiUMD1b01nLTYhvqRDOfgqEUkxKk0FY=
-----END CERTIFICATE-----
