Certificate:
    Data:
        Version: 3 (0x2)
        Serial Number: 160 (0xa0)
    Signature Algorithm: sha1WithRSAEncryption
        Issuer: C=US, ST=CA, L=SanFrancisco, O=Pixglo, Inc., OU=VPN-CIE, CN=tunnel.pixglo.com/name=Bala Chandrasekaran/emailAddress=bala@pixglo.com
        Validity
            Not Before: Feb 14 06:26:22 2018 GMT
            Not After : Feb 12 06:26:22 2028 GMT
        Subject: C=US, ST=CA, L=SanFrancisco, O=Pixglo, Inc., OU=VPN-CIE, CN=cie159/name=Bala Chandrasekaran/emailAddress=bala@pixglo.com
        Subject Public Key Info:
            Public Key Algorithm: rsaEncryption
                Public-Key: (4096 bit)
                Modulus:
                    00:d9:ab:50:6b:0e:4b:d6:b5:4d:7b:f1:40:74:1b:
                    7b:c8:87:b8:17:0e:98:c3:c8:a0:b1:a1:ec:57:64:
                    6e:7d:51:8f:09:95:a0:b2:0f:22:d3:be:8f:29:f4:
                    45:5a:26:9d:bb:28:24:3a:21:26:49:91:40:99:38:
                    95:c7:24:b4:3d:78:fe:8a:1d:d6:f8:90:b8:d0:e1:
                    95:c0:0e:df:e5:9f:36:6b:49:ef:d2:58:7e:5a:08:
                    b3:68:4d:2e:17:72:3f:94:f0:a2:7b:ee:5f:13:40:
                    1a:63:b5:36:07:ff:eb:9b:95:82:75:a5:64:ad:dc:
                    72:ce:32:db:fe:e5:0c:29:05:07:89:fe:b3:7e:07:
                    b5:cb:8a:17:8d:71:c3:57:88:35:fb:93:e1:b9:c9:
                    9d:23:20:5e:7d:33:13:5b:07:9a:e9:85:13:59:ef:
                    e9:1f:89:78:37:51:15:8e:4d:9f:33:5d:cb:93:f5:
                    2c:c6:ef:03:5f:22:e1:36:75:55:10:2e:bf:ea:7d:
                    21:a6:94:8f:3f:59:55:eb:80:6c:43:5b:72:3c:9d:
                    b3:8d:4e:07:eb:95:3f:22:82:21:53:26:c1:62:b3:
                    0e:7c:4e:8e:e9:bd:c6:f5:5e:10:be:a4:84:3e:05:
                    c8:5d:5e:d1:3b:23:27:3f:ae:c5:0f:68:50:9b:c1:
                    88:9f:7a:96:7d:39:14:42:37:65:0d:b4:f8:6f:1b:
                    bf:c2:b2:2e:87:c8:c6:47:a7:77:f0:43:5d:17:0b:
                    5b:5b:49:8b:e5:db:be:df:65:2e:ab:1a:86:47:51:
                    4f:85:d3:33:b1:39:f6:63:37:43:72:ea:b5:51:d1:
                    8f:40:74:b8:fc:58:9a:e3:26:73:d9:92:df:b9:4b:
                    5c:01:3c:c6:c7:e0:0d:28:a9:7a:02:61:8d:b2:2b:
                    84:4e:6d:bc:6d:5e:ae:cb:a1:16:bd:3b:4d:11:03:
                    2c:14:55:5f:9e:a6:17:09:76:9a:d1:77:1c:5d:ed:
                    2c:22:4f:77:86:49:dd:e6:38:93:06:0d:4e:9d:7e:
                    aa:7c:5a:9b:58:16:a3:d9:52:67:e9:2c:8d:a1:32:
                    4b:ba:ce:6d:e6:fa:4d:52:f5:5d:46:00:6d:06:a4:
                    3a:f3:56:b1:44:2b:64:00:87:67:4e:39:d9:31:b6:
                    3e:4b:93:97:2c:37:d5:b1:83:7c:a5:8f:79:5e:59:
                    4f:ea:e8:79:88:e2:cb:b8:40:9d:b8:bd:c5:02:ca:
                    b1:d2:a7:8d:39:6c:69:e6:c2:06:01:97:7e:92:58:
                    cb:8c:da:14:39:c2:32:c2:0a:8f:bc:0e:f9:30:6b:
                    05:d6:4a:ef:79:80:36:58:c1:c6:6b:fd:3c:6e:13:
                    e1:2e:91
                Exponent: 65537 (0x10001)
        X509v3 extensions:
            X509v3 Basic Constraints: 
                CA:FALSE
            Netscape Comment: 
                Easy-RSA Generated Certificate
            X509v3 Subject Key Identifier: 
                DF:E8:80:F0:95:AE:B7:69:98:9C:85:F5:D1:25:54:D1:8D:45:D3:72
            X509v3 Authority Key Identifier: 
                keyid:EF:38:8D:14:50:58:A7:5B:4D:9C:17:72:FC:DF:B9:AC:A7:51:B0:10
                DirName:/C=US/ST=CA/L=SanFrancisco/O=Pixglo, Inc./OU=VPN-CIE/CN=tunnel.pixglo.com/name=Bala Chandrasekaran/emailAddress=bala@pixglo.com
                serial:A6:DB:C6:83:80:E6:A0:79

            X509v3 Extended Key Usage: 
                TLS Web Client Authentication
            X509v3 Key Usage: 
                Digital Signature
    Signature Algorithm: sha1WithRSAEncryption
         a9:26:9d:e5:47:5c:9b:8e:04:ee:eb:84:35:d1:14:ea:9a:89:
         db:c1:dc:e7:ac:49:dd:86:60:65:47:38:71:25:ee:d7:59:d2:
         49:21:3d:af:f4:fb:42:24:28:42:6e:ed:1c:a5:55:e2:84:a6:
         42:04:db:ea:1c:6b:d3:ce:d6:58:ad:24:9e:be:68:82:a3:a1:
         2c:dc:d4:d4:02:bc:c7:9e:62:65:36:28:94:55:89:58:04:68:
         51:ce:e1:66:fd:7d:fd:f7:54:51:ee:88:bc:37:52:c1:7f:df:
         6e:42:55:61:d4:45:7c:99:eb:51:c3:41:d1:d0:6c:e6:3d:d8:
         6e:20:a5:59:bd:f3:aa:72:3c:2a:22:e8:2a:21:32:2d:e4:fc:
         71:37:e1:7b:56:25:2a:52:8f:c6:09:12:4f:b1:4a:be:39:65:
         6b:54:07:c7:a4:c6:41:1b:83:fd:9b:fd:81:bd:b6:dc:1e:51:
         db:ce:5d:a0:fb:9c:56:10:0f:fa:c2:07:90:b6:7a:c3:98:b5:
         e5:5d:79:a3:60:29:0d:43:cc:90:f5:d1:de:7c:22:03:61:e7:
         6e:04:b5:45:9d:ab:a4:af:dd:84:03:87:e8:87:f4:03:8e:a9:
         90:8c:f5:78:ea:be:07:fb:b2:10:25:3b:f4:fb:de:ae:bf:df:
         04:b6:e5:e1:84:3f:43:d5:2b:82:c2:29:7b:8b:cf:18:30:1e:
         55:51:5e:62:c8:6b:38:60:05:51:85:04:42:11:45:36:ce:f6:
         52:b6:8e:c2:c8:f8:21:34:df:6f:20:62:57:4b:6b:46:cf:cc:
         37:91:73:92:a7:26:f2:fa:fa:47:7c:30:d5:30:9e:02:c1:0d:
         ab:5a:ea:b7:a2:78:05:7e:89:bc:18:14:80:17:18:26:8a:98:
         cb:8e:20:37:7e:6f:f6:30:c3:e2:f2:72:4f:8a:6f:41:f1:58:
         84:d6:c8:e8:8a:61:43:f9:69:d9:d7:e1:8f:ae:22:3b:f1:fd:
         63:bd:69:6b:0f:37:38:a7:60:74:c3:22:7e:de:2f:09:94:4a:
         f7:c3:47:e2:e9:bf:98:08:22:e2:31:b0:e6:c2:1c:77:57:4c:
         f6:31:66:fa:8f:8c:b6:31:82:29:91:2b:15:f8:13:18:07:89:
         19:2a:e8:b9:37:ec:5a:ac:fa:32:8b:4f:99:44:66:b2:2b:54:
         20:54:2a:72:36:76:97:74:d7:f8:f8:98:49:28:10:a8:df:e7:
         71:fc:6c:a9:d9:22:98:9f:15:56:96:6b:57:76:59:46:f3:b9:
         f0:9e:ce:94:90:e8:5d:0b:35:29:cc:2a:94:36:4e:82:b5:47:
         31:de:35:0c:25:b5:f2:22
-----BEGIN CERTIFICATE-----
MIIHSDCCBTCgAwIBAgICAKAwDQYJKoZIhvcNAQEFBQAwgbQxCzAJBgNVBAYTAlVT
MQswCQYDVQQIEwJDQTEVMBMGA1UEBxMMU2FuRnJhbmNpc2NvMRUwEwYDVQQKEwxQ
aXhnbG8sIEluYy4xEDAOBgNVBAsTB1ZQTi1DSUUxGjAYBgNVBAMTEXR1bm5lbC5w
aXhnbG8uY29tMRwwGgYDVQQpExNCYWxhIENoYW5kcmFzZWthcmFuMR4wHAYJKoZI
hvcNAQkBFg9iYWxhQHBpeGdsby5jb20wHhcNMTgwMjE0MDYyNjIyWhcNMjgwMjEy
MDYyNjIyWjCBqTELMAkGA1UEBhMCVVMxCzAJBgNVBAgTAkNBMRUwEwYDVQQHEwxT
YW5GcmFuY2lzY28xFTATBgNVBAoTDFBpeGdsbywgSW5jLjEQMA4GA1UECxMHVlBO
LUNJRTEPMA0GA1UEAxMGY2llMTU5MRwwGgYDVQQpExNCYWxhIENoYW5kcmFzZWth
cmFuMR4wHAYJKoZIhvcNAQkBFg9iYWxhQHBpeGdsby5jb20wggIiMA0GCSqGSIb3
DQEBAQUAA4ICDwAwggIKAoICAQDZq1BrDkvWtU178UB0G3vIh7gXDpjDyKCxoexX
ZG59UY8JlaCyDyLTvo8p9EVaJp27KCQ6ISZJkUCZOJXHJLQ9eP6KHdb4kLjQ4ZXA
Dt/lnzZrSe/SWH5aCLNoTS4Xcj+U8KJ77l8TQBpjtTYH/+ublYJ1pWSt3HLOMtv+
5QwpBQeJ/rN+B7XLiheNccNXiDX7k+G5yZ0jIF59MxNbB5rphRNZ7+kfiXg3URWO
TZ8zXcuT9SzG7wNfIuE2dVUQLr/qfSGmlI8/WVXrgGxDW3I8nbONTgfrlT8igiFT
JsFisw58To7pvcb1XhC+pIQ+BchdXtE7Iyc/rsUPaFCbwYifepZ9ORRCN2UNtPhv
G7/Csi6HyMZHp3fwQ10XC1tbSYvl277fZS6rGoZHUU+F0zOxOfZjN0Ny6rVR0Y9A
dLj8WJrjJnPZkt+5S1wBPMbH4A0oqXoCYY2yK4RObbxtXq7LoRa9O00RAywUVV+e
phcJdprRdxxd7SwiT3eGSd3mOJMGDU6dfqp8WptYFqPZUmfpLI2hMku6zm3m+k1S
9V1GAG0GpDrzVrFEK2QAh2dOOdkxtj5Lk5csN9Wxg3ylj3leWU/q6HmI4su4QJ24
vcUCyrHSp405bGnmwgYBl36SWMuM2hQ5wjLCCo+8DvkwawXWSu95gDZYwcZr/Txu
E+EukQIDAQABo4IBazCCAWcwCQYDVR0TBAIwADAtBglghkgBhvhCAQ0EIBYeRWFz
eS1SU0EgR2VuZXJhdGVkIENlcnRpZmljYXRlMB0GA1UdDgQWBBTf6IDwla63aZic
hfXRJVTRjUXTcjCB6QYDVR0jBIHhMIHegBTvOI0UUFinW02cF3L837msp1GwEKGB
uqSBtzCBtDELMAkGA1UEBhMCVVMxCzAJBgNVBAgTAkNBMRUwEwYDVQQHEwxTYW5G
cmFuY2lzY28xFTATBgNVBAoTDFBpeGdsbywgSW5jLjEQMA4GA1UECxMHVlBOLUNJ
RTEaMBgGA1UEAxMRdHVubmVsLnBpeGdsby5jb20xHDAaBgNVBCkTE0JhbGEgQ2hh
bmRyYXNla2FyYW4xHjAcBgkqhkiG9w0BCQEWD2JhbGFAcGl4Z2xvLmNvbYIJAKbb
xoOA5qB5MBMGA1UdJQQMMAoGCCsGAQUFBwMCMAsGA1UdDwQEAwIHgDANBgkqhkiG
9w0BAQUFAAOCAgEAqSad5Udcm44E7uuENdEU6pqJ28Hc56xJ3YZgZUc4cSXu11nS
SSE9r/T7QiQoQm7tHKVV4oSmQgTb6hxr087WWK0knr5ogqOhLNzU1AK8x55iZTYo
lFWJWARoUc7hZv19/fdUUe6IvDdSwX/fbkJVYdRFfJnrUcNB0dBs5j3YbiClWb3z
qnI8KiLoKiEyLeT8cTfhe1YlKlKPxgkST7FKvjlla1QHx6TGQRuD/Zv9gb223B5R
285doPucVhAP+sIHkLZ6w5i15V15o2ApDUPMkPXR3nwiA2HnbgS1RZ2rpK/dhAOH
6If0A46pkIz1eOq+B/uyECU79Pverr/fBLbl4YQ/Q9UrgsIpe4vPGDAeVVFeYshr
OGAFUYUEQhFFNs72UraOwsj4ITTfbyBiV0trRs/MN5Fzkqcm8vr6R3ww1TCeAsEN
q1rqt6J4BX6JvBgUgBcYJoqYy44gN35v9jDD4vJyT4pvQfFYhNbI6IphQ/lp2dfh
j64iO/H9Y71paw83OKdgdMMift4vCZRK98NH4um/mAgi4jGw5sIcd1dM9jFm+o+M
tjGCKZErFfgTGAeJGSrouTfsWqz6MotPmURmsitUIFQqcjZ2l3TX+PiYSSgQqN/n
cfxsqdkimJ8VVpZrV3ZZRvO58J7OlJDoXQs1KcwqlDZOgrVHMd41DCW18iI=
-----END CERTIFICATE-----
