Certificate:
    Data:
        Version: 3 (0x2)
        Serial Number: 148 (0x94)
    Signature Algorithm: sha1WithRSAEncryption
        Issuer: C=US, ST=CA, L=SanFrancisco, O=Pixglo, Inc., OU=VPN-CIE, CN=tunnel.pixglo.com/name=Bala Chandrasekaran/emailAddress=bala@pixglo.com
        Validity
            Not Before: Feb 14 06:26:15 2018 GMT
            Not After : Feb 12 06:26:15 2028 GMT
        Subject: C=US, ST=CA, L=SanFrancisco, O=Pixglo, Inc., OU=VPN-CIE, CN=cie147/name=Bala Chandrasekaran/emailAddress=bala@pixglo.com
        Subject Public Key Info:
            Public Key Algorithm: rsaEncryption
                Public-Key: (4096 bit)
                Modulus:
                    00:a5:76:6f:0e:47:00:f6:fa:3c:a2:ba:e6:7f:5a:
                    03:bc:7c:71:d0:49:2c:d7:66:46:8a:78:1d:7a:3b:
                    dc:6b:6e:06:10:87:8b:d8:9d:68:e5:8a:ee:01:23:
                    7f:4e:19:21:e4:e8:99:c7:1d:43:81:db:32:2e:a3:
                    78:cb:89:af:76:92:12:09:d9:ae:1e:42:2f:e4:ec:
                    85:68:d9:fa:38:16:97:fb:61:16:b4:7e:24:83:cc:
                    85:9d:6a:59:70:23:8e:18:1a:c2:df:38:cd:ea:dd:
                    8b:75:0b:6d:e9:39:bc:82:a4:29:b0:a6:39:1e:c4:
                    4a:52:9a:19:f6:c4:be:bf:f7:d4:cf:6c:d2:fe:d2:
                    9c:b2:79:d6:03:0d:2f:62:39:66:9e:5b:4b:72:1a:
                    2b:9f:0e:1d:6a:dd:84:80:71:2a:74:68:2d:d7:f7:
                    91:16:29:35:2e:cb:dc:70:a6:77:30:a7:71:96:9c:
                    64:47:9a:fb:b4:34:6d:c2:c6:ca:67:dd:0a:4b:27:
                    d1:f0:b7:60:89:23:7c:05:a8:b3:7a:a9:92:42:44:
                    63:33:3d:08:c5:3f:b3:cd:b6:f5:b2:25:5f:d1:75:
                    c9:f1:c8:71:2d:ad:74:fc:ae:48:d9:45:a1:f9:3b:
                    96:1b:6f:33:a7:48:af:84:c5:99:f7:6b:b9:6a:f2:
                    f7:2b:e8:24:d3:28:6e:06:b8:db:e0:54:0a:d8:72:
                    34:2a:f3:cd:9b:6b:27:5a:fa:ea:21:c2:c9:4d:87:
                    94:01:b5:42:8e:ec:98:2e:37:c1:a4:c4:c9:cb:31:
                    e0:95:c1:8b:e9:ca:4b:d9:8f:48:92:c0:5c:f0:83:
                    00:a9:eb:cb:c0:0d:d4:39:79:3b:11:3a:9a:ec:70:
                    f7:3a:ad:56:94:c9:73:1b:bb:91:6a:f8:af:cf:2e:
                    1d:80:3b:ed:fb:7d:59:81:33:dd:d9:a3:d6:56:4b:
                    9b:b7:74:f0:31:6a:07:cc:68:90:16:fd:61:3b:57:
                    12:1d:ba:d6:d5:0f:53:18:76:41:46:14:2e:f2:38:
                    30:fa:16:b8:77:58:11:31:24:87:6b:ae:3a:9a:d4:
                    f4:a0:44:b6:15:1d:25:2e:57:a3:1b:8d:6f:ad:07:
                    92:3c:b0:0b:49:6e:8f:ac:06:05:97:4e:69:21:b6:
                    45:8c:b1:6a:fa:b3:0a:9d:e5:23:8e:fd:75:a2:93:
                    70:ac:39:f2:98:21:41:62:02:03:53:43:63:23:e0:
                    81:21:31:3a:05:72:b5:94:bd:7f:6c:d7:62:21:68:
                    37:8b:8c:9c:f5:60:bf:06:5f:1a:bc:64:55:32:9e:
                    0c:4e:45:c2:19:38:a2:80:60:92:30:5b:11:1b:d2:
                    f9:ea:db
                Exponent: 65537 (0x10001)
        X509v3 extensions:
            X509v3 Basic Constraints: 
                CA:FALSE
            Netscape Comment: 
                Easy-RSA Generated Certificate
            X509v3 Subject Key Identifier: 
                45:92:62:18:33:41:65:59:5A:1E:ED:0A:98:35:5F:50:30:19:C7:14
            X509v3 Authority Key Identifier: 
                keyid:EF:38:8D:14:50:58:A7:5B:4D:9C:17:72:FC:DF:B9:AC:A7:51:B0:10
                DirName:/C=US/ST=CA/L=SanFrancisco/O=Pixglo, Inc./OU=VPN-CIE/CN=tunnel.pixglo.com/name=Bala Chandrasekaran/emailAddress=bala@pixglo.com
                serial:A6:DB:C6:83:80:E6:A0:79

            X509v3 Extended Key Usage: 
                TLS Web Client Authentication
            X509v3 Key Usage: 
                Digital Signature
    Signature Algorithm: sha1WithRSAEncryption
         42:5a:24:01:68:45:9a:53:d0:8c:81:a3:06:4d:b9:ed:e5:c4:
         3d:a8:2a:84:79:76:ef:6d:a7:3a:7e:f7:67:4c:ff:92:f5:96:
         c8:1c:ba:ff:2c:a4:5c:c3:0a:2e:b0:1d:df:2b:f0:bd:11:81:
         bc:51:9a:e1:4d:53:73:fd:2c:d4:27:67:c4:c8:28:ff:be:92:
         e3:14:13:e0:7f:d1:35:5b:52:07:76:e4:ef:0d:87:90:26:be:
         b2:0d:30:72:ee:32:d3:81:55:2d:68:75:1d:f8:07:87:f1:09:
         48:15:9a:12:3c:be:b9:14:a1:e2:72:83:3c:bf:7a:7b:e2:25:
         12:dd:fa:f6:8c:1d:a7:8e:5a:e6:a4:0f:ba:15:01:34:c6:d9:
         34:51:a3:3a:83:d3:ec:bb:e3:99:09:9a:8b:82:fd:63:60:a6:
         9a:1d:e0:0d:da:b9:27:e2:a9:57:40:05:20:9c:bd:6a:84:be:
         6b:f8:00:c8:37:6a:3b:c1:89:8b:7b:97:c6:f5:e4:cb:8e:9e:
         5e:d4:d7:5f:3b:b3:4a:39:57:31:7a:35:c4:1d:e8:26:f3:a1:
         66:29:00:fe:cc:a0:52:a6:0b:28:22:d8:a4:88:54:9d:5e:d0:
         b6:13:1a:1a:0c:4d:ef:a6:ae:c2:ff:1a:56:75:b6:3d:48:d5:
         ea:1f:4a:bc:13:6e:10:d9:5f:67:80:bc:0a:42:d0:50:45:c9:
         b2:8d:5b:1b:d6:35:1b:21:f4:eb:f2:55:3b:d1:19:f9:30:b2:
         10:1c:ac:ea:23:ba:af:96:fa:f8:f4:54:01:e5:f5:86:b3:f1:
         d7:33:a2:a3:1e:50:03:64:d0:a6:36:0c:25:df:b3:71:f4:6f:
         c1:b6:99:90:7a:52:12:e1:93:ad:93:a4:32:fe:21:e2:f5:23:
         db:f8:28:c9:bb:bc:2e:35:ae:a8:b9:c9:fe:f6:bc:4c:0f:1f:
         a6:67:f5:ba:d8:af:15:94:32:54:55:48:76:52:cb:66:2e:4a:
         5f:e3:1f:15:15:30:c8:77:52:56:d4:24:27:d7:34:1b:58:92:
         07:64:e1:d1:c2:15:44:58:39:54:8d:58:91:69:f6:77:c1:d6:
         9e:76:0b:5e:18:56:fc:3f:39:e0:37:5a:47:77:3f:93:85:1b:
         e2:07:f0:cb:65:a1:ed:3a:6b:82:f8:49:ef:3d:5d:b7:59:a3:
         f5:16:55:9f:25:45:9f:59:1c:00:ba:19:7f:d7:73:29:44:69:
         e4:e7:0a:c5:e3:99:e8:53:0b:4d:35:b9:c7:bc:c9:87:c5:a0:
         7d:00:60:a5:b6:18:18:f5:7d:c2:f0:02:53:1d:98:14:1d:d1:
         41:d9:ff:52:46:6c:f3:01
-----BEGIN CERTIFICATE-----
MIIHSDCCBTCgAwIBAgICAJQwDQYJKoZIhvcNAQEFBQAwgbQxCzAJBgNVBAYTAlVT
MQswCQYDVQQIEwJDQTEVMBMGA1UEBxMMU2FuRnJhbmNpc2NvMRUwEwYDVQQKEwxQ
aXhnbG8sIEluYy4xEDAOBgNVBAsTB1ZQTi1DSUUxGjAYBgNVBAMTEXR1bm5lbC5w
aXhnbG8uY29tMRwwGgYDVQQpExNCYWxhIENoYW5kcmFzZWthcmFuMR4wHAYJKoZI
hvcNAQkBFg9iYWxhQHBpeGdsby5jb20wHhcNMTgwMjE0MDYyNjE1WhcNMjgwMjEy
MDYyNjE1WjCBqTELMAkGA1UEBhMCVVMxCzAJBgNVBAgTAkNBMRUwEwYDVQQHEwxT
YW5GcmFuY2lzY28xFTATBgNVBAoTDFBpeGdsbywgSW5jLjEQMA4GA1UECxMHVlBO
LUNJRTEPMA0GA1UEAxMGY2llMTQ3MRwwGgYDVQQpExNCYWxhIENoYW5kcmFzZWth
cmFuMR4wHAYJKoZIhvcNAQkBFg9iYWxhQHBpeGdsby5jb20wggIiMA0GCSqGSIb3
DQEBAQUAA4ICDwAwggIKAoICAQCldm8ORwD2+jyiuuZ/WgO8fHHQSSzXZkaKeB16
O9xrbgYQh4vYnWjliu4BI39OGSHk6JnHHUOB2zIuo3jLia92khIJ2a4eQi/k7IVo
2fo4Fpf7YRa0fiSDzIWdallwI44YGsLfOM3q3Yt1C23pObyCpCmwpjkexEpSmhn2
xL6/99TPbNL+0pyyedYDDS9iOWaeW0tyGiufDh1q3YSAcSp0aC3X95EWKTUuy9xw
pncwp3GWnGRHmvu0NG3Cxspn3QpLJ9Hwt2CJI3wFqLN6qZJCRGMzPQjFP7PNtvWy
JV/RdcnxyHEtrXT8rkjZRaH5O5YbbzOnSK+ExZn3a7lq8vcr6CTTKG4GuNvgVArY
cjQq882bayda+uohwslNh5QBtUKO7JguN8GkxMnLMeCVwYvpykvZj0iSwFzwgwCp
68vADdQ5eTsROprscPc6rVaUyXMbu5Fq+K/PLh2AO+37fVmBM93Zo9ZWS5u3dPAx
agfMaJAW/WE7VxIdutbVD1MYdkFGFC7yODD6Frh3WBExJIdrrjqa1PSgRLYVHSUu
V6MbjW+tB5I8sAtJbo+sBgWXTmkhtkWMsWr6swqd5SOO/XWik3CsOfKYIUFiAgNT
Q2Mj4IEhMToFcrWUvX9s12IhaDeLjJz1YL8GXxq8ZFUyngxORcIZOKKAYJIwWxEb
0vnq2wIDAQABo4IBazCCAWcwCQYDVR0TBAIwADAtBglghkgBhvhCAQ0EIBYeRWFz
eS1SU0EgR2VuZXJhdGVkIENlcnRpZmljYXRlMB0GA1UdDgQWBBRFkmIYM0FlWVoe
7QqYNV9QMBnHFDCB6QYDVR0jBIHhMIHegBTvOI0UUFinW02cF3L837msp1GwEKGB
uqSBtzCBtDELMAkGA1UEBhMCVVMxCzAJBgNVBAgTAkNBMRUwEwYDVQQHEwxTYW5G
cmFuY2lzY28xFTATBgNVBAoTDFBpeGdsbywgSW5jLjEQMA4GA1UECxMHVlBOLUNJ
RTEaMBgGA1UEAxMRdHVubmVsLnBpeGdsby5jb20xHDAaBgNVBCkTE0JhbGEgQ2hh
bmRyYXNla2FyYW4xHjAcBgkqhkiG9w0BCQEWD2JhbGFAcGl4Z2xvLmNvbYIJAKbb
xoOA5qB5MBMGA1UdJQQMMAoGCCsGAQUFBwMCMAsGA1UdDwQEAwIHgDANBgkqhkiG
9w0BAQUFAAOCAgEAQlokAWhFmlPQjIGjBk257eXEPagqhHl2722nOn73Z0z/kvWW
yBy6/yykXMMKLrAd3yvwvRGBvFGa4U1Tc/0s1CdnxMgo/76S4xQT4H/RNVtSB3bk
7w2HkCa+sg0wcu4y04FVLWh1HfgHh/EJSBWaEjy+uRSh4nKDPL96e+IlEt369owd
p45a5qQPuhUBNMbZNFGjOoPT7LvjmQmai4L9Y2Cmmh3gDdq5J+KpV0AFIJy9aoS+
a/gAyDdqO8GJi3uXxvXky46eXtTXXzuzSjlXMXo1xB3oJvOhZikA/sygUqYLKCLY
pIhUnV7QthMaGgxN76auwv8aVnW2PUjV6h9KvBNuENlfZ4C8CkLQUEXJso1bG9Y1
GyH06/JVO9EZ+TCyEBys6iO6r5b6+PRUAeX1hrPx1zOiox5QA2TQpjYMJd+zcfRv
wbaZkHpSEuGTrZOkMv4h4vUj2/goybu8LjWuqLnJ/va8TA8fpmf1utivFZQyVFVI
dlLLZi5KX+MfFRUwyHdSVtQkJ9c0G1iSB2Th0cIVRFg5VI1YkWn2d8HWnnYLXhhW
/D854DdaR3c/k4Ub4gfwy2Wh7TprgvhJ7z1dt1mj9RZVnyVFn1kcALoZf9dzKURp
5OcKxeOZ6FMLTTW5x7zJh8WgfQBgpbYYGPV9wvACUx2YFB3RQdn/UkZs8wE=
-----END CERTIFICATE-----
