Certificate:
    Data:
        Version: 3 (0x2)
        Serial Number: 149 (0x95)
    Signature Algorithm: sha1WithRSAEncryption
        Issuer: C=US, ST=CA, L=SanFrancisco, O=Pixglo, Inc., OU=VPN-CIE, CN=tunnel.pixglo.com/name=Bala Chandrasekaran/emailAddress=bala@pixglo.com
        Validity
            Not Before: Feb 14 06:26:16 2018 GMT
            Not After : Feb 12 06:26:16 2028 GMT
        Subject: C=US, ST=CA, L=SanFrancisco, O=Pixglo, Inc., OU=VPN-CIE, CN=cie148/name=Bala Chandrasekaran/emailAddress=bala@pixglo.com
        Subject Public Key Info:
            Public Key Algorithm: rsaEncryption
                Public-Key: (4096 bit)
                Modulus:
                    00:cd:0c:0a:36:9b:02:50:89:78:e4:53:9f:00:ed:
                    a6:83:71:0b:71:f5:39:ec:7f:5e:63:77:c5:00:7a:
                    1b:95:42:3b:37:ab:27:36:f6:9c:d6:10:21:8b:ef:
                    cd:34:5a:ae:ec:30:16:99:04:eb:61:d8:58:14:6e:
                    65:81:e5:13:c1:23:c3:33:97:25:eb:5a:9f:9c:a5:
                    56:58:fd:2b:97:38:a1:80:e2:d3:48:fe:8f:50:d5:
                    56:ee:0f:fd:c9:82:45:cf:58:c5:0f:1f:fa:f4:2b:
                    00:dd:24:71:e0:c7:d2:6e:c3:e5:b9:fe:f3:d6:2c:
                    72:b2:16:54:d6:e4:79:5f:37:9e:ce:61:45:e4:3a:
                    81:e4:b9:5c:f6:14:77:7c:64:e8:48:d4:78:b3:bd:
                    0a:69:e9:28:0e:69:48:ef:ad:eb:b2:24:19:d0:a6:
                    29:ce:0b:59:e9:3b:54:27:83:f0:ca:f5:a0:ed:25:
                    1a:63:81:f1:b4:dd:1a:06:ca:f9:17:33:0f:2d:0b:
                    a8:da:e3:c4:ef:0a:de:df:42:37:53:1a:6a:78:76:
                    85:b3:b4:60:c7:b4:e8:63:bd:c3:46:df:79:3a:50:
                    0c:f3:9a:29:6e:60:1e:bd:7e:c8:c4:5d:47:c3:97:
                    d0:ea:a7:3f:d4:e8:d2:d9:52:31:9b:e7:79:92:b4:
                    87:8b:aa:5e:94:58:53:b6:7d:ff:5f:c5:5e:83:02:
                    f0:66:05:ee:b1:98:26:45:31:8b:5a:d5:b6:e4:50:
                    8c:c7:43:90:ae:2e:74:4c:d1:67:57:01:2f:3f:f0:
                    a1:26:09:04:7e:2a:38:af:cb:40:b0:a2:b6:f3:19:
                    bb:5b:a0:83:be:b4:7b:9d:96:26:8b:d8:29:d2:5b:
                    47:6c:6e:90:9f:43:d8:53:41:d0:4b:94:3b:be:ab:
                    8b:a2:68:da:4d:fc:94:e2:fc:41:56:7e:11:42:d5:
                    97:7e:31:3c:90:9a:80:73:5f:2b:99:19:02:71:d4:
                    c4:08:e2:2d:87:9c:4d:c9:96:8f:ae:f9:38:ce:0b:
                    2a:cd:bd:58:c4:f4:74:c7:a5:66:10:f6:3b:9d:a4:
                    7e:4c:79:ba:0c:13:8e:f3:58:40:82:6a:4f:bc:8b:
                    08:86:44:6d:67:a5:7c:0b:7f:8a:a0:d7:01:c7:67:
                    94:3b:91:ae:4f:55:3d:da:ef:c4:f6:57:ae:8f:14:
                    99:c4:1f:8c:37:54:a1:9f:02:d1:11:8c:22:00:b3:
                    08:8b:e5:3d:4c:47:92:dc:47:0d:fc:c4:4a:04:df:
                    29:af:eb:e4:92:32:12:79:a0:0a:66:ef:8a:6f:f4:
                    b6:b5:8f:c6:4c:16:dd:54:c5:85:38:ee:55:98:b1:
                    58:b1:77
                Exponent: 65537 (0x10001)
        X509v3 extensions:
            X509v3 Basic Constraints: 
                CA:FALSE
            Netscape Comment: 
                Easy-RSA Generated Certificate
            X509v3 Subject Key Identifier: 
                C2:50:1B:44:C8:4B:69:09:29:07:00:7B:9F:1B:E0:E6:E7:35:01:98
            X509v3 Authority Key Identifier: 
                keyid:EF:38:8D:14:50:58:A7:5B:4D:9C:17:72:FC:DF:B9:AC:A7:51:B0:10
                DirName:/C=US/ST=CA/L=SanFrancisco/O=Pixglo, Inc./OU=VPN-CIE/CN=tunnel.pixglo.com/name=Bala Chandrasekaran/emailAddress=bala@pixglo.com
                serial:A6:DB:C6:83:80:E6:A0:79

            X509v3 Extended Key Usage: 
                TLS Web Client Authentication
            X509v3 Key Usage: 
                Digital Signature
    Signature Algorithm: sha1WithRSAEncryption
         2f:e2:8f:62:d2:33:a1:21:df:46:f0:71:25:6d:d6:71:5e:23:
         62:3c:91:c9:d9:73:0f:0e:40:f3:27:2a:09:a1:e2:bc:d9:7d:
         77:00:3e:92:b6:74:b2:50:89:45:f0:78:5d:90:ce:00:2b:5b:
         27:14:32:8f:9b:a6:50:b8:0d:5c:be:12:e6:3f:1e:d2:be:76:
         4c:0f:60:1a:66:0b:a0:00:79:57:20:83:d9:48:dd:de:69:26:
         67:f3:45:00:a4:f8:bb:44:60:dd:d7:7a:95:cc:bf:bc:2d:32:
         1c:7b:77:78:60:1d:8c:6f:27:65:31:25:b9:99:b9:2d:4f:eb:
         7a:70:80:a4:19:70:97:f4:9e:e4:1c:5b:31:9f:75:a8:67:3a:
         51:39:fd:6f:cf:f2:02:d7:b3:0b:de:fd:49:ca:e0:2d:7e:ef:
         88:5e:cf:48:4a:0e:fa:3c:d6:55:b2:05:a6:b2:16:a8:ff:86:
         2e:c8:a9:40:88:0d:88:cb:b1:1b:fa:6b:fc:f9:40:0e:de:e4:
         1c:83:03:41:ad:82:a3:b1:25:a8:ab:8d:03:44:18:8c:fa:37:
         de:d2:ef:a0:91:d6:4e:4c:52:83:f4:41:07:f4:b3:75:b5:3e:
         80:38:97:4d:e3:13:26:8f:fd:02:6e:23:c8:5c:eb:42:05:26:
         64:87:09:f5:fb:cf:cf:4a:04:25:bb:7f:8b:a3:5a:fd:61:32:
         72:cb:ac:54:36:2b:56:f9:b1:e4:c7:ec:bd:2e:b4:a4:1b:14:
         ba:c0:ef:3a:55:71:9d:a8:41:d8:01:58:31:35:38:a2:b9:ff:
         8b:83:c0:81:b3:7a:2a:c6:60:80:cb:bf:df:9c:7f:e8:34:bf:
         39:79:96:4e:90:82:f4:c0:31:ed:a9:67:bb:2c:33:e2:24:ae:
         fe:d9:73:92:03:48:d6:d8:05:eb:5d:1c:3e:95:74:2c:44:9f:
         74:e4:11:b8:33:e7:07:d8:5e:a4:50:d9:ee:bb:dc:88:16:53:
         a2:28:a1:f1:42:95:1e:04:e4:54:cf:74:d1:21:93:39:fd:07:
         cf:a1:18:35:79:b4:94:bf:8f:ba:a7:af:b4:be:8b:65:4d:a9:
         95:b9:85:d3:08:ab:4f:65:a2:de:e6:37:ba:fd:bf:f1:d1:ba:
         f9:4e:da:bb:8d:0f:8f:58:0c:f4:1c:12:55:d0:3e:a6:51:55:
         e6:5a:dd:67:90:95:f1:02:e6:77:be:bc:36:52:d9:d8:ca:02:
         5a:55:03:a4:0c:a5:b1:44:5a:74:34:4a:40:8d:ee:ac:de:d6:
         24:58:45:ff:87:07:1a:8d:9f:37:87:16:98:ef:53:f8:8a:82:
         a8:52:c4:83:67:8c:99:76
-----BEGIN CERTIFICATE-----
MIIHSDCCBTCgAwIBAgICAJUwDQYJKoZIhvcNAQEFBQAwgbQxCzAJBgNVBAYTAlVT
MQswCQYDVQQIEwJDQTEVMBMGA1UEBxMMU2FuRnJhbmNpc2NvMRUwEwYDVQQKEwxQ
aXhnbG8sIEluYy4xEDAOBgNVBAsTB1ZQTi1DSUUxGjAYBgNVBAMTEXR1bm5lbC5w
aXhnbG8uY29tMRwwGgYDVQQpExNCYWxhIENoYW5kcmFzZWthcmFuMR4wHAYJKoZI
hvcNAQkBFg9iYWxhQHBpeGdsby5jb20wHhcNMTgwMjE0MDYyNjE2WhcNMjgwMjEy
MDYyNjE2WjCBqTELMAkGA1UEBhMCVVMxCzAJBgNVBAgTAkNBMRUwEwYDVQQHEwxT
YW5GcmFuY2lzY28xFTATBgNVBAoTDFBpeGdsbywgSW5jLjEQMA4GA1UECxMHVlBO
LUNJRTEPMA0GA1UEAxMGY2llMTQ4MRwwGgYDVQQpExNCYWxhIENoYW5kcmFzZWth
cmFuMR4wHAYJKoZIhvcNAQkBFg9iYWxhQHBpeGdsby5jb20wggIiMA0GCSqGSIb3
DQEBAQUAA4ICDwAwggIKAoICAQDNDAo2mwJQiXjkU58A7aaDcQtx9Tnsf15jd8UA
ehuVQjs3qyc29pzWECGL7800Wq7sMBaZBOth2FgUbmWB5RPBI8MzlyXrWp+cpVZY
/SuXOKGA4tNI/o9Q1VbuD/3JgkXPWMUPH/r0KwDdJHHgx9Juw+W5/vPWLHKyFlTW
5HlfN57OYUXkOoHkuVz2FHd8ZOhI1HizvQpp6SgOaUjvreuyJBnQpinOC1npO1Qn
g/DK9aDtJRpjgfG03RoGyvkXMw8tC6ja48TvCt7fQjdTGmp4doWztGDHtOhjvcNG
33k6UAzzmiluYB69fsjEXUfDl9Dqpz/U6NLZUjGb53mStIeLql6UWFO2ff9fxV6D
AvBmBe6xmCZFMYta1bbkUIzHQ5CuLnRM0WdXAS8/8KEmCQR+Kjivy0CworbzGbtb
oIO+tHudliaL2CnSW0dsbpCfQ9hTQdBLlDu+q4uiaNpN/JTi/EFWfhFC1Zd+MTyQ
moBzXyuZGQJx1MQI4i2HnE3Jlo+u+TjOCyrNvVjE9HTHpWYQ9judpH5MeboME47z
WECCak+8iwiGRG1npXwLf4qg1wHHZ5Q7ka5PVT3a78T2V66PFJnEH4w3VKGfAtER
jCIAswiL5T1MR5LcRw38xEoE3ymv6+SSMhJ5oApm74pv9La1j8ZMFt1UxYU47lWY
sVixdwIDAQABo4IBazCCAWcwCQYDVR0TBAIwADAtBglghkgBhvhCAQ0EIBYeRWFz
eS1SU0EgR2VuZXJhdGVkIENlcnRpZmljYXRlMB0GA1UdDgQWBBTCUBtEyEtpCSkH
AHufG+Dm5zUBmDCB6QYDVR0jBIHhMIHegBTvOI0UUFinW02cF3L837msp1GwEKGB
uqSBtzCBtDELMAkGA1UEBhMCVVMxCzAJBgNVBAgTAkNBMRUwEwYDVQQHEwxTYW5G
cmFuY2lzY28xFTATBgNVBAoTDFBpeGdsbywgSW5jLjEQMA4GA1UECxMHVlBOLUNJ
RTEaMBgGA1UEAxMRdHVubmVsLnBpeGdsby5jb20xHDAaBgNVBCkTE0JhbGEgQ2hh
bmRyYXNla2FyYW4xHjAcBgkqhkiG9w0BCQEWD2JhbGFAcGl4Z2xvLmNvbYIJAKbb
xoOA5qB5MBMGA1UdJQQMMAoGCCsGAQUFBwMCMAsGA1UdDwQEAwIHgDANBgkqhkiG
9w0BAQUFAAOCAgEAL+KPYtIzoSHfRvBxJW3WcV4jYjyRydlzDw5A8ycqCaHivNl9
dwA+krZ0slCJRfB4XZDOACtbJxQyj5umULgNXL4S5j8e0r52TA9gGmYLoAB5VyCD
2Ujd3mkmZ/NFAKT4u0Rg3dd6lcy/vC0yHHt3eGAdjG8nZTEluZm5LU/renCApBlw
l/Se5BxbMZ91qGc6UTn9b8/yAtezC979ScrgLX7viF7PSEoO+jzWVbIFprIWqP+G
LsipQIgNiMuxG/pr/PlADt7kHIMDQa2Co7ElqKuNA0QYjPo33tLvoJHWTkxSg/RB
B/SzdbU+gDiXTeMTJo/9Am4jyFzrQgUmZIcJ9fvPz0oEJbt/i6Na/WEycsusVDYr
Vvmx5MfsvS60pBsUusDvOlVxnahB2AFYMTU4orn/i4PAgbN6KsZggMu/35x/6DS/
OXmWTpCC9MAx7alnuywz4iSu/tlzkgNI1tgF610cPpV0LESfdOQRuDPnB9hepFDZ
7rvciBZToiih8UKVHgTkVM900SGTOf0Hz6EYNXm0lL+PuqevtL6LZU2plbmF0wir
T2Wi3uY3uv2/8dG6+U7au40Pj1gM9BwSVdA+plFV5lrdZ5CV8QLmd768NlLZ2MoC
WlUDpAylsURadDRKQI3urN7WJFhF/4cHGo2fN4cWmO9T+IqCqFLEg2eMmXY=
-----END CERTIFICATE-----
