Certificate:
    Data:
        Version: 3 (0x2)
        Serial Number: 162 (0xa2)
    Signature Algorithm: sha1WithRSAEncryption
        Issuer: C=US, ST=CA, L=SanFrancisco, O=Pixglo, Inc., OU=VPN-CIE, CN=tunnel.pixglo.com/name=Bala Chandrasekaran/emailAddress=bala@pixglo.com
        Validity
            Not Before: Feb 14 06:26:26 2018 GMT
            Not After : Feb 12 06:26:26 2028 GMT
        Subject: C=US, ST=CA, L=SanFrancisco, O=Pixglo, Inc., OU=VPN-CIE, CN=cie161/name=Bala Chandrasekaran/emailAddress=bala@pixglo.com
        Subject Public Key Info:
            Public Key Algorithm: rsaEncryption
                Public-Key: (4096 bit)
                Modulus:
                    00:9a:61:f8:22:9d:40:52:de:2b:44:92:08:b4:40:
                    b2:1f:7e:9f:58:18:39:9f:17:56:26:78:d7:40:08:
                    71:2b:28:45:a8:a1:de:b8:f6:99:a7:5f:d9:1a:27:
                    ae:77:06:65:f0:f1:a4:94:e6:b5:8a:90:ab:5a:87:
                    d0:bf:45:f0:96:00:6b:8f:7b:65:f2:9b:74:2f:92:
                    86:dd:82:b1:3e:25:15:29:83:0b:41:63:d4:ac:44:
                    e0:09:2f:83:67:3f:50:2b:53:2c:77:6e:af:29:78:
                    a5:29:a1:6c:9e:a8:3d:70:6b:65:a1:b7:7f:cb:e1:
                    19:7a:45:bd:47:d7:a9:84:ec:1a:71:77:ef:69:1e:
                    55:ea:2b:98:38:15:cc:08:c5:3c:08:89:e9:d7:98:
                    96:00:97:6b:03:b8:b4:06:8b:77:ed:8a:55:80:31:
                    b1:8f:4c:80:6d:1c:86:ea:16:98:9a:5d:61:a8:85:
                    71:10:12:3d:7e:f3:e7:71:ed:22:47:ab:39:b9:ff:
                    cc:e2:5f:6e:df:3a:c5:d3:6b:5e:81:5d:77:c2:1a:
                    1d:45:13:eb:59:4d:ab:43:2b:9f:17:77:1f:c0:92:
                    81:3c:80:a1:f4:d6:49:c3:0b:27:3c:ff:b3:b6:2c:
                    bc:29:88:5b:da:33:bc:61:38:d5:97:de:99:d9:38:
                    4e:64:9d:21:ce:7e:a0:7b:52:c4:3b:87:0b:8b:22:
                    2e:7f:69:61:63:fe:17:c3:25:6b:02:c2:f2:cb:47:
                    3f:b9:03:f2:14:e7:d6:02:8b:f9:70:30:90:2b:05:
                    4c:ed:d5:a5:80:4d:be:ad:58:4c:8e:43:8a:0d:65:
                    60:10:6a:b3:3a:28:7e:40:d2:ed:f3:74:2e:3f:29:
                    36:35:15:05:cb:08:7a:95:35:a9:b2:e4:0d:5e:6f:
                    c5:b3:2f:ef:00:7a:d8:af:93:d4:1e:08:65:72:eb:
                    89:fc:98:53:ed:74:76:95:d5:93:33:30:3d:26:b7:
                    2e:ed:84:18:cf:7b:27:10:83:6a:35:3e:27:a5:99:
                    db:66:6d:df:57:95:d3:50:90:e2:aa:92:7c:f4:b0:
                    37:4a:d7:91:8d:62:88:79:a4:30:3f:92:d5:91:f3:
                    59:51:e6:07:9d:80:af:ea:e0:2f:2c:44:d9:c1:c3:
                    7c:04:b8:ff:58:57:67:d7:9b:86:4a:7f:68:61:31:
                    98:90:98:47:18:14:63:fc:66:00:fb:1f:4f:72:61:
                    9f:53:9c:b6:14:46:9c:85:c8:40:81:24:70:94:73:
                    f1:5e:6e:ab:9f:6b:fd:83:45:52:21:6f:d1:34:7e:
                    45:31:97:be:a8:85:2f:6c:df:96:aa:74:3f:9b:da:
                    76:b1:1d
                Exponent: 65537 (0x10001)
        X509v3 extensions:
            X509v3 Basic Constraints: 
                CA:FALSE
            Netscape Comment: 
                Easy-RSA Generated Certificate
            X509v3 Subject Key Identifier: 
                94:63:6C:12:56:5B:30:CE:B4:4E:BB:7A:9A:F0:06:21:B4:24:70:0C
            X509v3 Authority Key Identifier: 
                keyid:EF:38:8D:14:50:58:A7:5B:4D:9C:17:72:FC:DF:B9:AC:A7:51:B0:10
                DirName:/C=US/ST=CA/L=SanFrancisco/O=Pixglo, Inc./OU=VPN-CIE/CN=tunnel.pixglo.com/name=Bala Chandrasekaran/emailAddress=bala@pixglo.com
                serial:A6:DB:C6:83:80:E6:A0:79

            X509v3 Extended Key Usage: 
                TLS Web Client Authentication
            X509v3 Key Usage: 
                Digital Signature
    Signature Algorithm: sha1WithRSAEncryption
         16:24:32:3c:26:c1:cd:13:d1:e6:16:59:cd:58:c3:a8:3e:dc:
         76:43:98:58:8e:d8:6f:94:be:b4:06:dc:bf:35:0d:cf:99:b5:
         69:5b:a2:21:84:10:c0:a1:e8:29:6c:69:8b:fb:28:b3:a6:69:
         50:b2:3d:0e:05:f6:26:cb:7e:af:e2:3b:e7:b6:e2:00:2a:6b:
         8e:ac:7a:b7:0b:c3:77:7c:a9:c6:7b:af:a5:2d:7a:2a:e4:55:
         8d:ca:ac:30:fb:0c:42:be:55:fa:cc:8a:30:05:a6:53:04:ef:
         43:3a:1c:e1:e3:b5:14:a3:c8:64:b1:9f:55:9d:22:d0:5a:33:
         03:38:e9:90:4f:a4:40:e5:55:79:93:b4:e1:f1:36:a0:dd:df:
         85:74:c8:a5:50:5b:ce:92:67:0b:99:b7:f0:a6:08:3f:b4:99:
         32:21:1c:a0:08:f9:78:e1:52:61:87:f3:d4:9a:ed:94:06:28:
         1c:2e:b3:cd:cf:8e:af:1f:40:3c:b3:90:cc:24:93:d0:f9:7b:
         e4:fa:c7:ed:3f:7e:c9:a8:fa:0c:45:56:1c:ae:d7:59:a4:37:
         9d:5a:98:c0:07:84:e4:2f:52:28:c3:05:dc:4a:bd:88:fb:47:
         a3:96:86:3d:66:13:ef:41:bc:9f:d4:37:f1:bc:2f:6b:a5:ff:
         b9:0e:02:38:92:ed:69:83:4c:52:fc:ee:10:79:b2:79:19:9d:
         f6:76:5e:70:2b:37:27:45:f9:c8:ed:6f:b6:00:d0:a2:7f:0c:
         f9:f9:a7:7e:f3:e9:53:a3:17:22:fa:80:a5:ac:d5:3c:59:42:
         3a:f6:56:bd:f9:7c:4f:90:cb:f6:16:8e:da:dd:ba:d1:b5:1f:
         fc:ee:9e:97:af:92:14:88:2a:bc:15:dd:bc:c2:d6:fa:8f:ed:
         1d:78:e2:9c:ef:ad:86:07:5f:f6:b2:49:9c:de:ba:fa:88:bf:
         c9:e9:41:8f:c3:b4:28:67:a3:2f:bc:86:b7:7e:e3:0d:a7:c8:
         b5:c2:1f:aa:c5:8b:34:c8:15:90:c4:d0:5e:0e:f5:5f:ae:33:
         53:e8:a2:a9:45:41:9c:88:29:07:5e:b3:0b:db:a5:3b:96:52:
         8b:1e:49:e7:b2:70:13:f0:be:3f:a9:1c:da:cc:03:2e:bf:6b:
         c6:c1:b4:4b:2d:46:f5:43:fa:69:ff:7a:2b:de:d6:94:be:0b:
         f1:81:b6:21:91:b0:94:d3:b3:42:14:7f:bc:47:b3:8f:f1:92:
         b8:8f:46:cc:cf:c9:f8:49:05:05:0b:60:c4:cd:52:c3:a0:74:
         e0:c0:af:85:70:15:85:83:29:70:d2:6a:40:3d:a4:f0:42:2c:
         1c:b5:51:cf:f9:dc:49:23
-----BEGIN CERTIFICATE-----
MIIHSDCCBTCgAwIBAgICAKIwDQYJKoZIhvcNAQEFBQAwgbQxCzAJBgNVBAYTAlVT
MQswCQYDVQQIEwJDQTEVMBMGA1UEBxMMU2FuRnJhbmNpc2NvMRUwEwYDVQQKEwxQ
aXhnbG8sIEluYy4xEDAOBgNVBAsTB1ZQTi1DSUUxGjAYBgNVBAMTEXR1bm5lbC5w
aXhnbG8uY29tMRwwGgYDVQQpExNCYWxhIENoYW5kcmFzZWthcmFuMR4wHAYJKoZI
hvcNAQkBFg9iYWxhQHBpeGdsby5jb20wHhcNMTgwMjE0MDYyNjI2WhcNMjgwMjEy
MDYyNjI2WjCBqTELMAkGA1UEBhMCVVMxCzAJBgNVBAgTAkNBMRUwEwYDVQQHEwxT
YW5GcmFuY2lzY28xFTATBgNVBAoTDFBpeGdsbywgSW5jLjEQMA4GA1UECxMHVlBO
LUNJRTEPMA0GA1UEAxMGY2llMTYxMRwwGgYDVQQpExNCYWxhIENoYW5kcmFzZWth
cmFuMR4wHAYJKoZIhvcNAQkBFg9iYWxhQHBpeGdsby5jb20wggIiMA0GCSqGSIb3
DQEBAQUAA4ICDwAwggIKAoICAQCaYfginUBS3itEkgi0QLIffp9YGDmfF1YmeNdA
CHErKEWood649pmnX9kaJ653BmXw8aSU5rWKkKtah9C/RfCWAGuPe2Xym3Qvkobd
grE+JRUpgwtBY9SsROAJL4NnP1ArUyx3bq8peKUpoWyeqD1wa2Wht3/L4Rl6Rb1H
16mE7Bpxd+9pHlXqK5g4FcwIxTwIienXmJYAl2sDuLQGi3ftilWAMbGPTIBtHIbq
FpiaXWGohXEQEj1+8+dx7SJHqzm5/8ziX27fOsXTa16BXXfCGh1FE+tZTatDK58X
dx/AkoE8gKH01knDCyc8/7O2LLwpiFvaM7xhONWX3pnZOE5knSHOfqB7UsQ7hwuL
Ii5/aWFj/hfDJWsCwvLLRz+5A/IU59YCi/lwMJArBUzt1aWATb6tWEyOQ4oNZWAQ
arM6KH5A0u3zdC4/KTY1FQXLCHqVNamy5A1eb8WzL+8Aetivk9QeCGVy64n8mFPt
dHaV1ZMzMD0mty7thBjPeycQg2o1Pielmdtmbd9XldNQkOKqknz0sDdK15GNYoh5
pDA/ktWR81lR5gedgK/q4C8sRNnBw3wEuP9YV2fXm4ZKf2hhMZiQmEcYFGP8ZgD7
H09yYZ9TnLYURpyFyECBJHCUc/Febqufa/2DRVIhb9E0fkUxl76ohS9s35aqdD+b
2naxHQIDAQABo4IBazCCAWcwCQYDVR0TBAIwADAtBglghkgBhvhCAQ0EIBYeRWFz
eS1SU0EgR2VuZXJhdGVkIENlcnRpZmljYXRlMB0GA1UdDgQWBBSUY2wSVlswzrRO
u3qa8AYhtCRwDDCB6QYDVR0jBIHhMIHegBTvOI0UUFinW02cF3L837msp1GwEKGB
uqSBtzCBtDELMAkGA1UEBhMCVVMxCzAJBgNVBAgTAkNBMRUwEwYDVQQHEwxTYW5G
cmFuY2lzY28xFTATBgNVBAoTDFBpeGdsbywgSW5jLjEQMA4GA1UECxMHVlBOLUNJ
RTEaMBgGA1UEAxMRdHVubmVsLnBpeGdsby5jb20xHDAaBgNVBCkTE0JhbGEgQ2hh
bmRyYXNla2FyYW4xHjAcBgkqhkiG9w0BCQEWD2JhbGFAcGl4Z2xvLmNvbYIJAKbb
xoOA5qB5MBMGA1UdJQQMMAoGCCsGAQUFBwMCMAsGA1UdDwQEAwIHgDANBgkqhkiG
9w0BAQUFAAOCAgEAFiQyPCbBzRPR5hZZzVjDqD7cdkOYWI7Yb5S+tAbcvzUNz5m1
aVuiIYQQwKHoKWxpi/sos6ZpULI9DgX2Jst+r+I757biACprjqx6twvDd3ypxnuv
pS16KuRVjcqsMPsMQr5V+syKMAWmUwTvQzoc4eO1FKPIZLGfVZ0i0FozAzjpkE+k
QOVVeZO04fE2oN3fhXTIpVBbzpJnC5m38KYIP7SZMiEcoAj5eOFSYYfz1JrtlAYo
HC6zzc+Orx9APLOQzCST0Pl75PrH7T9+yaj6DEVWHK7XWaQ3nVqYwAeE5C9SKMMF
3Eq9iPtHo5aGPWYT70G8n9Q38bwva6X/uQ4COJLtaYNMUvzuEHmyeRmd9nZecCs3
J0X5yO1vtgDQon8M+fmnfvPpU6MXIvqApazVPFlCOvZWvfl8T5DL9haO2t260bUf
/O6el6+SFIgqvBXdvMLW+o/tHXjinO+thgdf9rJJnN66+oi/yelBj8O0KGejL7yG
t37jDafItcIfqsWLNMgVkMTQXg71X64zU+iiqUVBnIgpB16zC9ulO5ZSix5J57Jw
E/C+P6kc2swDLr9rxsG0Sy1G9UP6af96K97WlL4L8YG2IZGwlNOzQhR/vEezj/GS
uI9GzM/J+EkFBQtgxM1Sw6B04MCvhXAVhYMpcNJqQD2k8EIsHLVRz/ncSSM=
-----END CERTIFICATE-----
