Certificate:
    Data:
        Version: 3 (0x2)
        Serial Number: 156 (0x9c)
    Signature Algorithm: sha1WithRSAEncryption
        Issuer: C=US, ST=CA, L=SanFrancisco, O=Pixglo, Inc., OU=VPN-CIE, CN=tunnel.pixglo.com/name=Bala Chandrasekaran/emailAddress=bala@pixglo.com
        Validity
            Not Before: Feb 14 06:26:20 2018 GMT
            Not After : Feb 12 06:26:20 2028 GMT
        Subject: C=US, ST=CA, L=SanFrancisco, O=Pixglo, Inc., OU=VPN-CIE, CN=cie155/name=Bala Chandrasekaran/emailAddress=bala@pixglo.com
        Subject Public Key Info:
            Public Key Algorithm: rsaEncryption
                Public-Key: (4096 bit)
                Modulus:
                    00:da:6b:27:19:aa:8a:0c:77:e0:51:7c:32:72:46:
                    fe:7f:a3:55:c3:3e:7f:34:e0:e2:a0:2f:71:c4:8f:
                    7d:f2:85:75:23:17:0b:42:8d:d0:3a:0f:e7:da:82:
                    fd:69:3c:a8:42:6c:f4:41:01:14:b8:46:b9:2a:4b:
                    be:7d:e2:62:8e:24:50:cc:8a:10:f5:12:de:a1:c1:
                    d6:b8:66:78:89:fe:85:8d:08:f0:83:85:b3:f3:2e:
                    30:22:b8:3e:2f:76:e2:71:ea:3c:51:90:61:87:5b:
                    40:b2:c0:36:81:a5:93:d0:29:0f:a0:33:09:8a:04:
                    82:a5:6b:23:92:23:27:cc:3d:82:7d:85:4e:81:22:
                    75:b0:53:47:af:c4:d4:28:ed:82:e4:a8:25:38:3b:
                    9f:55:9f:d5:4b:1a:26:6b:4a:06:87:dd:0c:96:ee:
                    e5:9a:3c:5b:2b:56:b0:c2:e2:36:c4:3f:eb:ab:09:
                    3f:49:f7:81:d0:a1:c3:ba:db:6f:7c:0b:19:89:92:
                    b3:65:fc:f8:e9:49:97:37:a5:d9:7c:3d:fa:3d:6b:
                    96:1f:90:1e:ea:00:b5:cb:81:67:38:88:7d:4a:48:
                    27:fe:cc:70:dc:4e:11:20:4f:9c:cc:cd:c8:b1:d2:
                    e7:5e:45:7d:4e:d4:74:54:32:85:f2:ed:e3:31:f2:
                    98:06:e6:b1:62:40:8b:d6:57:b4:4d:cd:3f:a5:4d:
                    74:65:76:c1:3c:47:ca:86:e7:17:09:5d:e3:a9:6f:
                    64:4c:27:76:4a:af:38:2e:78:40:12:58:f4:0a:98:
                    9a:62:bf:b3:7c:a0:95:72:5c:eb:1b:6a:a2:3e:9e:
                    3a:73:79:8f:98:7b:ea:01:fc:32:25:89:b2:3d:38:
                    29:73:c2:0a:71:a5:af:d0:4c:a0:15:75:99:8e:03:
                    78:ad:7a:91:f8:f0:32:7b:bb:9a:81:be:79:8b:f3:
                    0e:49:21:40:ce:61:86:75:2e:71:91:dd:76:aa:5d:
                    0a:54:93:dc:34:0f:ef:d8:b4:0d:7d:05:3c:87:49:
                    ec:2c:32:e5:c1:b7:cb:2b:6f:b6:ab:2b:06:84:f4:
                    11:1f:1c:f1:b6:67:18:cb:a8:b3:aa:88:78:33:f9:
                    86:08:04:da:67:27:4e:ee:7e:e3:82:6a:ef:5b:fa:
                    4d:66:7d:c0:a8:b6:af:0f:56:e9:d4:86:52:bf:92:
                    ed:f7:7f:89:fa:c2:d6:da:6b:17:58:10:7e:6b:26:
                    81:3c:da:47:af:f7:4b:5f:56:c7:af:3c:8b:60:25:
                    93:a0:ed:4b:24:d7:f5:8a:39:db:51:4e:da:e0:8b:
                    fa:12:51:17:db:9c:95:3c:99:cf:d2:90:bf:cd:e1:
                    ac:77:9f
                Exponent: 65537 (0x10001)
        X509v3 extensions:
            X509v3 Basic Constraints: 
                CA:FALSE
            Netscape Comment: 
                Easy-RSA Generated Certificate
            X509v3 Subject Key Identifier: 
                D8:83:D1:D9:4D:15:C2:50:EF:74:10:97:DB:EA:DE:C2:D8:D5:58:05
            X509v3 Authority Key Identifier: 
                keyid:EF:38:8D:14:50:58:A7:5B:4D:9C:17:72:FC:DF:B9:AC:A7:51:B0:10
                DirName:/C=US/ST=CA/L=SanFrancisco/O=Pixglo, Inc./OU=VPN-CIE/CN=tunnel.pixglo.com/name=Bala Chandrasekaran/emailAddress=bala@pixglo.com
                serial:A6:DB:C6:83:80:E6:A0:79

            X509v3 Extended Key Usage: 
                TLS Web Client Authentication
            X509v3 Key Usage: 
                Digital Signature
    Signature Algorithm: sha1WithRSAEncryption
         37:fa:b0:04:6b:a2:7e:5c:84:25:15:76:51:44:24:0f:40:cc:
         05:a2:77:d6:11:5a:04:a8:8a:6c:d5:ca:34:eb:92:c7:44:3a:
         31:6d:44:1e:c8:8e:17:12:ed:6f:34:79:a5:69:b8:de:86:27:
         a4:a8:0b:9a:2d:f3:cb:37:57:2d:8b:cc:99:77:cb:71:a9:1e:
         ec:11:ef:1b:d5:16:19:1b:57:d5:27:69:64:b5:f8:e0:ba:56:
         9e:bc:04:28:46:16:22:da:d4:d3:91:34:93:94:f1:2a:c3:d0:
         8c:ae:49:51:23:59:1c:09:1c:40:83:bd:2f:27:e2:d1:20:9e:
         51:aa:f0:6a:fc:87:e7:1a:f0:88:41:d6:b6:be:e6:4d:89:8c:
         56:d6:6e:cd:5d:6a:19:4a:ac:f9:f0:88:60:a3:20:5b:5c:a4:
         be:79:f1:67:a0:b9:6e:51:5a:8f:ad:a7:a6:69:ff:39:3c:d0:
         97:82:12:b1:1a:f9:11:bc:33:27:62:8f:b8:60:93:5b:89:a7:
         e8:c4:be:49:a0:8c:14:bf:df:5e:69:e8:25:8a:54:1d:77:db:
         a2:12:bf:82:00:90:2b:cc:29:25:33:29:8c:60:c8:7f:b8:eb:
         2c:ec:74:25:4f:ce:b0:15:b4:8b:1f:a8:19:28:a2:54:6a:b5:
         4d:bb:cb:61:39:37:6d:ee:66:02:44:77:3a:ec:13:be:6b:b8:
         9d:4f:06:53:82:20:07:f2:ec:a5:c0:33:bf:1b:e7:3b:7e:b5:
         b8:90:61:7c:fc:bf:d2:2c:c7:72:4e:8f:21:2c:5b:65:63:91:
         81:97:44:e3:c6:3b:05:49:29:cc:e9:8f:f7:d4:9a:03:7f:a9:
         93:7c:81:f2:29:58:b3:4e:86:41:20:ed:29:4a:44:ff:ea:9c:
         16:74:b3:28:3d:2d:ac:52:55:a9:fe:a2:fb:c8:ac:40:e5:15:
         38:9c:45:f1:af:fb:31:3b:5d:a7:e2:ac:c7:f5:8f:22:82:15:
         48:fc:4b:84:c3:bc:25:2f:c1:77:52:35:28:8f:b6:29:b5:86:
         10:dd:ef:a8:5b:27:9c:94:66:12:c9:31:24:7c:66:af:f9:46:
         fd:8a:78:13:5d:d3:01:52:7c:5d:6c:c3:1c:cf:d9:ec:40:a0:
         10:d9:0b:ce:f7:ca:7e:bf:89:67:18:1a:20:f3:6c:8b:c6:d9:
         c4:7f:34:5b:98:f9:40:03:74:1b:8f:0f:f7:ee:08:4f:7b:88:
         0d:e9:be:e0:10:83:8b:8d:4f:e4:92:8a:f8:72:11:ef:44:cb:
         d9:d0:db:94:08:70:2c:35:0d:0b:1d:35:b5:e5:58:6d:35:f3:
         73:86:c8:75:4b:94:ca:d9
-----BEGIN CERTIFICATE-----
MIIHSDCCBTCgAwIBAgICAJwwDQYJKoZIhvcNAQEFBQAwgbQxCzAJBgNVBAYTAlVT
MQswCQYDVQQIEwJDQTEVMBMGA1UEBxMMU2FuRnJhbmNpc2NvMRUwEwYDVQQKEwxQ
aXhnbG8sIEluYy4xEDAOBgNVBAsTB1ZQTi1DSUUxGjAYBgNVBAMTEXR1bm5lbC5w
aXhnbG8uY29tMRwwGgYDVQQpExNCYWxhIENoYW5kcmFzZWthcmFuMR4wHAYJKoZI
hvcNAQkBFg9iYWxhQHBpeGdsby5jb20wHhcNMTgwMjE0MDYyNjIwWhcNMjgwMjEy
MDYyNjIwWjCBqTELMAkGA1UEBhMCVVMxCzAJBgNVBAgTAkNBMRUwEwYDVQQHEwxT
YW5GcmFuY2lzY28xFTATBgNVBAoTDFBpeGdsbywgSW5jLjEQMA4GA1UECxMHVlBO
LUNJRTEPMA0GA1UEAxMGY2llMTU1MRwwGgYDVQQpExNCYWxhIENoYW5kcmFzZWth
cmFuMR4wHAYJKoZIhvcNAQkBFg9iYWxhQHBpeGdsby5jb20wggIiMA0GCSqGSIb3
DQEBAQUAA4ICDwAwggIKAoICAQDaaycZqooMd+BRfDJyRv5/o1XDPn804OKgL3HE
j33yhXUjFwtCjdA6D+fagv1pPKhCbPRBARS4RrkqS7594mKOJFDMihD1Et6hwda4
ZniJ/oWNCPCDhbPzLjAiuD4vduJx6jxRkGGHW0CywDaBpZPQKQ+gMwmKBIKlayOS
IyfMPYJ9hU6BInWwU0evxNQo7YLkqCU4O59Vn9VLGiZrSgaH3QyW7uWaPFsrVrDC
4jbEP+urCT9J94HQocO62298CxmJkrNl/PjpSZc3pdl8Pfo9a5YfkB7qALXLgWc4
iH1KSCf+zHDcThEgT5zMzcix0udeRX1O1HRUMoXy7eMx8pgG5rFiQIvWV7RNzT+l
TXRldsE8R8qG5xcJXeOpb2RMJ3ZKrzgueEASWPQKmJpiv7N8oJVyXOsbaqI+njpz
eY+Ye+oB/DIlibI9OClzwgpxpa/QTKAVdZmOA3itepH48DJ7u5qBvnmL8w5JIUDO
YYZ1LnGR3XaqXQpUk9w0D+/YtA19BTyHSewsMuXBt8srb7arKwaE9BEfHPG2ZxjL
qLOqiHgz+YYIBNpnJ07ufuOCau9b+k1mfcCotq8PVunUhlK/ku33f4n6wtbaaxdY
EH5rJoE82kev90tfVsevPItgJZOg7Usk1/WKOdtRTtrgi/oSURfbnJU8mc/SkL/N
4ax3nwIDAQABo4IBazCCAWcwCQYDVR0TBAIwADAtBglghkgBhvhCAQ0EIBYeRWFz
eS1SU0EgR2VuZXJhdGVkIENlcnRpZmljYXRlMB0GA1UdDgQWBBTYg9HZTRXCUO90
EJfb6t7C2NVYBTCB6QYDVR0jBIHhMIHegBTvOI0UUFinW02cF3L837msp1GwEKGB
uqSBtzCBtDELMAkGA1UEBhMCVVMxCzAJBgNVBAgTAkNBMRUwEwYDVQQHEwxTYW5G
cmFuY2lzY28xFTATBgNVBAoTDFBpeGdsbywgSW5jLjEQMA4GA1UECxMHVlBOLUNJ
RTEaMBgGA1UEAxMRdHVubmVsLnBpeGdsby5jb20xHDAaBgNVBCkTE0JhbGEgQ2hh
bmRyYXNla2FyYW4xHjAcBgkqhkiG9w0BCQEWD2JhbGFAcGl4Z2xvLmNvbYIJAKbb
xoOA5qB5MBMGA1UdJQQMMAoGCCsGAQUFBwMCMAsGA1UdDwQEAwIHgDANBgkqhkiG
9w0BAQUFAAOCAgEAN/qwBGuiflyEJRV2UUQkD0DMBaJ31hFaBKiKbNXKNOuSx0Q6
MW1EHsiOFxLtbzR5pWm43oYnpKgLmi3zyzdXLYvMmXfLcake7BHvG9UWGRtX1Sdp
ZLX44LpWnrwEKEYWItrU05E0k5TxKsPQjK5JUSNZHAkcQIO9Lyfi0SCeUarwavyH
5xrwiEHWtr7mTYmMVtZuzV1qGUqs+fCIYKMgW1ykvnnxZ6C5blFaj62npmn/OTzQ
l4ISsRr5EbwzJ2KPuGCTW4mn6MS+SaCMFL/fXmnoJYpUHXfbohK/ggCQK8wpJTMp
jGDIf7jrLOx0JU/OsBW0ix+oGSiiVGq1TbvLYTk3be5mAkR3OuwTvmu4nU8GU4Ig
B/LspcAzvxvnO361uJBhfPy/0izHck6PISxbZWORgZdE48Y7BUkpzOmP99SaA3+p
k3yB8ilYs06GQSDtKUpE/+qcFnSzKD0trFJVqf6i+8isQOUVOJxF8a/7MTtdp+Ks
x/WPIoIVSPxLhMO8JS/Bd1I1KI+2KbWGEN3vqFsnnJRmEskxJHxmr/lG/Yp4E13T
AVJ8XWzDHM/Z7ECgENkLzvfKfr+JZxgaIPNsi8bZxH80W5j5QAN0G48P9+4IT3uI
Dem+4BCDi41P5JKK+HIR70TL2dDblAhwLDUNCx01teVYbTXzc4bIdUuUytk=
-----END CERTIFICATE-----
