Certificate:
    Data:
        Version: 3 (0x2)
        Serial Number: 175 (0xaf)
    Signature Algorithm: sha1WithRSAEncryption
        Issuer: C=US, ST=CA, L=SanFrancisco, O=Pixglo, Inc., OU=VPN-CIE, CN=tunnel.pixglo.com/name=Bala Chandrasekaran/emailAddress=bala@pixglo.com
        Validity
            Not Before: Feb 14 06:26:34 2018 GMT
            Not After : Feb 12 06:26:34 2028 GMT
        Subject: C=US, ST=CA, L=SanFrancisco, O=Pixglo, Inc., OU=VPN-CIE, CN=cie174/name=Bala Chandrasekaran/emailAddress=bala@pixglo.com
        Subject Public Key Info:
            Public Key Algorithm: rsaEncryption
                Public-Key: (4096 bit)
                Modulus:
                    00:da:9c:06:58:9e:9c:fa:54:5d:06:a4:da:44:3d:
                    db:90:7b:df:b1:18:43:1b:e2:51:be:e0:01:2c:05:
                    79:fa:ac:3d:0d:6b:11:09:f3:bc:e9:94:81:f4:1b:
                    59:6f:ff:5b:c2:66:6f:12:aa:25:21:c4:e9:83:e0:
                    8e:2a:10:63:e0:e0:52:a7:13:ae:7c:6b:ac:2a:80:
                    86:39:7b:87:6a:14:84:58:67:72:e9:2f:49:13:25:
                    cb:08:30:21:6f:b6:ee:52:3d:4a:db:48:d9:61:c0:
                    c8:dd:ca:fa:e1:64:4d:04:61:d3:05:f7:fc:26:a8:
                    13:fd:a9:22:18:4f:e0:a4:d0:1a:ac:14:fe:b8:b4:
                    49:0b:98:3e:9e:57:84:02:f3:cf:ba:f7:08:dc:42:
                    7d:8c:92:8e:87:f6:9e:89:bf:6f:22:8f:4b:27:cc:
                    3f:45:2a:02:9c:f8:df:8f:06:64:21:a3:ae:81:c1:
                    9e:75:95:61:08:d5:20:0e:86:ec:ce:a5:9a:b2:43:
                    09:ec:90:29:61:57:00:77:03:ac:93:0c:b8:aa:fb:
                    9f:01:42:c0:e5:57:9c:a4:70:d1:36:8f:42:0b:49:
                    96:dd:bb:06:ea:3a:84:4c:27:a4:a8:e3:98:d8:d5:
                    7c:ab:0b:24:7e:84:ff:8d:5a:f8:49:92:71:dc:92:
                    c9:e7:a8:dd:de:90:3b:6b:02:7e:a0:ea:9f:dd:d4:
                    2e:66:84:37:8f:b9:c3:18:c9:00:8a:7b:53:3b:c3:
                    78:a7:27:31:b0:fb:d2:9a:16:d7:be:4f:d0:9c:36:
                    55:4d:f7:3a:bf:0a:c6:bc:a2:d4:a4:90:7f:00:c8:
                    16:5e:34:83:82:cb:1d:1f:ac:65:4d:36:5e:dc:a9:
                    61:c4:91:a1:2b:8d:99:c4:2b:04:a5:e7:1c:ae:1b:
                    3b:20:d9:93:99:ef:90:67:b0:ee:5c:94:8b:3d:94:
                    dd:56:0b:82:4c:de:7e:73:5a:2c:56:81:06:3a:a3:
                    75:df:8d:9c:25:f0:20:61:c3:99:a9:6a:bc:a7:a7:
                    77:5c:79:bf:c0:3b:dc:02:6c:43:d9:34:70:b3:8d:
                    ab:e7:00:27:00:c8:2f:f3:72:db:e9:e7:24:15:82:
                    9e:82:b6:37:6b:85:38:fe:d2:22:07:d2:82:cf:bd:
                    63:6d:d8:75:6e:52:5b:a5:d1:45:5f:ee:00:81:2e:
                    84:87:7c:fe:71:94:3a:94:1d:a6:a4:f9:96:77:24:
                    1c:9f:5c:3d:ab:5a:d1:01:0f:fc:c4:28:a9:af:8e:
                    90:28:e5:18:81:2d:24:82:11:e1:b7:95:0d:90:cb:
                    88:5e:df:eb:11:84:87:10:be:cb:69:9e:37:8c:41:
                    f9:86:f9
                Exponent: 65537 (0x10001)
        X509v3 extensions:
            X509v3 Basic Constraints: 
                CA:FALSE
            Netscape Comment: 
                Easy-RSA Generated Certificate
            X509v3 Subject Key Identifier: 
                29:0A:AE:D2:BC:CA:94:CC:0B:1E:92:7A:02:9C:65:BA:14:6D:46:9E
            X509v3 Authority Key Identifier: 
                keyid:EF:38:8D:14:50:58:A7:5B:4D:9C:17:72:FC:DF:B9:AC:A7:51:B0:10
                DirName:/C=US/ST=CA/L=SanFrancisco/O=Pixglo, Inc./OU=VPN-CIE/CN=tunnel.pixglo.com/name=Bala Chandrasekaran/emailAddress=bala@pixglo.com
                serial:A6:DB:C6:83:80:E6:A0:79

            X509v3 Extended Key Usage: 
                TLS Web Client Authentication
            X509v3 Key Usage: 
                Digital Signature
    Signature Algorithm: sha1WithRSAEncryption
         e0:f5:54:b4:37:d1:02:d5:d8:bd:2d:a3:69:65:32:a3:ee:88:
         35:2f:6e:cb:26:11:86:2c:c8:2b:ed:f2:c8:3f:74:bf:97:6c:
         21:b9:67:3c:ac:27:c5:25:af:2f:7c:eb:2a:05:da:c1:20:cd:
         5a:ee:46:a1:2e:e3:a9:41:19:51:4c:b8:60:77:71:cc:8a:64:
         a4:73:47:b3:60:04:53:6a:c5:ea:47:d5:f0:f2:fd:48:e6:13:
         8d:13:cd:90:fd:25:78:37:36:b6:ad:a9:c7:99:da:88:3b:bf:
         17:e2:1e:f0:84:54:26:85:4f:53:9d:3b:fd:12:79:07:ac:f7:
         db:a7:fc:ff:9c:73:e5:6e:3f:76:73:56:0f:cf:02:c4:5e:42:
         e3:85:33:67:ff:40:d5:b0:3e:36:75:cb:17:93:f1:74:33:eb:
         3f:99:1e:c0:e1:61:d1:75:f5:14:ba:fe:eb:cc:81:8c:ab:cf:
         15:bd:9c:12:79:29:56:41:e9:76:ab:3b:8d:68:95:49:53:cc:
         52:14:95:39:70:54:fc:18:56:bd:62:eb:dc:13:95:fa:40:79:
         34:8e:3c:6a:01:c8:e4:b0:55:d5:46:a1:cd:17:79:86:59:e8:
         ac:72:8c:e2:9a:e7:de:7f:f5:ae:4f:7d:a7:9d:eb:2a:58:6f:
         4d:69:bf:9e:f0:39:b0:11:13:cb:ec:35:b7:c9:6e:b0:91:a0:
         65:54:fa:2a:62:d2:d2:ab:04:a2:4b:e6:61:af:6c:3e:aa:2a:
         f2:0a:3e:ec:ae:5a:96:03:1b:c1:57:d0:ae:70:7c:76:9a:1d:
         4f:41:eb:10:dc:3f:39:84:1f:27:18:89:30:89:33:69:6c:fa:
         dc:eb:0c:a8:08:a2:b0:28:be:c4:aa:21:1f:d3:8d:f6:8e:f7:
         1c:22:b9:c9:a3:ac:c3:5b:b2:75:53:f5:f2:ec:db:6c:cd:3e:
         6a:2f:92:57:6c:f0:e8:1b:32:21:53:32:80:cf:0f:e4:3f:2a:
         4c:aa:bf:8b:ec:f4:2d:a7:56:1d:d8:f7:bd:33:ef:8a:c2:ed:
         d3:21:75:26:d2:20:79:aa:e2:30:6e:03:9d:67:47:24:21:5f:
         cf:bd:e4:5a:a6:e5:e5:a1:db:b7:7d:c1:a4:0f:69:9b:18:fa:
         e6:52:c1:ab:b5:67:8f:f4:7d:90:c5:31:a6:38:8b:03:0b:95:
         2e:a5:b0:ee:ac:6b:eb:b1:5c:3d:93:54:47:53:b5:ec:39:68:
         c7:2f:1b:6f:60:90:5b:24:ed:f3:38:10:2d:a1:ae:5b:f3:8c:
         4b:e2:88:c7:a8:14:18:f1:f2:c2:bf:f1:97:2e:6b:58:27:72:
         be:71:65:65:b3:31:0a:33
-----BEGIN CERTIFICATE-----
MIIHSDCCBTCgAwIBAgICAK8wDQYJKoZIhvcNAQEFBQAwgbQxCzAJBgNVBAYTAlVT
MQswCQYDVQQIEwJDQTEVMBMGA1UEBxMMU2FuRnJhbmNpc2NvMRUwEwYDVQQKEwxQ
aXhnbG8sIEluYy4xEDAOBgNVBAsTB1ZQTi1DSUUxGjAYBgNVBAMTEXR1bm5lbC5w
aXhnbG8uY29tMRwwGgYDVQQpExNCYWxhIENoYW5kcmFzZWthcmFuMR4wHAYJKoZI
hvcNAQkBFg9iYWxhQHBpeGdsby5jb20wHhcNMTgwMjE0MDYyNjM0WhcNMjgwMjEy
MDYyNjM0WjCBqTELMAkGA1UEBhMCVVMxCzAJBgNVBAgTAkNBMRUwEwYDVQQHEwxT
YW5GcmFuY2lzY28xFTATBgNVBAoTDFBpeGdsbywgSW5jLjEQMA4GA1UECxMHVlBO
LUNJRTEPMA0GA1UEAxMGY2llMTc0MRwwGgYDVQQpExNCYWxhIENoYW5kcmFzZWth
cmFuMR4wHAYJKoZIhvcNAQkBFg9iYWxhQHBpeGdsby5jb20wggIiMA0GCSqGSIb3
DQEBAQUAA4ICDwAwggIKAoICAQDanAZYnpz6VF0GpNpEPduQe9+xGEMb4lG+4AEs
BXn6rD0NaxEJ87zplIH0G1lv/1vCZm8SqiUhxOmD4I4qEGPg4FKnE658a6wqgIY5
e4dqFIRYZ3LpL0kTJcsIMCFvtu5SPUrbSNlhwMjdyvrhZE0EYdMF9/wmqBP9qSIY
T+Ck0BqsFP64tEkLmD6eV4QC88+69wjcQn2Mko6H9p6Jv28ij0snzD9FKgKc+N+P
BmQho66BwZ51lWEI1SAOhuzOpZqyQwnskClhVwB3A6yTDLiq+58BQsDlV5ykcNE2
j0ILSZbduwbqOoRMJ6So45jY1XyrCyR+hP+NWvhJknHcksnnqN3ekDtrAn6g6p/d
1C5mhDePucMYyQCKe1M7w3inJzGw+9KaFte+T9CcNlVN9zq/Csa8otSkkH8AyBZe
NIOCyx0frGVNNl7cqWHEkaErjZnEKwSl5xyuGzsg2ZOZ75BnsO5clIs9lN1WC4JM
3n5zWixWgQY6o3XfjZwl8CBhw5mparynp3dceb/AO9wCbEPZNHCzjavnACcAyC/z
ctvp5yQVgp6CtjdrhTj+0iIH0oLPvWNt2HVuUlul0UVf7gCBLoSHfP5xlDqUHaak
+ZZ3JByfXD2rWtEBD/zEKKmvjpAo5RiBLSSCEeG3lQ2Qy4he3+sRhIcQvstpnjeM
QfmG+QIDAQABo4IBazCCAWcwCQYDVR0TBAIwADAtBglghkgBhvhCAQ0EIBYeRWFz
eS1SU0EgR2VuZXJhdGVkIENlcnRpZmljYXRlMB0GA1UdDgQWBBQpCq7SvMqUzAse
knoCnGW6FG1GnjCB6QYDVR0jBIHhMIHegBTvOI0UUFinW02cF3L837msp1GwEKGB
uqSBtzCBtDELMAkGA1UEBhMCVVMxCzAJBgNVBAgTAkNBMRUwEwYDVQQHEwxTYW5G
cmFuY2lzY28xFTATBgNVBAoTDFBpeGdsbywgSW5jLjEQMA4GA1UECxMHVlBOLUNJ
RTEaMBgGA1UEAxMRdHVubmVsLnBpeGdsby5jb20xHDAaBgNVBCkTE0JhbGEgQ2hh
bmRyYXNla2FyYW4xHjAcBgkqhkiG9w0BCQEWD2JhbGFAcGl4Z2xvLmNvbYIJAKbb
xoOA5qB5MBMGA1UdJQQMMAoGCCsGAQUFBwMCMAsGA1UdDwQEAwIHgDANBgkqhkiG
9w0BAQUFAAOCAgEA4PVUtDfRAtXYvS2jaWUyo+6INS9uyyYRhizIK+3yyD90v5ds
IblnPKwnxSWvL3zrKgXawSDNWu5GoS7jqUEZUUy4YHdxzIpkpHNHs2AEU2rF6kfV
8PL9SOYTjRPNkP0leDc2tq2px5naiDu/F+Ie8IRUJoVPU507/RJ5B6z326f8/5xz
5W4/dnNWD88CxF5C44UzZ/9A1bA+NnXLF5PxdDPrP5kewOFh0XX1FLr+68yBjKvP
Fb2cEnkpVkHpdqs7jWiVSVPMUhSVOXBU/BhWvWLr3BOV+kB5NI48agHI5LBV1Uah
zRd5hlnorHKM4prn3n/1rk99p53rKlhvTWm/nvA5sBETy+w1t8lusJGgZVT6KmLS
0qsEokvmYa9sPqoq8go+7K5algMbwVfQrnB8dpodT0HrENw/OYQfJxiJMIkzaWz6
3OsMqAiisCi+xKohH9ON9o73HCK5yaOsw1uydVP18uzbbM0+ai+SV2zw6BsyIVMy
gM8P5D8qTKq/i+z0LadWHdj3vTPvisLt0yF1JtIgeariMG4DnWdHJCFfz73kWqbl
5aHbt33BpA9pmxj65lLBq7Vnj/R9kMUxpjiLAwuVLqWw7qxr67FcPZNUR1O17Dlo
xy8bb2CQWyTt8zgQLaGuW/OMS+KIx6gUGPHywr/xly5rWCdyvnFlZbMxCjM=
-----END CERTIFICATE-----
