Certificate:
    Data:
        Version: 3 (0x2)
        Serial Number: 133 (0x85)
    Signature Algorithm: sha1WithRSAEncryption
        Issuer: C=US, ST=CA, L=SanFrancisco, O=Pixglo, Inc., OU=VPN-CIE, CN=tunnel.pixglo.com/name=Bala Chandrasekaran/emailAddress=bala@pixglo.com
        Validity
            Not Before: Feb 14 06:26:05 2018 GMT
            Not After : Feb 12 06:26:05 2028 GMT
        Subject: C=US, ST=CA, L=SanFrancisco, O=Pixglo, Inc., OU=VPN-CIE, CN=cie132/name=Bala Chandrasekaran/emailAddress=bala@pixglo.com
        Subject Public Key Info:
            Public Key Algorithm: rsaEncryption
                Public-Key: (4096 bit)
                Modulus:
                    00:de:c1:a6:8d:fc:ff:ac:6c:72:7a:11:6e:32:7e:
                    7e:68:60:30:8c:99:d5:c1:bb:6a:a1:4a:22:7e:c0:
                    1c:a1:7a:f5:e3:83:b3:a2:a7:88:b6:e7:d7:bf:be:
                    06:a4:9f:cf:a5:5d:06:99:a2:33:3a:f9:c1:17:6e:
                    d4:e7:4c:30:fa:ff:51:9a:85:1b:e1:c3:57:5d:e8:
                    e6:ad:11:d8:de:d1:59:f9:ef:e0:b9:7e:10:ae:04:
                    56:b2:af:5b:0a:d3:c6:10:21:c4:51:32:c0:a5:cd:
                    b1:48:92:c5:3c:a2:5c:23:3a:80:6c:f6:d1:9c:74:
                    c6:bf:3c:a8:7a:aa:00:81:f2:29:65:da:a0:b8:cd:
                    d2:72:90:c7:9b:93:cb:74:00:98:7c:c0:5c:52:b9:
                    87:98:87:64:b5:59:fe:b1:c4:c8:53:9e:49:f8:d4:
                    f1:a5:e6:c3:c1:0f:fe:dd:d3:57:e4:5c:b1:b3:98:
                    81:af:17:89:95:38:a6:06:d7:5e:25:5a:49:5b:38:
                    7a:3c:b8:ee:ca:33:0f:f4:ca:7a:1e:d8:3c:13:63:
                    3a:72:dc:bc:a2:97:ce:2f:2e:48:e0:60:3b:7e:5c:
                    c9:5b:3c:1a:3a:55:48:ba:26:8f:a4:fa:62:93:08:
                    59:ed:b5:dd:04:ee:e9:0c:80:10:55:d5:b4:d4:78:
                    48:0c:08:32:8f:f2:16:17:e8:8d:da:92:28:07:ba:
                    f6:05:7f:f6:97:4d:a2:3f:d0:6e:18:81:92:96:9e:
                    cf:0f:02:98:f5:e6:bc:d9:28:b0:66:df:5a:69:e8:
                    52:4a:05:da:b0:fa:8c:95:ea:c8:3e:77:48:c4:60:
                    63:c8:ec:41:09:59:7e:8c:42:91:56:f5:ca:36:86:
                    70:af:a1:25:f4:a2:ec:f8:0c:f4:8d:f4:f2:02:98:
                    dd:ef:16:08:77:e9:86:14:92:3f:4d:17:e8:98:f2:
                    01:d4:0c:a5:5d:16:39:80:3d:d9:06:90:dd:3a:8e:
                    31:2a:10:c3:67:2d:72:3f:15:50:28:f7:92:25:22:
                    9a:13:e3:14:09:b0:94:39:10:a6:47:5a:0c:f2:c1:
                    a6:1b:86:17:8f:0d:b5:fc:0c:b0:dc:87:18:84:36:
                    f1:e6:62:9d:c3:42:c8:53:bf:86:14:5f:37:6b:51:
                    2e:f8:be:1a:29:44:4b:ca:f4:09:b7:da:31:e2:60:
                    18:ff:6c:a0:19:22:4f:55:53:07:7a:17:d8:b1:21:
                    54:70:8a:40:a0:83:7b:a6:68:95:ed:a9:6e:93:37:
                    e4:14:a7:52:0e:bb:51:4e:2a:7e:86:cb:0a:bb:2f:
                    7c:7d:57:e0:a5:3b:28:a9:01:6a:93:7f:ec:58:2b:
                    a7:ce:13
                Exponent: 65537 (0x10001)
        X509v3 extensions:
            X509v3 Basic Constraints: 
                CA:FALSE
            Netscape Comment: 
                Easy-RSA Generated Certificate
            X509v3 Subject Key Identifier: 
                D8:89:C1:8A:E4:BD:40:17:5E:9A:4D:89:00:47:59:43:87:7B:78:E5
            X509v3 Authority Key Identifier: 
                keyid:EF:38:8D:14:50:58:A7:5B:4D:9C:17:72:FC:DF:B9:AC:A7:51:B0:10
                DirName:/C=US/ST=CA/L=SanFrancisco/O=Pixglo, Inc./OU=VPN-CIE/CN=tunnel.pixglo.com/name=Bala Chandrasekaran/emailAddress=bala@pixglo.com
                serial:A6:DB:C6:83:80:E6:A0:79

            X509v3 Extended Key Usage: 
                TLS Web Client Authentication
            X509v3 Key Usage: 
                Digital Signature
    Signature Algorithm: sha1WithRSAEncryption
         3b:f6:5b:b8:6d:a4:06:dd:36:3d:e5:f6:7b:b7:77:28:ec:14:
         6d:93:9d:5e:14:b7:82:f6:eb:0b:44:9c:48:a8:62:6f:da:36:
         16:ae:a6:b4:1c:ed:59:1b:91:9c:ac:75:39:bf:e7:7f:05:cc:
         6d:c6:75:65:4b:7d:6c:0b:2a:12:77:6a:70:e0:3e:a0:38:4c:
         e6:49:29:b6:0e:2f:da:35:52:7e:a6:2e:22:65:da:6a:e6:13:
         f6:cf:13:da:35:57:9f:6d:59:e9:90:c2:87:8a:34:d6:33:ab:
         6c:a6:2f:c8:5f:d2:39:77:c0:3d:dd:e1:f9:78:4a:d0:00:24:
         be:54:94:2b:a0:59:67:5c:98:50:ac:43:6d:ed:86:01:56:49:
         c7:a9:df:6c:58:c4:5f:c1:83:cc:99:88:5e:a8:0a:36:7d:a2:
         92:06:c2:e0:72:80:7a:09:93:ba:94:f9:2a:34:06:a8:97:51:
         38:22:8d:a7:71:fa:66:0c:99:e1:0c:aa:94:58:fa:38:76:9c:
         40:36:32:58:38:33:16:1c:c2:e9:92:fc:61:c4:cd:af:cd:d7:
         cd:6f:fb:03:be:2d:12:45:c2:3c:9f:44:3e:de:4c:67:ce:23:
         3e:89:b0:29:95:7d:af:f7:52:88:42:6f:59:6d:16:41:f6:2a:
         18:f6:5c:51:18:c6:fd:d3:dc:aa:02:35:63:14:68:c8:ba:52:
         a2:b1:50:42:cb:c4:fb:e4:10:a1:33:c9:ff:9e:34:7c:57:21:
         fe:72:b8:d2:bc:c0:8a:05:db:c8:44:c7:8e:31:c7:37:56:bf:
         9c:c8:7c:d8:75:ed:5e:11:ff:c7:31:f5:bb:be:6d:79:4c:58:
         ef:f3:6c:cc:4c:1c:7f:43:0b:db:69:14:45:c7:0f:c7:68:5e:
         0b:a0:99:2c:4e:47:a5:fe:6f:97:92:27:f4:8f:32:ff:32:1c:
         15:9a:03:1a:b9:a4:95:c0:c9:d2:fa:a1:c0:ed:a4:84:53:12:
         c0:05:b4:52:9c:d8:18:50:08:ab:6e:93:79:a3:70:d0:33:7f:
         72:74:63:2c:51:1c:68:ae:d1:8d:4e:a6:30:a9:4a:e5:0a:70:
         10:31:4b:22:be:e6:ab:d5:08:1a:ea:8a:79:12:c2:1a:59:5a:
         fe:56:84:26:73:0f:a4:9b:e8:2b:a7:7e:93:05:c4:d3:30:a0:
         69:e4:ad:19:0e:46:2c:a4:fd:3d:a1:e8:6e:13:94:26:fe:81:
         90:2b:ed:37:eb:58:7d:23:1d:69:15:87:c4:1c:3d:01:db:bb:
         b7:bc:05:38:30:09:8d:6a:eb:a5:c3:fc:c6:21:9e:a2:0f:13:
         43:e2:51:95:f2:04:d1:82
-----BEGIN CERTIFICATE-----
MIIHSDCCBTCgAwIBAgICAIUwDQYJKoZIhvcNAQEFBQAwgbQxCzAJBgNVBAYTAlVT
MQswCQYDVQQIEwJDQTEVMBMGA1UEBxMMU2FuRnJhbmNpc2NvMRUwEwYDVQQKEwxQ
aXhnbG8sIEluYy4xEDAOBgNVBAsTB1ZQTi1DSUUxGjAYBgNVBAMTEXR1bm5lbC5w
aXhnbG8uY29tMRwwGgYDVQQpExNCYWxhIENoYW5kcmFzZWthcmFuMR4wHAYJKoZI
hvcNAQkBFg9iYWxhQHBpeGdsby5jb20wHhcNMTgwMjE0MDYyNjA1WhcNMjgwMjEy
MDYyNjA1WjCBqTELMAkGA1UEBhMCVVMxCzAJBgNVBAgTAkNBMRUwEwYDVQQHEwxT
YW5GcmFuY2lzY28xFTATBgNVBAoTDFBpeGdsbywgSW5jLjEQMA4GA1UECxMHVlBO
LUNJRTEPMA0GA1UEAxMGY2llMTMyMRwwGgYDVQQpExNCYWxhIENoYW5kcmFzZWth
cmFuMR4wHAYJKoZIhvcNAQkBFg9iYWxhQHBpeGdsby5jb20wggIiMA0GCSqGSIb3
DQEBAQUAA4ICDwAwggIKAoICAQDewaaN/P+sbHJ6EW4yfn5oYDCMmdXBu2qhSiJ+
wByhevXjg7Oip4i259e/vgakn8+lXQaZojM6+cEXbtTnTDD6/1GahRvhw1dd6Oat
Edje0Vn57+C5fhCuBFayr1sK08YQIcRRMsClzbFIksU8olwjOoBs9tGcdMa/PKh6
qgCB8ill2qC4zdJykMebk8t0AJh8wFxSuYeYh2S1Wf6xxMhTnkn41PGl5sPBD/7d
01fkXLGzmIGvF4mVOKYG114lWklbOHo8uO7KMw/0ynoe2DwTYzpy3Lyil84vLkjg
YDt+XMlbPBo6VUi6Jo+k+mKTCFnttd0E7ukMgBBV1bTUeEgMCDKP8hYX6I3akigH
uvYFf/aXTaI/0G4YgZKWns8PApj15rzZKLBm31pp6FJKBdqw+oyV6sg+d0jEYGPI
7EEJWX6MQpFW9co2hnCvoSX0ouz4DPSN9PICmN3vFgh36YYUkj9NF+iY8gHUDKVd
FjmAPdkGkN06jjEqEMNnLXI/FVAo95IlIpoT4xQJsJQ5EKZHWgzywaYbhhePDbX8
DLDchxiENvHmYp3DQshTv4YUXzdrUS74vhopREvK9Am32jHiYBj/bKAZIk9VUwd6
F9ixIVRwikCgg3umaJXtqW6TN+QUp1IOu1FOKn6Gywq7L3x9V+ClOyipAWqTf+xY
K6fOEwIDAQABo4IBazCCAWcwCQYDVR0TBAIwADAtBglghkgBhvhCAQ0EIBYeRWFz
eS1SU0EgR2VuZXJhdGVkIENlcnRpZmljYXRlMB0GA1UdDgQWBBTYicGK5L1AF16a
TYkAR1lDh3t45TCB6QYDVR0jBIHhMIHegBTvOI0UUFinW02cF3L837msp1GwEKGB
uqSBtzCBtDELMAkGA1UEBhMCVVMxCzAJBgNVBAgTAkNBMRUwEwYDVQQHEwxTYW5G
cmFuY2lzY28xFTATBgNVBAoTDFBpeGdsbywgSW5jLjEQMA4GA1UECxMHVlBOLUNJ
RTEaMBgGA1UEAxMRdHVubmVsLnBpeGdsby5jb20xHDAaBgNVBCkTE0JhbGEgQ2hh
bmRyYXNla2FyYW4xHjAcBgkqhkiG9w0BCQEWD2JhbGFAcGl4Z2xvLmNvbYIJAKbb
xoOA5qB5MBMGA1UdJQQMMAoGCCsGAQUFBwMCMAsGA1UdDwQEAwIHgDANBgkqhkiG
9w0BAQUFAAOCAgEAO/ZbuG2kBt02PeX2e7d3KOwUbZOdXhS3gvbrC0ScSKhib9o2
Fq6mtBztWRuRnKx1Ob/nfwXMbcZ1ZUt9bAsqEndqcOA+oDhM5kkptg4v2jVSfqYu
ImXaauYT9s8T2jVXn21Z6ZDCh4o01jOrbKYvyF/SOXfAPd3h+XhK0AAkvlSUK6BZ
Z1yYUKxDbe2GAVZJx6nfbFjEX8GDzJmIXqgKNn2ikgbC4HKAegmTupT5KjQGqJdR
OCKNp3H6ZgyZ4QyqlFj6OHacQDYyWDgzFhzC6ZL8YcTNr83XzW/7A74tEkXCPJ9E
Pt5MZ84jPomwKZV9r/dSiEJvWW0WQfYqGPZcURjG/dPcqgI1YxRoyLpSorFQQsvE
++QQoTPJ/540fFch/nK40rzAigXbyETHjjHHN1a/nMh82HXtXhH/xzH1u75teUxY
7/NszEwcf0ML22kURccPx2heC6CZLE5Hpf5vl5In9I8y/zIcFZoDGrmklcDJ0vqh
wO2khFMSwAW0UpzYGFAIq26TeaNw0DN/cnRjLFEcaK7RjU6mMKlK5QpwEDFLIr7m
q9UIGuqKeRLCGlla/laEJnMPpJvoK6d+kwXE0zCgaeStGQ5GLKT9PaHobhOUJv6B
kCvtN+tYfSMdaRWHxBw9Adu7t7wFODAJjWrrpcP8xiGeog8TQ+JRlfIE0YI=
-----END CERTIFICATE-----
