Certificate:
    Data:
        Version: 3 (0x2)
        Serial Number: 145 (0x91)
    Signature Algorithm: sha1WithRSAEncryption
        Issuer: C=US, ST=CA, L=SanFrancisco, O=Pixglo, Inc., OU=VPN-CIE, CN=tunnel.pixglo.com/name=Bala Chandrasekaran/emailAddress=bala@pixglo.com
        Validity
            Not Before: Feb 14 06:26:13 2018 GMT
            Not After : Feb 12 06:26:13 2028 GMT
        Subject: C=US, ST=CA, L=SanFrancisco, O=Pixglo, Inc., OU=VPN-CIE, CN=cie144/name=Bala Chandrasekaran/emailAddress=bala@pixglo.com
        Subject Public Key Info:
            Public Key Algorithm: rsaEncryption
                Public-Key: (4096 bit)
                Modulus:
                    00:b6:f5:30:f8:83:9e:33:66:d9:70:d2:bc:26:4d:
                    77:22:30:e8:5f:5d:36:13:ec:3d:dd:2c:6a:72:95:
                    64:06:a6:32:01:05:1d:7d:fd:53:bb:94:cf:25:ac:
                    7f:d0:dc:5c:63:73:3c:83:2e:3a:c1:bc:04:15:c3:
                    da:99:4c:b9:c6:1d:06:82:2f:98:6b:82:de:83:db:
                    25:a7:37:ce:b1:66:68:70:23:dd:9a:4c:6d:fb:00:
                    90:0e:c9:cd:53:4e:aa:de:1d:54:43:f9:d8:3b:44:
                    e0:34:9f:60:68:3f:90:ad:c8:d0:25:05:8e:5d:2f:
                    c5:dc:43:e5:b9:4d:ec:6b:4d:a9:9d:70:53:6a:ac:
                    50:1a:49:1e:f9:46:e9:1a:d9:eb:72:6b:40:96:4b:
                    56:91:29:02:68:7e:6e:6b:10:b0:3d:d9:90:f3:d2:
                    23:04:e9:6e:ec:d4:76:fc:18:e8:6d:1f:46:b1:b9:
                    02:cc:2a:42:76:f3:86:77:8e:48:fc:5c:e2:b0:e9:
                    dc:e1:79:f8:d3:2b:bc:1e:7d:22:63:97:5a:22:89:
                    6f:2d:64:c6:18:84:75:b6:e9:1e:09:05:57:b8:bf:
                    55:a4:0c:a0:35:62:71:b7:31:0a:fb:3c:77:89:7b:
                    ac:60:1e:b1:6c:9d:90:c9:25:2c:95:9b:fe:b1:1d:
                    19:0a:5e:c9:53:7a:23:9f:a0:bc:a1:d7:40:38:fc:
                    b9:4c:52:f8:2b:a7:a0:4e:11:41:1e:66:79:61:f8:
                    41:b1:d5:bf:45:31:e6:5e:22:b3:fe:5a:42:95:56:
                    b5:c7:71:10:e9:c8:91:6b:8e:e7:ff:2d:66:21:29:
                    1b:d8:61:24:9f:79:9f:f6:45:3f:43:99:ac:08:a0:
                    77:31:46:12:03:9f:77:c2:c9:c9:80:5a:6d:ec:71:
                    c6:a4:24:d7:1a:55:67:f4:49:4b:4b:8d:b6:02:b9:
                    40:8e:fe:a3:3d:26:28:e2:3a:58:33:a3:ce:a1:b5:
                    78:ca:dc:0f:01:d2:8f:c1:2e:4b:90:03:98:f4:53:
                    01:95:46:6d:be:18:7d:d0:71:d8:b7:6d:22:92:80:
                    8f:17:8b:5d:53:b6:15:86:83:dd:0f:ea:93:15:ca:
                    f4:c5:55:47:a5:b9:56:03:c9:23:78:76:18:54:ca:
                    be:42:82:59:b2:c9:79:26:dd:f5:c2:bd:6d:2d:b2:
                    3e:07:f3:25:d0:1d:61:0c:86:cd:77:e1:82:db:cd:
                    a9:6c:4b:e3:dc:8a:51:97:83:9c:29:0b:dd:26:31:
                    2a:c8:c7:f9:b4:a4:53:56:ac:12:a2:3f:c4:df:06:
                    01:3e:07:c7:e7:ee:66:8c:86:72:02:dc:85:e5:22:
                    4f:7b:dd
                Exponent: 65537 (0x10001)
        X509v3 extensions:
            X509v3 Basic Constraints: 
                CA:FALSE
            Netscape Comment: 
                Easy-RSA Generated Certificate
            X509v3 Subject Key Identifier: 
                36:DB:6A:63:4D:71:51:F0:09:A9:3A:09:4B:BF:DD:64:6E:CC:6B:5D
            X509v3 Authority Key Identifier: 
                keyid:EF:38:8D:14:50:58:A7:5B:4D:9C:17:72:FC:DF:B9:AC:A7:51:B0:10
                DirName:/C=US/ST=CA/L=SanFrancisco/O=Pixglo, Inc./OU=VPN-CIE/CN=tunnel.pixglo.com/name=Bala Chandrasekaran/emailAddress=bala@pixglo.com
                serial:A6:DB:C6:83:80:E6:A0:79

            X509v3 Extended Key Usage: 
                TLS Web Client Authentication
            X509v3 Key Usage: 
                Digital Signature
    Signature Algorithm: sha1WithRSAEncryption
         61:2e:05:3c:b4:5c:f9:0f:7f:1f:7e:27:7a:e2:70:44:f9:91:
         70:6f:4e:ac:21:58:20:fa:25:ea:d7:fc:42:42:25:af:2f:3c:
         c2:e9:e3:13:d8:46:b3:21:b8:4f:ba:4a:84:be:75:dd:c1:09:
         e0:16:14:f6:8b:db:96:16:2d:f3:db:c5:5a:6f:47:c3:db:61:
         c4:40:c7:9d:e2:ff:41:59:1d:6a:02:fc:1d:23:07:47:1e:d1:
         0b:69:a8:64:de:0d:95:35:de:b1:c3:1e:23:06:66:03:ca:7f:
         51:78:20:07:fd:66:11:72:15:3c:ec:69:1c:7f:57:92:e0:a9:
         e1:53:74:5b:d1:67:c8:94:90:6d:69:c5:8b:83:16:2a:49:43:
         df:bd:c1:f0:5a:eb:22:e9:63:b4:36:a9:22:de:58:0b:e1:b5:
         80:32:f0:a9:52:d8:98:c9:d4:f2:36:4c:10:c1:34:31:b2:c8:
         01:d7:7f:dd:9c:5d:67:9d:4f:08:36:e3:17:f7:84:ec:be:f3:
         8f:b0:81:68:48:b3:97:a7:de:2b:d1:f0:6e:1b:7b:79:b5:23:
         c5:cd:85:1d:14:05:93:f6:2c:6d:a5:c1:3e:e1:d9:9b:c6:5e:
         9a:cc:f7:2c:42:d0:98:79:df:31:ca:12:16:df:2e:50:c7:1f:
         fc:1b:d8:48:33:87:84:1e:06:09:af:1d:c5:70:d5:d5:62:4d:
         ca:8f:31:45:fe:61:f3:1b:70:59:d2:72:26:33:7d:64:f8:82:
         10:ea:38:58:13:0e:24:44:35:46:e2:8e:b8:4e:8c:75:da:72:
         c3:3b:cc:c6:cb:a6:e9:10:99:3a:37:94:42:e2:b3:6c:e8:6f:
         a9:c9:fd:5a:5c:9b:37:15:f6:d0:a2:68:29:26:90:79:f6:ee:
         c4:af:d0:fd:74:a4:1a:e3:2b:45:37:77:22:47:f8:f7:9d:47:
         a8:0b:d2:57:b5:71:9d:0e:0c:e7:58:21:ba:3f:42:d2:c2:05:
         2c:7b:66:4f:23:16:72:f4:52:89:62:8d:af:ef:af:9f:a2:00:
         9b:f0:54:eb:ba:42:72:8c:e0:31:54:aa:92:cb:bd:38:1d:1f:
         76:bc:3e:aa:e4:6e:bf:72:fe:ad:da:60:58:ee:e3:4e:30:75:
         2d:54:7b:d1:3e:34:bb:a1:a3:9a:1b:04:16:3f:3a:6f:57:04:
         aa:16:f4:f9:fb:f5:1a:cd:68:b5:3a:2e:fe:b3:ef:f9:7a:4a:
         c3:53:1d:97:b7:89:58:22:db:a9:a6:be:d7:2f:22:a5:33:2d:
         4a:8d:b5:f8:a8:31:da:f9:0b:d8:77:68:93:a2:47:b0:6f:cc:
         0c:ac:3f:da:a1:c0:e9:18
-----BEGIN CERTIFICATE-----
MIIHSDCCBTCgAwIBAgICAJEwDQYJKoZIhvcNAQEFBQAwgbQxCzAJBgNVBAYTAlVT
MQswCQYDVQQIEwJDQTEVMBMGA1UEBxMMU2FuRnJhbmNpc2NvMRUwEwYDVQQKEwxQ
aXhnbG8sIEluYy4xEDAOBgNVBAsTB1ZQTi1DSUUxGjAYBgNVBAMTEXR1bm5lbC5w
aXhnbG8uY29tMRwwGgYDVQQpExNCYWxhIENoYW5kcmFzZWthcmFuMR4wHAYJKoZI
hvcNAQkBFg9iYWxhQHBpeGdsby5jb20wHhcNMTgwMjE0MDYyNjEzWhcNMjgwMjEy
MDYyNjEzWjCBqTELMAkGA1UEBhMCVVMxCzAJBgNVBAgTAkNBMRUwEwYDVQQHEwxT
YW5GcmFuY2lzY28xFTATBgNVBAoTDFBpeGdsbywgSW5jLjEQMA4GA1UECxMHVlBO
LUNJRTEPMA0GA1UEAxMGY2llMTQ0MRwwGgYDVQQpExNCYWxhIENoYW5kcmFzZWth
cmFuMR4wHAYJKoZIhvcNAQkBFg9iYWxhQHBpeGdsby5jb20wggIiMA0GCSqGSIb3
DQEBAQUAA4ICDwAwggIKAoICAQC29TD4g54zZtlw0rwmTXciMOhfXTYT7D3dLGpy
lWQGpjIBBR19/VO7lM8lrH/Q3FxjczyDLjrBvAQVw9qZTLnGHQaCL5hrgt6D2yWn
N86xZmhwI92aTG37AJAOyc1TTqreHVRD+dg7ROA0n2BoP5CtyNAlBY5dL8XcQ+W5
TexrTamdcFNqrFAaSR75Ruka2etya0CWS1aRKQJofm5rELA92ZDz0iME6W7s1Hb8
GOhtH0axuQLMKkJ284Z3jkj8XOKw6dzhefjTK7wefSJjl1oiiW8tZMYYhHW26R4J
BVe4v1WkDKA1YnG3MQr7PHeJe6xgHrFsnZDJJSyVm/6xHRkKXslTeiOfoLyh10A4
/LlMUvgrp6BOEUEeZnlh+EGx1b9FMeZeIrP+WkKVVrXHcRDpyJFrjuf/LWYhKRvY
YSSfeZ/2RT9DmawIoHcxRhIDn3fCycmAWm3sccakJNcaVWf0SUtLjbYCuUCO/qM9
JijiOlgzo86htXjK3A8B0o/BLkuQA5j0UwGVRm2+GH3Qcdi3bSKSgI8Xi11TthWG
g90P6pMVyvTFVUeluVYDySN4dhhUyr5CglmyyXkm3fXCvW0tsj4H8yXQHWEMhs13
4YLbzalsS+PcilGXg5wpC90mMSrIx/m0pFNWrBKiP8TfBgE+B8fn7maMhnIC3IXl
Ik973QIDAQABo4IBazCCAWcwCQYDVR0TBAIwADAtBglghkgBhvhCAQ0EIBYeRWFz
eS1SU0EgR2VuZXJhdGVkIENlcnRpZmljYXRlMB0GA1UdDgQWBBQ222pjTXFR8Amp
OglLv91kbsxrXTCB6QYDVR0jBIHhMIHegBTvOI0UUFinW02cF3L837msp1GwEKGB
uqSBtzCBtDELMAkGA1UEBhMCVVMxCzAJBgNVBAgTAkNBMRUwEwYDVQQHEwxTYW5G
cmFuY2lzY28xFTATBgNVBAoTDFBpeGdsbywgSW5jLjEQMA4GA1UECxMHVlBOLUNJ
RTEaMBgGA1UEAxMRdHVubmVsLnBpeGdsby5jb20xHDAaBgNVBCkTE0JhbGEgQ2hh
bmRyYXNla2FyYW4xHjAcBgkqhkiG9w0BCQEWD2JhbGFAcGl4Z2xvLmNvbYIJAKbb
xoOA5qB5MBMGA1UdJQQMMAoGCCsGAQUFBwMCMAsGA1UdDwQEAwIHgDANBgkqhkiG
9w0BAQUFAAOCAgEAYS4FPLRc+Q9/H34neuJwRPmRcG9OrCFYIPol6tf8QkIlry88
wunjE9hGsyG4T7pKhL513cEJ4BYU9ovblhYt89vFWm9Hw9thxEDHneL/QVkdagL8
HSMHRx7RC2moZN4NlTXescMeIwZmA8p/UXggB/1mEXIVPOxpHH9XkuCp4VN0W9Fn
yJSQbWnFi4MWKklD373B8FrrIuljtDapIt5YC+G1gDLwqVLYmMnU8jZMEME0MbLI
Add/3ZxdZ51PCDbjF/eE7L7zj7CBaEizl6feK9Hwbht7ebUjxc2FHRQFk/YsbaXB
PuHZm8Zemsz3LELQmHnfMcoSFt8uUMcf/BvYSDOHhB4GCa8dxXDV1WJNyo8xRf5h
8xtwWdJyJjN9ZPiCEOo4WBMOJEQ1RuKOuE6MddpywzvMxsum6RCZOjeUQuKzbOhv
qcn9WlybNxX20KJoKSaQefbuxK/Q/XSkGuMrRTd3Ikf4951HqAvSV7VxnQ4M51gh
uj9C0sIFLHtmTyMWcvRSiWKNr++vn6IAm/BU67pCcozgMVSqksu9OB0fdrw+quRu
v3L+rdpgWO7jTjB1LVR70T40u6GjmhsEFj86b1cEqhb0+fv1Gs1otTou/rPv+XpK
w1Mdl7eJWCLbqaa+1y8ipTMtSo21+Kgx2vkL2Hdok6JHsG/MDKw/2qHA6Rg=
-----END CERTIFICATE-----
