Certificate:
    Data:
        Version: 3 (0x2)
        Serial Number: 164 (0xa4)
    Signature Algorithm: sha1WithRSAEncryption
        Issuer: C=US, ST=CA, L=SanFrancisco, O=Pixglo, Inc., OU=VPN-CIE, CN=tunnel.pixglo.com/name=Bala Chandrasekaran/emailAddress=bala@pixglo.com
        Validity
            Not Before: Feb 14 06:26:27 2018 GMT
            Not After : Feb 12 06:26:27 2028 GMT
        Subject: C=US, ST=CA, L=SanFrancisco, O=Pixglo, Inc., OU=VPN-CIE, CN=cie163/name=Bala Chandrasekaran/emailAddress=bala@pixglo.com
        Subject Public Key Info:
            Public Key Algorithm: rsaEncryption
                Public-Key: (4096 bit)
                Modulus:
                    00:ab:cb:a7:60:8a:ea:ad:1e:f4:ad:f6:52:67:8b:
                    01:ef:d4:86:99:6c:89:6f:e0:ca:cc:a3:f2:bc:a9:
                    0d:38:88:17:78:db:48:d8:ab:b6:7f:5c:b2:d0:3c:
                    37:69:3b:1a:08:97:af:1d:aa:50:46:b4:c6:7e:45:
                    1b:c4:70:3c:13:d9:b3:28:ef:01:7e:68:b9:ac:3b:
                    36:17:72:88:a9:ea:d6:9c:e8:4d:0f:6a:14:ad:a0:
                    11:d6:c4:a9:d4:1a:8c:69:ff:70:08:d9:7a:1f:05:
                    23:4c:2f:73:c1:d5:c5:2b:09:91:51:86:fc:63:80:
                    d8:2c:3a:70:b7:dc:c3:a1:76:cf:9c:dc:3e:cb:65:
                    5d:dd:c4:c2:c2:b6:6c:30:0a:b2:24:8e:26:b6:c9:
                    1a:a8:ce:92:25:b9:47:cf:f8:50:de:c9:bd:4b:8a:
                    6c:0c:82:b0:c0:6a:7e:29:d1:91:0c:22:4b:28:75:
                    1f:5c:e5:5a:73:3f:52:e8:7c:7a:ee:a7:31:d6:93:
                    b1:7e:6a:52:2d:9b:ca:09:19:c7:a6:2b:93:df:04:
                    da:bf:54:06:65:fe:e2:05:71:ee:06:cf:46:b3:90:
                    d5:67:0c:fa:5b:0b:b9:f6:6a:33:1c:e2:a3:22:7f:
                    de:75:41:b5:59:31:87:dc:e9:37:12:7b:31:75:1f:
                    ea:76:db:d1:26:79:92:c0:60:49:52:f7:37:38:9f:
                    7e:bb:b1:59:e8:9d:b2:20:ef:fc:25:7d:33:e3:88:
                    7a:f2:dd:fb:65:53:63:79:6e:01:7f:96:dc:60:da:
                    94:ad:43:42:af:b4:b2:2d:7f:d6:a3:0b:75:ae:21:
                    8d:7b:d4:3b:30:07:6a:5d:77:13:4e:dd:56:f9:a5:
                    cc:bb:ee:b1:1b:f9:b6:01:18:3c:aa:07:76:a5:95:
                    59:42:d6:8a:5f:59:5e:95:c2:12:7e:13:ae:e6:c9:
                    c8:f9:e6:85:ba:a2:98:2c:c2:ed:df:d4:24:1a:d4:
                    2f:21:07:59:9a:55:5c:1b:4e:33:24:29:42:50:51:
                    f3:fb:47:02:38:d2:54:93:a6:4c:58:58:fe:51:95:
                    3f:ad:b1:73:a3:f7:51:bf:8d:b7:3c:e8:bf:f1:9c:
                    1d:92:7b:07:ff:3c:16:cc:82:92:a7:02:c4:ff:2e:
                    80:0e:5a:32:1c:42:84:9f:1a:d9:ed:44:41:75:18:
                    87:0f:90:72:05:7d:5f:0c:d3:cd:63:fd:09:5e:0e:
                    64:ee:f3:68:d5:05:f5:e6:b4:d8:01:d1:26:f4:d1:
                    00:7c:b4:63:e2:1e:82:cf:a0:0a:1b:db:c2:73:08:
                    84:89:eb:50:2e:d9:7f:8e:d8:4c:c0:46:ce:60:ea:
                    90:43:bf
                Exponent: 65537 (0x10001)
        X509v3 extensions:
            X509v3 Basic Constraints: 
                CA:FALSE
            Netscape Comment: 
                Easy-RSA Generated Certificate
            X509v3 Subject Key Identifier: 
                FF:4F:D8:E9:3C:DF:9A:0B:DD:96:AD:9C:79:7F:C1:C2:2E:BA:0B:81
            X509v3 Authority Key Identifier: 
                keyid:EF:38:8D:14:50:58:A7:5B:4D:9C:17:72:FC:DF:B9:AC:A7:51:B0:10
                DirName:/C=US/ST=CA/L=SanFrancisco/O=Pixglo, Inc./OU=VPN-CIE/CN=tunnel.pixglo.com/name=Bala Chandrasekaran/emailAddress=bala@pixglo.com
                serial:A6:DB:C6:83:80:E6:A0:79

            X509v3 Extended Key Usage: 
                TLS Web Client Authentication
            X509v3 Key Usage: 
                Digital Signature
    Signature Algorithm: sha1WithRSAEncryption
         ce:18:27:9e:89:f4:e6:19:8a:4d:98:74:42:b4:24:78:52:52:
         e7:ba:84:33:4e:44:1f:43:6b:bd:8a:96:7b:07:40:cb:f1:6c:
         92:09:56:cc:28:a6:b8:c2:b2:7a:4c:bb:5d:a7:5a:5f:ac:f8:
         4c:ca:02:a2:03:8d:2c:64:b5:6f:4f:fd:bc:af:dd:88:8c:e2:
         e8:10:6b:4d:ff:17:f5:39:71:6d:d3:3e:b4:d2:c1:fb:b7:18:
         8b:27:46:11:d9:39:4b:9d:b1:a5:97:dc:28:8c:9e:fb:c6:be:
         6a:d2:da:c2:99:fe:57:25:d6:33:71:bd:90:72:7f:0c:bc:df:
         39:b8:b1:3f:46:78:68:8e:73:55:15:47:d3:06:1c:75:ca:66:
         bc:68:1c:7c:7a:6a:88:63:5e:71:73:18:9f:d1:a9:f8:63:b7:
         bb:3b:77:87:56:f1:07:aa:c9:73:58:c0:8a:9f:04:4c:b6:5b:
         c6:95:9d:ef:65:a7:df:92:de:a8:9d:44:a6:c4:9b:d0:cd:21:
         14:54:97:b2:95:13:00:72:5f:a6:dd:81:99:fb:7a:77:c9:e1:
         0a:93:ed:bf:78:95:e4:40:0e:94:27:73:02:5d:d3:a5:f9:85:
         14:a0:04:8e:eb:a6:b8:0a:7c:64:bd:5b:49:09:b8:89:f7:47:
         17:5f:65:0b:35:cd:74:b5:83:96:29:ae:8f:5b:45:24:55:cb:
         0d:94:3f:f4:e8:30:c1:89:98:c9:5f:3c:be:b6:ac:45:a2:63:
         5a:3c:d1:cb:73:63:b1:e1:da:7a:73:4b:16:80:c8:70:bd:98:
         73:9f:d0:9e:39:44:12:9e:cc:cc:5c:3a:17:9e:55:8f:96:17:
         c6:2d:aa:1d:c1:46:d2:e5:a2:34:ea:2d:29:49:f3:2b:e8:7c:
         e6:27:d5:6d:cd:a8:77:7e:18:9e:26:fc:fb:a9:92:90:80:45:
         26:d8:77:15:ad:28:04:eb:04:f6:71:e0:b3:7a:08:c2:6b:98:
         59:c3:6e:96:19:20:6a:41:09:de:63:b4:a7:a7:d8:54:0a:da:
         b5:e4:21:17:13:20:ea:7e:27:e6:56:4d:5d:96:40:48:a2:55:
         24:5c:33:22:73:57:a0:d2:56:94:72:e7:7c:66:4a:9a:3b:a0:
         2b:6a:09:b4:3a:c4:0d:98:13:95:e0:30:86:f9:17:16:8d:0e:
         c5:1c:4a:d0:b8:92:07:6f:16:39:08:38:ee:74:c1:b9:f9:4c:
         e3:1f:71:4e:a8:71:f3:41:a5:8c:01:2a:ac:80:f9:37:e1:60:
         3e:d3:70:31:f1:86:2c:28:0c:9f:71:28:b2:b1:51:99:1c:12:
         b6:9f:0d:94:51:90:1c:44
-----BEGIN CERTIFICATE-----
MIIHSDCCBTCgAwIBAgICAKQwDQYJKoZIhvcNAQEFBQAwgbQxCzAJBgNVBAYTAlVT
MQswCQYDVQQIEwJDQTEVMBMGA1UEBxMMU2FuRnJhbmNpc2NvMRUwEwYDVQQKEwxQ
aXhnbG8sIEluYy4xEDAOBgNVBAsTB1ZQTi1DSUUxGjAYBgNVBAMTEXR1bm5lbC5w
aXhnbG8uY29tMRwwGgYDVQQpExNCYWxhIENoYW5kcmFzZWthcmFuMR4wHAYJKoZI
hvcNAQkBFg9iYWxhQHBpeGdsby5jb20wHhcNMTgwMjE0MDYyNjI3WhcNMjgwMjEy
MDYyNjI3WjCBqTELMAkGA1UEBhMCVVMxCzAJBgNVBAgTAkNBMRUwEwYDVQQHEwxT
YW5GcmFuY2lzY28xFTATBgNVBAoTDFBpeGdsbywgSW5jLjEQMA4GA1UECxMHVlBO
LUNJRTEPMA0GA1UEAxMGY2llMTYzMRwwGgYDVQQpExNCYWxhIENoYW5kcmFzZWth
cmFuMR4wHAYJKoZIhvcNAQkBFg9iYWxhQHBpeGdsby5jb20wggIiMA0GCSqGSIb3
DQEBAQUAA4ICDwAwggIKAoICAQCry6dgiuqtHvSt9lJniwHv1IaZbIlv4MrMo/K8
qQ04iBd420jYq7Z/XLLQPDdpOxoIl68dqlBGtMZ+RRvEcDwT2bMo7wF+aLmsOzYX
coip6tac6E0PahStoBHWxKnUGoxp/3AI2XofBSNML3PB1cUrCZFRhvxjgNgsOnC3
3MOhds+c3D7LZV3dxMLCtmwwCrIkjia2yRqozpIluUfP+FDeyb1LimwMgrDAan4p
0ZEMIksodR9c5VpzP1LofHrupzHWk7F+alItm8oJGcemK5PfBNq/VAZl/uIFce4G
z0azkNVnDPpbC7n2ajMc4qMif951QbVZMYfc6TcSezF1H+p229EmeZLAYElS9zc4
n367sVnonbIg7/wlfTPjiHry3ftlU2N5bgF/ltxg2pStQ0KvtLItf9ajC3WuIY17
1DswB2pddxNO3Vb5pcy77rEb+bYBGDyqB3allVlC1opfWV6VwhJ+E67mycj55oW6
opgswu3f1CQa1C8hB1maVVwbTjMkKUJQUfP7RwI40lSTpkxYWP5RlT+tsXOj91G/
jbc86L/xnB2Sewf/PBbMgpKnAsT/LoAOWjIcQoSfGtntREF1GIcPkHIFfV8M081j
/QleDmTu82jVBfXmtNgB0Sb00QB8tGPiHoLPoAob28JzCISJ61Au2X+O2EzARs5g
6pBDvwIDAQABo4IBazCCAWcwCQYDVR0TBAIwADAtBglghkgBhvhCAQ0EIBYeRWFz
eS1SU0EgR2VuZXJhdGVkIENlcnRpZmljYXRlMB0GA1UdDgQWBBT/T9jpPN+aC92W
rZx5f8HCLroLgTCB6QYDVR0jBIHhMIHegBTvOI0UUFinW02cF3L837msp1GwEKGB
uqSBtzCBtDELMAkGA1UEBhMCVVMxCzAJBgNVBAgTAkNBMRUwEwYDVQQHEwxTYW5G
cmFuY2lzY28xFTATBgNVBAoTDFBpeGdsbywgSW5jLjEQMA4GA1UECxMHVlBOLUNJ
RTEaMBgGA1UEAxMRdHVubmVsLnBpeGdsby5jb20xHDAaBgNVBCkTE0JhbGEgQ2hh
bmRyYXNla2FyYW4xHjAcBgkqhkiG9w0BCQEWD2JhbGFAcGl4Z2xvLmNvbYIJAKbb
xoOA5qB5MBMGA1UdJQQMMAoGCCsGAQUFBwMCMAsGA1UdDwQEAwIHgDANBgkqhkiG
9w0BAQUFAAOCAgEAzhgnnon05hmKTZh0QrQkeFJS57qEM05EH0NrvYqWewdAy/Fs
kglWzCimuMKyeky7XadaX6z4TMoCogONLGS1b0/9vK/diIzi6BBrTf8X9TlxbdM+
tNLB+7cYiydGEdk5S52xpZfcKIye+8a+atLawpn+VyXWM3G9kHJ/DLzfObixP0Z4
aI5zVRVH0wYcdcpmvGgcfHpqiGNecXMYn9Gp+GO3uzt3h1bxB6rJc1jAip8ETLZb
xpWd72Wn35LeqJ1EpsSb0M0hFFSXspUTAHJfpt2Bmft6d8nhCpPtv3iV5EAOlCdz
Al3TpfmFFKAEjuumuAp8ZL1bSQm4ifdHF19lCzXNdLWDlimuj1tFJFXLDZQ/9Ogw
wYmYyV88vrasRaJjWjzRy3NjseHaenNLFoDIcL2Yc5/QnjlEEp7MzFw6F55Vj5YX
xi2qHcFG0uWiNOotKUnzK+h85ifVbc2od34Ynib8+6mSkIBFJth3Fa0oBOsE9nHg
s3oIwmuYWcNulhkgakEJ3mO0p6fYVArateQhFxMg6n4n5lZNXZZASKJVJFwzInNX
oNJWlHLnfGZKmjugK2oJtDrEDZgTleAwhvkXFo0OxRxK0LiSB28WOQg47nTBuflM
4x9xTqhx80GljAEqrID5N+FgPtNwMfGGLCgMn3EosrFRmRwStp8NlFGQHEQ=
-----END CERTIFICATE-----
