Certificate:
    Data:
        Version: 3 (0x2)
        Serial Number: 187 (0xbb)
    Signature Algorithm: sha1WithRSAEncryption
        Issuer: C=US, ST=CA, L=SanFrancisco, O=Pixglo, Inc., OU=VPN-CIE, CN=tunnel.pixglo.com/name=Bala Chandrasekaran/emailAddress=bala@pixglo.com
        Validity
            Not Before: Feb 14 06:26:45 2018 GMT
            Not After : Feb 12 06:26:45 2028 GMT
        Subject: C=US, ST=CA, L=SanFrancisco, O=Pixglo, Inc., OU=VPN-CIE, CN=cie186/name=Bala Chandrasekaran/emailAddress=bala@pixglo.com
        Subject Public Key Info:
            Public Key Algorithm: rsaEncryption
                Public-Key: (4096 bit)
                Modulus:
                    00:df:8f:c6:41:b3:0f:2d:59:16:91:4b:4d:2d:e2:
                    2d:27:99:67:53:e3:8d:9c:44:e6:36:06:cc:9f:ce:
                    d5:3c:fb:57:1b:42:1a:09:99:26:6f:d5:00:0b:6b:
                    81:6c:49:0c:c7:a4:4e:5c:8a:81:d5:cb:81:ed:23:
                    e7:1f:28:26:8b:1c:04:91:a1:7a:ce:62:b4:45:31:
                    93:32:47:62:55:fa:96:53:50:86:3c:94:ae:68:75:
                    ca:68:69:c9:e9:52:04:83:9e:4c:ca:2b:70:a5:5d:
                    cd:44:c8:1e:a3:97:bc:cb:05:ac:cb:c8:95:08:d3:
                    84:ab:6f:28:ab:d2:47:12:92:6d:f5:6a:88:ac:a5:
                    e7:88:1c:e2:21:52:98:3a:cc:03:7e:a7:30:80:e3:
                    63:a3:d9:9e:06:2f:18:e6:83:0b:68:c6:97:b7:40:
                    e7:8e:c6:8c:2b:37:82:1c:6c:91:5a:29:d8:68:93:
                    a1:a7:f7:9b:15:c9:36:ea:91:fc:70:bb:83:e7:e8:
                    84:29:b8:33:74:58:3a:f6:2a:dd:09:30:86:e5:81:
                    89:b6:f0:2b:48:f6:59:15:4d:df:f6:92:a2:c7:67:
                    31:45:b8:cf:19:31:2f:26:7e:57:4e:6c:9b:98:7b:
                    cf:72:bf:8f:69:f2:2d:0e:11:ef:06:83:31:e4:2d:
                    d4:6a:05:13:9f:da:1f:61:9d:69:9c:51:68:dc:3c:
                    81:34:9b:7a:57:b7:50:07:21:41:d4:6a:f3:c4:16:
                    9a:84:0a:ce:ce:00:ce:63:9a:a8:06:37:a9:c1:01:
                    f9:9f:40:3a:f8:57:d1:e7:cd:f4:c5:b9:69:72:5a:
                    6b:b8:bf:1a:c6:f8:b0:af:47:d3:fa:f9:31:29:41:
                    64:e9:0d:7d:85:72:0c:a9:25:c1:84:4a:6e:2f:cd:
                    b5:1a:f1:ed:ad:d2:d3:c1:88:ba:0a:2f:59:bb:b8:
                    ea:3c:f4:4a:b1:e6:4d:e7:2e:60:28:ed:7d:3b:cc:
                    e0:27:5d:55:bb:35:1e:01:0f:e7:f4:15:a1:4f:03:
                    2e:5a:53:8d:a1:f6:29:5e:37:a0:66:ea:ce:58:de:
                    06:53:0f:5b:f9:7b:df:b0:bd:0a:b9:7b:cf:bb:8e:
                    dc:14:b6:1e:a0:f9:7b:f2:5a:c3:54:19:39:09:9e:
                    5d:2d:fd:76:91:14:ad:91:1a:8c:17:32:5f:2b:13:
                    03:20:1a:e2:20:df:2b:85:05:38:8a:87:92:c7:46:
                    65:8b:75:e2:dd:66:f8:22:b4:ef:37:9a:6e:3f:90:
                    15:e0:c3:a1:75:20:7b:6a:e6:03:58:82:f1:2a:15:
                    1e:d7:1c:89:5c:b5:44:ec:9f:f2:00:1d:45:04:0c:
                    87:15:d5
                Exponent: 65537 (0x10001)
        X509v3 extensions:
            X509v3 Basic Constraints: 
                CA:FALSE
            Netscape Comment: 
                Easy-RSA Generated Certificate
            X509v3 Subject Key Identifier: 
                17:CD:37:35:9A:3D:C3:91:6B:65:FE:3B:B3:2E:1B:25:14:25:B4:32
            X509v3 Authority Key Identifier: 
                keyid:EF:38:8D:14:50:58:A7:5B:4D:9C:17:72:FC:DF:B9:AC:A7:51:B0:10
                DirName:/C=US/ST=CA/L=SanFrancisco/O=Pixglo, Inc./OU=VPN-CIE/CN=tunnel.pixglo.com/name=Bala Chandrasekaran/emailAddress=bala@pixglo.com
                serial:A6:DB:C6:83:80:E6:A0:79

            X509v3 Extended Key Usage: 
                TLS Web Client Authentication
            X509v3 Key Usage: 
                Digital Signature
    Signature Algorithm: sha1WithRSAEncryption
         75:c6:87:73:7d:27:92:71:f5:3a:13:41:d7:7a:fb:a9:fa:df:
         30:06:a4:8e:81:03:3d:e1:a5:38:7e:d9:9e:4b:65:75:76:ed:
         39:6d:b5:da:30:e0:c5:6f:ea:06:57:ca:bb:9f:d5:c1:7d:98:
         19:82:8b:bd:12:aa:06:64:64:fe:5b:27:46:2b:ee:03:ff:14:
         2d:3f:cf:1a:b1:96:17:7d:ba:14:dc:f4:c2:19:18:d9:66:77:
         6b:a2:0e:05:c9:c5:1a:e5:6b:fc:ab:47:2e:81:d6:42:79:f0:
         7c:36:ef:26:c2:c4:4f:44:3e:3f:39:ed:5e:7b:52:9d:d6:a9:
         cf:b0:13:9d:2a:da:bb:59:03:77:ae:4a:5b:b6:84:6c:9c:b9:
         30:83:20:78:5a:4a:49:76:98:cd:3f:73:06:31:c9:89:e1:48:
         ab:c4:84:64:d0:96:b4:43:a5:de:3c:f1:49:0b:8d:58:34:02:
         d0:dc:94:02:2a:3a:67:f7:1e:ee:85:dc:5b:a7:ed:4b:9a:36:
         52:d9:6f:43:8d:5f:47:05:d2:1a:d0:17:b8:23:d5:af:b8:49:
         ef:8b:26:c9:b8:76:03:ec:91:f5:1b:2d:6a:71:a5:0e:2d:38:
         2c:96:66:c2:e4:ee:a4:e6:11:30:fe:75:e4:ba:4b:24:5e:a3:
         a3:09:b4:f2:dd:c4:9f:d8:97:68:01:19:93:59:15:11:a9:e2:
         9f:e2:21:4d:bf:89:a2:32:51:94:ae:62:85:0b:d8:81:0a:ae:
         8e:70:7e:95:fe:11:aa:13:ef:c5:6c:93:88:c5:df:6b:c3:29:
         8a:12:b6:32:78:87:ac:62:04:ba:57:19:db:06:63:d8:ce:38:
         2c:17:f5:3a:4e:8b:bb:84:68:db:d0:cb:e6:84:0c:dc:42:c5:
         e5:45:a5:9d:26:b3:fc:92:93:e4:8b:1b:8e:ab:c0:07:bc:82:
         fd:37:28:20:02:e4:c9:0f:15:98:6b:00:c9:f1:4f:e2:f7:dd:
         04:55:cd:81:8c:8b:2a:82:f6:33:b0:75:23:78:a7:e6:13:ba:
         db:73:39:6b:5c:71:cb:25:9b:66:89:d9:2b:6f:63:31:f1:e0:
         dd:f2:02:f1:d1:00:27:89:b0:4b:f3:bd:1c:ab:82:fd:98:b1:
         a5:64:a5:f6:c9:66:74:d6:3c:e6:87:26:e0:5b:44:bd:21:db:
         01:e9:8e:60:82:bb:e2:0a:a7:13:aa:5c:cf:7c:a0:2c:1a:88:
         8c:ca:bb:f5:32:cd:7e:f0:2f:92:c9:4d:12:0e:42:89:d1:3f:
         40:0a:89:d6:0e:5f:8d:32:6c:12:83:79:ce:8e:3b:b3:fd:be:
         9d:bb:11:f5:70:fd:d2:b5
-----BEGIN CERTIFICATE-----
MIIHSDCCBTCgAwIBAgICALswDQYJKoZIhvcNAQEFBQAwgbQxCzAJBgNVBAYTAlVT
MQswCQYDVQQIEwJDQTEVMBMGA1UEBxMMU2FuRnJhbmNpc2NvMRUwEwYDVQQKEwxQ
aXhnbG8sIEluYy4xEDAOBgNVBAsTB1ZQTi1DSUUxGjAYBgNVBAMTEXR1bm5lbC5w
aXhnbG8uY29tMRwwGgYDVQQpExNCYWxhIENoYW5kcmFzZWthcmFuMR4wHAYJKoZI
hvcNAQkBFg9iYWxhQHBpeGdsby5jb20wHhcNMTgwMjE0MDYyNjQ1WhcNMjgwMjEy
MDYyNjQ1WjCBqTELMAkGA1UEBhMCVVMxCzAJBgNVBAgTAkNBMRUwEwYDVQQHEwxT
YW5GcmFuY2lzY28xFTATBgNVBAoTDFBpeGdsbywgSW5jLjEQMA4GA1UECxMHVlBO
LUNJRTEPMA0GA1UEAxMGY2llMTg2MRwwGgYDVQQpExNCYWxhIENoYW5kcmFzZWth
cmFuMR4wHAYJKoZIhvcNAQkBFg9iYWxhQHBpeGdsby5jb20wggIiMA0GCSqGSIb3
DQEBAQUAA4ICDwAwggIKAoICAQDfj8ZBsw8tWRaRS00t4i0nmWdT442cROY2Bsyf
ztU8+1cbQhoJmSZv1QALa4FsSQzHpE5cioHVy4HtI+cfKCaLHASRoXrOYrRFMZMy
R2JV+pZTUIY8lK5odcpoacnpUgSDnkzKK3ClXc1EyB6jl7zLBazLyJUI04Srbyir
0kcSkm31aoispeeIHOIhUpg6zAN+pzCA42Oj2Z4GLxjmgwtoxpe3QOeOxowrN4Ic
bJFaKdhok6Gn95sVyTbqkfxwu4Pn6IQpuDN0WDr2Kt0JMIblgYm28CtI9lkVTd/2
kqLHZzFFuM8ZMS8mfldObJuYe89yv49p8i0OEe8GgzHkLdRqBROf2h9hnWmcUWjc
PIE0m3pXt1AHIUHUavPEFpqECs7OAM5jmqgGN6nBAfmfQDr4V9HnzfTFuWlyWmu4
vxrG+LCvR9P6+TEpQWTpDX2FcgypJcGESm4vzbUa8e2t0tPBiLoKL1m7uOo89Eqx
5k3nLmAo7X07zOAnXVW7NR4BD+f0FaFPAy5aU42h9ileN6Bm6s5Y3gZTD1v5e9+w
vQq5e8+7jtwUth6g+XvyWsNUGTkJnl0t/XaRFK2RGowXMl8rEwMgGuIg3yuFBTiK
h5LHRmWLdeLdZvgitO83mm4/kBXgw6F1IHtq5gNYgvEqFR7XHIlctUTsn/IAHUUE
DIcV1QIDAQABo4IBazCCAWcwCQYDVR0TBAIwADAtBglghkgBhvhCAQ0EIBYeRWFz
eS1SU0EgR2VuZXJhdGVkIENlcnRpZmljYXRlMB0GA1UdDgQWBBQXzTc1mj3DkWtl
/juzLhslFCW0MjCB6QYDVR0jBIHhMIHegBTvOI0UUFinW02cF3L837msp1GwEKGB
uqSBtzCBtDELMAkGA1UEBhMCVVMxCzAJBgNVBAgTAkNBMRUwEwYDVQQHEwxTYW5G
cmFuY2lzY28xFTATBgNVBAoTDFBpeGdsbywgSW5jLjEQMA4GA1UECxMHVlBOLUNJ
RTEaMBgGA1UEAxMRdHVubmVsLnBpeGdsby5jb20xHDAaBgNVBCkTE0JhbGEgQ2hh
bmRyYXNla2FyYW4xHjAcBgkqhkiG9w0BCQEWD2JhbGFAcGl4Z2xvLmNvbYIJAKbb
xoOA5qB5MBMGA1UdJQQMMAoGCCsGAQUFBwMCMAsGA1UdDwQEAwIHgDANBgkqhkiG
9w0BAQUFAAOCAgEAdcaHc30nknH1OhNB13r7qfrfMAakjoEDPeGlOH7ZnktldXbt
OW212jDgxW/qBlfKu5/VwX2YGYKLvRKqBmRk/lsnRivuA/8ULT/PGrGWF326FNz0
whkY2WZ3a6IOBcnFGuVr/KtHLoHWQnnwfDbvJsLET0Q+PzntXntSndapz7ATnSra
u1kDd65KW7aEbJy5MIMgeFpKSXaYzT9zBjHJieFIq8SEZNCWtEOl3jzxSQuNWDQC
0NyUAio6Z/ce7oXcW6ftS5o2UtlvQ41fRwXSGtAXuCPVr7hJ74smybh2A+yR9Rst
anGlDi04LJZmwuTupOYRMP515LpLJF6jowm08t3En9iXaAEZk1kVEanin+IhTb+J
ojJRlK5ihQvYgQqujnB+lf4RqhPvxWyTiMXfa8MpihK2MniHrGIEulcZ2wZj2M44
LBf1Ok6Lu4Ro29DL5oQM3ELF5UWlnSaz/JKT5IsbjqvAB7yC/TcoIALkyQ8VmGsA
yfFP4vfdBFXNgYyLKoL2M7B1I3in5hO623M5a1xxyyWbZonZK29jMfHg3fIC8dEA
J4mwS/O9HKuC/ZixpWSl9slmdNY85ocm4FtEvSHbAemOYIK74gqnE6pcz3ygLBqI
jMq79TLNfvAvkslNEg5CidE/QAqJ1g5fjTJsEoN5zo47s/2+nbsR9XD90rU=
-----END CERTIFICATE-----
