Certificate:
    Data:
        Version: 3 (0x2)
        Serial Number: 184 (0xb8)
    Signature Algorithm: sha1WithRSAEncryption
        Issuer: C=US, ST=CA, L=SanFrancisco, O=Pixglo, Inc., OU=VPN-CIE, CN=tunnel.pixglo.com/name=Bala Chandrasekaran/emailAddress=bala@pixglo.com
        Validity
            Not Before: Feb 14 06:26:42 2018 GMT
            Not After : Feb 12 06:26:42 2028 GMT
        Subject: C=US, ST=CA, L=SanFrancisco, O=Pixglo, Inc., OU=VPN-CIE, CN=cie183/name=Bala Chandrasekaran/emailAddress=bala@pixglo.com
        Subject Public Key Info:
            Public Key Algorithm: rsaEncryption
                Public-Key: (4096 bit)
                Modulus:
                    00:e4:4d:87:97:fd:50:b1:48:db:fb:a1:64:99:38:
                    72:62:f3:49:bf:1f:de:86:6d:03:d8:93:f7:34:b3:
                    af:82:48:3c:9d:33:08:c6:3b:38:eb:47:c3:c1:8a:
                    fb:bd:65:e9:6d:b5:21:04:de:30:9a:25:30:9d:70:
                    0c:0e:a1:2d:5d:85:c2:c8:3b:26:c8:5f:82:7a:d7:
                    98:2c:22:58:53:82:04:d0:8b:a9:12:96:14:11:b7:
                    85:50:c7:5a:d7:27:e9:ca:95:a4:bb:d7:47:36:d9:
                    19:3d:20:bb:eb:c1:c2:eb:b1:da:db:b2:90:9b:0b:
                    2d:7c:53:d2:92:bf:a4:59:91:10:a2:ec:39:d9:60:
                    83:8d:6f:c9:3e:cf:e0:18:9f:05:8c:fd:92:7d:fe:
                    39:70:b3:18:63:a6:60:2a:bc:2c:ea:4a:2f:98:04:
                    d9:f4:54:0c:2a:8d:64:1b:19:a5:b6:1a:16:35:a1:
                    2b:93:b3:1a:92:18:33:2d:5c:9f:5a:7f:a3:aa:6f:
                    13:93:55:6d:d4:f1:cc:a5:d7:05:b3:3a:7f:38:36:
                    e6:5d:ce:13:b1:96:db:67:bc:8a:12:20:09:23:6a:
                    ca:91:eb:96:e2:d3:ba:05:13:31:b2:7d:05:1a:45:
                    a8:99:f3:61:92:11:2c:60:39:8f:c6:b1:0f:ca:a0:
                    7c:ac:51:e4:b8:f0:ba:a0:b1:cb:bc:53:f9:34:85:
                    a7:9e:d2:5d:8e:50:2e:bf:1d:69:a5:c6:db:74:e8:
                    c4:40:4d:ec:4e:b3:41:aa:15:c9:f1:07:80:da:fe:
                    fb:e9:2a:44:9d:89:da:a8:61:1c:9f:d9:4e:92:36:
                    a6:d6:f1:21:33:97:8a:26:72:3c:d4:e1:5e:23:b6:
                    d7:45:aa:f9:f6:43:5d:7c:aa:e4:01:b8:96:b3:0c:
                    09:a7:ac:22:2c:aa:85:b3:a3:79:29:17:88:c0:31:
                    a1:a7:fa:03:25:72:65:43:c7:4e:2c:50:4a:f7:65:
                    58:ed:c9:ba:d6:b9:38:29:71:e8:a7:08:44:b4:03:
                    c5:22:55:85:0e:45:5d:ec:cc:22:11:56:ba:a0:37:
                    f8:40:86:b4:ac:83:8d:88:3c:bf:37:48:65:79:dc:
                    1d:fb:24:19:38:97:66:0e:ca:f0:0b:85:be:fe:83:
                    e2:99:1f:9f:d6:62:e0:ae:4b:e2:d6:46:e3:7d:9f:
                    ed:7e:21:b2:a5:6d:c0:97:85:46:4e:57:a4:0d:9a:
                    e7:bf:3c:00:29:0e:58:68:84:ae:36:f6:f5:c2:4b:
                    87:bc:1c:01:2f:bc:e8:f0:c1:11:8f:67:b1:90:e3:
                    6f:89:c5:db:b6:bc:c7:de:3c:1b:2c:c6:31:72:eb:
                    f8:e8:5d
                Exponent: 65537 (0x10001)
        X509v3 extensions:
            X509v3 Basic Constraints: 
                CA:FALSE
            Netscape Comment: 
                Easy-RSA Generated Certificate
            X509v3 Subject Key Identifier: 
                1B:A0:79:CD:FD:8B:28:1D:AB:A5:5E:9F:56:A7:27:87:6E:54:95:1A
            X509v3 Authority Key Identifier: 
                keyid:EF:38:8D:14:50:58:A7:5B:4D:9C:17:72:FC:DF:B9:AC:A7:51:B0:10
                DirName:/C=US/ST=CA/L=SanFrancisco/O=Pixglo, Inc./OU=VPN-CIE/CN=tunnel.pixglo.com/name=Bala Chandrasekaran/emailAddress=bala@pixglo.com
                serial:A6:DB:C6:83:80:E6:A0:79

            X509v3 Extended Key Usage: 
                TLS Web Client Authentication
            X509v3 Key Usage: 
                Digital Signature
    Signature Algorithm: sha1WithRSAEncryption
         6e:06:63:7c:46:94:df:13:8c:26:43:d4:7b:70:d9:57:61:04:
         8c:39:b4:4f:4c:cd:2d:ef:ab:b3:e3:4e:be:64:d3:5b:56:86:
         1c:ea:5a:36:f9:a2:e0:83:0f:90:28:fc:60:a3:c6:4e:06:cf:
         18:da:17:e2:04:dd:03:a3:12:46:2b:8f:5e:06:46:a9:9a:18:
         94:a8:40:ec:53:8a:9b:b2:50:68:aa:cb:6a:cb:4e:e0:42:29:
         b8:60:70:a8:6e:6d:64:00:97:58:38:14:da:a9:fc:ce:e2:c8:
         94:ca:66:c0:d9:cd:dc:c8:e3:da:dd:b8:60:0e:60:0b:6a:07:
         1c:5f:f1:ec:87:dd:9a:44:92:69:38:64:4f:c9:3b:65:79:e1:
         52:76:91:3b:17:81:81:73:af:9b:b2:1a:51:5a:51:a3:b2:46:
         a8:a6:68:37:b4:4a:1f:c2:8d:ba:c7:51:42:c9:03:3d:91:89:
         82:a0:b9:98:be:06:d3:85:41:e8:e9:97:23:ce:e0:09:6d:23:
         c7:0b:53:6f:07:50:5a:2d:fc:30:9b:09:d0:ce:1e:a0:54:a2:
         fc:55:e4:b5:23:4d:d6:14:f3:5a:df:13:47:f0:ba:8c:e0:8a:
         f5:27:bd:e9:9e:bd:22:61:3b:f7:f9:8f:f0:20:3a:76:28:bf:
         23:fa:02:14:98:12:d8:67:1c:f2:6c:76:d5:45:ff:eb:79:c1:
         2c:b5:d3:ac:38:92:bf:52:5b:d6:8d:fc:f1:c2:49:c4:f9:89:
         b8:5f:26:f3:59:83:32:39:d6:99:c3:a4:85:d3:78:a8:51:bf:
         cb:95:50:48:71:be:bc:08:4e:f8:91:4c:37:68:94:58:50:d5:
         96:4e:fe:70:52:9f:8b:bc:42:8e:34:48:8e:7b:ea:e5:3f:10:
         0c:b6:3a:3d:67:4b:76:76:a3:14:69:3d:9a:25:55:15:d2:9f:
         46:b7:54:4e:7a:7a:b0:d9:c6:00:5e:3a:85:6d:0a:23:88:46:
         04:8a:3f:14:d4:8c:2f:08:ea:87:cd:ad:3a:ff:07:bf:76:09:
         c8:13:3d:6f:9f:41:85:7c:05:86:95:fe:ec:67:4e:fa:b7:4f:
         a6:ba:3d:ae:cd:55:88:53:79:4e:4b:5f:2e:08:0b:18:0e:02:
         e8:ee:49:87:57:7d:3f:d3:13:69:59:79:3f:8d:8a:aa:9a:6c:
         e6:d5:21:35:3f:e4:06:37:dc:09:39:7b:87:08:b9:67:a3:d2:
         a4:9f:2f:38:ce:0f:c0:9f:6a:7d:fd:9d:ff:eb:3e:a0:74:c9:
         aa:c8:e3:aa:f1:76:e2:d2:26:5e:ce:41:0e:9d:ac:18:6f:c1:
         37:49:07:fc:1f:e1:19:84
-----BEGIN CERTIFICATE-----
MIIHSDCCBTCgAwIBAgICALgwDQYJKoZIhvcNAQEFBQAwgbQxCzAJBgNVBAYTAlVT
MQswCQYDVQQIEwJDQTEVMBMGA1UEBxMMU2FuRnJhbmNpc2NvMRUwEwYDVQQKEwxQ
aXhnbG8sIEluYy4xEDAOBgNVBAsTB1ZQTi1DSUUxGjAYBgNVBAMTEXR1bm5lbC5w
aXhnbG8uY29tMRwwGgYDVQQpExNCYWxhIENoYW5kcmFzZWthcmFuMR4wHAYJKoZI
hvcNAQkBFg9iYWxhQHBpeGdsby5jb20wHhcNMTgwMjE0MDYyNjQyWhcNMjgwMjEy
MDYyNjQyWjCBqTELMAkGA1UEBhMCVVMxCzAJBgNVBAgTAkNBMRUwEwYDVQQHEwxT
YW5GcmFuY2lzY28xFTATBgNVBAoTDFBpeGdsbywgSW5jLjEQMA4GA1UECxMHVlBO
LUNJRTEPMA0GA1UEAxMGY2llMTgzMRwwGgYDVQQpExNCYWxhIENoYW5kcmFzZWth
cmFuMR4wHAYJKoZIhvcNAQkBFg9iYWxhQHBpeGdsby5jb20wggIiMA0GCSqGSIb3
DQEBAQUAA4ICDwAwggIKAoICAQDkTYeX/VCxSNv7oWSZOHJi80m/H96GbQPYk/c0
s6+CSDydMwjGOzjrR8PBivu9ZelttSEE3jCaJTCdcAwOoS1dhcLIOybIX4J615gs
IlhTggTQi6kSlhQRt4VQx1rXJ+nKlaS710c22Rk9ILvrwcLrsdrbspCbCy18U9KS
v6RZkRCi7DnZYIONb8k+z+AYnwWM/ZJ9/jlwsxhjpmAqvCzqSi+YBNn0VAwqjWQb
GaW2GhY1oSuTsxqSGDMtXJ9af6OqbxOTVW3U8cyl1wWzOn84NuZdzhOxlttnvIoS
IAkjasqR65bi07oFEzGyfQUaRaiZ82GSESxgOY/GsQ/KoHysUeS48Lqgscu8U/k0
haee0l2OUC6/HWmlxtt06MRATexOs0GqFcnxB4Da/vvpKkSdidqoYRyf2U6SNqbW
8SEzl4omcjzU4V4jttdFqvn2Q118quQBuJazDAmnrCIsqoWzo3kpF4jAMaGn+gMl
cmVDx04sUEr3ZVjtybrWuTgpceinCES0A8UiVYUORV3szCIRVrqgN/hAhrSsg42I
PL83SGV53B37JBk4l2YOyvALhb7+g+KZH5/WYuCuS+LWRuN9n+1+IbKlbcCXhUZO
V6QNmue/PAApDlhohK429vXCS4e8HAEvvOjwwRGPZ7GQ42+Jxdu2vMfePBssxjFy
6/joXQIDAQABo4IBazCCAWcwCQYDVR0TBAIwADAtBglghkgBhvhCAQ0EIBYeRWFz
eS1SU0EgR2VuZXJhdGVkIENlcnRpZmljYXRlMB0GA1UdDgQWBBQboHnN/YsoHaul
Xp9WpyeHblSVGjCB6QYDVR0jBIHhMIHegBTvOI0UUFinW02cF3L837msp1GwEKGB
uqSBtzCBtDELMAkGA1UEBhMCVVMxCzAJBgNVBAgTAkNBMRUwEwYDVQQHEwxTYW5G
cmFuY2lzY28xFTATBgNVBAoTDFBpeGdsbywgSW5jLjEQMA4GA1UECxMHVlBOLUNJ
RTEaMBgGA1UEAxMRdHVubmVsLnBpeGdsby5jb20xHDAaBgNVBCkTE0JhbGEgQ2hh
bmRyYXNla2FyYW4xHjAcBgkqhkiG9w0BCQEWD2JhbGFAcGl4Z2xvLmNvbYIJAKbb
xoOA5qB5MBMGA1UdJQQMMAoGCCsGAQUFBwMCMAsGA1UdDwQEAwIHgDANBgkqhkiG
9w0BAQUFAAOCAgEAbgZjfEaU3xOMJkPUe3DZV2EEjDm0T0zNLe+rs+NOvmTTW1aG
HOpaNvmi4IMPkCj8YKPGTgbPGNoX4gTdA6MSRiuPXgZGqZoYlKhA7FOKm7JQaKrL
astO4EIpuGBwqG5tZACXWDgU2qn8zuLIlMpmwNnN3Mjj2t24YA5gC2oHHF/x7Ifd
mkSSaThkT8k7ZXnhUnaROxeBgXOvm7IaUVpRo7JGqKZoN7RKH8KNusdRQskDPZGJ
gqC5mL4G04VB6OmXI87gCW0jxwtTbwdQWi38MJsJ0M4eoFSi/FXktSNN1hTzWt8T
R/C6jOCK9Se96Z69ImE79/mP8CA6dii/I/oCFJgS2Gcc8mx21UX/63nBLLXTrDiS
v1Jb1o388cJJxPmJuF8m81mDMjnWmcOkhdN4qFG/y5VQSHG+vAhO+JFMN2iUWFDV
lk7+cFKfi7xCjjRIjnvq5T8QDLY6PWdLdnajFGk9miVVFdKfRrdUTnp6sNnGAF46
hW0KI4hGBIo/FNSMLwjqh82tOv8Hv3YJyBM9b59BhXwFhpX+7GdO+rdPpro9rs1V
iFN5TktfLggLGA4C6O5Jh1d9P9MTaVl5P42Kqpps5tUhNT/kBjfcCTl7hwi5Z6PS
pJ8vOM4PwJ9qff2d/+s+oHTJqsjjqvF24tImXs5BDp2sGG/BN0kH/B/hGYQ=
-----END CERTIFICATE-----
