Certificate:
    Data:
        Version: 3 (0x2)
        Serial Number: 126 (0x7e)
    Signature Algorithm: sha1WithRSAEncryption
        Issuer: C=US, ST=CA, L=SanFrancisco, O=Pixglo, Inc., OU=VPN-CIE, CN=tunnel.pixglo.com/name=Bala Chandrasekaran/emailAddress=bala@pixglo.com
        Validity
            Not Before: Feb 14 06:25:59 2018 GMT
            Not After : Feb 12 06:25:59 2028 GMT
        Subject: C=US, ST=CA, L=SanFrancisco, O=Pixglo, Inc., OU=VPN-CIE, CN=cie125/name=Bala Chandrasekaran/emailAddress=bala@pixglo.com
        Subject Public Key Info:
            Public Key Algorithm: rsaEncryption
                Public-Key: (4096 bit)
                Modulus:
                    00:bb:a4:e5:53:ff:33:57:96:fc:fa:ea:3f:03:d5:
                    bb:ba:a9:b7:c6:37:29:b5:20:13:88:2d:60:e1:54:
                    90:cc:bd:84:a3:ae:78:36:97:d9:e1:0c:01:e3:ba:
                    1c:0e:b7:92:81:04:ae:0a:88:1e:0c:34:95:e8:0f:
                    de:ea:6e:d8:ed:d0:06:49:0d:3f:22:9c:8b:54:61:
                    cc:4a:55:c8:88:24:ab:77:0d:6e:b6:7f:8d:75:13:
                    75:0d:b3:82:94:9a:b5:66:fc:77:2e:ec:e6:7d:6f:
                    7c:5d:7b:43:7e:08:c0:f0:6a:23:02:15:20:14:a4:
                    9e:55:ae:59:48:8d:b6:45:41:97:06:4f:58:91:60:
                    c9:91:2f:02:87:88:7d:1a:f0:b6:c8:a7:7f:28:26:
                    72:50:68:0d:cd:ea:a3:eb:55:47:ad:54:98:6f:46:
                    f0:72:81:e8:19:23:01:4b:8d:4f:ed:75:5d:f9:93:
                    85:b1:2a:91:69:40:e9:33:30:1b:83:50:7e:ae:ca:
                    74:da:80:6b:ff:9d:1b:7c:3d:08:19:de:59:60:9e:
                    c7:f5:6b:99:45:2b:dd:e9:c2:f4:0f:16:e9:56:c7:
                    67:12:02:1f:53:a1:e9:64:c1:0c:be:de:2c:39:c7:
                    47:9d:b5:76:e1:0c:02:f2:0f:6d:62:bf:b9:ec:a2:
                    20:82:ea:5f:c2:4d:e2:ea:b6:4b:7d:8e:38:95:4f:
                    93:24:4e:67:26:b0:b0:b6:d6:62:77:d5:5a:b1:61:
                    31:fb:fd:33:fc:19:1c:32:df:92:fe:8b:37:2e:6d:
                    95:36:d2:04:1f:4f:11:bc:ce:a3:95:b8:5f:e6:81:
                    7b:bb:fe:9c:ca:c9:5a:dc:8d:ac:20:92:5a:b9:59:
                    36:da:03:6c:21:d6:ba:d9:e4:8f:01:cb:ac:2b:04:
                    72:bc:fc:f6:cd:92:85:88:43:f2:4b:4a:f3:53:a2:
                    c6:40:ef:da:9b:ea:2c:68:55:bf:61:c1:5c:34:6a:
                    42:ba:28:87:4a:c4:f0:40:33:2f:d9:28:52:5b:f1:
                    34:e5:42:70:84:3b:1b:f2:d2:19:b5:ef:33:13:e9:
                    0b:7b:aa:a2:47:59:93:b6:b8:9e:07:8b:6c:d7:a2:
                    98:c6:39:d9:9d:1c:e4:e9:4d:b2:25:59:1a:5f:ad:
                    06:b3:e9:71:2e:8f:b4:97:3e:15:7e:34:0f:7b:b8:
                    d3:67:64:99:99:5d:3d:e3:b4:45:7e:b3:73:dd:0b:
                    77:a0:7f:24:ba:3b:83:a0:7d:c7:29:b1:a3:5f:59:
                    89:00:e4:42:1c:dd:28:6b:48:c8:f6:0b:11:31:66:
                    19:4a:19:f8:8e:26:4e:98:1f:22:77:03:5e:7e:a7:
                    01:22:81
                Exponent: 65537 (0x10001)
        X509v3 extensions:
            X509v3 Basic Constraints: 
                CA:FALSE
            Netscape Comment: 
                Easy-RSA Generated Certificate
            X509v3 Subject Key Identifier: 
                C1:28:99:68:02:64:AF:10:65:B0:99:EE:99:C5:C8:7B:98:7D:91:8D
            X509v3 Authority Key Identifier: 
                keyid:EF:38:8D:14:50:58:A7:5B:4D:9C:17:72:FC:DF:B9:AC:A7:51:B0:10
                DirName:/C=US/ST=CA/L=SanFrancisco/O=Pixglo, Inc./OU=VPN-CIE/CN=tunnel.pixglo.com/name=Bala Chandrasekaran/emailAddress=bala@pixglo.com
                serial:A6:DB:C6:83:80:E6:A0:79

            X509v3 Extended Key Usage: 
                TLS Web Client Authentication
            X509v3 Key Usage: 
                Digital Signature
    Signature Algorithm: sha1WithRSAEncryption
         c4:dc:bb:83:ad:f2:a3:46:07:58:56:aa:19:bb:c5:d8:24:aa:
         ac:f1:f4:83:1e:62:8e:90:7f:f8:30:30:d4:3c:bc:47:56:22:
         29:0e:3a:79:53:90:c3:d9:e1:6a:47:32:80:8d:af:bc:91:c3:
         c4:c4:32:03:d1:25:23:69:b6:f5:79:98:ee:bd:b2:b2:40:e0:
         06:d4:9d:bd:ed:1d:56:61:31:99:2c:77:a9:7f:20:27:39:5a:
         7d:78:8a:64:46:26:30:02:5f:84:03:66:c9:8d:26:75:7c:af:
         3a:30:77:70:26:41:e7:a8:b3:e5:05:c1:25:83:d5:af:92:91:
         5a:40:04:b1:33:96:07:92:37:35:47:2b:84:46:5e:ad:5e:d9:
         60:a8:67:54:58:a9:5a:de:e0:6e:56:d9:0e:55:86:11:3e:f9:
         04:7f:a2:28:3e:8c:bb:85:05:99:ec:8e:89:62:04:11:41:13:
         4a:7d:78:43:cc:1b:18:14:4f:4e:1b:b5:f9:ed:fa:12:e0:6b:
         4b:1b:61:10:c2:bf:c3:3b:ca:c8:9e:35:5d:74:06:4d:55:03:
         c8:a7:ce:a9:1c:a4:29:be:ca:99:a4:62:20:d4:f7:8c:18:cf:
         36:67:3b:3e:2a:f3:e2:73:21:6f:56:7d:1b:23:7a:0c:52:99:
         86:10:30:42:dc:80:4d:83:e2:0f:37:11:60:99:cc:ee:2a:d8:
         b3:6a:4a:4f:bc:89:2c:d7:e1:1f:36:ea:73:28:26:df:a8:2f:
         62:d9:8a:f4:e6:92:d1:b0:15:10:63:6b:3f:60:75:51:ca:02:
         94:23:e6:7e:07:cb:68:f8:8f:5d:a9:b8:c1:a9:cd:2b:24:c0:
         dd:b5:91:41:e1:b2:3d:ce:22:bd:7b:49:51:0a:f8:41:82:fb:
         e9:97:0c:28:90:4a:bc:e0:48:b8:7a:43:6a:8d:29:66:8c:b9:
         20:b8:05:df:a6:f6:3d:c2:3f:02:9a:fb:41:f1:a6:73:56:b3:
         70:96:a1:72:02:79:6d:18:fe:42:30:4b:ee:05:80:70:40:8b:
         9d:bd:d4:fd:04:bc:8e:74:e4:81:f2:a3:6b:1b:d4:83:f7:d0:
         dd:b1:73:50:53:d0:2c:b5:96:fa:f8:a7:cc:81:c8:e1:15:37:
         c8:1d:85:66:a1:da:db:67:2f:2c:b1:1f:55:1e:46:ac:42:92:
         55:82:ef:26:08:3e:4d:4f:e1:af:31:a7:e8:3d:59:e5:f9:93:
         89:39:ba:25:2e:85:78:d4:89:03:db:97:51:13:0b:f1:56:f7:
         52:ed:df:88:70:5d:ba:1e:60:73:48:ca:48:85:4a:51:2e:5e:
         cd:2e:d8:a0:86:ce:0e:98
-----BEGIN CERTIFICATE-----
MIIHRzCCBS+gAwIBAgIBfjANBgkqhkiG9w0BAQUFADCBtDELMAkGA1UEBhMCVVMx
CzAJBgNVBAgTAkNBMRUwEwYDVQQHEwxTYW5GcmFuY2lzY28xFTATBgNVBAoTDFBp
eGdsbywgSW5jLjEQMA4GA1UECxMHVlBOLUNJRTEaMBgGA1UEAxMRdHVubmVsLnBp
eGdsby5jb20xHDAaBgNVBCkTE0JhbGEgQ2hhbmRyYXNla2FyYW4xHjAcBgkqhkiG
9w0BCQEWD2JhbGFAcGl4Z2xvLmNvbTAeFw0xODAyMTQwNjI1NTlaFw0yODAyMTIw
NjI1NTlaMIGpMQswCQYDVQQGEwJVUzELMAkGA1UECBMCQ0ExFTATBgNVBAcTDFNh
bkZyYW5jaXNjbzEVMBMGA1UEChMMUGl4Z2xvLCBJbmMuMRAwDgYDVQQLEwdWUE4t
Q0lFMQ8wDQYDVQQDEwZjaWUxMjUxHDAaBgNVBCkTE0JhbGEgQ2hhbmRyYXNla2Fy
YW4xHjAcBgkqhkiG9w0BCQEWD2JhbGFAcGl4Z2xvLmNvbTCCAiIwDQYJKoZIhvcN
AQEBBQADggIPADCCAgoCggIBALuk5VP/M1eW/PrqPwPVu7qpt8Y3KbUgE4gtYOFU
kMy9hKOueDaX2eEMAeO6HA63koEErgqIHgw0legP3upu2O3QBkkNPyKci1RhzEpV
yIgkq3cNbrZ/jXUTdQ2zgpSatWb8dy7s5n1vfF17Q34IwPBqIwIVIBSknlWuWUiN
tkVBlwZPWJFgyZEvAoeIfRrwtsinfygmclBoDc3qo+tVR61UmG9G8HKB6BkjAUuN
T+11XfmThbEqkWlA6TMwG4NQfq7KdNqAa/+dG3w9CBneWWCex/VrmUUr3enC9A8W
6VbHZxICH1Oh6WTBDL7eLDnHR521duEMAvIPbWK/ueyiIILqX8JN4uq2S32OOJVP
kyROZyawsLbWYnfVWrFhMfv9M/wZHDLfkv6LNy5tlTbSBB9PEbzOo5W4X+aBe7v+
nMrJWtyNrCCSWrlZNtoDbCHWutnkjwHLrCsEcrz89s2ShYhD8ktK81OixkDv2pvq
LGhVv2HBXDRqQrooh0rE8EAzL9koUlvxNOVCcIQ7G/LSGbXvMxPpC3uqokdZk7a4
ngeLbNeimMY52Z0c5OlNsiVZGl+tBrPpcS6PtJc+FX40D3u402dkmZldPeO0RX6z
c90Ld6B/JLo7g6B9xymxo19ZiQDkQhzdKGtIyPYLETFmGUoZ+I4mTpgfIncDXn6n
ASKBAgMBAAGjggFrMIIBZzAJBgNVHRMEAjAAMC0GCWCGSAGG+EIBDQQgFh5FYXN5
LVJTQSBHZW5lcmF0ZWQgQ2VydGlmaWNhdGUwHQYDVR0OBBYEFMEomWgCZK8QZbCZ
7pnFyHuYfZGNMIHpBgNVHSMEgeEwgd6AFO84jRRQWKdbTZwXcvzfuaynUbAQoYG6
pIG3MIG0MQswCQYDVQQGEwJVUzELMAkGA1UECBMCQ0ExFTATBgNVBAcTDFNhbkZy
YW5jaXNjbzEVMBMGA1UEChMMUGl4Z2xvLCBJbmMuMRAwDgYDVQQLEwdWUE4tQ0lF
MRowGAYDVQQDExF0dW5uZWwucGl4Z2xvLmNvbTEcMBoGA1UEKRMTQmFsYSBDaGFu
ZHJhc2VrYXJhbjEeMBwGCSqGSIb3DQEJARYPYmFsYUBwaXhnbG8uY29tggkAptvG
g4DmoHkwEwYDVR0lBAwwCgYIKwYBBQUHAwIwCwYDVR0PBAQDAgeAMA0GCSqGSIb3
DQEBBQUAA4ICAQDE3LuDrfKjRgdYVqoZu8XYJKqs8fSDHmKOkH/4MDDUPLxHViIp
Djp5U5DD2eFqRzKAja+8kcPExDID0SUjabb1eZjuvbKyQOAG1J297R1WYTGZLHep
fyAnOVp9eIpkRiYwAl+EA2bJjSZ1fK86MHdwJkHnqLPlBcElg9WvkpFaQASxM5YH
kjc1RyuERl6tXtlgqGdUWKla3uBuVtkOVYYRPvkEf6IoPoy7hQWZ7I6JYgQRQRNK
fXhDzBsYFE9OG7X57foS4GtLG2EQwr/DO8rInjVddAZNVQPIp86pHKQpvsqZpGIg
1PeMGM82Zzs+KvPicyFvVn0bI3oMUpmGEDBC3IBNg+IPNxFgmczuKtizakpPvIks
1+EfNupzKCbfqC9i2Yr05pLRsBUQY2s/YHVRygKUI+Z+B8to+I9dqbjBqc0rJMDd
tZFB4bI9ziK9e0lRCvhBgvvplwwokEq84Ei4ekNqjSlmjLkguAXfpvY9wj8CmvtB
8aZzVrNwlqFyAnltGP5CMEvuBYBwQIudvdT9BLyOdOSB8qNrG9SD99DdsXNQU9As
tZb6+KfMgcjhFTfIHYVmodrbZy8ssR9VHkasQpJVgu8mCD5NT+GvMafoPVnl+ZOJ
ObolLoV41IkD25dREwvxVvdS7d+IcF26HmBzSMpIhUpRLl7NLtighs4OmA==
-----END CERTIFICATE-----
