Certificate:
    Data:
        Version: 3 (0x2)
        Serial Number: 195 (0xc3)
    Signature Algorithm: sha1WithRSAEncryption
        Issuer: C=US, ST=CA, L=SanFrancisco, O=Pixglo, Inc., OU=VPN-CIE, CN=tunnel.pixglo.com/name=Bala Chandrasekaran/emailAddress=bala@pixglo.com
        Validity
            Not Before: Feb 14 06:26:52 2018 GMT
            Not After : Feb 12 06:26:52 2028 GMT
        Subject: C=US, ST=CA, L=SanFrancisco, O=Pixglo, Inc., OU=VPN-CIE, CN=cie194/name=Bala Chandrasekaran/emailAddress=bala@pixglo.com
        Subject Public Key Info:
            Public Key Algorithm: rsaEncryption
                Public-Key: (4096 bit)
                Modulus:
                    00:e2:23:48:5d:2b:a8:58:e5:f8:7b:af:37:10:12:
                    ba:47:04:a3:97:e5:18:c4:c2:3a:4d:cd:b7:08:4c:
                    ea:5e:6f:78:92:d4:60:ab:a6:71:58:46:19:92:05:
                    92:80:02:50:f1:bd:f4:42:88:a2:5e:8d:f6:36:c5:
                    a5:92:93:65:56:5a:d2:26:a2:e8:b2:f6:b1:66:08:
                    cb:22:10:10:34:02:01:48:7e:35:12:b0:a8:89:32:
                    ab:a9:60:8e:dd:19:b4:d1:f5:66:78:54:b5:70:21:
                    31:3d:3f:f7:dd:99:25:a4:9d:03:b2:63:3b:c6:31:
                    ef:b7:08:a0:12:20:b2:df:1f:4c:f5:53:11:83:9e:
                    cd:d0:f2:0e:b1:f8:58:3a:59:a6:5c:40:59:24:0f:
                    5d:97:86:64:af:19:3d:5b:b4:0e:4a:22:ec:0a:e7:
                    05:e1:6e:a0:bd:21:40:27:87:1b:a8:b2:03:5e:d8:
                    e3:f1:3e:28:85:79:e8:01:e9:b8:fa:f0:52:6d:fd:
                    67:cd:a7:c6:3e:52:f5:34:d7:38:89:1f:b0:e3:e5:
                    2d:b2:30:dd:7a:90:b2:98:ea:70:e2:54:f0:5d:31:
                    a1:cb:a6:34:51:be:1f:85:d7:af:aa:ec:01:b6:90:
                    25:76:7b:42:5f:34:74:d2:05:f1:21:1d:62:25:ff:
                    b8:fa:f7:87:9f:63:6a:58:7d:c8:e5:c2:96:62:c6:
                    39:7d:34:47:c4:bc:c9:df:53:f7:b4:f2:d3:4c:cf:
                    85:e7:6f:fa:41:0c:ef:ce:11:f4:65:5c:6f:91:6a:
                    83:d2:96:94:b1:39:b9:ae:69:f4:f2:08:b2:f0:de:
                    e6:1c:e4:77:23:ab:f9:a5:ce:20:48:0d:f9:8b:58:
                    b4:86:9b:85:cb:89:ef:1c:05:35:e2:ce:dc:78:07:
                    aa:b1:fd:96:60:c4:e5:ca:b3:bc:69:b2:29:4c:11:
                    d1:37:f5:bd:34:2c:8f:fe:a5:b8:e8:66:40:a6:ea:
                    50:75:ad:f0:23:bf:ca:5d:2b:fd:38:72:3e:c3:7b:
                    7e:2d:dd:fb:ad:5b:85:30:ef:a4:9d:51:3e:3e:f7:
                    fa:71:08:1d:f3:22:74:65:8d:3b:52:94:7c:b4:d5:
                    3d:57:21:04:be:f8:2e:13:07:1e:ee:a9:fe:b9:a8:
                    0c:60:12:f8:4b:d5:47:fe:2e:d0:f6:dd:ef:92:ec:
                    4f:a6:0e:18:5e:ec:8a:a1:32:e9:37:c5:6b:37:37:
                    5c:89:e6:b8:82:e5:7d:2c:c1:85:33:10:64:5d:03:
                    23:06:f0:03:3c:45:fb:5a:77:e1:22:93:b3:6d:9f:
                    67:f9:07:18:7f:d2:a2:7c:12:8d:32:58:c9:6d:6c:
                    4a:40:43
                Exponent: 65537 (0x10001)
        X509v3 extensions:
            X509v3 Basic Constraints: 
                CA:FALSE
            Netscape Comment: 
                Easy-RSA Generated Certificate
            X509v3 Subject Key Identifier: 
                BE:75:C6:91:7B:3B:53:4C:F3:A6:D8:64:CF:DE:B8:B0:E0:1D:E2:4A
            X509v3 Authority Key Identifier: 
                keyid:EF:38:8D:14:50:58:A7:5B:4D:9C:17:72:FC:DF:B9:AC:A7:51:B0:10
                DirName:/C=US/ST=CA/L=SanFrancisco/O=Pixglo, Inc./OU=VPN-CIE/CN=tunnel.pixglo.com/name=Bala Chandrasekaran/emailAddress=bala@pixglo.com
                serial:A6:DB:C6:83:80:E6:A0:79

            X509v3 Extended Key Usage: 
                TLS Web Client Authentication
            X509v3 Key Usage: 
                Digital Signature
    Signature Algorithm: sha1WithRSAEncryption
         ca:6e:92:3d:8d:8c:e3:36:19:cc:67:d3:cf:4a:c9:b6:69:0b:
         27:09:69:32:97:6d:bf:ee:f4:b6:de:da:fc:ba:e8:10:86:62:
         69:f1:df:1d:f6:6e:e3:74:1d:47:6b:2b:b5:8d:2c:7b:13:c2:
         5d:91:07:3e:aa:c4:06:1d:c4:fd:67:f2:ae:ba:36:3d:d7:f4:
         bb:07:86:71:05:ff:d5:33:0b:bd:1e:e7:27:17:05:ef:2f:e6:
         9d:56:51:47:6a:30:9a:a6:33:b6:ba:11:c4:a5:60:c2:4a:6f:
         f7:51:5f:79:fe:59:f6:b6:ad:13:d1:cf:36:4e:36:e6:11:de:
         e9:5d:6e:6a:08:bc:7e:19:ca:58:46:f8:06:5c:0d:b8:85:b6:
         3f:d1:4f:92:cb:70:33:ef:f6:59:b9:7e:39:ae:f1:20:ea:fe:
         1a:f0:fc:d0:44:95:94:05:bb:4e:e8:1d:ce:50:33:b3:09:a1:
         f7:26:07:a1:c4:9d:83:b7:54:e6:1e:7c:f7:9c:2c:37:f3:e4:
         4d:73:85:bc:1c:16:d3:f3:f7:f2:cf:e6:9c:09:15:80:a6:ff:
         c3:6b:a5:b1:48:18:f6:8a:f2:6f:82:60:01:bc:b6:38:bd:bb:
         8a:c1:00:a6:c3:37:4d:f4:78:5c:b1:6d:9b:56:69:ea:df:64:
         23:c6:44:48:a1:1f:e0:97:57:69:ae:22:34:23:db:8b:88:36:
         b9:05:59:cb:f5:6c:d5:e0:c0:f4:16:8f:79:0b:01:a2:2a:05:
         d0:a1:1c:3e:17:e9:a7:f6:ee:de:7e:d0:ad:54:13:95:d0:83:
         37:f6:32:ce:ae:e1:64:0a:e2:78:05:34:f8:29:3c:91:a4:2d:
         ed:95:f8:c4:e0:9c:33:ee:f6:5e:f8:6f:5c:77:d2:0e:e5:4e:
         14:9b:5e:1a:8a:f5:94:1b:1d:49:47:24:13:47:e3:da:d3:16:
         4a:b9:15:02:01:a2:c5:e9:e9:8f:23:c7:a4:e6:3b:e1:56:a8:
         2d:19:87:ef:0f:2d:d9:11:87:a6:80:1c:5d:89:11:30:45:a1:
         ab:40:a9:8c:0d:0a:17:1f:7d:82:73:1f:f1:eb:80:60:cf:85:
         10:64:08:15:f2:7c:d3:2b:47:b2:14:fb:be:5c:a3:1f:00:71:
         b3:06:24:de:dd:02:ca:8b:cc:ec:f2:39:98:98:84:f3:b6:16:
         10:8c:a1:0f:64:6a:78:4e:3b:03:21:2a:a8:bc:d8:fb:d4:9c:
         45:66:0c:4c:9e:5d:d1:5f:3f:c6:03:f7:64:5c:44:70:b2:bd:
         7f:e9:1c:0d:94:63:b9:c2:52:cc:a7:85:2f:3f:dd:cb:76:5e:
         d2:91:ca:75:d0:48:0f:24
-----BEGIN CERTIFICATE-----
MIIHSDCCBTCgAwIBAgICAMMwDQYJKoZIhvcNAQEFBQAwgbQxCzAJBgNVBAYTAlVT
MQswCQYDVQQIEwJDQTEVMBMGA1UEBxMMU2FuRnJhbmNpc2NvMRUwEwYDVQQKEwxQ
aXhnbG8sIEluYy4xEDAOBgNVBAsTB1ZQTi1DSUUxGjAYBgNVBAMTEXR1bm5lbC5w
aXhnbG8uY29tMRwwGgYDVQQpExNCYWxhIENoYW5kcmFzZWthcmFuMR4wHAYJKoZI
hvcNAQkBFg9iYWxhQHBpeGdsby5jb20wHhcNMTgwMjE0MDYyNjUyWhcNMjgwMjEy
MDYyNjUyWjCBqTELMAkGA1UEBhMCVVMxCzAJBgNVBAgTAkNBMRUwEwYDVQQHEwxT
YW5GcmFuY2lzY28xFTATBgNVBAoTDFBpeGdsbywgSW5jLjEQMA4GA1UECxMHVlBO
LUNJRTEPMA0GA1UEAxMGY2llMTk0MRwwGgYDVQQpExNCYWxhIENoYW5kcmFzZWth
cmFuMR4wHAYJKoZIhvcNAQkBFg9iYWxhQHBpeGdsby5jb20wggIiMA0GCSqGSIb3
DQEBAQUAA4ICDwAwggIKAoICAQDiI0hdK6hY5fh7rzcQErpHBKOX5RjEwjpNzbcI
TOpeb3iS1GCrpnFYRhmSBZKAAlDxvfRCiKJejfY2xaWSk2VWWtImouiy9rFmCMsi
EBA0AgFIfjUSsKiJMqupYI7dGbTR9WZ4VLVwITE9P/fdmSWknQOyYzvGMe+3CKAS
ILLfH0z1UxGDns3Q8g6x+Fg6WaZcQFkkD12XhmSvGT1btA5KIuwK5wXhbqC9IUAn
hxuosgNe2OPxPiiFeegB6bj68FJt/WfNp8Y+UvU01ziJH7Dj5S2yMN16kLKY6nDi
VPBdMaHLpjRRvh+F16+q7AG2kCV2e0JfNHTSBfEhHWIl/7j694efY2pYfcjlwpZi
xjl9NEfEvMnfU/e08tNMz4Xnb/pBDO/OEfRlXG+RaoPSlpSxObmuafTyCLLw3uYc
5Hcjq/mlziBIDfmLWLSGm4XLie8cBTXiztx4B6qx/ZZgxOXKs7xpsilMEdE39b00
LI/+pbjoZkCm6lB1rfAjv8pdK/04cj7De34t3futW4Uw76SdUT4+9/pxCB3zInRl
jTtSlHy01T1XIQS++C4TBx7uqf65qAxgEvhL1Uf+LtD23e+S7E+mDhhe7IqhMuk3
xWs3N1yJ5riC5X0swYUzEGRdAyMG8AM8Rftad+Eik7Ntn2f5Bxh/0qJ8Eo0yWMlt
bEpAQwIDAQABo4IBazCCAWcwCQYDVR0TBAIwADAtBglghkgBhvhCAQ0EIBYeRWFz
eS1SU0EgR2VuZXJhdGVkIENlcnRpZmljYXRlMB0GA1UdDgQWBBS+dcaReztTTPOm
2GTP3riw4B3iSjCB6QYDVR0jBIHhMIHegBTvOI0UUFinW02cF3L837msp1GwEKGB
uqSBtzCBtDELMAkGA1UEBhMCVVMxCzAJBgNVBAgTAkNBMRUwEwYDVQQHEwxTYW5G
cmFuY2lzY28xFTATBgNVBAoTDFBpeGdsbywgSW5jLjEQMA4GA1UECxMHVlBOLUNJ
RTEaMBgGA1UEAxMRdHVubmVsLnBpeGdsby5jb20xHDAaBgNVBCkTE0JhbGEgQ2hh
bmRyYXNla2FyYW4xHjAcBgkqhkiG9w0BCQEWD2JhbGFAcGl4Z2xvLmNvbYIJAKbb
xoOA5qB5MBMGA1UdJQQMMAoGCCsGAQUFBwMCMAsGA1UdDwQEAwIHgDANBgkqhkiG
9w0BAQUFAAOCAgEAym6SPY2M4zYZzGfTz0rJtmkLJwlpMpdtv+70tt7a/LroEIZi
afHfHfZu43QdR2srtY0sexPCXZEHPqrEBh3E/Wfyrro2Pdf0uweGcQX/1TMLvR7n
JxcF7y/mnVZRR2owmqYztroRxKVgwkpv91Ffef5Z9ratE9HPNk425hHe6V1uagi8
fhnKWEb4BlwNuIW2P9FPkstwM+/2Wbl+Oa7xIOr+GvD80ESVlAW7TugdzlAzswmh
9yYHocSdg7dU5h5895wsN/PkTXOFvBwW0/P38s/mnAkVgKb/w2ulsUgY9oryb4Jg
Aby2OL27isEApsM3TfR4XLFtm1Zp6t9kI8ZESKEf4JdXaa4iNCPbi4g2uQVZy/Vs
1eDA9BaPeQsBoioF0KEcPhfpp/bu3n7QrVQTldCDN/Yyzq7hZArieAU0+Ck8kaQt
7ZX4xOCcM+72XvhvXHfSDuVOFJteGor1lBsdSUckE0fj2tMWSrkVAgGixenpjyPH
pOY74VaoLRmH7w8t2RGHpoAcXYkRMEWhq0CpjA0KFx99gnMf8euAYM+FEGQIFfJ8
0ytHshT7vlyjHwBxswYk3t0CyovM7PI5mJiE87YWEIyhD2RqeE47AyEqqLzY+9Sc
RWYMTJ5d0V8/xgP3ZFxEcLK9f+kcDZRjucJSzKeFLz/dy3Ze0pHKddBIDyQ=
-----END CERTIFICATE-----
