Certificate:
    Data:
        Version: 3 (0x2)
        Serial Number: 218 (0xda)
    Signature Algorithm: sha1WithRSAEncryption
        Issuer: C=US, ST=CA, L=SanFrancisco, O=Pixglo, Inc., OU=VPN-CIE, CN=tunnel.pixglo.com/name=Bala Chandrasekaran/emailAddress=bala@pixglo.com
        Validity
            Not Before: Feb 14 06:28:56 2018 GMT
            Not After : Feb 12 06:28:56 2028 GMT
        Subject: C=US, ST=CA, L=SanFrancisco, O=Pixglo, Inc., OU=VPN-CIE, CN=cie217/name=Bala Chandrasekaran/emailAddress=bala@pixglo.com
        Subject Public Key Info:
            Public Key Algorithm: rsaEncryption
                Public-Key: (4096 bit)
                Modulus:
                    00:b2:65:61:13:cf:38:59:fa:af:16:13:f4:30:b5:
                    22:9d:bf:87:c5:af:89:a4:8b:9b:e6:51:ef:36:71:
                    30:29:dc:f8:0a:3e:ac:01:ee:7d:a4:ab:1a:e1:94:
                    8f:4e:d1:88:f8:db:3d:d3:4f:09:98:11:e5:3f:02:
                    ba:61:f3:cc:aa:b3:de:ee:2e:51:2b:d9:f6:ff:a1:
                    f5:50:24:7e:81:f7:da:02:e4:31:d1:ae:d1:42:58:
                    42:2d:e1:6d:42:af:fc:33:4a:b6:2b:df:a4:2c:9e:
                    53:dc:57:54:59:28:a5:b4:1a:f0:85:14:0f:ae:0c:
                    1d:2d:69:1f:6b:f9:48:81:d8:fb:f3:6c:1f:96:94:
                    54:c1:fd:d5:f6:2a:c1:76:dd:f3:53:83:7b:11:92:
                    17:d2:a8:c2:ea:5c:85:03:43:03:f5:4e:03:fa:11:
                    53:d7:7a:fb:f6:d6:30:50:4a:2f:87:b0:86:fe:a7:
                    29:65:b2:64:26:29:57:48:b9:ec:90:87:84:88:c8:
                    1e:f3:29:89:64:69:d4:99:ea:3e:cb:d7:cf:bb:0b:
                    cc:94:b5:ab:10:5d:de:0b:4c:da:39:04:5c:c6:1a:
                    22:37:02:54:1f:3d:91:1e:db:87:84:b8:5d:4b:ee:
                    86:4b:74:6c:96:44:20:7e:45:3b:52:e9:a1:5d:3e:
                    ea:7c:b5:d4:5f:da:72:db:4e:9b:b8:0c:ff:2f:e1:
                    a7:13:7b:80:e7:d9:0a:63:f1:01:db:42:7b:96:0a:
                    39:0d:83:1a:78:4e:10:2e:64:18:b7:21:e0:98:93:
                    65:08:0f:0e:d6:ed:ab:21:c4:43:cc:57:21:7d:d5:
                    14:35:bd:e1:83:78:35:05:10:2b:e4:77:e2:9c:f7:
                    ec:48:68:ec:da:b9:b2:9a:88:8c:fd:e6:08:7b:9c:
                    7e:64:b4:8d:8e:98:10:ff:0d:9a:bc:a2:4e:77:6d:
                    bd:65:0d:0d:11:0d:fc:7b:0d:e2:bd:bc:cb:65:2e:
                    38:c1:8d:fa:dc:8f:bc:72:74:2e:52:41:bc:d6:ec:
                    78:0e:e9:0d:b0:68:9f:42:2f:d2:76:47:f7:42:fe:
                    e3:d4:4d:50:87:11:5d:9a:05:ad:cd:f4:26:c7:e8:
                    b4:02:8f:d8:9b:c2:cc:1b:6d:9f:22:ca:1f:cb:ba:
                    fd:08:1f:00:05:26:48:6a:7d:d6:36:77:e8:46:75:
                    3a:55:99:2e:42:e8:7d:0b:6a:1d:14:6e:5e:aa:3c:
                    f7:8c:55:c2:08:c9:4a:17:c0:57:09:e5:ab:5a:de:
                    33:08:56:e1:b2:e8:f7:4b:0a:f2:5d:2d:e3:0b:a8:
                    e4:55:fd:e5:f7:ec:63:c5:32:da:31:f5:b5:82:6c:
                    4e:8c:b1
                Exponent: 65537 (0x10001)
        X509v3 extensions:
            X509v3 Basic Constraints: 
                CA:FALSE
            Netscape Comment: 
                Easy-RSA Generated Certificate
            X509v3 Subject Key Identifier: 
                39:4C:7D:06:BA:8B:CD:37:B9:A7:15:07:E7:C0:86:A5:2E:6A:EF:91
            X509v3 Authority Key Identifier: 
                keyid:EF:38:8D:14:50:58:A7:5B:4D:9C:17:72:FC:DF:B9:AC:A7:51:B0:10
                DirName:/C=US/ST=CA/L=SanFrancisco/O=Pixglo, Inc./OU=VPN-CIE/CN=tunnel.pixglo.com/name=Bala Chandrasekaran/emailAddress=bala@pixglo.com
                serial:A6:DB:C6:83:80:E6:A0:79

            X509v3 Extended Key Usage: 
                TLS Web Client Authentication
            X509v3 Key Usage: 
                Digital Signature
    Signature Algorithm: sha1WithRSAEncryption
         7d:f1:8a:87:91:1d:2a:09:86:c4:a3:0e:72:a3:b8:af:57:ed:
         19:5b:4b:f4:ad:6a:26:cb:76:e0:06:a9:1d:fe:9e:26:95:2d:
         69:0c:5f:e2:cb:4b:39:5c:c2:01:86:55:41:73:af:ef:89:f6:
         b3:90:5d:01:35:f7:0e:25:a4:de:04:01:02:57:cc:64:9e:9c:
         74:3a:47:a2:e2:b6:e4:9c:4a:89:31:f6:21:ab:8d:38:24:39:
         4a:1f:3b:50:26:cf:3c:6a:a8:68:8b:80:52:7e:96:3d:c0:f6:
         33:1e:c8:23:c9:56:05:0e:91:36:0b:df:73:b8:3b:b9:6a:71:
         81:aa:b9:c0:16:ab:52:72:fc:6b:c2:25:e7:74:ce:16:c9:71:
         27:91:a7:03:59:5b:88:b0:1b:ca:f2:12:8b:71:92:f3:33:47:
         2b:bb:1b:9f:ed:34:1d:a0:36:c8:f2:77:9b:51:0b:cf:18:4a:
         06:e1:2d:f6:e3:d8:26:e4:65:cd:61:46:cb:b1:6f:20:e0:0e:
         c2:7f:64:93:29:e4:24:e8:6b:ec:9d:40:b0:4d:75:2f:a4:81:
         5d:62:41:9c:a2:52:98:73:f9:aa:a1:85:5a:68:df:c7:f2:41:
         8c:f4:66:4f:b4:3c:f4:a7:f7:30:56:21:8d:27:34:50:84:c7:
         7e:12:f4:c4:5e:99:f8:47:a7:af:fc:90:df:87:74:f0:7c:1d:
         7d:69:fd:92:14:f7:4b:b8:86:b9:18:a2:e9:9c:ab:ce:bd:72:
         22:fa:38:b5:98:ee:ea:27:c7:a4:07:f3:f4:fc:02:76:2c:51:
         9c:e9:08:9e:d8:0d:b7:b0:60:a3:8a:93:b8:c0:49:56:5d:2d:
         8f:89:bf:28:15:69:86:b7:57:10:40:c3:76:75:a6:c8:83:6f:
         d8:19:92:c5:6f:54:43:f2:51:08:ff:0f:07:b6:bf:d2:87:3c:
         bb:9d:8a:46:11:2f:d9:a5:dc:27:5a:36:1e:cb:60:e8:b7:af:
         f2:49:59:a4:3b:05:ff:90:f6:a9:7d:75:2a:07:82:35:30:a3:
         d3:4d:17:4e:43:73:23:30:ae:e1:14:75:45:89:0c:51:70:65:
         44:ff:31:7e:6e:57:cf:5b:22:a9:2f:0a:13:50:39:f9:ad:83:
         02:a3:9b:ae:f6:6a:82:72:cb:8f:1a:46:e3:f9:75:34:1c:00:
         c4:a9:ba:a8:55:d4:5c:1c:3f:a0:15:60:73:75:55:2e:89:e4:
         f2:6a:cf:2d:53:09:ef:75:e0:05:b3:56:7d:a7:58:a2:4c:59:
         30:1f:82:31:00:3b:9d:69:89:45:e3:eb:75:67:ba:0e:dc:51:
         df:c0:5a:10:58:0d:3f:16
-----BEGIN CERTIFICATE-----
MIIHSDCCBTCgAwIBAgICANowDQYJKoZIhvcNAQEFBQAwgbQxCzAJBgNVBAYTAlVT
MQswCQYDVQQIEwJDQTEVMBMGA1UEBxMMU2FuRnJhbmNpc2NvMRUwEwYDVQQKEwxQ
aXhnbG8sIEluYy4xEDAOBgNVBAsTB1ZQTi1DSUUxGjAYBgNVBAMTEXR1bm5lbC5w
aXhnbG8uY29tMRwwGgYDVQQpExNCYWxhIENoYW5kcmFzZWthcmFuMR4wHAYJKoZI
hvcNAQkBFg9iYWxhQHBpeGdsby5jb20wHhcNMTgwMjE0MDYyODU2WhcNMjgwMjEy
MDYyODU2WjCBqTELMAkGA1UEBhMCVVMxCzAJBgNVBAgTAkNBMRUwEwYDVQQHEwxT
YW5GcmFuY2lzY28xFTATBgNVBAoTDFBpeGdsbywgSW5jLjEQMA4GA1UECxMHVlBO
LUNJRTEPMA0GA1UEAxMGY2llMjE3MRwwGgYDVQQpExNCYWxhIENoYW5kcmFzZWth
cmFuMR4wHAYJKoZIhvcNAQkBFg9iYWxhQHBpeGdsby5jb20wggIiMA0GCSqGSIb3
DQEBAQUAA4ICDwAwggIKAoICAQCyZWETzzhZ+q8WE/QwtSKdv4fFr4mki5vmUe82
cTAp3PgKPqwB7n2kqxrhlI9O0Yj42z3TTwmYEeU/Arph88yqs97uLlEr2fb/ofVQ
JH6B99oC5DHRrtFCWEIt4W1Cr/wzSrYr36QsnlPcV1RZKKW0GvCFFA+uDB0taR9r
+UiB2PvzbB+WlFTB/dX2KsF23fNTg3sRkhfSqMLqXIUDQwP1TgP6EVPXevv21jBQ
Si+HsIb+pyllsmQmKVdIueyQh4SIyB7zKYlkadSZ6j7L18+7C8yUtasQXd4LTNo5
BFzGGiI3AlQfPZEe24eEuF1L7oZLdGyWRCB+RTtS6aFdPup8tdRf2nLbTpu4DP8v
4acTe4Dn2Qpj8QHbQnuWCjkNgxp4ThAuZBi3IeCYk2UIDw7W7ashxEPMVyF91RQ1
veGDeDUFECvkd+Kc9+xIaOzaubKaiIz95gh7nH5ktI2OmBD/DZq8ok53bb1lDQ0R
Dfx7DeK9vMtlLjjBjfrcj7xydC5SQbzW7HgO6Q2waJ9CL9J2R/dC/uPUTVCHEV2a
Ba3N9CbH6LQCj9ibwswbbZ8iyh/Luv0IHwAFJkhqfdY2d+hGdTpVmS5C6H0Lah0U
bl6qPPeMVcIIyUoXwFcJ5ata3jMIVuGy6PdLCvJdLeMLqORV/eX37GPFMtox9bWC
bE6MsQIDAQABo4IBazCCAWcwCQYDVR0TBAIwADAtBglghkgBhvhCAQ0EIBYeRWFz
eS1SU0EgR2VuZXJhdGVkIENlcnRpZmljYXRlMB0GA1UdDgQWBBQ5TH0GuovNN7mn
FQfnwIalLmrvkTCB6QYDVR0jBIHhMIHegBTvOI0UUFinW02cF3L837msp1GwEKGB
uqSBtzCBtDELMAkGA1UEBhMCVVMxCzAJBgNVBAgTAkNBMRUwEwYDVQQHEwxTYW5G
cmFuY2lzY28xFTATBgNVBAoTDFBpeGdsbywgSW5jLjEQMA4GA1UECxMHVlBOLUNJ
RTEaMBgGA1UEAxMRdHVubmVsLnBpeGdsby5jb20xHDAaBgNVBCkTE0JhbGEgQ2hh
bmRyYXNla2FyYW4xHjAcBgkqhkiG9w0BCQEWD2JhbGFAcGl4Z2xvLmNvbYIJAKbb
xoOA5qB5MBMGA1UdJQQMMAoGCCsGAQUFBwMCMAsGA1UdDwQEAwIHgDANBgkqhkiG
9w0BAQUFAAOCAgEAffGKh5EdKgmGxKMOcqO4r1ftGVtL9K1qJst24AapHf6eJpUt
aQxf4stLOVzCAYZVQXOv74n2s5BdATX3DiWk3gQBAlfMZJ6cdDpHouK25JxKiTH2
IauNOCQ5Sh87UCbPPGqoaIuAUn6WPcD2Mx7II8lWBQ6RNgvfc7g7uWpxgaq5wBar
UnL8a8Il53TOFslxJ5GnA1lbiLAbyvISi3GS8zNHK7sbn+00HaA2yPJ3m1ELzxhK
BuEt9uPYJuRlzWFGy7FvIOAOwn9kkynkJOhr7J1AsE11L6SBXWJBnKJSmHP5qqGF
Wmjfx/JBjPRmT7Q89Kf3MFYhjSc0UITHfhL0xF6Z+Eenr/yQ34d08HwdfWn9khT3
S7iGuRii6Zyrzr1yIvo4tZju6ifHpAfz9PwCdixRnOkIntgNt7Bgo4qTuMBJVl0t
j4m/KBVphrdXEEDDdnWmyINv2BmSxW9UQ/JRCP8PB7a/0oc8u52KRhEv2aXcJ1o2
Hstg6Lev8klZpDsF/5D2qX11KgeCNTCj000XTkNzIzCu4RR1RYkMUXBlRP8xfm5X
z1siqS8KE1A5+a2DAqObrvZqgnLLjxpG4/l1NBwAxKm6qFXUXBw/oBVgc3VVLonk
8mrPLVMJ73XgBbNWfadYokxZMB+CMQA7nWmJRePrdWe6DtxR38BaEFgNPxY=
-----END CERTIFICATE-----
