Certificate:
    Data:
        Version: 3 (0x2)
        Serial Number: 23 (0x17)
    Signature Algorithm: sha1WithRSAEncryption
        Issuer: C=US, ST=CA, L=SanFrancisco, O=Pixglo, Inc., OU=VPN-CIE, CN=tunnel.pixglo.com/name=Bala Chandrasekaran/emailAddress=bala@pixglo.com
        Validity
            Not Before: Feb 14 06:24:27 2018 GMT
            Not After : Feb 12 06:24:27 2028 GMT
        Subject: C=US, ST=CA, L=SanFrancisco, O=Pixglo, Inc., OU=VPN-CIE, CN=cie22/name=Bala Chandrasekaran/emailAddress=bala@pixglo.com
        Subject Public Key Info:
            Public Key Algorithm: rsaEncryption
                Public-Key: (4096 bit)
                Modulus:
                    00:df:47:fd:71:2e:5a:73:b9:1b:f1:4a:8a:70:ca:
                    e1:6a:aa:3f:c5:46:3f:e5:b0:f6:eb:8a:a4:15:54:
                    e9:e0:60:89:c1:17:36:57:80:f9:50:36:b9:b4:04:
                    c0:f1:04:d6:c0:db:33:20:fd:aa:41:7d:50:04:32:
                    31:3d:f2:66:2b:bc:e8:36:62:50:ef:75:12:6c:7a:
                    38:c0:74:da:59:b8:74:e6:16:c4:b9:00:43:9e:7b:
                    81:ff:3b:81:25:f4:9d:3e:d7:19:e5:d5:14:33:5f:
                    01:1c:92:ab:f6:1c:da:a4:76:f0:c8:76:36:2c:7b:
                    c2:06:05:f5:86:c4:d1:43:d5:5a:35:03:ce:0d:f5:
                    11:e1:4d:83:7b:5f:ff:df:03:00:57:b3:03:fa:bb:
                    8c:96:14:48:8a:e5:32:07:67:54:fa:37:c7:63:1c:
                    76:0f:d1:6c:06:6e:56:6d:cd:c7:4a:99:48:2d:1a:
                    7f:d0:22:a5:f7:94:7e:01:35:3f:b2:44:26:6b:1f:
                    b5:81:5d:a5:a0:bf:6c:bc:22:1d:3f:e6:50:ab:1f:
                    ca:7f:1d:07:84:b7:ee:f4:ac:64:fc:d2:bb:9a:b2:
                    c1:12:fa:e8:7d:10:eb:b7:ff:46:17:2d:18:a0:47:
                    e3:80:6e:80:cf:e0:6d:36:8d:fa:7c:df:c1:99:41:
                    31:de:c6:a5:41:69:0f:c7:66:a0:37:15:17:98:d1:
                    75:68:57:29:20:af:f6:22:14:bc:c5:0d:51:6f:ef:
                    46:2f:a3:72:31:09:f0:cf:b1:df:42:19:28:13:3a:
                    a4:f0:17:c4:3e:72:a1:b5:d9:3c:78:12:79:18:52:
                    d9:d5:29:e6:ba:02:54:66:10:12:bc:42:63:60:69:
                    72:cb:44:2a:db:e1:2d:6c:5c:8c:df:7f:ea:54:f5:
                    4d:d2:7e:c8:52:74:01:59:84:bf:1c:77:18:31:b2:
                    a8:f2:57:c0:17:8e:50:2f:5f:0d:75:1f:48:73:b6:
                    6c:a7:05:59:7f:ca:48:75:31:ca:52:d7:4e:f0:5e:
                    a6:0c:18:d9:a0:69:9c:61:e4:a8:b8:57:f0:a1:c2:
                    be:7e:20:3a:b4:9b:8b:10:3e:b6:a6:14:86:13:1d:
                    47:41:b5:2e:8d:65:84:71:0b:ec:71:bf:5c:b1:17:
                    37:4f:84:55:7a:81:d4:42:71:96:5c:e9:44:ff:d8:
                    9c:a8:32:54:eb:e7:e0:11:f5:9f:d1:0c:2f:37:e9:
                    48:86:e8:d1:1d:0e:3c:ac:82:47:65:08:26:5b:91:
                    d1:9a:10:c6:ec:2c:47:c3:4f:3a:71:72:48:52:2e:
                    54:78:1b:0f:35:5b:67:b7:5e:7a:16:0e:40:a3:a3:
                    0a:c1:6b
                Exponent: 65537 (0x10001)
        X509v3 extensions:
            X509v3 Basic Constraints: 
                CA:FALSE
            Netscape Comment: 
                Easy-RSA Generated Certificate
            X509v3 Subject Key Identifier: 
                5B:6F:9D:4E:3D:D2:07:C1:8A:DF:D7:49:66:CF:DB:CE:F5:17:55:07
            X509v3 Authority Key Identifier: 
                keyid:EF:38:8D:14:50:58:A7:5B:4D:9C:17:72:FC:DF:B9:AC:A7:51:B0:10
                DirName:/C=US/ST=CA/L=SanFrancisco/O=Pixglo, Inc./OU=VPN-CIE/CN=tunnel.pixglo.com/name=Bala Chandrasekaran/emailAddress=bala@pixglo.com
                serial:A6:DB:C6:83:80:E6:A0:79

            X509v3 Extended Key Usage: 
                TLS Web Client Authentication
            X509v3 Key Usage: 
                Digital Signature
    Signature Algorithm: sha1WithRSAEncryption
         86:41:57:e9:cd:93:21:45:94:ec:f8:03:8b:08:f5:dd:9c:0d:
         5c:c0:8b:85:b6:a0:25:a3:4f:b7:68:d9:e1:a1:40:51:3a:a6:
         5b:e0:b3:08:1a:14:2f:b4:c0:f1:8c:c8:ed:ba:5a:6c:07:8e:
         85:28:f8:28:f7:ca:3f:8b:e1:9a:4b:fc:13:7a:6b:d8:0a:1d:
         82:a7:9b:55:76:3d:31:4c:af:39:93:fe:56:18:98:ca:ee:ec:
         d1:18:69:28:56:86:77:3b:85:37:eb:ca:b0:db:d5:32:8c:87:
         0d:e3:a5:15:8d:6d:35:42:bc:29:a8:91:ea:9f:0a:53:61:60:
         41:b2:47:2a:b0:2c:f7:35:ad:e0:19:c3:f9:f7:7f:1a:7a:c6:
         3c:20:c8:ad:a2:a0:05:49:01:59:65:15:f3:94:29:1e:2c:ad:
         20:41:4d:eb:88:13:0f:dd:42:12:12:6d:6b:99:fc:27:8c:cd:
         de:46:2d:26:d3:75:35:56:3b:c2:52:29:1c:43:32:ba:9d:d3:
         d0:cd:61:46:61:57:47:f0:40:95:eb:be:30:80:5c:7f:c6:8d:
         04:8f:68:4b:f7:f5:d0:ac:d5:68:94:83:ed:07:29:68:85:a7:
         9e:89:57:7c:7c:8e:83:a3:7a:39:bd:a0:58:99:ea:54:7d:7a:
         a3:93:f0:22:16:d9:8a:a5:f7:3a:48:e0:dd:cf:f8:75:19:37:
         2d:ee:43:4b:c0:6a:96:5c:ac:c7:2c:af:8d:da:d6:54:11:a9:
         d0:c3:37:05:35:4a:eb:a8:7c:9e:f8:1e:c6:d5:a6:b8:ff:94:
         96:4a:e3:0e:f9:7a:fa:b0:92:76:1d:fe:c9:96:93:8f:72:b4:
         0f:bb:96:bf:a8:c6:8f:3c:c3:15:a6:e5:65:d4:b3:97:5f:36:
         ce:c3:6b:50:cb:3a:be:92:9f:59:0d:0d:95:d3:a3:bd:05:87:
         25:36:00:d0:12:dc:99:24:cf:a6:55:da:f6:16:32:86:b8:c1:
         ea:fb:af:92:09:0f:ff:6c:e3:9c:06:b6:f9:cf:51:c9:50:cb:
         fe:88:f9:0d:7f:f4:6a:cf:c4:be:a8:cf:08:61:18:8d:cd:7c:
         5f:bd:06:c5:2a:3e:59:dc:b2:1c:f6:78:6d:e2:67:42:d9:74:
         f5:57:37:bf:df:7c:ef:25:4e:20:ff:a1:a0:fe:b9:16:ae:61:
         61:8c:0c:1a:5e:78:a7:c5:5f:89:66:30:75:24:c3:88:a9:95:
         0f:96:3b:a8:f4:58:5b:7b:19:a5:a9:09:57:d6:26:b5:b4:94:
         4b:0f:2d:a6:e3:85:32:22:62:59:de:bf:a7:75:cd:78:67:c5:
         cf:dd:91:8f:e3:83:5b:4d
-----BEGIN CERTIFICATE-----
MIIHRjCCBS6gAwIBAgIBFzANBgkqhkiG9w0BAQUFADCBtDELMAkGA1UEBhMCVVMx
CzAJBgNVBAgTAkNBMRUwEwYDVQQHEwxTYW5GcmFuY2lzY28xFTATBgNVBAoTDFBp
eGdsbywgSW5jLjEQMA4GA1UECxMHVlBOLUNJRTEaMBgGA1UEAxMRdHVubmVsLnBp
eGdsby5jb20xHDAaBgNVBCkTE0JhbGEgQ2hhbmRyYXNla2FyYW4xHjAcBgkqhkiG
9w0BCQEWD2JhbGFAcGl4Z2xvLmNvbTAeFw0xODAyMTQwNjI0MjdaFw0yODAyMTIw
NjI0MjdaMIGoMQswCQYDVQQGEwJVUzELMAkGA1UECBMCQ0ExFTATBgNVBAcTDFNh
bkZyYW5jaXNjbzEVMBMGA1UEChMMUGl4Z2xvLCBJbmMuMRAwDgYDVQQLEwdWUE4t
Q0lFMQ4wDAYDVQQDEwVjaWUyMjEcMBoGA1UEKRMTQmFsYSBDaGFuZHJhc2VrYXJh
bjEeMBwGCSqGSIb3DQEJARYPYmFsYUBwaXhnbG8uY29tMIICIjANBgkqhkiG9w0B
AQEFAAOCAg8AMIICCgKCAgEA30f9cS5ac7kb8UqKcMrhaqo/xUY/5bD264qkFVTp
4GCJwRc2V4D5UDa5tATA8QTWwNszIP2qQX1QBDIxPfJmK7zoNmJQ73USbHo4wHTa
Wbh05hbEuQBDnnuB/zuBJfSdPtcZ5dUUM18BHJKr9hzapHbwyHY2LHvCBgX1hsTR
Q9VaNQPODfUR4U2De1//3wMAV7MD+ruMlhRIiuUyB2dU+jfHYxx2D9FsBm5Wbc3H
SplILRp/0CKl95R+ATU/skQmax+1gV2loL9svCIdP+ZQqx/Kfx0HhLfu9Kxk/NK7
mrLBEvrofRDrt/9GFy0YoEfjgG6Az+BtNo36fN/BmUEx3salQWkPx2agNxUXmNF1
aFcpIK/2IhS8xQ1Rb+9GL6NyMQnwz7HfQhkoEzqk8BfEPnKhtdk8eBJ5GFLZ1Snm
ugJUZhASvEJjYGlyy0Qq2+EtbFyM33/qVPVN0n7IUnQBWYS/HHcYMbKo8lfAF45Q
L18NdR9Ic7ZspwVZf8pIdTHKUtdO8F6mDBjZoGmcYeSouFfwocK+fiA6tJuLED62
phSGEx1HQbUujWWEcQvscb9csRc3T4RVeoHUQnGWXOlE/9icqDJU6+fgEfWf0Qwv
N+lIhujRHQ48rIJHZQgmW5HRmhDG7CxHw086cXJIUi5UeBsPNVtnt156Fg5Ao6MK
wWsCAwEAAaOCAWswggFnMAkGA1UdEwQCMAAwLQYJYIZIAYb4QgENBCAWHkVhc3kt
UlNBIEdlbmVyYXRlZCBDZXJ0aWZpY2F0ZTAdBgNVHQ4EFgQUW2+dTj3SB8GK39dJ
Zs/bzvUXVQcwgekGA1UdIwSB4TCB3oAU7ziNFFBYp1tNnBdy/N+5rKdRsBChgbqk
gbcwgbQxCzAJBgNVBAYTAlVTMQswCQYDVQQIEwJDQTEVMBMGA1UEBxMMU2FuRnJh
bmNpc2NvMRUwEwYDVQQKEwxQaXhnbG8sIEluYy4xEDAOBgNVBAsTB1ZQTi1DSUUx
GjAYBgNVBAMTEXR1bm5lbC5waXhnbG8uY29tMRwwGgYDVQQpExNCYWxhIENoYW5k
cmFzZWthcmFuMR4wHAYJKoZIhvcNAQkBFg9iYWxhQHBpeGdsby5jb22CCQCm28aD
gOageTATBgNVHSUEDDAKBggrBgEFBQcDAjALBgNVHQ8EBAMCB4AwDQYJKoZIhvcN
AQEFBQADggIBAIZBV+nNkyFFlOz4A4sI9d2cDVzAi4W2oCWjT7do2eGhQFE6plvg
swgaFC+0wPGMyO26WmwHjoUo+Cj3yj+L4ZpL/BN6a9gKHYKnm1V2PTFMrzmT/lYY
mMru7NEYaShWhnc7hTfryrDb1TKMhw3jpRWNbTVCvCmokeqfClNhYEGyRyqwLPc1
reAZw/n3fxp6xjwgyK2ioAVJAVllFfOUKR4srSBBTeuIEw/dQhISbWuZ/CeMzd5G
LSbTdTVWO8JSKRxDMrqd09DNYUZhV0fwQJXrvjCAXH/GjQSPaEv39dCs1WiUg+0H
KWiFp56JV3x8joOjejm9oFiZ6lR9eqOT8CIW2Yql9zpI4N3P+HUZNy3uQ0vAapZc
rMcsr43a1lQRqdDDNwU1SuuofJ74HsbVprj/lJZK4w75evqwknYd/smWk49ytA+7
lr+oxo88wxWm5WXUs5dfNs7Da1DLOr6Sn1kNDZXTo70FhyU2ANAS3Jkkz6ZV2vYW
Moa4wer7r5IJD/9s45wGtvnPUclQy/6I+Q1/9GrPxL6ozwhhGI3NfF+9BsUqPlnc
shz2eG3iZ0LZdPVXN7/ffO8lTiD/oaD+uRauYWGMDBpeeKfFX4lmMHUkw4iplQ+W
O6j0WFt7GaWpCVfWJrW0lEsPLabjhTIiYlnev6d1zXhnxc/dkY/jg1tN
-----END CERTIFICATE-----
