Certificate:
    Data:
        Version: 3 (0x2)
        Serial Number: 267 (0x10b)
    Signature Algorithm: sha1WithRSAEncryption
        Issuer: C=US, ST=CA, L=SanFrancisco, O=Pixglo, Inc., OU=VPN-CIE, CN=tunnel.pixglo.com/name=Bala Chandrasekaran/emailAddress=bala@pixglo.com
        Validity
            Not Before: Feb 14 06:29:30 2018 GMT
            Not After : Feb 12 06:29:30 2028 GMT
        Subject: C=US, ST=CA, L=SanFrancisco, O=Pixglo, Inc., OU=VPN-CIE, CN=cie266/name=Bala Chandrasekaran/emailAddress=bala@pixglo.com
        Subject Public Key Info:
            Public Key Algorithm: rsaEncryption
                Public-Key: (4096 bit)
                Modulus:
                    00:d4:ca:98:22:85:a0:68:19:80:d2:69:b7:22:f5:
                    50:66:c9:f8:f2:60:00:75:f6:31:f6:fe:6d:fb:01:
                    dc:1a:03:b2:90:05:63:9b:1e:75:13:4b:41:ae:e2:
                    a4:cc:d7:5b:d7:a3:c9:fd:40:80:3a:52:f8:a8:0d:
                    73:fa:09:a3:a8:43:a4:02:87:0c:c4:bc:b9:1e:4f:
                    c4:a0:ec:b8:7a:3c:5a:94:c3:0f:39:c3:80:99:e1:
                    1c:c3:d0:0f:ea:35:36:c8:ea:84:50:21:b3:2f:81:
                    a7:89:58:05:41:60:5f:02:fe:b5:cb:e1:0e:77:ed:
                    6e:9c:35:eb:dc:b3:b1:ad:2b:1b:af:fa:0f:40:c1:
                    06:4c:75:44:01:c3:23:31:f7:48:f7:a8:97:de:f2:
                    d7:4f:bb:76:36:66:9c:13:c6:9c:d0:3d:0e:2a:9b:
                    e6:c7:6d:2c:17:25:db:d6:44:51:08:e7:10:db:5c:
                    24:4a:f3:ae:07:26:9f:c4:8c:34:74:b7:6e:6c:4e:
                    e6:ce:47:2c:55:fd:7b:f2:89:2b:eb:dd:5a:20:4a:
                    28:6c:28:3d:38:cb:58:28:a5:a3:5c:8e:83:75:48:
                    05:7f:35:01:b1:fe:74:a5:21:d0:a3:86:62:f2:db:
                    86:89:f4:06:12:2a:7a:7d:94:b5:e6:e7:d5:88:85:
                    9d:35:0b:1a:1e:4e:a9:fd:76:1a:19:c4:2e:0c:f1:
                    2d:e3:c3:47:e7:a9:a1:4e:5b:29:3e:f7:92:72:14:
                    79:82:79:89:0f:35:85:5e:f4:f1:4a:03:6f:73:7e:
                    32:09:87:b1:ad:b3:df:81:43:16:5a:d1:7d:08:01:
                    6d:5f:c3:82:99:c9:b4:35:24:8d:92:a1:68:3b:d1:
                    23:82:80:92:ca:31:80:a8:cb:36:91:d1:9c:8c:4b:
                    43:6b:14:71:63:e8:5d:f4:ef:92:f5:90:f7:7d:6c:
                    40:99:bc:81:02:76:e6:b0:5c:5c:46:e8:c5:93:06:
                    c0:9a:77:59:52:48:65:49:4c:8a:dc:24:b7:c2:45:
                    8f:da:c9:ae:16:7c:3d:77:dd:92:ef:3c:1b:b8:6f:
                    24:37:36:50:84:f9:ef:33:70:8a:d5:c4:45:bb:98:
                    53:ea:b5:02:74:fd:13:a3:61:53:24:5d:d6:4b:c3:
                    40:5d:24:f8:c7:71:95:b6:5a:52:ab:62:37:14:c0:
                    77:e4:95:05:ed:0f:7c:6c:54:95:5a:ed:89:c6:52:
                    d0:bf:d1:0e:1b:ca:e3:0d:6d:6b:0b:34:96:0b:98:
                    0b:f6:0d:0e:1f:80:98:1c:21:1c:57:75:2e:b7:77:
                    09:af:a7:d4:71:59:7a:a5:20:be:12:df:60:96:14:
                    ec:00:71
                Exponent: 65537 (0x10001)
        X509v3 extensions:
            X509v3 Basic Constraints: 
                CA:FALSE
            Netscape Comment: 
                Easy-RSA Generated Certificate
            X509v3 Subject Key Identifier: 
                4F:48:99:2E:CD:0E:07:2D:C7:C3:CF:E3:C8:B3:74:FF:2C:02:7C:43
            X509v3 Authority Key Identifier: 
                keyid:EF:38:8D:14:50:58:A7:5B:4D:9C:17:72:FC:DF:B9:AC:A7:51:B0:10
                DirName:/C=US/ST=CA/L=SanFrancisco/O=Pixglo, Inc./OU=VPN-CIE/CN=tunnel.pixglo.com/name=Bala Chandrasekaran/emailAddress=bala@pixglo.com
                serial:A6:DB:C6:83:80:E6:A0:79

            X509v3 Extended Key Usage: 
                TLS Web Client Authentication
            X509v3 Key Usage: 
                Digital Signature
    Signature Algorithm: sha1WithRSAEncryption
         30:e5:32:23:a2:0b:b0:3d:fa:77:5f:a6:94:2e:03:c6:18:42:
         5e:63:5a:81:9c:c4:76:f6:1b:2c:76:04:46:59:82:c1:c3:cf:
         a2:ea:68:ea:c0:a0:ca:0d:a3:eb:62:13:18:62:42:52:a0:cd:
         f5:54:b8:f3:93:34:ee:95:5f:cd:7e:bc:ca:db:52:a9:c5:09:
         60:b1:c8:af:4b:1f:b1:9f:79:15:5d:f8:a2:f7:5d:1f:ee:7c:
         ad:15:df:b9:45:c0:d1:61:d6:1b:65:f2:e4:7a:98:24:e6:4c:
         a6:55:e4:9e:f2:82:9d:91:77:de:67:d7:99:ef:cb:7a:fb:4b:
         62:60:e1:c1:0c:a4:20:2f:77:f9:fd:34:10:ea:cb:b1:c6:ea:
         7f:8f:49:4d:cd:a7:9e:d4:97:52:ec:fa:31:69:5e:9d:e0:b6:
         b4:fd:10:1c:07:64:32:e3:df:a5:85:c0:23:48:73:fc:2d:83:
         7a:df:7c:6d:1e:b2:87:40:66:ae:04:92:22:c7:84:88:7f:ab:
         f5:57:ba:0d:84:74:ad:a5:30:79:08:c8:69:bc:bc:13:e9:83:
         11:83:09:ff:03:a0:5e:f5:d0:4a:0f:5d:b1:f0:3a:a9:ef:b6:
         a5:33:20:2f:9a:1d:07:85:c9:e0:2f:7c:ba:aa:d3:cf:b6:9c:
         a3:6f:00:db:e1:1d:4f:0a:fa:97:89:e6:7a:33:ce:88:3f:d7:
         f0:0d:f8:73:ac:a7:41:be:d0:95:22:c2:e6:93:88:1b:79:7a:
         00:d6:a6:e5:1c:48:01:9b:ba:d0:56:1b:04:86:10:74:69:c6:
         18:8f:c8:12:77:e3:d5:3d:06:e8:94:64:c5:33:ae:38:0c:20:
         8c:d2:b1:0d:60:cc:39:ee:ce:1f:1f:aa:82:d2:38:dc:a2:55:
         b0:4f:cd:c6:76:aa:90:07:d2:d1:e4:0a:59:f6:85:9e:f3:1d:
         a6:36:57:9b:e6:14:6e:f6:0b:90:80:31:f2:be:2f:14:62:79:
         84:b5:47:89:90:a8:1d:6d:a6:17:65:55:72:f4:60:50:c7:f7:
         85:ab:2d:2e:36:d1:8a:8e:87:1a:6a:76:93:f7:a8:6f:b4:25:
         04:04:d1:8e:45:36:6d:06:ee:4a:45:de:25:db:32:0a:bf:89:
         0b:f2:5b:44:e9:b5:19:52:ce:4c:4a:86:5e:e2:bd:fe:f3:30:
         85:56:a5:45:fa:ec:4f:99:b5:d0:66:8e:03:0f:60:2c:63:23:
         7c:65:29:40:ef:95:19:8c:64:74:cf:62:ce:3f:ce:1f:63:c8:
         7a:87:31:dd:35:f2:77:db:6d:89:78:92:6e:ca:7f:ce:f2:ce:
         b1:c8:42:f7:f2:00:75:b9
-----BEGIN CERTIFICATE-----
MIIHSDCCBTCgAwIBAgICAQswDQYJKoZIhvcNAQEFBQAwgbQxCzAJBgNVBAYTAlVT
MQswCQYDVQQIEwJDQTEVMBMGA1UEBxMMU2FuRnJhbmNpc2NvMRUwEwYDVQQKEwxQ
aXhnbG8sIEluYy4xEDAOBgNVBAsTB1ZQTi1DSUUxGjAYBgNVBAMTEXR1bm5lbC5w
aXhnbG8uY29tMRwwGgYDVQQpExNCYWxhIENoYW5kcmFzZWthcmFuMR4wHAYJKoZI
hvcNAQkBFg9iYWxhQHBpeGdsby5jb20wHhcNMTgwMjE0MDYyOTMwWhcNMjgwMjEy
MDYyOTMwWjCBqTELMAkGA1UEBhMCVVMxCzAJBgNVBAgTAkNBMRUwEwYDVQQHEwxT
YW5GcmFuY2lzY28xFTATBgNVBAoTDFBpeGdsbywgSW5jLjEQMA4GA1UECxMHVlBO
LUNJRTEPMA0GA1UEAxMGY2llMjY2MRwwGgYDVQQpExNCYWxhIENoYW5kcmFzZWth
cmFuMR4wHAYJKoZIhvcNAQkBFg9iYWxhQHBpeGdsby5jb20wggIiMA0GCSqGSIb3
DQEBAQUAA4ICDwAwggIKAoICAQDUypgihaBoGYDSabci9VBmyfjyYAB19jH2/m37
AdwaA7KQBWObHnUTS0Gu4qTM11vXo8n9QIA6UvioDXP6CaOoQ6QChwzEvLkeT8Sg
7Lh6PFqUww85w4CZ4RzD0A/qNTbI6oRQIbMvgaeJWAVBYF8C/rXL4Q537W6cNevc
s7GtKxuv+g9AwQZMdUQBwyMx90j3qJfe8tdPu3Y2ZpwTxpzQPQ4qm+bHbSwXJdvW
RFEI5xDbXCRK864HJp/EjDR0t25sTubORyxV/XvyiSvr3VogSihsKD04y1gopaNc
joN1SAV/NQGx/nSlIdCjhmLy24aJ9AYSKnp9lLXm59WIhZ01CxoeTqn9dhoZxC4M
8S3jw0fnqaFOWyk+95JyFHmCeYkPNYVe9PFKA29zfjIJh7Gts9+BQxZa0X0IAW1f
w4KZybQ1JI2SoWg70SOCgJLKMYCoyzaR0ZyMS0NrFHFj6F3075L1kPd9bECZvIEC
duawXFxG6MWTBsCad1lSSGVJTIrcJLfCRY/aya4WfD133ZLvPBu4byQ3NlCE+e8z
cIrVxEW7mFPqtQJ0/ROjYVMkXdZLw0BdJPjHcZW2WlKrYjcUwHfklQXtD3xsVJVa
7YnGUtC/0Q4byuMNbWsLNJYLmAv2DQ4fgJgcIRxXdS63dwmvp9RxWXqlIL4S32CW
FOwAcQIDAQABo4IBazCCAWcwCQYDVR0TBAIwADAtBglghkgBhvhCAQ0EIBYeRWFz
eS1SU0EgR2VuZXJhdGVkIENlcnRpZmljYXRlMB0GA1UdDgQWBBRPSJkuzQ4HLcfD
z+PIs3T/LAJ8QzCB6QYDVR0jBIHhMIHegBTvOI0UUFinW02cF3L837msp1GwEKGB
uqSBtzCBtDELMAkGA1UEBhMCVVMxCzAJBgNVBAgTAkNBMRUwEwYDVQQHEwxTYW5G
cmFuY2lzY28xFTATBgNVBAoTDFBpeGdsbywgSW5jLjEQMA4GA1UECxMHVlBOLUNJ
RTEaMBgGA1UEAxMRdHVubmVsLnBpeGdsby5jb20xHDAaBgNVBCkTE0JhbGEgQ2hh
bmRyYXNla2FyYW4xHjAcBgkqhkiG9w0BCQEWD2JhbGFAcGl4Z2xvLmNvbYIJAKbb
xoOA5qB5MBMGA1UdJQQMMAoGCCsGAQUFBwMCMAsGA1UdDwQEAwIHgDANBgkqhkiG
9w0BAQUFAAOCAgEAMOUyI6ILsD36d1+mlC4DxhhCXmNagZzEdvYbLHYERlmCwcPP
oupo6sCgyg2j62ITGGJCUqDN9VS485M07pVfzX68yttSqcUJYLHIr0sfsZ95FV34
ovddH+58rRXfuUXA0WHWG2Xy5HqYJOZMplXknvKCnZF33mfXme/LevtLYmDhwQyk
IC93+f00EOrLscbqf49JTc2nntSXUuz6MWleneC2tP0QHAdkMuPfpYXAI0hz/C2D
et98bR6yh0BmrgSSIseEiH+r9Ve6DYR0raUweQjIaby8E+mDEYMJ/wOgXvXQSg9d
sfA6qe+2pTMgL5odB4XJ4C98uqrTz7aco28A2+EdTwr6l4nmejPOiD/X8A34c6yn
Qb7QlSLC5pOIG3l6ANam5RxIAZu60FYbBIYQdGnGGI/IEnfj1T0G6JRkxTOuOAwg
jNKxDWDMOe7OHx+qgtI43KJVsE/NxnaqkAfS0eQKWfaFnvMdpjZXm+YUbvYLkIAx
8r4vFGJ5hLVHiZCoHW2mF2VVcvRgUMf3hastLjbRio6HGmp2k/eob7QlBATRjkU2
bQbuSkXeJdsyCr+JC/JbROm1GVLOTEqGXuK9/vMwhValRfrsT5m10GaOAw9gLGMj
fGUpQO+VGYxkdM9izj/OH2PIeocx3TXyd9ttiXiSbsp/zvLOschC9/IAdbk=
-----END CERTIFICATE-----
