Certificate:
    Data:
        Version: 3 (0x2)
        Serial Number: 274 (0x112)
    Signature Algorithm: sha1WithRSAEncryption
        Issuer: C=US, ST=CA, L=SanFrancisco, O=Pixglo, Inc., OU=VPN-CIE, CN=tunnel.pixglo.com/name=Bala Chandrasekaran/emailAddress=bala@pixglo.com
        Validity
            Not Before: Feb 14 06:29:40 2018 GMT
            Not After : Feb 12 06:29:40 2028 GMT
        Subject: C=US, ST=CA, L=SanFrancisco, O=Pixglo, Inc., OU=VPN-CIE, CN=cie273/name=Bala Chandrasekaran/emailAddress=bala@pixglo.com
        Subject Public Key Info:
            Public Key Algorithm: rsaEncryption
                Public-Key: (4096 bit)
                Modulus:
                    00:cc:5a:87:0d:c1:b6:86:5b:1c:22:92:dd:86:9e:
                    f7:7e:be:48:7b:e2:5a:b1:10:ef:a9:8f:70:a2:93:
                    52:70:58:1b:24:57:31:c4:ec:26:c9:4f:fa:3a:b6:
                    f6:3a:f8:c1:e3:55:94:18:b6:17:8a:e8:f3:d1:b9:
                    a1:19:ef:dd:7b:99:f3:23:42:18:a3:c5:66:8b:02:
                    6f:c3:ca:44:0d:14:93:68:9b:b6:c8:ce:02:5c:98:
                    17:f3:da:ed:6c:ef:62:8c:18:d0:4b:fd:9c:02:35:
                    b1:e8:14:81:7e:0a:9c:20:9d:2f:c8:5a:41:50:f1:
                    b5:87:ce:5e:38:bc:e1:18:69:b8:d1:79:3e:01:7a:
                    10:c0:07:1b:48:2a:90:70:c5:ec:17:f7:9a:9f:bc:
                    5d:ee:27:1b:4b:e2:ad:8e:b6:59:d9:ce:29:d9:a3:
                    c0:9b:66:e7:72:c0:7a:38:15:a8:cf:99:6d:0a:23:
                    0b:87:f1:b1:d7:37:ca:6a:36:16:2d:33:67:eb:96:
                    bd:2c:2f:b8:a0:3a:da:a2:7a:b7:af:0f:42:7c:ff:
                    55:14:2d:c1:21:4e:e9:9a:53:87:c7:88:60:ef:19:
                    6a:77:94:04:2d:f8:7f:87:78:96:22:a6:64:47:07:
                    a0:ea:48:74:aa:e7:e4:9d:f2:48:5d:c4:aa:cd:20:
                    02:16:f0:22:7f:6c:b9:1d:9c:0f:63:02:f0:52:3d:
                    97:cd:42:cd:93:67:e1:ca:8b:2e:f6:6d:f8:56:6e:
                    3c:d8:d3:23:fe:f5:93:e6:40:13:16:41:8a:1a:34:
                    7d:4c:7b:b1:37:f7:e0:0e:21:b3:f3:e2:8b:bb:31:
                    6c:a5:b8:f8:08:25:e6:77:61:15:3c:c6:1c:ff:e9:
                    da:6b:69:de:ae:34:d0:70:10:bf:f2:33:13:15:91:
                    91:8f:eb:02:11:e3:b4:a3:e1:55:4c:b8:f2:70:31:
                    b8:f3:7d:8d:4e:58:87:4c:06:2a:55:4c:61:fb:80:
                    bb:4a:0f:6b:68:32:d5:3c:7e:0c:fa:94:7e:ae:80:
                    22:12:5f:13:2c:1d:66:e7:89:3e:07:30:86:52:53:
                    2f:22:92:72:19:51:79:f8:6b:82:6b:0c:c7:c1:22:
                    25:0d:5d:d4:bb:fe:80:e1:b6:0f:c0:60:17:f6:0f:
                    bf:34:19:4a:cc:1d:cd:e0:c7:f4:c4:6f:a9:90:48:
                    42:80:c4:9a:ea:00:27:11:0d:1b:2d:17:49:0f:ac:
                    82:ad:f5:a8:65:2f:8b:1f:8f:31:42:37:8c:e0:25:
                    7a:ce:dd:f3:03:51:c3:5c:e3:a6:df:50:8a:cf:15:
                    fd:a1:8f:43:85:c5:fc:79:36:4c:bd:bf:7a:8a:19:
                    06:6b:db
                Exponent: 65537 (0x10001)
        X509v3 extensions:
            X509v3 Basic Constraints: 
                CA:FALSE
            Netscape Comment: 
                Easy-RSA Generated Certificate
            X509v3 Subject Key Identifier: 
                23:E3:BF:C9:AE:AF:F7:19:5C:99:90:68:8A:C4:63:7D:AB:82:BF:4D
            X509v3 Authority Key Identifier: 
                keyid:EF:38:8D:14:50:58:A7:5B:4D:9C:17:72:FC:DF:B9:AC:A7:51:B0:10
                DirName:/C=US/ST=CA/L=SanFrancisco/O=Pixglo, Inc./OU=VPN-CIE/CN=tunnel.pixglo.com/name=Bala Chandrasekaran/emailAddress=bala@pixglo.com
                serial:A6:DB:C6:83:80:E6:A0:79

            X509v3 Extended Key Usage: 
                TLS Web Client Authentication
            X509v3 Key Usage: 
                Digital Signature
    Signature Algorithm: sha1WithRSAEncryption
         a0:bd:94:da:64:68:51:ad:8c:4a:00:6b:7c:92:4d:c9:39:b2:
         c3:4a:11:ef:a6:e3:7d:13:7b:88:de:54:d5:ca:21:8d:f0:16:
         b7:ec:6a:8f:84:a1:bb:a2:9d:1e:6d:e1:53:27:1b:85:67:6f:
         21:8d:8b:eb:3d:18:5e:d7:de:b6:da:1e:9c:cd:bc:ad:59:e8:
         2c:9a:2e:f3:58:9f:07:03:91:22:b2:40:cd:4c:4f:db:07:a6:
         c9:06:85:d7:20:bf:f5:93:6a:70:c4:83:2f:5d:fc:d1:e5:c1:
         0c:e1:70:bb:e5:5b:20:87:83:2d:ac:0a:60:9f:53:99:28:c5:
         03:c6:94:49:3e:c6:36:4d:f8:3e:26:47:8a:a2:b9:5d:64:2d:
         54:9d:c3:30:3c:1a:85:c3:72:8d:9d:0c:6a:7c:2b:32:14:f9:
         dd:43:2c:db:b4:be:11:c1:02:a3:24:5f:21:80:65:8f:b7:75:
         6f:bb:f3:a6:49:67:2f:a7:1b:f2:3d:c9:fd:6f:e1:c9:31:2b:
         0a:b8:99:ca:29:22:58:ca:82:5b:40:3c:dc:a8:f8:ad:29:c1:
         b0:76:eb:17:17:e6:38:7c:bd:58:35:66:5c:70:2c:ef:9e:ef:
         f5:31:5e:e4:93:76:8e:92:bf:cd:62:db:f2:68:05:33:d8:ec:
         96:ae:2c:6f:69:73:50:0f:44:0b:c3:f4:4d:6c:48:6a:25:c5:
         20:05:ad:29:8c:e6:f8:85:98:52:e4:d0:35:d6:2c:a6:ae:cf:
         03:2b:56:dc:97:c6:b4:b3:6d:2c:d1:61:eb:26:7a:70:d6:e6:
         4f:fe:98:c5:49:27:20:ab:0b:d1:90:02:67:b6:0e:ba:83:26:
         9e:d7:a5:22:6d:6b:21:c7:94:52:88:8d:8f:df:b1:b9:3f:7e:
         56:e8:46:f2:13:14:f8:92:5d:50:5e:02:67:be:81:e6:03:a9:
         8e:85:7a:1a:e5:01:1c:79:0c:20:17:6a:92:68:ac:5a:ed:39:
         6e:c3:99:36:e7:e3:5e:dd:c0:19:87:9b:43:55:32:9b:03:f4:
         9c:7a:2d:85:d5:83:75:cc:02:85:52:56:14:9b:14:8c:77:5a:
         31:40:50:34:1d:d9:22:f9:2c:2c:3c:7c:9a:7d:25:b5:2f:88:
         ac:dc:c3:2a:9a:1f:c8:e0:9e:37:62:18:0b:2f:6f:80:70:2d:
         94:4e:69:9d:ae:2e:38:05:8c:d6:ee:ff:5e:be:4e:84:db:d9:
         04:c0:62:2d:ef:30:da:3c:25:73:68:2f:1c:e6:62:64:67:1c:
         3d:98:3e:b4:2c:3f:0f:97:13:eb:88:ff:4f:3c:90:eb:5a:fe:
         b3:20:e0:99:75:b4:4d:d1
-----BEGIN CERTIFICATE-----
MIIHSDCCBTCgAwIBAgICARIwDQYJKoZIhvcNAQEFBQAwgbQxCzAJBgNVBAYTAlVT
MQswCQYDVQQIEwJDQTEVMBMGA1UEBxMMU2FuRnJhbmNpc2NvMRUwEwYDVQQKEwxQ
aXhnbG8sIEluYy4xEDAOBgNVBAsTB1ZQTi1DSUUxGjAYBgNVBAMTEXR1bm5lbC5w
aXhnbG8uY29tMRwwGgYDVQQpExNCYWxhIENoYW5kcmFzZWthcmFuMR4wHAYJKoZI
hvcNAQkBFg9iYWxhQHBpeGdsby5jb20wHhcNMTgwMjE0MDYyOTQwWhcNMjgwMjEy
MDYyOTQwWjCBqTELMAkGA1UEBhMCVVMxCzAJBgNVBAgTAkNBMRUwEwYDVQQHEwxT
YW5GcmFuY2lzY28xFTATBgNVBAoTDFBpeGdsbywgSW5jLjEQMA4GA1UECxMHVlBO
LUNJRTEPMA0GA1UEAxMGY2llMjczMRwwGgYDVQQpExNCYWxhIENoYW5kcmFzZWth
cmFuMR4wHAYJKoZIhvcNAQkBFg9iYWxhQHBpeGdsby5jb20wggIiMA0GCSqGSIb3
DQEBAQUAA4ICDwAwggIKAoICAQDMWocNwbaGWxwikt2Gnvd+vkh74lqxEO+pj3Ci
k1JwWBskVzHE7CbJT/o6tvY6+MHjVZQYtheK6PPRuaEZ7917mfMjQhijxWaLAm/D
ykQNFJNom7bIzgJcmBfz2u1s72KMGNBL/ZwCNbHoFIF+CpwgnS/IWkFQ8bWHzl44
vOEYabjReT4BehDABxtIKpBwxewX95qfvF3uJxtL4q2OtlnZzinZo8CbZudywHo4
FajPmW0KIwuH8bHXN8pqNhYtM2frlr0sL7igOtqierevD0J8/1UULcEhTumaU4fH
iGDvGWp3lAQt+H+HeJYipmRHB6DqSHSq5+Sd8khdxKrNIAIW8CJ/bLkdnA9jAvBS
PZfNQs2TZ+HKiy72bfhWbjzY0yP+9ZPmQBMWQYoaNH1Me7E39+AOIbPz4ou7MWyl
uPgIJeZ3YRU8xhz/6dprad6uNNBwEL/yMxMVkZGP6wIR47Sj4VVMuPJwMbjzfY1O
WIdMBipVTGH7gLtKD2toMtU8fgz6lH6ugCISXxMsHWbniT4HMIZSUy8iknIZUXn4
a4JrDMfBIiUNXdS7/oDhtg/AYBf2D780GUrMHc3gx/TEb6mQSEKAxJrqACcRDRst
F0kPrIKt9ahlL4sfjzFCN4zgJXrO3fMDUcNc46bfUIrPFf2hj0OFxfx5Nky9v3qK
GQZr2wIDAQABo4IBazCCAWcwCQYDVR0TBAIwADAtBglghkgBhvhCAQ0EIBYeRWFz
eS1SU0EgR2VuZXJhdGVkIENlcnRpZmljYXRlMB0GA1UdDgQWBBQj47/Jrq/3GVyZ
kGiKxGN9q4K/TTCB6QYDVR0jBIHhMIHegBTvOI0UUFinW02cF3L837msp1GwEKGB
uqSBtzCBtDELMAkGA1UEBhMCVVMxCzAJBgNVBAgTAkNBMRUwEwYDVQQHEwxTYW5G
cmFuY2lzY28xFTATBgNVBAoTDFBpeGdsbywgSW5jLjEQMA4GA1UECxMHVlBOLUNJ
RTEaMBgGA1UEAxMRdHVubmVsLnBpeGdsby5jb20xHDAaBgNVBCkTE0JhbGEgQ2hh
bmRyYXNla2FyYW4xHjAcBgkqhkiG9w0BCQEWD2JhbGFAcGl4Z2xvLmNvbYIJAKbb
xoOA5qB5MBMGA1UdJQQMMAoGCCsGAQUFBwMCMAsGA1UdDwQEAwIHgDANBgkqhkiG
9w0BAQUFAAOCAgEAoL2U2mRoUa2MSgBrfJJNyTmyw0oR76bjfRN7iN5U1cohjfAW
t+xqj4Shu6KdHm3hUycbhWdvIY2L6z0YXtfettoenM28rVnoLJou81ifBwORIrJA
zUxP2wemyQaF1yC/9ZNqcMSDL1380eXBDOFwu+VbIIeDLawKYJ9TmSjFA8aUST7G
Nk34PiZHiqK5XWQtVJ3DMDwahcNyjZ0ManwrMhT53UMs27S+EcECoyRfIYBlj7d1
b7vzpklnL6cb8j3J/W/hyTErCriZyikiWMqCW0A83Kj4rSnBsHbrFxfmOHy9WDVm
XHAs757v9TFe5JN2jpK/zWLb8mgFM9jslq4sb2lzUA9EC8P0TWxIaiXFIAWtKYzm
+IWYUuTQNdYspq7PAytW3JfGtLNtLNFh6yZ6cNbmT/6YxUknIKsL0ZACZ7YOuoMm
ntelIm1rIceUUoiNj9+xuT9+VuhG8hMU+JJdUF4CZ76B5gOpjoV6GuUBHHkMIBdq
kmisWu05bsOZNufjXt3AGYebQ1UymwP0nHothdWDdcwChVJWFJsUjHdaMUBQNB3Z
IvksLDx8mn0ltS+IrNzDKpofyOCeN2IYCy9vgHAtlE5pna4uOAWM1u7/Xr5OhNvZ
BMBiLe8w2jwlc2gvHOZiZGccPZg+tCw/D5cT64j/TzyQ61r+syDgmXW0TdE=
-----END CERTIFICATE-----
