Certificate:
    Data:
        Version: 3 (0x2)
        Serial Number: 208 (0xd0)
    Signature Algorithm: sha1WithRSAEncryption
        Issuer: C=US, ST=CA, L=SanFrancisco, O=Pixglo, Inc., OU=VPN-CIE, CN=tunnel.pixglo.com/name=Bala Chandrasekaran/emailAddress=bala@pixglo.com
        Validity
            Not Before: Feb 14 06:27:03 2018 GMT
            Not After : Feb 12 06:27:03 2028 GMT
        Subject: C=US, ST=CA, L=SanFrancisco, O=Pixglo, Inc., OU=VPN-CIE, CN=cie207/name=Bala Chandrasekaran/emailAddress=bala@pixglo.com
        Subject Public Key Info:
            Public Key Algorithm: rsaEncryption
                Public-Key: (4096 bit)
                Modulus:
                    00:c4:55:59:72:dc:ce:19:0e:58:f7:42:44:fd:b1:
                    e3:d9:a5:22:d8:e3:a3:94:a8:78:01:ce:67:ec:65:
                    a4:50:79:04:cf:5c:53:7f:18:39:3c:4e:7d:57:1f:
                    87:a7:72:ec:49:ba:73:21:ff:d9:05:a2:10:ad:0b:
                    a0:ca:72:19:7a:6f:98:ba:66:88:b3:19:db:21:0c:
                    3b:2a:d7:35:5b:37:a7:90:b2:fc:fb:cb:ae:f4:e6:
                    59:4b:72:a0:00:31:ec:c3:4e:06:a1:b7:c7:ab:f5:
                    6a:81:fc:fb:ba:82:06:bb:03:cd:a1:fc:d3:0b:d6:
                    f2:79:fb:9c:e0:2b:2c:97:47:b4:f9:cd:9d:79:2c:
                    bc:f9:5d:e4:ed:84:a0:77:67:99:48:74:89:3e:1b:
                    94:1b:83:34:c5:6b:02:76:bd:e9:f1:70:dc:c2:28:
                    d2:52:77:b1:81:d5:0a:08:8f:bf:38:63:97:a4:71:
                    b2:1d:cd:0b:bc:39:81:ca:37:79:5c:c4:ba:c2:49:
                    6b:6f:34:52:9a:68:0b:53:bb:76:14:64:05:27:a0:
                    2a:40:d7:f3:de:ae:b3:d2:2e:6e:09:4b:c1:c5:3a:
                    35:f9:47:6e:8a:35:fc:1f:4c:0c:51:85:7b:f8:6c:
                    dc:98:97:6f:b0:5a:60:f1:ba:44:b6:61:f2:ea:62:
                    92:9b:c8:63:94:67:e3:91:c7:85:43:b3:73:91:29:
                    d3:ac:ea:a3:90:42:a0:67:2f:e1:53:7d:54:99:65:
                    f2:b7:13:3f:6b:a6:a5:46:92:98:6e:ab:48:da:1e:
                    bc:29:68:1f:f0:2c:3a:13:55:07:17:0a:1a:17:97:
                    65:8d:61:b5:ca:d6:9f:e0:12:8e:57:c3:f5:8b:52:
                    d9:8b:17:0a:e4:cf:c9:68:39:74:53:bd:fe:07:ea:
                    9c:cf:0b:e6:d1:14:41:a7:97:8f:92:47:c2:aa:0c:
                    1f:17:cf:20:5d:c9:ef:5b:ab:83:2b:27:95:b1:27:
                    46:87:1a:eb:39:0f:8b:2e:4f:7b:ed:51:8a:f3:f2:
                    d0:ae:17:01:c4:83:ae:ea:46:34:47:87:10:a3:de:
                    d3:35:0e:cf:91:0f:33:c5:cd:d7:41:1a:71:c2:c3:
                    3b:78:e0:43:2e:31:fa:4f:d3:01:17:36:d2:97:4c:
                    c1:01:66:17:10:07:ca:f4:5f:b8:c3:24:43:34:3a:
                    24:e7:c9:92:c6:3a:5d:a0:85:44:64:8a:ca:00:6c:
                    eb:e5:89:84:4f:f5:f9:44:7e:34:ca:62:85:cf:2f:
                    eb:d4:f7:11:62:b8:f7:6f:ae:64:b6:e6:c9:8c:ac:
                    89:b9:b3:fc:4b:62:21:a7:b7:34:f9:3e:b8:92:13:
                    8d:dd:1d
                Exponent: 65537 (0x10001)
        X509v3 extensions:
            X509v3 Basic Constraints: 
                CA:FALSE
            Netscape Comment: 
                Easy-RSA Generated Certificate
            X509v3 Subject Key Identifier: 
                0F:90:64:7C:ED:08:C2:CA:06:1C:77:6D:53:A7:DA:9A:D8:31:86:A7
            X509v3 Authority Key Identifier: 
                keyid:EF:38:8D:14:50:58:A7:5B:4D:9C:17:72:FC:DF:B9:AC:A7:51:B0:10
                DirName:/C=US/ST=CA/L=SanFrancisco/O=Pixglo, Inc./OU=VPN-CIE/CN=tunnel.pixglo.com/name=Bala Chandrasekaran/emailAddress=bala@pixglo.com
                serial:A6:DB:C6:83:80:E6:A0:79

            X509v3 Extended Key Usage: 
                TLS Web Client Authentication
            X509v3 Key Usage: 
                Digital Signature
    Signature Algorithm: sha1WithRSAEncryption
         76:d6:47:f2:6d:ed:f8:fe:ec:a2:4a:f6:44:70:c5:4e:a4:7a:
         43:52:7e:60:dd:9a:c6:a1:8e:ed:3f:7b:c2:ae:81:20:c9:7e:
         1a:cc:0a:11:30:08:73:28:4a:d6:7a:29:75:e4:54:96:c9:a5:
         7c:d1:43:db:ed:ca:4f:98:47:4b:bc:1f:a6:8a:45:aa:3b:20:
         ef:9c:8a:9c:de:a9:88:f2:69:fb:46:67:e9:48:96:aa:42:18:
         f0:77:18:4c:ad:79:d0:b6:8c:19:cb:76:b1:4a:8e:43:7e:c6:
         d5:2e:2e:52:3d:7e:7a:38:60:f9:db:d8:f9:de:25:45:b5:dd:
         9f:5c:04:73:c8:9c:70:2e:60:b1:0e:8f:0f:fe:03:a8:46:0a:
         74:56:1e:5c:f2:5c:9a:2f:67:d6:a8:8c:4c:92:3d:4c:95:e1:
         e9:ce:3a:3b:d4:cf:a5:70:86:fd:75:b4:5f:2a:4d:24:98:6d:
         a1:8f:77:88:bb:98:84:66:75:07:02:76:9a:92:55:0b:b8:58:
         e2:53:2c:09:77:d1:36:e1:1b:1d:9b:35:08:ac:27:d9:19:6c:
         73:7a:92:7b:b8:24:45:ea:69:53:e9:13:47:28:78:91:4f:54:
         f9:ba:61:ea:f9:fd:3b:96:bc:ec:08:f6:2f:2c:24:dd:50:e7:
         94:8f:96:fc:49:f5:1d:d3:70:b2:c6:c4:b9:ad:5f:8b:75:17:
         de:10:ae:5a:3b:43:9a:a6:63:ac:46:c7:aa:b2:94:28:40:b8:
         d8:89:c5:0f:47:60:b9:0d:f0:62:0a:aa:bc:5c:9d:51:ea:ba:
         8d:04:52:9b:5d:36:c2:7d:5c:fe:63:73:e6:9a:3e:18:2e:63:
         f5:a7:ae:18:33:8c:b5:2c:b4:2c:2d:3f:11:f4:a9:bd:91:40:
         ad:4c:41:56:75:4e:22:2b:1f:93:51:25:3f:d8:16:67:b7:37:
         a0:19:76:e5:f0:92:4a:28:e9:6b:4e:9f:94:31:4e:a0:2a:ec:
         93:d7:99:24:81:5f:bf:24:3a:25:42:ab:01:dd:ad:00:9a:55:
         c9:a0:43:ac:bb:64:65:b1:a4:a8:ce:fc:13:e1:79:70:82:b0:
         b3:ae:5a:af:b9:c0:4a:b0:42:fa:0c:22:4a:91:e8:5c:35:59:
         3f:b0:7a:25:36:3a:76:69:4e:54:06:f5:de:a2:19:cb:d7:66:
         25:0d:26:3b:e9:45:16:6c:4a:5f:bb:f7:ae:2f:33:92:ca:75:
         d6:78:3a:e7:8a:fb:a5:37:9f:70:d3:ce:3f:b9:5d:80:de:9b:
         e8:8a:a0:f7:53:7c:21:0a:eb:20:67:08:36:32:bb:14:ac:8d:
         8f:af:61:eb:02:98:c1:81
-----BEGIN CERTIFICATE-----
MIIHSDCCBTCgAwIBAgICANAwDQYJKoZIhvcNAQEFBQAwgbQxCzAJBgNVBAYTAlVT
MQswCQYDVQQIEwJDQTEVMBMGA1UEBxMMU2FuRnJhbmNpc2NvMRUwEwYDVQQKEwxQ
aXhnbG8sIEluYy4xEDAOBgNVBAsTB1ZQTi1DSUUxGjAYBgNVBAMTEXR1bm5lbC5w
aXhnbG8uY29tMRwwGgYDVQQpExNCYWxhIENoYW5kcmFzZWthcmFuMR4wHAYJKoZI
hvcNAQkBFg9iYWxhQHBpeGdsby5jb20wHhcNMTgwMjE0MDYyNzAzWhcNMjgwMjEy
MDYyNzAzWjCBqTELMAkGA1UEBhMCVVMxCzAJBgNVBAgTAkNBMRUwEwYDVQQHEwxT
YW5GcmFuY2lzY28xFTATBgNVBAoTDFBpeGdsbywgSW5jLjEQMA4GA1UECxMHVlBO
LUNJRTEPMA0GA1UEAxMGY2llMjA3MRwwGgYDVQQpExNCYWxhIENoYW5kcmFzZWth
cmFuMR4wHAYJKoZIhvcNAQkBFg9iYWxhQHBpeGdsby5jb20wggIiMA0GCSqGSIb3
DQEBAQUAA4ICDwAwggIKAoICAQDEVVly3M4ZDlj3QkT9sePZpSLY46OUqHgBzmfs
ZaRQeQTPXFN/GDk8Tn1XH4encuxJunMh/9kFohCtC6DKchl6b5i6ZoizGdshDDsq
1zVbN6eQsvz7y6705llLcqAAMezDTgaht8er9WqB/Pu6gga7A82h/NML1vJ5+5zg
KyyXR7T5zZ15LLz5XeTthKB3Z5lIdIk+G5QbgzTFawJ2venxcNzCKNJSd7GB1QoI
j784Y5ekcbIdzQu8OYHKN3lcxLrCSWtvNFKaaAtTu3YUZAUnoCpA1/PerrPSLm4J
S8HFOjX5R26KNfwfTAxRhXv4bNyYl2+wWmDxukS2YfLqYpKbyGOUZ+ORx4VDs3OR
KdOs6qOQQqBnL+FTfVSZZfK3Ez9rpqVGkphuq0jaHrwpaB/wLDoTVQcXChoXl2WN
YbXK1p/gEo5Xw/WLUtmLFwrkz8loOXRTvf4H6pzPC+bRFEGnl4+SR8KqDB8XzyBd
ye9bq4MrJ5WxJ0aHGus5D4suT3vtUYrz8tCuFwHEg67qRjRHhxCj3tM1Ds+RDzPF
zddBGnHCwzt44EMuMfpP0wEXNtKXTMEBZhcQB8r0X7jDJEM0OiTnyZLGOl2ghURk
isoAbOvliYRP9flEfjTKYoXPL+vU9xFiuPdvrmS25smMrIm5s/xLYiGntzT5PriS
E43dHQIDAQABo4IBazCCAWcwCQYDVR0TBAIwADAtBglghkgBhvhCAQ0EIBYeRWFz
eS1SU0EgR2VuZXJhdGVkIENlcnRpZmljYXRlMB0GA1UdDgQWBBQPkGR87QjCygYc
d21Tp9qa2DGGpzCB6QYDVR0jBIHhMIHegBTvOI0UUFinW02cF3L837msp1GwEKGB
uqSBtzCBtDELMAkGA1UEBhMCVVMxCzAJBgNVBAgTAkNBMRUwEwYDVQQHEwxTYW5G
cmFuY2lzY28xFTATBgNVBAoTDFBpeGdsbywgSW5jLjEQMA4GA1UECxMHVlBOLUNJ
RTEaMBgGA1UEAxMRdHVubmVsLnBpeGdsby5jb20xHDAaBgNVBCkTE0JhbGEgQ2hh
bmRyYXNla2FyYW4xHjAcBgkqhkiG9w0BCQEWD2JhbGFAcGl4Z2xvLmNvbYIJAKbb
xoOA5qB5MBMGA1UdJQQMMAoGCCsGAQUFBwMCMAsGA1UdDwQEAwIHgDANBgkqhkiG
9w0BAQUFAAOCAgEAdtZH8m3t+P7sokr2RHDFTqR6Q1J+YN2axqGO7T97wq6BIMl+
GswKETAIcyhK1nopdeRUlsmlfNFD2+3KT5hHS7wfpopFqjsg75yKnN6piPJp+0Zn
6UiWqkIY8HcYTK150LaMGct2sUqOQ37G1S4uUj1+ejhg+dvY+d4lRbXdn1wEc8ic
cC5gsQ6PD/4DqEYKdFYeXPJcmi9n1qiMTJI9TJXh6c46O9TPpXCG/XW0XypNJJht
oY93iLuYhGZ1BwJ2mpJVC7hY4lMsCXfRNuEbHZs1CKwn2Rlsc3qSe7gkReppU+kT
Ryh4kU9U+bph6vn9O5a87Aj2Lywk3VDnlI+W/En1HdNwssbEua1fi3UX3hCuWjtD
mqZjrEbHqrKUKEC42InFD0dguQ3wYgqqvFydUeq6jQRSm102wn1c/mNz5po+GC5j
9aeuGDOMtSy0LC0/EfSpvZFArUxBVnVOIisfk1ElP9gWZ7c3oBl25fCSSijpa06f
lDFOoCrsk9eZJIFfvyQ6JUKrAd2tAJpVyaBDrLtkZbGkqM78E+F5cIKws65ar7nA
SrBC+gwiSpHoXDVZP7B6JTY6dmlOVAb13qIZy9dmJQ0mO+lFFmxKX7v3ri8zksp1
1ng654r7pTefcNPOP7ldgN6b6Iqg91N8IQrrIGcINjK7FKyNj69h6wKYwYE=
-----END CERTIFICATE-----
