Certificate:
    Data:
        Version: 3 (0x2)
        Serial Number: 239 (0xef)
    Signature Algorithm: sha1WithRSAEncryption
        Issuer: C=US, ST=CA, L=SanFrancisco, O=Pixglo, Inc., OU=VPN-CIE, CN=tunnel.pixglo.com/name=Bala Chandrasekaran/emailAddress=bala@pixglo.com
        Validity
            Not Before: Feb 14 06:29:09 2018 GMT
            Not After : Feb 12 06:29:09 2028 GMT
        Subject: C=US, ST=CA, L=SanFrancisco, O=Pixglo, Inc., OU=VPN-CIE, CN=cie238/name=Bala Chandrasekaran/emailAddress=bala@pixglo.com
        Subject Public Key Info:
            Public Key Algorithm: rsaEncryption
                Public-Key: (4096 bit)
                Modulus:
                    00:c9:99:77:e1:21:76:f2:ec:73:e0:e2:9f:7c:2e:
                    34:a1:bf:e5:4d:c2:bf:89:0a:46:23:c0:f4:a7:80:
                    b6:bd:b8:1c:7c:83:cf:40:85:ff:48:02:71:93:f1:
                    38:cb:1d:f2:01:e8:db:67:ee:73:3d:30:0f:6f:54:
                    70:06:24:c8:c0:72:e3:47:ba:44:a2:94:93:1f:01:
                    dd:c9:10:bd:27:d0:d7:78:80:49:6a:fe:83:6e:5b:
                    2f:27:49:5c:25:66:d3:a0:9b:3a:f3:c7:7e:e6:6a:
                    19:9d:a1:d0:22:b0:a6:8a:a8:3e:8f:7a:73:4e:12:
                    01:20:11:89:5d:b6:51:4a:ad:56:07:2a:68:61:51:
                    ad:01:ce:c8:b4:79:27:03:a1:3a:e0:6e:d6:3d:06:
                    56:cf:46:8e:e6:78:b1:9c:0e:db:c0:cc:7a:d9:df:
                    a1:bc:bf:f9:3f:1c:2a:36:3a:eb:fd:8d:6f:2a:01:
                    56:53:b5:b7:a5:1d:29:17:18:29:2a:8b:4f:00:ff:
                    98:23:8c:a7:31:2a:f6:86:f2:89:f5:c6:e0:0e:37:
                    c1:a9:3e:1d:af:d0:5e:f6:f3:0d:90:c6:4f:42:34:
                    d9:78:2a:2c:51:ce:93:89:aa:69:c4:11:5c:cb:ee:
                    c1:be:cb:fd:8b:b2:ea:21:83:5e:cf:7d:60:44:83:
                    77:b5:ba:1b:e7:fa:ea:32:db:94:8e:d3:05:3e:11:
                    b9:18:81:af:97:d5:e1:b3:ad:d3:83:fd:5a:76:60:
                    44:4f:e1:b8:64:6c:32:9e:da:8e:5a:45:67:66:bf:
                    e8:42:de:57:5d:d7:cd:42:d3:a5:74:ab:1f:58:9f:
                    99:d4:6a:52:83:02:c6:f4:29:dd:47:2f:bc:45:f7:
                    5d:e8:2b:c7:80:64:40:79:8c:6b:ac:7c:ce:99:77:
                    b7:0b:56:cf:af:0e:68:db:aa:1e:45:1e:86:65:fb:
                    e1:8b:61:e5:39:f8:0b:75:28:c9:0b:bd:9c:71:18:
                    d2:8f:35:e6:fe:9d:91:d2:f5:a9:a3:ac:62:a4:f7:
                    18:0e:37:27:87:37:1b:53:69:2a:a3:3c:01:bc:d4:
                    11:46:54:32:84:06:86:90:24:a4:a9:47:e6:28:ab:
                    56:0e:68:d0:71:41:e7:ff:d3:29:a2:c3:90:89:a8:
                    0e:37:82:81:ef:45:37:bd:48:72:78:89:ca:84:bf:
                    47:e4:41:c5:33:08:65:58:d9:97:dd:8c:ec:c7:76:
                    b4:e3:81:09:92:ba:69:31:9a:ff:d6:60:4e:5f:bc:
                    80:ce:db:cb:ea:8d:6f:94:37:1a:7b:4b:22:90:78:
                    ff:82:d3:ae:f4:91:00:da:b2:2f:6b:78:ab:73:98:
                    a1:a7:db
                Exponent: 65537 (0x10001)
        X509v3 extensions:
            X509v3 Basic Constraints: 
                CA:FALSE
            Netscape Comment: 
                Easy-RSA Generated Certificate
            X509v3 Subject Key Identifier: 
                C3:09:2F:80:73:1D:50:5D:9C:5A:2E:FB:E5:AC:01:BA:7A:2B:3B:72
            X509v3 Authority Key Identifier: 
                keyid:EF:38:8D:14:50:58:A7:5B:4D:9C:17:72:FC:DF:B9:AC:A7:51:B0:10
                DirName:/C=US/ST=CA/L=SanFrancisco/O=Pixglo, Inc./OU=VPN-CIE/CN=tunnel.pixglo.com/name=Bala Chandrasekaran/emailAddress=bala@pixglo.com
                serial:A6:DB:C6:83:80:E6:A0:79

            X509v3 Extended Key Usage: 
                TLS Web Client Authentication
            X509v3 Key Usage: 
                Digital Signature
    Signature Algorithm: sha1WithRSAEncryption
         96:71:27:a7:4a:b3:6d:7e:82:21:13:e2:93:af:a5:71:d7:04:
         c7:3c:25:fa:d4:87:c1:6b:06:c7:a2:59:70:85:e1:29:bd:2c:
         f8:09:18:f4:ef:10:05:20:43:c0:08:e7:96:65:46:46:e1:80:
         67:ef:d7:03:70:2a:96:c9:f4:ca:c6:d9:63:e3:67:c7:57:2d:
         2d:37:b6:64:c4:51:96:23:7d:9b:fe:7c:2e:de:44:d3:f6:25:
         11:a2:1f:68:d5:a5:0c:1e:1b:99:6a:0e:eb:9b:5a:e0:0a:74:
         00:1b:a5:0d:67:6d:9e:d5:fa:26:80:4f:dc:4b:91:35:16:4b:
         9a:b9:f8:df:ca:19:6e:46:43:ef:ee:4c:b7:4b:ef:b2:16:78:
         30:c0:79:cf:4d:f3:9c:73:ef:08:0a:14:06:81:f7:09:20:8a:
         cc:5c:69:9f:a5:2a:97:21:2f:ab:53:bc:07:e2:00:ce:7e:41:
         45:3e:a7:cc:7b:29:e3:a9:2e:c4:ee:06:ee:af:bf:22:5d:ed:
         e0:6c:2e:76:da:06:6d:46:4b:9a:67:17:ef:36:91:65:e2:48:
         3f:1f:e8:be:b5:31:b1:1c:f8:f3:b0:b4:37:d4:89:2a:0e:09:
         3a:90:30:0a:68:c5:d1:5c:9d:2b:ea:88:e7:b3:e7:b9:62:12:
         e6:a0:d1:bb:bb:7c:f4:99:c3:d0:06:d1:94:24:82:3c:a7:10:
         26:84:08:23:9c:df:2c:fb:ff:4d:06:03:f5:b6:e6:ce:38:c2:
         45:96:b5:29:03:b6:9a:83:60:e2:5d:b1:64:4a:64:32:10:fb:
         62:d7:51:77:b0:78:45:4b:5e:51:d3:fb:45:14:39:32:63:5a:
         dd:fc:a8:b7:f7:51:dc:60:6e:05:64:4e:b5:7e:3c:b8:cd:6b:
         d5:4a:52:02:d9:5c:c3:0f:83:b3:f1:b7:5e:4a:89:e6:58:87:
         58:ce:f3:36:2c:d5:17:51:35:74:f9:77:64:f4:a8:32:8b:1f:
         52:b3:07:f2:f4:96:f9:b1:59:cd:47:14:94:8b:4e:e4:d9:2b:
         e7:5d:df:4c:4d:98:45:4f:4e:a9:18:ff:1d:1f:48:4d:2b:2a:
         ef:dc:56:a7:f3:a4:ab:a1:5c:1c:b7:c2:43:39:61:37:58:d4:
         76:d1:1d:51:4f:97:6c:41:02:69:fe:18:72:2b:67:40:a5:f7:
         b3:23:cb:48:05:c4:aa:69:99:62:28:66:a4:72:ad:40:31:49:
         64:a8:fc:e0:c5:b8:98:06:b3:91:09:94:e1:cf:4a:69:24:36:
         e6:d6:f8:12:9c:c8:a3:78:28:ea:a5:47:c2:cb:b3:9e:0d:99:
         83:2d:38:1d:28:c0:db:6f
-----BEGIN CERTIFICATE-----
MIIHSDCCBTCgAwIBAgICAO8wDQYJKoZIhvcNAQEFBQAwgbQxCzAJBgNVBAYTAlVT
MQswCQYDVQQIEwJDQTEVMBMGA1UEBxMMU2FuRnJhbmNpc2NvMRUwEwYDVQQKEwxQ
aXhnbG8sIEluYy4xEDAOBgNVBAsTB1ZQTi1DSUUxGjAYBgNVBAMTEXR1bm5lbC5w
aXhnbG8uY29tMRwwGgYDVQQpExNCYWxhIENoYW5kcmFzZWthcmFuMR4wHAYJKoZI
hvcNAQkBFg9iYWxhQHBpeGdsby5jb20wHhcNMTgwMjE0MDYyOTA5WhcNMjgwMjEy
MDYyOTA5WjCBqTELMAkGA1UEBhMCVVMxCzAJBgNVBAgTAkNBMRUwEwYDVQQHEwxT
YW5GcmFuY2lzY28xFTATBgNVBAoTDFBpeGdsbywgSW5jLjEQMA4GA1UECxMHVlBO
LUNJRTEPMA0GA1UEAxMGY2llMjM4MRwwGgYDVQQpExNCYWxhIENoYW5kcmFzZWth
cmFuMR4wHAYJKoZIhvcNAQkBFg9iYWxhQHBpeGdsby5jb20wggIiMA0GCSqGSIb3
DQEBAQUAA4ICDwAwggIKAoICAQDJmXfhIXby7HPg4p98LjShv+VNwr+JCkYjwPSn
gLa9uBx8g89Ahf9IAnGT8TjLHfIB6Ntn7nM9MA9vVHAGJMjAcuNHukSilJMfAd3J
EL0n0Nd4gElq/oNuWy8nSVwlZtOgmzrzx37mahmdodAisKaKqD6PenNOEgEgEYld
tlFKrVYHKmhhUa0Bzsi0eScDoTrgbtY9BlbPRo7meLGcDtvAzHrZ36G8v/k/HCo2
Ouv9jW8qAVZTtbelHSkXGCkqi08A/5gjjKcxKvaG8on1xuAON8GpPh2v0F728w2Q
xk9CNNl4KixRzpOJqmnEEVzL7sG+y/2Lsuohg17PfWBEg3e1uhvn+uoy25SO0wU+
EbkYga+X1eGzrdOD/Vp2YERP4bhkbDKe2o5aRWdmv+hC3ldd181C06V0qx9Yn5nU
alKDAsb0Kd1HL7xF913oK8eAZEB5jGusfM6Zd7cLVs+vDmjbqh5FHoZl++GLYeU5
+At1KMkLvZxxGNKPNeb+nZHS9amjrGKk9xgONyeHNxtTaSqjPAG81BFGVDKEBoaQ
JKSpR+Yoq1YOaNBxQef/0ymiw5CJqA43goHvRTe9SHJ4icqEv0fkQcUzCGVY2Zfd
jOzHdrTjgQmSumkxmv/WYE5fvIDO28vqjW+UNxp7SyKQeP+C0670kQDasi9reKtz
mKGn2wIDAQABo4IBazCCAWcwCQYDVR0TBAIwADAtBglghkgBhvhCAQ0EIBYeRWFz
eS1SU0EgR2VuZXJhdGVkIENlcnRpZmljYXRlMB0GA1UdDgQWBBTDCS+Acx1QXZxa
LvvlrAG6eis7cjCB6QYDVR0jBIHhMIHegBTvOI0UUFinW02cF3L837msp1GwEKGB
uqSBtzCBtDELMAkGA1UEBhMCVVMxCzAJBgNVBAgTAkNBMRUwEwYDVQQHEwxTYW5G
cmFuY2lzY28xFTATBgNVBAoTDFBpeGdsbywgSW5jLjEQMA4GA1UECxMHVlBOLUNJ
RTEaMBgGA1UEAxMRdHVubmVsLnBpeGdsby5jb20xHDAaBgNVBCkTE0JhbGEgQ2hh
bmRyYXNla2FyYW4xHjAcBgkqhkiG9w0BCQEWD2JhbGFAcGl4Z2xvLmNvbYIJAKbb
xoOA5qB5MBMGA1UdJQQMMAoGCCsGAQUFBwMCMAsGA1UdDwQEAwIHgDANBgkqhkiG
9w0BAQUFAAOCAgEAlnEnp0qzbX6CIRPik6+lcdcExzwl+tSHwWsGx6JZcIXhKb0s
+AkY9O8QBSBDwAjnlmVGRuGAZ+/XA3Aqlsn0ysbZY+Nnx1ctLTe2ZMRRliN9m/58
Lt5E0/YlEaIfaNWlDB4bmWoO65ta4Ap0ABulDWdtntX6JoBP3EuRNRZLmrn438oZ
bkZD7+5Mt0vvshZ4MMB5z03znHPvCAoUBoH3CSCKzFxpn6UqlyEvq1O8B+IAzn5B
RT6nzHsp46kuxO4G7q+/Il3t4GwudtoGbUZLmmcX7zaRZeJIPx/ovrUxsRz487C0
N9SJKg4JOpAwCmjF0VydK+qI57PnuWIS5qDRu7t89JnD0AbRlCSCPKcQJoQII5zf
LPv/TQYD9bbmzjjCRZa1KQO2moNg4l2xZEpkMhD7YtdRd7B4RUteUdP7RRQ5MmNa
3fyot/dR3GBuBWROtX48uM1r1UpSAtlcww+Ds/G3XkqJ5liHWM7zNizVF1E1dPl3
ZPSoMosfUrMH8vSW+bFZzUcUlItO5Nkr513fTE2YRU9OqRj/HR9ITSsq79xWp/Ok
q6FcHLfCQzlhN1jUdtEdUU+XbEECaf4YcitnQKX3syPLSAXEqmmZYihmpHKtQDFJ
ZKj84MW4mAazkQmU4c9KaSQ25tb4EpzIo3go6qVHwsuzng2Zgy04HSjA228=
-----END CERTIFICATE-----
