Certificate:
    Data:
        Version: 3 (0x2)
        Serial Number: 242 (0xf2)
    Signature Algorithm: sha1WithRSAEncryption
        Issuer: C=US, ST=CA, L=SanFrancisco, O=Pixglo, Inc., OU=VPN-CIE, CN=tunnel.pixglo.com/name=Bala Chandrasekaran/emailAddress=bala@pixglo.com
        Validity
            Not Before: Feb 14 06:29:11 2018 GMT
            Not After : Feb 12 06:29:11 2028 GMT
        Subject: C=US, ST=CA, L=SanFrancisco, O=Pixglo, Inc., OU=VPN-CIE, CN=cie241/name=Bala Chandrasekaran/emailAddress=bala@pixglo.com
        Subject Public Key Info:
            Public Key Algorithm: rsaEncryption
                Public-Key: (4096 bit)
                Modulus:
                    00:99:1d:58:79:6c:97:da:31:3c:7a:e8:f8:53:ba:
                    ee:35:63:7d:65:67:34:88:8a:16:85:05:20:db:21:
                    1e:56:6e:da:3c:c0:2e:e5:fa:7f:ce:bd:b8:bb:42:
                    b8:ba:f0:8a:b6:20:6a:65:cc:a5:21:81:e7:5a:66:
                    e8:4f:03:1b:b5:37:cd:90:44:ee:e6:f6:f5:a9:e0:
                    9e:e0:84:cf:cf:3c:b3:0e:6e:ad:e3:47:35:e3:f0:
                    09:22:b7:b1:14:2e:45:b6:78:aa:ed:aa:80:bc:2d:
                    90:5e:53:d3:d8:c5:61:e0:46:81:d3:ba:19:47:c7:
                    1f:99:8f:90:44:a1:8d:26:74:0a:43:af:87:64:11:
                    14:3f:11:b0:ed:53:00:24:99:6e:d6:83:13:31:ee:
                    a5:05:b0:5f:b0:3d:9d:df:6b:fd:7d:0f:07:88:54:
                    ad:b9:9f:9a:d8:33:4c:30:b4:3d:70:6a:a4:57:f2:
                    c2:7a:22:74:2e:d9:b9:2d:df:6f:95:de:15:cd:81:
                    88:77:9a:ac:fd:7b:5f:1e:a4:eb:fc:9f:df:9b:0d:
                    72:05:f0:6c:1d:15:3f:83:98:e6:5e:a0:d1:7d:52:
                    89:6a:10:e9:9e:84:66:d4:20:a0:34:45:26:80:f0:
                    30:45:1b:f4:96:3e:93:19:6f:9f:02:50:d2:01:77:
                    ad:76:96:11:c1:8c:88:20:6d:e8:0a:f8:d0:01:b1:
                    d9:04:73:29:46:a5:b2:59:0f:84:28:ed:4e:2f:ea:
                    59:9a:79:b4:18:12:00:a5:3f:46:af:15:7d:d2:5a:
                    70:f0:bd:5b:cb:1a:cb:4b:91:c8:58:4b:38:eb:5e:
                    28:d4:ca:5b:73:ff:62:0a:9f:7e:c0:0e:81:f3:b8:
                    b4:df:db:f6:d4:a8:82:e6:b1:82:ee:41:79:06:67:
                    f7:51:4d:c7:16:59:b8:b9:07:52:a9:5d:68:84:2d:
                    c1:94:36:26:b7:14:65:fa:77:1e:2e:87:ef:99:ea:
                    b1:e0:52:f1:b7:82:ac:47:7f:20:57:eb:fd:0b:68:
                    10:bb:80:5c:8e:e2:62:60:37:ef:5d:9f:15:d5:f6:
                    d1:95:9f:f0:97:d2:03:f5:6d:f3:f1:e4:7e:7f:f1:
                    99:b4:3d:8b:59:f8:dc:b3:fe:ff:fe:6d:41:d0:e0:
                    50:04:3f:bf:8d:fd:62:69:35:62:ec:da:bb:70:0b:
                    10:0d:48:0b:3b:2a:93:86:79:d5:4f:fc:d7:35:da:
                    85:59:c7:0c:f6:f8:5f:a6:80:84:f6:d6:dd:dc:f6:
                    ca:f8:fb:c9:45:27:dc:41:a5:6f:43:04:1c:51:a4:
                    7b:b6:c8:ca:5e:bf:42:c7:98:36:ce:db:39:d3:74:
                    9c:0f:a3
                Exponent: 65537 (0x10001)
        X509v3 extensions:
            X509v3 Basic Constraints: 
                CA:FALSE
            Netscape Comment: 
                Easy-RSA Generated Certificate
            X509v3 Subject Key Identifier: 
                60:83:65:D8:66:5D:48:D1:12:A1:3F:B8:5F:27:F7:C4:A2:45:F4:77
            X509v3 Authority Key Identifier: 
                keyid:EF:38:8D:14:50:58:A7:5B:4D:9C:17:72:FC:DF:B9:AC:A7:51:B0:10
                DirName:/C=US/ST=CA/L=SanFrancisco/O=Pixglo, Inc./OU=VPN-CIE/CN=tunnel.pixglo.com/name=Bala Chandrasekaran/emailAddress=bala@pixglo.com
                serial:A6:DB:C6:83:80:E6:A0:79

            X509v3 Extended Key Usage: 
                TLS Web Client Authentication
            X509v3 Key Usage: 
                Digital Signature
    Signature Algorithm: sha1WithRSAEncryption
         48:4e:6c:c4:a7:75:eb:39:2f:b2:ce:d5:44:af:7a:68:4f:a7:
         42:31:63:8a:0f:6f:d6:e5:61:fd:8d:0b:f9:e9:08:3e:32:5c:
         8c:74:95:37:bf:3e:19:00:fd:b5:41:a7:30:9c:94:45:82:6b:
         0c:c4:be:f4:ca:cf:e8:c9:c9:f0:1e:7c:d5:15:a7:e5:06:64:
         f8:12:32:b4:de:61:33:e5:2c:0b:fc:a3:79:14:2f:86:1c:0d:
         c5:cf:99:8b:8a:d1:e3:80:c9:91:2b:14:75:c9:b6:7c:93:6f:
         8b:52:b6:26:25:40:3c:5b:f4:94:92:a5:7f:9b:17:ff:87:23:
         de:e1:e4:e5:1d:04:98:20:6a:99:06:79:1e:8f:53:90:ab:65:
         df:58:43:66:4e:04:0b:44:b4:1d:f7:78:ed:54:c6:fd:ba:54:
         ac:d1:f4:20:35:66:46:da:e5:f3:6e:50:c3:d2:3b:40:24:93:
         0a:60:99:7d:ef:d6:7b:2e:29:3c:57:06:a4:60:5b:5f:fc:f0:
         7e:10:bd:d2:d4:5b:4f:62:83:df:18:63:fb:b6:f6:e2:ef:0e:
         26:36:5a:37:f4:c1:84:fb:2b:26:54:6f:68:c1:8e:42:73:b8:
         4d:19:b2:67:2a:ca:9a:3c:6c:22:d7:fe:ed:e7:7d:45:1b:d4:
         5d:5f:21:39:c8:bf:6a:9e:f0:6d:a3:ea:6f:d0:05:58:a8:22:
         5e:d9:bc:51:0a:81:b6:d2:f3:5e:31:77:10:ff:95:f3:17:6b:
         2e:6a:52:85:fd:15:1d:83:ad:d0:7a:af:e6:f9:6f:f8:66:84:
         59:7a:2d:a1:7a:98:fd:b0:67:c0:89:18:68:33:38:b8:f0:a9:
         2f:dd:e1:17:ce:f8:79:56:b1:7a:9d:14:24:62:44:bf:fe:ed:
         a3:1f:d2:3e:32:99:68:7c:07:f8:25:c1:e0:eb:f6:1c:42:fe:
         d4:9e:aa:74:d2:1e:fb:e9:9e:8e:06:8b:b3:24:c5:1e:45:8e:
         19:59:5c:02:c9:e7:4e:bc:9a:46:31:c4:0a:92:29:51:bf:1d:
         3f:6b:b4:f0:2e:fd:29:c4:47:f2:d2:95:5f:9e:37:53:54:af:
         22:45:b1:32:f8:19:ae:31:e0:26:a9:cc:9e:82:cb:f1:43:90:
         20:29:93:65:c8:d7:29:16:96:a8:38:44:d9:09:9a:a8:05:b6:
         e4:67:99:62:16:c5:7e:7b:61:85:56:bc:5f:52:82:d8:c5:80:
         1a:cd:fa:d4:8b:2c:4c:37:8f:26:66:a3:13:60:c6:be:d9:2b:
         22:ac:3f:f1:83:3e:c8:ec:24:ac:15:4b:11:91:0f:00:76:a1:
         0c:51:47:03:34:88:73:d7
-----BEGIN CERTIFICATE-----
MIIHSDCCBTCgAwIBAgICAPIwDQYJKoZIhvcNAQEFBQAwgbQxCzAJBgNVBAYTAlVT
MQswCQYDVQQIEwJDQTEVMBMGA1UEBxMMU2FuRnJhbmNpc2NvMRUwEwYDVQQKEwxQ
aXhnbG8sIEluYy4xEDAOBgNVBAsTB1ZQTi1DSUUxGjAYBgNVBAMTEXR1bm5lbC5w
aXhnbG8uY29tMRwwGgYDVQQpExNCYWxhIENoYW5kcmFzZWthcmFuMR4wHAYJKoZI
hvcNAQkBFg9iYWxhQHBpeGdsby5jb20wHhcNMTgwMjE0MDYyOTExWhcNMjgwMjEy
MDYyOTExWjCBqTELMAkGA1UEBhMCVVMxCzAJBgNVBAgTAkNBMRUwEwYDVQQHEwxT
YW5GcmFuY2lzY28xFTATBgNVBAoTDFBpeGdsbywgSW5jLjEQMA4GA1UECxMHVlBO
LUNJRTEPMA0GA1UEAxMGY2llMjQxMRwwGgYDVQQpExNCYWxhIENoYW5kcmFzZWth
cmFuMR4wHAYJKoZIhvcNAQkBFg9iYWxhQHBpeGdsby5jb20wggIiMA0GCSqGSIb3
DQEBAQUAA4ICDwAwggIKAoICAQCZHVh5bJfaMTx66PhTuu41Y31lZzSIihaFBSDb
IR5Wbto8wC7l+n/Ovbi7Qri68Iq2IGplzKUhgedaZuhPAxu1N82QRO7m9vWp4J7g
hM/PPLMObq3jRzXj8Akit7EULkW2eKrtqoC8LZBeU9PYxWHgRoHTuhlHxx+Zj5BE
oY0mdApDr4dkERQ/EbDtUwAkmW7WgxMx7qUFsF+wPZ3fa/19DweIVK25n5rYM0ww
tD1waqRX8sJ6InQu2bkt32+V3hXNgYh3mqz9e18epOv8n9+bDXIF8GwdFT+DmOZe
oNF9UolqEOmehGbUIKA0RSaA8DBFG/SWPpMZb58CUNIBd612lhHBjIggbegK+NAB
sdkEcylGpbJZD4Qo7U4v6lmaebQYEgClP0avFX3SWnDwvVvLGstLkchYSzjrXijU
yltz/2IKn37ADoHzuLTf2/bUqILmsYLuQXkGZ/dRTccWWbi5B1KpXWiELcGUNia3
FGX6dx4uh++Z6rHgUvG3gqxHfyBX6/0LaBC7gFyO4mJgN+9dnxXV9tGVn/CX0gP1
bfPx5H5/8Zm0PYtZ+Nyz/v/+bUHQ4FAEP7+N/WJpNWLs2rtwCxANSAs7KpOGedVP
/Nc12oVZxwz2+F+mgIT21t3c9sr4+8lFJ9xBpW9DBBxRpHu2yMpev0LHmDbO2znT
dJwPowIDAQABo4IBazCCAWcwCQYDVR0TBAIwADAtBglghkgBhvhCAQ0EIBYeRWFz
eS1SU0EgR2VuZXJhdGVkIENlcnRpZmljYXRlMB0GA1UdDgQWBBRgg2XYZl1I0RKh
P7hfJ/fEokX0dzCB6QYDVR0jBIHhMIHegBTvOI0UUFinW02cF3L837msp1GwEKGB
uqSBtzCBtDELMAkGA1UEBhMCVVMxCzAJBgNVBAgTAkNBMRUwEwYDVQQHEwxTYW5G
cmFuY2lzY28xFTATBgNVBAoTDFBpeGdsbywgSW5jLjEQMA4GA1UECxMHVlBOLUNJ
RTEaMBgGA1UEAxMRdHVubmVsLnBpeGdsby5jb20xHDAaBgNVBCkTE0JhbGEgQ2hh
bmRyYXNla2FyYW4xHjAcBgkqhkiG9w0BCQEWD2JhbGFAcGl4Z2xvLmNvbYIJAKbb
xoOA5qB5MBMGA1UdJQQMMAoGCCsGAQUFBwMCMAsGA1UdDwQEAwIHgDANBgkqhkiG
9w0BAQUFAAOCAgEASE5sxKd16zkvss7VRK96aE+nQjFjig9v1uVh/Y0L+ekIPjJc
jHSVN78+GQD9tUGnMJyURYJrDMS+9MrP6MnJ8B581RWn5QZk+BIytN5hM+UsC/yj
eRQvhhwNxc+Zi4rR44DJkSsUdcm2fJNvi1K2JiVAPFv0lJKlf5sX/4cj3uHk5R0E
mCBqmQZ5Ho9TkKtl31hDZk4EC0S0Hfd47VTG/bpUrNH0IDVmRtrl825Qw9I7QCST
CmCZfe/Wey4pPFcGpGBbX/zwfhC90tRbT2KD3xhj+7b24u8OJjZaN/TBhPsrJlRv
aMGOQnO4TRmyZyrKmjxsItf+7ed9RRvUXV8hOci/ap7wbaPqb9AFWKgiXtm8UQqB
ttLzXjF3EP+V8xdrLmpShf0VHYOt0Hqv5vlv+GaEWXotoXqY/bBnwIkYaDM4uPCp
L93hF874eVaxep0UJGJEv/7tox/SPjKZaHwH+CXB4Ov2HEL+1J6qdNIe++mejgaL
syTFHkWOGVlcAsnnTryaRjHECpIpUb8dP2u08C79KcRH8tKVX543U1SvIkWxMvgZ
rjHgJqnMnoLL8UOQICmTZcjXKRaWqDhE2QmaqAW25GeZYhbFfnthhVa8X1KC2MWA
Gs361IssTDePJmajE2DGvtkrIqw/8YM+yOwkrBVLEZEPAHahDFFHAzSIc9c=
-----END CERTIFICATE-----
