Certificate:
    Data:
        Version: 3 (0x2)
        Serial Number: 230 (0xe6)
    Signature Algorithm: sha1WithRSAEncryption
        Issuer: C=US, ST=CA, L=SanFrancisco, O=Pixglo, Inc., OU=VPN-CIE, CN=tunnel.pixglo.com/name=Bala Chandrasekaran/emailAddress=bala@pixglo.com
        Validity
            Not Before: Feb 14 06:29:04 2018 GMT
            Not After : Feb 12 06:29:04 2028 GMT
        Subject: C=US, ST=CA, L=SanFrancisco, O=Pixglo, Inc., OU=VPN-CIE, CN=cie229/name=Bala Chandrasekaran/emailAddress=bala@pixglo.com
        Subject Public Key Info:
            Public Key Algorithm: rsaEncryption
                Public-Key: (4096 bit)
                Modulus:
                    00:b8:6d:ed:e7:15:38:11:d8:69:94:3d:90:45:ca:
                    ff:08:50:a3:a3:11:27:02:00:d1:cd:63:33:22:98:
                    a5:c3:ca:11:42:55:34:ac:30:2f:09:ff:16:7e:11:
                    4e:41:62:0c:57:e1:12:47:ee:0e:59:c4:07:e5:c1:
                    54:e8:e2:28:17:6b:40:18:2a:78:95:d3:04:18:8f:
                    ac:3b:04:3d:53:4a:88:e8:5e:62:49:19:29:36:cf:
                    5b:31:79:73:d1:93:5e:44:31:86:26:40:c1:09:48:
                    e7:2f:ec:e5:9b:5a:f7:73:17:e9:dd:d8:d4:c6:c8:
                    d0:30:06:44:d6:11:e5:aa:fa:0f:f5:25:33:a7:ff:
                    54:d4:8a:17:de:b2:b7:90:47:a4:cd:47:76:fc:0c:
                    25:44:fe:fe:44:55:b1:e1:a6:c4:a5:04:5a:44:1b:
                    41:28:7f:5c:ca:99:f0:ca:34:93:74:2e:35:75:d6:
                    dc:d3:f7:ea:df:3b:90:2f:b8:30:88:66:fd:74:4f:
                    c6:93:dc:00:95:a3:f5:15:e8:40:d7:21:b0:29:12:
                    57:57:04:86:d5:a2:6c:e9:46:91:18:22:e1:23:2f:
                    9f:9f:b5:1f:94:d1:57:6a:df:8f:39:9c:48:a9:5b:
                    93:de:d7:52:4d:80:7f:af:c5:00:2f:3f:85:04:9f:
                    b2:9b:72:ac:ec:2f:a0:08:2d:8b:70:da:6c:b8:bc:
                    7c:84:ff:40:9e:51:eb:d2:a0:8b:14:be:90:de:12:
                    ea:93:ea:ce:cf:af:e0:c7:6b:86:b1:e9:25:d0:ad:
                    6c:c8:cc:28:d8:04:6d:8e:31:55:29:39:c2:e5:41:
                    f3:d7:99:5e:64:42:eb:62:ce:f1:8e:b5:50:1c:3e:
                    84:5a:79:fc:af:3b:b6:d2:2c:6d:76:bf:b8:46:b9:
                    93:5f:49:ff:86:5d:78:38:cc:3b:4a:77:4e:3a:16:
                    e0:15:9e:d2:c3:ad:fd:da:b0:e3:bd:98:2b:5f:ae:
                    28:7a:c8:e4:19:be:ce:9e:2a:2c:c2:75:ea:c0:19:
                    6b:7f:ad:41:42:11:b0:e1:9a:5f:0b:c1:de:79:a0:
                    92:d6:ad:12:05:81:e3:a7:5e:5e:7b:d0:b1:b7:78:
                    21:a5:9d:28:78:20:6a:1f:0a:3e:4c:e9:23:13:0b:
                    59:55:38:60:fa:50:09:60:2b:a8:d2:9d:58:c2:b0:
                    37:c3:c0:20:2b:19:f5:7a:70:58:ea:80:d1:51:34:
                    9b:5a:46:d6:55:28:93:7c:23:00:2c:e1:db:38:ce:
                    93:73:39:09:ad:74:39:7a:07:1a:0e:41:f9:e9:46:
                    87:89:08:88:56:56:17:af:1a:c1:8c:71:12:ad:92:
                    9a:fd:0b
                Exponent: 65537 (0x10001)
        X509v3 extensions:
            X509v3 Basic Constraints: 
                CA:FALSE
            Netscape Comment: 
                Easy-RSA Generated Certificate
            X509v3 Subject Key Identifier: 
                93:E9:CE:7E:69:14:A4:EC:58:DF:A5:E9:BF:27:D7:45:B7:9A:86:52
            X509v3 Authority Key Identifier: 
                keyid:EF:38:8D:14:50:58:A7:5B:4D:9C:17:72:FC:DF:B9:AC:A7:51:B0:10
                DirName:/C=US/ST=CA/L=SanFrancisco/O=Pixglo, Inc./OU=VPN-CIE/CN=tunnel.pixglo.com/name=Bala Chandrasekaran/emailAddress=bala@pixglo.com
                serial:A6:DB:C6:83:80:E6:A0:79

            X509v3 Extended Key Usage: 
                TLS Web Client Authentication
            X509v3 Key Usage: 
                Digital Signature
    Signature Algorithm: sha1WithRSAEncryption
         b6:47:cc:54:63:41:c2:61:ec:f1:54:15:2c:23:ea:67:b3:23:
         97:96:8a:53:79:72:64:a1:3c:19:39:b4:d9:7f:47:bd:de:2c:
         f2:cb:fc:d3:81:4f:03:fa:9d:e5:3b:d7:9f:a6:be:b5:b9:32:
         e9:27:f2:c5:7d:6e:0a:64:c6:7e:66:dd:a7:41:8a:a1:16:ed:
         ed:75:0f:1e:ad:92:72:84:57:5d:93:92:16:78:04:4c:aa:3b:
         30:66:b9:c4:a7:a9:34:82:99:b9:33:b3:cf:57:c4:06:f0:d1:
         fb:fb:de:2c:35:5c:43:d9:02:ce:08:1f:e1:5a:d8:03:ec:3d:
         fd:c8:73:78:9c:76:b1:dd:ab:4d:03:36:8e:b4:59:40:d5:d4:
         e2:de:e2:93:5d:13:8f:1f:8b:33:44:1a:37:27:e8:8a:11:f1:
         38:f3:8f:d8:3e:26:53:23:c8:79:22:0f:67:1f:08:2a:f9:c2:
         38:d8:b0:2e:33:64:6c:2b:eb:37:36:07:1e:aa:b5:4b:1b:fd:
         a2:ae:92:e6:30:17:51:2e:e4:e3:dc:db:7d:e8:c6:d0:ee:f7:
         74:09:0e:5f:71:de:6e:b7:bb:82:55:9a:b5:48:4d:bb:20:4c:
         6d:6f:55:9d:82:df:be:e5:1a:37:27:85:09:ce:fc:fc:f5:79:
         7a:38:2b:11:95:80:77:27:1c:4c:21:49:69:a4:e2:d2:d7:81:
         83:75:4b:60:8e:eb:5e:72:a7:03:81:a6:3c:5b:d7:62:ae:b2:
         70:1d:db:73:c2:c6:d0:38:e6:00:ca:03:85:cc:93:29:2e:48:
         f8:66:68:a0:09:f9:56:6b:ce:0e:91:0a:fa:0a:a3:c3:32:64:
         1d:3e:66:00:75:28:da:e1:e0:56:cc:17:51:f3:d9:e0:f3:dc:
         6d:5d:d3:7c:4a:f0:37:fc:a9:c9:41:20:cb:24:65:1e:7f:d6:
         7d:1f:5d:1e:36:08:34:42:4a:37:d6:cd:bc:0f:70:ce:d4:d9:
         98:9c:67:74:65:b3:87:c5:e4:72:89:99:14:46:b0:ea:70:4c:
         8d:54:a6:58:06:b8:0d:f7:cc:fe:64:2b:84:e6:af:04:ef:50:
         78:81:9a:10:62:62:ac:e1:5a:6f:2b:8a:ee:79:02:9a:6f:64:
         95:60:69:66:8b:cd:59:62:14:0b:94:57:6c:ce:7c:a9:4d:d3:
         3e:0a:6d:10:13:8c:04:24:5f:6b:32:16:a9:6c:8a:71:f9:89:
         77:be:5d:b2:e4:ca:4a:51:76:c7:6e:9b:c6:db:d7:ae:b6:52:
         f4:82:41:0c:f8:4c:c9:2a:47:5c:fa:a9:d3:e8:90:ff:47:28:
         3e:24:cc:96:7e:f4:c1:da
-----BEGIN CERTIFICATE-----
MIIHSDCCBTCgAwIBAgICAOYwDQYJKoZIhvcNAQEFBQAwgbQxCzAJBgNVBAYTAlVT
MQswCQYDVQQIEwJDQTEVMBMGA1UEBxMMU2FuRnJhbmNpc2NvMRUwEwYDVQQKEwxQ
aXhnbG8sIEluYy4xEDAOBgNVBAsTB1ZQTi1DSUUxGjAYBgNVBAMTEXR1bm5lbC5w
aXhnbG8uY29tMRwwGgYDVQQpExNCYWxhIENoYW5kcmFzZWthcmFuMR4wHAYJKoZI
hvcNAQkBFg9iYWxhQHBpeGdsby5jb20wHhcNMTgwMjE0MDYyOTA0WhcNMjgwMjEy
MDYyOTA0WjCBqTELMAkGA1UEBhMCVVMxCzAJBgNVBAgTAkNBMRUwEwYDVQQHEwxT
YW5GcmFuY2lzY28xFTATBgNVBAoTDFBpeGdsbywgSW5jLjEQMA4GA1UECxMHVlBO
LUNJRTEPMA0GA1UEAxMGY2llMjI5MRwwGgYDVQQpExNCYWxhIENoYW5kcmFzZWth
cmFuMR4wHAYJKoZIhvcNAQkBFg9iYWxhQHBpeGdsby5jb20wggIiMA0GCSqGSIb3
DQEBAQUAA4ICDwAwggIKAoICAQC4be3nFTgR2GmUPZBFyv8IUKOjEScCANHNYzMi
mKXDyhFCVTSsMC8J/xZ+EU5BYgxX4RJH7g5ZxAflwVTo4igXa0AYKniV0wQYj6w7
BD1TSojoXmJJGSk2z1sxeXPRk15EMYYmQMEJSOcv7OWbWvdzF+nd2NTGyNAwBkTW
EeWq+g/1JTOn/1TUihfesreQR6TNR3b8DCVE/v5EVbHhpsSlBFpEG0Eof1zKmfDK
NJN0LjV11tzT9+rfO5AvuDCIZv10T8aT3ACVo/UV6EDXIbApEldXBIbVomzpRpEY
IuEjL5+ftR+U0Vdq3485nEipW5Pe11JNgH+vxQAvP4UEn7KbcqzsL6AILYtw2my4
vHyE/0CeUevSoIsUvpDeEuqT6s7Pr+DHa4ax6SXQrWzIzCjYBG2OMVUpOcLlQfPX
mV5kQutizvGOtVAcPoRaefyvO7bSLG12v7hGuZNfSf+GXXg4zDtKd046FuAVntLD
rf3asOO9mCtfrih6yOQZvs6eKizCderAGWt/rUFCEbDhml8Lwd55oJLWrRIFgeOn
Xl570LG3eCGlnSh4IGofCj5M6SMTC1lVOGD6UAlgK6jSnVjCsDfDwCArGfV6cFjq
gNFRNJtaRtZVKJN8IwAs4ds4zpNzOQmtdDl6BxoOQfnpRoeJCIhWVhevGsGMcRKt
kpr9CwIDAQABo4IBazCCAWcwCQYDVR0TBAIwADAtBglghkgBhvhCAQ0EIBYeRWFz
eS1SU0EgR2VuZXJhdGVkIENlcnRpZmljYXRlMB0GA1UdDgQWBBST6c5+aRSk7Fjf
pem/J9dFt5qGUjCB6QYDVR0jBIHhMIHegBTvOI0UUFinW02cF3L837msp1GwEKGB
uqSBtzCBtDELMAkGA1UEBhMCVVMxCzAJBgNVBAgTAkNBMRUwEwYDVQQHEwxTYW5G
cmFuY2lzY28xFTATBgNVBAoTDFBpeGdsbywgSW5jLjEQMA4GA1UECxMHVlBOLUNJ
RTEaMBgGA1UEAxMRdHVubmVsLnBpeGdsby5jb20xHDAaBgNVBCkTE0JhbGEgQ2hh
bmRyYXNla2FyYW4xHjAcBgkqhkiG9w0BCQEWD2JhbGFAcGl4Z2xvLmNvbYIJAKbb
xoOA5qB5MBMGA1UdJQQMMAoGCCsGAQUFBwMCMAsGA1UdDwQEAwIHgDANBgkqhkiG
9w0BAQUFAAOCAgEAtkfMVGNBwmHs8VQVLCPqZ7Mjl5aKU3lyZKE8GTm02X9Hvd4s
8sv804FPA/qd5TvXn6a+tbky6SfyxX1uCmTGfmbdp0GKoRbt7XUPHq2ScoRXXZOS
FngETKo7MGa5xKepNIKZuTOzz1fEBvDR+/veLDVcQ9kCzggf4VrYA+w9/chzeJx2
sd2rTQM2jrRZQNXU4t7ik10Tjx+LM0QaNyfoihHxOPOP2D4mUyPIeSIPZx8IKvnC
ONiwLjNkbCvrNzYHHqq1Sxv9oq6S5jAXUS7k49zbfejG0O73dAkOX3Hebre7glWa
tUhNuyBMbW9VnYLfvuUaNyeFCc78/PV5ejgrEZWAdyccTCFJaaTi0teBg3VLYI7r
XnKnA4GmPFvXYq6ycB3bc8LG0DjmAMoDhcyTKS5I+GZooAn5VmvODpEK+gqjwzJk
HT5mAHUo2uHgVswXUfPZ4PPcbV3TfErwN/ypyUEgyyRlHn/WfR9dHjYINEJKN9bN
vA9wztTZmJxndGWzh8XkcomZFEaw6nBMjVSmWAa4DffM/mQrhOavBO9QeIGaEGJi
rOFabyuK7nkCmm9klWBpZovNWWIUC5RXbM58qU3TPgptEBOMBCRfazIWqWyKcfmJ
d75dsuTKSlF2x26bxtvXrrZS9IJBDPhMySpHXPqp0+iQ/0coPiTMln70wdo=
-----END CERTIFICATE-----
