Certificate:
    Data:
        Version: 3 (0x2)
        Serial Number: 263 (0x107)
    Signature Algorithm: sha1WithRSAEncryption
        Issuer: C=US, ST=CA, L=SanFrancisco, O=Pixglo, Inc., OU=VPN-CIE, CN=tunnel.pixglo.com/name=Bala Chandrasekaran/emailAddress=bala@pixglo.com
        Validity
            Not Before: Feb 14 06:29:28 2018 GMT
            Not After : Feb 12 06:29:28 2028 GMT
        Subject: C=US, ST=CA, L=SanFrancisco, O=Pixglo, Inc., OU=VPN-CIE, CN=cie262/name=Bala Chandrasekaran/emailAddress=bala@pixglo.com
        Subject Public Key Info:
            Public Key Algorithm: rsaEncryption
                Public-Key: (4096 bit)
                Modulus:
                    00:de:12:d2:55:3f:f5:16:1a:c1:44:e7:6f:ba:ec:
                    ae:24:50:96:52:f2:2b:dc:66:20:b6:b4:4d:3c:99:
                    eb:6f:73:79:f9:00:a9:a9:cb:83:ba:53:da:11:8c:
                    ef:4f:63:b7:aa:da:3f:0d:5a:e2:ee:cf:19:b7:ce:
                    c9:3e:2d:0c:a4:32:09:36:64:3c:84:05:21:49:00:
                    d2:90:11:76:f8:3a:a3:fe:44:88:eb:c6:7a:63:eb:
                    9c:99:e6:4d:3b:67:92:8d:19:17:8e:15:15:c6:06:
                    36:a6:8f:27:ce:ca:b3:0e:be:c1:3d:5b:9e:3d:47:
                    26:38:82:bc:4a:ab:c8:34:91:7c:5c:1c:d6:7c:8a:
                    cd:52:05:01:b7:17:e5:a1:6b:c1:57:7e:50:d4:2e:
                    ae:75:03:1b:90:a4:9b:dc:8a:5c:0c:34:80:89:5b:
                    56:06:a7:6d:8b:0a:ed:93:23:88:4f:95:5d:a0:7b:
                    8c:41:ee:8e:c8:30:4b:62:1e:7f:ba:72:fe:37:b3:
                    8f:02:be:d3:cc:78:63:6f:0a:09:1d:8b:a8:9c:40:
                    6d:19:26:c6:ed:26:66:c3:4a:3c:14:7d:b1:98:90:
                    d8:5e:f7:be:07:8e:ae:8c:61:1b:08:90:b8:d7:13:
                    5f:49:7d:84:b4:3b:5a:64:82:b9:20:19:e6:da:1b:
                    d3:46:0e:cd:60:f6:e5:71:c1:21:a0:25:4e:71:66:
                    f6:79:35:ab:e3:e6:26:5d:fa:35:57:df:af:90:88:
                    3a:b5:a2:35:35:e1:4f:68:4e:aa:5c:03:3d:d3:b8:
                    8e:95:9d:23:05:d2:fd:df:f3:5b:a8:60:16:d6:1a:
                    64:5c:c8:a0:b8:22:45:b3:97:5a:97:2f:00:58:59:
                    b0:c3:f8:c2:a2:1a:1c:b2:70:00:df:4c:84:97:c3:
                    00:c8:ad:47:1e:b0:2e:c9:bb:2b:a3:ff:53:68:78:
                    a0:32:3b:ab:9b:e6:49:62:f4:4f:3f:74:09:e2:74:
                    f1:f7:7e:9c:e0:99:54:09:a5:d4:ee:ca:7f:71:c2:
                    25:ca:9a:e6:44:d9:aa:1b:a3:7c:a9:96:87:7c:41:
                    71:8a:d4:65:5c:75:00:3c:d7:d5:b8:47:51:d6:13:
                    f0:a8:b4:c3:c7:a1:42:ef:b6:d5:00:b5:d3:ba:c4:
                    16:48:38:d0:bc:2a:09:36:d6:db:d4:d7:ce:cf:7d:
                    e4:04:48:a1:28:77:8c:5a:4e:2a:2d:b3:83:9a:1f:
                    1d:61:ea:34:b6:0a:75:ba:1e:5a:83:2b:a0:d4:45:
                    aa:82:ee:2b:a7:b0:e0:89:fa:3f:bb:56:58:66:7d:
                    50:71:f5:3b:be:73:ba:f8:ef:e8:f8:e4:8e:85:1d:
                    a2:ca:4d
                Exponent: 65537 (0x10001)
        X509v3 extensions:
            X509v3 Basic Constraints: 
                CA:FALSE
            Netscape Comment: 
                Easy-RSA Generated Certificate
            X509v3 Subject Key Identifier: 
                8D:AF:AA:F6:25:BE:94:F4:90:D3:F4:97:A4:A7:96:F0:87:17:86:60
            X509v3 Authority Key Identifier: 
                keyid:EF:38:8D:14:50:58:A7:5B:4D:9C:17:72:FC:DF:B9:AC:A7:51:B0:10
                DirName:/C=US/ST=CA/L=SanFrancisco/O=Pixglo, Inc./OU=VPN-CIE/CN=tunnel.pixglo.com/name=Bala Chandrasekaran/emailAddress=bala@pixglo.com
                serial:A6:DB:C6:83:80:E6:A0:79

            X509v3 Extended Key Usage: 
                TLS Web Client Authentication
            X509v3 Key Usage: 
                Digital Signature
    Signature Algorithm: sha1WithRSAEncryption
         61:f7:3f:4b:9b:5e:e5:ce:1f:b5:76:d8:f8:9b:fb:55:33:46:
         e0:c3:c6:9e:46:b4:08:08:ac:6b:27:d9:f9:86:a2:12:f1:ce:
         0c:c3:c0:2b:e2:e7:b8:d6:fc:26:a4:cd:44:07:df:ff:b4:32:
         5b:ea:4e:75:bc:55:c3:9f:5f:4b:17:6a:17:d9:66:67:05:2e:
         7b:ea:ec:1a:0c:8b:ce:a8:07:c0:d0:31:b8:8d:de:7e:cc:f5:
         b6:0e:60:b0:43:c7:62:e7:2b:62:d1:90:a6:f7:d0:56:08:08:
         a1:16:3c:9d:a1:88:0d:56:3a:e4:42:e5:cc:46:48:b5:99:dc:
         2f:25:b6:1f:fd:e0:f3:62:7b:ab:88:9b:a1:76:23:1e:c4:14:
         91:78:00:55:c9:f7:d4:7a:d2:27:a5:46:23:68:e4:96:1f:e2:
         d8:f1:67:06:03:1e:bf:4e:c6:20:ec:fa:0a:1d:0e:cf:ab:08:
         07:00:60:f8:69:ed:11:cd:71:40:c2:88:d7:7e:ce:2c:e4:35:
         75:47:45:06:01:32:8a:91:48:4a:24:da:37:1e:ab:31:f2:01:
         76:3b:8f:eb:4d:a2:49:d3:8f:85:3a:6c:30:4e:43:6a:0c:52:
         01:83:ff:32:b3:c1:d6:90:1c:d3:90:ba:b7:ea:d5:d1:b3:ed:
         52:9d:48:e4:72:1b:bb:5b:ad:b9:f8:d7:84:cc:c8:99:c4:80:
         66:2a:6b:ed:13:15:d3:70:1f:eb:14:de:b9:28:f7:5c:97:9e:
         35:13:da:98:b7:0d:72:1b:e9:2a:9d:34:07:51:94:73:23:6a:
         69:78:7b:53:14:ef:6e:3a:b8:55:47:cc:f7:fe:f8:6c:9f:5b:
         dc:e4:84:0b:9d:fb:4f:9f:9d:fc:f9:15:3a:5f:2f:95:dc:27:
         44:94:d6:5a:11:1b:26:f8:5f:03:83:7c:a4:3c:45:b7:64:50:
         76:98:e6:f3:84:44:7e:94:5c:f1:8e:a8:88:70:f4:44:06:d2:
         87:b9:6e:46:2b:37:14:2d:c0:c6:a9:17:4f:28:b8:4e:22:49:
         f9:3e:27:50:a1:8e:18:94:2b:eb:c1:62:31:54:b4:98:ff:cd:
         95:71:0f:b4:41:74:98:30:7e:86:8d:f1:b0:97:95:eb:9b:3f:
         4f:7e:b2:db:ee:ec:54:49:03:da:3a:d9:1f:f0:31:e0:5b:07:
         97:23:90:12:35:dc:b2:ab:68:d6:19:da:38:df:f5:aa:ea:fc:
         ca:ac:62:26:29:fe:da:d9:68:64:6f:12:f2:cc:a5:e3:e9:0b:
         f2:ff:79:8b:ee:53:a9:65:b1:da:36:54:ac:df:45:2d:d1:82:
         f4:0a:bc:e4:09:8e:ea:d2
-----BEGIN CERTIFICATE-----
MIIHSDCCBTCgAwIBAgICAQcwDQYJKoZIhvcNAQEFBQAwgbQxCzAJBgNVBAYTAlVT
MQswCQYDVQQIEwJDQTEVMBMGA1UEBxMMU2FuRnJhbmNpc2NvMRUwEwYDVQQKEwxQ
aXhnbG8sIEluYy4xEDAOBgNVBAsTB1ZQTi1DSUUxGjAYBgNVBAMTEXR1bm5lbC5w
aXhnbG8uY29tMRwwGgYDVQQpExNCYWxhIENoYW5kcmFzZWthcmFuMR4wHAYJKoZI
hvcNAQkBFg9iYWxhQHBpeGdsby5jb20wHhcNMTgwMjE0MDYyOTI4WhcNMjgwMjEy
MDYyOTI4WjCBqTELMAkGA1UEBhMCVVMxCzAJBgNVBAgTAkNBMRUwEwYDVQQHEwxT
YW5GcmFuY2lzY28xFTATBgNVBAoTDFBpeGdsbywgSW5jLjEQMA4GA1UECxMHVlBO
LUNJRTEPMA0GA1UEAxMGY2llMjYyMRwwGgYDVQQpExNCYWxhIENoYW5kcmFzZWth
cmFuMR4wHAYJKoZIhvcNAQkBFg9iYWxhQHBpeGdsby5jb20wggIiMA0GCSqGSIb3
DQEBAQUAA4ICDwAwggIKAoICAQDeEtJVP/UWGsFE52+67K4kUJZS8ivcZiC2tE08
metvc3n5AKmpy4O6U9oRjO9PY7eq2j8NWuLuzxm3zsk+LQykMgk2ZDyEBSFJANKQ
EXb4OqP+RIjrxnpj65yZ5k07Z5KNGReOFRXGBjamjyfOyrMOvsE9W549RyY4grxK
q8g0kXxcHNZ8is1SBQG3F+Wha8FXflDULq51AxuQpJvcilwMNICJW1YGp22LCu2T
I4hPlV2ge4xB7o7IMEtiHn+6cv43s48CvtPMeGNvCgkdi6icQG0ZJsbtJmbDSjwU
fbGYkNhe974Hjq6MYRsIkLjXE19JfYS0O1pkgrkgGebaG9NGDs1g9uVxwSGgJU5x
ZvZ5Navj5iZd+jVX36+QiDq1ojU14U9oTqpcAz3TuI6VnSMF0v3f81uoYBbWGmRc
yKC4IkWzl1qXLwBYWbDD+MKiGhyycADfTISXwwDIrUcesC7Juyuj/1NoeKAyO6ub
5kli9E8/dAnidPH3fpzgmVQJpdTuyn9xwiXKmuZE2aobo3yplod8QXGK1GVcdQA8
19W4R1HWE/CotMPHoULvttUAtdO6xBZIONC8Kgk21tvU187PfeQESKEod4xaTiot
s4OaHx1h6jS2CnW6HlqDK6DURaqC7iunsOCJ+j+7VlhmfVBx9Tu+c7r47+j45I6F
HaLKTQIDAQABo4IBazCCAWcwCQYDVR0TBAIwADAtBglghkgBhvhCAQ0EIBYeRWFz
eS1SU0EgR2VuZXJhdGVkIENlcnRpZmljYXRlMB0GA1UdDgQWBBSNr6r2Jb6U9JDT
9Jekp5bwhxeGYDCB6QYDVR0jBIHhMIHegBTvOI0UUFinW02cF3L837msp1GwEKGB
uqSBtzCBtDELMAkGA1UEBhMCVVMxCzAJBgNVBAgTAkNBMRUwEwYDVQQHEwxTYW5G
cmFuY2lzY28xFTATBgNVBAoTDFBpeGdsbywgSW5jLjEQMA4GA1UECxMHVlBOLUNJ
RTEaMBgGA1UEAxMRdHVubmVsLnBpeGdsby5jb20xHDAaBgNVBCkTE0JhbGEgQ2hh
bmRyYXNla2FyYW4xHjAcBgkqhkiG9w0BCQEWD2JhbGFAcGl4Z2xvLmNvbYIJAKbb
xoOA5qB5MBMGA1UdJQQMMAoGCCsGAQUFBwMCMAsGA1UdDwQEAwIHgDANBgkqhkiG
9w0BAQUFAAOCAgEAYfc/S5te5c4ftXbY+Jv7VTNG4MPGnka0CAisayfZ+YaiEvHO
DMPAK+LnuNb8JqTNRAff/7QyW+pOdbxVw59fSxdqF9lmZwUue+rsGgyLzqgHwNAx
uI3efsz1tg5gsEPHYucrYtGQpvfQVggIoRY8naGIDVY65ELlzEZItZncLyW2H/3g
82J7q4iboXYjHsQUkXgAVcn31HrSJ6VGI2jklh/i2PFnBgMev07GIOz6Ch0Oz6sI
BwBg+GntEc1xQMKI137OLOQ1dUdFBgEyipFISiTaNx6rMfIBdjuP602iSdOPhTps
ME5DagxSAYP/MrPB1pAc05C6t+rV0bPtUp1I5HIbu1utufjXhMzImcSAZipr7RMV
03Af6xTeuSj3XJeeNRPamLcNchvpKp00B1GUcyNqaXh7UxTvbjq4VUfM9/74bJ9b
3OSEC537T5+d/PkVOl8vldwnRJTWWhEbJvhfA4N8pDxFt2RQdpjm84REfpRc8Y6o
iHD0RAbSh7luRis3FC3AxqkXTyi4TiJJ+T4nUKGOGJQr68FiMVS0mP/NlXEPtEF0
mDB+ho3xsJeV65s/T36y2+7sVEkD2jrZH/Ax4FsHlyOQEjXcsqto1hnaON/1qur8
yqxiJin+2tloZG8S8syl4+kL8v95i+5TqWWx2jZUrN9FLdGC9Aq85AmO6tI=
-----END CERTIFICATE-----
