Certificate:
    Data:
        Version: 3 (0x2)
        Serial Number: 241 (0xf1)
    Signature Algorithm: sha1WithRSAEncryption
        Issuer: C=US, ST=CA, L=SanFrancisco, O=Pixglo, Inc., OU=VPN-CIE, CN=tunnel.pixglo.com/name=Bala Chandrasekaran/emailAddress=bala@pixglo.com
        Validity
            Not Before: Feb 14 06:29:11 2018 GMT
            Not After : Feb 12 06:29:11 2028 GMT
        Subject: C=US, ST=CA, L=SanFrancisco, O=Pixglo, Inc., OU=VPN-CIE, CN=cie240/name=Bala Chandrasekaran/emailAddress=bala@pixglo.com
        Subject Public Key Info:
            Public Key Algorithm: rsaEncryption
                Public-Key: (4096 bit)
                Modulus:
                    00:ad:9e:f0:b9:24:5a:bf:79:01:06:56:ba:fd:d4:
                    59:90:d2:4f:83:b6:d2:fd:54:9e:35:6d:54:98:cc:
                    f8:6c:a5:14:bd:f1:6b:e5:5f:7d:fd:07:df:89:d0:
                    d7:e5:d6:2a:d2:e6:ac:fa:f1:be:f9:cb:2d:62:af:
                    d8:ab:9c:fc:79:ef:3a:a5:e9:9f:b8:a9:f8:dd:3a:
                    67:6d:ee:31:fe:60:86:53:e8:b6:76:10:10:26:54:
                    9d:f1:0b:4a:59:d3:c3:90:75:34:96:3c:d7:be:e2:
                    56:ef:c7:b7:1f:2a:9a:65:23:7d:4b:41:10:3b:be:
                    36:ec:e8:0a:ca:51:2a:5f:26:93:14:ee:73:88:9f:
                    74:6b:c5:f5:87:22:d3:7f:4a:b7:32:3a:ec:f6:08:
                    c2:30:83:50:ec:61:b2:8b:dc:57:1b:a5:28:5a:77:
                    80:bc:dc:a9:e6:d4:e0:71:72:8b:1a:86:93:76:b8:
                    45:b3:57:0a:2e:1e:9c:b2:f7:26:39:b7:69:fb:4b:
                    0d:01:49:f2:f1:e1:7a:8e:87:2d:ca:3b:9e:f4:62:
                    e0:49:65:70:7e:78:51:c4:c1:51:c4:77:fa:d4:f7:
                    37:3d:c0:07:73:38:63:39:c4:8e:f2:6c:31:b5:0f:
                    5e:1f:2f:5e:34:83:0a:5d:09:1b:a3:fd:ab:13:d0:
                    8f:48:69:0a:d8:ad:be:fb:fb:32:a9:c9:7b:b8:b9:
                    58:86:c4:97:2a:f2:f2:9d:55:f9:06:94:4a:b6:f0:
                    bc:ce:d4:64:20:47:b2:1f:b5:14:db:17:53:55:d1:
                    1c:84:27:06:5e:9c:af:8b:39:0c:18:12:be:27:c4:
                    56:f1:1d:fa:a5:0a:06:a6:8a:19:bf:e4:7c:4d:50:
                    53:20:bb:36:04:1d:88:2c:ae:a5:3a:eb:64:0c:e5:
                    cd:52:40:9b:15:c6:d6:f3:f7:08:a1:d3:1a:d4:11:
                    61:bf:85:71:76:1f:53:bb:3e:99:c6:7d:95:61:5f:
                    e3:20:d3:28:6c:84:ac:a7:a2:9b:2d:a7:42:e1:af:
                    62:cf:3c:99:76:7c:de:4e:96:ac:c1:cb:21:0c:c3:
                    d5:3a:02:0d:83:70:f1:7b:8b:bc:68:c6:5f:7d:4e:
                    b3:b1:0f:96:0c:59:95:aa:11:a7:fa:a9:53:df:20:
                    24:9d:17:5c:b4:21:98:d9:6c:91:f8:6a:27:29:9f:
                    1f:21:d1:60:b4:11:82:e5:f3:15:70:f3:35:dc:50:
                    e3:0c:22:93:7f:4f:38:a3:86:f2:9e:81:54:47:52:
                    4d:a8:14:55:57:b6:7a:c7:c2:cc:3b:68:55:5a:51:
                    b0:2f:58:ac:34:f6:07:8f:df:8f:cf:7a:52:f7:b7:
                    f9:37:3d
                Exponent: 65537 (0x10001)
        X509v3 extensions:
            X509v3 Basic Constraints: 
                CA:FALSE
            Netscape Comment: 
                Easy-RSA Generated Certificate
            X509v3 Subject Key Identifier: 
                45:48:33:EC:E0:AB:86:58:65:C3:C1:D8:58:BB:CA:53:7C:86:7C:91
            X509v3 Authority Key Identifier: 
                keyid:EF:38:8D:14:50:58:A7:5B:4D:9C:17:72:FC:DF:B9:AC:A7:51:B0:10
                DirName:/C=US/ST=CA/L=SanFrancisco/O=Pixglo, Inc./OU=VPN-CIE/CN=tunnel.pixglo.com/name=Bala Chandrasekaran/emailAddress=bala@pixglo.com
                serial:A6:DB:C6:83:80:E6:A0:79

            X509v3 Extended Key Usage: 
                TLS Web Client Authentication
            X509v3 Key Usage: 
                Digital Signature
    Signature Algorithm: sha1WithRSAEncryption
         de:78:3c:3f:3f:84:e4:1d:59:b3:37:06:97:90:18:57:21:3c:
         13:32:9f:58:3b:80:2f:1b:e6:1a:50:39:e6:6c:7a:76:dd:12:
         73:b9:f1:b8:5e:65:c9:3f:2a:00:e6:5b:88:6b:6b:a7:77:ae:
         f0:02:ae:60:90:e0:6d:5a:4c:39:f1:c7:f6:83:f3:be:5c:35:
         7f:39:83:0e:98:4a:b6:3a:b4:d9:e8:00:d9:8f:84:33:9b:51:
         89:e6:2c:a9:a0:b7:72:b7:65:2f:fc:74:28:ad:7b:dc:fc:95:
         9f:57:e7:1f:0c:fa:1c:bf:fb:5b:05:bd:88:94:b8:ca:89:cb:
         78:61:38:26:ee:b0:85:53:01:eb:0d:fa:70:5c:ca:4f:7d:04:
         d4:62:9b:ad:04:f9:e6:d5:74:de:31:1f:60:07:ed:fe:b0:be:
         ab:59:0f:f4:32:32:f3:8a:4d:21:59:07:7f:02:82:1d:b2:58:
         16:aa:ad:10:97:3c:2d:61:96:13:e4:bf:47:17:f3:aa:12:6d:
         e8:e5:ad:30:98:0c:15:48:24:fd:a1:57:29:ff:ec:04:88:39:
         a0:32:66:b8:4b:2d:90:fe:26:fc:4e:4c:4a:81:45:72:c3:be:
         a2:11:40:a9:0c:02:5f:f7:ff:0e:3b:b4:cd:49:df:56:f0:f9:
         33:b1:2b:4a:59:e8:ca:60:e1:ca:63:3f:c4:52:1b:8b:7b:70:
         4c:09:d3:0a:ad:64:e1:b8:19:31:11:a4:7d:8a:af:4b:02:5b:
         6a:6b:7e:43:cc:79:fb:8d:b9:22:9a:1c:ea:17:92:e9:02:d7:
         a5:f5:22:a0:aa:87:e1:91:70:4f:91:b1:10:3d:f2:2b:c1:5c:
         7c:f7:b4:09:17:cc:46:bd:e2:cc:c6:48:2a:b8:63:0d:3f:04:
         62:9b:16:37:32:5e:cd:88:71:75:ce:14:c9:55:6c:45:42:b3:
         3d:b4:5b:56:6e:97:d7:99:0e:6b:17:d7:a8:95:7b:c7:c8:2b:
         0f:e0:c9:7a:eb:94:4d:99:83:a5:40:1a:fd:8a:f1:81:f1:b3:
         07:d7:8d:41:df:0d:7e:74:9d:8b:ec:27:c0:06:cc:a5:07:7e:
         89:15:eb:2b:8b:46:e7:20:85:a5:47:c6:2e:f1:1c:58:d1:ab:
         01:b7:55:f2:e5:14:b7:60:03:c1:c9:4a:71:90:c4:b9:8b:26:
         09:3a:3c:7d:48:b2:1b:2e:17:ed:eb:8c:15:b9:53:a7:c2:28:
         ae:91:68:1e:7f:6a:a5:4a:59:8b:50:f3:2c:8c:11:a8:6e:29:
         8e:68:5f:cf:b1:48:06:e1:60:56:3e:34:f5:48:e3:8f:b1:0e:
         7f:7c:e6:a6:34:91:5e:6a
-----BEGIN CERTIFICATE-----
MIIHSDCCBTCgAwIBAgICAPEwDQYJKoZIhvcNAQEFBQAwgbQxCzAJBgNVBAYTAlVT
MQswCQYDVQQIEwJDQTEVMBMGA1UEBxMMU2FuRnJhbmNpc2NvMRUwEwYDVQQKEwxQ
aXhnbG8sIEluYy4xEDAOBgNVBAsTB1ZQTi1DSUUxGjAYBgNVBAMTEXR1bm5lbC5w
aXhnbG8uY29tMRwwGgYDVQQpExNCYWxhIENoYW5kcmFzZWthcmFuMR4wHAYJKoZI
hvcNAQkBFg9iYWxhQHBpeGdsby5jb20wHhcNMTgwMjE0MDYyOTExWhcNMjgwMjEy
MDYyOTExWjCBqTELMAkGA1UEBhMCVVMxCzAJBgNVBAgTAkNBMRUwEwYDVQQHEwxT
YW5GcmFuY2lzY28xFTATBgNVBAoTDFBpeGdsbywgSW5jLjEQMA4GA1UECxMHVlBO
LUNJRTEPMA0GA1UEAxMGY2llMjQwMRwwGgYDVQQpExNCYWxhIENoYW5kcmFzZWth
cmFuMR4wHAYJKoZIhvcNAQkBFg9iYWxhQHBpeGdsby5jb20wggIiMA0GCSqGSIb3
DQEBAQUAA4ICDwAwggIKAoICAQCtnvC5JFq/eQEGVrr91FmQ0k+DttL9VJ41bVSY
zPhspRS98WvlX339B9+J0Nfl1irS5qz68b75yy1ir9irnPx57zql6Z+4qfjdOmdt
7jH+YIZT6LZ2EBAmVJ3xC0pZ08OQdTSWPNe+4lbvx7cfKpplI31LQRA7vjbs6ArK
USpfJpMU7nOIn3RrxfWHItN/SrcyOuz2CMIwg1DsYbKL3FcbpShad4C83Knm1OBx
cosahpN2uEWzVwouHpyy9yY5t2n7Sw0BSfLx4XqOhy3KO570YuBJZXB+eFHEwVHE
d/rU9zc9wAdzOGM5xI7ybDG1D14fL140gwpdCRuj/asT0I9IaQrYrb77+zKpyXu4
uViGxJcq8vKdVfkGlEq28LzO1GQgR7IftRTbF1NV0RyEJwZenK+LOQwYEr4nxFbx
HfqlCgamihm/5HxNUFMguzYEHYgsrqU662QM5c1SQJsVxtbz9wih0xrUEWG/hXF2
H1O7PpnGfZVhX+Mg0yhshKynopstp0Lhr2LPPJl2fN5OlqzByyEMw9U6Ag2DcPF7
i7xoxl99TrOxD5YMWZWqEaf6qVPfICSdF1y0IZjZbJH4aicpnx8h0WC0EYLl8xVw
8zXcUOMMIpN/TzijhvKegVRHUk2oFFVXtnrHwsw7aFVaUbAvWKw09geP34/PelL3
t/k3PQIDAQABo4IBazCCAWcwCQYDVR0TBAIwADAtBglghkgBhvhCAQ0EIBYeRWFz
eS1SU0EgR2VuZXJhdGVkIENlcnRpZmljYXRlMB0GA1UdDgQWBBRFSDPs4KuGWGXD
wdhYu8pTfIZ8kTCB6QYDVR0jBIHhMIHegBTvOI0UUFinW02cF3L837msp1GwEKGB
uqSBtzCBtDELMAkGA1UEBhMCVVMxCzAJBgNVBAgTAkNBMRUwEwYDVQQHEwxTYW5G
cmFuY2lzY28xFTATBgNVBAoTDFBpeGdsbywgSW5jLjEQMA4GA1UECxMHVlBOLUNJ
RTEaMBgGA1UEAxMRdHVubmVsLnBpeGdsby5jb20xHDAaBgNVBCkTE0JhbGEgQ2hh
bmRyYXNla2FyYW4xHjAcBgkqhkiG9w0BCQEWD2JhbGFAcGl4Z2xvLmNvbYIJAKbb
xoOA5qB5MBMGA1UdJQQMMAoGCCsGAQUFBwMCMAsGA1UdDwQEAwIHgDANBgkqhkiG
9w0BAQUFAAOCAgEA3ng8Pz+E5B1ZszcGl5AYVyE8EzKfWDuALxvmGlA55mx6dt0S
c7nxuF5lyT8qAOZbiGtrp3eu8AKuYJDgbVpMOfHH9oPzvlw1fzmDDphKtjq02egA
2Y+EM5tRieYsqaC3crdlL/x0KK173PyVn1fnHwz6HL/7WwW9iJS4yonLeGE4Ju6w
hVMB6w36cFzKT30E1GKbrQT55tV03jEfYAft/rC+q1kP9DIy84pNIVkHfwKCHbJY
FqqtEJc8LWGWE+S/RxfzqhJt6OWtMJgMFUgk/aFXKf/sBIg5oDJmuEstkP4m/E5M
SoFFcsO+ohFAqQwCX/f/Dju0zUnfVvD5M7ErSlnoymDhymM/xFIbi3twTAnTCq1k
4bgZMRGkfYqvSwJbamt+Q8x5+425Ipoc6heS6QLXpfUioKqH4ZFwT5GxED3yK8Fc
fPe0CRfMRr3izMZIKrhjDT8EYpsWNzJezYhxdc4UyVVsRUKzPbRbVm6X15kOaxfX
qJV7x8grD+DJeuuUTZmDpUAa/YrxgfGzB9eNQd8NfnSdi+wnwAbMpQd+iRXrK4tG
5yCFpUfGLvEcWNGrAbdV8uUUt2ADwclKcZDEuYsmCTo8fUiyGy4X7euMFblTp8Io
rpFoHn9qpUpZi1DzLIwRqG4pjmhfz7FIBuFgVj409Ujjj7EOf3zmpjSRXmo=
-----END CERTIFICATE-----
