Certificate:
    Data:
        Version: 3 (0x2)
        Serial Number: 287 (0x11f)
    Signature Algorithm: sha1WithRSAEncryption
        Issuer: C=US, ST=CA, L=SanFrancisco, O=Pixglo, Inc., OU=VPN-CIE, CN=tunnel.pixglo.com/name=Bala Chandrasekaran/emailAddress=bala@pixglo.com
        Validity
            Not Before: Feb 14 06:29:50 2018 GMT
            Not After : Feb 12 06:29:50 2028 GMT
        Subject: C=US, ST=CA, L=SanFrancisco, O=Pixglo, Inc., OU=VPN-CIE, CN=cie286/name=Bala Chandrasekaran/emailAddress=bala@pixglo.com
        Subject Public Key Info:
            Public Key Algorithm: rsaEncryption
                Public-Key: (4096 bit)
                Modulus:
                    00:d6:3f:32:ee:79:d8:0e:b8:14:58:74:24:05:aa:
                    0a:6e:9a:3e:b4:c8:87:ad:ab:8e:71:73:b2:11:8c:
                    9f:cc:85:24:e8:da:6e:48:7d:be:6b:95:75:79:cb:
                    44:43:bb:a3:4d:36:80:36:4e:5d:c9:6f:2f:b0:cf:
                    0d:24:a9:a4:d1:f7:3d:08:b4:37:7a:0d:55:a9:6e:
                    8a:00:50:9a:3f:16:b6:07:92:f7:28:a5:cf:09:7a:
                    0f:61:b7:0f:09:4f:82:82:a5:29:ad:6a:82:20:df:
                    9a:1c:92:1f:e2:66:b0:98:e3:d0:f2:59:b5:7e:4a:
                    6e:72:8e:50:51:b7:a0:20:9f:ba:f8:2b:93:85:98:
                    de:1f:ce:49:09:1f:08:ec:08:7f:cd:4a:90:68:5f:
                    91:9a:09:66:93:20:3d:c5:b6:c0:d1:23:ca:24:b4:
                    f8:d6:5a:8e:2e:b2:dd:d1:63:d1:4a:f9:07:84:af:
                    31:b9:d2:68:96:20:45:f5:8a:3d:ae:06:e9:f4:31:
                    a5:f7:ec:96:df:bb:a9:46:a2:a2:f7:82:96:3d:8f:
                    d2:68:99:a0:b9:03:4a:f4:9d:f8:c6:99:9b:6b:81:
                    f8:b7:6d:ed:cd:6b:de:d1:b3:27:1c:ac:2a:eb:31:
                    ad:02:92:55:74:26:66:00:02:9f:64:3b:1c:7f:95:
                    0f:bd:2c:81:f6:c7:60:fc:1f:1e:e6:e0:a7:d5:7a:
                    00:40:9b:0a:74:44:dd:80:2a:62:db:6b:3b:41:67:
                    96:4d:45:8f:de:02:c0:4b:00:73:a3:96:7e:13:ef:
                    6f:8a:59:79:53:b8:03:6c:c0:73:d1:dd:75:c2:63:
                    06:c0:17:f4:c5:6e:48:ab:8b:7d:ba:82:2a:f9:0d:
                    a8:6a:61:4c:68:3f:c1:94:27:a9:f1:ea:d2:ef:ad:
                    3a:45:80:e3:33:50:76:b8:75:0e:0f:06:87:a4:44:
                    6a:de:ac:bf:d4:df:27:cf:67:7e:d3:1f:ac:50:89:
                    7d:0e:96:da:c1:96:8f:ab:01:44:8a:35:d9:6e:27:
                    0a:22:ee:a5:94:ab:ab:51:3b:22:67:92:56:6d:64:
                    a3:09:15:56:4e:9d:27:de:a0:a3:20:35:5f:72:90:
                    bb:69:3b:85:7c:ad:a4:3a:87:e4:9b:df:bd:d4:da:
                    f5:40:86:8e:01:4e:5a:26:d0:6e:7f:fe:c1:50:8f:
                    1f:2e:33:3f:10:7c:96:31:d9:fb:b2:5f:6d:d9:55:
                    55:0f:93:bc:be:0e:83:29:a0:97:cd:a8:2c:e2:b6:
                    6b:bc:ec:4f:42:0c:c1:60:50:67:49:e2:43:01:14:
                    64:3f:0f:3d:ae:a1:20:ff:fd:6b:71:64:cd:16:ee:
                    19:8d:4d
                Exponent: 65537 (0x10001)
        X509v3 extensions:
            X509v3 Basic Constraints: 
                CA:FALSE
            Netscape Comment: 
                Easy-RSA Generated Certificate
            X509v3 Subject Key Identifier: 
                16:41:5B:94:49:F1:8A:0C:23:C8:B5:E5:DD:FB:76:48:55:CE:F2:FF
            X509v3 Authority Key Identifier: 
                keyid:EF:38:8D:14:50:58:A7:5B:4D:9C:17:72:FC:DF:B9:AC:A7:51:B0:10
                DirName:/C=US/ST=CA/L=SanFrancisco/O=Pixglo, Inc./OU=VPN-CIE/CN=tunnel.pixglo.com/name=Bala Chandrasekaran/emailAddress=bala@pixglo.com
                serial:A6:DB:C6:83:80:E6:A0:79

            X509v3 Extended Key Usage: 
                TLS Web Client Authentication
            X509v3 Key Usage: 
                Digital Signature
    Signature Algorithm: sha1WithRSAEncryption
         85:65:fd:4b:e8:fc:33:32:d3:01:be:ec:cd:72:89:c8:16:ba:
         52:d7:e0:0f:fe:17:ec:dc:d9:03:7e:a3:83:2b:13:05:83:f8:
         3a:25:2c:b2:d3:3c:d0:c8:8f:29:69:5e:53:08:a9:23:e6:d4:
         27:52:30:fa:c5:d3:0c:d6:26:ab:02:60:a1:ca:03:41:b7:1f:
         61:a8:ab:18:f8:e8:d7:c8:98:85:d0:38:bc:44:ee:59:3a:db:
         94:ac:97:ad:63:2e:c0:20:e8:80:02:9f:87:d2:37:3a:80:95:
         ef:bd:28:b4:1c:88:68:f8:66:95:78:b8:0a:58:f4:b9:0d:b9:
         0c:4c:18:2b:84:34:fe:f5:75:88:e1:b7:ca:da:ab:78:86:a4:
         22:69:62:f3:c5:c5:2a:9e:a4:1d:28:fc:1a:23:5f:4f:ba:98:
         8a:af:8f:bc:40:04:80:5f:fb:a8:bd:01:6e:df:bb:56:09:fc:
         c9:d5:40:62:90:ae:64:e6:21:01:e5:98:38:02:5d:ed:20:0a:
         c8:6f:2d:54:8b:26:4d:a4:38:b8:da:5d:eb:8a:32:f1:38:d5:
         32:8a:79:18:91:d8:d9:17:80:3c:47:0f:6a:14:c8:6f:94:b5:
         db:83:21:6c:6c:05:c8:74:40:16:64:a0:c4:99:ca:fe:64:d9:
         c8:cb:3e:1c:1a:e9:a8:7e:ff:a6:53:e1:02:4e:03:83:47:df:
         b9:16:4d:1f:ce:ec:dd:aa:97:d1:23:f7:f7:59:0a:41:b2:d7:
         bc:df:53:87:d5:95:da:62:1b:42:9d:00:f2:44:41:df:d7:b8:
         6b:cb:b3:56:7f:74:61:8d:c0:d2:c2:ac:1f:06:40:da:13:57:
         b2:36:4f:e4:e3:ff:32:f7:09:49:82:32:bf:b0:98:ac:64:5d:
         5b:97:8f:a0:ce:4f:cc:6b:19:4d:88:65:f2:5a:dd:5b:3b:8c:
         e6:4c:bc:76:02:06:4a:a0:73:8c:b9:f3:77:1d:cc:d4:4a:5d:
         5d:0c:a4:4b:ab:96:f3:8e:39:89:e5:d5:b6:2b:69:9b:df:a9:
         b0:c8:f6:c1:76:30:3f:7c:45:bd:b5:c4:18:6e:33:00:69:75:
         39:52:78:15:08:2a:5d:45:c0:19:79:35:b5:34:7e:48:10:f7:
         50:12:93:40:ba:dc:2a:c2:22:1d:f5:9d:f7:55:d6:51:43:4c:
         ff:79:55:5c:f3:0b:c2:53:c1:c2:50:6c:a9:db:66:0c:a5:f2:
         96:f8:f8:94:ba:35:f0:36:d9:ec:7a:4a:1b:5a:64:67:71:df:
         dd:cb:e3:4b:b6:be:23:d8:f4:50:ab:c6:14:5e:64:b9:55:2a:
         5d:47:6c:31:92:3b:b6:be
-----BEGIN CERTIFICATE-----
MIIHSDCCBTCgAwIBAgICAR8wDQYJKoZIhvcNAQEFBQAwgbQxCzAJBgNVBAYTAlVT
MQswCQYDVQQIEwJDQTEVMBMGA1UEBxMMU2FuRnJhbmNpc2NvMRUwEwYDVQQKEwxQ
aXhnbG8sIEluYy4xEDAOBgNVBAsTB1ZQTi1DSUUxGjAYBgNVBAMTEXR1bm5lbC5w
aXhnbG8uY29tMRwwGgYDVQQpExNCYWxhIENoYW5kcmFzZWthcmFuMR4wHAYJKoZI
hvcNAQkBFg9iYWxhQHBpeGdsby5jb20wHhcNMTgwMjE0MDYyOTUwWhcNMjgwMjEy
MDYyOTUwWjCBqTELMAkGA1UEBhMCVVMxCzAJBgNVBAgTAkNBMRUwEwYDVQQHEwxT
YW5GcmFuY2lzY28xFTATBgNVBAoTDFBpeGdsbywgSW5jLjEQMA4GA1UECxMHVlBO
LUNJRTEPMA0GA1UEAxMGY2llMjg2MRwwGgYDVQQpExNCYWxhIENoYW5kcmFzZWth
cmFuMR4wHAYJKoZIhvcNAQkBFg9iYWxhQHBpeGdsby5jb20wggIiMA0GCSqGSIb3
DQEBAQUAA4ICDwAwggIKAoICAQDWPzLuedgOuBRYdCQFqgpumj60yIetq45xc7IR
jJ/MhSTo2m5Ifb5rlXV5y0RDu6NNNoA2Tl3Jby+wzw0kqaTR9z0ItDd6DVWpbooA
UJo/FrYHkvcopc8Jeg9htw8JT4KCpSmtaoIg35ockh/iZrCY49DyWbV+Sm5yjlBR
t6Agn7r4K5OFmN4fzkkJHwjsCH/NSpBoX5GaCWaTID3FtsDRI8oktPjWWo4ust3R
Y9FK+QeErzG50miWIEX1ij2uBun0MaX37Jbfu6lGoqL3gpY9j9JomaC5A0r0nfjG
mZtrgfi3be3Na97RsyccrCrrMa0CklV0JmYAAp9kOxx/lQ+9LIH2x2D8Hx7m4KfV
egBAmwp0RN2AKmLbaztBZ5ZNRY/eAsBLAHOjln4T72+KWXlTuANswHPR3XXCYwbA
F/TFbkiri326gir5DahqYUxoP8GUJ6nx6tLvrTpFgOMzUHa4dQ4PBoekRGrerL/U
3yfPZ37TH6xQiX0OltrBlo+rAUSKNdluJwoi7qWUq6tROyJnklZtZKMJFVZOnSfe
oKMgNV9ykLtpO4V8raQ6h+Sb373U2vVAho4BTlom0G5//sFQjx8uMz8QfJYx2fuy
X23ZVVUPk7y+DoMpoJfNqCzitmu87E9CDMFgUGdJ4kMBFGQ/Dz2uoSD//WtxZM0W
7hmNTQIDAQABo4IBazCCAWcwCQYDVR0TBAIwADAtBglghkgBhvhCAQ0EIBYeRWFz
eS1SU0EgR2VuZXJhdGVkIENlcnRpZmljYXRlMB0GA1UdDgQWBBQWQVuUSfGKDCPI
teXd+3ZIVc7y/zCB6QYDVR0jBIHhMIHegBTvOI0UUFinW02cF3L837msp1GwEKGB
uqSBtzCBtDELMAkGA1UEBhMCVVMxCzAJBgNVBAgTAkNBMRUwEwYDVQQHEwxTYW5G
cmFuY2lzY28xFTATBgNVBAoTDFBpeGdsbywgSW5jLjEQMA4GA1UECxMHVlBOLUNJ
RTEaMBgGA1UEAxMRdHVubmVsLnBpeGdsby5jb20xHDAaBgNVBCkTE0JhbGEgQ2hh
bmRyYXNla2FyYW4xHjAcBgkqhkiG9w0BCQEWD2JhbGFAcGl4Z2xvLmNvbYIJAKbb
xoOA5qB5MBMGA1UdJQQMMAoGCCsGAQUFBwMCMAsGA1UdDwQEAwIHgDANBgkqhkiG
9w0BAQUFAAOCAgEAhWX9S+j8MzLTAb7szXKJyBa6UtfgD/4X7NzZA36jgysTBYP4
OiUsstM80MiPKWleUwipI+bUJ1Iw+sXTDNYmqwJgocoDQbcfYairGPjo18iYhdA4
vETuWTrblKyXrWMuwCDogAKfh9I3OoCV770otByIaPhmlXi4Clj0uQ25DEwYK4Q0
/vV1iOG3ytqreIakImli88XFKp6kHSj8GiNfT7qYiq+PvEAEgF/7qL0Bbt+7Vgn8
ydVAYpCuZOYhAeWYOAJd7SAKyG8tVIsmTaQ4uNpd64oy8TjVMop5GJHY2ReAPEcP
ahTIb5S124MhbGwFyHRAFmSgxJnK/mTZyMs+HBrpqH7/plPhAk4Dg0ffuRZNH87s
3aqX0SP391kKQbLXvN9Th9WV2mIbQp0A8kRB39e4a8uzVn90YY3A0sKsHwZA2hNX
sjZP5OP/MvcJSYIyv7CYrGRdW5ePoM5PzGsZTYhl8lrdWzuM5ky8dgIGSqBzjLnz
dx3M1EpdXQykS6uW8445ieXVtitpm9+psMj2wXYwP3xFvbXEGG4zAGl1OVJ4FQgq
XUXAGXk1tTR+SBD3UBKTQLrcKsIiHfWd91XWUUNM/3lVXPMLwlPBwlBsqdtmDKXy
lvj4lLo18DbZ7HpKG1pkZ3Hf3cvjS7a+I9j0UKvGFF5kuVUqXUdsMZI7tr4=
-----END CERTIFICATE-----
