Certificate:
    Data:
        Version: 3 (0x2)
        Serial Number: 281 (0x119)
    Signature Algorithm: sha1WithRSAEncryption
        Issuer: C=US, ST=CA, L=SanFrancisco, O=Pixglo, Inc., OU=VPN-CIE, CN=tunnel.pixglo.com/name=Bala Chandrasekaran/emailAddress=bala@pixglo.com
        Validity
            Not Before: Feb 14 06:29:45 2018 GMT
            Not After : Feb 12 06:29:45 2028 GMT
        Subject: C=US, ST=CA, L=SanFrancisco, O=Pixglo, Inc., OU=VPN-CIE, CN=cie280/name=Bala Chandrasekaran/emailAddress=bala@pixglo.com
        Subject Public Key Info:
            Public Key Algorithm: rsaEncryption
                Public-Key: (4096 bit)
                Modulus:
                    00:b6:26:31:83:b1:17:be:96:e8:32:32:42:7e:1b:
                    53:2d:6d:cf:c1:e9:63:b3:78:16:fb:8a:80:d3:9d:
                    40:98:6e:69:b7:f3:8f:20:f3:14:e3:42:90:d6:b0:
                    91:4a:1e:c7:97:03:34:cd:20:53:cb:9f:3c:34:ab:
                    a4:3c:fb:11:3e:ff:b6:03:ae:04:83:f3:5b:55:75:
                    ea:f2:b4:5b:27:ea:a9:ac:6a:4c:e2:dc:07:cc:41:
                    96:8c:2b:25:1d:1d:5f:ff:d4:ab:8c:64:90:89:b2:
                    1f:af:ba:2b:bd:81:39:40:ed:dd:20:8e:64:9e:a4:
                    67:4a:be:23:69:a4:3a:96:3f:78:0e:67:bb:2e:75:
                    2a:dd:9e:11:d4:37:66:d3:e5:c4:12:29:9c:49:44:
                    7b:a5:19:df:cb:bc:53:cf:2d:39:6a:30:3e:91:72:
                    8b:24:bc:cf:ab:fa:2e:45:dc:92:75:b1:06:9d:6d:
                    33:f9:86:1c:25:85:6f:47:2a:23:74:2c:16:f9:3b:
                    2c:f0:0c:15:6a:28:53:71:89:36:f3:6e:2c:96:85:
                    5c:b1:55:df:06:60:bc:7c:93:44:e1:1e:71:09:aa:
                    d8:30:74:8d:d2:f4:53:7d:d6:a5:dc:53:33:fa:5f:
                    16:a7:db:24:ff:94:51:d9:ac:04:08:9d:47:82:80:
                    74:b7:14:53:44:96:d5:a3:f3:d4:b3:f9:1e:73:6c:
                    b8:24:91:11:09:55:27:fd:d4:50:f6:38:29:c6:9c:
                    b3:dd:83:6f:86:4f:af:72:0c:1a:66:48:4a:5b:fa:
                    51:96:0d:10:e1:d8:89:7d:81:cf:a3:31:1d:58:4d:
                    f1:24:06:25:c0:75:de:96:83:d5:c1:61:44:61:ba:
                    34:eb:1c:c3:e2:87:9b:39:8d:ab:8b:f7:6d:f0:cc:
                    04:fd:a3:34:e4:9a:fb:f0:9b:56:21:c2:95:3e:37:
                    66:75:65:d6:a9:76:51:52:f1:21:27:28:cd:0b:97:
                    84:06:b9:d2:1c:53:77:57:a5:cb:60:4b:55:70:26:
                    02:53:af:ea:1a:0a:79:15:22:aa:92:40:19:52:a7:
                    7b:57:a0:a3:83:70:23:10:40:55:57:37:c7:b8:29:
                    fc:e0:22:76:cb:49:34:89:3c:4e:fb:b7:56:ca:8a:
                    d1:6e:8c:58:1e:ab:90:db:a9:60:53:5d:4f:12:04:
                    f8:40:24:63:2c:44:cf:e0:77:c8:d1:31:03:4c:ff:
                    73:66:a4:b7:1f:de:9f:fc:61:45:df:12:62:1a:f7:
                    92:dc:d0:a6:6e:de:0d:39:cb:2d:57:1e:99:49:69:
                    50:bb:62:a6:fc:f4:1f:48:bf:8a:f2:93:d8:b9:88:
                    48:40:e9
                Exponent: 65537 (0x10001)
        X509v3 extensions:
            X509v3 Basic Constraints: 
                CA:FALSE
            Netscape Comment: 
                Easy-RSA Generated Certificate
            X509v3 Subject Key Identifier: 
                77:AF:B3:6D:E4:53:16:E0:A0:3D:74:2F:8C:41:D5:15:2E:83:8D:F1
            X509v3 Authority Key Identifier: 
                keyid:EF:38:8D:14:50:58:A7:5B:4D:9C:17:72:FC:DF:B9:AC:A7:51:B0:10
                DirName:/C=US/ST=CA/L=SanFrancisco/O=Pixglo, Inc./OU=VPN-CIE/CN=tunnel.pixglo.com/name=Bala Chandrasekaran/emailAddress=bala@pixglo.com
                serial:A6:DB:C6:83:80:E6:A0:79

            X509v3 Extended Key Usage: 
                TLS Web Client Authentication
            X509v3 Key Usage: 
                Digital Signature
    Signature Algorithm: sha1WithRSAEncryption
         31:25:f7:30:6e:07:2d:7d:05:65:30:c4:06:fe:3e:e9:b0:13:
         c9:4a:9b:a6:b7:8e:82:1b:18:7a:3c:fd:72:3c:c5:bc:ef:7d:
         8b:c3:a0:31:d4:13:00:15:f9:15:95:41:68:cf:70:0e:b7:c1:
         b8:58:33:4e:99:b5:e5:39:27:77:f9:6e:71:9e:69:61:06:ed:
         45:97:12:31:84:25:80:0b:ce:14:32:b5:1f:11:fb:55:ce:80:
         07:42:fc:83:63:cb:41:40:1e:a0:73:cb:77:8a:92:37:61:e5:
         c4:3a:a9:a3:4f:d4:e3:a7:9d:88:98:c7:89:00:e6:c8:19:92:
         1f:64:aa:9d:d3:ef:9a:dd:30:ef:74:35:e4:7b:c1:30:6b:f5:
         45:c1:71:64:3e:cc:7f:87:26:04:79:2a:3d:98:bd:20:8e:05:
         3a:15:b0:13:47:92:e8:c7:92:c0:f1:21:10:33:7e:53:d0:c6:
         2b:e1:57:dc:05:41:41:0c:a7:7a:d5:6c:fc:96:23:75:59:3f:
         55:b9:69:79:81:cb:3e:a2:23:4a:39:de:79:f7:41:22:f1:04:
         0b:6e:8d:0d:89:0a:29:38:d8:ce:a4:bf:ae:66:58:0f:d7:4b:
         18:6a:e1:d4:4c:be:c0:c1:0f:0a:53:ab:2e:37:29:79:21:34:
         53:08:8c:7b:2b:ba:77:9c:e8:7c:ce:30:2f:2f:52:0f:14:e4:
         bb:80:27:2e:a6:84:c6:2c:c0:0c:98:b4:4e:ac:07:b2:60:69:
         31:33:ec:b6:17:37:c3:80:66:73:e3:4d:1b:74:64:b6:36:89:
         95:59:ca:7c:2b:0c:2d:a4:f7:d2:2d:ec:60:ff:ea:93:e8:62:
         9c:15:42:63:7a:1b:73:d9:8e:b0:85:01:93:6c:c7:33:a1:bf:
         55:0e:39:3c:b0:8a:37:08:be:7d:77:58:b2:0f:79:ad:bb:2c:
         a2:f1:ee:99:b3:f5:cc:83:e6:22:af:17:3d:f4:75:86:cc:6a:
         b7:77:29:39:c4:09:78:b1:ad:5a:6f:98:61:81:3f:95:56:d0:
         22:b5:62:40:dd:92:37:c9:51:ea:58:d9:21:88:4f:e3:77:e0:
         1d:37:dd:c5:50:9a:5d:e1:44:6c:3f:d5:6f:ae:ca:fb:3f:aa:
         08:7a:03:56:07:72:05:00:fd:b8:92:0b:02:29:c1:4f:6e:26:
         cd:48:d1:1c:82:5b:9f:72:ca:0f:32:a3:3f:b5:81:15:e0:6c:
         80:11:31:2a:c2:7a:de:06:24:cf:7a:ee:8b:86:74:02:16:47:
         a4:3c:3b:39:88:da:ea:4d:e8:4f:69:3f:37:56:28:29:2c:bf:
         0a:3e:19:8a:a8:28:39:99
-----BEGIN CERTIFICATE-----
MIIHSDCCBTCgAwIBAgICARkwDQYJKoZIhvcNAQEFBQAwgbQxCzAJBgNVBAYTAlVT
MQswCQYDVQQIEwJDQTEVMBMGA1UEBxMMU2FuRnJhbmNpc2NvMRUwEwYDVQQKEwxQ
aXhnbG8sIEluYy4xEDAOBgNVBAsTB1ZQTi1DSUUxGjAYBgNVBAMTEXR1bm5lbC5w
aXhnbG8uY29tMRwwGgYDVQQpExNCYWxhIENoYW5kcmFzZWthcmFuMR4wHAYJKoZI
hvcNAQkBFg9iYWxhQHBpeGdsby5jb20wHhcNMTgwMjE0MDYyOTQ1WhcNMjgwMjEy
MDYyOTQ1WjCBqTELMAkGA1UEBhMCVVMxCzAJBgNVBAgTAkNBMRUwEwYDVQQHEwxT
YW5GcmFuY2lzY28xFTATBgNVBAoTDFBpeGdsbywgSW5jLjEQMA4GA1UECxMHVlBO
LUNJRTEPMA0GA1UEAxMGY2llMjgwMRwwGgYDVQQpExNCYWxhIENoYW5kcmFzZWth
cmFuMR4wHAYJKoZIhvcNAQkBFg9iYWxhQHBpeGdsby5jb20wggIiMA0GCSqGSIb3
DQEBAQUAA4ICDwAwggIKAoICAQC2JjGDsRe+lugyMkJ+G1Mtbc/B6WOzeBb7ioDT
nUCYbmm3848g8xTjQpDWsJFKHseXAzTNIFPLnzw0q6Q8+xE+/7YDrgSD81tVdery
tFsn6qmsakzi3AfMQZaMKyUdHV//1KuMZJCJsh+vuiu9gTlA7d0gjmSepGdKviNp
pDqWP3gOZ7sudSrdnhHUN2bT5cQSKZxJRHulGd/LvFPPLTlqMD6RcoskvM+r+i5F
3JJ1sQadbTP5hhwlhW9HKiN0LBb5OyzwDBVqKFNxiTbzbiyWhVyxVd8GYLx8k0Th
HnEJqtgwdI3S9FN91qXcUzP6Xxan2yT/lFHZrAQInUeCgHS3FFNEltWj89Sz+R5z
bLgkkREJVSf91FD2OCnGnLPdg2+GT69yDBpmSEpb+lGWDRDh2Il9gc+jMR1YTfEk
BiXAdd6Wg9XBYURhujTrHMPih5s5jauL923wzAT9ozTkmvvwm1YhwpU+N2Z1Zdap
dlFS8SEnKM0Ll4QGudIcU3dXpctgS1VwJgJTr+oaCnkVIqqSQBlSp3tXoKODcCMQ
QFVXN8e4KfzgInbLSTSJPE77t1bKitFujFgeq5DbqWBTXU8SBPhAJGMsRM/gd8jR
MQNM/3NmpLcf3p/8YUXfEmIa95Lc0KZu3g05yy1XHplJaVC7Yqb89B9Iv4ryk9i5
iEhA6QIDAQABo4IBazCCAWcwCQYDVR0TBAIwADAtBglghkgBhvhCAQ0EIBYeRWFz
eS1SU0EgR2VuZXJhdGVkIENlcnRpZmljYXRlMB0GA1UdDgQWBBR3r7Nt5FMW4KA9
dC+MQdUVLoON8TCB6QYDVR0jBIHhMIHegBTvOI0UUFinW02cF3L837msp1GwEKGB
uqSBtzCBtDELMAkGA1UEBhMCVVMxCzAJBgNVBAgTAkNBMRUwEwYDVQQHEwxTYW5G
cmFuY2lzY28xFTATBgNVBAoTDFBpeGdsbywgSW5jLjEQMA4GA1UECxMHVlBOLUNJ
RTEaMBgGA1UEAxMRdHVubmVsLnBpeGdsby5jb20xHDAaBgNVBCkTE0JhbGEgQ2hh
bmRyYXNla2FyYW4xHjAcBgkqhkiG9w0BCQEWD2JhbGFAcGl4Z2xvLmNvbYIJAKbb
xoOA5qB5MBMGA1UdJQQMMAoGCCsGAQUFBwMCMAsGA1UdDwQEAwIHgDANBgkqhkiG
9w0BAQUFAAOCAgEAMSX3MG4HLX0FZTDEBv4+6bATyUqbpreOghsYejz9cjzFvO99
i8OgMdQTABX5FZVBaM9wDrfBuFgzTpm15Tknd/lucZ5pYQbtRZcSMYQlgAvOFDK1
HxH7Vc6AB0L8g2PLQUAeoHPLd4qSN2HlxDqpo0/U46ediJjHiQDmyBmSH2SqndPv
mt0w73Q15HvBMGv1RcFxZD7Mf4cmBHkqPZi9II4FOhWwE0eS6MeSwPEhEDN+U9DG
K+FX3AVBQQynetVs/JYjdVk/VblpeYHLPqIjSjneefdBIvEEC26NDYkKKTjYzqS/
rmZYD9dLGGrh1Ey+wMEPClOrLjcpeSE0UwiMeyu6d5zofM4wLy9SDxTku4AnLqaE
xizADJi0TqwHsmBpMTPsthc3w4Bmc+NNG3RktjaJlVnKfCsMLaT30i3sYP/qk+hi
nBVCY3obc9mOsIUBk2zHM6G/VQ45PLCKNwi+fXdYsg95rbssovHumbP1zIPmIq8X
PfR1hsxqt3cpOcQJeLGtWm+YYYE/lVbQIrViQN2SN8lR6ljZIYhP43fgHTfdxVCa
XeFEbD/Vb67K+z+qCHoDVgdyBQD9uJILAinBT24mzUjRHIJbn3LKDzKjP7WBFeBs
gBExKsJ63gYkz3rui4Z0AhZHpDw7OYja6k3oT2k/N1YoKSy/Cj4ZiqgoOZk=
-----END CERTIFICATE-----
