Certificate:
    Data:
        Version: 3 (0x2)
        Serial Number: 21 (0x15)
    Signature Algorithm: sha1WithRSAEncryption
        Issuer: C=US, ST=CA, L=SanFrancisco, O=Pixglo, Inc., OU=VPN-CIE, CN=tunnel.pixglo.com/name=Bala Chandrasekaran/emailAddress=bala@pixglo.com
        Validity
            Not Before: Feb 14 06:24:27 2018 GMT
            Not After : Feb 12 06:24:27 2028 GMT
        Subject: C=US, ST=CA, L=SanFrancisco, O=Pixglo, Inc., OU=VPN-CIE, CN=cie20/name=Bala Chandrasekaran/emailAddress=bala@pixglo.com
        Subject Public Key Info:
            Public Key Algorithm: rsaEncryption
                Public-Key: (4096 bit)
                Modulus:
                    00:a8:02:aa:15:d4:64:4e:3c:d3:6a:cb:ee:e0:28:
                    68:fe:87:6c:c0:5a:f9:35:90:ed:4e:2a:3b:8f:2c:
                    14:98:4a:d3:e5:d3:19:b7:10:a9:d9:c6:ce:ff:18:
                    a4:f1:fd:c3:1c:d0:dd:62:9a:ea:c3:ec:93:90:23:
                    ef:ba:ac:b9:17:7c:b8:b9:79:1d:6e:f2:b6:9a:f9:
                    b6:e6:f6:50:a0:70:23:d7:46:e7:7f:c4:ae:38:15:
                    6c:61:10:4c:cc:da:f9:f7:f1:54:6b:3c:88:86:80:
                    6b:c0:0d:c0:89:c8:1a:68:68:a6:0d:c2:36:b5:80:
                    d6:a5:af:5a:33:96:e8:fd:f5:3c:cc:4a:f8:22:e9:
                    a0:71:1f:65:5b:16:c1:84:f0:1a:c3:f6:6a:54:12:
                    69:cd:e4:b9:a3:a5:3f:3d:71:6c:75:d7:9e:90:21:
                    57:8a:c4:2f:bd:b5:ed:6f:ba:06:c0:96:17:fa:f1:
                    75:8d:49:4b:8f:15:0b:d8:79:3a:d3:ae:47:92:60:
                    2f:81:18:71:d1:e3:db:85:a4:9a:b4:2d:fd:10:ea:
                    b1:8d:2d:ff:7b:a9:75:5b:b4:63:90:04:7c:3b:90:
                    69:7e:d7:11:6e:41:27:cd:f7:38:16:e0:5f:7a:c0:
                    5e:e8:56:7c:13:c2:66:a9:d9:b0:a6:df:30:c8:ea:
                    c7:69:15:0f:ff:6f:2c:23:78:9e:b4:22:32:19:f5:
                    96:f7:36:57:60:b1:a4:fc:45:af:74:12:0b:29:bc:
                    81:c6:b2:cb:ab:26:45:d4:e3:eb:35:17:6b:fe:c7:
                    1d:3b:18:a3:81:b8:e1:19:16:3e:0c:15:cb:e6:5c:
                    b0:98:fd:a4:82:8a:c3:a8:6e:06:43:c4:43:c9:3e:
                    b8:d8:81:d9:29:9d:32:41:d4:65:15:07:e6:4f:5d:
                    2a:82:3b:37:fe:6c:b3:f5:af:2a:77:1f:30:9e:b7:
                    bf:bc:bf:ca:7e:87:9e:8c:00:8c:b5:d0:11:f2:e2:
                    2f:79:ec:40:1d:9d:67:3b:fd:ab:ab:e7:43:08:f9:
                    91:0b:5d:d4:4d:ad:f6:b5:25:c1:8a:6a:29:66:7a:
                    4b:6d:45:f5:28:d3:e4:f9:b9:5b:ed:99:c2:d3:d2:
                    36:3e:90:a9:2c:2f:4d:d8:2b:4f:21:77:d4:c7:ed:
                    94:34:cd:6b:89:8d:ed:1a:8d:da:dd:79:70:07:3b:
                    23:53:34:51:8a:d0:01:2f:b8:53:fb:63:a3:8f:9d:
                    bc:f2:74:62:fd:49:26:01:45:6b:63:97:43:e7:7f:
                    65:f0:fa:38:76:2d:07:24:40:1c:7a:97:11:3e:e2:
                    6a:3c:21:40:fc:74:00:c6:91:1d:39:5a:d1:82:22:
                    a2:7b:b5
                Exponent: 65537 (0x10001)
        X509v3 extensions:
            X509v3 Basic Constraints: 
                CA:FALSE
            Netscape Comment: 
                Easy-RSA Generated Certificate
            X509v3 Subject Key Identifier: 
                8E:60:2F:C7:25:D6:80:12:71:F1:DA:88:02:3C:B4:A7:47:CD:D8:4A
            X509v3 Authority Key Identifier: 
                keyid:EF:38:8D:14:50:58:A7:5B:4D:9C:17:72:FC:DF:B9:AC:A7:51:B0:10
                DirName:/C=US/ST=CA/L=SanFrancisco/O=Pixglo, Inc./OU=VPN-CIE/CN=tunnel.pixglo.com/name=Bala Chandrasekaran/emailAddress=bala@pixglo.com
                serial:A6:DB:C6:83:80:E6:A0:79

            X509v3 Extended Key Usage: 
                TLS Web Client Authentication
            X509v3 Key Usage: 
                Digital Signature
    Signature Algorithm: sha1WithRSAEncryption
         28:a6:0c:dd:5d:a2:97:7b:e8:ff:44:09:c3:be:24:31:2e:25:
         03:93:a8:2c:dc:c4:4a:9c:27:9f:2d:5c:20:7a:7e:55:a4:ef:
         35:45:d6:54:0f:20:e2:1f:d3:7b:1c:00:de:a4:7b:44:a0:5e:
         51:40:0d:0a:00:2e:c6:72:91:ba:e1:d3:4c:83:19:12:cc:e9:
         2e:78:04:78:bf:3b:11:97:04:10:64:56:b1:03:fe:6d:78:fb:
         15:91:50:61:0f:6f:94:76:44:be:06:43:57:f4:d6:92:0b:9a:
         d6:c3:91:72:5c:61:ef:bf:06:8e:89:1e:d8:16:f6:86:b0:4e:
         68:02:26:c8:34:4c:e2:cc:d7:7d:cd:18:f1:e2:62:b7:f6:cc:
         35:a8:d2:83:58:05:5f:f6:9d:67:82:ee:29:91:fa:22:8a:33:
         ea:1b:65:75:2d:41:cc:ba:8e:35:69:03:e7:86:91:aa:fa:6c:
         a9:96:b3:37:71:57:3f:9a:ab:14:0d:a6:cc:49:36:05:1c:7f:
         65:21:1b:87:bb:9d:d7:eb:23:ec:f8:bb:e4:58:9f:30:34:3a:
         fe:ba:04:76:a3:0b:d1:fb:39:c2:55:94:31:d0:0d:68:8b:68:
         c8:ca:b3:f0:10:03:37:3d:5c:9d:b7:85:02:39:39:1c:bb:03:
         af:54:18:ca:d6:63:d4:f1:85:a0:2c:6b:8d:7a:7f:04:fe:11:
         b3:35:d3:4e:ed:7d:fc:0e:22:e7:78:7d:9b:32:42:7a:b2:b4:
         6d:f3:6e:50:90:72:78:fd:42:f1:29:da:6d:f5:b3:81:6e:dc:
         d6:ec:10:77:c9:c5:eb:4a:b0:27:1c:49:04:9a:cf:96:61:0d:
         35:9b:50:88:17:e2:31:0a:fc:c9:34:fc:c2:fc:10:c5:b8:9c:
         6e:d6:98:84:93:46:bd:b0:8a:24:ef:84:f0:fa:29:99:76:2f:
         28:c9:cb:77:2d:9e:d0:59:ba:1d:df:c2:7c:b0:90:9f:61:be:
         a8:12:f9:29:49:5a:79:fa:28:69:df:bf:24:9e:da:ad:96:41:
         2a:76:f7:f6:8e:94:a5:a7:f1:1b:52:63:a0:8d:9a:fe:12:48:
         c1:b2:ab:c9:ec:47:0a:a1:46:65:3f:83:ff:f0:37:49:c2:f2:
         35:10:86:3b:15:e4:1c:f5:50:8c:11:f9:5e:a3:d9:96:df:78:
         b0:fd:9b:5d:68:a6:74:fc:15:e2:14:8a:08:1e:9b:67:d5:16:
         f4:17:42:2c:68:20:c6:cf:30:43:04:74:76:2b:2e:8e:44:37:
         8c:4e:78:91:f9:4c:10:88:57:fa:48:20:00:d5:17:8a:a2:6c:
         e1:52:a0:56:ac:f6:81:a0
-----BEGIN CERTIFICATE-----
MIIHRjCCBS6gAwIBAgIBFTANBgkqhkiG9w0BAQUFADCBtDELMAkGA1UEBhMCVVMx
CzAJBgNVBAgTAkNBMRUwEwYDVQQHEwxTYW5GcmFuY2lzY28xFTATBgNVBAoTDFBp
eGdsbywgSW5jLjEQMA4GA1UECxMHVlBOLUNJRTEaMBgGA1UEAxMRdHVubmVsLnBp
eGdsby5jb20xHDAaBgNVBCkTE0JhbGEgQ2hhbmRyYXNla2FyYW4xHjAcBgkqhkiG
9w0BCQEWD2JhbGFAcGl4Z2xvLmNvbTAeFw0xODAyMTQwNjI0MjdaFw0yODAyMTIw
NjI0MjdaMIGoMQswCQYDVQQGEwJVUzELMAkGA1UECBMCQ0ExFTATBgNVBAcTDFNh
bkZyYW5jaXNjbzEVMBMGA1UEChMMUGl4Z2xvLCBJbmMuMRAwDgYDVQQLEwdWUE4t
Q0lFMQ4wDAYDVQQDEwVjaWUyMDEcMBoGA1UEKRMTQmFsYSBDaGFuZHJhc2VrYXJh
bjEeMBwGCSqGSIb3DQEJARYPYmFsYUBwaXhnbG8uY29tMIICIjANBgkqhkiG9w0B
AQEFAAOCAg8AMIICCgKCAgEAqAKqFdRkTjzTasvu4Cho/odswFr5NZDtTio7jywU
mErT5dMZtxCp2cbO/xik8f3DHNDdYprqw+yTkCPvuqy5F3y4uXkdbvK2mvm25vZQ
oHAj10bnf8SuOBVsYRBMzNr59/FUazyIhoBrwA3AicgaaGimDcI2tYDWpa9aM5bo
/fU8zEr4IumgcR9lWxbBhPAaw/ZqVBJpzeS5o6U/PXFsddeekCFXisQvvbXtb7oG
wJYX+vF1jUlLjxUL2Hk6065HkmAvgRhx0ePbhaSatC39EOqxjS3/e6l1W7RjkAR8
O5BpftcRbkEnzfc4FuBfesBe6FZ8E8Jmqdmwpt8wyOrHaRUP/28sI3ietCIyGfWW
9zZXYLGk/EWvdBILKbyBxrLLqyZF1OPrNRdr/scdOxijgbjhGRY+DBXL5lywmP2k
gorDqG4GQ8RDyT642IHZKZ0yQdRlFQfmT10qgjs3/myz9a8qdx8wnre/vL/Kfoee
jACMtdAR8uIveexAHZ1nO/2rq+dDCPmRC13UTa32tSXBimopZnpLbUX1KNPk+blb
7ZnC09I2PpCpLC9N2CtPIXfUx+2UNM1riY3tGo3a3XlwBzsjUzRRitABL7hT+2Oj
j5288nRi/UkmAUVrY5dD539l8Po4di0HJEAcepcRPuJqPCFA/HQAxpEdOVrRgiKi
e7UCAwEAAaOCAWswggFnMAkGA1UdEwQCMAAwLQYJYIZIAYb4QgENBCAWHkVhc3kt
UlNBIEdlbmVyYXRlZCBDZXJ0aWZpY2F0ZTAdBgNVHQ4EFgQUjmAvxyXWgBJx8dqI
Ajy0p0fN2EowgekGA1UdIwSB4TCB3oAU7ziNFFBYp1tNnBdy/N+5rKdRsBChgbqk
gbcwgbQxCzAJBgNVBAYTAlVTMQswCQYDVQQIEwJDQTEVMBMGA1UEBxMMU2FuRnJh
bmNpc2NvMRUwEwYDVQQKEwxQaXhnbG8sIEluYy4xEDAOBgNVBAsTB1ZQTi1DSUUx
GjAYBgNVBAMTEXR1bm5lbC5waXhnbG8uY29tMRwwGgYDVQQpExNCYWxhIENoYW5k
cmFzZWthcmFuMR4wHAYJKoZIhvcNAQkBFg9iYWxhQHBpeGdsby5jb22CCQCm28aD
gOageTATBgNVHSUEDDAKBggrBgEFBQcDAjALBgNVHQ8EBAMCB4AwDQYJKoZIhvcN
AQEFBQADggIBACimDN1dopd76P9ECcO+JDEuJQOTqCzcxEqcJ58tXCB6flWk7zVF
1lQPIOIf03scAN6ke0SgXlFADQoALsZykbrh00yDGRLM6S54BHi/OxGXBBBkVrED
/m14+xWRUGEPb5R2RL4GQ1f01pILmtbDkXJcYe+/Bo6JHtgW9oawTmgCJsg0TOLM
133NGPHiYrf2zDWo0oNYBV/2nWeC7imR+iKKM+obZXUtQcy6jjVpA+eGkar6bKmW
szdxVz+aqxQNpsxJNgUcf2UhG4e7ndfrI+z4u+RYnzA0Ov66BHajC9H7OcJVlDHQ
DWiLaMjKs/AQAzc9XJ23hQI5ORy7A69UGMrWY9TxhaAsa416fwT+EbM1007tffwO
Iud4fZsyQnqytG3zblCQcnj9QvEp2m31s4Fu3NbsEHfJxetKsCccSQSaz5ZhDTWb
UIgX4jEK/Mk0/ML8EMW4nG7WmISTRr2wiiTvhPD6KZl2LyjJy3ctntBZuh3fwnyw
kJ9hvqgS+SlJWnn6KGnfvySe2q2WQSp29/aOlKWn8RtSY6CNmv4SSMGyq8nsRwqh
RmU/g//wN0nC8jUQhjsV5Bz1UIwR+V6j2ZbfeLD9m11opnT8FeIUiggem2fVFvQX
QixoIMbPMEMEdHYrLo5EN4xOeJH5TBCIV/pIIADVF4qibOFSoFas9oGg
-----END CERTIFICATE-----
