Certificate:
    Data:
        Version: 3 (0x2)
        Serial Number: 28 (0x1c)
    Signature Algorithm: sha1WithRSAEncryption
        Issuer: C=US, ST=CA, L=SanFrancisco, O=Pixglo, Inc., OU=VPN-CIE, CN=tunnel.pixglo.com/name=Bala Chandrasekaran/emailAddress=bala@pixglo.com
        Validity
            Not Before: Feb 14 06:24:31 2018 GMT
            Not After : Feb 12 06:24:31 2028 GMT
        Subject: C=US, ST=CA, L=SanFrancisco, O=Pixglo, Inc., OU=VPN-CIE, CN=cie27/name=Bala Chandrasekaran/emailAddress=bala@pixglo.com
        Subject Public Key Info:
            Public Key Algorithm: rsaEncryption
                Public-Key: (4096 bit)
                Modulus:
                    00:ce:ff:2d:0a:0f:d8:c7:dd:ff:bd:80:7e:a0:44:
                    d2:14:27:a0:db:d3:a7:3d:1c:fd:d9:01:c8:42:17:
                    bd:d1:ad:7d:10:8c:08:87:36:93:74:9c:05:8a:a9:
                    aa:b4:e9:30:13:34:eb:57:2e:5e:73:fb:9d:5b:d4:
                    6f:42:30:f6:cc:15:fa:27:7d:01:5e:3b:08:bb:87:
                    38:77:3e:64:48:2a:22:fc:87:d6:b1:d4:b2:09:05:
                    04:ce:da:b9:77:b3:05:b0:e1:52:db:67:4a:de:95:
                    d1:78:b9:d0:c2:6a:8c:bb:c7:2d:c4:77:f6:fa:5f:
                    87:86:f5:23:af:23:64:66:bc:d4:6e:4b:68:38:6f:
                    70:88:5b:0f:65:d7:fa:b5:44:b2:c2:fd:6f:fc:73:
                    79:82:73:a0:d8:c2:e8:eb:59:9a:e8:37:a7:5d:af:
                    1e:a5:34:5d:98:e5:0f:ae:cd:4c:b6:f6:eb:17:79:
                    9c:db:fc:f6:3b:43:88:11:87:63:9a:2e:86:78:1b:
                    ad:23:c1:33:00:12:95:26:58:c3:32:96:85:bf:7c:
                    f8:85:94:90:bd:b8:d1:e5:77:4f:1b:c0:50:09:09:
                    83:be:00:16:2c:47:99:23:98:ef:38:c0:9c:d2:63:
                    34:a0:63:8c:3c:d0:70:28:c5:22:ed:33:f8:eb:4c:
                    54:d9:3f:17:4d:14:0e:7f:6d:bb:74:7a:82:e8:4e:
                    f9:38:6b:2e:20:df:74:c2:d5:d3:c1:be:71:56:23:
                    eb:ed:88:5a:fb:a2:72:09:c6:34:bb:d4:fc:c7:98:
                    04:45:19:0b:44:c1:44:f8:74:20:6d:6f:5a:b6:12:
                    34:5b:5b:d4:4f:d8:44:e8:93:fd:29:bb:be:18:6a:
                    95:33:1b:9a:14:33:01:62:ec:71:5c:3d:a6:54:8c:
                    0e:6b:2c:d2:07:ee:8d:d2:ae:e5:6e:a0:a0:10:d5:
                    9a:84:99:19:89:6a:7c:1c:35:7c:8a:c6:aa:32:62:
                    06:94:c4:51:3e:ee:0f:04:dd:5a:b9:d4:21:60:8f:
                    7f:87:b5:76:e8:e7:46:7b:06:67:38:dd:23:de:09:
                    04:54:41:ac:8f:5b:12:5c:c5:52:db:d5:7a:c1:97:
                    ba:62:b9:75:13:06:dd:fe:70:05:51:3a:bd:9b:69:
                    96:7c:cd:ba:99:df:bf:80:f3:f0:c5:93:58:05:07:
                    02:c6:15:c0:d3:c5:c4:4f:60:13:d3:1c:da:4f:ba:
                    68:bc:5c:a3:74:16:24:ac:70:48:f0:0d:e2:8b:c8:
                    ea:79:35:df:cd:5d:ca:0b:da:3a:cc:4a:f6:9c:b4:
                    81:52:57:73:0e:20:aa:e7:d0:8e:71:68:36:04:33:
                    01:97:89
                Exponent: 65537 (0x10001)
        X509v3 extensions:
            X509v3 Basic Constraints: 
                CA:FALSE
            Netscape Comment: 
                Easy-RSA Generated Certificate
            X509v3 Subject Key Identifier: 
                1A:BD:AC:EC:1A:96:17:38:A5:54:3C:09:9E:69:00:A7:8A:25:07:F2
            X509v3 Authority Key Identifier: 
                keyid:EF:38:8D:14:50:58:A7:5B:4D:9C:17:72:FC:DF:B9:AC:A7:51:B0:10
                DirName:/C=US/ST=CA/L=SanFrancisco/O=Pixglo, Inc./OU=VPN-CIE/CN=tunnel.pixglo.com/name=Bala Chandrasekaran/emailAddress=bala@pixglo.com
                serial:A6:DB:C6:83:80:E6:A0:79

            X509v3 Extended Key Usage: 
                TLS Web Client Authentication
            X509v3 Key Usage: 
                Digital Signature
    Signature Algorithm: sha1WithRSAEncryption
         d1:89:82:ce:3f:a9:01:26:d3:60:c0:16:a1:b2:bc:21:57:b0:
         d9:ed:f5:69:25:65:2d:39:95:ff:4c:3d:f7:08:d6:2b:de:8a:
         5d:a9:82:95:49:12:50:6a:68:63:95:9c:f8:d4:ac:27:9a:5e:
         23:cf:b4:45:1f:04:77:59:60:1e:31:85:39:b3:83:e4:e1:51:
         2c:57:10:71:21:ca:b3:ff:51:dd:fd:6c:84:b1:4a:7d:6c:ed:
         93:e8:47:3f:6f:f5:aa:4c:fb:bb:3f:37:66:6a:dc:b4:21:d9:
         12:08:0f:b5:2f:dd:b5:37:ab:30:d1:55:e6:e3:f3:70:94:e5:
         91:19:6c:23:76:c8:13:09:7d:77:7d:c3:fc:30:cd:ec:d0:26:
         3c:51:ed:98:20:23:d6:09:2b:a6:5a:cd:f1:42:75:cc:91:4d:
         99:1f:f6:83:3a:86:ef:0f:90:1b:21:c1:70:20:6a:17:21:53:
         88:57:d4:d6:59:d5:04:18:06:6b:46:30:0c:f1:a9:4f:34:e6:
         1e:29:15:bf:bf:14:08:83:61:4d:80:5d:7a:9d:54:b8:45:53:
         c9:2f:23:4f:ba:7f:24:c9:98:65:6f:30:b6:b9:98:0f:a7:c0:
         e2:e3:47:d7:63:14:e9:b9:47:01:77:c1:3a:c0:b1:6f:40:55:
         e8:75:9d:d5:91:74:8a:ba:be:cc:98:ef:29:fb:31:68:4e:3c:
         4e:9c:fd:d9:b2:45:da:6e:6f:d8:2f:c9:7b:2b:2f:a4:22:04:
         df:5c:da:bb:d6:0f:b5:13:aa:4f:97:0e:5d:9f:67:11:a1:17:
         72:52:78:ad:39:99:d0:9e:50:c9:7a:03:c3:f4:c1:45:12:25:
         dc:0f:32:99:ae:f6:1c:83:05:1d:2c:0d:40:29:e9:27:07:63:
         9e:26:8c:3d:ac:18:cf:7b:37:b2:23:ae:a4:f5:f9:8b:5b:84:
         c5:20:1c:c1:7f:c6:6b:ba:5e:89:23:35:bd:76:58:c5:0a:76:
         73:53:9b:ab:79:00:77:a6:86:63:45:b2:db:96:f2:6b:41:87:
         fe:1c:df:3d:0b:a4:2e:6c:ef:36:6b:1d:3f:ab:e5:57:3c:21:
         05:07:f1:66:00:86:69:96:98:bf:da:5d:1c:e6:b3:2f:63:f1:
         20:c5:e6:83:c4:ae:61:9d:74:19:07:1c:2f:c1:46:e2:f1:51:
         a9:c5:3e:01:d3:6b:76:a8:0f:60:de:f0:cb:32:fc:13:e7:3f:
         72:a3:ab:4d:f7:26:d7:98:a1:bc:93:f4:1c:de:38:6a:64:78:
         88:3e:7b:5e:e3:02:62:38:01:f0:70:06:a6:33:ce:fc:e9:42:
         3f:27:0c:06:b7:2f:e5:41
-----BEGIN CERTIFICATE-----
MIIHRjCCBS6gAwIBAgIBHDANBgkqhkiG9w0BAQUFADCBtDELMAkGA1UEBhMCVVMx
CzAJBgNVBAgTAkNBMRUwEwYDVQQHEwxTYW5GcmFuY2lzY28xFTATBgNVBAoTDFBp
eGdsbywgSW5jLjEQMA4GA1UECxMHVlBOLUNJRTEaMBgGA1UEAxMRdHVubmVsLnBp
eGdsby5jb20xHDAaBgNVBCkTE0JhbGEgQ2hhbmRyYXNla2FyYW4xHjAcBgkqhkiG
9w0BCQEWD2JhbGFAcGl4Z2xvLmNvbTAeFw0xODAyMTQwNjI0MzFaFw0yODAyMTIw
NjI0MzFaMIGoMQswCQYDVQQGEwJVUzELMAkGA1UECBMCQ0ExFTATBgNVBAcTDFNh
bkZyYW5jaXNjbzEVMBMGA1UEChMMUGl4Z2xvLCBJbmMuMRAwDgYDVQQLEwdWUE4t
Q0lFMQ4wDAYDVQQDEwVjaWUyNzEcMBoGA1UEKRMTQmFsYSBDaGFuZHJhc2VrYXJh
bjEeMBwGCSqGSIb3DQEJARYPYmFsYUBwaXhnbG8uY29tMIICIjANBgkqhkiG9w0B
AQEFAAOCAg8AMIICCgKCAgEAzv8tCg/Yx93/vYB+oETSFCeg29OnPRz92QHIQhe9
0a19EIwIhzaTdJwFiqmqtOkwEzTrVy5ec/udW9RvQjD2zBX6J30BXjsIu4c4dz5k
SCoi/IfWsdSyCQUEztq5d7MFsOFS22dK3pXReLnQwmqMu8ctxHf2+l+HhvUjryNk
ZrzUbktoOG9wiFsPZdf6tUSywv1v/HN5gnOg2MLo61ma6DenXa8epTRdmOUPrs1M
tvbrF3mc2/z2O0OIEYdjmi6GeButI8EzABKVJljDMpaFv3z4hZSQvbjR5XdPG8BQ
CQmDvgAWLEeZI5jvOMCc0mM0oGOMPNBwKMUi7TP460xU2T8XTRQOf227dHqC6E75
OGsuIN90wtXTwb5xViPr7Yha+6JyCcY0u9T8x5gERRkLRMFE+HQgbW9athI0W1vU
T9hE6JP9Kbu+GGqVMxuaFDMBYuxxXD2mVIwOayzSB+6N0q7lbqCgENWahJkZiWp8
HDV8isaqMmIGlMRRPu4PBN1audQhYI9/h7V26OdGewZnON0j3gkEVEGsj1sSXMVS
29V6wZe6Yrl1Ewbd/nAFUTq9m2mWfM26md+/gPPwxZNYBQcCxhXA08XET2AT0xza
T7povFyjdBYkrHBI8A3ii8jqeTXfzV3KC9o6zEr2nLSBUldzDiCq59COcWg2BDMB
l4kCAwEAAaOCAWswggFnMAkGA1UdEwQCMAAwLQYJYIZIAYb4QgENBCAWHkVhc3kt
UlNBIEdlbmVyYXRlZCBDZXJ0aWZpY2F0ZTAdBgNVHQ4EFgQUGr2s7BqWFzilVDwJ
nmkAp4olB/IwgekGA1UdIwSB4TCB3oAU7ziNFFBYp1tNnBdy/N+5rKdRsBChgbqk
gbcwgbQxCzAJBgNVBAYTAlVTMQswCQYDVQQIEwJDQTEVMBMGA1UEBxMMU2FuRnJh
bmNpc2NvMRUwEwYDVQQKEwxQaXhnbG8sIEluYy4xEDAOBgNVBAsTB1ZQTi1DSUUx
GjAYBgNVBAMTEXR1bm5lbC5waXhnbG8uY29tMRwwGgYDVQQpExNCYWxhIENoYW5k
cmFzZWthcmFuMR4wHAYJKoZIhvcNAQkBFg9iYWxhQHBpeGdsby5jb22CCQCm28aD
gOageTATBgNVHSUEDDAKBggrBgEFBQcDAjALBgNVHQ8EBAMCB4AwDQYJKoZIhvcN
AQEFBQADggIBANGJgs4/qQEm02DAFqGyvCFXsNnt9WklZS05lf9MPfcI1iveil2p
gpVJElBqaGOVnPjUrCeaXiPPtEUfBHdZYB4xhTmzg+ThUSxXEHEhyrP/Ud39bISx
Sn1s7ZPoRz9v9apM+7s/N2Zq3LQh2RIID7Uv3bU3qzDRVebj83CU5ZEZbCN2yBMJ
fXd9w/wwzezQJjxR7ZggI9YJK6ZazfFCdcyRTZkf9oM6hu8PkBshwXAgahchU4hX
1NZZ1QQYBmtGMAzxqU805h4pFb+/FAiDYU2AXXqdVLhFU8kvI0+6fyTJmGVvMLa5
mA+nwOLjR9djFOm5RwF3wTrAsW9AVeh1ndWRdIq6vsyY7yn7MWhOPE6c/dmyRdpu
b9gvyXsrL6QiBN9c2rvWD7UTqk+XDl2fZxGhF3JSeK05mdCeUMl6A8P0wUUSJdwP
Mpmu9hyDBR0sDUAp6ScHY54mjD2sGM97N7IjrqT1+YtbhMUgHMF/xmu6XokjNb12
WMUKdnNTm6t5AHemhmNFstuW8mtBh/4c3z0LpC5s7zZrHT+r5Vc8IQUH8WYAhmmW
mL/aXRzmsy9j8SDF5oPErmGddBkHHC/BRuLxUanFPgHTa3aoD2De8Msy/BPnP3Kj
q033JteYobyT9BzeOGpkeIg+e17jAmI4AfBwBqYzzvzpQj8nDAa3L+VB
-----END CERTIFICATE-----
