Certificate:
    Data:
        Version: 3 (0x2)
        Serial Number: 258 (0x102)
    Signature Algorithm: sha1WithRSAEncryption
        Issuer: C=US, ST=CA, L=SanFrancisco, O=Pixglo, Inc., OU=VPN-CIE, CN=tunnel.pixglo.com/name=Bala Chandrasekaran/emailAddress=bala@pixglo.com
        Validity
            Not Before: Feb 14 06:29:25 2018 GMT
            Not After : Feb 12 06:29:25 2028 GMT
        Subject: C=US, ST=CA, L=SanFrancisco, O=Pixglo, Inc., OU=VPN-CIE, CN=cie257/name=Bala Chandrasekaran/emailAddress=bala@pixglo.com
        Subject Public Key Info:
            Public Key Algorithm: rsaEncryption
                Public-Key: (4096 bit)
                Modulus:
                    00:e2:2d:f6:85:a2:cb:c1:50:3a:d8:b6:18:8f:93:
                    af:74:49:95:de:70:70:c1:30:c9:e2:f6:db:8e:f1:
                    e2:b6:9b:b8:bb:c6:2c:d8:cc:66:11:3a:19:11:2d:
                    6a:4a:52:37:f6:de:e5:3b:1d:33:b7:e8:8b:d3:15:
                    f6:ac:d9:f4:bd:66:c5:36:0c:a8:fb:a9:53:fb:b5:
                    83:ce:45:bc:2b:63:69:45:a4:02:0f:b2:18:15:d6:
                    1b:ef:b4:64:c6:fd:ab:40:f5:79:6c:07:d2:a0:85:
                    f1:75:21:e9:0c:00:9d:ef:0f:99:0e:c0:54:6e:98:
                    7f:17:b2:70:42:14:92:3a:8b:61:55:7a:04:f2:40:
                    32:25:8d:e9:eb:88:e9:aa:25:76:37:98:f9:d5:40:
                    17:ef:c9:b9:9c:a9:77:b1:ea:d8:4c:5e:7c:80:8f:
                    19:4d:37:e7:4f:5f:81:7a:2f:6e:98:eb:3a:67:a0:
                    2a:2f:9f:3e:df:8f:fe:cd:31:da:4d:06:db:b0:5c:
                    06:5d:ee:a8:05:66:c0:8a:e5:1c:e9:14:83:8a:93:
                    91:75:ae:e0:f7:bd:79:2c:c0:e6:07:a1:9a:59:ed:
                    8f:5a:a0:08:c8:ed:f6:83:58:bf:44:32:cb:80:d6:
                    a0:64:af:26:c6:be:85:5a:a5:bf:6e:b0:a1:52:f6:
                    46:8b:f3:cd:66:61:03:6c:1f:78:57:66:95:fd:a7:
                    7f:17:98:9f:48:37:f3:34:ac:69:89:29:f8:7d:56:
                    41:79:af:ad:3b:14:18:45:ff:66:8b:5a:72:30:85:
                    fb:6d:68:63:8d:21:a4:be:41:81:41:d4:87:20:33:
                    78:2e:c1:82:e6:e8:ae:14:4a:51:24:d2:07:e8:48:
                    05:23:c2:0e:aa:68:f7:c6:e2:09:ef:d8:4a:d6:97:
                    17:01:e6:90:c8:5c:3f:91:a7:c5:4f:a0:09:6f:fb:
                    32:2d:50:bc:9c:76:ca:31:12:d3:04:ab:9c:61:36:
                    8b:25:74:68:23:8e:bf:07:4f:e7:8f:b8:1d:f5:c6:
                    6e:ec:05:ac:7b:b7:0e:c2:28:a2:9b:e3:34:ac:98:
                    1d:d3:c6:29:3a:df:df:8a:c7:e0:74:e6:09:ab:80:
                    db:41:c7:b8:95:d9:a2:24:f4:a7:a3:de:df:be:6c:
                    0a:92:80:4d:0a:09:10:82:32:fb:56:e3:19:04:b5:
                    7d:82:64:c5:d0:73:6c:2d:80:26:21:89:63:2c:79:
                    83:41:29:08:b1:48:80:58:56:c2:ac:a5:72:df:7f:
                    47:d4:b7:7b:b1:c5:a2:dd:0f:21:26:e8:cf:af:5e:
                    f0:15:30:aa:c7:87:f9:23:48:58:8f:51:ad:6a:de:
                    a8:58:f9
                Exponent: 65537 (0x10001)
        X509v3 extensions:
            X509v3 Basic Constraints: 
                CA:FALSE
            Netscape Comment: 
                Easy-RSA Generated Certificate
            X509v3 Subject Key Identifier: 
                9E:3F:E2:0F:CF:01:CF:1D:1D:3A:F6:4D:79:50:ED:AD:38:01:04:02
            X509v3 Authority Key Identifier: 
                keyid:EF:38:8D:14:50:58:A7:5B:4D:9C:17:72:FC:DF:B9:AC:A7:51:B0:10
                DirName:/C=US/ST=CA/L=SanFrancisco/O=Pixglo, Inc./OU=VPN-CIE/CN=tunnel.pixglo.com/name=Bala Chandrasekaran/emailAddress=bala@pixglo.com
                serial:A6:DB:C6:83:80:E6:A0:79

            X509v3 Extended Key Usage: 
                TLS Web Client Authentication
            X509v3 Key Usage: 
                Digital Signature
    Signature Algorithm: sha1WithRSAEncryption
         a1:84:ee:cc:86:9c:9b:1f:1c:1d:ce:a7:66:e7:d8:06:b7:83:
         61:ed:3d:6c:9c:ec:e6:11:76:3f:5c:74:77:e7:ef:53:77:40:
         39:c1:ba:9c:44:bf:a1:54:66:f7:81:3c:21:b6:31:0f:8b:df:
         9d:92:6c:0c:d6:a2:a8:72:92:af:0a:60:f8:71:52:2c:a4:08:
         6b:bf:d9:03:e5:b4:20:f9:39:52:59:76:e2:81:5e:83:e1:87:
         6d:2c:9b:c9:a6:d1:6f:72:ad:71:02:f8:47:b8:16:aa:40:fc:
         aa:99:78:fb:ca:71:76:ca:b5:a0:80:eb:95:bd:d6:e4:9e:c7:
         de:b1:7b:d8:81:d3:0a:a3:8c:de:91:22:ea:bf:94:6c:50:93:
         42:70:a3:67:65:21:e4:a5:c2:86:8a:b6:4f:c7:61:b9:a9:a7:
         bc:2b:f1:b9:1b:e5:61:33:c0:02:ef:3b:e4:fc:09:33:4b:6e:
         f8:b4:27:32:63:74:f4:49:15:3f:7a:2c:5a:f9:49:ea:a4:30:
         7a:4d:4a:b0:46:c5:ce:b3:1c:ba:de:8a:4a:b8:88:31:3c:85:
         fb:f6:78:b0:f4:29:a4:99:a9:2c:e4:ea:1e:6c:bd:e2:0d:cd:
         e3:e7:31:86:26:e2:01:9c:98:c3:4f:ff:fc:16:f2:e0:14:af:
         ef:c2:1d:d6:a0:53:1c:52:d9:ab:90:c5:26:d6:17:e1:e9:bc:
         dd:77:e2:ed:17:9f:27:d6:14:f7:94:7c:f7:5b:e8:04:e1:56:
         2a:be:56:a4:50:52:f2:6d:4f:31:52:3f:45:01:8f:d6:23:d0:
         06:0b:2d:6e:67:50:2a:5b:92:e7:3c:b6:34:05:a7:e0:1d:a1:
         9a:cf:2f:93:e7:ae:29:cf:43:da:43:3a:75:c6:77:98:42:1b:
         e8:8b:cd:8a:2c:c8:76:70:45:4e:94:4b:04:de:de:36:ec:20:
         6b:20:12:1d:3f:eb:69:c5:42:8d:63:9c:d1:da:fa:3a:22:a3:
         79:d4:58:8f:c8:08:1d:2f:b8:da:46:3b:b7:d2:26:e8:ab:1f:
         66:bc:85:db:41:e4:ed:98:4b:b6:1e:1b:7a:36:0d:9d:4a:ab:
         0a:94:e0:39:e4:19:6f:49:4d:2e:16:91:8e:44:93:e4:d7:f6:
         26:9a:fe:ad:45:2c:bb:16:db:79:b2:25:63:de:30:fa:5f:51:
         c2:41:79:15:a5:8e:9f:82:0c:72:78:99:e2:61:11:01:e8:a5:
         d8:e5:e3:74:f4:0f:8a:17:15:29:49:f5:bb:59:5d:89:09:b3:
         0f:05:59:a2:24:98:14:f9:36:eb:e2:52:a7:11:c8:c9:5d:6c:
         2e:50:53:8c:5e:cc:b8:27
-----BEGIN CERTIFICATE-----
MIIHSDCCBTCgAwIBAgICAQIwDQYJKoZIhvcNAQEFBQAwgbQxCzAJBgNVBAYTAlVT
MQswCQYDVQQIEwJDQTEVMBMGA1UEBxMMU2FuRnJhbmNpc2NvMRUwEwYDVQQKEwxQ
aXhnbG8sIEluYy4xEDAOBgNVBAsTB1ZQTi1DSUUxGjAYBgNVBAMTEXR1bm5lbC5w
aXhnbG8uY29tMRwwGgYDVQQpExNCYWxhIENoYW5kcmFzZWthcmFuMR4wHAYJKoZI
hvcNAQkBFg9iYWxhQHBpeGdsby5jb20wHhcNMTgwMjE0MDYyOTI1WhcNMjgwMjEy
MDYyOTI1WjCBqTELMAkGA1UEBhMCVVMxCzAJBgNVBAgTAkNBMRUwEwYDVQQHEwxT
YW5GcmFuY2lzY28xFTATBgNVBAoTDFBpeGdsbywgSW5jLjEQMA4GA1UECxMHVlBO
LUNJRTEPMA0GA1UEAxMGY2llMjU3MRwwGgYDVQQpExNCYWxhIENoYW5kcmFzZWth
cmFuMR4wHAYJKoZIhvcNAQkBFg9iYWxhQHBpeGdsby5jb20wggIiMA0GCSqGSIb3
DQEBAQUAA4ICDwAwggIKAoICAQDiLfaFosvBUDrYthiPk690SZXecHDBMMni9tuO
8eK2m7i7xizYzGYROhkRLWpKUjf23uU7HTO36IvTFfas2fS9ZsU2DKj7qVP7tYPO
RbwrY2lFpAIPshgV1hvvtGTG/atA9XlsB9KghfF1IekMAJ3vD5kOwFRumH8XsnBC
FJI6i2FVegTyQDIljenriOmqJXY3mPnVQBfvybmcqXex6thMXnyAjxlNN+dPX4F6
L26Y6zpnoCovnz7fj/7NMdpNBtuwXAZd7qgFZsCK5RzpFIOKk5F1ruD3vXkswOYH
oZpZ7Y9aoAjI7faDWL9EMsuA1qBkrybGvoVapb9usKFS9kaL881mYQNsH3hXZpX9
p38XmJ9IN/M0rGmJKfh9VkF5r607FBhF/2aLWnIwhfttaGONIaS+QYFB1IcgM3gu
wYLm6K4USlEk0gfoSAUjwg6qaPfG4gnv2ErWlxcB5pDIXD+Rp8VPoAlv+zItULyc
dsoxEtMEq5xhNosldGgjjr8HT+ePuB31xm7sBax7tw7CKKKb4zSsmB3Txik639+K
x+B05gmrgNtBx7iV2aIk9Kej3t++bAqSgE0KCRCCMvtW4xkEtX2CZMXQc2wtgCYh
iWMseYNBKQixSIBYVsKspXLff0fUt3uxxaLdDyEm6M+vXvAVMKrHh/kjSFiPUa1q
3qhY+QIDAQABo4IBazCCAWcwCQYDVR0TBAIwADAtBglghkgBhvhCAQ0EIBYeRWFz
eS1SU0EgR2VuZXJhdGVkIENlcnRpZmljYXRlMB0GA1UdDgQWBBSeP+IPzwHPHR06
9k15UO2tOAEEAjCB6QYDVR0jBIHhMIHegBTvOI0UUFinW02cF3L837msp1GwEKGB
uqSBtzCBtDELMAkGA1UEBhMCVVMxCzAJBgNVBAgTAkNBMRUwEwYDVQQHEwxTYW5G
cmFuY2lzY28xFTATBgNVBAoTDFBpeGdsbywgSW5jLjEQMA4GA1UECxMHVlBOLUNJ
RTEaMBgGA1UEAxMRdHVubmVsLnBpeGdsby5jb20xHDAaBgNVBCkTE0JhbGEgQ2hh
bmRyYXNla2FyYW4xHjAcBgkqhkiG9w0BCQEWD2JhbGFAcGl4Z2xvLmNvbYIJAKbb
xoOA5qB5MBMGA1UdJQQMMAoGCCsGAQUFBwMCMAsGA1UdDwQEAwIHgDANBgkqhkiG
9w0BAQUFAAOCAgEAoYTuzIacmx8cHc6nZufYBreDYe09bJzs5hF2P1x0d+fvU3dA
OcG6nES/oVRm94E8IbYxD4vfnZJsDNaiqHKSrwpg+HFSLKQIa7/ZA+W0IPk5Ull2
4oFeg+GHbSybyabRb3KtcQL4R7gWqkD8qpl4+8pxdsq1oIDrlb3W5J7H3rF72IHT
CqOM3pEi6r+UbFCTQnCjZ2Uh5KXChoq2T8dhuamnvCvxuRvlYTPAAu875PwJM0tu
+LQnMmN09EkVP3osWvlJ6qQwek1KsEbFzrMcut6KSriIMTyF+/Z4sPQppJmpLOTq
Hmy94g3N4+cxhibiAZyYw0///Bby4BSv78Id1qBTHFLZq5DFJtYX4em83Xfi7Ref
J9YU95R891voBOFWKr5WpFBS8m1PMVI/RQGP1iPQBgstbmdQKluS5zy2NAWn4B2h
ms8vk+euKc9D2kM6dcZ3mEIb6IvNiizIdnBFTpRLBN7eNuwgayASHT/racVCjWOc
0dr6OiKjedRYj8gIHS+42kY7t9Im6KsfZryF20Hk7ZhLth4bejYNnUqrCpTgOeQZ
b0lNLhaRjkST5Nf2Jpr+rUUsuxbbebIlY94w+l9RwkF5FaWOn4IMcniZ4mERAeil
2OXjdPQPihcVKUn1u1ldiQmzDwVZoiSYFPk26+JSpxHIyV1sLlBTjF7MuCc=
-----END CERTIFICATE-----
