Certificate:
    Data:
        Version: 3 (0x2)
        Serial Number: 265 (0x109)
    Signature Algorithm: sha1WithRSAEncryption
        Issuer: C=US, ST=CA, L=SanFrancisco, O=Pixglo, Inc., OU=VPN-CIE, CN=tunnel.pixglo.com/name=Bala Chandrasekaran/emailAddress=bala@pixglo.com
        Validity
            Not Before: Feb 14 06:29:29 2018 GMT
            Not After : Feb 12 06:29:29 2028 GMT
        Subject: C=US, ST=CA, L=SanFrancisco, O=Pixglo, Inc., OU=VPN-CIE, CN=cie264/name=Bala Chandrasekaran/emailAddress=bala@pixglo.com
        Subject Public Key Info:
            Public Key Algorithm: rsaEncryption
                Public-Key: (4096 bit)
                Modulus:
                    00:d4:22:dd:67:e7:b3:f9:ff:2a:66:2c:17:9d:3a:
                    84:83:58:83:c6:75:f7:3d:e0:1f:77:77:4f:9e:54:
                    87:46:80:73:5d:70:0a:8f:df:65:89:71:ad:e3:4d:
                    6e:c8:c7:31:74:49:a3:58:28:d9:99:61:bd:80:af:
                    28:ea:ea:93:ff:9e:1e:45:07:10:cb:70:99:03:44:
                    7b:52:95:88:d2:95:43:f4:27:63:11:fb:d5:8e:9d:
                    6f:d1:0c:1d:37:12:a7:42:86:9c:ce:cc:8e:56:2f:
                    dc:99:39:80:65:d6:ef:7e:c2:d7:fd:77:1a:fa:3b:
                    4f:21:00:c2:90:0f:ec:37:80:6c:3a:98:8e:07:59:
                    65:b0:f5:fd:d1:0d:f8:04:04:9b:72:22:08:0d:9b:
                    06:c0:64:0c:36:d8:1a:4c:79:32:e7:2f:03:cb:62:
                    3e:1e:a2:79:58:04:d3:b4:dd:13:0c:e7:fa:9b:b3:
                    50:27:67:d2:56:e1:d9:ac:93:85:0b:92:53:96:70:
                    6a:d1:ea:11:81:c3:c0:aa:7f:2f:7a:68:6d:33:9b:
                    66:d0:62:e1:12:5a:2d:2a:4b:94:5e:a4:0c:6d:db:
                    97:4c:5d:ad:aa:44:fe:a8:c6:92:7e:b6:a2:ef:1d:
                    bd:c4:69:23:2d:ea:93:41:ad:42:0b:32:58:cb:bc:
                    91:44:3f:50:ff:b9:3d:47:58:07:50:09:32:77:49:
                    f4:3e:c6:c0:7a:e0:e4:95:5b:09:75:7e:35:2e:49:
                    7c:76:79:74:06:48:59:0f:eb:df:bb:3a:cd:d1:ca:
                    a1:25:20:d3:04:95:7f:bc:88:98:99:d3:3b:c5:a9:
                    6c:49:9c:79:9a:f6:ae:99:4f:e5:9a:93:c1:16:6e:
                    0b:19:c4:93:72:4a:39:df:f8:71:f0:07:8d:36:9a:
                    19:1d:19:28:84:33:38:a9:77:db:20:3c:d0:cf:b9:
                    0a:09:d8:4b:5a:ed:fe:03:44:13:14:c4:19:61:67:
                    07:34:01:44:c6:59:cd:e6:6e:75:cb:53:ca:49:8c:
                    f2:94:e2:d5:44:60:91:ed:ac:0e:78:79:e8:cb:95:
                    17:3e:12:cc:a0:2e:bb:55:4c:71:f9:cd:4f:0b:2f:
                    e4:d6:dc:c0:9f:bd:d8:04:c2:32:5c:d9:83:01:da:
                    47:ba:2b:91:9e:1f:ba:fe:77:d2:b0:13:30:1b:e3:
                    c2:dd:6d:f3:92:28:40:90:bc:e3:a1:8a:50:bf:24:
                    e7:1c:42:41:ba:a2:27:91:31:fa:dc:4e:63:72:95:
                    fa:b1:43:c9:94:cf:ef:c3:4b:65:6e:21:c0:99:a5:
                    fa:13:e3:f8:ce:1b:79:7d:f4:9d:e3:00:3c:e4:66:
                    18:34:a5
                Exponent: 65537 (0x10001)
        X509v3 extensions:
            X509v3 Basic Constraints: 
                CA:FALSE
            Netscape Comment: 
                Easy-RSA Generated Certificate
            X509v3 Subject Key Identifier: 
                DF:13:96:93:75:B3:30:24:BA:53:2B:31:13:89:97:E3:D5:51:0A:9C
            X509v3 Authority Key Identifier: 
                keyid:EF:38:8D:14:50:58:A7:5B:4D:9C:17:72:FC:DF:B9:AC:A7:51:B0:10
                DirName:/C=US/ST=CA/L=SanFrancisco/O=Pixglo, Inc./OU=VPN-CIE/CN=tunnel.pixglo.com/name=Bala Chandrasekaran/emailAddress=bala@pixglo.com
                serial:A6:DB:C6:83:80:E6:A0:79

            X509v3 Extended Key Usage: 
                TLS Web Client Authentication
            X509v3 Key Usage: 
                Digital Signature
    Signature Algorithm: sha1WithRSAEncryption
         c3:98:26:be:c5:a8:ae:e5:13:50:30:3e:ef:1c:03:40:b1:dd:
         3c:23:36:82:85:64:a3:7c:23:0e:d0:28:6c:17:cb:81:e2:f7:
         99:5b:be:7a:81:4e:55:3f:dc:aa:94:2b:41:b7:1e:52:f1:52:
         9a:5f:ee:21:8f:cc:5d:c8:21:6a:66:66:30:c6:31:30:0b:c1:
         e2:18:28:39:34:55:3d:d9:eb:3d:74:0b:af:c9:a1:f3:79:65:
         32:bb:94:0e:05:07:c3:2a:1b:0a:2c:cd:25:d6:a6:5f:a9:74:
         61:77:3e:cf:5c:04:31:00:de:23:51:be:fe:18:c8:57:34:b7:
         f1:e3:f0:dd:d9:90:8a:6a:95:cc:e2:58:ec:66:a4:1b:42:5a:
         cd:03:e3:f8:52:4e:ac:95:90:f0:29:2a:9b:aa:0b:b5:52:0e:
         13:83:31:81:5f:b5:e2:00:1a:89:cd:92:50:f4:f3:91:dc:e7:
         00:e6:be:ce:b6:f3:d8:a1:f4:5b:ff:ee:e6:72:ac:ac:75:8e:
         46:03:90:a3:16:41:6d:39:a0:b7:72:9f:22:35:42:d0:19:7b:
         ba:81:ed:f1:30:3a:70:9b:84:2b:a8:85:2a:5c:83:8a:e6:a0:
         4c:91:3a:05:06:d9:19:00:7e:8d:a2:c7:db:4a:4b:36:f7:77:
         62:a2:e0:8c:32:3b:64:58:d5:57:74:ac:c7:d9:d8:51:b5:12:
         9f:d0:b1:68:3c:fd:65:e5:90:8c:a9:63:9a:0d:ac:71:76:2d:
         73:c1:59:fb:df:4e:b5:79:64:36:c8:4d:0b:78:bf:ee:0d:f8:
         aa:cc:f9:a3:8c:86:c0:b4:73:ae:4d:f7:ed:56:96:e2:74:f6:
         8a:f5:30:39:24:52:1a:c0:e3:fd:c2:4a:45:ca:6b:33:c5:52:
         b8:17:b6:76:e8:f3:f6:d2:d7:cb:9e:e9:73:f9:32:23:3a:f1:
         82:d9:30:0c:57:75:02:53:96:01:79:c5:9f:67:4e:d7:10:52:
         f1:ef:cf:86:67:2f:f4:26:e3:a9:94:aa:2c:41:1b:36:b7:95:
         39:36:74:be:6e:af:8e:ca:14:af:5e:d1:0d:4a:12:4e:49:1b:
         1b:f4:ea:d5:97:f7:93:1b:08:ca:6d:84:ab:3b:ce:42:c8:dc:
         fb:f2:16:7e:4e:81:b5:42:5f:35:6b:b2:45:77:72:10:a3:0a:
         ea:b4:ae:39:67:b5:81:3b:f2:5d:68:de:77:fe:44:11:f3:e2:
         3c:ad:fc:b2:6a:f0:7e:80:c8:45:3b:7c:b8:de:03:d0:6c:80:
         78:06:4f:d8:78:57:7c:f2:ac:7e:2d:02:4f:b3:64:79:97:b0:
         75:1e:7b:f6:00:b3:7f:85
-----BEGIN CERTIFICATE-----
MIIHSDCCBTCgAwIBAgICAQkwDQYJKoZIhvcNAQEFBQAwgbQxCzAJBgNVBAYTAlVT
MQswCQYDVQQIEwJDQTEVMBMGA1UEBxMMU2FuRnJhbmNpc2NvMRUwEwYDVQQKEwxQ
aXhnbG8sIEluYy4xEDAOBgNVBAsTB1ZQTi1DSUUxGjAYBgNVBAMTEXR1bm5lbC5w
aXhnbG8uY29tMRwwGgYDVQQpExNCYWxhIENoYW5kcmFzZWthcmFuMR4wHAYJKoZI
hvcNAQkBFg9iYWxhQHBpeGdsby5jb20wHhcNMTgwMjE0MDYyOTI5WhcNMjgwMjEy
MDYyOTI5WjCBqTELMAkGA1UEBhMCVVMxCzAJBgNVBAgTAkNBMRUwEwYDVQQHEwxT
YW5GcmFuY2lzY28xFTATBgNVBAoTDFBpeGdsbywgSW5jLjEQMA4GA1UECxMHVlBO
LUNJRTEPMA0GA1UEAxMGY2llMjY0MRwwGgYDVQQpExNCYWxhIENoYW5kcmFzZWth
cmFuMR4wHAYJKoZIhvcNAQkBFg9iYWxhQHBpeGdsby5jb20wggIiMA0GCSqGSIb3
DQEBAQUAA4ICDwAwggIKAoICAQDUIt1n57P5/ypmLBedOoSDWIPGdfc94B93d0+e
VIdGgHNdcAqP32WJca3jTW7IxzF0SaNYKNmZYb2Aryjq6pP/nh5FBxDLcJkDRHtS
lYjSlUP0J2MR+9WOnW/RDB03EqdChpzOzI5WL9yZOYBl1u9+wtf9dxr6O08hAMKQ
D+w3gGw6mI4HWWWw9f3RDfgEBJtyIggNmwbAZAw22BpMeTLnLwPLYj4eonlYBNO0
3RMM5/qbs1AnZ9JW4dmsk4ULklOWcGrR6hGBw8Cqfy96aG0zm2bQYuESWi0qS5Re
pAxt25dMXa2qRP6oxpJ+tqLvHb3EaSMt6pNBrUILMljLvJFEP1D/uT1HWAdQCTJ3
SfQ+xsB64OSVWwl1fjUuSXx2eXQGSFkP69+7Os3RyqElINMElX+8iJiZ0zvFqWxJ
nHma9q6ZT+Wak8EWbgsZxJNySjnf+HHwB402mhkdGSiEMzipd9sgPNDPuQoJ2Eta
7f4DRBMUxBlhZwc0AUTGWc3mbnXLU8pJjPKU4tVEYJHtrA54eejLlRc+EsygLrtV
THH5zU8LL+TW3MCfvdgEwjJc2YMB2ke6K5GeH7r+d9KwEzAb48LdbfOSKECQvOOh
ilC/JOccQkG6oieRMfrcTmNylfqxQ8mUz+/DS2VuIcCZpfoT4/jOG3l99J3jADzk
Zhg0pQIDAQABo4IBazCCAWcwCQYDVR0TBAIwADAtBglghkgBhvhCAQ0EIBYeRWFz
eS1SU0EgR2VuZXJhdGVkIENlcnRpZmljYXRlMB0GA1UdDgQWBBTfE5aTdbMwJLpT
KzETiZfj1VEKnDCB6QYDVR0jBIHhMIHegBTvOI0UUFinW02cF3L837msp1GwEKGB
uqSBtzCBtDELMAkGA1UEBhMCVVMxCzAJBgNVBAgTAkNBMRUwEwYDVQQHEwxTYW5G
cmFuY2lzY28xFTATBgNVBAoTDFBpeGdsbywgSW5jLjEQMA4GA1UECxMHVlBOLUNJ
RTEaMBgGA1UEAxMRdHVubmVsLnBpeGdsby5jb20xHDAaBgNVBCkTE0JhbGEgQ2hh
bmRyYXNla2FyYW4xHjAcBgkqhkiG9w0BCQEWD2JhbGFAcGl4Z2xvLmNvbYIJAKbb
xoOA5qB5MBMGA1UdJQQMMAoGCCsGAQUFBwMCMAsGA1UdDwQEAwIHgDANBgkqhkiG
9w0BAQUFAAOCAgEAw5gmvsWoruUTUDA+7xwDQLHdPCM2goVko3wjDtAobBfLgeL3
mVu+eoFOVT/cqpQrQbceUvFSml/uIY/MXcghamZmMMYxMAvB4hgoOTRVPdnrPXQL
r8mh83llMruUDgUHwyobCizNJdamX6l0YXc+z1wEMQDeI1G+/hjIVzS38ePw3dmQ
imqVzOJY7GakG0JazQPj+FJOrJWQ8Ckqm6oLtVIOE4MxgV+14gAaic2SUPTzkdzn
AOa+zrbz2KH0W//u5nKsrHWORgOQoxZBbTmgt3KfIjVC0Bl7uoHt8TA6cJuEK6iF
KlyDiuagTJE6BQbZGQB+jaLH20pLNvd3YqLgjDI7ZFjVV3Ssx9nYUbUSn9CxaDz9
ZeWQjKljmg2scXYtc8FZ+99OtXlkNshNC3i/7g34qsz5o4yGwLRzrk337VaW4nT2
ivUwOSRSGsDj/cJKRcprM8VSuBe2dujz9tLXy57pc/kyIzrxgtkwDFd1AlOWAXnF
n2dO1xBS8e/Phmcv9CbjqZSqLEEbNreVOTZ0vm6vjsoUr17RDUoSTkkbG/Tq1Zf3
kxsIym2EqzvOQsjc+/IWfk6BtUJfNWuyRXdyEKMK6rSuOWe1gTvyXWjed/5EEfPi
PK38smrwfoDIRTt8uN4D0GyAeAZP2HhXfPKsfi0CT7NkeZewdR579gCzf4U=
-----END CERTIFICATE-----
