Certificate:
    Data:
        Version: 3 (0x2)
        Serial Number: 25 (0x19)
    Signature Algorithm: sha1WithRSAEncryption
        Issuer: C=US, ST=CA, L=SanFrancisco, O=Pixglo, Inc., OU=VPN-CIE, CN=tunnel.pixglo.com/name=Bala Chandrasekaran/emailAddress=bala@pixglo.com
        Validity
            Not Before: Feb 14 06:24:28 2018 GMT
            Not After : Feb 12 06:24:28 2028 GMT
        Subject: C=US, ST=CA, L=SanFrancisco, O=Pixglo, Inc., OU=VPN-CIE, CN=cie24/name=Bala Chandrasekaran/emailAddress=bala@pixglo.com
        Subject Public Key Info:
            Public Key Algorithm: rsaEncryption
                Public-Key: (4096 bit)
                Modulus:
                    00:bb:42:1d:56:c2:4e:00:25:68:70:7b:b1:a4:f1:
                    b6:4f:bc:38:8b:4e:d4:9b:72:c8:6a:e8:a0:1f:fc:
                    dc:d2:eb:84:a9:be:76:d4:23:8e:be:5f:e2:3b:aa:
                    97:dd:89:28:de:e4:b6:0b:83:b3:29:8d:a2:d0:38:
                    9e:35:43:c9:0a:90:b5:7a:1e:8a:cb:eb:f5:fc:b1:
                    f4:16:28:99:2f:c0:c3:1b:7f:c2:cb:60:1d:f1:1f:
                    ec:31:c2:94:98:62:4e:ca:61:2a:b3:e3:8f:14:fa:
                    f3:10:06:74:4a:13:e9:19:3c:f8:b6:04:79:95:ea:
                    92:27:53:fc:c6:2f:02:c7:f0:ce:25:a1:d9:40:a2:
                    86:b0:57:af:3b:d7:6c:5f:5f:7c:ec:f2:95:c3:09:
                    e4:0d:d2:c7:57:3d:9f:ae:75:88:f6:cd:57:d1:99:
                    77:e1:91:26:16:16:a3:b9:1f:ce:a1:c3:63:d8:8f:
                    3c:60:19:72:3a:a1:40:a6:38:67:ee:14:be:c2:26:
                    73:72:51:39:aa:58:c0:e3:7f:41:7c:ad:b0:28:6b:
                    a8:47:f9:14:92:ae:94:d2:7e:a3:a7:2e:8c:2d:c1:
                    fa:01:f7:39:cc:e6:ba:4b:33:c9:4e:29:20:66:30:
                    15:3d:50:8b:e0:9f:6e:18:96:36:40:2b:f7:8d:eb:
                    12:ba:a2:45:d5:96:ec:cc:fc:76:c6:8b:ad:67:7e:
                    2e:76:f7:48:2f:65:1a:1d:e3:d1:7e:94:a9:fe:bb:
                    1f:ec:4b:c6:1b:c7:a4:cf:86:6f:0c:04:18:3f:c8:
                    21:7c:6d:db:55:1b:ea:59:45:e4:5d:4a:c1:90:4d:
                    e0:57:ab:8f:c2:3c:a1:52:47:1d:6a:a7:6d:98:40:
                    60:82:b7:7f:14:47:5c:7e:b4:11:59:84:34:94:ba:
                    c0:55:db:e5:5d:b0:96:f4:1f:cc:60:cc:e8:7f:51:
                    80:15:17:5c:41:ca:17:c0:f7:a0:70:dc:e2:22:41:
                    10:8c:4a:3e:c5:d1:a1:8d:21:76:cb:88:60:46:8a:
                    05:ca:b7:43:80:c0:be:f2:a2:2f:d2:d5:8a:28:81:
                    29:4d:3e:cc:5d:c8:85:3a:8c:9f:5b:d9:62:97:d6:
                    95:98:45:83:e5:a1:fa:a3:cf:5f:76:d8:10:af:dc:
                    8a:e7:7d:ee:c7:50:67:9d:50:4e:12:df:5b:e3:e1:
                    36:17:3c:af:5c:af:83:3b:13:2c:fa:c3:d7:88:1b:
                    cd:14:60:ce:b3:35:ef:96:d8:3b:02:89:6f:9d:60:
                    c3:4c:9c:91:13:30:39:79:42:c5:eb:51:04:7d:6a:
                    71:a0:8f:dd:50:59:94:4a:ec:41:3f:2f:c1:60:40:
                    aa:fc:1f
                Exponent: 65537 (0x10001)
        X509v3 extensions:
            X509v3 Basic Constraints: 
                CA:FALSE
            Netscape Comment: 
                Easy-RSA Generated Certificate
            X509v3 Subject Key Identifier: 
                04:4F:71:F7:69:F3:D4:10:5A:6E:FC:0B:C0:64:20:2F:30:E3:6B:61
            X509v3 Authority Key Identifier: 
                keyid:EF:38:8D:14:50:58:A7:5B:4D:9C:17:72:FC:DF:B9:AC:A7:51:B0:10
                DirName:/C=US/ST=CA/L=SanFrancisco/O=Pixglo, Inc./OU=VPN-CIE/CN=tunnel.pixglo.com/name=Bala Chandrasekaran/emailAddress=bala@pixglo.com
                serial:A6:DB:C6:83:80:E6:A0:79

            X509v3 Extended Key Usage: 
                TLS Web Client Authentication
            X509v3 Key Usage: 
                Digital Signature
    Signature Algorithm: sha1WithRSAEncryption
         54:c1:80:3a:03:5e:ec:07:03:a3:7a:81:33:9f:cc:86:d0:d2:
         50:7d:58:27:8a:98:a3:57:e9:b9:e3:35:7c:9f:4b:6e:67:10:
         a4:71:49:fb:c9:91:3c:ac:34:83:0c:2d:2d:61:b2:dc:4d:f2:
         8d:eb:d0:fd:c6:ec:bc:d8:be:e7:93:c7:93:c8:5f:2c:ef:9a:
         44:91:d8:b7:ff:61:d6:49:d4:6b:b5:bc:2a:68:5d:10:fa:cc:
         f5:a2:13:e9:c7:83:6c:96:99:e1:7b:6c:79:f3:2f:e5:5d:c3:
         f2:ef:b4:77:3a:d8:ed:b8:2b:f5:bc:81:e4:15:b3:c6:d2:1a:
         e6:81:5c:46:5d:4b:42:6b:b1:eb:c2:18:28:c2:3b:31:b7:71:
         89:4d:39:cd:dd:4b:62:af:a2:fb:0a:c6:26:26:f2:e5:77:82:
         16:9f:ef:11:69:0a:05:b3:8f:40:75:75:24:92:df:22:35:5c:
         d8:e6:e1:dc:af:48:c9:ea:74:af:de:f4:a4:42:2a:de:b9:78:
         24:cd:56:db:1a:0a:24:b3:27:bc:de:5f:25:0e:c7:bb:2d:94:
         f2:b4:ed:c3:c9:40:1d:dd:04:9f:94:6e:d0:65:82:8b:d5:2c:
         cd:ba:ca:5a:2d:27:fb:ab:6e:ec:79:82:d0:e5:fe:38:8c:18:
         ff:e5:03:d1:27:5f:e4:f0:e7:e5:9c:48:15:2c:77:11:04:a4:
         48:5d:8c:ba:8e:97:5a:3a:45:c7:a1:9a:ab:71:04:18:8f:9f:
         b0:9e:de:d1:fd:b1:98:62:66:84:2c:55:1a:8e:26:6e:88:d8:
         02:ba:d7:9e:c8:2a:25:42:43:4b:10:d1:12:00:27:7a:0c:60:
         b8:08:a8:34:4a:5a:71:48:0e:b1:89:f1:fd:07:93:96:46:09:
         21:d4:2b:bc:d2:ef:34:14:1e:e4:96:38:cf:66:a0:8a:77:f7:
         c8:6b:ed:fe:b9:6c:e9:31:ab:44:1d:32:fa:70:88:de:bf:14:
         fc:0c:5a:7b:12:84:09:93:6d:b9:c8:55:a4:16:06:e3:81:0e:
         8f:bf:02:29:b0:5e:e6:f2:40:43:9a:79:ac:fa:80:e7:cb:70:
         49:10:12:ba:f8:2f:89:0d:1f:9d:21:65:85:b8:39:04:29:86:
         f0:00:fc:a4:d9:f6:2b:13:59:82:d4:91:88:b4:bd:eb:e5:72:
         c2:f3:da:ee:54:c1:80:bb:2e:4d:c4:9d:3b:6c:0e:c1:8a:46:
         1d:6e:0e:6c:88:11:59:18:78:9d:32:57:08:66:87:52:d9:95:
         80:08:1c:e4:04:be:70:91:ee:fa:3a:86:e1:14:b3:3a:7d:11:
         33:b9:36:09:47:45:5e:16
-----BEGIN CERTIFICATE-----
MIIHRjCCBS6gAwIBAgIBGTANBgkqhkiG9w0BAQUFADCBtDELMAkGA1UEBhMCVVMx
CzAJBgNVBAgTAkNBMRUwEwYDVQQHEwxTYW5GcmFuY2lzY28xFTATBgNVBAoTDFBp
eGdsbywgSW5jLjEQMA4GA1UECxMHVlBOLUNJRTEaMBgGA1UEAxMRdHVubmVsLnBp
eGdsby5jb20xHDAaBgNVBCkTE0JhbGEgQ2hhbmRyYXNla2FyYW4xHjAcBgkqhkiG
9w0BCQEWD2JhbGFAcGl4Z2xvLmNvbTAeFw0xODAyMTQwNjI0MjhaFw0yODAyMTIw
NjI0MjhaMIGoMQswCQYDVQQGEwJVUzELMAkGA1UECBMCQ0ExFTATBgNVBAcTDFNh
bkZyYW5jaXNjbzEVMBMGA1UEChMMUGl4Z2xvLCBJbmMuMRAwDgYDVQQLEwdWUE4t
Q0lFMQ4wDAYDVQQDEwVjaWUyNDEcMBoGA1UEKRMTQmFsYSBDaGFuZHJhc2VrYXJh
bjEeMBwGCSqGSIb3DQEJARYPYmFsYUBwaXhnbG8uY29tMIICIjANBgkqhkiG9w0B
AQEFAAOCAg8AMIICCgKCAgEAu0IdVsJOACVocHuxpPG2T7w4i07Um3LIauigH/zc
0uuEqb521COOvl/iO6qX3Yko3uS2C4OzKY2i0DieNUPJCpC1eh6Ky+v1/LH0FiiZ
L8DDG3/Cy2Ad8R/sMcKUmGJOymEqs+OPFPrzEAZ0ShPpGTz4tgR5leqSJ1P8xi8C
x/DOJaHZQKKGsFevO9dsX1987PKVwwnkDdLHVz2frnWI9s1X0Zl34ZEmFhajuR/O
ocNj2I88YBlyOqFApjhn7hS+wiZzclE5qljA439BfK2wKGuoR/kUkq6U0n6jpy6M
LcH6Afc5zOa6SzPJTikgZjAVPVCL4J9uGJY2QCv3jesSuqJF1ZbszPx2xoutZ34u
dvdIL2UaHePRfpSp/rsf7EvGG8ekz4ZvDAQYP8ghfG3bVRvqWUXkXUrBkE3gV6uP
wjyhUkcdaqdtmEBggrd/FEdcfrQRWYQ0lLrAVdvlXbCW9B/MYMzof1GAFRdcQcoX
wPegcNziIkEQjEo+xdGhjSF2y4hgRooFyrdDgMC+8qIv0tWKKIEpTT7MXciFOoyf
W9lil9aVmEWD5aH6o89fdtgQr9yK533ux1BnnVBOEt9b4+E2FzyvXK+DOxMs+sPX
iBvNFGDOszXvltg7AolvnWDDTJyREzA5eULF61EEfWpxoI/dUFmUSuxBPy/BYECq
/B8CAwEAAaOCAWswggFnMAkGA1UdEwQCMAAwLQYJYIZIAYb4QgENBCAWHkVhc3kt
UlNBIEdlbmVyYXRlZCBDZXJ0aWZpY2F0ZTAdBgNVHQ4EFgQUBE9x92nz1BBabvwL
wGQgLzDja2EwgekGA1UdIwSB4TCB3oAU7ziNFFBYp1tNnBdy/N+5rKdRsBChgbqk
gbcwgbQxCzAJBgNVBAYTAlVTMQswCQYDVQQIEwJDQTEVMBMGA1UEBxMMU2FuRnJh
bmNpc2NvMRUwEwYDVQQKEwxQaXhnbG8sIEluYy4xEDAOBgNVBAsTB1ZQTi1DSUUx
GjAYBgNVBAMTEXR1bm5lbC5waXhnbG8uY29tMRwwGgYDVQQpExNCYWxhIENoYW5k
cmFzZWthcmFuMR4wHAYJKoZIhvcNAQkBFg9iYWxhQHBpeGdsby5jb22CCQCm28aD
gOageTATBgNVHSUEDDAKBggrBgEFBQcDAjALBgNVHQ8EBAMCB4AwDQYJKoZIhvcN
AQEFBQADggIBAFTBgDoDXuwHA6N6gTOfzIbQ0lB9WCeKmKNX6bnjNXyfS25nEKRx
SfvJkTysNIMMLS1hstxN8o3r0P3G7LzYvueTx5PIXyzvmkSR2Lf/YdZJ1Gu1vCpo
XRD6zPWiE+nHg2yWmeF7bHnzL+Vdw/LvtHc62O24K/W8geQVs8bSGuaBXEZdS0Jr
sevCGCjCOzG3cYlNOc3dS2KvovsKxiYm8uV3ghaf7xFpCgWzj0B1dSSS3yI1XNjm
4dyvSMnqdK/e9KRCKt65eCTNVtsaCiSzJ7zeXyUOx7stlPK07cPJQB3dBJ+UbtBl
govVLM26ylotJ/urbux5gtDl/jiMGP/lA9EnX+Tw5+WcSBUsdxEEpEhdjLqOl1o6
RcehmqtxBBiPn7Ce3tH9sZhiZoQsVRqOJm6I2AK6157IKiVCQ0sQ0RIAJ3oMYLgI
qDRKWnFIDrGJ8f0Hk5ZGCSHUK7zS7zQUHuSWOM9moIp398hr7f65bOkxq0QdMvpw
iN6/FPwMWnsShAmTbbnIVaQWBuOBDo+/AimwXubyQEOaeaz6gOfLcEkQErr4L4kN
H50hZYW4OQQphvAA/KTZ9isTWYLUkYi0vevlcsLz2u5UwYC7Lk3EnTtsDsGKRh1u
DmyIEVkYeJ0yVwhmh1LZlYAIHOQEvnCR7vo6huEUszp9ETO5NglHRV4W
-----END CERTIFICATE-----
