Certificate:
    Data:
        Version: 3 (0x2)
        Serial Number: 210 (0xd2)
    Signature Algorithm: sha1WithRSAEncryption
        Issuer: C=US, ST=CA, L=SanFrancisco, O=Pixglo, Inc., OU=VPN-CIE, CN=tunnel.pixglo.com/name=Bala Chandrasekaran/emailAddress=bala@pixglo.com
        Validity
            Not Before: Feb 14 06:27:04 2018 GMT
            Not After : Feb 12 06:27:04 2028 GMT
        Subject: C=US, ST=CA, L=SanFrancisco, O=Pixglo, Inc., OU=VPN-CIE, CN=cie209/name=Bala Chandrasekaran/emailAddress=bala@pixglo.com
        Subject Public Key Info:
            Public Key Algorithm: rsaEncryption
                Public-Key: (4096 bit)
                Modulus:
                    00:d0:fd:77:c3:b0:3c:89:cf:45:3c:86:f6:7e:b9:
                    63:b2:a1:fe:74:5c:09:4b:20:30:c9:90:d3:a3:66:
                    87:9d:41:44:f5:c0:31:60:4e:64:45:f5:82:99:2f:
                    33:fe:30:ea:a3:0b:00:a1:47:14:f9:ac:be:e4:f5:
                    4f:6c:e7:2c:37:26:fc:88:e4:28:88:45:ae:3c:9d:
                    17:bb:ce:d8:a4:46:28:55:ef:26:62:42:f4:ea:f2:
                    14:4e:c9:6f:d2:28:59:76:27:84:9b:f4:a3:f5:5e:
                    df:3d:31:b0:91:c5:72:68:c7:d8:38:ba:3c:02:86:
                    d2:e7:18:98:94:98:a0:eb:c9:4c:9e:12:08:2c:fd:
                    95:9c:ee:41:b8:2d:cd:a2:a5:80:4f:f5:c9:32:55:
                    c2:7b:c6:d4:8a:24:47:c8:d7:91:b8:1c:62:46:d3:
                    e7:e0:f3:06:a0:97:17:80:87:21:45:08:eb:b6:ec:
                    40:32:db:d7:34:5e:8f:1a:e6:71:d3:59:51:4c:a5:
                    91:55:58:b1:7d:10:43:4d:a0:10:1f:d0:49:fe:47:
                    2d:aa:3a:ce:01:57:e0:71:d5:5b:8c:9d:60:43:99:
                    58:41:4f:b4:9c:1e:4e:55:3d:d4:66:5a:94:2d:c3:
                    be:ec:ac:2e:7b:25:c9:1c:d9:c5:43:f6:1e:10:81:
                    81:69:9f:c0:07:89:2e:ca:98:ad:88:4b:b4:6d:ca:
                    76:eb:06:ee:94:fb:59:3c:c8:37:36:c1:5a:a4:da:
                    04:8c:d9:aa:7f:f8:c9:2d:39:37:f1:e0:3f:e3:39:
                    a7:c0:59:39:f2:8f:ae:22:16:4d:51:d5:fc:28:34:
                    41:ed:83:ee:30:b5:89:c1:7e:9a:cb:0f:67:a0:43:
                    00:88:d0:39:a2:ba:a5:9a:cf:b7:d2:0b:6d:48:1a:
                    68:1f:85:bf:a7:5c:9d:d5:19:53:31:46:99:ee:75:
                    3e:87:b9:d9:e9:2d:20:55:97:35:9c:94:47:0c:ac:
                    6d:32:6d:34:fd:71:9a:d7:78:e5:ac:d3:8a:f9:c9:
                    1a:27:02:1f:28:5a:6e:f3:2d:53:2d:18:7b:49:c9:
                    d1:a9:67:fc:5b:d4:65:0a:f3:30:47:12:44:4f:66:
                    89:4f:9e:1e:21:e1:56:df:2d:9b:d0:ed:4b:b1:eb:
                    53:4a:04:49:1d:50:45:3a:12:22:d1:6e:ed:b9:c0:
                    31:02:b1:06:ac:2b:bc:35:80:c4:6d:97:b0:5a:eb:
                    34:13:4c:55:21:15:e7:af:96:a1:cf:a0:a9:bd:3f:
                    0d:0f:e5:dd:2c:51:fd:0c:f3:7f:f9:99:3f:d7:30:
                    06:98:85:bb:40:f5:76:d1:b1:e4:e5:85:32:c9:9e:
                    fe:5b:f3
                Exponent: 65537 (0x10001)
        X509v3 extensions:
            X509v3 Basic Constraints: 
                CA:FALSE
            Netscape Comment: 
                Easy-RSA Generated Certificate
            X509v3 Subject Key Identifier: 
                16:92:7C:AE:17:18:8D:EF:C6:FC:79:1B:43:D7:59:D5:06:CE:18:3C
            X509v3 Authority Key Identifier: 
                keyid:EF:38:8D:14:50:58:A7:5B:4D:9C:17:72:FC:DF:B9:AC:A7:51:B0:10
                DirName:/C=US/ST=CA/L=SanFrancisco/O=Pixglo, Inc./OU=VPN-CIE/CN=tunnel.pixglo.com/name=Bala Chandrasekaran/emailAddress=bala@pixglo.com
                serial:A6:DB:C6:83:80:E6:A0:79

            X509v3 Extended Key Usage: 
                TLS Web Client Authentication
            X509v3 Key Usage: 
                Digital Signature
    Signature Algorithm: sha1WithRSAEncryption
         68:fe:c5:17:e9:13:85:9d:14:c0:93:8a:4d:56:fa:2c:5d:3d:
         22:19:f0:2d:3c:0c:32:f3:d9:a0:af:ee:cd:54:ca:9b:67:2e:
         c2:ca:ac:20:df:52:ff:ce:60:6f:80:27:28:1c:f1:a4:4c:01:
         3c:f6:b2:00:4c:34:f0:4a:85:df:10:95:60:5b:09:c7:63:b2:
         83:85:23:6e:d2:42:e3:32:a8:5b:42:dd:b9:5b:e9:25:80:12:
         2f:5c:c0:41:7b:ec:5f:1c:a8:6d:d5:2c:c0:89:e0:2f:98:f1:
         91:5e:6a:93:78:35:b0:78:55:40:e1:a9:af:84:98:10:79:86:
         fc:83:9a:fe:ed:15:fd:59:ed:23:53:f3:92:f6:05:4c:a6:01:
         33:bd:7f:35:b8:94:0d:5d:e2:c4:20:7c:96:7f:36:16:9f:f1:
         22:46:fb:93:87:55:f0:e1:e3:1c:0d:ef:ff:7b:b3:19:2a:fe:
         b5:e4:59:05:8d:01:71:da:de:64:9b:b2:2e:5d:00:ad:dc:61:
         b2:12:b7:46:ad:cd:17:b8:be:da:90:37:50:f8:51:4e:3e:7d:
         89:ba:e3:0f:3b:ae:a0:37:a9:64:8a:b2:d2:fd:9f:20:0d:80:
         a7:50:cb:a2:e0:a5:e1:28:b5:a1:7d:91:f3:4c:c2:34:94:07:
         69:02:a3:10:5d:50:2d:8d:0c:2d:62:ea:5a:ed:18:d3:22:41:
         11:ef:c8:39:6f:58:97:cf:41:99:ec:ff:5b:aa:4a:b1:65:59:
         0c:61:0c:71:b1:d9:68:b5:b5:ff:0b:f0:1b:28:96:51:b8:b5:
         a9:12:9c:1c:4d:1d:e8:c2:ee:47:fc:c9:b9:09:cf:4b:94:04:
         5d:75:4c:f5:55:ff:59:6c:cc:ae:02:b8:3f:9a:a8:3c:fe:69:
         85:94:6b:7d:49:38:11:b8:18:2f:38:e2:64:33:fe:b3:08:db:
         42:e9:20:9e:6f:08:c7:2d:96:42:f9:37:be:ed:ca:96:0c:3f:
         56:e4:22:78:5a:5a:dd:62:ab:ec:35:35:8a:8f:00:f3:0b:ec:
         fb:98:5e:b5:9b:06:ae:48:51:25:d8:24:1f:1d:25:3a:28:32:
         f9:45:99:32:ae:74:d4:21:a9:2b:fd:17:9e:fc:25:cc:ce:09:
         a1:aa:f8:26:7d:5a:2a:a6:ee:7f:63:db:6c:31:82:45:a4:40:
         60:9b:eb:e1:53:0b:04:5a:90:4a:49:5a:e3:4a:b6:59:f8:4a:
         20:75:72:da:c1:b7:d4:a7:5c:fa:c7:1f:25:f2:a1:67:b6:69:
         c8:ea:dc:54:23:cd:66:6c:21:98:4a:f7:a0:b0:3b:fc:2c:1c:
         4f:3e:63:4e:e8:2d:6c:4a
-----BEGIN CERTIFICATE-----
MIIHSDCCBTCgAwIBAgICANIwDQYJKoZIhvcNAQEFBQAwgbQxCzAJBgNVBAYTAlVT
MQswCQYDVQQIEwJDQTEVMBMGA1UEBxMMU2FuRnJhbmNpc2NvMRUwEwYDVQQKEwxQ
aXhnbG8sIEluYy4xEDAOBgNVBAsTB1ZQTi1DSUUxGjAYBgNVBAMTEXR1bm5lbC5w
aXhnbG8uY29tMRwwGgYDVQQpExNCYWxhIENoYW5kcmFzZWthcmFuMR4wHAYJKoZI
hvcNAQkBFg9iYWxhQHBpeGdsby5jb20wHhcNMTgwMjE0MDYyNzA0WhcNMjgwMjEy
MDYyNzA0WjCBqTELMAkGA1UEBhMCVVMxCzAJBgNVBAgTAkNBMRUwEwYDVQQHEwxT
YW5GcmFuY2lzY28xFTATBgNVBAoTDFBpeGdsbywgSW5jLjEQMA4GA1UECxMHVlBO
LUNJRTEPMA0GA1UEAxMGY2llMjA5MRwwGgYDVQQpExNCYWxhIENoYW5kcmFzZWth
cmFuMR4wHAYJKoZIhvcNAQkBFg9iYWxhQHBpeGdsby5jb20wggIiMA0GCSqGSIb3
DQEBAQUAA4ICDwAwggIKAoICAQDQ/XfDsDyJz0U8hvZ+uWOyof50XAlLIDDJkNOj
ZoedQUT1wDFgTmRF9YKZLzP+MOqjCwChRxT5rL7k9U9s5yw3JvyI5CiIRa48nRe7
ztikRihV7yZiQvTq8hROyW/SKFl2J4Sb9KP1Xt89MbCRxXJox9g4ujwChtLnGJiU
mKDryUyeEggs/ZWc7kG4Lc2ipYBP9ckyVcJ7xtSKJEfI15G4HGJG0+fg8waglxeA
hyFFCOu27EAy29c0Xo8a5nHTWVFMpZFVWLF9EENNoBAf0En+Ry2qOs4BV+Bx1VuM
nWBDmVhBT7ScHk5VPdRmWpQtw77srC57Jckc2cVD9h4QgYFpn8AHiS7KmK2IS7Rt
ynbrBu6U+1k8yDc2wVqk2gSM2ap/+MktOTfx4D/jOafAWTnyj64iFk1R1fwoNEHt
g+4wtYnBfprLD2egQwCI0DmiuqWaz7fSC21IGmgfhb+nXJ3VGVMxRpnudT6Hudnp
LSBVlzWclEcMrG0ybTT9cZrXeOWs04r5yRonAh8oWm7zLVMtGHtJydGpZ/xb1GUK
8zBHEkRPZolPnh4h4VbfLZvQ7Uux61NKBEkdUEU6EiLRbu25wDECsQasK7w1gMRt
l7Ba6zQTTFUhFeevlqHPoKm9Pw0P5d0sUf0M83/5mT/XMAaYhbtA9XbRseTlhTLJ
nv5b8wIDAQABo4IBazCCAWcwCQYDVR0TBAIwADAtBglghkgBhvhCAQ0EIBYeRWFz
eS1SU0EgR2VuZXJhdGVkIENlcnRpZmljYXRlMB0GA1UdDgQWBBQWknyuFxiN78b8
eRtD11nVBs4YPDCB6QYDVR0jBIHhMIHegBTvOI0UUFinW02cF3L837msp1GwEKGB
uqSBtzCBtDELMAkGA1UEBhMCVVMxCzAJBgNVBAgTAkNBMRUwEwYDVQQHEwxTYW5G
cmFuY2lzY28xFTATBgNVBAoTDFBpeGdsbywgSW5jLjEQMA4GA1UECxMHVlBOLUNJ
RTEaMBgGA1UEAxMRdHVubmVsLnBpeGdsby5jb20xHDAaBgNVBCkTE0JhbGEgQ2hh
bmRyYXNla2FyYW4xHjAcBgkqhkiG9w0BCQEWD2JhbGFAcGl4Z2xvLmNvbYIJAKbb
xoOA5qB5MBMGA1UdJQQMMAoGCCsGAQUFBwMCMAsGA1UdDwQEAwIHgDANBgkqhkiG
9w0BAQUFAAOCAgEAaP7FF+kThZ0UwJOKTVb6LF09IhnwLTwMMvPZoK/uzVTKm2cu
wsqsIN9S/85gb4AnKBzxpEwBPPayAEw08EqF3xCVYFsJx2Oyg4UjbtJC4zKoW0Ld
uVvpJYASL1zAQXvsXxyobdUswIngL5jxkV5qk3g1sHhVQOGpr4SYEHmG/IOa/u0V
/VntI1PzkvYFTKYBM71/NbiUDV3ixCB8ln82Fp/xIkb7k4dV8OHjHA3v/3uzGSr+
teRZBY0BcdreZJuyLl0ArdxhshK3Rq3NF7i+2pA3UPhRTj59ibrjDzuuoDepZIqy
0v2fIA2Ap1DLouCl4Si1oX2R80zCNJQHaQKjEF1QLY0MLWLqWu0Y0yJBEe/IOW9Y
l89Bmez/W6pKsWVZDGEMcbHZaLW1/wvwGyiWUbi1qRKcHE0d6MLuR/zJuQnPS5QE
XXVM9VX/WWzMrgK4P5qoPP5phZRrfUk4EbgYLzjiZDP+swjbQukgnm8Ixy2WQvk3
vu3Klgw/VuQieFpa3WKr7DU1io8A8wvs+5hetZsGrkhRJdgkHx0lOigy+UWZMq50
1CGpK/0XnvwlzM4Joar4Jn1aKqbuf2PbbDGCRaRAYJvr4VMLBFqQSkla40q2WfhK
IHVy2sG31Kdc+scfJfKhZ7ZpyOrcVCPNZmwhmEr3oLA7/CwcTz5jTugtbEo=
-----END CERTIFICATE-----
