Certificate:
    Data:
        Version: 3 (0x2)
        Serial Number: 228 (0xe4)
    Signature Algorithm: sha1WithRSAEncryption
        Issuer: C=US, ST=CA, L=SanFrancisco, O=Pixglo, Inc., OU=VPN-CIE, CN=tunnel.pixglo.com/name=Bala Chandrasekaran/emailAddress=bala@pixglo.com
        Validity
            Not Before: Feb 14 06:29:02 2018 GMT
            Not After : Feb 12 06:29:02 2028 GMT
        Subject: C=US, ST=CA, L=SanFrancisco, O=Pixglo, Inc., OU=VPN-CIE, CN=cie227/name=Bala Chandrasekaran/emailAddress=bala@pixglo.com
        Subject Public Key Info:
            Public Key Algorithm: rsaEncryption
                Public-Key: (4096 bit)
                Modulus:
                    00:ab:5a:6c:39:ed:a8:26:13:17:e0:33:ad:d9:35:
                    25:69:bc:73:a5:08:dd:5a:e9:38:78:ab:a1:6b:6e:
                    75:5d:4c:a4:32:8a:83:a7:00:93:54:8a:0f:4b:a7:
                    82:db:d4:dc:33:d6:62:33:a6:10:0e:10:7d:7b:b1:
                    40:30:b8:50:bd:e8:6d:97:a2:c4:ce:8f:58:29:02:
                    88:52:ab:8b:df:33:49:bf:60:05:1a:37:03:c8:66:
                    18:26:f6:5f:57:95:b9:0d:2a:5c:f1:0d:f7:e0:0b:
                    4e:11:b3:ff:03:90:2f:36:48:18:7e:02:7d:46:03:
                    b3:77:e1:18:c7:48:1c:32:4f:68:4e:2a:b7:18:49:
                    ee:48:fe:df:95:d2:94:0a:e2:e5:96:08:eb:3c:87:
                    eb:44:ed:b1:98:de:6e:73:dd:c6:6f:78:d4:3e:5e:
                    f3:41:5c:ad:36:10:e6:84:2b:00:3c:a5:ca:bb:c2:
                    56:e8:95:26:fb:6c:e3:eb:fe:7c:99:16:6a:5d:0e:
                    57:db:b1:2d:a9:a0:dc:bc:82:bf:25:f7:29:f9:3d:
                    ff:0c:31:75:bd:57:1e:c6:e6:f6:1a:8b:d3:10:c1:
                    16:4f:a1:6a:17:e5:0a:91:62:f6:e7:ff:be:16:9a:
                    3a:c4:fa:7d:1b:56:1c:45:79:6a:e8:86:49:21:d8:
                    52:6d:d2:e5:ac:a6:81:67:25:49:5c:9a:4f:01:02:
                    8f:7f:59:e4:c2:71:7a:51:e2:fc:c0:1a:1b:5e:c0:
                    0e:58:a6:b1:60:34:37:e3:72:92:69:4a:de:04:09:
                    07:d7:a5:83:63:93:78:78:3b:7b:a7:29:b5:76:2a:
                    1f:1b:f7:cb:5a:8f:91:31:e5:73:c8:6c:5c:d2:5f:
                    f9:c5:95:5a:b9:0f:64:d3:7c:41:f1:d5:f8:bc:4f:
                    ce:7a:4f:e6:53:18:53:7a:db:dd:42:59:d6:73:8f:
                    27:51:a4:d9:fe:79:25:66:41:43:0f:01:21:d6:c8:
                    13:56:75:1a:8e:a4:ee:91:9e:68:04:5b:df:33:af:
                    1e:12:51:f1:49:67:93:eb:c6:43:19:0a:81:81:80:
                    a6:20:00:2a:7b:6a:31:c4:c6:84:72:44:37:d6:ed:
                    50:1e:65:fd:b5:2d:d9:8b:67:7e:23:07:2d:b5:1a:
                    2c:fa:3b:27:e1:51:f6:a8:09:a5:9a:e1:62:27:ef:
                    33:18:f5:75:ea:5f:97:ad:72:09:dd:1e:01:84:a6:
                    ab:07:a8:e4:3a:7e:81:b8:d4:83:e7:89:7b:5b:8b:
                    b4:ff:fa:03:4c:8f:b9:72:60:19:35:1b:2a:b5:11:
                    3d:36:bf:3c:05:f2:83:a3:86:6f:eb:e1:d0:49:09:
                    f3:98:9b
                Exponent: 65537 (0x10001)
        X509v3 extensions:
            X509v3 Basic Constraints: 
                CA:FALSE
            Netscape Comment: 
                Easy-RSA Generated Certificate
            X509v3 Subject Key Identifier: 
                5D:CF:B2:CC:3C:25:3E:90:37:C1:83:CD:CD:D9:96:BF:95:75:A7:A9
            X509v3 Authority Key Identifier: 
                keyid:EF:38:8D:14:50:58:A7:5B:4D:9C:17:72:FC:DF:B9:AC:A7:51:B0:10
                DirName:/C=US/ST=CA/L=SanFrancisco/O=Pixglo, Inc./OU=VPN-CIE/CN=tunnel.pixglo.com/name=Bala Chandrasekaran/emailAddress=bala@pixglo.com
                serial:A6:DB:C6:83:80:E6:A0:79

            X509v3 Extended Key Usage: 
                TLS Web Client Authentication
            X509v3 Key Usage: 
                Digital Signature
    Signature Algorithm: sha1WithRSAEncryption
         54:8d:f1:a6:bd:61:53:e8:53:1f:82:81:a1:4f:d0:6c:32:f6:
         01:71:44:60:26:60:02:59:79:22:38:3e:39:39:92:6b:8d:0d:
         ae:f1:a2:22:69:1c:19:73:46:de:d2:9e:6b:b6:28:e6:34:6a:
         14:f3:29:49:68:ef:d0:22:b1:48:59:1f:ed:14:77:56:8b:85:
         d0:6e:fa:04:3a:0b:95:12:e7:b3:10:56:13:d5:95:49:df:94:
         ec:37:52:16:c7:ba:eb:dd:63:9f:25:4a:59:ce:01:41:0d:ef:
         9b:13:45:0f:77:39:26:df:25:98:5b:69:f6:e4:2f:45:4b:4f:
         2e:35:55:56:55:14:d3:d1:25:e7:47:e9:88:6f:c0:60:84:cb:
         2d:32:0b:a3:62:6c:4b:0c:27:3e:22:e2:a8:57:35:74:9d:fb:
         d5:96:f4:19:e8:12:e7:88:fc:73:80:3a:6d:e0:1c:18:a4:67:
         8e:6a:32:4f:86:2f:5e:bd:34:bd:a1:f9:20:5e:69:27:95:e1:
         04:60:9c:e4:61:1a:55:61:f0:df:9f:b1:1a:4a:f9:29:10:4d:
         cd:c1:97:03:22:95:d9:0c:53:9a:73:b5:d4:79:a8:a9:e8:65:
         a6:52:3c:21:cf:20:96:ee:35:94:fe:fb:8f:0a:84:fd:97:61:
         02:bc:0f:33:5f:26:3f:99:a4:87:c3:8f:69:ba:7e:23:a2:7d:
         08:e6:91:8c:a1:cd:45:52:ed:29:97:e5:d6:55:db:c0:98:8f:
         ba:e6:1a:89:a1:40:bd:3d:97:41:37:b2:6b:48:66:df:9a:cd:
         15:5f:ef:ad:96:cd:9c:ea:5d:59:7c:20:f2:33:10:9a:9e:c3:
         d2:04:bc:fc:44:68:8b:8a:b8:85:6d:dd:5f:54:15:a0:bc:0e:
         82:73:7c:99:bd:00:4b:87:88:2b:13:b7:9c:48:2f:5b:e5:2a:
         be:4d:f0:d0:a2:f2:46:bd:1c:a8:e4:2b:cd:9e:27:dd:b5:b3:
         f8:e8:09:17:76:96:a4:14:8e:7e:0f:9f:0a:7a:35:95:d5:a0:
         18:47:35:88:62:1a:f2:04:d2:59:b3:e4:0a:7f:4c:2d:e1:eb:
         07:6d:1e:8f:8d:3c:11:48:d8:1f:5b:7b:97:a5:8d:90:9c:95:
         cb:50:d6:b4:b1:1e:f9:74:19:63:ee:58:92:2b:af:dc:53:11:
         55:fa:e0:8a:71:b0:8e:f2:1b:e8:59:b2:4a:e7:d0:05:11:a9:
         18:e2:01:f2:40:e3:46:cf:3a:c3:c8:a7:9b:1d:88:93:0f:33:
         9c:af:c0:2e:d1:0f:0e:78:c4:d1:d7:60:03:af:36:82:1d:b7:
         27:1d:89:de:2b:ad:b8:06
-----BEGIN CERTIFICATE-----
MIIHSDCCBTCgAwIBAgICAOQwDQYJKoZIhvcNAQEFBQAwgbQxCzAJBgNVBAYTAlVT
MQswCQYDVQQIEwJDQTEVMBMGA1UEBxMMU2FuRnJhbmNpc2NvMRUwEwYDVQQKEwxQ
aXhnbG8sIEluYy4xEDAOBgNVBAsTB1ZQTi1DSUUxGjAYBgNVBAMTEXR1bm5lbC5w
aXhnbG8uY29tMRwwGgYDVQQpExNCYWxhIENoYW5kcmFzZWthcmFuMR4wHAYJKoZI
hvcNAQkBFg9iYWxhQHBpeGdsby5jb20wHhcNMTgwMjE0MDYyOTAyWhcNMjgwMjEy
MDYyOTAyWjCBqTELMAkGA1UEBhMCVVMxCzAJBgNVBAgTAkNBMRUwEwYDVQQHEwxT
YW5GcmFuY2lzY28xFTATBgNVBAoTDFBpeGdsbywgSW5jLjEQMA4GA1UECxMHVlBO
LUNJRTEPMA0GA1UEAxMGY2llMjI3MRwwGgYDVQQpExNCYWxhIENoYW5kcmFzZWth
cmFuMR4wHAYJKoZIhvcNAQkBFg9iYWxhQHBpeGdsby5jb20wggIiMA0GCSqGSIb3
DQEBAQUAA4ICDwAwggIKAoICAQCrWmw57agmExfgM63ZNSVpvHOlCN1a6Th4q6Fr
bnVdTKQyioOnAJNUig9Lp4Lb1Nwz1mIzphAOEH17sUAwuFC96G2XosTOj1gpAohS
q4vfM0m/YAUaNwPIZhgm9l9XlbkNKlzxDffgC04Rs/8DkC82SBh+An1GA7N34RjH
SBwyT2hOKrcYSe5I/t+V0pQK4uWWCOs8h+tE7bGY3m5z3cZveNQ+XvNBXK02EOaE
KwA8pcq7wlbolSb7bOPr/nyZFmpdDlfbsS2poNy8gr8l9yn5Pf8MMXW9Vx7G5vYa
i9MQwRZPoWoX5QqRYvbn/74WmjrE+n0bVhxFeWrohkkh2FJt0uWspoFnJUlcmk8B
Ao9/WeTCcXpR4vzAGhtewA5YprFgNDfjcpJpSt4ECQfXpYNjk3h4O3unKbV2Kh8b
98taj5Ex5XPIbFzSX/nFlVq5D2TTfEHx1fi8T856T+ZTGFN6291CWdZzjydRpNn+
eSVmQUMPASHWyBNWdRqOpO6RnmgEW98zrx4SUfFJZ5PrxkMZCoGBgKYgACp7ajHE
xoRyRDfW7VAeZf21LdmLZ34jBy21Giz6OyfhUfaoCaWa4WIn7zMY9XXqX5etcgnd
HgGEpqsHqOQ6foG41IPniXtbi7T/+gNMj7lyYBk1Gyq1ET02vzwF8oOjhm/r4dBJ
CfOYmwIDAQABo4IBazCCAWcwCQYDVR0TBAIwADAtBglghkgBhvhCAQ0EIBYeRWFz
eS1SU0EgR2VuZXJhdGVkIENlcnRpZmljYXRlMB0GA1UdDgQWBBRdz7LMPCU+kDfB
g83N2Za/lXWnqTCB6QYDVR0jBIHhMIHegBTvOI0UUFinW02cF3L837msp1GwEKGB
uqSBtzCBtDELMAkGA1UEBhMCVVMxCzAJBgNVBAgTAkNBMRUwEwYDVQQHEwxTYW5G
cmFuY2lzY28xFTATBgNVBAoTDFBpeGdsbywgSW5jLjEQMA4GA1UECxMHVlBOLUNJ
RTEaMBgGA1UEAxMRdHVubmVsLnBpeGdsby5jb20xHDAaBgNVBCkTE0JhbGEgQ2hh
bmRyYXNla2FyYW4xHjAcBgkqhkiG9w0BCQEWD2JhbGFAcGl4Z2xvLmNvbYIJAKbb
xoOA5qB5MBMGA1UdJQQMMAoGCCsGAQUFBwMCMAsGA1UdDwQEAwIHgDANBgkqhkiG
9w0BAQUFAAOCAgEAVI3xpr1hU+hTH4KBoU/QbDL2AXFEYCZgAll5Ijg+OTmSa40N
rvGiImkcGXNG3tKea7Yo5jRqFPMpSWjv0CKxSFkf7RR3VouF0G76BDoLlRLnsxBW
E9WVSd+U7DdSFse6691jnyVKWc4BQQ3vmxNFD3c5Jt8lmFtp9uQvRUtPLjVVVlUU
09El50fpiG/AYITLLTILo2JsSwwnPiLiqFc1dJ371Zb0GegS54j8c4A6beAcGKRn
jmoyT4YvXr00vaH5IF5pJ5XhBGCc5GEaVWHw35+xGkr5KRBNzcGXAyKV2QxTmnO1
1HmoqehlplI8Ic8glu41lP77jwqE/ZdhArwPM18mP5mkh8OPabp+I6J9COaRjKHN
RVLtKZfl1lXbwJiPuuYaiaFAvT2XQTeya0hm35rNFV/vrZbNnOpdWXwg8jMQmp7D
0gS8/ERoi4q4hW3dX1QVoLwOgnN8mb0AS4eIKxO3nEgvW+Uqvk3w0KLyRr0cqOQr
zZ4n3bWz+OgJF3aWpBSOfg+fCno1ldWgGEc1iGIa8gTSWbPkCn9MLeHrB20ej408
EUjYH1t7l6WNkJyVy1DWtLEe+XQZY+5Ykiuv3FMRVfrginGwjvIb6FmySufQBRGp
GOIB8kDjRs86w8inmx2Ikw8znK/ALtEPDnjE0ddgA682gh23Jx2J3iutuAY=
-----END CERTIFICATE-----
