Certificate:
    Data:
        Version: 3 (0x2)
        Serial Number: 240 (0xf0)
    Signature Algorithm: sha1WithRSAEncryption
        Issuer: C=US, ST=CA, L=SanFrancisco, O=Pixglo, Inc., OU=VPN-CIE, CN=tunnel.pixglo.com/name=Bala Chandrasekaran/emailAddress=bala@pixglo.com
        Validity
            Not Before: Feb 14 06:29:10 2018 GMT
            Not After : Feb 12 06:29:10 2028 GMT
        Subject: C=US, ST=CA, L=SanFrancisco, O=Pixglo, Inc., OU=VPN-CIE, CN=cie239/name=Bala Chandrasekaran/emailAddress=bala@pixglo.com
        Subject Public Key Info:
            Public Key Algorithm: rsaEncryption
                Public-Key: (4096 bit)
                Modulus:
                    00:d2:cc:10:80:24:77:76:7a:f7:7d:15:c9:8a:5b:
                    f8:a6:64:58:3f:be:28:76:9c:ee:27:f7:66:a1:23:
                    2e:18:70:89:ab:a9:bc:e6:18:38:12:40:05:23:39:
                    b3:70:54:1d:4c:63:eb:67:7c:f4:79:eb:70:c6:46:
                    1a:f7:bb:97:be:42:a6:32:7d:6d:fd:f4:d2:0a:a3:
                    ac:c9:a6:9f:78:f8:6f:59:ae:86:cf:e1:4c:ef:77:
                    77:ee:c8:40:cc:1a:b8:9d:48:82:50:cd:f4:12:6a:
                    9b:a6:95:b4:5b:54:61:37:8f:9d:1d:33:12:21:dc:
                    f4:81:f6:4d:47:71:c5:d8:cc:ea:15:15:f3:d7:36:
                    f5:69:69:f0:3f:45:49:73:96:0c:0c:76:51:3a:52:
                    55:95:19:fe:b7:13:f4:7a:28:d6:87:56:4a:ed:80:
                    ce:62:6b:32:de:f4:2f:8e:af:b9:91:36:29:74:2b:
                    f5:3f:d6:8e:70:54:00:9c:12:e3:5e:93:bd:a6:a6:
                    45:44:6a:c1:67:9a:d4:b1:c5:c6:32:56:49:f1:6e:
                    d2:f3:53:92:a7:27:a8:86:88:84:1d:38:eb:4f:cf:
                    15:e2:25:93:f6:94:a2:d6:7b:4d:91:97:34:23:e9:
                    42:ce:0e:8a:cb:61:d2:91:7b:2e:db:a9:b4:7a:c4:
                    e7:ed:19:b8:b8:c0:b3:87:07:25:44:12:ff:e2:6e:
                    d2:f6:75:01:e8:e7:e2:62:54:26:08:7b:0f:1c:f9:
                    37:ab:2a:47:59:77:9e:e6:06:81:62:31:63:89:32:
                    80:10:ba:29:7a:2d:2e:a8:43:05:c3:fb:54:b8:db:
                    52:b9:d5:07:9e:12:69:4c:27:d0:d3:9c:06:4e:a4:
                    72:2d:6b:7e:fb:35:39:ac:60:a6:43:46:9d:74:48:
                    95:c5:92:7a:72:16:2e:c7:48:9a:39:ee:3d:12:ab:
                    96:95:1e:13:41:ad:24:1e:a5:e6:a4:f0:16:bb:51:
                    7c:bf:f4:a3:a6:ee:9a:33:9c:ad:ff:b4:e0:cf:f4:
                    ca:fb:08:d5:ed:d9:64:d5:c6:eb:5f:e8:78:da:34:
                    e7:01:a3:bf:6d:53:5e:ce:df:d6:af:2f:57:c9:f7:
                    cf:36:f1:29:e1:a5:b0:26:03:92:9a:06:0f:16:70:
                    4b:4e:f0:11:e9:40:df:82:6f:51:4f:00:53:3a:13:
                    92:9a:5c:05:ce:43:26:bf:5d:ff:ad:00:38:12:6b:
                    b0:84:60:ff:35:d7:15:e1:89:9a:33:97:a9:fc:33:
                    88:16:8b:73:2c:89:7b:2b:bd:bd:ac:ee:ce:06:1e:
                    ce:ac:a6:45:7d:69:a6:1e:e3:be:f4:fe:dc:8f:11:
                    3f:a2:1b
                Exponent: 65537 (0x10001)
        X509v3 extensions:
            X509v3 Basic Constraints: 
                CA:FALSE
            Netscape Comment: 
                Easy-RSA Generated Certificate
            X509v3 Subject Key Identifier: 
                DE:28:B8:69:08:02:11:EA:E5:3A:C3:CA:5F:F4:CD:D0:D1:BE:B1:3C
            X509v3 Authority Key Identifier: 
                keyid:EF:38:8D:14:50:58:A7:5B:4D:9C:17:72:FC:DF:B9:AC:A7:51:B0:10
                DirName:/C=US/ST=CA/L=SanFrancisco/O=Pixglo, Inc./OU=VPN-CIE/CN=tunnel.pixglo.com/name=Bala Chandrasekaran/emailAddress=bala@pixglo.com
                serial:A6:DB:C6:83:80:E6:A0:79

            X509v3 Extended Key Usage: 
                TLS Web Client Authentication
            X509v3 Key Usage: 
                Digital Signature
    Signature Algorithm: sha1WithRSAEncryption
         b4:3f:5b:e7:a5:95:5f:96:10:d7:86:29:a3:10:b3:fa:e8:fc:
         e8:98:a7:45:ac:d2:d3:cb:77:b6:0d:83:ef:2f:bf:35:79:c0:
         f8:f6:e4:85:06:f3:44:47:3d:7a:f0:0f:1b:79:7b:a5:dd:c3:
         08:5b:9b:00:44:91:3d:6a:74:4a:2e:61:78:72:f8:da:cb:6d:
         9a:6e:6d:70:3c:8b:66:75:26:66:c7:6b:79:e6:60:82:c0:c8:
         dc:6c:91:56:cc:2d:e6:76:8e:6e:72:c5:94:21:65:37:9c:0c:
         1f:f6:b7:37:f0:aa:85:17:3d:80:bf:d9:43:49:5a:af:b9:ba:
         3e:e2:aa:46:bf:5d:c5:00:df:6e:65:7a:5e:62:6d:65:c0:94:
         27:40:81:35:7e:c4:bf:bf:0f:45:d6:0d:21:9b:f3:1b:6d:fd:
         1e:e2:b3:9f:2d:40:2c:23:9f:b3:1f:a9:b3:dc:59:35:ed:a1:
         7f:ed:03:b5:2e:83:35:f1:55:81:36:15:59:bb:a1:97:b8:e8:
         bc:96:5f:63:3b:cc:31:9a:75:40:47:8e:cd:0e:80:ab:79:97:
         29:40:e2:d3:75:13:d8:e2:db:bf:a7:41:64:c7:fa:9a:24:50:
         51:52:3d:a0:8c:de:98:8a:4e:f7:f3:94:84:cd:62:33:9d:24:
         4f:87:be:bf:b6:18:16:e1:6a:1d:61:e7:4d:50:ac:15:62:e1:
         2c:91:d1:11:02:da:f6:f8:ab:46:83:67:50:57:8f:e0:7a:30:
         99:19:30:45:c8:4a:87:4c:a4:37:83:c1:e5:2e:0f:b7:f1:9d:
         d3:74:58:86:2c:1e:8b:ab:0e:1b:38:55:7a:dc:61:25:b1:f4:
         7d:12:2c:a8:87:fd:fe:fc:c8:28:a1:46:a9:ff:35:a5:87:b7:
         88:2d:ec:d3:e6:d3:e7:3b:7a:e3:32:1b:ec:a4:e9:00:01:9e:
         55:49:c8:eb:ca:f5:32:5a:85:fc:5e:cf:bc:1e:24:1d:cc:b4:
         3a:de:a1:17:b6:db:4e:8c:1e:e5:de:09:20:b7:ef:3a:4e:73:
         dc:2d:6f:fd:ca:47:20:1c:3d:01:37:9b:b6:a3:07:9e:e9:d9:
         5f:f1:c1:73:a5:49:40:b2:2c:23:11:c0:4f:16:bb:f9:c0:19:
         d6:06:63:a3:dd:0e:b3:7c:b8:bc:9a:71:c5:db:c8:6b:0a:07:
         c6:3f:51:10:81:d6:18:88:87:91:65:8b:89:b3:3e:02:92:8f:
         c7:99:cd:ac:a8:e1:d1:1a:35:8b:0a:49:e6:f8:cd:e7:72:04:
         ef:7f:bd:26:f2:14:88:1a:59:9c:c2:0b:75:95:d5:a4:74:f6:
         19:8d:81:60:cd:8f:9e:c5
-----BEGIN CERTIFICATE-----
MIIHSDCCBTCgAwIBAgICAPAwDQYJKoZIhvcNAQEFBQAwgbQxCzAJBgNVBAYTAlVT
MQswCQYDVQQIEwJDQTEVMBMGA1UEBxMMU2FuRnJhbmNpc2NvMRUwEwYDVQQKEwxQ
aXhnbG8sIEluYy4xEDAOBgNVBAsTB1ZQTi1DSUUxGjAYBgNVBAMTEXR1bm5lbC5w
aXhnbG8uY29tMRwwGgYDVQQpExNCYWxhIENoYW5kcmFzZWthcmFuMR4wHAYJKoZI
hvcNAQkBFg9iYWxhQHBpeGdsby5jb20wHhcNMTgwMjE0MDYyOTEwWhcNMjgwMjEy
MDYyOTEwWjCBqTELMAkGA1UEBhMCVVMxCzAJBgNVBAgTAkNBMRUwEwYDVQQHEwxT
YW5GcmFuY2lzY28xFTATBgNVBAoTDFBpeGdsbywgSW5jLjEQMA4GA1UECxMHVlBO
LUNJRTEPMA0GA1UEAxMGY2llMjM5MRwwGgYDVQQpExNCYWxhIENoYW5kcmFzZWth
cmFuMR4wHAYJKoZIhvcNAQkBFg9iYWxhQHBpeGdsby5jb20wggIiMA0GCSqGSIb3
DQEBAQUAA4ICDwAwggIKAoICAQDSzBCAJHd2evd9FcmKW/imZFg/vih2nO4n92ah
Iy4YcImrqbzmGDgSQAUjObNwVB1MY+tnfPR563DGRhr3u5e+QqYyfW399NIKo6zJ
pp94+G9ZrobP4Uzvd3fuyEDMGridSIJQzfQSapumlbRbVGE3j50dMxIh3PSB9k1H
ccXYzOoVFfPXNvVpafA/RUlzlgwMdlE6UlWVGf63E/R6KNaHVkrtgM5iazLe9C+O
r7mRNil0K/U/1o5wVACcEuNek72mpkVEasFnmtSxxcYyVknxbtLzU5KnJ6iGiIQd
OOtPzxXiJZP2lKLWe02RlzQj6ULODorLYdKRey7bqbR6xOftGbi4wLOHByVEEv/i
btL2dQHo5+JiVCYIew8c+TerKkdZd57mBoFiMWOJMoAQuil6LS6oQwXD+1S421K5
1QeeEmlMJ9DTnAZOpHIta377NTmsYKZDRp10SJXFknpyFi7HSJo57j0Sq5aVHhNB
rSQepeak8Ba7UXy/9KOm7poznK3/tODP9Mr7CNXt2WTVxutf6HjaNOcBo79tU17O
39avL1fJ98828SnhpbAmA5KaBg8WcEtO8BHpQN+Cb1FPAFM6E5KaXAXOQya/Xf+t
ADgSa7CEYP811xXhiZozl6n8M4gWi3MsiXsrvb2s7s4GHs6spkV9aaYe4770/tyP
ET+iGwIDAQABo4IBazCCAWcwCQYDVR0TBAIwADAtBglghkgBhvhCAQ0EIBYeRWFz
eS1SU0EgR2VuZXJhdGVkIENlcnRpZmljYXRlMB0GA1UdDgQWBBTeKLhpCAIR6uU6
w8pf9M3Q0b6xPDCB6QYDVR0jBIHhMIHegBTvOI0UUFinW02cF3L837msp1GwEKGB
uqSBtzCBtDELMAkGA1UEBhMCVVMxCzAJBgNVBAgTAkNBMRUwEwYDVQQHEwxTYW5G
cmFuY2lzY28xFTATBgNVBAoTDFBpeGdsbywgSW5jLjEQMA4GA1UECxMHVlBOLUNJ
RTEaMBgGA1UEAxMRdHVubmVsLnBpeGdsby5jb20xHDAaBgNVBCkTE0JhbGEgQ2hh
bmRyYXNla2FyYW4xHjAcBgkqhkiG9w0BCQEWD2JhbGFAcGl4Z2xvLmNvbYIJAKbb
xoOA5qB5MBMGA1UdJQQMMAoGCCsGAQUFBwMCMAsGA1UdDwQEAwIHgDANBgkqhkiG
9w0BAQUFAAOCAgEAtD9b56WVX5YQ14YpoxCz+uj86JinRazS08t3tg2D7y+/NXnA
+PbkhQbzREc9evAPG3l7pd3DCFubAESRPWp0Si5heHL42sttmm5tcDyLZnUmZsdr
eeZggsDI3GyRVswt5naObnLFlCFlN5wMH/a3N/CqhRc9gL/ZQ0lar7m6PuKqRr9d
xQDfbmV6XmJtZcCUJ0CBNX7Ev78PRdYNIZvzG239HuKzny1ALCOfsx+ps9xZNe2h
f+0DtS6DNfFVgTYVWbuhl7jovJZfYzvMMZp1QEeOzQ6Aq3mXKUDi03UT2OLbv6dB
ZMf6miRQUVI9oIzemIpO9/OUhM1iM50kT4e+v7YYFuFqHWHnTVCsFWLhLJHREQLa
9virRoNnUFeP4HowmRkwRchKh0ykN4PB5S4Pt/Gd03RYhiwei6sOGzhVetxhJbH0
fRIsqIf9/vzIKKFGqf81pYe3iC3s0+bT5zt64zIb7KTpAAGeVUnI68r1MlqF/F7P
vB4kHcy0Ot6hF7bbTowe5d4JILfvOk5z3C1v/cpHIBw9ATebtqMHnunZX/HBc6VJ
QLIsIxHATxa7+cAZ1gZjo90Os3y4vJpxxdvIawoHxj9REIHWGIiHkWWLibM+ApKP
x5nNrKjh0Ro1iwpJ5vjN53IE73+9JvIUiBpZnMILdZXVpHT2GY2BYM2PnsU=
-----END CERTIFICATE-----
