Certificate:
    Data:
        Version: 3 (0x2)
        Serial Number: 22 (0x16)
    Signature Algorithm: sha1WithRSAEncryption
        Issuer: C=US, ST=CA, L=SanFrancisco, O=Pixglo, Inc., OU=VPN-CIE, CN=tunnel.pixglo.com/name=Bala Chandrasekaran/emailAddress=bala@pixglo.com
        Validity
            Not Before: Feb 14 06:24:27 2018 GMT
            Not After : Feb 12 06:24:27 2028 GMT
        Subject: C=US, ST=CA, L=SanFrancisco, O=Pixglo, Inc., OU=VPN-CIE, CN=cie21/name=Bala Chandrasekaran/emailAddress=bala@pixglo.com
        Subject Public Key Info:
            Public Key Algorithm: rsaEncryption
                Public-Key: (4096 bit)
                Modulus:
                    00:ca:18:8d:e3:47:68:f8:17:72:9d:8c:b4:22:cd:
                    08:0d:16:18:85:71:58:3a:ed:96:e7:c9:f9:7e:7b:
                    61:99:b3:70:76:a0:1b:a7:b3:8e:c8:d1:85:dd:7d:
                    7f:a1:97:11:e1:d1:3e:c5:ce:70:a1:f8:26:92:ee:
                    ce:03:34:f4:c1:fd:b1:cb:4b:cd:7e:9e:f9:26:2a:
                    3b:1b:a9:61:81:ed:c1:48:23:71:c0:ac:7b:4b:5d:
                    b9:8c:ad:5c:25:e8:f3:fa:09:38:3e:08:52:6f:36:
                    fe:ca:ad:0b:02:ac:d8:2c:6c:da:01:d9:9b:83:69:
                    fd:2b:dc:9e:f6:76:1e:03:d4:ea:19:29:63:5c:3e:
                    92:61:6b:6f:7f:e1:f5:39:ea:1c:e4:75:ac:ae:fb:
                    0f:58:e5:48:79:df:a0:0b:45:e9:d6:4f:34:23:a2:
                    aa:6e:16:31:4a:61:d2:4e:18:a6:0b:18:84:94:e3:
                    ec:6e:c8:9c:be:06:d6:fd:ea:1e:a0:0d:72:e2:54:
                    b1:8e:b3:52:2c:75:2f:f7:26:0f:b3:13:0b:b2:e9:
                    7c:93:45:c6:6d:89:13:ce:71:d2:80:6c:ae:31:54:
                    64:c2:21:23:be:f0:ce:54:02:05:af:5c:c5:b9:a3:
                    a6:86:1f:54:fd:35:ce:e5:89:bc:40:d1:ab:ea:27:
                    5e:23:18:38:55:4f:0f:86:c2:77:65:43:ca:33:53:
                    47:c3:d0:33:c8:55:a1:72:e9:dc:f5:98:bf:b0:59:
                    a5:1c:79:98:92:59:eb:64:90:d0:66:f9:50:7b:e2:
                    10:5b:12:d1:42:53:8f:58:9f:b5:3a:62:7d:c4:b3:
                    8a:74:12:d9:4a:a4:5e:d8:74:ce:77:4c:3e:0a:bb:
                    82:e3:86:e2:91:9a:66:f7:51:72:74:3f:59:fa:dc:
                    0c:59:8a:5a:5c:e5:9e:c5:d6:e4:2c:93:4f:14:e0:
                    77:90:d6:a4:15:ae:ce:e9:0b:93:07:6c:11:04:b4:
                    a5:56:82:54:cb:28:6c:c6:51:17:56:82:95:82:ef:
                    ec:a1:05:0c:9b:cf:40:31:b4:68:44:51:a2:a9:77:
                    00:d9:72:14:6c:50:65:d9:58:a9:a8:78:81:1d:62:
                    9f:ed:e9:c0:c4:5c:fb:30:9c:79:8f:aa:d5:13:7e:
                    87:74:fb:29:59:21:c2:95:57:c0:3e:a9:cc:4a:9f:
                    b5:e5:59:3a:ab:8b:9f:69:63:b8:23:3f:3a:53:58:
                    de:6a:ab:ca:28:2d:6f:1c:97:c1:9d:aa:55:d3:f4:
                    71:64:00:dc:c8:b5:95:42:4b:b8:c2:38:32:89:44:
                    66:91:09:c9:94:60:17:35:46:a1:c0:21:f0:4b:f1:
                    31:c4:2d
                Exponent: 65537 (0x10001)
        X509v3 extensions:
            X509v3 Basic Constraints: 
                CA:FALSE
            Netscape Comment: 
                Easy-RSA Generated Certificate
            X509v3 Subject Key Identifier: 
                EB:BA:3E:AD:41:96:93:A5:89:0F:51:B0:92:57:72:0E:6A:3E:86:F0
            X509v3 Authority Key Identifier: 
                keyid:EF:38:8D:14:50:58:A7:5B:4D:9C:17:72:FC:DF:B9:AC:A7:51:B0:10
                DirName:/C=US/ST=CA/L=SanFrancisco/O=Pixglo, Inc./OU=VPN-CIE/CN=tunnel.pixglo.com/name=Bala Chandrasekaran/emailAddress=bala@pixglo.com
                serial:A6:DB:C6:83:80:E6:A0:79

            X509v3 Extended Key Usage: 
                TLS Web Client Authentication
            X509v3 Key Usage: 
                Digital Signature
    Signature Algorithm: sha1WithRSAEncryption
         07:3a:fe:10:24:9d:11:a2:a1:c8:c7:e7:7b:9d:b1:33:e9:07:
         28:7c:16:3d:ce:11:1e:4b:29:04:7b:d1:bd:41:3b:9f:d0:a9:
         b3:ee:53:60:b8:eb:0d:c4:4b:0f:fe:57:b5:cb:17:a1:d0:db:
         63:35:e1:f3:d3:97:4c:3b:85:02:23:78:a5:00:20:00:d5:26:
         bc:4b:f8:2a:c3:35:34:a5:ce:c0:66:ab:47:e5:ec:16:57:60:
         cf:ac:69:11:25:1a:93:2f:c2:99:d2:46:12:9a:c4:19:52:e3:
         db:0b:39:7d:b5:fc:23:e5:87:6d:fc:23:02:d5:7a:01:2b:5f:
         9e:44:5e:b4:2d:a2:44:44:29:d6:d0:e8:b5:9e:43:77:f3:a6:
         48:56:c3:fd:4a:30:d7:e5:39:af:3e:09:05:7a:8e:0b:5f:79:
         29:77:71:e8:ed:44:bb:05:da:10:90:be:85:a7:e6:0c:01:05:
         cc:ca:c3:77:fa:a2:1c:48:24:66:cd:c6:02:3a:b2:d7:2e:ad:
         f1:52:8b:5c:7d:94:4d:1a:59:6d:4e:62:6b:13:b2:55:2b:df:
         46:ce:df:f5:44:f3:c5:58:cb:1e:82:d0:5b:3d:44:2d:48:2d:
         eb:be:56:19:6a:aa:73:1c:a2:60:84:9f:49:c1:e9:bf:4d:be:
         33:d6:21:5e:2c:3d:5f:69:d4:d7:d0:39:f0:68:67:93:c3:2f:
         6d:2f:6f:b4:03:86:dd:cb:3c:34:14:a6:b5:06:8c:24:b6:98:
         26:ff:3b:46:18:1f:b3:ca:15:07:4d:e1:90:80:b5:b3:7c:1b:
         f6:de:75:26:8b:3d:f2:22:7f:68:29:f7:ca:09:4a:24:f6:7b:
         a8:5c:c5:68:1c:2d:b4:bb:6b:14:82:c8:6f:bf:74:84:af:61:
         8b:59:d9:ae:46:1c:a9:e1:59:e5:dd:e6:94:86:4a:21:78:11:
         4b:8f:33:02:f7:f8:7d:d6:ac:42:eb:63:f2:da:54:10:19:67:
         78:fe:5c:90:f0:ab:54:01:c6:a1:d2:3b:7b:2a:c4:31:08:01:
         36:7b:7b:b0:7d:a0:fd:70:d0:c8:81:43:25:7b:f1:80:f4:70:
         95:f8:4b:d2:88:cb:94:83:8e:eb:66:9c:f9:2c:34:83:dd:1d:
         46:bb:32:b5:5e:26:ab:6a:13:5d:80:ba:88:a7:11:7a:06:a3:
         8e:fd:ca:da:9a:68:d4:a9:8a:b6:45:69:61:02:8d:c5:f9:f6:
         d8:34:15:b4:99:b2:a1:5d:77:9e:cd:1d:a4:c8:dc:f9:65:0c:
         23:a5:63:d4:a9:71:7b:0e:e7:46:05:a8:d3:52:52:30:f9:74:
         af:8c:70:6d:ca:1f:b0:30
-----BEGIN CERTIFICATE-----
MIIHRjCCBS6gAwIBAgIBFjANBgkqhkiG9w0BAQUFADCBtDELMAkGA1UEBhMCVVMx
CzAJBgNVBAgTAkNBMRUwEwYDVQQHEwxTYW5GcmFuY2lzY28xFTATBgNVBAoTDFBp
eGdsbywgSW5jLjEQMA4GA1UECxMHVlBOLUNJRTEaMBgGA1UEAxMRdHVubmVsLnBp
eGdsby5jb20xHDAaBgNVBCkTE0JhbGEgQ2hhbmRyYXNla2FyYW4xHjAcBgkqhkiG
9w0BCQEWD2JhbGFAcGl4Z2xvLmNvbTAeFw0xODAyMTQwNjI0MjdaFw0yODAyMTIw
NjI0MjdaMIGoMQswCQYDVQQGEwJVUzELMAkGA1UECBMCQ0ExFTATBgNVBAcTDFNh
bkZyYW5jaXNjbzEVMBMGA1UEChMMUGl4Z2xvLCBJbmMuMRAwDgYDVQQLEwdWUE4t
Q0lFMQ4wDAYDVQQDEwVjaWUyMTEcMBoGA1UEKRMTQmFsYSBDaGFuZHJhc2VrYXJh
bjEeMBwGCSqGSIb3DQEJARYPYmFsYUBwaXhnbG8uY29tMIICIjANBgkqhkiG9w0B
AQEFAAOCAg8AMIICCgKCAgEAyhiN40do+BdynYy0Is0IDRYYhXFYOu2W58n5fnth
mbNwdqAbp7OOyNGF3X1/oZcR4dE+xc5wofgmku7OAzT0wf2xy0vNfp75Jio7G6lh
ge3BSCNxwKx7S125jK1cJejz+gk4PghSbzb+yq0LAqzYLGzaAdmbg2n9K9ye9nYe
A9TqGSljXD6SYWtvf+H1Oeoc5HWsrvsPWOVIed+gC0Xp1k80I6KqbhYxSmHSThim
CxiElOPsbsicvgbW/eoeoA1y4lSxjrNSLHUv9yYPsxMLsul8k0XGbYkTznHSgGyu
MVRkwiEjvvDOVAIFr1zFuaOmhh9U/TXO5Ym8QNGr6ideIxg4VU8PhsJ3ZUPKM1NH
w9AzyFWhcunc9Zi/sFmlHHmYklnrZJDQZvlQe+IQWxLRQlOPWJ+1OmJ9xLOKdBLZ
SqRe2HTOd0w+CruC44bikZpm91FydD9Z+twMWYpaXOWexdbkLJNPFOB3kNakFa7O
6QuTB2wRBLSlVoJUyyhsxlEXVoKVgu/soQUMm89AMbRoRFGiqXcA2XIUbFBl2Vip
qHiBHWKf7enAxFz7MJx5j6rVE36HdPspWSHClVfAPqnMSp+15Vk6q4ufaWO4Iz86
U1jeaqvKKC1vHJfBnapV0/RxZADcyLWVQku4wjgyiURmkQnJlGAXNUahwCHwS/Ex
xC0CAwEAAaOCAWswggFnMAkGA1UdEwQCMAAwLQYJYIZIAYb4QgENBCAWHkVhc3kt
UlNBIEdlbmVyYXRlZCBDZXJ0aWZpY2F0ZTAdBgNVHQ4EFgQU67o+rUGWk6WJD1Gw
kldyDmo+hvAwgekGA1UdIwSB4TCB3oAU7ziNFFBYp1tNnBdy/N+5rKdRsBChgbqk
gbcwgbQxCzAJBgNVBAYTAlVTMQswCQYDVQQIEwJDQTEVMBMGA1UEBxMMU2FuRnJh
bmNpc2NvMRUwEwYDVQQKEwxQaXhnbG8sIEluYy4xEDAOBgNVBAsTB1ZQTi1DSUUx
GjAYBgNVBAMTEXR1bm5lbC5waXhnbG8uY29tMRwwGgYDVQQpExNCYWxhIENoYW5k
cmFzZWthcmFuMR4wHAYJKoZIhvcNAQkBFg9iYWxhQHBpeGdsby5jb22CCQCm28aD
gOageTATBgNVHSUEDDAKBggrBgEFBQcDAjALBgNVHQ8EBAMCB4AwDQYJKoZIhvcN
AQEFBQADggIBAAc6/hAknRGiocjH53udsTPpByh8Fj3OER5LKQR70b1BO5/QqbPu
U2C46w3ESw/+V7XLF6HQ22M14fPTl0w7hQIjeKUAIADVJrxL+CrDNTSlzsBmq0fl
7BZXYM+saRElGpMvwpnSRhKaxBlS49sLOX21/CPlh238IwLVegErX55EXrQtokRE
KdbQ6LWeQ3fzpkhWw/1KMNflOa8+CQV6jgtfeSl3cejtRLsF2hCQvoWn5gwBBczK
w3f6ohxIJGbNxgI6stcurfFSi1x9lE0aWW1OYmsTslUr30bO3/VE88VYyx6C0Fs9
RC1ILeu+VhlqqnMcomCEn0nB6b9NvjPWIV4sPV9p1NfQOfBoZ5PDL20vb7QDht3L
PDQUprUGjCS2mCb/O0YYH7PKFQdN4ZCAtbN8G/bedSaLPfIif2gp98oJSiT2e6hc
xWgcLbS7axSCyG+/dISvYYtZ2a5GHKnhWeXd5pSGSiF4EUuPMwL3+H3WrELrY/La
VBAZZ3j+XJDwq1QBxqHSO3sqxDEIATZ7e7B9oP1w0MiBQyV78YD0cJX4S9KIy5SD
jutmnPksNIPdHUa7MrVeJqtqE12AuoinEXoGo479ytqaaNSpirZFaWECjcX59tg0
FbSZsqFdd57NHaTI3PllDCOlY9SpcXsO50YFqNNSUjD5dK+McG3KH7Aw
-----END CERTIFICATE-----
