Certificate:
    Data:
        Version: 3 (0x2)
        Serial Number: 270 (0x10e)
    Signature Algorithm: sha1WithRSAEncryption
        Issuer: C=US, ST=CA, L=SanFrancisco, O=Pixglo, Inc., OU=VPN-CIE, CN=tunnel.pixglo.com/name=Bala Chandrasekaran/emailAddress=bala@pixglo.com
        Validity
            Not Before: Feb 14 06:29:35 2018 GMT
            Not After : Feb 12 06:29:35 2028 GMT
        Subject: C=US, ST=CA, L=SanFrancisco, O=Pixglo, Inc., OU=VPN-CIE, CN=cie269/name=Bala Chandrasekaran/emailAddress=bala@pixglo.com
        Subject Public Key Info:
            Public Key Algorithm: rsaEncryption
                Public-Key: (4096 bit)
                Modulus:
                    00:b3:3e:cb:72:49:ff:b4:f6:7b:54:76:d5:30:7e:
                    ed:d9:ae:10:7a:f2:8d:7d:6d:51:cd:d2:08:7f:bb:
                    4a:3a:e6:db:3e:84:15:44:61:8d:5c:16:e1:5b:c7:
                    28:95:1d:71:1e:36:d5:9b:f4:f1:93:0c:e6:29:16:
                    bc:ef:ff:0b:51:51:f9:a9:db:e1:80:35:85:34:8a:
                    f3:d8:67:6e:da:46:8b:e7:df:89:8a:36:68:79:52:
                    66:92:3b:c2:94:70:e4:47:e3:12:5a:3f:81:25:d0:
                    c9:16:33:9d:16:4d:eb:e6:c2:02:40:7a:dd:76:22:
                    5c:ac:fa:39:d2:d2:b6:c5:58:ed:9a:d7:1a:04:d8:
                    2b:37:6a:c6:4f:83:75:f1:f5:78:2e:27:75:88:19:
                    5a:47:14:93:fb:c0:11:7c:19:ed:7e:8f:39:58:b9:
                    f3:06:05:af:0c:98:26:ff:1c:2f:f5:ef:99:10:4b:
                    fd:7d:4f:94:cd:35:dc:06:24:6e:a2:97:99:2e:60:
                    95:6c:7b:1e:ef:1f:13:16:6e:cf:12:62:d1:ec:d1:
                    2e:e5:6c:79:7f:da:a2:ec:a5:4b:a9:fd:eb:c0:e1:
                    2c:fa:d9:d8:2c:50:4d:38:58:e5:19:28:e8:e6:67:
                    0e:a1:c1:5c:9d:54:be:c1:38:57:27:a3:e4:6a:28:
                    1d:9f:cb:48:1f:86:85:95:e3:09:66:a8:8c:91:e8:
                    58:73:c0:61:aa:b0:3b:47:30:c0:5f:d8:94:15:a3:
                    59:ed:81:e5:58:3e:7a:cd:98:f5:0c:4d:2e:97:ef:
                    e3:e8:e3:8c:5c:02:3d:ef:74:70:27:7c:22:9d:a8:
                    b0:dd:46:b0:a2:57:d0:bc:62:03:1a:99:0e:25:62:
                    50:88:62:74:b7:e2:1c:17:59:57:b6:db:9c:39:3e:
                    ca:7c:db:cb:4e:10:70:1c:ca:b8:87:71:0a:09:19:
                    06:3a:06:b5:3a:c9:00:74:ae:42:c1:41:da:20:f0:
                    c6:b9:c3:4e:95:c1:27:16:ec:aa:dc:43:3f:4b:d3:
                    25:31:cd:52:e0:ab:e2:a8:1d:be:f0:1b:f9:3f:8c:
                    7c:d9:94:9f:48:45:50:de:11:0e:62:ff:ae:f7:95:
                    c3:42:ce:6a:e3:dc:68:f8:96:31:ba:fe:c4:ca:30:
                    4d:51:6b:29:94:b4:a5:ca:86:ac:02:6b:4e:4f:78:
                    e2:7e:19:b7:e5:8f:14:4d:cf:0b:df:e2:49:9e:a0:
                    1e:76:c8:8e:77:f0:9a:33:a5:08:30:4b:07:c4:57:
                    fc:31:af:d8:05:29:e4:f5:5c:77:da:29:3f:50:b9:
                    87:17:d5:7f:d6:a6:5a:16:cc:3e:db:6a:a1:fa:f6:
                    b1:a7:e9
                Exponent: 65537 (0x10001)
        X509v3 extensions:
            X509v3 Basic Constraints: 
                CA:FALSE
            Netscape Comment: 
                Easy-RSA Generated Certificate
            X509v3 Subject Key Identifier: 
                0E:66:D4:89:DB:29:82:BC:EA:96:97:24:90:A0:EC:E7:1C:2D:F6:84
            X509v3 Authority Key Identifier: 
                keyid:EF:38:8D:14:50:58:A7:5B:4D:9C:17:72:FC:DF:B9:AC:A7:51:B0:10
                DirName:/C=US/ST=CA/L=SanFrancisco/O=Pixglo, Inc./OU=VPN-CIE/CN=tunnel.pixglo.com/name=Bala Chandrasekaran/emailAddress=bala@pixglo.com
                serial:A6:DB:C6:83:80:E6:A0:79

            X509v3 Extended Key Usage: 
                TLS Web Client Authentication
            X509v3 Key Usage: 
                Digital Signature
    Signature Algorithm: sha1WithRSAEncryption
         4c:05:80:d9:e9:84:53:d5:f9:aa:90:78:5f:7c:81:7f:44:76:
         95:f6:c3:90:28:60:11:d8:b4:6d:70:b2:fa:80:11:bb:de:dc:
         16:73:26:1e:c0:eb:44:b2:66:19:7e:8c:ce:02:cf:4d:6d:3a:
         b4:d3:b2:bb:51:21:28:4e:14:cb:94:5e:7f:b6:67:bf:e0:0c:
         d8:92:7a:c9:51:23:3d:30:f8:d4:47:02:d0:5a:37:8b:9d:46:
         96:79:d6:ca:5d:3e:5a:81:ee:37:5c:d8:c1:d2:b2:82:ac:d2:
         c7:f3:18:b7:9d:0b:ad:31:5b:d0:3a:4d:91:7e:ff:47:00:11:
         a3:ed:3c:97:e9:b9:9c:c3:9a:b0:78:4f:ec:4b:49:e2:a5:ab:
         00:f9:18:a8:b1:76:43:20:8b:60:0f:aa:e3:a6:ef:5c:69:a5:
         b3:3b:33:ec:26:59:9f:0b:9d:df:3a:61:f1:23:c9:69:dd:35:
         ef:51:44:0d:a5:e6:f5:f7:7f:83:38:35:47:a5:7a:65:7d:a6:
         6e:48:a9:ca:2f:53:6a:c2:b8:5c:50:28:ee:27:33:11:82:27:
         34:bc:37:36:9d:ef:3d:03:b1:b4:4d:ed:d9:c7:0a:06:fb:b1:
         85:cd:de:00:7e:cd:11:6c:99:0f:cb:ab:85:cf:04:85:bd:22:
         18:f7:e0:b0:d6:87:79:b8:bb:8a:46:cc:4c:64:7b:9f:10:14:
         a9:d9:91:5c:d1:18:df:c0:18:97:a9:ac:67:df:c9:a0:56:6d:
         f1:f1:1a:83:82:69:eb:9e:d0:ee:d9:57:43:88:c2:59:59:fe:
         9e:67:b2:62:af:c2:c2:6d:55:9d:fe:ed:2f:aa:9c:f1:b0:ac:
         e4:fc:ca:e2:c9:19:41:2e:7b:0e:ee:f0:72:76:9d:91:5b:34:
         e7:60:9a:27:67:aa:22:a9:2c:41:8a:c5:d3:95:77:55:e5:54:
         6b:95:3e:28:23:88:7b:8d:7e:04:26:c4:85:44:c6:9c:bf:a5:
         4a:13:b5:6a:29:4b:83:42:1d:88:8e:55:fc:a5:d9:d0:26:53:
         2a:be:74:e8:ce:e0:20:f3:21:d1:11:33:a1:60:74:61:4b:c6:
         30:28:ba:f4:2c:20:01:59:b1:fb:64:10:66:00:1a:f1:c4:60:
         df:42:fe:0c:29:2a:b8:f6:fc:36:fd:74:01:ab:c1:e3:07:20:
         7d:17:4b:2a:83:ab:7e:88:51:6a:b6:0e:54:15:3d:6b:11:c7:
         ab:8f:0c:c7:35:e6:fd:0b:99:5b:38:7a:ba:f1:bf:3a:c9:2d:
         b2:41:64:4c:c3:54:4d:f6:6c:67:49:9e:cf:a6:08:00:e4:9c:
         fa:3c:8e:b2:9e:92:24:67
-----BEGIN CERTIFICATE-----
MIIHSDCCBTCgAwIBAgICAQ4wDQYJKoZIhvcNAQEFBQAwgbQxCzAJBgNVBAYTAlVT
MQswCQYDVQQIEwJDQTEVMBMGA1UEBxMMU2FuRnJhbmNpc2NvMRUwEwYDVQQKEwxQ
aXhnbG8sIEluYy4xEDAOBgNVBAsTB1ZQTi1DSUUxGjAYBgNVBAMTEXR1bm5lbC5w
aXhnbG8uY29tMRwwGgYDVQQpExNCYWxhIENoYW5kcmFzZWthcmFuMR4wHAYJKoZI
hvcNAQkBFg9iYWxhQHBpeGdsby5jb20wHhcNMTgwMjE0MDYyOTM1WhcNMjgwMjEy
MDYyOTM1WjCBqTELMAkGA1UEBhMCVVMxCzAJBgNVBAgTAkNBMRUwEwYDVQQHEwxT
YW5GcmFuY2lzY28xFTATBgNVBAoTDFBpeGdsbywgSW5jLjEQMA4GA1UECxMHVlBO
LUNJRTEPMA0GA1UEAxMGY2llMjY5MRwwGgYDVQQpExNCYWxhIENoYW5kcmFzZWth
cmFuMR4wHAYJKoZIhvcNAQkBFg9iYWxhQHBpeGdsby5jb20wggIiMA0GCSqGSIb3
DQEBAQUAA4ICDwAwggIKAoICAQCzPstySf+09ntUdtUwfu3ZrhB68o19bVHN0gh/
u0o65ts+hBVEYY1cFuFbxyiVHXEeNtWb9PGTDOYpFrzv/wtRUfmp2+GANYU0ivPY
Z27aRovn34mKNmh5UmaSO8KUcORH4xJaP4El0MkWM50WTevmwgJAet12Ilys+jnS
0rbFWO2a1xoE2Cs3asZPg3Xx9XguJ3WIGVpHFJP7wBF8Ge1+jzlYufMGBa8MmCb/
HC/175kQS/19T5TNNdwGJG6il5kuYJVsex7vHxMWbs8SYtHs0S7lbHl/2qLspUup
/evA4Sz62dgsUE04WOUZKOjmZw6hwVydVL7BOFcno+RqKB2fy0gfhoWV4wlmqIyR
6FhzwGGqsDtHMMBf2JQVo1ntgeVYPnrNmPUMTS6X7+Po44xcAj3vdHAnfCKdqLDd
RrCiV9C8YgMamQ4lYlCIYnS34hwXWVe225w5Psp828tOEHAcyriHcQoJGQY6BrU6
yQB0rkLBQdog8Ma5w06VwScW7KrcQz9L0yUxzVLgq+KoHb7wG/k/jHzZlJ9IRVDe
EQ5i/673lcNCzmrj3Gj4ljG6/sTKME1RaymUtKXKhqwCa05PeOJ+GbfljxRNzwvf
4kmeoB52yI538JozpQgwSwfEV/wxr9gFKeT1XHfaKT9QuYcX1X/WploWzD7baqH6
9rGn6QIDAQABo4IBazCCAWcwCQYDVR0TBAIwADAtBglghkgBhvhCAQ0EIBYeRWFz
eS1SU0EgR2VuZXJhdGVkIENlcnRpZmljYXRlMB0GA1UdDgQWBBQOZtSJ2ymCvOqW
lySQoOznHC32hDCB6QYDVR0jBIHhMIHegBTvOI0UUFinW02cF3L837msp1GwEKGB
uqSBtzCBtDELMAkGA1UEBhMCVVMxCzAJBgNVBAgTAkNBMRUwEwYDVQQHEwxTYW5G
cmFuY2lzY28xFTATBgNVBAoTDFBpeGdsbywgSW5jLjEQMA4GA1UECxMHVlBOLUNJ
RTEaMBgGA1UEAxMRdHVubmVsLnBpeGdsby5jb20xHDAaBgNVBCkTE0JhbGEgQ2hh
bmRyYXNla2FyYW4xHjAcBgkqhkiG9w0BCQEWD2JhbGFAcGl4Z2xvLmNvbYIJAKbb
xoOA5qB5MBMGA1UdJQQMMAoGCCsGAQUFBwMCMAsGA1UdDwQEAwIHgDANBgkqhkiG
9w0BAQUFAAOCAgEATAWA2emEU9X5qpB4X3yBf0R2lfbDkChgEdi0bXCy+oARu97c
FnMmHsDrRLJmGX6MzgLPTW06tNOyu1EhKE4Uy5Ref7Znv+AM2JJ6yVEjPTD41EcC
0Fo3i51GlnnWyl0+WoHuN1zYwdKygqzSx/MYt50LrTFb0DpNkX7/RwARo+08l+m5
nMOasHhP7EtJ4qWrAPkYqLF2QyCLYA+q46bvXGmlszsz7CZZnwud3zph8SPJad01
71FEDaXm9fd/gzg1R6V6ZX2mbkipyi9TasK4XFAo7iczEYInNLw3Np3vPQOxtE3t
2ccKBvuxhc3eAH7NEWyZD8urhc8Ehb0iGPfgsNaHebi7ikbMTGR7nxAUqdmRXNEY
38AYl6msZ9/JoFZt8fEag4Jp657Q7tlXQ4jCWVn+nmeyYq/Cwm1Vnf7tL6qc8bCs
5PzK4skZQS57Du7wcnadkVs052CaJ2eqIqksQYrF05V3VeVUa5U+KCOIe41+BCbE
hUTGnL+lShO1ailLg0IdiI5V/KXZ0CZTKr506M7gIPMh0REzoWB0YUvGMCi69Cwg
AVmx+2QQZgAa8cRg30L+DCkquPb8Nv10AavB4wcgfRdLKoOrfohRarYOVBU9axHH
q48MxzXm/QuZWzh6uvG/OsktskFkTMNUTfZsZ0mez6YIAOSc+jyOsp6SJGc=
-----END CERTIFICATE-----
