Certificate:
    Data:
        Version: 3 (0x2)
        Serial Number: 204 (0xcc)
    Signature Algorithm: sha1WithRSAEncryption
        Issuer: C=US, ST=CA, L=SanFrancisco, O=Pixglo, Inc., OU=VPN-CIE, CN=tunnel.pixglo.com/name=Bala Chandrasekaran/emailAddress=bala@pixglo.com
        Validity
            Not Before: Feb 14 06:27:00 2018 GMT
            Not After : Feb 12 06:27:00 2028 GMT
        Subject: C=US, ST=CA, L=SanFrancisco, O=Pixglo, Inc., OU=VPN-CIE, CN=cie203/name=Bala Chandrasekaran/emailAddress=bala@pixglo.com
        Subject Public Key Info:
            Public Key Algorithm: rsaEncryption
                Public-Key: (4096 bit)
                Modulus:
                    00:e3:45:10:b6:e3:79:1d:fa:34:35:cc:7a:66:76:
                    0e:c2:64:ff:fc:f2:ac:48:1d:56:58:e9:e2:98:c2:
                    a6:7f:d8:61:32:9c:7e:86:b4:8e:31:02:ca:de:0a:
                    31:3c:12:61:38:bb:3b:a4:a4:fc:0c:f7:22:9f:4f:
                    ba:90:0d:08:be:01:ee:76:7c:d8:82:9b:b6:24:25:
                    66:06:0c:0d:a7:f5:a4:34:02:1f:be:0d:77:c1:07:
                    9a:84:2f:f2:fe:5f:8d:a6:22:20:14:bb:19:2d:19:
                    f3:a4:55:e4:85:a3:23:c0:50:5b:6e:97:87:1c:03:
                    7a:45:39:82:e5:5a:87:66:4b:67:f7:fe:c5:80:f3:
                    41:0f:41:e8:ee:0b:f4:bb:2c:fc:09:af:63:c1:76:
                    ab:af:77:a1:12:c2:a3:cf:fd:ca:67:0e:cb:b0:f7:
                    19:eb:ff:d5:02:3e:8c:53:3a:b3:e1:6e:00:02:0c:
                    00:9f:b0:2c:8d:d9:eb:67:78:b0:d3:71:21:b9:94:
                    4a:c6:1b:1a:23:6b:50:74:61:8b:0e:f5:76:e5:68:
                    b9:5b:7e:0c:5a:bf:88:be:03:30:3b:cf:6b:b9:ca:
                    9d:c4:7e:73:eb:17:a6:56:cd:f5:63:1f:17:36:2d:
                    17:79:00:e6:0e:0f:8a:cb:7f:d4:ca:8c:56:1c:68:
                    95:eb:07:40:5a:23:12:24:5d:62:8a:e2:0c:43:c0:
                    e0:aa:f2:48:75:11:c6:c3:f4:e8:e7:89:fa:e9:26:
                    7b:74:c9:92:f0:0b:67:79:7c:92:85:37:e0:99:8e:
                    ae:9d:00:74:30:ee:f5:d3:cf:59:4e:17:b0:fa:7e:
                    b4:bd:af:1f:f9:17:a4:71:bb:55:7d:8b:63:56:99:
                    77:ed:2c:72:63:d6:47:06:a0:e7:fe:ea:15:80:89:
                    72:5d:d6:76:58:c5:a7:60:f5:29:2d:4d:32:b2:df:
                    44:0c:1b:9d:8c:9d:96:cf:29:00:f5:04:31:d6:23:
                    1a:00:b7:48:c2:cd:eb:9e:6a:a5:4d:c4:ca:48:c0:
                    ab:56:ad:6e:05:ea:83:fb:c4:88:ad:54:cd:f4:7b:
                    8a:4a:4a:95:1f:4e:8a:f7:69:82:64:47:23:77:3c:
                    e5:85:dd:b8:25:70:e2:7d:f7:ff:10:c8:5d:35:be:
                    90:c6:92:06:bb:6c:24:dc:67:69:36:91:fb:a5:4f:
                    bb:f4:b6:7d:fd:b4:fa:70:b6:83:dc:43:48:04:75:
                    35:f6:e6:23:45:13:ab:4e:66:16:91:b1:bc:21:78:
                    db:86:42:e5:f6:d7:67:40:a7:96:ea:47:69:a8:5b:
                    22:cd:b5:b7:1f:c9:60:42:98:65:0f:fb:60:12:bd:
                    d1:99:e9
                Exponent: 65537 (0x10001)
        X509v3 extensions:
            X509v3 Basic Constraints: 
                CA:FALSE
            Netscape Comment: 
                Easy-RSA Generated Certificate
            X509v3 Subject Key Identifier: 
                3E:20:00:0A:28:F6:37:DD:E3:73:53:7B:EB:30:64:7E:A5:7B:E4:E3
            X509v3 Authority Key Identifier: 
                keyid:EF:38:8D:14:50:58:A7:5B:4D:9C:17:72:FC:DF:B9:AC:A7:51:B0:10
                DirName:/C=US/ST=CA/L=SanFrancisco/O=Pixglo, Inc./OU=VPN-CIE/CN=tunnel.pixglo.com/name=Bala Chandrasekaran/emailAddress=bala@pixglo.com
                serial:A6:DB:C6:83:80:E6:A0:79

            X509v3 Extended Key Usage: 
                TLS Web Client Authentication
            X509v3 Key Usage: 
                Digital Signature
    Signature Algorithm: sha1WithRSAEncryption
         8d:e2:ad:73:0c:84:da:31:16:70:82:a3:50:4c:c3:8d:f7:d5:
         25:ad:14:12:4b:48:40:9f:47:d9:f2:70:ef:7f:e5:17:ce:8d:
         cf:66:75:a8:ab:cf:6c:c2:69:6c:94:38:a7:43:ec:25:c7:5f:
         d8:36:96:5d:38:09:4c:e1:c9:e5:b2:c8:14:84:9a:93:c1:72:
         50:a1:68:04:fe:67:74:5f:a6:da:bf:0e:65:43:8c:f9:39:1e:
         bf:07:a2:3b:23:68:ff:57:ab:12:6e:9f:91:a1:21:ab:89:bb:
         a1:91:29:a2:dd:9b:e1:d6:9e:ba:8c:ba:56:91:c1:b1:77:f4:
         b9:ad:3f:95:1c:bc:83:bc:ac:0c:59:3b:36:0b:3d:cf:3a:56:
         6c:d7:79:02:9c:da:11:de:6e:02:c0:7e:2d:fb:1e:47:61:a7:
         da:50:16:58:15:87:6c:31:12:8f:99:f1:d5:c3:25:3d:6c:43:
         c1:76:d4:bc:ee:88:0e:c7:11:33:d8:57:25:f0:3d:c4:45:ac:
         b5:af:e9:d7:f1:81:4f:57:ed:e9:e5:da:48:a7:34:64:34:8a:
         06:39:cb:7a:ce:f8:6b:13:4c:bc:21:3a:91:d1:47:6b:d1:d0:
         92:17:58:d8:1d:c7:69:67:9b:14:92:ab:69:3e:f2:d7:d1:bf:
         af:d0:7b:1f:0a:0a:70:9b:08:d3:27:a4:97:a8:7c:e1:f5:fd:
         be:c0:92:ba:39:b4:3c:e9:06:66:15:0c:44:55:6e:55:e0:98:
         67:78:29:0b:6a:f4:95:78:cc:c4:d2:f2:71:02:8b:f0:59:51:
         32:d8:2b:f4:4a:6d:05:12:69:d1:e1:ac:10:2b:e8:58:89:03:
         e4:20:62:86:71:96:4b:e2:6f:0d:02:a1:64:25:34:18:e9:8f:
         7a:b1:39:b6:d7:bf:c5:af:c5:c8:9c:7a:e1:f5:0e:ca:e2:92:
         11:65:8a:63:95:fd:6f:4e:a6:2a:a4:5b:73:7e:8e:88:7d:c8:
         e5:a4:26:2d:a6:f4:d5:fa:a4:5d:65:f8:a7:84:c0:4f:e5:a1:
         36:ab:2e:82:01:93:a6:a9:96:b3:26:99:1f:d4:c1:d8:8b:d3:
         e7:16:78:b7:d1:e1:f3:eb:f9:d2:9b:ae:52:27:70:59:8c:80:
         6e:8c:70:1c:6b:06:06:5f:ee:f1:8a:7a:4a:6e:f8:15:61:b0:
         6d:a8:1e:62:f5:e3:bd:37:9e:d5:17:87:b4:7a:d2:d0:a5:b9:
         28:42:49:7e:e0:81:40:dd:89:a0:63:82:c4:02:c5:03:21:cd:
         d4:bd:dd:1e:81:b6:75:aa:cb:0e:3e:9c:f7:ed:90:df:08:83:
         43:66:41:99:38:32:2b:38
-----BEGIN CERTIFICATE-----
MIIHSDCCBTCgAwIBAgICAMwwDQYJKoZIhvcNAQEFBQAwgbQxCzAJBgNVBAYTAlVT
MQswCQYDVQQIEwJDQTEVMBMGA1UEBxMMU2FuRnJhbmNpc2NvMRUwEwYDVQQKEwxQ
aXhnbG8sIEluYy4xEDAOBgNVBAsTB1ZQTi1DSUUxGjAYBgNVBAMTEXR1bm5lbC5w
aXhnbG8uY29tMRwwGgYDVQQpExNCYWxhIENoYW5kcmFzZWthcmFuMR4wHAYJKoZI
hvcNAQkBFg9iYWxhQHBpeGdsby5jb20wHhcNMTgwMjE0MDYyNzAwWhcNMjgwMjEy
MDYyNzAwWjCBqTELMAkGA1UEBhMCVVMxCzAJBgNVBAgTAkNBMRUwEwYDVQQHEwxT
YW5GcmFuY2lzY28xFTATBgNVBAoTDFBpeGdsbywgSW5jLjEQMA4GA1UECxMHVlBO
LUNJRTEPMA0GA1UEAxMGY2llMjAzMRwwGgYDVQQpExNCYWxhIENoYW5kcmFzZWth
cmFuMR4wHAYJKoZIhvcNAQkBFg9iYWxhQHBpeGdsby5jb20wggIiMA0GCSqGSIb3
DQEBAQUAA4ICDwAwggIKAoICAQDjRRC243kd+jQ1zHpmdg7CZP/88qxIHVZY6eKY
wqZ/2GEynH6GtI4xAsreCjE8EmE4uzukpPwM9yKfT7qQDQi+Ae52fNiCm7YkJWYG
DA2n9aQ0Ah++DXfBB5qEL/L+X42mIiAUuxktGfOkVeSFoyPAUFtul4ccA3pFOYLl
WodmS2f3/sWA80EPQejuC/S7LPwJr2PBdquvd6ESwqPP/cpnDsuw9xnr/9UCPoxT
OrPhbgACDACfsCyN2etneLDTcSG5lErGGxoja1B0YYsO9XblaLlbfgxav4i+AzA7
z2u5yp3EfnPrF6ZWzfVjHxc2LRd5AOYOD4rLf9TKjFYcaJXrB0BaIxIkXWKK4gxD
wOCq8kh1EcbD9OjnifrpJnt0yZLwC2d5fJKFN+CZjq6dAHQw7vXTz1lOF7D6frS9
rx/5F6Rxu1V9i2NWmXftLHJj1kcGoOf+6hWAiXJd1nZYxadg9SktTTKy30QMG52M
nZbPKQD1BDHWIxoAt0jCzeueaqVNxMpIwKtWrW4F6oP7xIitVM30e4pKSpUfTor3
aYJkRyN3POWF3bglcOJ99/8QyF01vpDGkga7bCTcZ2k2kfulT7v0tn39tPpwtoPc
Q0gEdTX25iNFE6tOZhaRsbwheNuGQuX212dAp5bqR2moWyLNtbcfyWBCmGUP+2AS
vdGZ6QIDAQABo4IBazCCAWcwCQYDVR0TBAIwADAtBglghkgBhvhCAQ0EIBYeRWFz
eS1SU0EgR2VuZXJhdGVkIENlcnRpZmljYXRlMB0GA1UdDgQWBBQ+IAAKKPY33eNz
U3vrMGR+pXvk4zCB6QYDVR0jBIHhMIHegBTvOI0UUFinW02cF3L837msp1GwEKGB
uqSBtzCBtDELMAkGA1UEBhMCVVMxCzAJBgNVBAgTAkNBMRUwEwYDVQQHEwxTYW5G
cmFuY2lzY28xFTATBgNVBAoTDFBpeGdsbywgSW5jLjEQMA4GA1UECxMHVlBOLUNJ
RTEaMBgGA1UEAxMRdHVubmVsLnBpeGdsby5jb20xHDAaBgNVBCkTE0JhbGEgQ2hh
bmRyYXNla2FyYW4xHjAcBgkqhkiG9w0BCQEWD2JhbGFAcGl4Z2xvLmNvbYIJAKbb
xoOA5qB5MBMGA1UdJQQMMAoGCCsGAQUFBwMCMAsGA1UdDwQEAwIHgDANBgkqhkiG
9w0BAQUFAAOCAgEAjeKtcwyE2jEWcIKjUEzDjffVJa0UEktIQJ9H2fJw73/lF86N
z2Z1qKvPbMJpbJQ4p0PsJcdf2DaWXTgJTOHJ5bLIFISak8FyUKFoBP5ndF+m2r8O
ZUOM+TkevweiOyNo/1erEm6fkaEhq4m7oZEpot2b4daeuoy6VpHBsXf0ua0/lRy8
g7ysDFk7Ngs9zzpWbNd5ApzaEd5uAsB+LfseR2Gn2lAWWBWHbDESj5nx1cMlPWxD
wXbUvO6IDscRM9hXJfA9xEWsta/p1/GBT1ft6eXaSKc0ZDSKBjnLes74axNMvCE6
kdFHa9HQkhdY2B3HaWebFJKraT7y19G/r9B7HwoKcJsI0yekl6h84fX9vsCSujm0
POkGZhUMRFVuVeCYZ3gpC2r0lXjMxNLycQKL8FlRMtgr9EptBRJp0eGsECvoWIkD
5CBihnGWS+JvDQKhZCU0GOmPerE5tte/xa/FyJx64fUOyuKSEWWKY5X9b06mKqRb
c36OiH3I5aQmLab01fqkXWX4p4TAT+WhNqsuggGTpqmWsyaZH9TB2IvT5xZ4t9Hh
8+v50puuUidwWYyAboxwHGsGBl/u8Yp6Sm74FWGwbageYvXjvTee1ReHtHrS0KW5
KEJJfuCBQN2JoGOCxALFAyHN1L3dHoG2darLDj6c9+2Q3wiDQ2ZBmTgyKzg=
-----END CERTIFICATE-----
