Certificate:
    Data:
        Version: 3 (0x2)
        Serial Number: 27 (0x1b)
    Signature Algorithm: sha1WithRSAEncryption
        Issuer: C=US, ST=CA, L=SanFrancisco, O=Pixglo, Inc., OU=VPN-CIE, CN=tunnel.pixglo.com/name=Bala Chandrasekaran/emailAddress=bala@pixglo.com
        Validity
            Not Before: Feb 14 06:24:30 2018 GMT
            Not After : Feb 12 06:24:30 2028 GMT
        Subject: C=US, ST=CA, L=SanFrancisco, O=Pixglo, Inc., OU=VPN-CIE, CN=cie26/name=Bala Chandrasekaran/emailAddress=bala@pixglo.com
        Subject Public Key Info:
            Public Key Algorithm: rsaEncryption
                Public-Key: (4096 bit)
                Modulus:
                    00:b6:32:02:ca:ae:2d:5b:d6:fb:d7:2e:7f:7a:62:
                    28:ba:39:9d:52:c3:48:66:f1:81:94:9d:27:98:37:
                    b0:83:e3:30:b1:55:b7:bd:35:db:1d:40:da:43:90:
                    c4:2b:6f:ef:c8:d5:4f:f9:8c:24:47:a3:eb:53:4c:
                    4b:66:0d:09:6b:0c:14:6d:2d:52:c8:d5:e7:d7:00:
                    49:fb:b1:7e:b1:f1:fe:dd:13:c3:23:31:47:e9:20:
                    da:f7:fe:39:81:dd:ce:86:92:25:82:d2:66:99:77:
                    ff:a8:cf:41:08:2f:ea:1c:38:b8:b9:61:44:ff:bd:
                    3b:8a:bd:f6:3a:64:60:b8:c6:1b:97:99:34:54:89:
                    61:4f:df:a7:25:13:fe:e9:b6:8f:12:e9:69:1e:f7:
                    5a:12:a5:e3:d7:f5:ae:2d:1b:bc:4c:63:08:64:59:
                    28:d9:0e:ac:df:9a:76:81:7b:20:c9:3f:a2:d3:50:
                    de:f9:28:21:75:2c:b7:0b:81:54:6c:9c:58:38:0c:
                    14:ea:70:80:c6:ac:28:bc:dc:69:b3:97:95:50:56:
                    c2:b8:61:a6:5f:95:e8:58:ca:08:3d:64:34:53:6d:
                    62:6f:df:4c:3c:29:a3:47:0b:51:9b:3e:0a:98:c7:
                    1f:b6:59:f1:1f:f7:70:3c:e6:61:0c:1f:e4:b8:09:
                    d2:a8:3a:6e:ba:32:16:a0:6d:23:d2:20:42:b7:c1:
                    02:d6:78:82:99:c8:be:4f:54:af:ab:01:94:5f:17:
                    ab:c6:de:30:8f:39:07:c1:a3:80:cc:1d:4e:1c:19:
                    2f:1e:45:4e:43:49:55:a3:60:9c:40:84:80:b6:fa:
                    22:f3:3f:fb:59:5f:6e:d1:54:e4:d7:4a:3f:51:2e:
                    bc:95:ca:5f:19:a5:7a:7c:4d:46:7e:f1:a3:eb:0d:
                    4d:55:c2:2d:c0:ff:9b:fb:bf:85:3d:d2:fe:11:f0:
                    cc:5b:27:47:b4:12:89:8a:cc:a6:75:92:80:c5:2d:
                    08:49:70:fe:db:e8:35:4d:5e:31:b6:f8:cf:90:4b:
                    2f:00:86:26:f1:d3:05:bb:2e:5a:db:c7:d2:2c:7b:
                    43:a4:c8:d8:fa:ed:79:65:59:cf:8e:b8:ad:31:0b:
                    37:6e:ea:0a:b3:25:37:8a:65:a4:af:d9:6c:f8:d0:
                    d4:9d:e3:bf:de:13:64:8a:85:84:4c:db:4a:ea:52:
                    45:9b:81:3c:90:a8:ec:18:f3:90:61:ca:80:c8:ae:
                    ef:69:66:2e:3b:73:6b:13:c5:ee:6b:ba:ed:f2:d0:
                    a7:69:f7:85:08:11:dd:de:d3:e3:04:38:40:1d:c7:
                    12:a6:3d:35:9e:a6:85:06:09:d3:4a:a2:60:0f:fa:
                    aa:db:37
                Exponent: 65537 (0x10001)
        X509v3 extensions:
            X509v3 Basic Constraints: 
                CA:FALSE
            Netscape Comment: 
                Easy-RSA Generated Certificate
            X509v3 Subject Key Identifier: 
                59:A4:CC:CA:B1:BB:F0:2E:5B:BF:77:E7:1D:A0:8D:DC:E0:4F:87:B0
            X509v3 Authority Key Identifier: 
                keyid:EF:38:8D:14:50:58:A7:5B:4D:9C:17:72:FC:DF:B9:AC:A7:51:B0:10
                DirName:/C=US/ST=CA/L=SanFrancisco/O=Pixglo, Inc./OU=VPN-CIE/CN=tunnel.pixglo.com/name=Bala Chandrasekaran/emailAddress=bala@pixglo.com
                serial:A6:DB:C6:83:80:E6:A0:79

            X509v3 Extended Key Usage: 
                TLS Web Client Authentication
            X509v3 Key Usage: 
                Digital Signature
    Signature Algorithm: sha1WithRSAEncryption
         df:04:b4:39:c8:74:35:db:7c:ea:97:82:07:a8:8a:70:e5:b0:
         e7:5e:e1:cc:5c:3a:68:d8:a2:db:32:33:5a:60:73:2b:4e:9c:
         88:82:26:d5:72:16:01:c5:b3:df:c3:18:fa:fe:76:a8:4e:b6:
         c5:a3:07:71:f9:2f:36:9a:79:31:43:7b:88:70:97:b8:c1:7c:
         bd:26:8f:5c:07:7e:ba:2e:66:bd:35:90:e3:12:8c:50:84:41:
         77:dc:47:cb:ae:41:4e:87:28:f8:4a:e1:d0:f2:f9:ed:6b:6b:
         c2:9e:4c:2c:02:5b:1d:6b:80:3f:31:b1:67:e8:7c:d3:2a:b0:
         0d:6e:a5:fc:cb:f3:ba:d6:ff:81:a9:f2:3b:0b:d3:ee:fc:e0:
         7a:84:5e:3d:d3:7d:0a:bf:61:9c:6e:17:8f:11:a7:f5:1d:cd:
         c5:42:a2:3e:7e:b9:9d:a4:a4:29:c8:e1:b7:ff:8f:c7:0e:33:
         4f:8a:73:af:8e:8a:19:2a:23:61:ea:12:a7:9a:bb:25:0d:22:
         ab:27:4d:27:2e:c5:6a:28:f2:4f:4c:d7:ca:da:68:30:b6:3d:
         76:3e:35:1f:07:97:90:fa:39:1d:c3:11:81:29:74:84:34:f8:
         bd:2a:33:eb:22:1d:69:4f:91:29:22:16:78:06:b1:36:d7:13:
         97:18:e7:dd:b8:c6:05:42:73:37:6a:93:27:b3:65:4a:97:34:
         bb:a6:88:e3:a0:02:51:e8:cd:b0:1e:f3:ad:df:41:2f:bd:e5:
         d0:37:e8:38:c8:1f:1f:01:04:77:67:85:50:5b:1b:f7:f1:4e:
         43:8e:66:3a:84:88:f4:be:22:4c:5a:0d:55:c0:b0:84:43:ee:
         5b:e4:30:b9:61:98:a6:4e:cc:f8:cc:77:f1:6f:29:5a:0f:e4:
         00:09:6d:ba:23:e8:a5:61:fa:4b:22:9f:e2:b3:c6:80:b1:54:
         e1:80:7e:83:70:51:9f:a0:ca:9e:3f:88:42:9b:b7:e7:c3:8d:
         ca:41:23:7a:a9:e9:ef:dc:0e:cf:bc:d5:99:c8:0b:cd:3a:16:
         5a:b0:b2:b3:1b:b1:9e:77:3c:dd:e2:4a:0d:e1:6b:c5:76:c4:
         ac:de:a4:2e:25:7f:2f:d8:92:75:de:e0:bf:cc:f0:79:63:5a:
         6b:ea:51:6f:c3:3c:35:7c:0b:87:dc:4e:bc:23:de:07:7f:ba:
         56:0d:1e:5f:92:17:1a:f1:9d:a5:dc:89:bb:8f:66:28:ad:0f:
         c6:57:b7:43:76:fc:81:b1:27:49:56:6c:ce:b9:2c:30:55:c6:
         8d:78:6f:f4:df:15:28:41:60:d3:63:1d:91:9d:7d:9c:e2:34:
         0e:31:68:74:a2:e1:ac:b7
-----BEGIN CERTIFICATE-----
MIIHRjCCBS6gAwIBAgIBGzANBgkqhkiG9w0BAQUFADCBtDELMAkGA1UEBhMCVVMx
CzAJBgNVBAgTAkNBMRUwEwYDVQQHEwxTYW5GcmFuY2lzY28xFTATBgNVBAoTDFBp
eGdsbywgSW5jLjEQMA4GA1UECxMHVlBOLUNJRTEaMBgGA1UEAxMRdHVubmVsLnBp
eGdsby5jb20xHDAaBgNVBCkTE0JhbGEgQ2hhbmRyYXNla2FyYW4xHjAcBgkqhkiG
9w0BCQEWD2JhbGFAcGl4Z2xvLmNvbTAeFw0xODAyMTQwNjI0MzBaFw0yODAyMTIw
NjI0MzBaMIGoMQswCQYDVQQGEwJVUzELMAkGA1UECBMCQ0ExFTATBgNVBAcTDFNh
bkZyYW5jaXNjbzEVMBMGA1UEChMMUGl4Z2xvLCBJbmMuMRAwDgYDVQQLEwdWUE4t
Q0lFMQ4wDAYDVQQDEwVjaWUyNjEcMBoGA1UEKRMTQmFsYSBDaGFuZHJhc2VrYXJh
bjEeMBwGCSqGSIb3DQEJARYPYmFsYUBwaXhnbG8uY29tMIICIjANBgkqhkiG9w0B
AQEFAAOCAg8AMIICCgKCAgEAtjICyq4tW9b71y5/emIoujmdUsNIZvGBlJ0nmDew
g+MwsVW3vTXbHUDaQ5DEK2/vyNVP+YwkR6PrU0xLZg0JawwUbS1SyNXn1wBJ+7F+
sfH+3RPDIzFH6SDa9/45gd3OhpIlgtJmmXf/qM9BCC/qHDi4uWFE/707ir32OmRg
uMYbl5k0VIlhT9+nJRP+6baPEulpHvdaEqXj1/WuLRu8TGMIZFko2Q6s35p2gXsg
yT+i01De+SghdSy3C4FUbJxYOAwU6nCAxqwovNxps5eVUFbCuGGmX5XoWMoIPWQ0
U21ib99MPCmjRwtRmz4KmMcftlnxH/dwPOZhDB/kuAnSqDpuujIWoG0j0iBCt8EC
1niCmci+T1SvqwGUXxerxt4wjzkHwaOAzB1OHBkvHkVOQ0lVo2CcQISAtvoi8z/7
WV9u0VTk10o/US68lcpfGaV6fE1GfvGj6w1NVcItwP+b+7+FPdL+EfDMWydHtBKJ
isymdZKAxS0ISXD+2+g1TV4xtvjPkEsvAIYm8dMFuy5a28fSLHtDpMjY+u15ZVnP
jritMQs3buoKsyU3imWkr9ls+NDUneO/3hNkioWETNtK6lJFm4E8kKjsGPOQYcqA
yK7vaWYuO3NrE8Xua7rt8tCnafeFCBHd3tPjBDhAHccSpj01nqaFBgnTSqJgD/qq
2zcCAwEAAaOCAWswggFnMAkGA1UdEwQCMAAwLQYJYIZIAYb4QgENBCAWHkVhc3kt
UlNBIEdlbmVyYXRlZCBDZXJ0aWZpY2F0ZTAdBgNVHQ4EFgQUWaTMyrG78C5bv3fn
HaCN3OBPh7AwgekGA1UdIwSB4TCB3oAU7ziNFFBYp1tNnBdy/N+5rKdRsBChgbqk
gbcwgbQxCzAJBgNVBAYTAlVTMQswCQYDVQQIEwJDQTEVMBMGA1UEBxMMU2FuRnJh
bmNpc2NvMRUwEwYDVQQKEwxQaXhnbG8sIEluYy4xEDAOBgNVBAsTB1ZQTi1DSUUx
GjAYBgNVBAMTEXR1bm5lbC5waXhnbG8uY29tMRwwGgYDVQQpExNCYWxhIENoYW5k
cmFzZWthcmFuMR4wHAYJKoZIhvcNAQkBFg9iYWxhQHBpeGdsby5jb22CCQCm28aD
gOageTATBgNVHSUEDDAKBggrBgEFBQcDAjALBgNVHQ8EBAMCB4AwDQYJKoZIhvcN
AQEFBQADggIBAN8EtDnIdDXbfOqXggeoinDlsOde4cxcOmjYotsyM1pgcytOnIiC
JtVyFgHFs9/DGPr+dqhOtsWjB3H5LzaaeTFDe4hwl7jBfL0mj1wHfrouZr01kOMS
jFCEQXfcR8uuQU6HKPhK4dDy+e1ra8KeTCwCWx1rgD8xsWfofNMqsA1upfzL87rW
/4Gp8jsL0+784HqEXj3TfQq/YZxuF48Rp/UdzcVCoj5+uZ2kpCnI4bf/j8cOM0+K
c6+OihkqI2HqEqeauyUNIqsnTScuxWoo8k9M18raaDC2PXY+NR8Hl5D6OR3DEYEp
dIQ0+L0qM+siHWlPkSkiFngGsTbXE5cY5924xgVCczdqkyezZUqXNLumiOOgAlHo
zbAe863fQS+95dA36DjIHx8BBHdnhVBbG/fxTkOOZjqEiPS+IkxaDVXAsIRD7lvk
MLlhmKZOzPjMd/FvKVoP5AAJbboj6KVh+ksin+KzxoCxVOGAfoNwUZ+gyp4/iEKb
t+fDjcpBI3qp6e/cDs+81ZnIC806FlqwsrMbsZ53PN3iSg3ha8V2xKzepC4lfy/Y
knXe4L/M8HljWmvqUW/DPDV8C4fcTrwj3gd/ulYNHl+SFxrxnaXcibuPZiitD8ZX
t0N2/IGxJ0lWbM65LDBVxo14b/TfFShBYNNjHZGdfZziNA4xaHSi4ay3
-----END CERTIFICATE-----
