Certificate:
    Data:
        Version: 3 (0x2)
        Serial Number: 246 (0xf6)
    Signature Algorithm: sha1WithRSAEncryption
        Issuer: C=US, ST=CA, L=SanFrancisco, O=Pixglo, Inc., OU=VPN-CIE, CN=tunnel.pixglo.com/name=Bala Chandrasekaran/emailAddress=bala@pixglo.com
        Validity
            Not Before: Feb 14 06:29:14 2018 GMT
            Not After : Feb 12 06:29:14 2028 GMT
        Subject: C=US, ST=CA, L=SanFrancisco, O=Pixglo, Inc., OU=VPN-CIE, CN=cie245/name=Bala Chandrasekaran/emailAddress=bala@pixglo.com
        Subject Public Key Info:
            Public Key Algorithm: rsaEncryption
                Public-Key: (4096 bit)
                Modulus:
                    00:ce:38:dc:47:ac:15:30:72:53:98:9e:5a:7f:98:
                    97:28:e6:c2:b1:7f:57:02:b4:8f:07:2f:8f:b7:4a:
                    58:41:66:90:73:52:4f:b5:e0:b2:61:d6:f8:dd:ac:
                    46:32:3b:e1:a4:b0:b8:5b:28:12:24:4e:9b:e5:14:
                    c1:b9:39:fd:fa:ac:33:03:92:5b:77:fb:0f:fe:3a:
                    58:05:ea:c8:c9:f7:e5:fc:54:1c:f8:40:1b:41:04:
                    66:9c:01:c8:ed:39:20:87:50:74:aa:9e:a6:ed:f3:
                    1a:99:b8:e5:a3:02:c4:de:af:13:f8:d5:ad:9c:8d:
                    4c:4f:0b:fc:7a:a2:4c:2c:40:90:00:8b:b9:a0:54:
                    34:6d:d2:39:15:18:1f:f4:f3:46:18:db:00:2d:58:
                    2c:7a:5a:d9:97:14:31:64:78:0a:cb:ed:7f:69:30:
                    62:7a:8e:95:2f:d3:84:0e:cb:8f:ac:07:5a:5d:61:
                    c1:e3:26:7f:18:8e:3d:cc:3e:91:34:2c:63:cc:2f:
                    01:bf:c3:37:4b:87:81:c9:ab:ea:0c:a9:0f:da:a4:
                    6d:e9:79:df:af:e2:a2:fb:16:5a:9a:42:73:70:36:
                    ab:1c:a6:3c:45:ae:9d:60:66:1a:4f:95:2d:b7:2f:
                    68:5c:8e:44:0b:f2:8f:d1:8d:1e:7b:1c:ac:7a:83:
                    a2:60:0a:8a:f5:54:e2:11:53:3a:2b:e2:38:28:25:
                    6b:d0:48:84:8b:50:0d:0d:28:b2:3a:85:a7:43:eb:
                    06:86:62:1b:7a:b8:be:33:f2:06:0e:55:76:d6:d5:
                    b3:0a:4e:dc:4b:5f:08:a1:21:b1:74:ae:fb:e4:ca:
                    26:61:06:26:91:05:8e:69:d7:7e:83:a3:f4:53:7f:
                    70:ff:a2:ec:da:1c:aa:fc:be:7f:63:7c:43:49:a6:
                    18:90:4c:5e:f6:20:46:95:e1:08:ef:d8:d5:52:a1:
                    c4:6a:26:ca:c6:7f:04:19:56:f4:fe:7b:1c:01:9e:
                    4f:61:50:e1:31:94:1f:33:f8:24:be:a6:3e:98:4e:
                    45:98:37:dc:c0:c9:72:29:df:0a:a2:b5:52:c7:9a:
                    a6:58:55:03:bc:7a:e9:f8:47:5e:3a:c1:6e:8a:75:
                    78:d6:53:bb:26:2c:9f:0d:e7:1c:51:ad:7e:e3:4e:
                    b6:df:bc:cc:e0:a7:f8:91:c4:16:fd:95:cd:ff:01:
                    ee:3e:cc:4d:f9:5f:ef:08:70:8b:aa:7c:0c:e6:ec:
                    ac:d3:cf:71:54:87:43:5b:df:91:b3:96:0b:6f:8d:
                    c6:a5:15:d3:d4:c2:a9:9f:07:9e:1f:84:20:fb:01:
                    11:4b:3f:a0:c6:22:e4:af:3c:c1:25:4e:f4:ea:17:
                    c8:0d:2d
                Exponent: 65537 (0x10001)
        X509v3 extensions:
            X509v3 Basic Constraints: 
                CA:FALSE
            Netscape Comment: 
                Easy-RSA Generated Certificate
            X509v3 Subject Key Identifier: 
                F8:4F:EB:67:D8:7A:06:B6:90:3A:4C:BA:A8:B2:DD:FF:30:33:32:34
            X509v3 Authority Key Identifier: 
                keyid:EF:38:8D:14:50:58:A7:5B:4D:9C:17:72:FC:DF:B9:AC:A7:51:B0:10
                DirName:/C=US/ST=CA/L=SanFrancisco/O=Pixglo, Inc./OU=VPN-CIE/CN=tunnel.pixglo.com/name=Bala Chandrasekaran/emailAddress=bala@pixglo.com
                serial:A6:DB:C6:83:80:E6:A0:79

            X509v3 Extended Key Usage: 
                TLS Web Client Authentication
            X509v3 Key Usage: 
                Digital Signature
    Signature Algorithm: sha1WithRSAEncryption
         cd:90:90:c9:c9:53:d7:7b:1c:7a:4b:e1:bc:ec:ed:1f:5f:73:
         fe:60:14:fc:e3:50:f0:03:57:f2:cd:19:9d:51:3f:92:f6:7e:
         c9:4a:37:39:b9:8d:eb:c8:48:08:09:08:74:55:75:31:23:5a:
         8f:1b:27:01:47:04:bb:2a:b5:42:74:1d:d5:bb:50:73:43:24:
         24:ad:b5:4a:ab:e8:0d:d3:a0:d0:e2:fc:da:33:61:c9:ce:35:
         ac:72:44:fc:0d:9d:93:0d:93:5d:45:55:1f:07:2c:b1:2d:4c:
         3e:38:55:f5:90:3d:3a:c7:ab:12:fb:cb:9c:c5:00:76:04:cd:
         b9:c7:fd:6f:42:25:ab:0b:3f:10:7a:af:9c:14:b9:e0:c0:83:
         8c:f6:be:9e:78:2b:7a:8c:90:6e:07:68:45:65:ea:4e:b0:18:
         6c:0f:d6:28:81:48:a4:7d:82:cf:44:67:32:c2:ba:72:b4:ee:
         81:f3:72:f1:f8:79:4f:83:89:9c:a9:b8:35:cf:6b:16:23:86:
         fc:3e:e1:ce:11:81:0c:b3:8c:08:ad:45:d9:5c:c7:b2:e4:b2:
         80:e1:8b:19:fd:9c:c1:64:02:f3:8a:35:fb:ed:d0:9e:a0:1d:
         fb:c7:7d:9c:4c:92:8a:de:7d:e4:90:0d:5a:d0:d2:37:5d:e3:
         f0:9e:78:d8:44:5f:a6:8c:15:f3:da:41:ab:dc:8d:01:0c:cf:
         14:7d:b9:dd:3b:d3:d4:5d:54:1c:45:2d:a9:da:47:de:ed:d9:
         45:6a:b9:bb:76:83:08:08:1a:91:05:d7:d3:f5:0b:52:b5:62:
         b1:8f:e1:6e:6e:00:9f:60:7c:fc:88:bd:94:bf:81:00:f5:e8:
         74:f1:fb:42:82:26:4c:ca:05:d1:6b:d6:f1:a1:95:7e:a4:0a:
         14:d6:00:98:be:34:35:99:9b:55:64:10:dd:da:c7:6d:ab:e9:
         b3:4a:4a:b0:d2:97:79:8a:b3:50:c4:89:13:18:7d:ac:24:6f:
         fa:3e:af:63:48:86:2a:bc:60:e9:21:23:d1:d1:13:16:6c:e1:
         13:73:22:ab:fe:aa:8e:c0:86:03:22:fe:66:92:49:a4:15:a0:
         f1:b1:b9:97:8c:63:5a:d0:dc:3e:82:12:af:be:35:b4:6d:b3:
         3d:c0:7a:f1:35:3b:0a:3d:23:36:99:b2:64:88:c1:d3:c5:b9:
         e4:34:21:65:dc:1e:2b:94:3e:6c:39:34:a7:be:55:3e:fb:fb:
         d1:5e:56:13:02:ee:02:ec:a3:26:8b:a9:d4:4e:ae:d3:ea:d3:
         2b:ff:fc:86:76:df:a0:d2:2c:e6:ff:4a:87:0a:1b:23:7e:23:
         f7:7d:98:a8:b6:96:80:d8
-----BEGIN CERTIFICATE-----
MIIHSDCCBTCgAwIBAgICAPYwDQYJKoZIhvcNAQEFBQAwgbQxCzAJBgNVBAYTAlVT
MQswCQYDVQQIEwJDQTEVMBMGA1UEBxMMU2FuRnJhbmNpc2NvMRUwEwYDVQQKEwxQ
aXhnbG8sIEluYy4xEDAOBgNVBAsTB1ZQTi1DSUUxGjAYBgNVBAMTEXR1bm5lbC5w
aXhnbG8uY29tMRwwGgYDVQQpExNCYWxhIENoYW5kcmFzZWthcmFuMR4wHAYJKoZI
hvcNAQkBFg9iYWxhQHBpeGdsby5jb20wHhcNMTgwMjE0MDYyOTE0WhcNMjgwMjEy
MDYyOTE0WjCBqTELMAkGA1UEBhMCVVMxCzAJBgNVBAgTAkNBMRUwEwYDVQQHEwxT
YW5GcmFuY2lzY28xFTATBgNVBAoTDFBpeGdsbywgSW5jLjEQMA4GA1UECxMHVlBO
LUNJRTEPMA0GA1UEAxMGY2llMjQ1MRwwGgYDVQQpExNCYWxhIENoYW5kcmFzZWth
cmFuMR4wHAYJKoZIhvcNAQkBFg9iYWxhQHBpeGdsby5jb20wggIiMA0GCSqGSIb3
DQEBAQUAA4ICDwAwggIKAoICAQDOONxHrBUwclOYnlp/mJco5sKxf1cCtI8HL4+3
SlhBZpBzUk+14LJh1vjdrEYyO+GksLhbKBIkTpvlFMG5Of36rDMDklt3+w/+OlgF
6sjJ9+X8VBz4QBtBBGacAcjtOSCHUHSqnqbt8xqZuOWjAsTerxP41a2cjUxPC/x6
okwsQJAAi7mgVDRt0jkVGB/080YY2wAtWCx6WtmXFDFkeArL7X9pMGJ6jpUv04QO
y4+sB1pdYcHjJn8Yjj3MPpE0LGPMLwG/wzdLh4HJq+oMqQ/apG3ped+v4qL7Flqa
QnNwNqscpjxFrp1gZhpPlS23L2hcjkQL8o/RjR57HKx6g6JgCor1VOIRUzor4jgo
JWvQSISLUA0NKLI6hadD6waGYht6uL4z8gYOVXbW1bMKTtxLXwihIbF0rvvkyiZh
BiaRBY5p136Do/RTf3D/ouzaHKr8vn9jfENJphiQTF72IEaV4Qjv2NVSocRqJsrG
fwQZVvT+exwBnk9hUOExlB8z+CS+pj6YTkWYN9zAyXIp3wqitVLHmqZYVQO8eun4
R146wW6KdXjWU7smLJ8N5xxRrX7jTrbfvMzgp/iRxBb9lc3/Ae4+zE35X+8IcIuq
fAzm7KzTz3FUh0Nb35GzlgtvjcalFdPUwqmfB54fhCD7ARFLP6DGIuSvPMElTvTq
F8gNLQIDAQABo4IBazCCAWcwCQYDVR0TBAIwADAtBglghkgBhvhCAQ0EIBYeRWFz
eS1SU0EgR2VuZXJhdGVkIENlcnRpZmljYXRlMB0GA1UdDgQWBBT4T+tn2HoGtpA6
TLqost3/MDMyNDCB6QYDVR0jBIHhMIHegBTvOI0UUFinW02cF3L837msp1GwEKGB
uqSBtzCBtDELMAkGA1UEBhMCVVMxCzAJBgNVBAgTAkNBMRUwEwYDVQQHEwxTYW5G
cmFuY2lzY28xFTATBgNVBAoTDFBpeGdsbywgSW5jLjEQMA4GA1UECxMHVlBOLUNJ
RTEaMBgGA1UEAxMRdHVubmVsLnBpeGdsby5jb20xHDAaBgNVBCkTE0JhbGEgQ2hh
bmRyYXNla2FyYW4xHjAcBgkqhkiG9w0BCQEWD2JhbGFAcGl4Z2xvLmNvbYIJAKbb
xoOA5qB5MBMGA1UdJQQMMAoGCCsGAQUFBwMCMAsGA1UdDwQEAwIHgDANBgkqhkiG
9w0BAQUFAAOCAgEAzZCQyclT13scekvhvOztH19z/mAU/ONQ8ANX8s0ZnVE/kvZ+
yUo3ObmN68hICAkIdFV1MSNajxsnAUcEuyq1QnQd1btQc0MkJK21SqvoDdOg0OL8
2jNhyc41rHJE/A2dkw2TXUVVHwcssS1MPjhV9ZA9OserEvvLnMUAdgTNucf9b0Il
qws/EHqvnBS54MCDjPa+nngreoyQbgdoRWXqTrAYbA/WKIFIpH2Cz0RnMsK6crTu
gfNy8fh5T4OJnKm4Nc9rFiOG/D7hzhGBDLOMCK1F2VzHsuSygOGLGf2cwWQC84o1
++3QnqAd+8d9nEySit595JANWtDSN13j8J542ERfpowV89pBq9yNAQzPFH253TvT
1F1UHEUtqdpH3u3ZRWq5u3aDCAgakQXX0/ULUrVisY/hbm4An2B8/Ii9lL+BAPXo
dPH7QoImTMoF0WvW8aGVfqQKFNYAmL40NZmbVWQQ3drHbavps0pKsNKXeYqzUMSJ
Exh9rCRv+j6vY0iGKrxg6SEj0dETFmzhE3Miq/6qjsCGAyL+ZpJJpBWg8bG5l4xj
WtDcPoISr741tG2zPcB68TU7Cj0jNpmyZIjB08W55DQhZdweK5Q+bDk0p75VPvv7
0V5WEwLuAuyjJoup1E6u0+rTK//8hnbfoNIs5v9KhwobI34j932YqLaWgNg=
-----END CERTIFICATE-----
