Certificate:
    Data:
        Version: 3 (0x2)
        Serial Number: 216 (0xd8)
    Signature Algorithm: sha1WithRSAEncryption
        Issuer: C=US, ST=CA, L=SanFrancisco, O=Pixglo, Inc., OU=VPN-CIE, CN=tunnel.pixglo.com/name=Bala Chandrasekaran/emailAddress=bala@pixglo.com
        Validity
            Not Before: Feb 14 06:28:50 2018 GMT
            Not After : Feb 12 06:28:50 2028 GMT
        Subject: C=US, ST=CA, L=SanFrancisco, O=Pixglo, Inc., OU=VPN-CIE, CN=cie215/name=Bala Chandrasekaran/emailAddress=bala@pixglo.com
        Subject Public Key Info:
            Public Key Algorithm: rsaEncryption
                Public-Key: (4096 bit)
                Modulus:
                    00:e3:38:4e:8d:cd:80:fd:12:62:4a:27:1b:d6:ea:
                    ce:4a:3d:78:00:7a:e5:27:d3:4f:0f:8a:28:2d:59:
                    6d:55:f7:77:78:67:68:de:fd:f2:b8:c5:76:75:64:
                    8f:b7:25:be:91:40:81:bd:43:5e:48:27:3c:bf:aa:
                    45:70:a0:a9:b3:63:e5:f2:f4:df:63:33:9e:49:c9:
                    c0:d3:a9:98:ad:0f:ff:08:fc:d2:d0:7b:0a:9d:36:
                    d3:e0:5c:ba:ab:65:1f:7d:e3:91:e2:4a:6a:2e:ce:
                    35:df:15:6c:a5:32:4f:25:72:32:47:d9:72:88:26:
                    d1:05:e4:1e:18:de:0f:b4:7a:45:83:19:b7:35:62:
                    b5:e5:4a:4a:e0:af:cf:5b:62:b7:b3:92:df:f1:0f:
                    89:77:80:59:d6:1c:e5:bd:e5:e4:32:17:15:93:0c:
                    5a:18:2c:1e:9e:c2:ba:4c:ba:19:92:49:0e:60:cc:
                    e0:da:da:d9:63:e0:38:2b:46:d8:eb:9c:1c:37:83:
                    02:29:e8:6d:82:b4:09:c8:5f:02:23:12:cc:e4:e7:
                    73:62:8a:2d:07:0b:56:ed:73:b8:2d:95:ed:44:46:
                    c3:64:d0:c6:78:bd:ac:3a:09:ce:c1:fd:9a:d2:43:
                    ab:d0:46:c3:ea:08:f2:ca:be:ce:80:15:53:5a:7b:
                    f9:c4:8f:ed:01:05:b5:9b:75:a1:37:6a:67:6e:62:
                    49:0b:7c:40:86:0a:c0:cb:6e:c3:06:c0:3a:cb:66:
                    f2:0b:56:d9:2d:56:ca:27:df:7a:9d:56:47:d6:f3:
                    14:09:cf:af:16:f7:b3:29:68:a1:a7:51:df:4c:99:
                    a7:0c:c1:e7:4b:0e:27:80:c2:c2:5c:9b:db:49:81:
                    dd:88:cc:cb:79:79:95:87:60:95:3c:74:f0:ea:7c:
                    28:92:87:f6:d3:9f:4a:6f:57:92:13:58:20:7c:8b:
                    f6:c2:d0:1b:77:5e:fc:ce:f3:8f:0d:48:93:98:99:
                    3c:68:41:00:94:4a:54:74:b2:6d:58:95:91:9b:05:
                    d5:2d:df:ce:e0:b2:e7:f0:e8:14:b6:cc:98:b9:93:
                    a9:ef:1b:b9:83:87:fa:71:03:fc:67:aa:c3:7e:3f:
                    20:6b:53:3f:8d:2a:2d:98:fa:0c:be:a3:ef:2a:6e:
                    26:1e:e2:30:60:6d:e0:f9:fa:a4:1c:e5:2e:3f:ab:
                    cc:8d:7d:52:12:25:7a:5e:0a:f2:8a:35:b7:c7:e7:
                    0d:b0:60:48:ae:3b:de:36:80:45:3f:65:07:4a:12:
                    98:55:fb:bd:1f:23:5d:42:05:d8:2e:37:39:01:38:
                    99:76:ab:c6:90:e6:ae:b5:0b:86:42:1a:d6:11:e8:
                    06:d3:ad
                Exponent: 65537 (0x10001)
        X509v3 extensions:
            X509v3 Basic Constraints: 
                CA:FALSE
            Netscape Comment: 
                Easy-RSA Generated Certificate
            X509v3 Subject Key Identifier: 
                DE:7D:05:23:32:18:B5:5C:BE:48:B4:7B:B6:C5:12:C0:19:D3:F7:7E
            X509v3 Authority Key Identifier: 
                keyid:EF:38:8D:14:50:58:A7:5B:4D:9C:17:72:FC:DF:B9:AC:A7:51:B0:10
                DirName:/C=US/ST=CA/L=SanFrancisco/O=Pixglo, Inc./OU=VPN-CIE/CN=tunnel.pixglo.com/name=Bala Chandrasekaran/emailAddress=bala@pixglo.com
                serial:A6:DB:C6:83:80:E6:A0:79

            X509v3 Extended Key Usage: 
                TLS Web Client Authentication
            X509v3 Key Usage: 
                Digital Signature
    Signature Algorithm: sha1WithRSAEncryption
         ad:56:f7:60:2e:f4:d9:6d:08:2d:1f:1a:14:82:9a:4a:f8:89:
         b7:ea:5a:4c:45:f6:e8:14:ed:a6:f0:d6:2d:58:e9:63:d9:35:
         b3:75:9a:f4:0e:8b:7b:6a:63:2f:59:d7:84:c1:46:30:91:a0:
         a8:1e:a3:9c:3e:61:91:2b:46:22:00:29:11:47:ad:e0:e4:8f:
         36:98:db:a1:03:7b:f0:bd:5d:81:8b:65:91:3b:6b:03:35:41:
         71:45:94:a9:6e:94:0b:70:a3:b9:ef:ad:20:df:f4:19:56:e1:
         f3:44:90:2c:91:1d:26:d3:2a:e0:4c:d2:a6:e1:ae:98:49:3d:
         9a:1b:1a:3f:8e:fa:21:60:23:17:49:57:37:8d:ac:50:8c:45:
         f8:33:ae:b6:da:55:3a:1f:1a:bb:c6:0f:cc:a0:13:ce:44:ec:
         d8:50:6d:7e:98:64:9d:1d:12:ec:aa:4c:3f:8d:e4:a4:47:a0:
         96:37:35:1d:7e:de:c1:ba:af:71:d8:2e:09:9c:0b:07:18:9c:
         56:65:b3:a0:f4:ed:24:cd:67:44:a2:d0:94:c6:6d:e3:c1:71:
         30:b0:5d:48:99:6b:0f:08:b3:94:f3:44:4b:7e:4c:e4:dc:ad:
         40:10:06:1e:23:d3:ac:12:32:08:82:f6:4c:ab:ae:dd:70:75:
         1a:9f:80:78:a8:72:cc:e9:d9:77:9e:45:ec:66:d7:06:c6:d6:
         f6:3d:2b:a3:04:5c:6e:c0:6c:97:38:37:53:e5:2c:af:33:e5:
         08:fc:ba:41:62:24:ed:6b:a5:15:9e:2d:77:84:27:2d:ac:af:
         cd:96:29:16:08:98:83:04:6c:34:89:35:b6:dd:99:92:bf:2d:
         4a:a6:c7:8e:12:cc:4b:f9:b9:69:bf:68:4f:4b:66:a6:8a:f4:
         d6:ea:f1:40:05:bd:b2:28:f8:58:38:8d:64:34:84:3f:4f:62:
         f2:23:30:06:4e:99:92:b6:16:46:5c:c1:7e:de:d0:c8:c4:b1:
         57:b7:57:ba:92:cf:51:2b:9d:6b:83:5e:66:fd:81:5c:51:55:
         5a:c6:60:ba:ed:5a:8d:56:93:db:f8:77:b6:7f:8f:b6:40:63:
         6d:9e:6d:fb:5f:76:45:d7:a1:42:c2:a4:6f:f2:e8:a8:79:c7:
         6d:8f:dd:e2:23:43:88:83:e6:eb:fd:2d:0b:aa:0d:7d:a3:e2:
         f4:0d:aa:30:8e:e2:8e:12:df:a6:3b:9b:f8:4e:44:c5:fa:14:
         51:fa:93:8d:ab:0a:7d:e9:7e:f8:a2:85:51:2c:30:70:29:3e:
         a0:9a:7b:db:40:e2:d2:5e:44:1c:37:9d:c3:bb:d7:65:47:c7:
         bb:ca:50:42:20:bf:9f:c4
-----BEGIN CERTIFICATE-----
MIIHSDCCBTCgAwIBAgICANgwDQYJKoZIhvcNAQEFBQAwgbQxCzAJBgNVBAYTAlVT
MQswCQYDVQQIEwJDQTEVMBMGA1UEBxMMU2FuRnJhbmNpc2NvMRUwEwYDVQQKEwxQ
aXhnbG8sIEluYy4xEDAOBgNVBAsTB1ZQTi1DSUUxGjAYBgNVBAMTEXR1bm5lbC5w
aXhnbG8uY29tMRwwGgYDVQQpExNCYWxhIENoYW5kcmFzZWthcmFuMR4wHAYJKoZI
hvcNAQkBFg9iYWxhQHBpeGdsby5jb20wHhcNMTgwMjE0MDYyODUwWhcNMjgwMjEy
MDYyODUwWjCBqTELMAkGA1UEBhMCVVMxCzAJBgNVBAgTAkNBMRUwEwYDVQQHEwxT
YW5GcmFuY2lzY28xFTATBgNVBAoTDFBpeGdsbywgSW5jLjEQMA4GA1UECxMHVlBO
LUNJRTEPMA0GA1UEAxMGY2llMjE1MRwwGgYDVQQpExNCYWxhIENoYW5kcmFzZWth
cmFuMR4wHAYJKoZIhvcNAQkBFg9iYWxhQHBpeGdsby5jb20wggIiMA0GCSqGSIb3
DQEBAQUAA4ICDwAwggIKAoICAQDjOE6NzYD9EmJKJxvW6s5KPXgAeuUn008Piigt
WW1V93d4Z2je/fK4xXZ1ZI+3Jb6RQIG9Q15IJzy/qkVwoKmzY+Xy9N9jM55JycDT
qZitD/8I/NLQewqdNtPgXLqrZR9945HiSmouzjXfFWylMk8lcjJH2XKIJtEF5B4Y
3g+0ekWDGbc1YrXlSkrgr89bYrezkt/xD4l3gFnWHOW95eQyFxWTDFoYLB6ewrpM
uhmSSQ5gzODa2tlj4DgrRtjrnBw3gwIp6G2CtAnIXwIjEszk53Niii0HC1btc7gt
le1ERsNk0MZ4vaw6Cc7B/ZrSQ6vQRsPqCPLKvs6AFVNae/nEj+0BBbWbdaE3amdu
YkkLfECGCsDLbsMGwDrLZvILVtktVson33qdVkfW8xQJz68W97MpaKGnUd9MmacM
wedLDieAwsJcm9tJgd2IzMt5eZWHYJU8dPDqfCiSh/bTn0pvV5ITWCB8i/bC0Bt3
XvzO848NSJOYmTxoQQCUSlR0sm1YlZGbBdUt387gsufw6BS2zJi5k6nvG7mDh/px
A/xnqsN+PyBrUz+NKi2Y+gy+o+8qbiYe4jBgbeD5+qQc5S4/q8yNfVISJXpeCvKK
NbfH5w2wYEiuO942gEU/ZQdKEphV+70fI11CBdguNzkBOJl2q8aQ5q61C4ZCGtYR
6AbTrQIDAQABo4IBazCCAWcwCQYDVR0TBAIwADAtBglghkgBhvhCAQ0EIBYeRWFz
eS1SU0EgR2VuZXJhdGVkIENlcnRpZmljYXRlMB0GA1UdDgQWBBTefQUjMhi1XL5I
tHu2xRLAGdP3fjCB6QYDVR0jBIHhMIHegBTvOI0UUFinW02cF3L837msp1GwEKGB
uqSBtzCBtDELMAkGA1UEBhMCVVMxCzAJBgNVBAgTAkNBMRUwEwYDVQQHEwxTYW5G
cmFuY2lzY28xFTATBgNVBAoTDFBpeGdsbywgSW5jLjEQMA4GA1UECxMHVlBOLUNJ
RTEaMBgGA1UEAxMRdHVubmVsLnBpeGdsby5jb20xHDAaBgNVBCkTE0JhbGEgQ2hh
bmRyYXNla2FyYW4xHjAcBgkqhkiG9w0BCQEWD2JhbGFAcGl4Z2xvLmNvbYIJAKbb
xoOA5qB5MBMGA1UdJQQMMAoGCCsGAQUFBwMCMAsGA1UdDwQEAwIHgDANBgkqhkiG
9w0BAQUFAAOCAgEArVb3YC702W0ILR8aFIKaSviJt+paTEX26BTtpvDWLVjpY9k1
s3Wa9A6Le2pjL1nXhMFGMJGgqB6jnD5hkStGIgApEUet4OSPNpjboQN78L1dgYtl
kTtrAzVBcUWUqW6UC3Cjue+tIN/0GVbh80SQLJEdJtMq4EzSpuGumEk9mhsaP476
IWAjF0lXN42sUIxF+DOuttpVOh8au8YPzKATzkTs2FBtfphknR0S7KpMP43kpEeg
ljc1HX7ewbqvcdguCZwLBxicVmWzoPTtJM1nRKLQlMZt48FxMLBdSJlrDwizlPNE
S35M5NytQBAGHiPTrBIyCIL2TKuu3XB1Gp+AeKhyzOnZd55F7GbXBsbW9j0rowRc
bsBslzg3U+UsrzPlCPy6QWIk7WulFZ4td4QnLayvzZYpFgiYgwRsNIk1tt2Zkr8t
SqbHjhLMS/m5ab9oT0tmpor01urxQAW9sij4WDiNZDSEP09i8iMwBk6ZkrYWRlzB
ft7QyMSxV7dXupLPUSuda4NeZv2BXFFVWsZguu1ajVaT2/h3tn+PtkBjbZ5t+192
RdehQsKkb/LoqHnHbY/d4iNDiIPm6/0tC6oNfaPi9A2qMI7ijhLfpjub+E5ExfoU
UfqTjasKfel++KKFUSwwcCk+oJp720Di0l5EHDedw7vXZUfHu8pQQiC/n8Q=
-----END CERTIFICATE-----
