Certificate:
    Data:
        Version: 3 (0x2)
        Serial Number: 264 (0x108)
    Signature Algorithm: sha1WithRSAEncryption
        Issuer: C=US, ST=CA, L=SanFrancisco, O=Pixglo, Inc., OU=VPN-CIE, CN=tunnel.pixglo.com/name=Bala Chandrasekaran/emailAddress=bala@pixglo.com
        Validity
            Not Before: Feb 14 06:29:29 2018 GMT
            Not After : Feb 12 06:29:29 2028 GMT
        Subject: C=US, ST=CA, L=SanFrancisco, O=Pixglo, Inc., OU=VPN-CIE, CN=cie263/name=Bala Chandrasekaran/emailAddress=bala@pixglo.com
        Subject Public Key Info:
            Public Key Algorithm: rsaEncryption
                Public-Key: (4096 bit)
                Modulus:
                    00:c9:43:7f:95:79:7b:fb:3e:3d:ef:70:2f:0f:a1:
                    b8:a4:1d:42:aa:9b:ed:bf:64:5f:95:89:3b:11:1b:
                    9f:53:e8:f3:8a:ad:33:4a:a7:d0:31:35:a4:ae:3d:
                    d6:ae:d3:5b:b3:cb:45:92:d2:40:50:d2:c2:91:9c:
                    b1:a1:ce:87:94:40:9a:1e:51:7f:d3:19:f5:c3:15:
                    65:1e:44:1c:2c:8e:b9:78:e2:a3:2d:8b:89:82:17:
                    e0:87:c0:94:81:b7:0b:bf:5c:97:4f:a1:57:19:5a:
                    e3:a9:90:37:05:08:68:b8:0b:29:e2:14:b7:89:f3:
                    b1:07:55:1f:d7:f0:05:24:05:eb:89:86:5f:86:02:
                    27:27:e3:0e:90:0d:13:16:d9:6c:34:bf:4e:85:f1:
                    2c:09:2e:28:a8:31:da:26:07:52:b5:7e:87:d9:ec:
                    2e:0f:86:9b:91:9f:62:98:cf:76:be:1c:2a:2f:9a:
                    63:31:97:a7:e6:50:ab:79:93:e7:36:90:f8:77:f3:
                    c7:cc:13:25:35:14:51:6a:58:02:96:c1:33:e1:b2:
                    87:88:f3:16:2b:91:05:f4:64:79:ba:1d:f2:f3:44:
                    18:05:86:50:cb:b1:64:f2:be:1d:23:13:60:38:b0:
                    5b:d6:9c:bd:81:8b:f0:af:3b:51:1b:44:a3:00:89:
                    22:e3:6b:8c:56:0a:48:d4:ea:e3:74:66:74:7a:18:
                    20:f4:d1:84:cd:05:0c:84:eb:c2:0a:1d:cb:e0:6f:
                    e7:7d:b1:60:8b:00:d5:cc:05:9c:2f:42:74:f5:a8:
                    a0:15:8c:5e:7f:2a:14:af:b5:dc:58:05:dc:65:1e:
                    80:01:85:b3:01:d1:04:fe:8b:7a:9a:b7:b8:74:87:
                    54:52:1d:1b:fd:64:5a:b7:20:77:e0:36:7a:5d:af:
                    53:5f:e4:c7:4b:7f:9e:82:e8:1e:74:74:ef:a9:ae:
                    52:ff:3d:4b:af:ad:85:61:d7:71:7c:d2:e2:23:c5:
                    68:cd:87:2e:18:58:19:9b:16:bf:09:70:65:6f:47:
                    b0:08:5e:fc:7a:ed:03:db:f8:7b:e3:5c:e8:6b:51:
                    fb:d1:97:34:72:55:8f:a7:6c:6b:b4:ba:da:a1:8a:
                    8c:4f:a3:db:fb:fa:2f:dd:b5:85:e5:30:75:16:22:
                    11:77:b5:1f:0e:7b:a7:d9:88:ee:2b:9f:e1:92:c9:
                    fe:7d:f2:cb:20:d2:13:6d:79:a6:42:07:7e:20:3e:
                    76:56:d8:fd:01:f7:3a:a7:38:71:e0:d8:0f:14:8e:
                    52:10:12:e4:a2:2f:30:78:23:8b:26:6e:ce:9d:43:
                    b8:1d:ab:ee:ce:57:25:5e:b8:83:1f:2c:66:21:61:
                    7a:c8:67
                Exponent: 65537 (0x10001)
        X509v3 extensions:
            X509v3 Basic Constraints: 
                CA:FALSE
            Netscape Comment: 
                Easy-RSA Generated Certificate
            X509v3 Subject Key Identifier: 
                26:1E:72:B3:EC:94:70:82:A0:DE:8A:E6:1E:B1:05:03:72:C0:BA:3F
            X509v3 Authority Key Identifier: 
                keyid:EF:38:8D:14:50:58:A7:5B:4D:9C:17:72:FC:DF:B9:AC:A7:51:B0:10
                DirName:/C=US/ST=CA/L=SanFrancisco/O=Pixglo, Inc./OU=VPN-CIE/CN=tunnel.pixglo.com/name=Bala Chandrasekaran/emailAddress=bala@pixglo.com
                serial:A6:DB:C6:83:80:E6:A0:79

            X509v3 Extended Key Usage: 
                TLS Web Client Authentication
            X509v3 Key Usage: 
                Digital Signature
    Signature Algorithm: sha1WithRSAEncryption
         2d:b3:74:2c:fd:b5:f0:26:e6:56:04:0c:7e:f7:06:2e:cb:7a:
         7e:30:30:63:11:8f:5d:5d:19:d1:61:55:f6:e8:21:60:64:97:
         d2:c3:7e:ae:7d:ed:ca:9b:d8:a8:99:00:31:7c:5d:c5:de:db:
         b0:55:47:4c:b5:bf:0c:60:e1:ab:12:8c:4d:ef:ed:76:e4:fe:
         df:0a:6a:fc:a1:b1:24:96:e1:83:ea:31:18:93:b0:02:7f:a3:
         9f:a2:d0:60:30:da:26:3e:27:67:ac:c5:9a:9a:9e:a0:5d:cb:
         04:97:04:d6:ba:83:b7:d6:32:2c:79:75:75:4f:75:8c:ca:45:
         90:3e:74:41:ff:84:98:1a:fd:0a:22:36:d5:2b:36:6d:9f:c8:
         40:3f:6e:8c:af:d7:f9:79:3e:32:82:b0:2b:c1:a1:c2:dc:58:
         a6:a8:03:94:8a:78:c6:62:b8:be:88:76:c7:28:53:29:af:3c:
         b4:d6:3e:bd:e4:20:ef:11:0c:2e:43:80:cf:ce:f4:18:b2:96:
         d4:79:4b:c9:b5:89:f2:32:50:91:d7:53:fb:94:ac:92:ca:ad:
         33:3e:1f:8a:5e:da:03:e2:c9:01:9b:da:00:86:36:ef:33:8a:
         8b:54:c2:13:91:e1:05:a9:54:7e:ef:ca:31:e1:ce:fd:74:90:
         c0:18:b8:c4:69:ee:de:cf:54:61:66:c0:8f:81:f5:29:5a:85:
         86:a3:37:59:10:88:82:0e:a7:ed:e5:8f:43:b6:d7:35:83:2b:
         d2:69:e1:9b:3a:81:0c:86:31:6f:35:21:04:f5:e3:d6:3c:ee:
         ae:95:e4:e5:38:84:70:da:94:4e:6e:6f:ad:3b:c5:00:f8:f5:
         ca:be:0d:4b:98:6a:78:46:99:c7:b0:75:9d:c2:6c:52:f1:e1:
         08:35:e6:f9:5c:01:22:e5:c4:12:46:e9:41:6f:6b:bd:6c:c5:
         ac:06:1a:c9:d1:9a:dc:61:fc:0c:86:51:10:95:8f:d3:1c:19:
         6f:d6:9b:cb:09:69:18:9d:ff:e0:e1:b0:ae:bc:55:e7:38:19:
         7a:b3:e9:f3:f7:e1:8c:2f:13:30:cc:16:87:34:ee:ac:5d:4a:
         43:ee:26:4b:3a:65:5f:fc:68:09:5e:42:3c:55:da:66:b9:5a:
         b1:26:60:4a:38:49:34:c6:f3:84:b6:1c:5f:a9:45:97:50:97:
         cf:cf:9a:73:54:0b:02:22:43:11:ef:08:0a:63:dc:15:2c:52:
         be:11:62:86:05:be:ad:3a:fa:84:b6:0b:e0:58:1a:80:43:01:
         f7:3f:4e:c3:5a:c2:b1:32:60:9b:6e:43:4d:60:f6:d1:e3:47:
         92:d6:4b:4c:88:1f:13:87
-----BEGIN CERTIFICATE-----
MIIHSDCCBTCgAwIBAgICAQgwDQYJKoZIhvcNAQEFBQAwgbQxCzAJBgNVBAYTAlVT
MQswCQYDVQQIEwJDQTEVMBMGA1UEBxMMU2FuRnJhbmNpc2NvMRUwEwYDVQQKEwxQ
aXhnbG8sIEluYy4xEDAOBgNVBAsTB1ZQTi1DSUUxGjAYBgNVBAMTEXR1bm5lbC5w
aXhnbG8uY29tMRwwGgYDVQQpExNCYWxhIENoYW5kcmFzZWthcmFuMR4wHAYJKoZI
hvcNAQkBFg9iYWxhQHBpeGdsby5jb20wHhcNMTgwMjE0MDYyOTI5WhcNMjgwMjEy
MDYyOTI5WjCBqTELMAkGA1UEBhMCVVMxCzAJBgNVBAgTAkNBMRUwEwYDVQQHEwxT
YW5GcmFuY2lzY28xFTATBgNVBAoTDFBpeGdsbywgSW5jLjEQMA4GA1UECxMHVlBO
LUNJRTEPMA0GA1UEAxMGY2llMjYzMRwwGgYDVQQpExNCYWxhIENoYW5kcmFzZWth
cmFuMR4wHAYJKoZIhvcNAQkBFg9iYWxhQHBpeGdsby5jb20wggIiMA0GCSqGSIb3
DQEBAQUAA4ICDwAwggIKAoICAQDJQ3+VeXv7Pj3vcC8PobikHUKqm+2/ZF+ViTsR
G59T6POKrTNKp9AxNaSuPdau01uzy0WS0kBQ0sKRnLGhzoeUQJoeUX/TGfXDFWUe
RBwsjrl44qMti4mCF+CHwJSBtwu/XJdPoVcZWuOpkDcFCGi4CyniFLeJ87EHVR/X
8AUkBeuJhl+GAicn4w6QDRMW2Ww0v06F8SwJLiioMdomB1K1fofZ7C4PhpuRn2KY
z3a+HCovmmMxl6fmUKt5k+c2kPh388fMEyU1FFFqWAKWwTPhsoeI8xYrkQX0ZHm6
HfLzRBgFhlDLsWTyvh0jE2A4sFvWnL2Bi/CvO1EbRKMAiSLja4xWCkjU6uN0ZnR6
GCD00YTNBQyE68IKHcvgb+d9sWCLANXMBZwvQnT1qKAVjF5/KhSvtdxYBdxlHoAB
hbMB0QT+i3qat7h0h1RSHRv9ZFq3IHfgNnpdr1Nf5MdLf56C6B50dO+prlL/PUuv
rYVh13F80uIjxWjNhy4YWBmbFr8JcGVvR7AIXvx67QPb+HvjXOhrUfvRlzRyVY+n
bGu0utqhioxPo9v7+i/dtYXlMHUWIhF3tR8Oe6fZiO4rn+GSyf598ssg0hNteaZC
B34gPnZW2P0B9zqnOHHg2A8UjlIQEuSiLzB4I4smbs6dQ7gdq+7OVyVeuIMfLGYh
YXrIZwIDAQABo4IBazCCAWcwCQYDVR0TBAIwADAtBglghkgBhvhCAQ0EIBYeRWFz
eS1SU0EgR2VuZXJhdGVkIENlcnRpZmljYXRlMB0GA1UdDgQWBBQmHnKz7JRwgqDe
iuYesQUDcsC6PzCB6QYDVR0jBIHhMIHegBTvOI0UUFinW02cF3L837msp1GwEKGB
uqSBtzCBtDELMAkGA1UEBhMCVVMxCzAJBgNVBAgTAkNBMRUwEwYDVQQHEwxTYW5G
cmFuY2lzY28xFTATBgNVBAoTDFBpeGdsbywgSW5jLjEQMA4GA1UECxMHVlBOLUNJ
RTEaMBgGA1UEAxMRdHVubmVsLnBpeGdsby5jb20xHDAaBgNVBCkTE0JhbGEgQ2hh
bmRyYXNla2FyYW4xHjAcBgkqhkiG9w0BCQEWD2JhbGFAcGl4Z2xvLmNvbYIJAKbb
xoOA5qB5MBMGA1UdJQQMMAoGCCsGAQUFBwMCMAsGA1UdDwQEAwIHgDANBgkqhkiG
9w0BAQUFAAOCAgEALbN0LP218CbmVgQMfvcGLst6fjAwYxGPXV0Z0WFV9ughYGSX
0sN+rn3typvYqJkAMXxdxd7bsFVHTLW/DGDhqxKMTe/tduT+3wpq/KGxJJbhg+ox
GJOwAn+jn6LQYDDaJj4nZ6zFmpqeoF3LBJcE1rqDt9YyLHl1dU91jMpFkD50Qf+E
mBr9CiI21Ss2bZ/IQD9ujK/X+Xk+MoKwK8GhwtxYpqgDlIp4xmK4voh2xyhTKa88
tNY+veQg7xEMLkOAz870GLKW1HlLybWJ8jJQkddT+5SsksqtMz4fil7aA+LJAZva
AIY27zOKi1TCE5HhBalUfu/KMeHO/XSQwBi4xGnu3s9UYWbAj4H1KVqFhqM3WRCI
gg6n7eWPQ7bXNYMr0mnhmzqBDIYxbzUhBPXj1jzurpXk5TiEcNqUTm5vrTvFAPj1
yr4NS5hqeEaZx7B1ncJsUvHhCDXm+VwBIuXEEkbpQW9rvWzFrAYaydGa3GH8DIZR
EJWP0xwZb9abywlpGJ3/4OGwrrxV5zgZerPp8/fhjC8TMMwWhzTurF1KQ+4mSzpl
X/xoCV5CPFXaZrlasSZgSjhJNMbzhLYcX6lFl1CXz8+ac1QLAiJDEe8ICmPcFSxS
vhFihgW+rTr6hLYL4FgagEMB9z9Ow1rCsTJgm25DTWD20eNHktZLTIgfE4c=
-----END CERTIFICATE-----
