Certificate:
    Data:
        Version: 3 (0x2)
        Serial Number: 235 (0xeb)
    Signature Algorithm: sha1WithRSAEncryption
        Issuer: C=US, ST=CA, L=SanFrancisco, O=Pixglo, Inc., OU=VPN-CIE, CN=tunnel.pixglo.com/name=Bala Chandrasekaran/emailAddress=bala@pixglo.com
        Validity
            Not Before: Feb 14 06:29:06 2018 GMT
            Not After : Feb 12 06:29:06 2028 GMT
        Subject: C=US, ST=CA, L=SanFrancisco, O=Pixglo, Inc., OU=VPN-CIE, CN=cie234/name=Bala Chandrasekaran/emailAddress=bala@pixglo.com
        Subject Public Key Info:
            Public Key Algorithm: rsaEncryption
                Public-Key: (4096 bit)
                Modulus:
                    00:f7:27:9e:38:21:cf:b0:aa:01:a6:a5:2d:2d:09:
                    e4:ce:66:7d:34:c8:84:fe:0e:3e:2f:4d:2f:21:20:
                    69:36:3c:e2:0e:0f:d6:c0:7b:c0:1f:d6:21:b1:27:
                    df:b1:2d:57:73:0e:b4:93:5d:7c:6a:6a:c9:58:2e:
                    c7:65:de:e9:79:0a:f5:59:6a:30:bb:7f:6a:5f:6e:
                    1e:e0:ea:5b:17:45:9d:c4:ea:5f:17:cb:90:97:c7:
                    fb:67:25:78:15:d4:8c:57:73:8d:77:72:41:75:22:
                    34:9c:7c:0b:e0:b1:3c:a2:01:93:73:cd:17:e0:f3:
                    ff:2c:26:58:b7:c6:1a:bf:5b:4e:9f:9b:28:0d:12:
                    de:dc:97:64:04:cb:e9:83:9c:5c:50:7f:5e:f3:3c:
                    1c:43:77:51:33:3c:7d:f7:37:ed:da:55:db:9d:ed:
                    87:33:5c:d7:da:ed:2a:64:c0:b1:15:d7:c1:35:62:
                    d6:90:cf:e9:06:8d:0d:3c:17:ff:2c:7d:b0:a8:65:
                    79:70:63:30:f7:8e:1b:bb:d6:16:dd:e5:47:4d:6d:
                    bf:de:56:83:15:b3:29:8d:ee:44:f1:90:e5:9f:1b:
                    05:4b:81:e1:9b:a6:71:0a:0d:6a:f5:d0:9a:a5:6e:
                    1a:55:ce:84:b8:62:e3:0c:ae:8e:07:04:1c:44:bf:
                    bb:1f:81:44:89:de:d4:14:ba:1d:82:bc:bb:a4:fb:
                    8b:5e:55:1d:16:56:2d:03:f4:f8:62:66:7b:4e:03:
                    76:50:12:47:8d:c5:27:c1:dd:4b:ff:2e:3c:0c:44:
                    98:3e:e8:e8:cf:3b:ef:76:43:97:74:a7:38:c9:e5:
                    4d:e9:4f:b8:bd:27:55:43:6c:b1:2e:35:2b:12:1a:
                    a8:f7:f0:0a:b9:58:23:c9:55:ef:9c:c4:e0:4c:1d:
                    03:4a:9e:6c:58:c7:df:59:02:7b:52:c6:18:9e:14:
                    cc:27:fb:7a:a8:a0:ef:a7:47:f8:ab:22:94:5a:3d:
                    cd:85:59:07:88:3d:53:45:e7:14:03:53:22:93:5c:
                    59:f5:14:fe:0e:8d:46:26:c6:90:c4:13:9e:10:e0:
                    9e:d9:8f:31:97:90:6a:ef:ec:78:45:20:21:c7:42:
                    f8:e4:91:81:bb:83:8f:3c:67:a2:37:68:be:ca:a7:
                    09:3c:1e:91:79:60:9a:83:ea:48:2a:db:a6:3a:9e:
                    ac:99:6a:6d:26:fe:02:59:1f:83:59:14:c9:0c:82:
                    6a:51:44:ce:18:19:b2:e6:13:a5:71:0f:63:4d:17:
                    db:bc:e4:4c:bb:21:73:6a:63:ec:f8:65:92:d0:60:
                    9a:bf:fb:f4:fd:ec:9f:e7:4e:87:12:ca:fb:75:46:
                    3b:03:09
                Exponent: 65537 (0x10001)
        X509v3 extensions:
            X509v3 Basic Constraints: 
                CA:FALSE
            Netscape Comment: 
                Easy-RSA Generated Certificate
            X509v3 Subject Key Identifier: 
                41:6B:31:D3:5B:0B:64:53:7C:EC:AA:07:B8:F8:74:62:AE:77:67:5F
            X509v3 Authority Key Identifier: 
                keyid:EF:38:8D:14:50:58:A7:5B:4D:9C:17:72:FC:DF:B9:AC:A7:51:B0:10
                DirName:/C=US/ST=CA/L=SanFrancisco/O=Pixglo, Inc./OU=VPN-CIE/CN=tunnel.pixglo.com/name=Bala Chandrasekaran/emailAddress=bala@pixglo.com
                serial:A6:DB:C6:83:80:E6:A0:79

            X509v3 Extended Key Usage: 
                TLS Web Client Authentication
            X509v3 Key Usage: 
                Digital Signature
    Signature Algorithm: sha1WithRSAEncryption
         28:1d:8f:b8:48:59:5a:9d:ac:e5:e0:2a:01:86:26:ef:a6:0f:
         48:f7:a0:73:f8:57:60:d9:1c:fe:12:b3:3e:5d:33:e4:a8:b5:
         4e:3e:60:80:10:65:95:61:33:b1:8b:68:bf:29:4a:89:49:a8:
         27:29:57:1e:d0:78:ba:94:b2:c7:ea:9f:3d:2a:7e:7d:5a:34:
         c8:3b:32:75:27:2e:7e:a7:58:ed:72:b3:04:37:d6:ba:c7:18:
         aa:e7:a3:b3:be:20:e4:b5:c1:88:35:b7:9f:9b:cc:df:f8:55:
         30:bf:4d:cc:ee:f4:8b:d4:c7:9b:2a:17:01:db:95:1d:89:fc:
         94:8c:96:58:9d:a4:8a:da:2f:1a:04:12:41:eb:6f:38:19:6d:
         37:90:29:2e:3f:44:89:b4:73:e6:41:fb:19:60:57:ce:bd:a8:
         ec:64:17:6d:3b:df:32:cf:3a:db:a7:6f:40:64:a6:79:33:1a:
         6e:5d:b8:d0:71:b7:cb:3f:0a:66:87:d3:d9:5a:c0:38:f0:c5:
         4e:21:d2:86:f2:4e:dc:b9:79:11:93:33:11:3b:ef:51:8f:92:
         92:a4:f3:ec:17:34:f5:10:9a:db:95:19:5d:87:10:58:9a:5a:
         9f:c3:b8:0e:48:47:d7:2d:e9:01:7b:dc:0d:89:21:d2:e4:94:
         79:bc:ff:8a:a9:f3:53:7b:75:7d:fe:53:c0:4a:ec:e2:46:e1:
         24:41:3c:e3:e1:24:95:94:b4:10:c5:91:01:3b:00:8a:76:0a:
         ff:20:82:e0:9b:c6:12:43:4d:89:01:96:53:98:2e:19:ee:b3:
         0a:f6:43:30:10:bf:4c:c4:15:95:52:e3:e5:88:fa:2b:fb:8e:
         03:a3:8d:13:f7:0e:98:ca:ec:a8:23:a6:de:7b:07:e5:1d:1f:
         c3:7f:b9:5d:43:4f:1f:7e:b5:19:82:d5:e8:9f:a6:c4:a9:6a:
         4f:2d:b8:cc:be:8f:2e:84:39:b0:51:76:b8:0b:2f:b0:0b:bd:
         18:e8:16:31:91:0e:39:67:fc:da:31:a0:32:50:33:e1:13:df:
         33:79:5e:a4:4a:33:ad:c8:87:db:bc:78:47:34:fa:05:2a:49:
         01:95:10:3f:51:c1:94:48:54:4c:6f:11:e2:52:50:16:0a:d4:
         03:bc:35:28:e8:ca:cd:3b:fb:1f:c7:a7:92:bf:99:8b:a6:90:
         b5:2e:a8:06:f0:c8:50:8a:4e:ad:5d:43:e9:ed:4f:71:51:0a:
         6d:f6:8d:f5:b6:78:7c:c2:d2:2e:9d:f1:a3:5e:0f:bf:7e:5d:
         dd:2e:8f:7e:5b:f1:d2:38:aa:c9:9a:9e:d0:8b:39:b5:31:2a:
         d5:f4:15:a2:d2:0b:05:5c
-----BEGIN CERTIFICATE-----
MIIHSDCCBTCgAwIBAgICAOswDQYJKoZIhvcNAQEFBQAwgbQxCzAJBgNVBAYTAlVT
MQswCQYDVQQIEwJDQTEVMBMGA1UEBxMMU2FuRnJhbmNpc2NvMRUwEwYDVQQKEwxQ
aXhnbG8sIEluYy4xEDAOBgNVBAsTB1ZQTi1DSUUxGjAYBgNVBAMTEXR1bm5lbC5w
aXhnbG8uY29tMRwwGgYDVQQpExNCYWxhIENoYW5kcmFzZWthcmFuMR4wHAYJKoZI
hvcNAQkBFg9iYWxhQHBpeGdsby5jb20wHhcNMTgwMjE0MDYyOTA2WhcNMjgwMjEy
MDYyOTA2WjCBqTELMAkGA1UEBhMCVVMxCzAJBgNVBAgTAkNBMRUwEwYDVQQHEwxT
YW5GcmFuY2lzY28xFTATBgNVBAoTDFBpeGdsbywgSW5jLjEQMA4GA1UECxMHVlBO
LUNJRTEPMA0GA1UEAxMGY2llMjM0MRwwGgYDVQQpExNCYWxhIENoYW5kcmFzZWth
cmFuMR4wHAYJKoZIhvcNAQkBFg9iYWxhQHBpeGdsby5jb20wggIiMA0GCSqGSIb3
DQEBAQUAA4ICDwAwggIKAoICAQD3J544Ic+wqgGmpS0tCeTOZn00yIT+Dj4vTS8h
IGk2POIOD9bAe8Af1iGxJ9+xLVdzDrSTXXxqaslYLsdl3ul5CvVZajC7f2pfbh7g
6lsXRZ3E6l8Xy5CXx/tnJXgV1IxXc413ckF1IjScfAvgsTyiAZNzzRfg8/8sJli3
xhq/W06fmygNEt7cl2QEy+mDnFxQf17zPBxDd1EzPH33N+3aVdud7YczXNfa7Spk
wLEV18E1YtaQz+kGjQ08F/8sfbCoZXlwYzD3jhu71hbd5UdNbb/eVoMVsymN7kTx
kOWfGwVLgeGbpnEKDWr10JqlbhpVzoS4YuMMro4HBBxEv7sfgUSJ3tQUuh2CvLuk
+4teVR0WVi0D9PhiZntOA3ZQEkeNxSfB3Uv/LjwMRJg+6OjPO+92Q5d0pzjJ5U3p
T7i9J1VDbLEuNSsSGqj38Aq5WCPJVe+cxOBMHQNKnmxYx99ZAntSxhieFMwn+3qo
oO+nR/irIpRaPc2FWQeIPVNF5xQDUyKTXFn1FP4OjUYmxpDEE54Q4J7ZjzGXkGrv
7HhFICHHQvjkkYG7g488Z6I3aL7Kpwk8HpF5YJqD6kgq26Y6nqyZam0m/gJZH4NZ
FMkMgmpRRM4YGbLmE6VxD2NNF9u85Ey7IXNqY+z4ZZLQYJq/+/T97J/nTocSyvt1
RjsDCQIDAQABo4IBazCCAWcwCQYDVR0TBAIwADAtBglghkgBhvhCAQ0EIBYeRWFz
eS1SU0EgR2VuZXJhdGVkIENlcnRpZmljYXRlMB0GA1UdDgQWBBRBazHTWwtkU3zs
qge4+HRirndnXzCB6QYDVR0jBIHhMIHegBTvOI0UUFinW02cF3L837msp1GwEKGB
uqSBtzCBtDELMAkGA1UEBhMCVVMxCzAJBgNVBAgTAkNBMRUwEwYDVQQHEwxTYW5G
cmFuY2lzY28xFTATBgNVBAoTDFBpeGdsbywgSW5jLjEQMA4GA1UECxMHVlBOLUNJ
RTEaMBgGA1UEAxMRdHVubmVsLnBpeGdsby5jb20xHDAaBgNVBCkTE0JhbGEgQ2hh
bmRyYXNla2FyYW4xHjAcBgkqhkiG9w0BCQEWD2JhbGFAcGl4Z2xvLmNvbYIJAKbb
xoOA5qB5MBMGA1UdJQQMMAoGCCsGAQUFBwMCMAsGA1UdDwQEAwIHgDANBgkqhkiG
9w0BAQUFAAOCAgEAKB2PuEhZWp2s5eAqAYYm76YPSPegc/hXYNkc/hKzPl0z5Ki1
Tj5ggBBllWEzsYtovylKiUmoJylXHtB4upSyx+qfPSp+fVo0yDsydScufqdY7XKz
BDfWuscYquejs74g5LXBiDW3n5vM3/hVML9NzO70i9THmyoXAduVHYn8lIyWWJ2k
itovGgQSQetvOBltN5ApLj9EibRz5kH7GWBXzr2o7GQXbTvfMs8626dvQGSmeTMa
bl240HG3yz8KZofT2VrAOPDFTiHShvJO3Ll5EZMzETvvUY+SkqTz7Bc09RCa25UZ
XYcQWJpan8O4DkhH1y3pAXvcDYkh0uSUebz/iqnzU3t1ff5TwErs4kbhJEE84+Ek
lZS0EMWRATsAinYK/yCC4JvGEkNNiQGWU5guGe6zCvZDMBC/TMQVlVLj5Yj6K/uO
A6ONE/cOmMrsqCOm3nsH5R0fw3+5XUNPH361GYLV6J+mxKlqTy24zL6PLoQ5sFF2
uAsvsAu9GOgWMZEOOWf82jGgMlAz4RPfM3lepEozrciH27x4RzT6BSpJAZUQP1HB
lEhUTG8R4lJQFgrUA7w1KOjKzTv7H8enkr+Zi6aQtS6oBvDIUIpOrV1D6e1PcVEK
bfaN9bZ4fMLSLp3xo14Pv35d3S6Pflvx0jiqyZqe0Is5tTEq1fQVotILBVw=
-----END CERTIFICATE-----
