Certificate:
    Data:
        Version: 3 (0x2)
        Serial Number: 277 (0x115)
    Signature Algorithm: sha1WithRSAEncryption
        Issuer: C=US, ST=CA, L=SanFrancisco, O=Pixglo, Inc., OU=VPN-CIE, CN=tunnel.pixglo.com/name=Bala Chandrasekaran/emailAddress=bala@pixglo.com
        Validity
            Not Before: Feb 14 06:29:41 2018 GMT
            Not After : Feb 12 06:29:41 2028 GMT
        Subject: C=US, ST=CA, L=SanFrancisco, O=Pixglo, Inc., OU=VPN-CIE, CN=cie276/name=Bala Chandrasekaran/emailAddress=bala@pixglo.com
        Subject Public Key Info:
            Public Key Algorithm: rsaEncryption
                Public-Key: (4096 bit)
                Modulus:
                    00:d5:38:e9:20:d3:7a:11:10:c4:31:e9:44:6b:e4:
                    3f:84:ba:65:c9:10:a0:56:59:bf:fa:2c:56:70:7f:
                    20:4a:8c:ea:6d:ff:7d:a9:78:f2:97:24:fa:02:57:
                    1a:66:b1:4f:aa:1b:92:0e:a3:e6:20:a1:da:c3:88:
                    43:1d:e6:97:74:76:7d:b6:3a:10:ac:71:ed:cf:36:
                    22:9b:c2:50:7b:17:19:e4:de:58:58:92:16:b9:b6:
                    c7:52:da:ce:32:08:0e:c0:1b:89:8d:f7:96:25:b3:
                    8d:81:e0:c1:95:d5:1c:4b:28:98:36:c7:bc:32:5d:
                    b0:76:56:c2:c8:93:48:5e:73:ff:76:b7:ef:8d:75:
                    a2:3b:65:a0:c1:20:9e:3d:0c:71:38:8f:1f:15:f5:
                    08:bd:74:91:2b:9c:e8:19:dc:29:72:40:77:8a:f4:
                    e8:e4:f4:4d:27:7c:ff:dd:20:37:d6:cd:66:0e:e5:
                    5d:76:8e:3a:c0:2a:0e:50:b6:ea:d3:0d:af:1e:ee:
                    dc:a8:ce:4c:60:38:0f:a7:85:9c:8b:21:73:92:88:
                    77:41:cc:fd:e6:e8:bd:c1:33:7e:45:4c:a5:88:63:
                    dc:64:18:4f:9a:43:c8:03:be:66:ca:03:3d:6f:c3:
                    9f:54:f9:7b:df:ca:30:84:93:14:dd:b9:dd:57:4d:
                    8d:0c:f2:26:c4:a8:28:6c:c4:8c:b7:a2:2c:7f:b3:
                    dc:dc:c5:cc:57:41:77:b8:32:2f:91:d7:b7:af:8d:
                    e9:8a:11:02:05:1b:50:c8:f3:d5:34:93:ba:39:37:
                    86:fd:4a:12:5e:c2:72:30:1a:ba:ea:0f:b9:f3:a7:
                    f6:5a:61:dc:ec:4d:f8:5a:53:65:86:3c:6f:67:ad:
                    97:c9:30:9a:12:ae:60:31:9b:a8:be:c8:90:d3:4c:
                    23:b9:ea:c9:ed:57:28:d5:bd:81:c7:ec:8f:81:ef:
                    0d:7b:0a:41:f2:9f:61:18:b0:0b:a4:1c:e1:bc:56:
                    6e:93:ec:52:04:06:5f:f1:c7:05:c4:00:81:6d:26:
                    44:6a:fa:1b:3d:2c:42:5e:6b:9d:c9:5f:01:3d:c4:
                    ed:99:b5:cc:db:e0:fe:4a:07:87:09:a0:15:d5:af:
                    b6:8c:f6:a8:a6:88:69:81:24:dc:56:de:04:a6:61:
                    ab:99:4e:e5:4c:03:c9:27:ac:62:e7:e9:15:64:b2:
                    93:bf:4c:a1:91:c6:b0:34:40:9e:e4:d9:1e:85:68:
                    ae:54:41:c8:bb:e9:7a:50:fb:c5:74:ee:ff:47:a8:
                    01:09:32:fa:86:74:aa:a0:28:c4:af:be:f5:57:a9:
                    6d:64:f2:ae:9b:97:ed:e4:96:96:ef:73:f0:01:bf:
                    da:1e:a9
                Exponent: 65537 (0x10001)
        X509v3 extensions:
            X509v3 Basic Constraints: 
                CA:FALSE
            Netscape Comment: 
                Easy-RSA Generated Certificate
            X509v3 Subject Key Identifier: 
                53:03:C9:EF:F8:BB:69:47:89:9A:CF:0B:CD:56:5A:33:F3:58:88:09
            X509v3 Authority Key Identifier: 
                keyid:EF:38:8D:14:50:58:A7:5B:4D:9C:17:72:FC:DF:B9:AC:A7:51:B0:10
                DirName:/C=US/ST=CA/L=SanFrancisco/O=Pixglo, Inc./OU=VPN-CIE/CN=tunnel.pixglo.com/name=Bala Chandrasekaran/emailAddress=bala@pixglo.com
                serial:A6:DB:C6:83:80:E6:A0:79

            X509v3 Extended Key Usage: 
                TLS Web Client Authentication
            X509v3 Key Usage: 
                Digital Signature
    Signature Algorithm: sha1WithRSAEncryption
         9d:0a:13:1c:01:c4:81:1a:1d:b5:21:68:40:dc:51:df:fe:87:
         86:0f:a6:9c:ac:0c:e6:72:04:30:ed:31:f3:47:96:b3:9d:43:
         87:59:61:d7:d3:ed:ce:9f:d2:22:d1:17:b4:e9:85:08:42:f5:
         7c:00:aa:b6:0d:e0:dd:c5:8a:47:fd:e7:fa:34:e4:99:3c:74:
         36:a2:be:b2:df:33:5f:ed:8c:dc:97:32:3c:1d:b5:51:5c:79:
         d3:c0:fb:5d:f2:6c:75:5b:88:01:cd:bc:33:5c:35:5f:f2:f4:
         1e:7d:8a:b3:32:e2:be:f1:5e:e8:a9:38:0d:87:87:07:c0:3a:
         15:5d:9e:35:24:52:7d:c6:02:b4:b4:27:75:71:1a:e2:40:b0:
         15:e4:3b:5a:03:ab:43:20:20:33:01:a9:95:56:02:bd:bb:64:
         e5:2e:d8:3c:01:c4:b0:0e:24:e5:6e:43:a2:3b:9b:27:8a:eb:
         3b:42:30:0d:b8:ad:fe:9a:72:7e:db:6e:bf:25:2b:79:78:49:
         c6:8f:4d:b3:33:2e:e0:e3:66:2c:2a:d5:4a:a8:ea:c2:b1:83:
         fa:e7:40:dd:c6:a9:bb:e2:19:44:fa:8b:53:74:df:e7:81:a0:
         4e:bc:b6:fd:7c:76:f6:fa:75:4b:f9:e0:b1:88:9a:d6:40:80:
         1d:d6:d4:66:e7:55:fe:55:c3:65:e8:d9:af:b7:83:68:59:31:
         b6:2c:45:5b:8a:00:b9:57:c4:3f:30:97:e2:2e:75:b3:b1:8b:
         4f:d7:c2:07:0a:3a:3b:13:5e:d5:72:4e:91:01:2f:c7:bd:40:
         7f:df:f2:09:51:a1:ae:9c:c4:96:0a:39:cd:1b:a2:bd:21:5a:
         07:8f:1e:29:67:f6:81:ab:e2:5b:44:23:a3:f5:c7:c9:13:ec:
         2e:c8:7f:21:39:ac:68:cd:af:3f:c5:b3:ba:ce:42:75:80:82:
         21:06:13:04:f4:70:1e:55:1a:a9:60:29:f8:a3:35:d3:c8:27:
         f2:dc:77:f2:fc:7f:00:90:69:98:0f:4e:1e:3e:0b:81:f5:8a:
         d0:7d:f5:f3:c8:5e:b9:67:c0:87:54:e5:52:82:d9:7d:0e:1f:
         04:8d:68:c9:a8:83:ad:00:63:2d:fa:56:d2:e6:72:63:c4:1a:
         9f:c9:8d:3f:17:d1:60:f2:dd:a6:81:30:71:21:9c:12:bc:c5:
         2d:2f:24:59:9a:48:14:29:e7:28:6a:e9:ae:f7:6e:33:9b:5f:
         b5:c7:6a:19:d6:2f:52:8d:3c:62:45:13:eb:76:a5:ca:d3:88:
         ea:df:80:58:87:0a:4d:be:d9:40:48:1c:ec:48:35:49:a6:93:
         a5:40:fc:88:40:08:47:42
-----BEGIN CERTIFICATE-----
MIIHSDCCBTCgAwIBAgICARUwDQYJKoZIhvcNAQEFBQAwgbQxCzAJBgNVBAYTAlVT
MQswCQYDVQQIEwJDQTEVMBMGA1UEBxMMU2FuRnJhbmNpc2NvMRUwEwYDVQQKEwxQ
aXhnbG8sIEluYy4xEDAOBgNVBAsTB1ZQTi1DSUUxGjAYBgNVBAMTEXR1bm5lbC5w
aXhnbG8uY29tMRwwGgYDVQQpExNCYWxhIENoYW5kcmFzZWthcmFuMR4wHAYJKoZI
hvcNAQkBFg9iYWxhQHBpeGdsby5jb20wHhcNMTgwMjE0MDYyOTQxWhcNMjgwMjEy
MDYyOTQxWjCBqTELMAkGA1UEBhMCVVMxCzAJBgNVBAgTAkNBMRUwEwYDVQQHEwxT
YW5GcmFuY2lzY28xFTATBgNVBAoTDFBpeGdsbywgSW5jLjEQMA4GA1UECxMHVlBO
LUNJRTEPMA0GA1UEAxMGY2llMjc2MRwwGgYDVQQpExNCYWxhIENoYW5kcmFzZWth
cmFuMR4wHAYJKoZIhvcNAQkBFg9iYWxhQHBpeGdsby5jb20wggIiMA0GCSqGSIb3
DQEBAQUAA4ICDwAwggIKAoICAQDVOOkg03oREMQx6URr5D+EumXJEKBWWb/6LFZw
fyBKjOpt/32pePKXJPoCVxpmsU+qG5IOo+YgodrDiEMd5pd0dn22OhCsce3PNiKb
wlB7Fxnk3lhYkha5tsdS2s4yCA7AG4mN95Yls42B4MGV1RxLKJg2x7wyXbB2VsLI
k0hec/92t++NdaI7ZaDBIJ49DHE4jx8V9Qi9dJErnOgZ3ClyQHeK9Ojk9E0nfP/d
IDfWzWYO5V12jjrAKg5QturTDa8e7tyozkxgOA+nhZyLIXOSiHdBzP3m6L3BM35F
TKWIY9xkGE+aQ8gDvmbKAz1vw59U+XvfyjCEkxTdud1XTY0M8ibEqChsxIy3oix/
s9zcxcxXQXe4Mi+R17evjemKEQIFG1DI89U0k7o5N4b9ShJewnIwGrrqD7nzp/Za
YdzsTfhaU2WGPG9nrZfJMJoSrmAxm6i+yJDTTCO56sntVyjVvYHH7I+B7w17CkHy
n2EYsAukHOG8Vm6T7FIEBl/xxwXEAIFtJkRq+hs9LEJea53JXwE9xO2Ztczb4P5K
B4cJoBXVr7aM9qimiGmBJNxW3gSmYauZTuVMA8knrGLn6RVkspO/TKGRxrA0QJ7k
2R6FaK5UQci76XpQ+8V07v9HqAEJMvqGdKqgKMSvvvVXqW1k8q6bl+3klpbvc/AB
v9oeqQIDAQABo4IBazCCAWcwCQYDVR0TBAIwADAtBglghkgBhvhCAQ0EIBYeRWFz
eS1SU0EgR2VuZXJhdGVkIENlcnRpZmljYXRlMB0GA1UdDgQWBBRTA8nv+LtpR4ma
zwvNVloz81iICTCB6QYDVR0jBIHhMIHegBTvOI0UUFinW02cF3L837msp1GwEKGB
uqSBtzCBtDELMAkGA1UEBhMCVVMxCzAJBgNVBAgTAkNBMRUwEwYDVQQHEwxTYW5G
cmFuY2lzY28xFTATBgNVBAoTDFBpeGdsbywgSW5jLjEQMA4GA1UECxMHVlBOLUNJ
RTEaMBgGA1UEAxMRdHVubmVsLnBpeGdsby5jb20xHDAaBgNVBCkTE0JhbGEgQ2hh
bmRyYXNla2FyYW4xHjAcBgkqhkiG9w0BCQEWD2JhbGFAcGl4Z2xvLmNvbYIJAKbb
xoOA5qB5MBMGA1UdJQQMMAoGCCsGAQUFBwMCMAsGA1UdDwQEAwIHgDANBgkqhkiG
9w0BAQUFAAOCAgEAnQoTHAHEgRodtSFoQNxR3/6Hhg+mnKwM5nIEMO0x80eWs51D
h1lh19Ptzp/SItEXtOmFCEL1fACqtg3g3cWKR/3n+jTkmTx0NqK+st8zX+2M3Jcy
PB21UVx508D7XfJsdVuIAc28M1w1X/L0Hn2KszLivvFe6Kk4DYeHB8A6FV2eNSRS
fcYCtLQndXEa4kCwFeQ7WgOrQyAgMwGplVYCvbtk5S7YPAHEsA4k5W5DojubJ4rr
O0IwDbit/ppyfttuvyUreXhJxo9NszMu4ONmLCrVSqjqwrGD+udA3capu+IZRPqL
U3Tf54GgTry2/Xx29vp1S/ngsYia1kCAHdbUZudV/lXDZejZr7eDaFkxtixFW4oA
uVfEPzCX4i51s7GLT9fCBwo6OxNe1XJOkQEvx71Af9/yCVGhrpzElgo5zRuivSFa
B48eKWf2gaviW0Qjo/XHyRPsLsh/ITmsaM2vP8Wzus5CdYCCIQYTBPRwHlUaqWAp
+KM108gn8tx38vx/AJBpmA9OHj4LgfWK0H3188heuWfAh1TlUoLZfQ4fBI1oyaiD
rQBjLfpW0uZyY8Qan8mNPxfRYPLdpoEwcSGcErzFLS8kWZpIFCnnKGrprvduM5tf
tcdqGdYvUo08YkUT63alytOI6t+AWIcKTb7ZQEgc7Eg1SaaTpUD8iEAIR0I=
-----END CERTIFICATE-----
