Certificate:
    Data:
        Version: 3 (0x2)
        Serial Number: 212 (0xd4)
    Signature Algorithm: sha1WithRSAEncryption
        Issuer: C=US, ST=CA, L=SanFrancisco, O=Pixglo, Inc., OU=VPN-CIE, CN=tunnel.pixglo.com/name=Bala Chandrasekaran/emailAddress=bala@pixglo.com
        Validity
            Not Before: Feb 14 06:28:47 2018 GMT
            Not After : Feb 12 06:28:47 2028 GMT
        Subject: C=US, ST=CA, L=SanFrancisco, O=Pixglo, Inc., OU=VPN-CIE, CN=cie211/name=Bala Chandrasekaran/emailAddress=bala@pixglo.com
        Subject Public Key Info:
            Public Key Algorithm: rsaEncryption
                Public-Key: (4096 bit)
                Modulus:
                    00:c0:01:e5:9a:8a:6f:c8:d9:b5:81:46:e0:01:05:
                    4f:2b:15:6d:42:ec:0e:52:e1:bb:2f:84:11:91:81:
                    ec:47:68:55:60:77:47:ab:1c:5b:b2:ed:f2:fb:82:
                    d3:03:88:db:67:b3:8b:5f:cf:fa:c3:a9:99:b7:3b:
                    f8:a3:73:2b:0f:12:ec:97:46:eb:f2:7e:d2:d1:02:
                    c6:6a:69:06:99:9b:de:f7:53:f3:2a:81:3b:f7:90:
                    a8:e8:7f:b8:75:a2:f4:4e:32:c0:4f:9b:81:86:90:
                    23:fa:26:c5:f5:88:2c:8a:26:4f:89:8c:ca:ba:67:
                    62:bb:27:7c:91:49:c5:5c:d7:ff:36:df:ce:62:27:
                    da:c2:5d:dd:4c:fc:ca:08:6c:35:95:0e:a1:32:46:
                    6e:2a:f2:12:2f:f0:3a:03:89:12:a1:ff:6a:07:27:
                    1e:aa:ca:92:36:7b:df:cf:da:77:51:40:6f:2e:2d:
                    c0:26:a7:7c:ff:0e:f1:b1:69:ee:37:a9:cf:7f:c5:
                    7d:61:4e:97:cf:a7:68:cf:ba:31:f9:a2:1d:02:5b:
                    47:2f:57:ea:73:4d:dc:e6:a4:9d:7f:8a:ce:30:f5:
                    52:12:d8:b8:81:a1:ad:24:59:b9:29:3c:e3:15:43:
                    f9:c3:11:05:0d:60:fd:02:a8:02:b3:d7:21:3b:08:
                    23:d0:87:4f:10:b4:c1:7e:a4:96:40:e3:7d:db:8e:
                    25:07:5b:19:14:94:cd:51:38:3c:40:c7:73:83:9e:
                    f2:34:f1:04:b5:2c:f5:d9:19:0e:11:96:86:6a:62:
                    1b:47:fd:56:b8:f1:1d:43:8b:8f:fc:ce:f0:15:42:
                    14:29:e0:66:66:41:ac:99:bc:fe:b1:01:36:dd:8c:
                    63:f5:74:eb:bd:43:57:da:fa:d8:42:df:c1:00:79:
                    17:39:a0:67:f0:d7:97:ef:37:e9:7f:6f:d4:e0:ff:
                    ec:eb:ec:57:b0:45:50:34:6b:87:91:ca:4f:1e:21:
                    b1:89:87:db:7e:bc:0a:68:d1:b8:3e:da:3e:99:47:
                    1b:da:6d:2f:e3:07:30:4a:f1:d6:1c:70:17:4d:b0:
                    8c:66:bb:70:be:02:41:ae:f7:f9:66:f5:37:eb:e5:
                    c1:32:64:35:cf:43:cc:eb:f1:7a:f0:42:4d:ab:29:
                    8f:0a:71:90:51:4c:51:dd:67:f8:64:2e:92:57:4f:
                    a3:da:76:1d:56:53:8f:53:c5:0b:f8:62:eb:76:f6:
                    77:1d:2e:d3:24:69:a6:7c:34:2c:0e:75:b3:bb:ce:
                    ca:e7:c9:fe:14:d3:06:6b:e5:8f:1e:ac:9f:ca:b4:
                    52:93:06:b2:a2:30:50:d6:73:17:01:3f:34:37:69:
                    72:69:05
                Exponent: 65537 (0x10001)
        X509v3 extensions:
            X509v3 Basic Constraints: 
                CA:FALSE
            Netscape Comment: 
                Easy-RSA Generated Certificate
            X509v3 Subject Key Identifier: 
                55:37:64:4E:0E:CB:A2:91:2C:3F:A8:F2:85:B2:51:98:9D:11:3F:CC
            X509v3 Authority Key Identifier: 
                keyid:EF:38:8D:14:50:58:A7:5B:4D:9C:17:72:FC:DF:B9:AC:A7:51:B0:10
                DirName:/C=US/ST=CA/L=SanFrancisco/O=Pixglo, Inc./OU=VPN-CIE/CN=tunnel.pixglo.com/name=Bala Chandrasekaran/emailAddress=bala@pixglo.com
                serial:A6:DB:C6:83:80:E6:A0:79

            X509v3 Extended Key Usage: 
                TLS Web Client Authentication
            X509v3 Key Usage: 
                Digital Signature
    Signature Algorithm: sha1WithRSAEncryption
         d0:2f:24:47:90:0c:a4:df:ed:f7:52:45:43:be:d7:18:9c:17:
         16:4b:ba:ce:e6:cd:a6:fe:f0:fa:15:98:e1:41:94:1e:84:ac:
         16:ac:41:e8:5f:82:5b:45:5f:93:96:a9:44:7b:6d:94:35:f3:
         68:d5:4c:3f:cc:81:86:8f:a8:45:e5:7c:a0:70:3d:19:07:9b:
         61:d3:f5:fe:0e:49:bc:91:57:18:1e:34:b7:46:df:70:f7:60:
         52:27:2d:75:8e:64:f6:c5:1b:ce:10:d9:8f:b1:30:68:0e:3f:
         30:a9:38:86:3a:79:67:20:49:cd:b6:5d:aa:dd:71:80:61:3b:
         9b:1c:02:e6:0e:ae:10:38:d8:25:5a:9c:86:b0:08:c3:cf:db:
         53:6f:16:8e:15:25:c1:f8:a8:3e:d6:57:e1:02:df:79:da:b0:
         29:40:bd:d3:21:12:f3:73:f7:a2:b8:6e:66:c2:90:a5:8a:d6:
         06:ce:af:c8:c4:09:02:ea:8c:f9:c8:af:3b:02:dd:bb:f6:9a:
         cd:e2:2a:56:ca:73:16:77:9c:5d:f1:9b:35:40:2e:95:9d:2a:
         1a:47:e2:1e:0a:e6:f5:46:bd:97:8d:8e:65:63:1f:e6:36:43:
         f4:bf:60:ca:c3:b3:98:c6:a1:24:71:c0:fa:a7:f5:27:65:3f:
         4f:f0:47:6a:81:eb:74:a8:28:83:8e:9b:d5:86:b6:e1:8f:a9:
         f3:4e:29:34:29:0c:1d:43:1d:2f:2c:94:13:6a:ed:2d:3e:62:
         90:76:e2:d5:63:5b:a4:be:13:3e:7f:f9:78:1f:e4:ef:5a:39:
         f7:de:6f:9a:e7:52:59:63:d3:3b:f9:5e:b5:80:9b:31:9a:e0:
         5d:66:f8:08:a0:83:c7:69:c6:e9:ac:6e:31:f9:c6:d8:b7:78:
         35:cf:80:17:68:c9:54:d5:6f:1d:d9:b0:91:31:f0:1b:40:05:
         d1:7b:95:f5:11:21:08:f5:fb:9c:32:4e:5d:d8:98:32:f2:b2:
         8a:70:68:fc:75:eb:c0:ac:28:36:20:8a:2b:73:85:e3:1e:75:
         d2:f0:c7:4c:92:67:db:03:e6:df:82:9c:e7:17:46:64:7f:25:
         a2:0b:23:80:1f:d8:9c:c2:85:0e:da:f0:c3:96:40:87:94:23:
         5c:77:75:c6:6b:72:3b:d6:41:60:ba:53:6e:d5:5e:68:2d:e5:
         dd:2b:c1:05:06:1f:dd:69:1e:93:96:e2:79:28:ab:31:19:0b:
         e0:b5:8d:ce:7d:d4:6e:57:e7:b3:56:74:c3:5e:c0:c5:e0:1d:
         60:45:f5:4f:d8:ba:72:b3:c7:25:9c:e5:34:ac:39:7f:1e:b9:
         4d:1d:18:97:dc:4c:1c:a4
-----BEGIN CERTIFICATE-----
MIIHSDCCBTCgAwIBAgICANQwDQYJKoZIhvcNAQEFBQAwgbQxCzAJBgNVBAYTAlVT
MQswCQYDVQQIEwJDQTEVMBMGA1UEBxMMU2FuRnJhbmNpc2NvMRUwEwYDVQQKEwxQ
aXhnbG8sIEluYy4xEDAOBgNVBAsTB1ZQTi1DSUUxGjAYBgNVBAMTEXR1bm5lbC5w
aXhnbG8uY29tMRwwGgYDVQQpExNCYWxhIENoYW5kcmFzZWthcmFuMR4wHAYJKoZI
hvcNAQkBFg9iYWxhQHBpeGdsby5jb20wHhcNMTgwMjE0MDYyODQ3WhcNMjgwMjEy
MDYyODQ3WjCBqTELMAkGA1UEBhMCVVMxCzAJBgNVBAgTAkNBMRUwEwYDVQQHEwxT
YW5GcmFuY2lzY28xFTATBgNVBAoTDFBpeGdsbywgSW5jLjEQMA4GA1UECxMHVlBO
LUNJRTEPMA0GA1UEAxMGY2llMjExMRwwGgYDVQQpExNCYWxhIENoYW5kcmFzZWth
cmFuMR4wHAYJKoZIhvcNAQkBFg9iYWxhQHBpeGdsby5jb20wggIiMA0GCSqGSIb3
DQEBAQUAA4ICDwAwggIKAoICAQDAAeWaim/I2bWBRuABBU8rFW1C7A5S4bsvhBGR
gexHaFVgd0erHFuy7fL7gtMDiNtns4tfz/rDqZm3O/ijcysPEuyXRuvyftLRAsZq
aQaZm973U/MqgTv3kKjof7h1ovROMsBPm4GGkCP6JsX1iCyKJk+JjMq6Z2K7J3yR
ScVc1/82385iJ9rCXd1M/MoIbDWVDqEyRm4q8hIv8DoDiRKh/2oHJx6qypI2e9/P
2ndRQG8uLcAmp3z/DvGxae43qc9/xX1hTpfPp2jPujH5oh0CW0cvV+pzTdzmpJ1/
is4w9VIS2LiBoa0kWbkpPOMVQ/nDEQUNYP0CqAKz1yE7CCPQh08QtMF+pJZA433b
jiUHWxkUlM1RODxAx3ODnvI08QS1LPXZGQ4RloZqYhtH/Va48R1Di4/8zvAVQhQp
4GZmQayZvP6xATbdjGP1dOu9Q1fa+thC38EAeRc5oGfw15fvN+l/b9Tg/+zr7Few
RVA0a4eRyk8eIbGJh9t+vApo0bg+2j6ZRxvabS/jBzBK8dYccBdNsIxmu3C+AkGu
9/lm9Tfr5cEyZDXPQ8zr8XrwQk2rKY8KcZBRTFHdZ/hkLpJXT6Padh1WU49TxQv4
Yut29ncdLtMkaaZ8NCwOdbO7zsrnyf4U0wZr5Y8erJ/KtFKTBrKiMFDWcxcBPzQ3
aXJpBQIDAQABo4IBazCCAWcwCQYDVR0TBAIwADAtBglghkgBhvhCAQ0EIBYeRWFz
eS1SU0EgR2VuZXJhdGVkIENlcnRpZmljYXRlMB0GA1UdDgQWBBRVN2RODsuikSw/
qPKFslGYnRE/zDCB6QYDVR0jBIHhMIHegBTvOI0UUFinW02cF3L837msp1GwEKGB
uqSBtzCBtDELMAkGA1UEBhMCVVMxCzAJBgNVBAgTAkNBMRUwEwYDVQQHEwxTYW5G
cmFuY2lzY28xFTATBgNVBAoTDFBpeGdsbywgSW5jLjEQMA4GA1UECxMHVlBOLUNJ
RTEaMBgGA1UEAxMRdHVubmVsLnBpeGdsby5jb20xHDAaBgNVBCkTE0JhbGEgQ2hh
bmRyYXNla2FyYW4xHjAcBgkqhkiG9w0BCQEWD2JhbGFAcGl4Z2xvLmNvbYIJAKbb
xoOA5qB5MBMGA1UdJQQMMAoGCCsGAQUFBwMCMAsGA1UdDwQEAwIHgDANBgkqhkiG
9w0BAQUFAAOCAgEA0C8kR5AMpN/t91JFQ77XGJwXFku6zubNpv7w+hWY4UGUHoSs
FqxB6F+CW0Vfk5apRHttlDXzaNVMP8yBho+oReV8oHA9GQebYdP1/g5JvJFXGB40
t0bfcPdgUictdY5k9sUbzhDZj7EwaA4/MKk4hjp5ZyBJzbZdqt1xgGE7mxwC5g6u
EDjYJVqchrAIw8/bU28WjhUlwfioPtZX4QLfedqwKUC90yES83P3orhuZsKQpYrW
Bs6vyMQJAuqM+civOwLdu/aazeIqVspzFnecXfGbNUAulZ0qGkfiHgrm9Ua9l42O
ZWMf5jZD9L9gysOzmMahJHHA+qf1J2U/T/BHaoHrdKgog46b1Ya24Y+p804pNCkM
HUMdLyyUE2rtLT5ikHbi1WNbpL4TPn/5eB/k71o5995vmudSWWPTO/letYCbMZrg
XWb4CKCDx2nG6axuMfnG2Ld4Nc+AF2jJVNVvHdmwkTHwG0AF0XuV9REhCPX7nDJO
XdiYMvKyinBo/HXrwKwoNiCKK3OF4x510vDHTJJn2wPm34Kc5xdGZH8logsjgB/Y
nMKFDtrww5ZAh5QjXHd1xmtyO9ZBYLpTbtVeaC3l3SvBBQYf3Wkek5bieSirMRkL
4LWNzn3Ublfns1Z0w17AxeAdYEX1T9i6crPHJZzlNKw5fx65TR0Yl9xMHKQ=
-----END CERTIFICATE-----
