Certificate:
    Data:
        Version: 3 (0x2)
        Serial Number: 305 (0x131)
    Signature Algorithm: sha1WithRSAEncryption
        Issuer: C=US, ST=CA, L=SanFrancisco, O=Pixglo, Inc., OU=VPN-CIE, CN=tunnel.pixglo.com/name=Bala Chandrasekaran/emailAddress=bala@pixglo.com
        Validity
            Not Before: Feb 14 06:30:03 2018 GMT
            Not After : Feb 12 06:30:03 2028 GMT
        Subject: C=US, ST=CA, L=SanFrancisco, O=Pixglo, Inc., OU=VPN-CIE, CN=cie304/name=Bala Chandrasekaran/emailAddress=bala@pixglo.com
        Subject Public Key Info:
            Public Key Algorithm: rsaEncryption
                Public-Key: (4096 bit)
                Modulus:
                    00:dd:98:34:70:03:fb:41:65:b0:ae:ed:74:34:8c:
                    ed:9f:8a:76:d1:be:21:6e:aa:56:25:7c:16:0c:50:
                    e2:10:9d:2a:ef:60:30:f6:85:37:5a:c6:d3:91:cb:
                    02:ed:ba:83:5d:50:0c:07:f1:39:4c:37:9d:bb:07:
                    04:6b:a7:a5:5c:a0:80:17:24:14:49:fb:ec:d2:56:
                    ed:9c:e5:35:3d:eb:ec:80:e9:58:f5:34:be:cb:17:
                    47:64:65:a2:23:b4:28:d7:eb:12:a0:17:37:2f:2a:
                    58:94:28:12:fd:08:bb:98:9b:49:95:7b:8d:1c:4d:
                    49:53:59:f8:bd:14:e7:57:39:88:18:c5:75:83:c0:
                    38:81:39:f7:4c:19:14:a1:c9:f1:a9:5d:74:da:f6:
                    99:6b:01:ae:f8:da:1e:e8:47:74:78:d6:dc:09:3a:
                    b5:8b:59:1e:fa:ad:5c:64:cd:d0:f0:fb:4f:bf:d9:
                    f3:b5:14:65:cf:7a:5f:2f:b3:51:0a:9b:ed:32:65:
                    5f:06:e2:a7:8d:9a:89:78:d5:2c:7a:b0:29:88:5b:
                    9c:2c:b2:2e:65:59:47:e0:6a:e3:24:4b:9b:fe:50:
                    35:55:06:3f:92:d8:89:dc:41:b4:25:b3:69:2c:b8:
                    9d:94:6e:ff:2c:96:7e:4c:d7:0b:99:ff:24:b0:e6:
                    94:6b:5b:1a:7f:0a:2e:4c:df:49:bb:69:48:ca:b4:
                    7d:a4:9c:83:4f:db:dd:a4:84:c9:c0:7f:cb:24:7a:
                    7d:76:f4:01:c1:d8:46:69:6f:a0:bf:7d:af:a5:5a:
                    28:80:21:58:ac:21:3c:44:59:40:8d:68:f5:80:12:
                    ec:f4:3a:94:40:0c:4d:a1:46:1b:f8:4d:ce:84:10:
                    e8:c7:0e:ba:9d:59:b7:e9:5e:ee:7c:cd:73:76:91:
                    3a:94:69:48:39:65:47:0e:50:c5:d7:9c:db:91:f1:
                    aa:f7:43:19:09:e5:58:6d:51:e6:86:7b:fc:d2:99:
                    dc:10:90:b3:08:36:57:8a:f7:2b:16:52:40:b8:88:
                    da:2c:b0:0f:d5:2e:7f:50:a2:f8:40:ec:a9:a6:94:
                    2c:ec:f1:8f:50:31:ff:b7:25:e6:f3:34:1f:15:d6:
                    fa:89:51:4b:50:87:09:01:21:51:7b:bd:21:16:bc:
                    e1:bb:ff:9a:5d:bd:c7:b6:41:c0:05:50:21:8c:de:
                    07:c5:15:6e:77:a8:7e:8b:b7:e1:e7:42:68:81:29:
                    ee:f9:73:11:19:a6:27:8d:19:74:f6:da:df:49:ac:
                    92:cc:25:39:01:d0:6f:8f:b7:25:7a:94:bd:0b:19:
                    2d:ff:b6:ef:67:50:39:58:33:dc:d9:2c:9f:21:74:
                    f2:60:55
                Exponent: 65537 (0x10001)
        X509v3 extensions:
            X509v3 Basic Constraints: 
                CA:FALSE
            Netscape Comment: 
                Easy-RSA Generated Certificate
            X509v3 Subject Key Identifier: 
                6C:48:75:6B:D5:9C:59:11:A0:8C:B6:D4:C7:41:EE:F4:35:00:EE:A1
            X509v3 Authority Key Identifier: 
                keyid:EF:38:8D:14:50:58:A7:5B:4D:9C:17:72:FC:DF:B9:AC:A7:51:B0:10
                DirName:/C=US/ST=CA/L=SanFrancisco/O=Pixglo, Inc./OU=VPN-CIE/CN=tunnel.pixglo.com/name=Bala Chandrasekaran/emailAddress=bala@pixglo.com
                serial:A6:DB:C6:83:80:E6:A0:79

            X509v3 Extended Key Usage: 
                TLS Web Client Authentication
            X509v3 Key Usage: 
                Digital Signature
    Signature Algorithm: sha1WithRSAEncryption
         8e:9e:df:4d:8e:64:9f:86:21:69:43:a0:18:80:b5:e1:92:13:
         ea:3c:f3:c2:da:12:28:b4:b3:f5:83:e7:8e:de:2f:f3:f0:14:
         c4:43:5c:28:f9:fb:db:e4:22:f2:de:12:8c:de:d5:6e:f5:9c:
         9c:54:a0:23:13:3c:3b:36:5a:0a:35:e7:d1:e6:59:f0:d8:fe:
         1a:e4:4a:4d:36:2c:7b:bd:5d:44:cc:13:c8:1a:cd:ff:3c:27:
         bc:e1:67:c8:84:27:88:0d:db:b0:86:75:d8:cb:e2:35:ed:75:
         b6:e5:de:96:93:a0:6a:9e:8a:13:03:66:8d:68:78:3b:ee:cc:
         cd:58:7b:cc:fa:b8:63:5b:e6:b4:3a:fd:0a:c0:08:10:51:2f:
         9f:da:db:3d:34:eb:80:dc:d7:3d:e6:67:9a:94:84:8b:2e:d8:
         dc:6e:74:7d:e5:ec:61:8e:ac:a1:fb:17:f9:d0:66:84:86:1e:
         4b:4d:64:ec:54:db:ea:33:fb:fc:9f:de:66:55:7f:71:aa:ed:
         62:07:74:2a:63:99:b5:9a:5e:ec:18:07:2a:0e:15:cc:df:a3:
         47:9b:13:49:de:b0:96:8b:03:e6:5b:76:58:5f:46:e9:fa:45:
         21:c9:a7:be:79:51:d1:50:28:0f:64:94:48:27:e6:3d:a2:f2:
         62:30:f1:62:1b:44:8c:5b:49:b3:7f:76:3a:84:4d:4f:b9:ce:
         6e:17:6c:37:06:c9:8d:f5:4d:0d:d0:70:42:91:ec:66:a3:00:
         39:37:01:14:29:6e:c2:2e:7a:4e:49:a8:60:d8:f7:6b:96:60:
         b8:5d:0c:93:17:ed:d6:6d:db:86:d3:22:68:69:c7:dd:e0:c3:
         d7:2e:72:d7:6b:fa:4b:1b:4e:68:06:0d:1c:1b:4a:ef:84:02:
         fe:18:54:fe:ae:6d:d2:bb:37:e4:13:73:24:ca:30:cb:68:9e:
         03:df:f5:af:7c:8b:13:0d:98:f1:13:60:a2:67:1e:5e:40:8d:
         86:19:f3:77:02:ef:71:2c:93:47:b5:f0:b6:76:41:af:c4:83:
         31:70:43:42:64:41:f6:27:e7:ce:a7:b1:5b:23:99:e8:17:b5:
         29:99:de:8c:20:b5:98:60:54:eb:7a:02:c4:3c:32:52:bb:bd:
         37:bb:09:c8:68:21:28:6f:92:66:a5:c0:c9:1f:0a:6f:25:d5:
         15:93:46:e6:94:53:4c:6c:fb:a7:4f:64:d8:56:1a:ab:54:fd:
         14:10:ce:c8:bc:66:5e:11:85:1f:1d:25:05:86:0e:9d:dc:da:
         bd:87:44:37:02:56:fa:cc:ed:99:8e:f6:08:ac:9d:5c:0d:8d:
         2a:86:32:4e:84:22:28:55
-----BEGIN CERTIFICATE-----
MIIHSDCCBTCgAwIBAgICATEwDQYJKoZIhvcNAQEFBQAwgbQxCzAJBgNVBAYTAlVT
MQswCQYDVQQIEwJDQTEVMBMGA1UEBxMMU2FuRnJhbmNpc2NvMRUwEwYDVQQKEwxQ
aXhnbG8sIEluYy4xEDAOBgNVBAsTB1ZQTi1DSUUxGjAYBgNVBAMTEXR1bm5lbC5w
aXhnbG8uY29tMRwwGgYDVQQpExNCYWxhIENoYW5kcmFzZWthcmFuMR4wHAYJKoZI
hvcNAQkBFg9iYWxhQHBpeGdsby5jb20wHhcNMTgwMjE0MDYzMDAzWhcNMjgwMjEy
MDYzMDAzWjCBqTELMAkGA1UEBhMCVVMxCzAJBgNVBAgTAkNBMRUwEwYDVQQHEwxT
YW5GcmFuY2lzY28xFTATBgNVBAoTDFBpeGdsbywgSW5jLjEQMA4GA1UECxMHVlBO
LUNJRTEPMA0GA1UEAxMGY2llMzA0MRwwGgYDVQQpExNCYWxhIENoYW5kcmFzZWth
cmFuMR4wHAYJKoZIhvcNAQkBFg9iYWxhQHBpeGdsby5jb20wggIiMA0GCSqGSIb3
DQEBAQUAA4ICDwAwggIKAoICAQDdmDRwA/tBZbCu7XQ0jO2finbRviFuqlYlfBYM
UOIQnSrvYDD2hTdaxtORywLtuoNdUAwH8TlMN527BwRrp6VcoIAXJBRJ++zSVu2c
5TU96+yA6Vj1NL7LF0dkZaIjtCjX6xKgFzcvKliUKBL9CLuYm0mVe40cTUlTWfi9
FOdXOYgYxXWDwDiBOfdMGRShyfGpXXTa9plrAa742h7oR3R41twJOrWLWR76rVxk
zdDw+0+/2fO1FGXPel8vs1EKm+0yZV8G4qeNmol41Sx6sCmIW5wssi5lWUfgauMk
S5v+UDVVBj+S2IncQbQls2ksuJ2Ubv8sln5M1wuZ/ySw5pRrWxp/Ci5M30m7aUjK
tH2knINP292khMnAf8sken129AHB2EZpb6C/fa+lWiiAIVisITxEWUCNaPWAEuz0
OpRADE2hRhv4Tc6EEOjHDrqdWbfpXu58zXN2kTqUaUg5ZUcOUMXXnNuR8ar3QxkJ
5VhtUeaGe/zSmdwQkLMINleK9ysWUkC4iNossA/VLn9QovhA7KmmlCzs8Y9QMf+3
JebzNB8V1vqJUUtQhwkBIVF7vSEWvOG7/5pdvce2QcAFUCGM3gfFFW53qH6Lt+Hn
QmiBKe75cxEZpieNGXT22t9JrJLMJTkB0G+PtyV6lL0LGS3/tu9nUDlYM9zZLJ8h
dPJgVQIDAQABo4IBazCCAWcwCQYDVR0TBAIwADAtBglghkgBhvhCAQ0EIBYeRWFz
eS1SU0EgR2VuZXJhdGVkIENlcnRpZmljYXRlMB0GA1UdDgQWBBRsSHVr1ZxZEaCM
ttTHQe70NQDuoTCB6QYDVR0jBIHhMIHegBTvOI0UUFinW02cF3L837msp1GwEKGB
uqSBtzCBtDELMAkGA1UEBhMCVVMxCzAJBgNVBAgTAkNBMRUwEwYDVQQHEwxTYW5G
cmFuY2lzY28xFTATBgNVBAoTDFBpeGdsbywgSW5jLjEQMA4GA1UECxMHVlBOLUNJ
RTEaMBgGA1UEAxMRdHVubmVsLnBpeGdsby5jb20xHDAaBgNVBCkTE0JhbGEgQ2hh
bmRyYXNla2FyYW4xHjAcBgkqhkiG9w0BCQEWD2JhbGFAcGl4Z2xvLmNvbYIJAKbb
xoOA5qB5MBMGA1UdJQQMMAoGCCsGAQUFBwMCMAsGA1UdDwQEAwIHgDANBgkqhkiG
9w0BAQUFAAOCAgEAjp7fTY5kn4YhaUOgGIC14ZIT6jzzwtoSKLSz9YPnjt4v8/AU
xENcKPn72+Qi8t4SjN7VbvWcnFSgIxM8OzZaCjXn0eZZ8Nj+GuRKTTYse71dRMwT
yBrN/zwnvOFnyIQniA3bsIZ12MviNe11tuXelpOgap6KEwNmjWh4O+7MzVh7zPq4
Y1vmtDr9CsAIEFEvn9rbPTTrgNzXPeZnmpSEiy7Y3G50feXsYY6sofsX+dBmhIYe
S01k7FTb6jP7/J/eZlV/cartYgd0KmOZtZpe7BgHKg4VzN+jR5sTSd6wlosD5lt2
WF9G6fpFIcmnvnlR0VAoD2SUSCfmPaLyYjDxYhtEjFtJs392OoRNT7nObhdsNwbJ
jfVNDdBwQpHsZqMAOTcBFCluwi56TkmoYNj3a5ZguF0Mkxft1m3bhtMiaGnH3eDD
1y5y12v6SxtOaAYNHBtK74QC/hhU/q5t0rs35BNzJMowy2ieA9/1r3yLEw2Y8RNg
omceXkCNhhnzdwLvcSyTR7XwtnZBr8SDMXBDQmRB9ifnzqexWyOZ6Be1KZnejCC1
mGBU63oCxDwyUru9N7sJyGghKG+SZqXAyR8KbyXVFZNG5pRTTGz7p09k2FYaq1T9
FBDOyLxmXhGFHx0lBYYOndzavYdENwJW+sztmY72CKydXA2NKoYyToQiKFU=
-----END CERTIFICATE-----
