Certificate:
    Data:
        Version: 3 (0x2)
        Serial Number: 36 (0x24)
    Signature Algorithm: sha1WithRSAEncryption
        Issuer: C=US, ST=CA, L=SanFrancisco, O=Pixglo, Inc., OU=VPN-CIE, CN=tunnel.pixglo.com/name=Bala Chandrasekaran/emailAddress=bala@pixglo.com
        Validity
            Not Before: Feb 14 06:24:36 2018 GMT
            Not After : Feb 12 06:24:36 2028 GMT
        Subject: C=US, ST=CA, L=SanFrancisco, O=Pixglo, Inc., OU=VPN-CIE, CN=cie35/name=Bala Chandrasekaran/emailAddress=bala@pixglo.com
        Subject Public Key Info:
            Public Key Algorithm: rsaEncryption
                Public-Key: (4096 bit)
                Modulus:
                    00:fb:b0:4c:76:6f:6c:76:f7:c3:83:34:df:49:1f:
                    e2:9a:c5:f8:83:69:7f:c3:97:c9:4f:54:18:cd:cf:
                    2d:48:b0:5c:1f:75:3f:4d:74:68:2e:b0:05:c9:ea:
                    f0:33:a2:60:63:f7:3c:43:48:67:e5:f2:a1:e8:88:
                    ef:ee:2e:55:b5:9d:37:3b:cf:40:9c:f1:4e:36:c8:
                    cb:a2:04:ab:d1:8c:ff:b3:61:21:b2:67:f3:08:ab:
                    db:43:8f:8a:89:03:54:8e:ba:35:16:ff:df:09:0d:
                    55:fd:3f:8b:62:7c:9e:c6:b7:bf:6a:96:f3:b5:39:
                    bd:ec:0e:bc:d7:84:27:d1:86:36:15:e2:a2:ac:9c:
                    90:10:b7:fa:0d:36:44:03:11:1c:cd:e6:26:df:2a:
                    9c:ce:ce:39:d1:2e:56:f8:f0:55:21:95:19:57:8a:
                    80:a8:11:87:84:8a:8a:c9:a2:06:5a:a6:54:76:60:
                    3d:98:52:53:64:50:80:f3:6f:7c:5f:c9:de:34:5d:
                    df:44:3f:11:49:40:e7:b4:61:fd:34:c4:ca:d7:38:
                    d6:9b:a9:44:00:62:b1:8b:ad:f2:cc:70:46:9b:aa:
                    87:6c:c7:70:71:ed:e8:7e:bf:c7:07:af:02:ad:4a:
                    68:6e:2a:d3:b8:17:e4:97:f9:63:4d:2d:02:8d:9f:
                    ee:e6:76:9d:bf:5a:19:61:fa:20:f7:c0:25:af:99:
                    78:a1:0e:ba:1c:87:9b:4b:ea:0e:a7:4d:08:9f:77:
                    cb:c7:a2:82:61:af:ed:f9:56:d0:01:0d:bf:35:64:
                    ca:6a:23:73:8f:32:b4:d3:47:cd:94:91:74:0a:cc:
                    e7:5a:10:2a:bd:28:7a:c8:5a:b5:ea:eb:b5:2a:80:
                    09:48:bb:6e:a2:f4:70:e7:04:f4:d9:e3:91:67:cb:
                    f7:98:96:59:5e:1f:9c:3a:fe:53:1d:f7:08:81:32:
                    23:f5:0b:ec:f6:fe:cf:fd:d5:36:d0:c7:9b:cb:a9:
                    30:6a:bb:d2:15:90:de:52:21:50:c7:c4:da:1c:9b:
                    9f:de:ad:2a:80:9a:60:4e:75:75:9c:99:27:7e:95:
                    9e:66:10:d7:1f:2a:f7:6e:5e:94:77:89:13:2d:1b:
                    b5:42:48:d0:0a:96:2c:19:e1:1b:5f:c1:c9:24:8d:
                    4c:b2:26:ba:20:5b:be:5e:55:a5:5b:be:17:f5:a8:
                    09:55:08:69:3f:24:a1:a6:08:0a:ac:2f:83:5a:9a:
                    cd:e2:05:7b:ce:70:4f:ea:ac:a8:a2:5b:e5:3a:59:
                    90:ab:47:7e:a9:89:87:17:ef:3b:ed:dc:4c:38:3b:
                    03:cd:14:05:83:e0:61:22:1d:2b:1b:50:18:62:aa:
                    43:f3:25
                Exponent: 65537 (0x10001)
        X509v3 extensions:
            X509v3 Basic Constraints: 
                CA:FALSE
            Netscape Comment: 
                Easy-RSA Generated Certificate
            X509v3 Subject Key Identifier: 
                E1:50:A8:48:5F:79:AB:40:D9:AC:B9:3D:A3:12:77:30:8A:89:5D:CE
            X509v3 Authority Key Identifier: 
                keyid:EF:38:8D:14:50:58:A7:5B:4D:9C:17:72:FC:DF:B9:AC:A7:51:B0:10
                DirName:/C=US/ST=CA/L=SanFrancisco/O=Pixglo, Inc./OU=VPN-CIE/CN=tunnel.pixglo.com/name=Bala Chandrasekaran/emailAddress=bala@pixglo.com
                serial:A6:DB:C6:83:80:E6:A0:79

            X509v3 Extended Key Usage: 
                TLS Web Client Authentication
            X509v3 Key Usage: 
                Digital Signature
    Signature Algorithm: sha1WithRSAEncryption
         04:f7:77:38:37:2f:d4:de:d9:2e:b1:67:6f:ac:ac:cf:15:11:
         ba:98:40:98:18:e2:ea:0a:49:ae:ae:6b:45:4a:f0:60:a3:4f:
         05:9a:58:68:0f:e5:81:62:d4:56:70:bd:ce:25:e0:cb:fd:39:
         6c:46:df:53:c6:52:41:1f:80:be:f0:c1:7e:56:f9:3d:68:f0:
         4f:c7:f6:3a:b0:ff:81:33:f0:21:35:0f:5e:80:71:80:78:0c:
         b2:9c:3a:bc:dc:c8:45:76:4f:e3:67:6c:72:ee:7d:98:14:1c:
         fc:e1:c3:3c:f3:3d:53:14:69:c6:f8:97:03:67:8d:d1:12:69:
         fc:00:d4:f5:3b:5f:9e:19:32:94:49:30:11:ca:36:ab:56:11:
         43:62:14:b3:6d:31:a3:c2:c3:04:67:5b:f7:eb:31:9a:bb:8a:
         e7:ab:d8:b9:f2:4f:00:87:bb:4f:d9:90:5c:38:8e:20:58:0e:
         df:5d:ba:e8:13:dd:ac:3f:d5:e7:73:27:42:3a:03:7b:a1:50:
         42:3d:a5:82:6b:74:7c:d6:cd:ef:84:b4:e4:4d:d9:33:dc:25:
         99:ab:94:40:e6:6d:44:cc:7e:32:84:b9:82:ab:5d:ed:a9:93:
         f3:54:f2:c4:68:4b:e3:c7:cf:c0:f9:be:b5:a7:f9:90:ee:dd:
         47:df:a6:84:c2:e8:2a:7a:f2:1e:dd:c8:c2:63:9f:2f:5c:7a:
         88:54:68:c5:0e:b4:32:b8:64:72:ec:a3:43:59:74:5e:90:40:
         64:c1:03:53:af:2e:b3:cf:96:cd:7e:ca:31:03:68:e4:c8:99:
         3a:5f:2e:17:ad:91:0a:43:69:39:1f:1c:8e:a2:e5:09:72:13:
         10:ee:f0:e1:09:63:5a:18:37:f8:6b:1d:d9:8e:ca:d9:89:e9:
         4a:94:b7:d2:14:1c:4a:a0:34:3d:2b:6f:4c:2e:b4:b7:44:d1:
         35:05:cf:25:d4:00:73:2b:bc:0b:b2:84:ec:fa:36:55:b5:c3:
         34:bb:db:0b:26:7c:0e:17:8f:5f:c5:fc:7f:f6:f4:ac:b0:30:
         4a:97:30:19:c9:1f:86:15:b4:ec:7b:8d:14:fd:fa:25:94:9d:
         0c:5b:7e:80:81:7d:ee:f1:ef:d4:c9:a0:48:24:58:6a:84:03:
         4e:67:8a:0a:54:15:e9:94:9a:ad:73:d6:5d:72:b9:07:fe:e9:
         fd:01:da:7e:c5:d7:d2:d6:1b:57:f2:3a:ab:71:b3:d3:8a:9d:
         7f:93:35:ec:ae:bd:5c:95:c6:88:11:6d:1d:46:62:b6:0c:53:
         91:98:59:49:fe:df:d9:14:a3:22:15:84:80:04:fe:c6:6b:0b:
         1c:c3:73:a6:ef:8a:4b:71
-----BEGIN CERTIFICATE-----
MIIHRjCCBS6gAwIBAgIBJDANBgkqhkiG9w0BAQUFADCBtDELMAkGA1UEBhMCVVMx
CzAJBgNVBAgTAkNBMRUwEwYDVQQHEwxTYW5GcmFuY2lzY28xFTATBgNVBAoTDFBp
eGdsbywgSW5jLjEQMA4GA1UECxMHVlBOLUNJRTEaMBgGA1UEAxMRdHVubmVsLnBp
eGdsby5jb20xHDAaBgNVBCkTE0JhbGEgQ2hhbmRyYXNla2FyYW4xHjAcBgkqhkiG
9w0BCQEWD2JhbGFAcGl4Z2xvLmNvbTAeFw0xODAyMTQwNjI0MzZaFw0yODAyMTIw
NjI0MzZaMIGoMQswCQYDVQQGEwJVUzELMAkGA1UECBMCQ0ExFTATBgNVBAcTDFNh
bkZyYW5jaXNjbzEVMBMGA1UEChMMUGl4Z2xvLCBJbmMuMRAwDgYDVQQLEwdWUE4t
Q0lFMQ4wDAYDVQQDEwVjaWUzNTEcMBoGA1UEKRMTQmFsYSBDaGFuZHJhc2VrYXJh
bjEeMBwGCSqGSIb3DQEJARYPYmFsYUBwaXhnbG8uY29tMIICIjANBgkqhkiG9w0B
AQEFAAOCAg8AMIICCgKCAgEA+7BMdm9sdvfDgzTfSR/imsX4g2l/w5fJT1QYzc8t
SLBcH3U/TXRoLrAFyerwM6JgY/c8Q0hn5fKh6Ijv7i5VtZ03O89AnPFONsjLogSr
0Yz/s2EhsmfzCKvbQ4+KiQNUjro1Fv/fCQ1V/T+LYnyexre/apbztTm97A6814Qn
0YY2FeKirJyQELf6DTZEAxEczeYm3yqczs450S5W+PBVIZUZV4qAqBGHhIqKyaIG
WqZUdmA9mFJTZFCA8298X8neNF3fRD8RSUDntGH9NMTK1zjWm6lEAGKxi63yzHBG
m6qHbMdwce3ofr/HB68CrUpobirTuBfkl/ljTS0CjZ/u5nadv1oZYfog98Alr5l4
oQ66HIebS+oOp00In3fLx6KCYa/t+VbQAQ2/NWTKaiNzjzK000fNlJF0CsznWhAq
vSh6yFq16uu1KoAJSLtuovRw5wT02eORZ8v3mJZZXh+cOv5THfcIgTIj9Qvs9v7P
/dU20Meby6kwarvSFZDeUiFQx8TaHJuf3q0qgJpgTnV1nJknfpWeZhDXHyr3bl6U
d4kTLRu1QkjQCpYsGeEbX8HJJI1Msia6IFu+XlWlW74X9agJVQhpPyShpggKrC+D
WprN4gV7znBP6qyoolvlOlmQq0d+qYmHF+877dxMODsDzRQFg+BhIh0rG1AYYqpD
8yUCAwEAAaOCAWswggFnMAkGA1UdEwQCMAAwLQYJYIZIAYb4QgENBCAWHkVhc3kt
UlNBIEdlbmVyYXRlZCBDZXJ0aWZpY2F0ZTAdBgNVHQ4EFgQU4VCoSF95q0DZrLk9
oxJ3MIqJXc4wgekGA1UdIwSB4TCB3oAU7ziNFFBYp1tNnBdy/N+5rKdRsBChgbqk
gbcwgbQxCzAJBgNVBAYTAlVTMQswCQYDVQQIEwJDQTEVMBMGA1UEBxMMU2FuRnJh
bmNpc2NvMRUwEwYDVQQKEwxQaXhnbG8sIEluYy4xEDAOBgNVBAsTB1ZQTi1DSUUx
GjAYBgNVBAMTEXR1bm5lbC5waXhnbG8uY29tMRwwGgYDVQQpExNCYWxhIENoYW5k
cmFzZWthcmFuMR4wHAYJKoZIhvcNAQkBFg9iYWxhQHBpeGdsby5jb22CCQCm28aD
gOageTATBgNVHSUEDDAKBggrBgEFBQcDAjALBgNVHQ8EBAMCB4AwDQYJKoZIhvcN
AQEFBQADggIBAAT3dzg3L9Te2S6xZ2+srM8VEbqYQJgY4uoKSa6ua0VK8GCjTwWa
WGgP5YFi1FZwvc4l4Mv9OWxG31PGUkEfgL7wwX5W+T1o8E/H9jqw/4Ez8CE1D16A
cYB4DLKcOrzcyEV2T+NnbHLufZgUHPzhwzzzPVMUacb4lwNnjdESafwA1PU7X54Z
MpRJMBHKNqtWEUNiFLNtMaPCwwRnW/frMZq7iuer2LnyTwCHu0/ZkFw4jiBYDt9d
uugT3aw/1edzJ0I6A3uhUEI9pYJrdHzWze+EtORN2TPcJZmrlEDmbUTMfjKEuYKr
Xe2pk/NU8sRoS+PHz8D5vrWn+ZDu3UffpoTC6Cp68h7dyMJjny9ceohUaMUOtDK4
ZHLso0NZdF6QQGTBA1OvLrPPls1+yjEDaOTImTpfLhetkQpDaTkfHI6i5QlyExDu
8OEJY1oYN/hrHdmOytmJ6UqUt9IUHEqgND0rb0wutLdE0TUFzyXUAHMrvAuyhOz6
NlW1wzS72wsmfA4Xj1/F/H/29KywMEqXMBnJH4YVtOx7jRT9+iWUnQxbfoCBfe7x
79TJoEgkWGqEA05nigpUFemUmq1z1l1yuQf+6f0B2n7F19LWG1fyOqtxs9OKnX+T
NeyuvVyVxogRbR1GYrYMU5GYWUn+39kUoyIVhIAE/sZrCxzDc6bviktx
-----END CERTIFICATE-----
