Certificate:
    Data:
        Version: 3 (0x2)
        Serial Number: 314 (0x13a)
    Signature Algorithm: sha1WithRSAEncryption
        Issuer: C=US, ST=CA, L=SanFrancisco, O=Pixglo, Inc., OU=VPN-CIE, CN=tunnel.pixglo.com/name=Bala Chandrasekaran/emailAddress=bala@pixglo.com
        Validity
            Not Before: Feb 14 06:30:12 2018 GMT
            Not After : Feb 12 06:30:12 2028 GMT
        Subject: C=US, ST=CA, L=SanFrancisco, O=Pixglo, Inc., OU=VPN-CIE, CN=cie313/name=Bala Chandrasekaran/emailAddress=bala@pixglo.com
        Subject Public Key Info:
            Public Key Algorithm: rsaEncryption
                Public-Key: (4096 bit)
                Modulus:
                    00:aa:de:2a:a5:35:3f:eb:24:68:95:83:c8:b8:9a:
                    6b:df:6b:e0:4a:bf:d8:aa:d0:4f:e7:77:49:38:5b:
                    eb:39:a7:68:fe:97:ad:cf:c2:81:cb:34:c3:b0:2a:
                    0d:73:a2:6b:c1:7b:3e:1d:b6:a6:89:89:78:aa:ee:
                    c0:d3:75:7a:f7:38:8f:07:e9:05:f9:8f:f4:af:cc:
                    14:3f:15:b3:54:31:35:bc:ce:5e:b8:8d:25:29:88:
                    05:98:36:2f:68:e6:a8:9b:fb:ba:79:83:32:ab:8c:
                    38:d7:af:7e:d3:44:79:50:54:3d:0f:df:63:87:1c:
                    82:b4:69:56:0a:07:6f:a2:17:86:8e:c9:3f:6e:01:
                    3a:32:ae:89:d0:c6:70:d9:52:98:20:7f:c3:80:68:
                    82:d7:72:e3:18:ae:52:31:fc:9c:df:84:be:84:1b:
                    0a:70:04:05:dd:7c:e0:57:32:ef:a6:cc:a6:99:3d:
                    50:8f:a3:3c:af:d3:05:bd:fd:27:67:c7:09:13:a7:
                    ed:27:95:a1:36:c0:47:81:38:cc:03:80:90:f6:b9:
                    83:6d:56:71:02:e9:ee:3c:66:c8:82:01:b2:fc:76:
                    63:15:97:20:d7:ad:70:df:d2:96:cc:c4:c9:4e:73:
                    31:0f:43:90:0d:ef:72:e5:4d:b9:5b:71:10:88:46:
                    e8:4f:9e:ef:ed:7b:72:14:87:80:b0:2b:e7:c4:d3:
                    a8:5b:d5:7a:b9:25:1e:3c:9f:ab:20:a2:a7:f3:0c:
                    e3:c9:bd:9b:b9:a6:54:1d:27:66:4c:87:90:62:44:
                    a3:36:1d:77:d2:2d:3f:b5:01:b3:90:38:04:b1:31:
                    d5:66:a7:75:76:de:57:35:88:49:9f:a2:e2:ca:c2:
                    6c:7a:f4:73:f9:37:88:2a:e6:1c:ab:96:89:e4:1e:
                    6c:3d:46:31:e5:0b:4f:44:73:cb:6c:a0:06:18:1e:
                    90:2e:98:78:c1:2b:6d:87:0e:47:55:bf:0d:a2:4f:
                    fb:3a:29:5e:61:43:b1:03:03:b0:e4:b2:c2:19:e9:
                    ba:d5:b7:39:c9:f9:c7:54:3b:88:12:11:97:49:54:
                    5e:37:69:d4:2b:35:e7:49:e2:87:53:32:ca:01:5b:
                    ff:eb:5e:ea:a7:a6:1d:f8:cb:4a:3b:f9:d5:c3:c2:
                    83:a7:e8:15:81:68:4d:b7:15:7f:e3:94:6a:5c:9b:
                    f4:24:8a:58:54:dc:91:f8:3f:52:c9:d9:02:6c:d0:
                    6f:b4:fe:53:16:71:57:3a:56:a1:e5:68:6a:ae:63:
                    79:1b:2a:80:c5:52:8f:16:a6:0a:79:ee:a2:89:d0:
                    19:51:09:9d:1a:b6:3d:20:9a:da:a9:8d:2c:e3:d6:
                    7c:70:e5
                Exponent: 65537 (0x10001)
        X509v3 extensions:
            X509v3 Basic Constraints: 
                CA:FALSE
            Netscape Comment: 
                Easy-RSA Generated Certificate
            X509v3 Subject Key Identifier: 
                57:FE:21:99:7A:57:B0:F3:51:73:15:18:2D:8F:3E:83:7D:5C:23:1D
            X509v3 Authority Key Identifier: 
                keyid:EF:38:8D:14:50:58:A7:5B:4D:9C:17:72:FC:DF:B9:AC:A7:51:B0:10
                DirName:/C=US/ST=CA/L=SanFrancisco/O=Pixglo, Inc./OU=VPN-CIE/CN=tunnel.pixglo.com/name=Bala Chandrasekaran/emailAddress=bala@pixglo.com
                serial:A6:DB:C6:83:80:E6:A0:79

            X509v3 Extended Key Usage: 
                TLS Web Client Authentication
            X509v3 Key Usage: 
                Digital Signature
    Signature Algorithm: sha1WithRSAEncryption
         28:8a:e1:ca:4d:aa:33:fc:65:bc:54:d1:ac:55:6f:73:65:88:
         67:c8:9c:23:2c:7a:fd:88:7d:15:7e:68:b6:95:7e:be:9e:bc:
         27:51:05:c5:d2:01:0f:d3:84:69:09:3f:6f:7e:4e:9c:d2:d8:
         70:79:f6:86:21:a0:cc:e6:9b:87:a4:a4:7a:73:07:1b:9c:17:
         37:d8:59:cc:62:db:70:56:fc:36:52:3d:14:15:b6:5d:90:e4:
         68:f4:f8:8c:ca:38:fd:b6:7e:1c:48:35:83:39:d8:73:a3:d6:
         d5:2c:e2:14:af:45:f8:f6:94:7d:bf:07:3d:e7:f0:63:3f:40:
         63:c0:c1:6e:40:7e:23:ab:9c:a2:8f:5d:c6:c4:5f:6d:51:7b:
         49:bb:91:28:7d:dd:6b:0b:2c:b2:c9:55:df:79:5a:9a:a1:3c:
         1f:83:fb:f9:80:85:c3:3a:d4:84:33:86:b6:c3:6e:5e:32:bc:
         66:e9:4b:61:7c:76:04:c4:5e:6d:2f:44:09:43:17:b0:2e:43:
         94:91:80:0a:fe:b1:ab:46:f6:08:fc:75:dc:6e:bb:0a:86:6b:
         f3:cb:61:96:91:c4:aa:1d:62:00:1b:ec:70:96:06:95:d5:14:
         e4:2a:c7:55:ef:f0:31:7b:b3:d6:6d:33:b7:c8:d8:5e:a3:29:
         fe:e9:f0:e3:ab:47:c9:9c:a4:4a:e0:39:85:93:1f:68:2a:82:
         37:22:cf:c2:93:a5:68:5b:74:e5:7b:df:76:0e:0a:98:2d:0f:
         0b:59:ea:01:30:74:2e:5b:12:a0:1f:4e:71:00:49:5c:a3:2d:
         8a:b4:25:5e:e6:e7:9a:d2:0a:c1:e1:76:4c:01:e6:a8:4e:49:
         47:c0:50:74:15:f1:ac:ab:f4:b7:38:38:39:ff:7f:40:02:47:
         5e:d0:33:56:e7:22:65:5e:a9:59:aa:63:21:a7:f8:a6:dd:71:
         2f:d0:f7:83:20:cb:eb:d7:12:2d:82:6b:9a:ee:a1:2b:0c:59:
         3a:36:e1:bf:29:5b:90:aa:61:3a:63:03:b1:f3:b7:5d:dd:23:
         4f:ab:51:48:1e:0e:58:49:c8:17:33:d6:8a:56:8c:1f:03:27:
         0d:41:77:7d:c0:4c:6b:00:4e:a3:de:b4:ee:a4:46:fa:4b:b0:
         85:c5:87:b2:be:b1:04:9d:a4:e4:c4:57:d6:5f:51:dc:15:6a:
         61:7d:11:18:9d:a8:1c:cc:72:4b:95:12:8a:b9:75:58:6e:1a:
         27:a8:f8:27:ff:fa:d3:d0:b8:63:07:e2:28:6b:d5:6a:41:15:
         39:08:c2:87:ba:8f:a2:88:64:d2:d6:33:ff:81:bf:7f:b3:e5:
         9d:3e:77:b9:59:d0:96:c7
-----BEGIN CERTIFICATE-----
MIIHSDCCBTCgAwIBAgICATowDQYJKoZIhvcNAQEFBQAwgbQxCzAJBgNVBAYTAlVT
MQswCQYDVQQIEwJDQTEVMBMGA1UEBxMMU2FuRnJhbmNpc2NvMRUwEwYDVQQKEwxQ
aXhnbG8sIEluYy4xEDAOBgNVBAsTB1ZQTi1DSUUxGjAYBgNVBAMTEXR1bm5lbC5w
aXhnbG8uY29tMRwwGgYDVQQpExNCYWxhIENoYW5kcmFzZWthcmFuMR4wHAYJKoZI
hvcNAQkBFg9iYWxhQHBpeGdsby5jb20wHhcNMTgwMjE0MDYzMDEyWhcNMjgwMjEy
MDYzMDEyWjCBqTELMAkGA1UEBhMCVVMxCzAJBgNVBAgTAkNBMRUwEwYDVQQHEwxT
YW5GcmFuY2lzY28xFTATBgNVBAoTDFBpeGdsbywgSW5jLjEQMA4GA1UECxMHVlBO
LUNJRTEPMA0GA1UEAxMGY2llMzEzMRwwGgYDVQQpExNCYWxhIENoYW5kcmFzZWth
cmFuMR4wHAYJKoZIhvcNAQkBFg9iYWxhQHBpeGdsby5jb20wggIiMA0GCSqGSIb3
DQEBAQUAA4ICDwAwggIKAoICAQCq3iqlNT/rJGiVg8i4mmvfa+BKv9iq0E/nd0k4
W+s5p2j+l63PwoHLNMOwKg1zomvBez4dtqaJiXiq7sDTdXr3OI8H6QX5j/SvzBQ/
FbNUMTW8zl64jSUpiAWYNi9o5qib+7p5gzKrjDjXr37TRHlQVD0P32OHHIK0aVYK
B2+iF4aOyT9uAToyronQxnDZUpggf8OAaILXcuMYrlIx/JzfhL6EGwpwBAXdfOBX
Mu+mzKaZPVCPozyv0wW9/SdnxwkTp+0nlaE2wEeBOMwDgJD2uYNtVnEC6e48ZsiC
AbL8dmMVlyDXrXDf0pbMxMlOczEPQ5AN73LlTblbcRCIRuhPnu/te3IUh4CwK+fE
06hb1Xq5JR48n6sgoqfzDOPJvZu5plQdJ2ZMh5BiRKM2HXfSLT+1AbOQOASxMdVm
p3V23lc1iEmfouLKwmx69HP5N4gq5hyrlonkHmw9RjHlC09Ec8tsoAYYHpAumHjB
K22HDkdVvw2iT/s6KV5hQ7EDA7DkssIZ6brVtznJ+cdUO4gSEZdJVF43adQrNedJ
4odTMsoBW//rXuqnph34y0o7+dXDwoOn6BWBaE23FX/jlGpcm/QkilhU3JH4P1LJ
2QJs0G+0/lMWcVc6VqHlaGquY3kbKoDFUo8Wpgp57qKJ0BlRCZ0atj0gmtqpjSzj
1nxw5QIDAQABo4IBazCCAWcwCQYDVR0TBAIwADAtBglghkgBhvhCAQ0EIBYeRWFz
eS1SU0EgR2VuZXJhdGVkIENlcnRpZmljYXRlMB0GA1UdDgQWBBRX/iGZelew81Fz
FRgtjz6DfVwjHTCB6QYDVR0jBIHhMIHegBTvOI0UUFinW02cF3L837msp1GwEKGB
uqSBtzCBtDELMAkGA1UEBhMCVVMxCzAJBgNVBAgTAkNBMRUwEwYDVQQHEwxTYW5G
cmFuY2lzY28xFTATBgNVBAoTDFBpeGdsbywgSW5jLjEQMA4GA1UECxMHVlBOLUNJ
RTEaMBgGA1UEAxMRdHVubmVsLnBpeGdsby5jb20xHDAaBgNVBCkTE0JhbGEgQ2hh
bmRyYXNla2FyYW4xHjAcBgkqhkiG9w0BCQEWD2JhbGFAcGl4Z2xvLmNvbYIJAKbb
xoOA5qB5MBMGA1UdJQQMMAoGCCsGAQUFBwMCMAsGA1UdDwQEAwIHgDANBgkqhkiG
9w0BAQUFAAOCAgEAKIrhyk2qM/xlvFTRrFVvc2WIZ8icIyx6/Yh9FX5otpV+vp68
J1EFxdIBD9OEaQk/b35OnNLYcHn2hiGgzOabh6SkenMHG5wXN9hZzGLbcFb8NlI9
FBW2XZDkaPT4jMo4/bZ+HEg1gznYc6PW1SziFK9F+PaUfb8HPefwYz9AY8DBbkB+
I6ucoo9dxsRfbVF7SbuRKH3dawsssslV33lamqE8H4P7+YCFwzrUhDOGtsNuXjK8
ZulLYXx2BMRebS9ECUMXsC5DlJGACv6xq0b2CPx13G67CoZr88thlpHEqh1iABvs
cJYGldUU5CrHVe/wMXuz1m0zt8jYXqMp/unw46tHyZykSuA5hZMfaCqCNyLPwpOl
aFt05Xvfdg4KmC0PC1nqATB0LlsSoB9OcQBJXKMtirQlXubnmtIKweF2TAHmqE5J
R8BQdBXxrKv0tzg4Of9/QAJHXtAzVuciZV6pWapjIaf4pt1xL9D3gyDL69cSLYJr
mu6hKwxZOjbhvylbkKphOmMDsfO3Xd0jT6tRSB4OWEnIFzPWilaMHwMnDUF3fcBM
awBOo9607qRG+kuwhcWHsr6xBJ2k5MRX1l9R3BVqYX0RGJ2oHMxyS5USirl1WG4a
J6j4J//609C4YwfiKGvVakEVOQjCh7qPoohk0tYz/4G/f7PlnT53uVnQlsc=
-----END CERTIFICATE-----
