Certificate:
    Data:
        Version: 3 (0x2)
        Serial Number: 317 (0x13d)
    Signature Algorithm: sha1WithRSAEncryption
        Issuer: C=US, ST=CA, L=SanFrancisco, O=Pixglo, Inc., OU=VPN-CIE, CN=tunnel.pixglo.com/name=Bala Chandrasekaran/emailAddress=bala@pixglo.com
        Validity
            Not Before: Feb 14 06:30:16 2018 GMT
            Not After : Feb 12 06:30:16 2028 GMT
        Subject: C=US, ST=CA, L=SanFrancisco, O=Pixglo, Inc., OU=VPN-CIE, CN=cie316/name=Bala Chandrasekaran/emailAddress=bala@pixglo.com
        Subject Public Key Info:
            Public Key Algorithm: rsaEncryption
                Public-Key: (4096 bit)
                Modulus:
                    00:9d:4b:04:48:49:62:9b:22:e3:d3:c9:f6:ae:42:
                    f6:85:3a:6c:92:f3:e3:3b:c7:82:dd:0a:37:ec:aa:
                    ef:f0:f8:43:3b:e4:40:45:59:3a:f1:1e:36:29:37:
                    e4:42:06:98:36:42:96:25:54:e6:35:f3:ba:ba:65:
                    da:5a:af:74:86:70:f2:55:69:9d:5c:94:23:20:fa:
                    21:2a:dc:9d:a8:9b:62:03:f6:84:c1:a2:8d:12:88:
                    1a:94:65:4b:f3:da:f1:cb:9c:2a:19:28:42:2d:27:
                    18:87:80:db:fd:84:de:95:06:20:5a:e7:f8:7d:ee:
                    f5:f3:90:79:83:fe:1d:49:94:4d:e8:b1:24:e5:6f:
                    a0:9b:3d:2e:ae:9b:5b:7e:7a:07:66:77:77:64:0c:
                    56:38:42:2f:c7:e4:b7:e0:6e:30:9d:6c:03:37:6e:
                    cb:8f:86:7c:94:26:fe:26:81:ee:c8:b2:ba:67:cd:
                    3a:65:2d:7b:7a:96:af:30:52:3f:48:42:35:c2:96:
                    d1:6d:30:b8:c1:e0:82:73:48:ce:01:67:03:21:c6:
                    38:f1:45:2f:5e:3f:0c:f3:a0:68:9e:2d:cc:ed:9b:
                    4a:63:ec:ee:5e:44:ae:c4:15:d1:00:0b:76:dc:91:
                    c9:84:d8:67:b9:8b:8c:49:40:65:8c:e9:27:46:8c:
                    15:5e:5c:12:51:d5:9a:b5:b5:f3:1b:5d:e0:ae:fc:
                    21:13:f9:44:a8:c5:45:81:08:7a:fa:72:e8:e0:0f:
                    46:cb:77:78:6a:1a:aa:7e:79:2b:ee:3a:af:ab:89:
                    92:d2:67:9b:fd:c7:a0:a5:fb:3b:e9:12:7c:09:86:
                    7e:36:bf:61:b9:48:7e:88:1d:2c:75:f6:01:f1:2b:
                    19:c1:cf:56:a2:9d:43:c4:e6:0e:7a:8d:bb:6c:4d:
                    c5:a7:d3:72:43:29:89:52:b2:fe:2b:b7:a3:35:ea:
                    35:48:84:a7:39:51:2e:36:36:db:42:7c:b7:a1:00:
                    d4:9c:db:7b:e8:a8:6c:14:28:b9:2a:82:cc:fd:17:
                    e1:59:7b:00:38:aa:78:35:d7:1b:db:29:51:a2:0c:
                    c1:76:b1:92:73:e6:1d:07:84:2c:c3:b5:50:40:9e:
                    d3:89:e3:c0:3b:26:f2:fa:c5:7c:9f:f7:a4:39:69:
                    64:99:93:df:44:a0:76:a0:70:ec:e2:b7:a2:7b:26:
                    71:b1:91:8b:55:a2:4c:8b:8f:09:6b:53:fd:8b:50:
                    08:e4:99:ee:ac:61:b3:d3:96:f3:52:cf:e2:4d:3a:
                    88:ab:25:a5:97:e2:62:5a:f5:dd:d9:70:ac:bb:d7:
                    49:c9:b1:10:76:4d:10:ce:e1:40:10:4f:b7:10:ca:
                    37:2a:f9
                Exponent: 65537 (0x10001)
        X509v3 extensions:
            X509v3 Basic Constraints: 
                CA:FALSE
            Netscape Comment: 
                Easy-RSA Generated Certificate
            X509v3 Subject Key Identifier: 
                2F:BE:47:CA:72:C6:36:71:8E:CF:F6:1A:AF:1F:E7:ED:84:B2:B3:04
            X509v3 Authority Key Identifier: 
                keyid:EF:38:8D:14:50:58:A7:5B:4D:9C:17:72:FC:DF:B9:AC:A7:51:B0:10
                DirName:/C=US/ST=CA/L=SanFrancisco/O=Pixglo, Inc./OU=VPN-CIE/CN=tunnel.pixglo.com/name=Bala Chandrasekaran/emailAddress=bala@pixglo.com
                serial:A6:DB:C6:83:80:E6:A0:79

            X509v3 Extended Key Usage: 
                TLS Web Client Authentication
            X509v3 Key Usage: 
                Digital Signature
    Signature Algorithm: sha1WithRSAEncryption
         0b:63:48:de:0d:25:be:4c:35:af:4c:8a:12:7f:8b:0c:ee:4c:
         ab:22:28:18:73:58:92:cf:ba:10:bd:30:79:8c:19:1a:15:65:
         92:9d:f2:90:eb:f4:09:b7:db:06:fd:70:c1:70:be:8f:bf:dd:
         f8:fe:40:e8:91:ed:08:95:20:ac:0c:a4:97:75:c4:12:a2:7f:
         fd:92:73:e4:6d:aa:48:5d:11:10:0b:85:a9:c1:5a:ee:07:4c:
         cf:35:d2:88:df:51:85:e0:6a:38:cd:3e:67:54:a3:29:91:0f:
         7b:64:0c:1f:b8:1a:53:34:b1:19:28:20:b0:67:b7:05:db:03:
         58:d1:89:73:53:70:d2:e1:8f:1b:6b:df:a8:db:8b:c7:1f:8a:
         d5:d3:63:68:4b:ec:d4:61:fa:e4:ca:e5:ba:e2:01:b1:68:58:
         c3:f2:34:da:0f:38:51:4e:84:d6:36:a7:9b:a8:95:fd:3d:7c:
         9b:ac:4f:f2:5b:f7:14:76:da:8a:5b:e8:68:0c:eb:62:c8:ea:
         28:93:14:ae:b8:f2:ff:38:c5:b7:a8:47:e9:a0:d9:4d:f6:8c:
         72:9a:ca:77:51:eb:f3:f8:90:c7:61:ad:8b:9d:ee:79:91:12:
         e1:23:94:25:f0:cd:a5:cb:8e:d6:7a:a3:73:07:32:40:89:a6:
         b3:7e:df:ca:ba:cd:04:e7:47:79:e4:ee:f4:a0:b4:9e:1b:8b:
         b9:f0:6a:d7:22:a7:fe:dc:50:bf:d7:ee:f4:7b:3f:5b:e6:09:
         c5:8d:9b:ed:e4:20:c8:f1:1d:7e:a4:c1:92:e3:14:7a:c7:b5:
         ea:70:8f:26:88:97:a2:18:95:fc:cd:f9:22:76:a9:aa:62:e1:
         82:2d:8d:e7:fb:aa:17:2d:db:d4:16:55:8f:c2:0d:7f:93:c5:
         fd:e0:3f:cf:b6:01:d1:31:3f:af:a0:04:16:06:8c:3e:fc:0b:
         fd:72:f0:03:d9:18:b5:bc:e0:3c:b4:d6:77:82:50:88:cb:ab:
         15:51:68:ea:ac:5c:48:0c:a6:27:62:db:d9:1b:6a:26:67:34:
         a7:96:af:3a:6f:ec:fc:e9:74:dc:e3:c2:50:9e:38:83:b4:9b:
         66:8b:ce:02:aa:fa:47:24:8f:01:b1:cb:c8:66:d2:72:d1:57:
         2a:23:ab:3e:65:75:15:2d:46:7b:bf:c6:7f:22:3c:ca:02:ef:
         80:d4:2f:b0:6a:49:78:93:13:07:a8:16:f1:77:02:18:14:aa:
         a2:8e:dd:51:7f:4b:82:6f:ce:f6:8e:57:04:a8:99:05:56:2f:
         4a:07:dc:d9:11:54:9d:ed:1c:84:04:c7:45:fb:58:2f:b9:8a:
         3f:17:55:24:aa:0c:17:d1
-----BEGIN CERTIFICATE-----
MIIHSDCCBTCgAwIBAgICAT0wDQYJKoZIhvcNAQEFBQAwgbQxCzAJBgNVBAYTAlVT
MQswCQYDVQQIEwJDQTEVMBMGA1UEBxMMU2FuRnJhbmNpc2NvMRUwEwYDVQQKEwxQ
aXhnbG8sIEluYy4xEDAOBgNVBAsTB1ZQTi1DSUUxGjAYBgNVBAMTEXR1bm5lbC5w
aXhnbG8uY29tMRwwGgYDVQQpExNCYWxhIENoYW5kcmFzZWthcmFuMR4wHAYJKoZI
hvcNAQkBFg9iYWxhQHBpeGdsby5jb20wHhcNMTgwMjE0MDYzMDE2WhcNMjgwMjEy
MDYzMDE2WjCBqTELMAkGA1UEBhMCVVMxCzAJBgNVBAgTAkNBMRUwEwYDVQQHEwxT
YW5GcmFuY2lzY28xFTATBgNVBAoTDFBpeGdsbywgSW5jLjEQMA4GA1UECxMHVlBO
LUNJRTEPMA0GA1UEAxMGY2llMzE2MRwwGgYDVQQpExNCYWxhIENoYW5kcmFzZWth
cmFuMR4wHAYJKoZIhvcNAQkBFg9iYWxhQHBpeGdsby5jb20wggIiMA0GCSqGSIb3
DQEBAQUAA4ICDwAwggIKAoICAQCdSwRISWKbIuPTyfauQvaFOmyS8+M7x4LdCjfs
qu/w+EM75EBFWTrxHjYpN+RCBpg2QpYlVOY187q6Zdpar3SGcPJVaZ1clCMg+iEq
3J2om2ID9oTBoo0SiBqUZUvz2vHLnCoZKEItJxiHgNv9hN6VBiBa5/h97vXzkHmD
/h1JlE3osSTlb6CbPS6um1t+egdmd3dkDFY4Qi/H5LfgbjCdbAM3bsuPhnyUJv4m
ge7IsrpnzTplLXt6lq8wUj9IQjXCltFtMLjB4IJzSM4BZwMhxjjxRS9ePwzzoGie
Lcztm0pj7O5eRK7EFdEAC3bckcmE2Ge5i4xJQGWM6SdGjBVeXBJR1Zq1tfMbXeCu
/CET+USoxUWBCHr6cujgD0bLd3hqGqp+eSvuOq+riZLSZ5v9x6Cl+zvpEnwJhn42
v2G5SH6IHSx19gHxKxnBz1ainUPE5g56jbtsTcWn03JDKYlSsv4rt6M16jVIhKc5
US42NttCfLehANSc23voqGwUKLkqgsz9F+FZewA4qng11xvbKVGiDMF2sZJz5h0H
hCzDtVBAntOJ48A7JvL6xXyf96Q5aWSZk99EoHagcOzit6J7JnGxkYtVokyLjwlr
U/2LUAjkme6sYbPTlvNSz+JNOoirJaWX4mJa9d3ZcKy710nJsRB2TRDO4UAQT7cQ
yjcq+QIDAQABo4IBazCCAWcwCQYDVR0TBAIwADAtBglghkgBhvhCAQ0EIBYeRWFz
eS1SU0EgR2VuZXJhdGVkIENlcnRpZmljYXRlMB0GA1UdDgQWBBQvvkfKcsY2cY7P
9hqvH+fthLKzBDCB6QYDVR0jBIHhMIHegBTvOI0UUFinW02cF3L837msp1GwEKGB
uqSBtzCBtDELMAkGA1UEBhMCVVMxCzAJBgNVBAgTAkNBMRUwEwYDVQQHEwxTYW5G
cmFuY2lzY28xFTATBgNVBAoTDFBpeGdsbywgSW5jLjEQMA4GA1UECxMHVlBOLUNJ
RTEaMBgGA1UEAxMRdHVubmVsLnBpeGdsby5jb20xHDAaBgNVBCkTE0JhbGEgQ2hh
bmRyYXNla2FyYW4xHjAcBgkqhkiG9w0BCQEWD2JhbGFAcGl4Z2xvLmNvbYIJAKbb
xoOA5qB5MBMGA1UdJQQMMAoGCCsGAQUFBwMCMAsGA1UdDwQEAwIHgDANBgkqhkiG
9w0BAQUFAAOCAgEAC2NI3g0lvkw1r0yKEn+LDO5MqyIoGHNYks+6EL0weYwZGhVl
kp3ykOv0CbfbBv1wwXC+j7/d+P5A6JHtCJUgrAykl3XEEqJ//ZJz5G2qSF0REAuF
qcFa7gdMzzXSiN9RheBqOM0+Z1SjKZEPe2QMH7gaUzSxGSggsGe3BdsDWNGJc1Nw
0uGPG2vfqNuLxx+K1dNjaEvs1GH65MrluuIBsWhYw/I02g84UU6E1janm6iV/T18
m6xP8lv3FHbailvoaAzrYsjqKJMUrrjy/zjFt6hH6aDZTfaMcprKd1Hr8/iQx2Gt
i53ueZES4SOUJfDNpcuO1nqjcwcyQImms37fyrrNBOdHeeTu9KC0nhuLufBq1yKn
/txQv9fu9Hs/W+YJxY2b7eQgyPEdfqTBkuMUese16nCPJoiXohiV/M35InapqmLh
gi2N5/uqFy3b1BZVj8INf5PF/eA/z7YB0TE/r6AEFgaMPvwL/XLwA9kYtbzgPLTW
d4JQiMurFVFo6qxcSAymJ2Lb2RtqJmc0p5avOm/s/Ol03OPCUJ44g7SbZovOAqr6
RySPAbHLyGbSctFXKiOrPmV1FS1Ge7/GfyI8ygLvgNQvsGpJeJMTB6gW8XcCGBSq
oo7dUX9Lgm/O9o5XBKiZBVYvSgfc2RFUne0chATHRftYL7mKPxdVJKoMF9E=
-----END CERTIFICATE-----
