Certificate:
    Data:
        Version: 3 (0x2)
        Serial Number: 387 (0x183)
    Signature Algorithm: sha1WithRSAEncryption
        Issuer: C=US, ST=CA, L=SanFrancisco, O=Pixglo, Inc., OU=VPN-CIE, CN=tunnel.pixglo.com/name=Bala Chandrasekaran/emailAddress=bala@pixglo.com
        Validity
            Not Before: Feb 14 06:32:13 2018 GMT
            Not After : Feb 12 06:32:13 2028 GMT
        Subject: C=US, ST=CA, L=SanFrancisco, O=Pixglo, Inc., OU=VPN-CIE, CN=cie386/name=Bala Chandrasekaran/emailAddress=bala@pixglo.com
        Subject Public Key Info:
            Public Key Algorithm: rsaEncryption
                Public-Key: (4096 bit)
                Modulus:
                    00:b1:61:9c:8d:28:44:85:61:26:49:ae:29:ef:93:
                    2e:5b:5e:6b:c8:aa:19:ab:c8:a1:22:a8:fd:99:c6:
                    a5:de:40:1a:06:9d:82:37:d5:73:f3:c2:57:ec:e3:
                    9b:7f:2b:db:ad:31:d9:c5:a9:ef:a8:d7:82:dc:92:
                    d5:a2:c3:5a:0d:9c:75:15:c5:4f:e8:67:90:ac:43:
                    92:03:e4:30:53:98:4d:89:01:f2:c3:0a:36:41:94:
                    24:2b:24:cf:67:73:2b:ac:c3:9a:0d:67:3e:83:59:
                    bd:46:5a:ed:49:03:de:1f:19:85:b6:6f:74:4f:b2:
                    df:9f:6b:c1:a2:c1:22:ac:f2:ac:93:4d:aa:81:d2:
                    e5:4e:ec:e2:03:fe:f0:8d:fc:6d:a0:50:46:c1:94:
                    11:f5:31:8e:10:27:6e:6c:d1:55:1a:41:ba:12:cc:
                    f7:0a:dd:ce:06:e8:31:2f:69:57:6a:20:bd:53:1f:
                    b2:60:e4:ba:1a:37:8c:03:c7:e1:29:1e:73:29:4d:
                    e0:d3:25:d1:49:5b:33:21:59:fe:a6:6b:e4:07:54:
                    aa:ac:51:a2:0a:d6:2e:e0:20:09:16:87:b8:77:48:
                    56:21:75:4d:54:9b:cf:3f:84:07:b3:17:b4:ad:a9:
                    b6:d7:d3:22:84:19:35:8b:82:a1:10:2a:36:b6:89:
                    3a:b5:46:92:72:6c:51:de:e2:83:1d:b4:5d:be:0f:
                    23:97:f5:ca:d8:83:3c:f6:61:2a:0c:63:9f:13:16:
                    2e:c6:ae:52:3f:a1:3c:be:b4:96:cb:83:87:55:17:
                    5c:37:c0:cd:70:1c:4f:59:d4:88:ea:59:2d:e9:0b:
                    52:5a:cb:91:1a:00:a7:c7:70:d2:ba:58:5b:2e:57:
                    cc:7c:1b:a4:87:ad:83:90:d7:c2:a5:44:1b:9b:7c:
                    ee:3e:8f:ec:a7:9f:09:58:8d:d5:bb:63:81:5e:8d:
                    fa:0c:b6:a9:71:72:b5:87:39:6e:17:94:9b:9a:c8:
                    35:64:ca:bd:e7:1b:36:7a:c4:fd:b4:0e:20:37:f6:
                    b5:2b:df:1c:ee:f8:3c:8f:30:19:8a:0b:dc:9a:60:
                    69:5c:f5:0c:dc:ad:1b:a5:66:d2:48:94:97:5b:7d:
                    73:e3:82:7f:68:30:80:03:4f:e4:fe:02:b7:3c:b9:
                    7d:b4:21:21:87:9a:53:9e:6d:96:14:89:14:58:fa:
                    48:80:9d:7f:06:57:55:98:ea:be:c6:b2:32:9f:ee:
                    9d:87:3c:00:5c:36:6b:07:6c:1c:00:3e:41:ad:82:
                    97:d4:62:b3:4c:fb:33:7c:89:c7:f9:6f:9c:17:c5:
                    e5:0b:f4:98:e0:4c:05:9b:db:04:b4:3d:b0:7f:1e:
                    ad:4d:a5
                Exponent: 65537 (0x10001)
        X509v3 extensions:
            X509v3 Basic Constraints: 
                CA:FALSE
            Netscape Comment: 
                Easy-RSA Generated Certificate
            X509v3 Subject Key Identifier: 
                94:FB:58:32:B6:9B:7C:62:19:53:A7:40:04:37:D8:E5:AC:F6:54:1E
            X509v3 Authority Key Identifier: 
                keyid:EF:38:8D:14:50:58:A7:5B:4D:9C:17:72:FC:DF:B9:AC:A7:51:B0:10
                DirName:/C=US/ST=CA/L=SanFrancisco/O=Pixglo, Inc./OU=VPN-CIE/CN=tunnel.pixglo.com/name=Bala Chandrasekaran/emailAddress=bala@pixglo.com
                serial:A6:DB:C6:83:80:E6:A0:79

            X509v3 Extended Key Usage: 
                TLS Web Client Authentication
            X509v3 Key Usage: 
                Digital Signature
    Signature Algorithm: sha1WithRSAEncryption
         54:03:bd:cf:47:cf:31:7e:f0:17:43:2a:6f:e6:f4:58:22:99:
         26:39:0e:03:98:93:b1:74:3e:20:9e:4a:dd:3b:a8:d0:01:d9:
         5b:84:3d:1a:28:c7:30:e3:2a:dd:1f:1e:27:34:44:d4:4e:5e:
         04:c8:90:f3:b6:0a:20:8d:4b:94:86:13:88:28:da:df:3e:13:
         91:f4:88:96:40:06:a2:62:c0:1a:fc:68:8d:28:0a:89:5d:25:
         74:d4:56:af:96:61:12:16:31:a9:0d:13:56:1a:d7:1e:69:35:
         74:82:d8:4a:5b:fa:a0:d9:61:bf:e4:9e:cf:7f:6e:57:04:4c:
         08:9a:be:23:cd:04:d7:a2:a9:df:90:fd:da:8c:f7:2f:5a:7b:
         62:26:aa:62:df:d3:37:e9:1f:a2:66:f7:18:44:79:74:03:c3:
         b2:46:4e:23:aa:9c:7a:87:d8:7d:12:b6:08:ec:d0:03:3f:c0:
         f2:dd:40:15:e7:80:c0:2e:46:81:d6:b6:35:1e:c6:0f:b3:27:
         03:dd:67:e4:43:dc:99:19:98:f6:cf:35:9a:d1:99:6e:a9:38:
         48:11:52:4a:ec:1f:e4:d0:85:84:1b:46:42:0f:66:e6:b6:86:
         8b:ec:8d:08:44:b5:0f:95:a5:6b:09:15:bd:85:56:25:34:e6:
         de:58:95:2d:30:fd:61:ce:46:e8:da:44:2d:be:8c:98:93:71:
         c0:9d:df:98:ed:a6:f4:a8:70:21:98:fa:ad:d2:ad:1c:3d:03:
         87:b7:04:cd:5e:81:1a:01:18:ae:5f:fc:c9:62:c2:9a:0f:d9:
         97:ab:ea:d5:c5:71:3c:37:a4:bc:6d:39:05:b8:93:8e:d8:c7:
         b8:38:21:4a:28:00:d2:56:2c:c6:74:82:74:52:ff:5e:21:b7:
         85:9c:8c:99:50:b8:e6:c6:79:a7:a7:53:1d:71:2a:46:b4:4b:
         d6:c0:ef:e6:60:7e:bd:7c:66:6b:92:c9:53:71:7f:0d:a9:a6:
         41:d8:0b:f1:f5:d9:05:31:6a:4f:8d:11:a4:44:17:28:38:58:
         c7:2d:54:aa:90:43:6a:43:4d:92:6c:47:1d:6c:5f:7f:46:4d:
         60:a5:b2:4c:51:54:69:0c:cd:d1:91:1b:a2:4e:61:89:80:ca:
         9d:f7:e8:25:ad:0f:75:5b:7f:32:29:66:33:1a:7f:da:9a:55:
         47:4d:db:9d:4e:5d:ed:ba:5c:8d:88:ac:7f:00:0c:43:72:85:
         c7:2b:54:1c:dc:ef:fc:00:a4:f7:3a:cf:f9:74:3a:9e:95:cb:
         e8:08:6e:e2:11:7b:3b:c5:69:cf:8b:4d:9a:80:1f:c6:57:42:
         18:2b:3b:d0:03:29:89:1d
-----BEGIN CERTIFICATE-----
MIIHSDCCBTCgAwIBAgICAYMwDQYJKoZIhvcNAQEFBQAwgbQxCzAJBgNVBAYTAlVT
MQswCQYDVQQIEwJDQTEVMBMGA1UEBxMMU2FuRnJhbmNpc2NvMRUwEwYDVQQKEwxQ
aXhnbG8sIEluYy4xEDAOBgNVBAsTB1ZQTi1DSUUxGjAYBgNVBAMTEXR1bm5lbC5w
aXhnbG8uY29tMRwwGgYDVQQpExNCYWxhIENoYW5kcmFzZWthcmFuMR4wHAYJKoZI
hvcNAQkBFg9iYWxhQHBpeGdsby5jb20wHhcNMTgwMjE0MDYzMjEzWhcNMjgwMjEy
MDYzMjEzWjCBqTELMAkGA1UEBhMCVVMxCzAJBgNVBAgTAkNBMRUwEwYDVQQHEwxT
YW5GcmFuY2lzY28xFTATBgNVBAoTDFBpeGdsbywgSW5jLjEQMA4GA1UECxMHVlBO
LUNJRTEPMA0GA1UEAxMGY2llMzg2MRwwGgYDVQQpExNCYWxhIENoYW5kcmFzZWth
cmFuMR4wHAYJKoZIhvcNAQkBFg9iYWxhQHBpeGdsby5jb20wggIiMA0GCSqGSIb3
DQEBAQUAA4ICDwAwggIKAoICAQCxYZyNKESFYSZJrinvky5bXmvIqhmryKEiqP2Z
xqXeQBoGnYI31XPzwlfs45t/K9utMdnFqe+o14LcktWiw1oNnHUVxU/oZ5CsQ5ID
5DBTmE2JAfLDCjZBlCQrJM9ncyusw5oNZz6DWb1GWu1JA94fGYW2b3RPst+fa8Gi
wSKs8qyTTaqB0uVO7OID/vCN/G2gUEbBlBH1MY4QJ25s0VUaQboSzPcK3c4G6DEv
aVdqIL1TH7Jg5LoaN4wDx+EpHnMpTeDTJdFJWzMhWf6ma+QHVKqsUaIK1i7gIAkW
h7h3SFYhdU1Um88/hAezF7StqbbX0yKEGTWLgqEQKja2iTq1RpJybFHe4oMdtF2+
DyOX9crYgzz2YSoMY58TFi7GrlI/oTy+tJbLg4dVF1w3wM1wHE9Z1IjqWS3pC1Ja
y5EaAKfHcNK6WFsuV8x8G6SHrYOQ18KlRBubfO4+j+ynnwlYjdW7Y4FejfoMtqlx
crWHOW4XlJuayDVkyr3nGzZ6xP20DiA39rUr3xzu+DyPMBmKC9yaYGlc9QzcrRul
ZtJIlJdbfXPjgn9oMIADT+T+Arc8uX20ISGHmlOebZYUiRRY+kiAnX8GV1WY6r7G
sjKf7p2HPABcNmsHbBwAPkGtgpfUYrNM+zN8icf5b5wXxeUL9JjgTAWb2wS0PbB/
Hq1NpQIDAQABo4IBazCCAWcwCQYDVR0TBAIwADAtBglghkgBhvhCAQ0EIBYeRWFz
eS1SU0EgR2VuZXJhdGVkIENlcnRpZmljYXRlMB0GA1UdDgQWBBSU+1gytpt8YhlT
p0AEN9jlrPZUHjCB6QYDVR0jBIHhMIHegBTvOI0UUFinW02cF3L837msp1GwEKGB
uqSBtzCBtDELMAkGA1UEBhMCVVMxCzAJBgNVBAgTAkNBMRUwEwYDVQQHEwxTYW5G
cmFuY2lzY28xFTATBgNVBAoTDFBpeGdsbywgSW5jLjEQMA4GA1UECxMHVlBOLUNJ
RTEaMBgGA1UEAxMRdHVubmVsLnBpeGdsby5jb20xHDAaBgNVBCkTE0JhbGEgQ2hh
bmRyYXNla2FyYW4xHjAcBgkqhkiG9w0BCQEWD2JhbGFAcGl4Z2xvLmNvbYIJAKbb
xoOA5qB5MBMGA1UdJQQMMAoGCCsGAQUFBwMCMAsGA1UdDwQEAwIHgDANBgkqhkiG
9w0BAQUFAAOCAgEAVAO9z0fPMX7wF0Mqb+b0WCKZJjkOA5iTsXQ+IJ5K3Tuo0AHZ
W4Q9GijHMOMq3R8eJzRE1E5eBMiQ87YKII1LlIYTiCja3z4TkfSIlkAGomLAGvxo
jSgKiV0ldNRWr5ZhEhYxqQ0TVhrXHmk1dILYSlv6oNlhv+Sez39uVwRMCJq+I80E
16Kp35D92oz3L1p7YiaqYt/TN+kfomb3GER5dAPDskZOI6qceofYfRK2COzQAz/A
8t1AFeeAwC5Ggda2NR7GD7MnA91n5EPcmRmY9s81mtGZbqk4SBFSSuwf5NCFhBtG
Qg9m5raGi+yNCES1D5WlawkVvYVWJTTm3liVLTD9Yc5G6NpELb6MmJNxwJ3fmO2m
9KhwIZj6rdKtHD0Dh7cEzV6BGgEYrl/8yWLCmg/Zl6vq1cVxPDekvG05BbiTjtjH
uDghSigA0lYsxnSCdFL/XiG3hZyMmVC45sZ5p6dTHXEqRrRL1sDv5mB+vXxma5LJ
U3F/DammQdgL8fXZBTFqT40RpEQXKDhYxy1UqpBDakNNkmxHHWxff0ZNYKWyTFFU
aQzN0ZEbok5hiYDKnffoJa0PdVt/MilmMxp/2ppVR03bnU5d7bpcjYisfwAMQ3KF
xytUHNzv/ACk9zrP+XQ6npXL6Ahu4hF7O8Vpz4tNmoAfxldCGCs70AMpiR0=
-----END CERTIFICATE-----
