Certificate:
    Data:
        Version: 3 (0x2)
        Serial Number: 362 (0x16a)
    Signature Algorithm: sha1WithRSAEncryption
        Issuer: C=US, ST=CA, L=SanFrancisco, O=Pixglo, Inc., OU=VPN-CIE, CN=tunnel.pixglo.com/name=Bala Chandrasekaran/emailAddress=bala@pixglo.com
        Validity
            Not Before: Feb 14 06:31:24 2018 GMT
            Not After : Feb 12 06:31:24 2028 GMT
        Subject: C=US, ST=CA, L=SanFrancisco, O=Pixglo, Inc., OU=VPN-CIE, CN=cie361/name=Bala Chandrasekaran/emailAddress=bala@pixglo.com
        Subject Public Key Info:
            Public Key Algorithm: rsaEncryption
                Public-Key: (4096 bit)
                Modulus:
                    00:d0:04:ac:ff:dd:2b:6a:26:f4:cf:e9:f8:c2:44:
                    b0:77:b4:94:19:68:70:3d:e6:f5:96:39:19:00:61:
                    91:5c:64:2e:a3:a6:86:5f:3d:0f:3e:a0:5b:0a:2d:
                    a8:4f:2c:3a:50:6d:e7:f4:6a:6a:90:a3:3c:90:ab:
                    da:d4:44:b0:12:dd:ab:59:fb:b8:67:72:02:0f:f2:
                    32:36:89:dc:06:58:36:e9:7b:e1:44:57:09:af:0c:
                    ff:52:bb:03:66:c8:83:af:13:53:ab:3f:0f:42:40:
                    6e:c6:0e:d3:96:b0:22:57:10:6a:9b:7d:2c:d0:96:
                    4c:8e:3d:af:78:0b:fd:87:91:4d:cd:32:b7:c0:d5:
                    f8:8a:9c:46:47:38:b6:7c:49:7e:38:c3:aa:f6:35:
                    50:38:93:83:ce:4d:c6:08:bc:07:76:3c:69:ce:2b:
                    09:04:9c:8b:d4:8f:60:d1:95:fe:fb:c3:60:b5:3a:
                    72:06:85:3d:95:37:d5:e9:cf:4f:36:f3:5d:4d:38:
                    2f:c0:42:db:8e:e0:48:9e:7f:c0:44:e3:04:55:db:
                    d8:2b:5d:66:c2:b1:3f:c1:5b:f0:51:ed:bf:92:d7:
                    8c:93:de:2c:d8:a5:97:ec:cb:29:a4:c2:97:ad:11:
                    d1:05:f3:c3:1a:18:18:8f:02:68:1b:73:27:13:58:
                    ac:3d:b1:6a:e5:ec:1e:45:b5:ba:31:c1:6e:bb:e3:
                    72:f9:55:a6:9e:06:b1:e0:2b:67:72:1c:d1:1a:7c:
                    cf:60:14:34:26:18:fb:d4:3c:df:d2:f2:52:96:1d:
                    dc:14:96:91:3a:f6:56:e0:be:65:09:7d:3a:4d:68:
                    72:8c:60:78:91:bb:b6:e4:cc:51:18:6b:10:f1:61:
                    df:1a:fd:5c:5a:8c:59:3e:3e:5a:de:29:39:77:4b:
                    2f:c7:9e:e5:5c:dd:9d:fc:5b:fb:70:89:26:a3:03:
                    79:06:76:ef:07:9e:fc:40:39:cf:a1:88:00:dd:7c:
                    66:a2:2a:98:07:4a:66:d1:9c:ca:88:a9:ec:2a:8d:
                    7c:ea:f4:f6:d6:73:d6:7f:0d:e8:68:03:74:c8:9f:
                    bd:20:76:91:a0:b8:59:23:f4:ac:99:97:3a:31:c3:
                    f1:c9:37:9e:b9:f6:0d:39:a0:3f:08:d9:e2:0b:1b:
                    d7:63:e4:59:57:2d:0e:8c:47:a2:5b:7b:d3:38:13:
                    16:15:fb:fe:b0:ab:87:87:a1:44:45:7f:a7:01:12:
                    24:a6:1b:6c:85:a1:6c:7b:4a:7d:e7:a7:f0:6e:9c:
                    42:93:6b:3d:72:13:d8:e0:3e:64:1a:2f:46:af:a7:
                    ef:49:75:c9:e9:15:fb:6e:72:cb:4c:f4:f5:4f:56:
                    76:a2:a9
                Exponent: 65537 (0x10001)
        X509v3 extensions:
            X509v3 Basic Constraints: 
                CA:FALSE
            Netscape Comment: 
                Easy-RSA Generated Certificate
            X509v3 Subject Key Identifier: 
                2D:2A:40:BF:C8:D6:5B:2F:1D:30:75:38:43:2A:C2:8B:51:FD:55:DE
            X509v3 Authority Key Identifier: 
                keyid:EF:38:8D:14:50:58:A7:5B:4D:9C:17:72:FC:DF:B9:AC:A7:51:B0:10
                DirName:/C=US/ST=CA/L=SanFrancisco/O=Pixglo, Inc./OU=VPN-CIE/CN=tunnel.pixglo.com/name=Bala Chandrasekaran/emailAddress=bala@pixglo.com
                serial:A6:DB:C6:83:80:E6:A0:79

            X509v3 Extended Key Usage: 
                TLS Web Client Authentication
            X509v3 Key Usage: 
                Digital Signature
    Signature Algorithm: sha1WithRSAEncryption
         90:13:2b:d0:89:b7:68:26:a8:d2:42:46:b2:89:3c:45:f6:d6:
         b8:5a:59:40:1a:4d:1e:d1:d0:58:c2:cc:dd:9a:3b:ad:26:d0:
         00:e0:e3:f0:95:5f:6c:25:2d:15:b4:99:71:5c:3b:2a:87:64:
         3b:f5:88:9f:a5:a7:16:4e:b7:a8:13:4f:64:2e:67:a5:f2:73:
         eb:21:30:e6:a9:e2:af:01:7d:ea:ed:30:e3:31:f4:85:34:5d:
         12:e2:c4:a3:fb:e1:47:36:b9:87:2e:73:68:67:56:4c:91:9f:
         fd:00:95:16:8f:c9:ee:4c:33:fd:96:7a:89:37:4c:65:a7:05:
         ca:33:61:34:ca:b8:39:fd:65:3a:f8:79:d3:c9:b7:b7:b9:c0:
         93:ca:bf:7e:f9:3e:17:d6:91:78:fb:b5:db:62:9e:e6:81:3d:
         b2:56:8f:c4:89:8a:f6:e2:0a:cb:c8:c2:22:4d:e3:2e:6c:48:
         19:c1:24:cc:bc:e8:90:61:85:c4:4e:d6:93:51:b2:26:a7:54:
         7c:62:1f:e3:f8:c5:51:44:e4:76:05:7e:97:c3:a0:a9:79:26:
         f6:7c:dc:6a:98:7c:8c:12:01:dd:d3:3e:7c:fa:15:3c:af:09:
         ac:03:31:ac:de:16:48:ab:a8:6a:41:86:5e:bc:ab:e3:b4:3d:
         3a:9e:06:d3:b5:0d:e4:ab:96:85:1a:64:af:d1:fa:95:ec:39:
         8b:e5:ae:d7:2a:8a:c4:32:2f:b8:3b:d8:67:d1:f2:c2:4b:05:
         47:59:db:3e:09:86:1d:1b:f1:64:43:7b:cc:dd:a4:ae:37:b1:
         0d:3c:66:3a:ba:98:38:9b:78:7e:8d:a9:b9:d9:24:4c:c1:7f:
         0f:7d:3c:b8:3a:66:d2:ef:f9:b7:c7:d4:31:82:55:84:92:ac:
         fc:b9:0a:80:34:26:c2:4a:fe:cc:2f:5d:06:ff:96:9a:fd:09:
         ff:11:8e:d8:8e:41:03:8c:fd:80:46:bd:f2:0a:5a:46:e9:15:
         8d:a2:ed:10:c6:f6:b7:12:ed:fd:fa:4c:db:78:92:84:58:5e:
         2a:f8:2f:5d:f8:7c:39:ca:c0:26:52:c4:7b:85:2c:99:9d:68:
         7a:c6:e5:36:6d:9f:ed:a8:73:19:70:67:c8:2a:e7:44:6a:5d:
         cd:5b:f8:02:d6:43:ce:d1:62:ef:cb:b6:9f:0d:64:f6:50:00:
         c4:14:fc:ab:6c:a2:75:2b:c9:63:0e:46:c4:a5:3c:de:72:b2:
         f6:5f:99:4e:71:50:bb:83:2f:57:b0:5e:17:ac:e0:37:66:00:
         84:c9:1c:10:65:2e:3e:89:9b:3f:25:b4:29:70:71:04:3b:1d:
         95:1a:a6:c5:35:b8:a3:c2
-----BEGIN CERTIFICATE-----
MIIHSDCCBTCgAwIBAgICAWowDQYJKoZIhvcNAQEFBQAwgbQxCzAJBgNVBAYTAlVT
MQswCQYDVQQIEwJDQTEVMBMGA1UEBxMMU2FuRnJhbmNpc2NvMRUwEwYDVQQKEwxQ
aXhnbG8sIEluYy4xEDAOBgNVBAsTB1ZQTi1DSUUxGjAYBgNVBAMTEXR1bm5lbC5w
aXhnbG8uY29tMRwwGgYDVQQpExNCYWxhIENoYW5kcmFzZWthcmFuMR4wHAYJKoZI
hvcNAQkBFg9iYWxhQHBpeGdsby5jb20wHhcNMTgwMjE0MDYzMTI0WhcNMjgwMjEy
MDYzMTI0WjCBqTELMAkGA1UEBhMCVVMxCzAJBgNVBAgTAkNBMRUwEwYDVQQHEwxT
YW5GcmFuY2lzY28xFTATBgNVBAoTDFBpeGdsbywgSW5jLjEQMA4GA1UECxMHVlBO
LUNJRTEPMA0GA1UEAxMGY2llMzYxMRwwGgYDVQQpExNCYWxhIENoYW5kcmFzZWth
cmFuMR4wHAYJKoZIhvcNAQkBFg9iYWxhQHBpeGdsby5jb20wggIiMA0GCSqGSIb3
DQEBAQUAA4ICDwAwggIKAoICAQDQBKz/3StqJvTP6fjCRLB3tJQZaHA95vWWORkA
YZFcZC6jpoZfPQ8+oFsKLahPLDpQbef0amqQozyQq9rURLAS3atZ+7hncgIP8jI2
idwGWDbpe+FEVwmvDP9SuwNmyIOvE1OrPw9CQG7GDtOWsCJXEGqbfSzQlkyOPa94
C/2HkU3NMrfA1fiKnEZHOLZ8SX44w6r2NVA4k4POTcYIvAd2PGnOKwkEnIvUj2DR
lf77w2C1OnIGhT2VN9Xpz082811NOC/AQtuO4Eief8BE4wRV29grXWbCsT/BW/BR
7b+S14yT3izYpZfsyymkwpetEdEF88MaGBiPAmgbcycTWKw9sWrl7B5FtboxwW67
43L5VaaeBrHgK2dyHNEafM9gFDQmGPvUPN/S8lKWHdwUlpE69lbgvmUJfTpNaHKM
YHiRu7bkzFEYaxDxYd8a/VxajFk+PlreKTl3Sy/HnuVc3Z38W/twiSajA3kGdu8H
nvxAOc+hiADdfGaiKpgHSmbRnMqIqewqjXzq9PbWc9Z/DehoA3TIn70gdpGguFkj
9KyZlzoxw/HJN5659g05oD8I2eILG9dj5FlXLQ6MR6Jbe9M4ExYV+/6wq4eHoURF
f6cBEiSmG2yFoWx7Sn3np/BunEKTaz1yE9jgPmQaL0avp+9JdcnpFftucstM9PVP
VnaiqQIDAQABo4IBazCCAWcwCQYDVR0TBAIwADAtBglghkgBhvhCAQ0EIBYeRWFz
eS1SU0EgR2VuZXJhdGVkIENlcnRpZmljYXRlMB0GA1UdDgQWBBQtKkC/yNZbLx0w
dThDKsKLUf1V3jCB6QYDVR0jBIHhMIHegBTvOI0UUFinW02cF3L837msp1GwEKGB
uqSBtzCBtDELMAkGA1UEBhMCVVMxCzAJBgNVBAgTAkNBMRUwEwYDVQQHEwxTYW5G
cmFuY2lzY28xFTATBgNVBAoTDFBpeGdsbywgSW5jLjEQMA4GA1UECxMHVlBOLUNJ
RTEaMBgGA1UEAxMRdHVubmVsLnBpeGdsby5jb20xHDAaBgNVBCkTE0JhbGEgQ2hh
bmRyYXNla2FyYW4xHjAcBgkqhkiG9w0BCQEWD2JhbGFAcGl4Z2xvLmNvbYIJAKbb
xoOA5qB5MBMGA1UdJQQMMAoGCCsGAQUFBwMCMAsGA1UdDwQEAwIHgDANBgkqhkiG
9w0BAQUFAAOCAgEAkBMr0Im3aCao0kJGsok8RfbWuFpZQBpNHtHQWMLM3Zo7rSbQ
AODj8JVfbCUtFbSZcVw7KodkO/WIn6WnFk63qBNPZC5npfJz6yEw5qnirwF96u0w
4zH0hTRdEuLEo/vhRza5hy5zaGdWTJGf/QCVFo/J7kwz/ZZ6iTdMZacFyjNhNMq4
Of1lOvh508m3t7nAk8q/fvk+F9aRePu122Ke5oE9slaPxImK9uIKy8jCIk3jLmxI
GcEkzLzokGGFxE7Wk1GyJqdUfGIf4/jFUUTkdgV+l8OgqXkm9nzcaph8jBIB3dM+
fPoVPK8JrAMxrN4WSKuoakGGXryr47Q9Op4G07UN5KuWhRpkr9H6lew5i+Wu1yqK
xDIvuDvYZ9HywksFR1nbPgmGHRvxZEN7zN2krjexDTxmOrqYOJt4fo2pudkkTMF/
D308uDpm0u/5t8fUMYJVhJKs/LkKgDQmwkr+zC9dBv+Wmv0J/xGO2I5BA4z9gEa9
8gpaRukVjaLtEMb2txLt/fpM23iShFheKvgvXfh8OcrAJlLEe4UsmZ1oesblNm2f
7ahzGXBnyCrnRGpdzVv4AtZDztFi78u2nw1k9lAAxBT8q2yidSvJYw5GxKU83nKy
9l+ZTnFQu4MvV7BeF6zgN2YAhMkcEGUuPombPyW0KXBxBDsdlRqmxTW4o8I=
-----END CERTIFICATE-----
