Certificate:
    Data:
        Version: 3 (0x2)
        Serial Number: 322 (0x142)
    Signature Algorithm: sha1WithRSAEncryption
        Issuer: C=US, ST=CA, L=SanFrancisco, O=Pixglo, Inc., OU=VPN-CIE, CN=tunnel.pixglo.com/name=Bala Chandrasekaran/emailAddress=bala@pixglo.com
        Validity
            Not Before: Feb 14 06:30:20 2018 GMT
            Not After : Feb 12 06:30:20 2028 GMT
        Subject: C=US, ST=CA, L=SanFrancisco, O=Pixglo, Inc., OU=VPN-CIE, CN=cie321/name=Bala Chandrasekaran/emailAddress=bala@pixglo.com
        Subject Public Key Info:
            Public Key Algorithm: rsaEncryption
                Public-Key: (4096 bit)
                Modulus:
                    00:b6:01:e6:56:8b:0b:61:27:f9:25:8e:8e:47:b7:
                    60:06:6a:2e:98:a8:62:0b:6e:2c:98:d5:39:dc:f8:
                    4e:78:69:fa:5b:1a:e9:87:39:83:0b:a1:95:4d:26:
                    2e:d2:aa:62:35:04:bc:c8:39:a5:d7:34:ee:47:23:
                    df:f5:a4:0a:32:80:f7:5f:d6:b8:88:cd:9a:ac:7c:
                    d9:7b:9b:5d:5c:f8:b7:07:e9:4b:17:bf:cc:cc:35:
                    22:69:76:b9:93:45:ec:40:64:de:80:dc:54:ba:d4:
                    0f:46:96:20:13:fc:d6:82:86:60:a8:87:e8:7a:0f:
                    1a:03:37:39:cb:bc:26:e5:17:81:0e:36:35:74:7d:
                    e2:7a:05:4e:e9:84:fa:c0:9f:42:d3:c8:a7:7e:51:
                    58:5b:84:bd:8d:0e:dd:5c:fd:c2:e1:3b:27:0b:e1:
                    f9:8a:df:66:c4:ae:ce:57:90:1d:13:e1:fd:37:a2:
                    82:45:21:d6:97:e5:6b:27:03:89:5a:ca:f0:2c:81:
                    f8:70:e1:3d:71:4d:0d:81:95:3a:0f:99:f4:f4:e4:
                    76:b9:d2:c6:9c:9f:4b:36:e0:10:51:37:6f:76:78:
                    df:35:00:e3:95:44:cc:d7:66:12:2b:df:28:ac:5d:
                    de:4d:66:d5:e4:87:14:34:9f:64:3e:a4:ec:9a:5e:
                    f9:71:7a:16:d3:72:d1:d9:1c:1c:bc:dd:62:e3:bf:
                    b7:18:35:a9:04:8e:f9:e1:f1:17:7f:ec:b2:69:d3:
                    fd:86:1d:d2:5b:43:75:9d:37:f3:15:c5:b9:b0:c8:
                    06:a8:49:68:b2:cc:4c:87:0a:89:e5:b8:e5:5b:52:
                    f0:2b:a9:5a:8c:a5:28:97:32:a3:be:73:d4:7f:cd:
                    17:81:b8:de:4c:53:9a:36:c0:47:dc:8e:00:1b:a9:
                    2f:8f:e7:5d:87:6b:05:fa:50:df:27:f8:d9:c3:c1:
                    61:34:a2:15:d3:90:49:1d:e6:d2:f8:11:8c:39:9a:
                    94:8b:41:72:a9:e7:e1:86:c6:6f:99:27:76:7a:2e:
                    75:0d:3f:8b:6b:5e:66:a7:51:4f:97:d1:9d:9a:a6:
                    16:25:de:15:dc:fa:79:a2:f8:2e:49:17:50:f1:6a:
                    09:82:32:64:b7:16:57:5e:c9:17:5a:76:f8:3a:cc:
                    db:16:ad:d9:ec:64:a7:7a:ab:18:87:8e:f2:a1:d0:
                    92:98:e2:c8:b6:6a:5a:1b:9d:b7:4f:55:2c:42:8e:
                    23:56:43:f6:55:d5:97:3f:96:b4:a3:36:58:a7:a1:
                    30:1b:1d:e7:82:fd:27:92:c7:3b:39:79:29:e3:9e:
                    d3:8c:19:6c:ff:fe:93:5d:62:e6:32:e6:a5:8e:7a:
                    14:61:77
                Exponent: 65537 (0x10001)
        X509v3 extensions:
            X509v3 Basic Constraints: 
                CA:FALSE
            Netscape Comment: 
                Easy-RSA Generated Certificate
            X509v3 Subject Key Identifier: 
                1E:A8:6D:B0:51:8B:17:8A:20:74:93:B1:39:24:8B:AE:5C:FA:10:D8
            X509v3 Authority Key Identifier: 
                keyid:EF:38:8D:14:50:58:A7:5B:4D:9C:17:72:FC:DF:B9:AC:A7:51:B0:10
                DirName:/C=US/ST=CA/L=SanFrancisco/O=Pixglo, Inc./OU=VPN-CIE/CN=tunnel.pixglo.com/name=Bala Chandrasekaran/emailAddress=bala@pixglo.com
                serial:A6:DB:C6:83:80:E6:A0:79

            X509v3 Extended Key Usage: 
                TLS Web Client Authentication
            X509v3 Key Usage: 
                Digital Signature
    Signature Algorithm: sha1WithRSAEncryption
         21:8d:6a:47:8a:31:5d:8d:ef:19:88:2f:97:7a:8e:61:85:f6:
         77:92:79:92:35:2a:8e:c4:84:86:b5:18:2e:f5:74:ff:5b:ba:
         62:ad:98:fa:c6:03:a1:7d:da:23:0a:91:bf:23:2b:d6:e8:5f:
         84:c9:93:e0:38:f1:89:39:d6:55:26:3b:6e:6a:34:73:ee:f6:
         14:65:fe:3c:77:4c:99:c3:c6:6b:dc:57:f0:75:96:9b:73:5c:
         b2:3c:06:e1:d9:02:90:ea:99:8a:02:b4:7b:cb:c2:72:d5:4d:
         e8:3b:4a:06:8b:34:83:50:a0:e5:57:b6:03:a8:40:8d:d3:87:
         2c:bd:08:06:79:4b:7c:e9:ad:c3:96:d9:56:fa:ec:48:b1:55:
         22:4e:34:2b:1b:d7:fe:95:34:cd:5d:96:be:3b:4f:b2:e2:10:
         d5:49:78:cc:df:74:7d:07:54:c4:a8:0e:4f:cf:fd:bc:6a:c4:
         d3:cb:da:9e:3c:cd:86:fe:18:b2:60:4a:b6:91:a4:5e:9a:23:
         e9:c5:04:40:7e:3a:ff:39:56:bd:c9:8e:57:f7:96:2e:74:30:
         e7:5c:49:36:de:02:71:41:9a:50:14:56:0f:0a:95:e5:98:48:
         a8:62:be:28:f0:16:86:4f:4e:b6:5f:27:8f:df:62:a0:d2:ea:
         f6:a8:54:5f:09:f4:a2:6c:80:d0:ee:b1:93:3c:77:49:45:74:
         0c:c9:00:e4:68:a8:e2:92:a8:1a:8d:d1:c3:7e:28:dc:df:05:
         1b:d3:6e:35:b6:33:b5:a0:cf:d6:25:1c:ce:87:65:af:08:96:
         e9:9a:1b:b3:db:3a:84:6b:75:ca:4e:3d:00:6a:52:4a:e1:24:
         10:02:15:4c:92:96:af:b0:ca:c6:1e:ff:40:75:ee:74:65:a3:
         b8:3f:b2:ab:a8:a1:fe:ac:2d:fc:d7:22:c2:bc:d9:c1:eb:61:
         11:95:f1:b5:ba:6b:12:3e:8a:09:79:03:94:87:29:24:32:d6:
         1b:1f:d8:24:51:e9:52:08:9d:51:12:2c:e5:b8:58:0f:fa:5d:
         c0:ea:21:f2:d6:73:c7:5e:6d:6e:2a:36:8f:52:30:81:87:9d:
         9c:76:5a:ac:9e:93:6d:d8:1f:14:f5:4d:71:a3:36:1d:7f:56:
         2c:28:30:46:a9:3d:f4:00:d6:18:36:80:bd:2b:44:f7:f7:ab:
         72:7d:45:54:75:b6:a1:4a:7f:3b:c5:34:cf:09:bf:63:e3:71:
         06:eb:a3:16:80:bd:7d:b8:ee:e9:c0:2b:eb:80:e2:76:b9:8f:
         f8:3d:1e:58:10:6b:1c:c0:e1:10:d6:b8:14:ed:d0:ba:0b:5d:
         be:a3:8b:4d:81:ab:f3:c4
-----BEGIN CERTIFICATE-----
MIIHSDCCBTCgAwIBAgICAUIwDQYJKoZIhvcNAQEFBQAwgbQxCzAJBgNVBAYTAlVT
MQswCQYDVQQIEwJDQTEVMBMGA1UEBxMMU2FuRnJhbmNpc2NvMRUwEwYDVQQKEwxQ
aXhnbG8sIEluYy4xEDAOBgNVBAsTB1ZQTi1DSUUxGjAYBgNVBAMTEXR1bm5lbC5w
aXhnbG8uY29tMRwwGgYDVQQpExNCYWxhIENoYW5kcmFzZWthcmFuMR4wHAYJKoZI
hvcNAQkBFg9iYWxhQHBpeGdsby5jb20wHhcNMTgwMjE0MDYzMDIwWhcNMjgwMjEy
MDYzMDIwWjCBqTELMAkGA1UEBhMCVVMxCzAJBgNVBAgTAkNBMRUwEwYDVQQHEwxT
YW5GcmFuY2lzY28xFTATBgNVBAoTDFBpeGdsbywgSW5jLjEQMA4GA1UECxMHVlBO
LUNJRTEPMA0GA1UEAxMGY2llMzIxMRwwGgYDVQQpExNCYWxhIENoYW5kcmFzZWth
cmFuMR4wHAYJKoZIhvcNAQkBFg9iYWxhQHBpeGdsby5jb20wggIiMA0GCSqGSIb3
DQEBAQUAA4ICDwAwggIKAoICAQC2AeZWiwthJ/kljo5Ht2AGai6YqGILbiyY1Tnc
+E54afpbGumHOYMLoZVNJi7SqmI1BLzIOaXXNO5HI9/1pAoygPdf1riIzZqsfNl7
m11c+LcH6UsXv8zMNSJpdrmTRexAZN6A3FS61A9GliAT/NaChmCoh+h6DxoDNznL
vCblF4EONjV0feJ6BU7phPrAn0LTyKd+UVhbhL2NDt1c/cLhOycL4fmK32bErs5X
kB0T4f03ooJFIdaX5WsnA4layvAsgfhw4T1xTQ2BlToPmfT05Ha50sacn0s24BBR
N292eN81AOOVRMzXZhIr3yisXd5NZtXkhxQ0n2Q+pOyaXvlxehbTctHZHBy83WLj
v7cYNakEjvnh8Rd/7LJp0/2GHdJbQ3WdN/MVxbmwyAaoSWiyzEyHConluOVbUvAr
qVqMpSiXMqO+c9R/zReBuN5MU5o2wEfcjgAbqS+P512HawX6UN8n+NnDwWE0ohXT
kEkd5tL4EYw5mpSLQXKp5+GGxm+ZJ3Z6LnUNP4trXmanUU+X0Z2aphYl3hXc+nmi
+C5JF1DxagmCMmS3FldeyRdadvg6zNsWrdnsZKd6qxiHjvKh0JKY4si2alobnbdP
VSxCjiNWQ/ZV1Zc/lrSjNlinoTAbHeeC/SeSxzs5eSnjntOMGWz//pNdYuYy5qWO
ehRhdwIDAQABo4IBazCCAWcwCQYDVR0TBAIwADAtBglghkgBhvhCAQ0EIBYeRWFz
eS1SU0EgR2VuZXJhdGVkIENlcnRpZmljYXRlMB0GA1UdDgQWBBQeqG2wUYsXiiB0
k7E5JIuuXPoQ2DCB6QYDVR0jBIHhMIHegBTvOI0UUFinW02cF3L837msp1GwEKGB
uqSBtzCBtDELMAkGA1UEBhMCVVMxCzAJBgNVBAgTAkNBMRUwEwYDVQQHEwxTYW5G
cmFuY2lzY28xFTATBgNVBAoTDFBpeGdsbywgSW5jLjEQMA4GA1UECxMHVlBOLUNJ
RTEaMBgGA1UEAxMRdHVubmVsLnBpeGdsby5jb20xHDAaBgNVBCkTE0JhbGEgQ2hh
bmRyYXNla2FyYW4xHjAcBgkqhkiG9w0BCQEWD2JhbGFAcGl4Z2xvLmNvbYIJAKbb
xoOA5qB5MBMGA1UdJQQMMAoGCCsGAQUFBwMCMAsGA1UdDwQEAwIHgDANBgkqhkiG
9w0BAQUFAAOCAgEAIY1qR4oxXY3vGYgvl3qOYYX2d5J5kjUqjsSEhrUYLvV0/1u6
Yq2Y+sYDoX3aIwqRvyMr1uhfhMmT4DjxiTnWVSY7bmo0c+72FGX+PHdMmcPGa9xX
8HWWm3NcsjwG4dkCkOqZigK0e8vCctVN6DtKBos0g1Cg5Ve2A6hAjdOHLL0IBnlL
fOmtw5bZVvrsSLFVIk40KxvX/pU0zV2WvjtPsuIQ1Ul4zN90fQdUxKgOT8/9vGrE
08vanjzNhv4YsmBKtpGkXpoj6cUEQH46/zlWvcmOV/eWLnQw51xJNt4CcUGaUBRW
DwqV5ZhIqGK+KPAWhk9Otl8nj99ioNLq9qhUXwn0omyA0O6xkzx3SUV0DMkA5Gio
4pKoGo3Rw34o3N8FG9NuNbYztaDP1iUczodlrwiW6Zobs9s6hGt1yk49AGpSSuEk
EAIVTJKWr7DKxh7/QHXudGWjuD+yq6ih/qwt/NciwrzZwethEZXxtbprEj6KCXkD
lIcpJDLWGx/YJFHpUgidURIs5bhYD/pdwOoh8tZzx15tbio2j1IwgYednHZarJ6T
bdgfFPVNcaM2HX9WLCgwRqk99ADWGDaAvStE9/ercn1FVHW2oUp/O8U0zwm/Y+Nx
BuujFoC9fbju6cAr64DidrmP+D0eWBBrHMDhENa4FO3QugtdvqOLTYGr88Q=
-----END CERTIFICATE-----
