Certificate:
    Data:
        Version: 3 (0x2)
        Serial Number: 329 (0x149)
    Signature Algorithm: sha1WithRSAEncryption
        Issuer: C=US, ST=CA, L=SanFrancisco, O=Pixglo, Inc., OU=VPN-CIE, CN=tunnel.pixglo.com/name=Bala Chandrasekaran/emailAddress=bala@pixglo.com
        Validity
            Not Before: Feb 14 06:30:26 2018 GMT
            Not After : Feb 12 06:30:26 2028 GMT
        Subject: C=US, ST=CA, L=SanFrancisco, O=Pixglo, Inc., OU=VPN-CIE, CN=cie328/name=Bala Chandrasekaran/emailAddress=bala@pixglo.com
        Subject Public Key Info:
            Public Key Algorithm: rsaEncryption
                Public-Key: (4096 bit)
                Modulus:
                    00:b5:35:e0:ec:bd:8a:3e:a6:01:9c:7d:ad:c0:ed:
                    1f:5d:86:9c:a4:ef:77:11:14:76:34:d1:6b:31:29:
                    fe:e4:2c:16:f0:81:98:0e:b7:17:23:de:f0:89:d4:
                    ec:f3:0a:09:98:db:73:c8:73:05:16:a6:6a:08:75:
                    03:fb:53:79:89:5f:f2:5d:15:eb:b6:ef:49:49:40:
                    f1:4d:de:cf:22:9c:63:18:73:5b:cc:58:cf:be:a4:
                    1b:4a:42:4d:3b:94:9a:0d:b2:25:ef:23:b7:23:87:
                    2b:11:23:75:e1:20:be:25:f5:aa:81:83:7d:12:54:
                    dc:7e:a9:a1:9d:73:c4:5c:55:99:17:0e:1d:b6:cb:
                    d9:6c:b7:ad:dc:6f:07:5a:34:9a:11:28:e2:97:3c:
                    fd:c4:d9:16:d7:9f:74:a0:dc:41:c3:fa:e2:66:62:
                    c1:0e:b5:3b:2c:87:9e:0a:ac:34:fd:03:ab:a3:bf:
                    3c:a0:1e:8c:38:91:57:67:0e:60:9a:dc:24:dd:7b:
                    c7:e6:64:7a:70:56:c3:c3:3c:9d:cb:91:d4:f0:1c:
                    4e:e6:da:46:5e:e2:b5:e9:1b:14:98:1c:04:49:ee:
                    24:08:dd:d0:76:72:da:d9:b1:84:86:b2:df:41:a8:
                    3d:e2:4f:04:83:59:63:48:d1:aa:a4:8b:94:c1:a3:
                    56:89:a3:66:0a:24:11:96:9b:4f:73:d4:20:03:d7:
                    d8:69:23:96:bd:24:21:34:63:5c:2c:8c:4a:de:71:
                    c6:d5:29:2a:ac:b6:1c:99:f1:80:a1:92:9a:60:62:
                    63:0c:b5:52:64:24:13:65:b8:b8:d0:84:40:fd:fa:
                    4c:25:05:e3:63:d8:3b:fb:5f:90:aa:d4:8b:c7:6a:
                    b9:73:70:21:f4:16:f2:bc:15:16:ec:5f:ea:b9:3e:
                    04:7c:39:4d:e5:19:47:e9:a4:94:05:70:fd:31:69:
                    e4:fe:89:f9:e8:eb:33:05:ef:e6:0e:e6:67:b5:f5:
                    66:25:b5:16:33:43:7b:65:05:ec:a1:33:10:3e:bb:
                    8d:b9:53:bf:c4:75:6b:fc:74:1b:b4:a4:c9:19:56:
                    45:9e:28:e9:5a:92:c2:e6:b2:2b:17:b7:ef:c0:fa:
                    cd:3d:8a:68:91:e9:88:3d:c3:d1:e6:88:d4:93:6c:
                    84:d6:63:d6:19:63:74:ec:41:c4:91:2f:08:7b:5b:
                    c1:9c:cc:14:9d:de:79:97:c4:66:79:0e:0c:72:a9:
                    e4:12:63:26:1e:95:63:be:b8:ea:5c:96:01:1c:00:
                    26:83:a0:e7:93:11:5c:5d:ae:2c:5e:ac:c6:29:77:
                    a8:73:ff:63:dd:a8:c6:a1:9b:9c:fe:58:94:30:6e:
                    42:9c:49
                Exponent: 65537 (0x10001)
        X509v3 extensions:
            X509v3 Basic Constraints: 
                CA:FALSE
            Netscape Comment: 
                Easy-RSA Generated Certificate
            X509v3 Subject Key Identifier: 
                62:CE:50:2C:97:D8:30:ED:80:B9:44:08:55:EA:73:CF:1C:A9:A0:EF
            X509v3 Authority Key Identifier: 
                keyid:EF:38:8D:14:50:58:A7:5B:4D:9C:17:72:FC:DF:B9:AC:A7:51:B0:10
                DirName:/C=US/ST=CA/L=SanFrancisco/O=Pixglo, Inc./OU=VPN-CIE/CN=tunnel.pixglo.com/name=Bala Chandrasekaran/emailAddress=bala@pixglo.com
                serial:A6:DB:C6:83:80:E6:A0:79

            X509v3 Extended Key Usage: 
                TLS Web Client Authentication
            X509v3 Key Usage: 
                Digital Signature
    Signature Algorithm: sha1WithRSAEncryption
         11:00:04:70:12:b2:37:b4:65:52:ea:7f:dd:44:f5:4a:59:14:
         ad:b9:e9:b5:df:ea:49:ef:b3:34:b9:92:06:c0:bb:f4:97:40:
         a0:73:a8:59:52:3e:34:cf:3d:6c:c5:43:05:d4:39:23:21:42:
         83:4a:98:d5:c1:62:52:17:ac:43:2d:f9:f3:ef:a3:87:4a:ba:
         6e:21:ec:9b:8e:90:db:55:16:0d:48:f7:9d:17:da:d8:0e:63:
         75:c7:0b:a0:28:9f:45:a1:28:67:a1:69:1c:8d:d5:20:16:40:
         b0:58:86:48:22:cf:da:cd:bf:f6:9f:b0:db:f8:08:fb:1a:8b:
         02:74:4f:61:02:5e:d8:84:4e:49:e0:52:43:11:92:0a:b2:e6:
         05:58:ff:e1:00:19:61:53:64:8e:f3:58:f0:4a:aa:c8:cf:e7:
         f8:e1:9a:cf:d7:6c:bd:19:94:00:3b:a5:81:f9:06:44:f8:7f:
         17:f6:f2:93:6c:07:b2:e0:d4:30:ac:4f:2b:54:2f:67:08:0b:
         d0:11:44:1d:1e:0c:25:9e:6a:d1:68:da:5c:f8:97:7e:01:a6:
         63:f5:e1:9c:d9:98:87:01:37:71:04:48:e1:35:57:30:94:f1:
         cf:19:66:c6:cd:8e:ce:9e:2e:ae:8f:8a:9e:59:ce:09:93:34:
         1d:34:51:27:d8:52:6d:35:8f:23:18:fd:32:d4:54:68:68:7b:
         60:02:b4:3f:a5:3e:5c:de:ca:2c:a3:43:ca:a6:b7:1a:9c:c1:
         d0:df:6a:3f:d8:f6:da:a7:f4:ff:ef:0a:47:a7:69:39:e5:52:
         d9:07:31:ea:fb:86:e6:be:6e:12:ee:99:5e:b2:46:65:28:a6:
         50:a8:d3:86:d7:de:15:c6:0f:14:5c:fe:63:1f:38:13:14:c4:
         38:fd:31:b7:70:38:40:aa:57:d6:a8:38:ae:d3:76:cc:d0:24:
         e1:38:9b:d5:d9:c4:04:5b:bd:2d:0c:82:d1:95:3f:0f:92:62:
         fc:69:53:c4:2a:3e:4e:cc:8b:fa:07:c6:d9:37:a6:17:3a:b2:
         6c:bb:8a:40:99:f9:ed:03:e0:0c:dc:a7:6f:31:67:1a:78:34:
         18:a5:fd:03:5d:ed:bc:c7:5b:1a:a5:bd:7b:4a:4a:29:57:be:
         16:d7:48:55:7d:04:01:1e:1a:12:d9:75:40:21:0e:79:f2:e3:
         ab:8a:f2:2a:82:37:d8:51:14:51:a4:52:12:42:0d:0e:b3:84:
         67:b9:23:1c:a2:48:3f:75:1f:62:a4:29:30:08:16:64:d6:7e:
         df:0e:2b:56:b0:02:26:0b:7a:da:48:14:d4:93:62:d8:7f:ad:
         ab:d6:97:10:cc:3a:cd:65
-----BEGIN CERTIFICATE-----
MIIHSDCCBTCgAwIBAgICAUkwDQYJKoZIhvcNAQEFBQAwgbQxCzAJBgNVBAYTAlVT
MQswCQYDVQQIEwJDQTEVMBMGA1UEBxMMU2FuRnJhbmNpc2NvMRUwEwYDVQQKEwxQ
aXhnbG8sIEluYy4xEDAOBgNVBAsTB1ZQTi1DSUUxGjAYBgNVBAMTEXR1bm5lbC5w
aXhnbG8uY29tMRwwGgYDVQQpExNCYWxhIENoYW5kcmFzZWthcmFuMR4wHAYJKoZI
hvcNAQkBFg9iYWxhQHBpeGdsby5jb20wHhcNMTgwMjE0MDYzMDI2WhcNMjgwMjEy
MDYzMDI2WjCBqTELMAkGA1UEBhMCVVMxCzAJBgNVBAgTAkNBMRUwEwYDVQQHEwxT
YW5GcmFuY2lzY28xFTATBgNVBAoTDFBpeGdsbywgSW5jLjEQMA4GA1UECxMHVlBO
LUNJRTEPMA0GA1UEAxMGY2llMzI4MRwwGgYDVQQpExNCYWxhIENoYW5kcmFzZWth
cmFuMR4wHAYJKoZIhvcNAQkBFg9iYWxhQHBpeGdsby5jb20wggIiMA0GCSqGSIb3
DQEBAQUAA4ICDwAwggIKAoICAQC1NeDsvYo+pgGcfa3A7R9dhpyk73cRFHY00Wsx
Kf7kLBbwgZgOtxcj3vCJ1OzzCgmY23PIcwUWpmoIdQP7U3mJX/JdFeu270lJQPFN
3s8inGMYc1vMWM++pBtKQk07lJoNsiXvI7cjhysRI3XhIL4l9aqBg30SVNx+qaGd
c8RcVZkXDh22y9lst63cbwdaNJoRKOKXPP3E2RbXn3Sg3EHD+uJmYsEOtTssh54K
rDT9A6ujvzygHow4kVdnDmCa3CTde8fmZHpwVsPDPJ3LkdTwHE7m2kZe4rXpGxSY
HARJ7iQI3dB2ctrZsYSGst9BqD3iTwSDWWNI0aqki5TBo1aJo2YKJBGWm09z1CAD
19hpI5a9JCE0Y1wsjEreccbVKSqsthyZ8YChkppgYmMMtVJkJBNluLjQhED9+kwl
BeNj2Dv7X5Cq1IvHarlzcCH0FvK8FRbsX+q5PgR8OU3lGUfppJQFcP0xaeT+ifno
6zMF7+YO5me19WYltRYzQ3tlBeyhMxA+u425U7/EdWv8dBu0pMkZVkWeKOlaksLm
sisXt+/A+s09imiR6Yg9w9HmiNSTbITWY9YZY3TsQcSRLwh7W8GczBSd3nmXxGZ5
DgxyqeQSYyYelWO+uOpclgEcACaDoOeTEVxdrixerMYpd6hz/2PdqMahm5z+WJQw
bkKcSQIDAQABo4IBazCCAWcwCQYDVR0TBAIwADAtBglghkgBhvhCAQ0EIBYeRWFz
eS1SU0EgR2VuZXJhdGVkIENlcnRpZmljYXRlMB0GA1UdDgQWBBRizlAsl9gw7YC5
RAhV6nPPHKmg7zCB6QYDVR0jBIHhMIHegBTvOI0UUFinW02cF3L837msp1GwEKGB
uqSBtzCBtDELMAkGA1UEBhMCVVMxCzAJBgNVBAgTAkNBMRUwEwYDVQQHEwxTYW5G
cmFuY2lzY28xFTATBgNVBAoTDFBpeGdsbywgSW5jLjEQMA4GA1UECxMHVlBOLUNJ
RTEaMBgGA1UEAxMRdHVubmVsLnBpeGdsby5jb20xHDAaBgNVBCkTE0JhbGEgQ2hh
bmRyYXNla2FyYW4xHjAcBgkqhkiG9w0BCQEWD2JhbGFAcGl4Z2xvLmNvbYIJAKbb
xoOA5qB5MBMGA1UdJQQMMAoGCCsGAQUFBwMCMAsGA1UdDwQEAwIHgDANBgkqhkiG
9w0BAQUFAAOCAgEAEQAEcBKyN7RlUup/3UT1SlkUrbnptd/qSe+zNLmSBsC79JdA
oHOoWVI+NM89bMVDBdQ5IyFCg0qY1cFiUhesQy358++jh0q6biHsm46Q21UWDUj3
nRfa2A5jdccLoCifRaEoZ6FpHI3VIBZAsFiGSCLP2s2/9p+w2/gI+xqLAnRPYQJe
2IROSeBSQxGSCrLmBVj/4QAZYVNkjvNY8EqqyM/n+OGaz9dsvRmUADulgfkGRPh/
F/byk2wHsuDUMKxPK1QvZwgL0BFEHR4MJZ5q0WjaXPiXfgGmY/XhnNmYhwE3cQRI
4TVXMJTxzxlmxs2Ozp4uro+KnlnOCZM0HTRRJ9hSbTWPIxj9MtRUaGh7YAK0P6U+
XN7KLKNDyqa3GpzB0N9qP9j22qf0/+8KR6dpOeVS2Qcx6vuG5r5uEu6ZXrJGZSim
UKjThtfeFcYPFFz+Yx84ExTEOP0xt3A4QKpX1qg4rtN2zNAk4Tib1dnEBFu9LQyC
0ZU/D5Ji/GlTxCo+TsyL+gfG2TemFzqybLuKQJn57QPgDNynbzFnGng0GKX9A13t
vMdbGqW9e0pKKVe+FtdIVX0EAR4aEtl1QCEOefLjq4ryKoI32FEUUaRSEkINDrOE
Z7kjHKJIP3UfYqQpMAgWZNZ+3w4rVrACJgt62kgU1JNi2H+tq9aXEMw6zWU=
-----END CERTIFICATE-----
