Certificate:
    Data:
        Version: 3 (0x2)
        Serial Number: 377 (0x179)
    Signature Algorithm: sha1WithRSAEncryption
        Issuer: C=US, ST=CA, L=SanFrancisco, O=Pixglo, Inc., OU=VPN-CIE, CN=tunnel.pixglo.com/name=Bala Chandrasekaran/emailAddress=bala@pixglo.com
        Validity
            Not Before: Feb 14 06:31:52 2018 GMT
            Not After : Feb 12 06:31:52 2028 GMT
        Subject: C=US, ST=CA, L=SanFrancisco, O=Pixglo, Inc., OU=VPN-CIE, CN=cie376/name=Bala Chandrasekaran/emailAddress=bala@pixglo.com
        Subject Public Key Info:
            Public Key Algorithm: rsaEncryption
                Public-Key: (4096 bit)
                Modulus:
                    00:d1:21:bc:eb:17:a4:fc:bf:27:6c:d3:2a:7a:44:
                    e8:9f:ca:97:98:b6:1b:f0:ec:bb:00:48:86:34:1f:
                    99:54:b5:95:08:dc:33:9e:94:0c:e0:c2:db:c3:c4:
                    b3:82:b4:fb:72:6a:61:8c:25:86:09:1e:b4:af:8a:
                    a8:53:63:7d:ce:f0:7b:d5:e3:a4:0b:3b:58:c0:fa:
                    39:f9:e7:f9:0b:9f:dc:0e:5a:3d:f9:a4:80:18:c3:
                    76:7e:c2:1b:a4:e2:9b:89:4f:f6:03:7e:a3:ea:56:
                    9a:36:1a:76:ae:55:66:4a:7b:17:c1:76:46:cf:4f:
                    94:ac:b0:9e:69:0e:a1:f6:a3:ca:76:ea:cc:5d:00:
                    35:e8:1b:03:8e:3f:86:e5:89:ed:1a:65:fb:57:5c:
                    8b:76:b4:bd:9c:a3:a0:e7:f2:fb:80:aa:e2:14:3c:
                    82:6a:28:83:30:bd:7c:d9:fe:56:c6:88:96:64:53:
                    70:71:3b:31:a5:13:87:9e:0e:1b:44:82:8a:b3:36:
                    2d:8e:79:9a:7a:0f:8b:2f:d4:32:43:da:2b:c3:35:
                    e3:85:52:63:df:86:fd:33:7d:b5:c5:c0:e0:08:38:
                    3c:b8:9a:fa:52:00:8b:1e:dc:45:c4:89:f7:56:ee:
                    a2:8a:27:1f:60:00:74:64:c9:bb:06:4d:cd:c5:51:
                    7f:b0:f4:aa:8b:46:19:9c:5e:35:60:64:81:99:6c:
                    55:af:54:d5:d3:d6:76:1f:ff:8b:ff:85:bd:44:eb:
                    65:46:ed:de:17:a3:fb:88:61:5b:ff:59:0e:97:3b:
                    b3:65:c8:b4:3f:af:8e:7c:c8:25:32:80:70:e0:92:
                    0f:0d:b3:81:d2:00:f6:9f:de:1f:0c:03:46:8f:ad:
                    32:0a:68:6e:6f:ce:cf:07:7b:ee:56:f8:e1:0c:da:
                    62:fd:47:2f:76:77:de:ff:02:c4:f9:b2:a2:c1:8e:
                    b0:80:b6:17:11:fd:db:75:55:a5:e6:18:94:7e:18:
                    41:a2:4a:f7:ad:ee:27:96:6f:ef:7f:7d:07:bc:d4:
                    74:eb:0e:f3:81:f2:98:69:e1:92:ed:1b:34:f1:f4:
                    55:40:99:13:65:aa:32:e3:98:ea:01:21:7e:74:f0:
                    be:b2:41:7e:42:1c:4b:1c:d8:29:58:07:67:41:11:
                    f9:8c:0b:47:3c:78:18:44:7b:f4:0a:61:61:3a:4e:
                    9d:98:b7:2e:a6:ed:27:01:2f:ed:5d:79:ba:15:1d:
                    b7:98:9f:94:a1:62:cf:e5:69:ec:7c:49:42:ca:8c:
                    15:5d:b0:b5:f1:84:ac:7b:b2:55:02:df:ce:0c:c2:
                    cb:78:bb:35:d2:5e:6f:98:9c:06:8b:59:e8:1c:04:
                    46:01:bb
                Exponent: 65537 (0x10001)
        X509v3 extensions:
            X509v3 Basic Constraints: 
                CA:FALSE
            Netscape Comment: 
                Easy-RSA Generated Certificate
            X509v3 Subject Key Identifier: 
                BB:BB:1E:D6:66:EF:91:FE:91:0F:31:DC:93:6F:01:C7:EA:49:53:3B
            X509v3 Authority Key Identifier: 
                keyid:EF:38:8D:14:50:58:A7:5B:4D:9C:17:72:FC:DF:B9:AC:A7:51:B0:10
                DirName:/C=US/ST=CA/L=SanFrancisco/O=Pixglo, Inc./OU=VPN-CIE/CN=tunnel.pixglo.com/name=Bala Chandrasekaran/emailAddress=bala@pixglo.com
                serial:A6:DB:C6:83:80:E6:A0:79

            X509v3 Extended Key Usage: 
                TLS Web Client Authentication
            X509v3 Key Usage: 
                Digital Signature
    Signature Algorithm: sha1WithRSAEncryption
         57:4f:d1:0f:e8:39:aa:60:7e:d0:d2:e9:39:28:4f:0a:db:ff:
         26:d2:d9:6b:bd:59:0a:c2:dd:2f:67:86:45:ee:a0:16:a3:63:
         67:78:3a:81:f4:ae:cd:2f:76:41:fd:03:d4:86:bd:0a:cc:4e:
         88:7a:3b:b2:b7:4b:a8:d8:90:35:bd:34:f5:3d:b4:fc:2c:31:
         47:39:0f:b3:00:94:b0:4a:8d:0b:91:42:74:44:83:3f:18:eb:
         47:a6:05:26:1d:d4:b5:4e:88:64:b6:28:d5:76:6c:8f:68:cb:
         1a:f1:7d:7b:41:34:c6:4a:ed:a6:d9:6a:6a:3e:e8:6c:27:d4:
         69:18:88:4e:ee:0d:97:d0:c9:ef:9c:e8:4e:d3:c0:b8:9c:6d:
         26:01:a9:17:55:cc:67:e5:d0:91:18:97:bc:a2:cd:ee:3d:fb:
         d3:49:9f:5a:0a:f8:b2:4f:3d:ea:7a:96:d5:3c:93:6f:5b:b0:
         0b:b4:2b:3f:8f:32:7c:6a:43:fe:39:55:62:44:97:15:93:f8:
         f5:85:74:58:75:3b:24:0a:83:fc:ef:01:e2:9d:90:f1:82:68:
         bc:37:3a:26:6d:fb:0b:0b:25:8f:ad:35:76:ba:fb:1d:e2:1e:
         51:30:63:25:e1:41:4b:84:83:9a:7d:27:ab:48:21:33:af:81:
         32:92:54:cf:1a:5a:44:e2:ff:79:31:d8:64:d2:69:e8:e4:b3:
         8b:66:5a:e6:86:75:84:a6:52:63:33:1e:1d:e2:d2:c8:25:7c:
         f3:e7:0b:e4:08:90:58:5a:99:7a:5e:8c:78:c3:db:c9:35:4a:
         9e:d4:73:24:fb:79:65:4d:00:71:4e:42:79:cb:58:ef:20:37:
         40:c8:e5:81:36:c7:5b:08:31:9a:8c:12:dc:95:00:76:31:9f:
         6b:76:7f:a9:50:37:20:cb:20:7f:19:67:f4:fa:08:7b:a1:b0:
         f8:cc:a7:1c:39:14:af:56:dc:78:14:c0:78:e4:c4:88:c1:0f:
         bc:2f:79:4a:85:e9:e6:dd:79:c1:c3:55:62:81:e1:19:c2:e7:
         06:90:4c:dc:07:37:97:52:c9:64:57:70:26:89:c8:40:da:72:
         c9:33:7f:53:9b:13:11:fc:ec:c1:f4:37:f6:31:68:e6:b9:81:
         e1:3b:37:0c:77:94:bc:7a:8c:df:51:45:a4:1b:2c:5a:89:d2:
         73:a9:70:54:26:98:59:0b:ee:45:9b:30:a7:76:bf:12:0a:99:
         a0:79:6d:d8:5f:c3:07:9f:32:d2:fe:4b:24:58:00:99:38:a5:
         22:b6:f2:7e:cb:6b:39:8e:28:cd:6c:84:39:87:de:8d:45:d3:
         2f:e5:22:e7:7b:00:b0:a6
-----BEGIN CERTIFICATE-----
MIIHSDCCBTCgAwIBAgICAXkwDQYJKoZIhvcNAQEFBQAwgbQxCzAJBgNVBAYTAlVT
MQswCQYDVQQIEwJDQTEVMBMGA1UEBxMMU2FuRnJhbmNpc2NvMRUwEwYDVQQKEwxQ
aXhnbG8sIEluYy4xEDAOBgNVBAsTB1ZQTi1DSUUxGjAYBgNVBAMTEXR1bm5lbC5w
aXhnbG8uY29tMRwwGgYDVQQpExNCYWxhIENoYW5kcmFzZWthcmFuMR4wHAYJKoZI
hvcNAQkBFg9iYWxhQHBpeGdsby5jb20wHhcNMTgwMjE0MDYzMTUyWhcNMjgwMjEy
MDYzMTUyWjCBqTELMAkGA1UEBhMCVVMxCzAJBgNVBAgTAkNBMRUwEwYDVQQHEwxT
YW5GcmFuY2lzY28xFTATBgNVBAoTDFBpeGdsbywgSW5jLjEQMA4GA1UECxMHVlBO
LUNJRTEPMA0GA1UEAxMGY2llMzc2MRwwGgYDVQQpExNCYWxhIENoYW5kcmFzZWth
cmFuMR4wHAYJKoZIhvcNAQkBFg9iYWxhQHBpeGdsby5jb20wggIiMA0GCSqGSIb3
DQEBAQUAA4ICDwAwggIKAoICAQDRIbzrF6T8vyds0yp6ROifypeYthvw7LsASIY0
H5lUtZUI3DOelAzgwtvDxLOCtPtyamGMJYYJHrSviqhTY33O8HvV46QLO1jA+jn5
5/kLn9wOWj35pIAYw3Z+whuk4puJT/YDfqPqVpo2GnauVWZKexfBdkbPT5SssJ5p
DqH2o8p26sxdADXoGwOOP4blie0aZftXXIt2tL2co6Dn8vuAquIUPIJqKIMwvXzZ
/lbGiJZkU3BxOzGlE4eeDhtEgoqzNi2OeZp6D4sv1DJD2ivDNeOFUmPfhv0zfbXF
wOAIODy4mvpSAIse3EXEifdW7qKKJx9gAHRkybsGTc3FUX+w9KqLRhmcXjVgZIGZ
bFWvVNXT1nYf/4v/hb1E62VG7d4Xo/uIYVv/WQ6XO7NlyLQ/r458yCUygHDgkg8N
s4HSAPaf3h8MA0aPrTIKaG5vzs8He+5W+OEM2mL9Ry92d97/AsT5sqLBjrCAthcR
/dt1VaXmGJR+GEGiSvet7ieWb+9/fQe81HTrDvOB8php4ZLtGzTx9FVAmRNlqjLj
mOoBIX508L6yQX5CHEsc2ClYB2dBEfmMC0c8eBhEe/QKYWE6Tp2Yty6m7ScBL+1d
eboVHbeYn5ShYs/laex8SULKjBVdsLXxhKx7slUC384Mwst4uzXSXm+YnAaLWegc
BEYBuwIDAQABo4IBazCCAWcwCQYDVR0TBAIwADAtBglghkgBhvhCAQ0EIBYeRWFz
eS1SU0EgR2VuZXJhdGVkIENlcnRpZmljYXRlMB0GA1UdDgQWBBS7ux7WZu+R/pEP
MdyTbwHH6klTOzCB6QYDVR0jBIHhMIHegBTvOI0UUFinW02cF3L837msp1GwEKGB
uqSBtzCBtDELMAkGA1UEBhMCVVMxCzAJBgNVBAgTAkNBMRUwEwYDVQQHEwxTYW5G
cmFuY2lzY28xFTATBgNVBAoTDFBpeGdsbywgSW5jLjEQMA4GA1UECxMHVlBOLUNJ
RTEaMBgGA1UEAxMRdHVubmVsLnBpeGdsby5jb20xHDAaBgNVBCkTE0JhbGEgQ2hh
bmRyYXNla2FyYW4xHjAcBgkqhkiG9w0BCQEWD2JhbGFAcGl4Z2xvLmNvbYIJAKbb
xoOA5qB5MBMGA1UdJQQMMAoGCCsGAQUFBwMCMAsGA1UdDwQEAwIHgDANBgkqhkiG
9w0BAQUFAAOCAgEAV0/RD+g5qmB+0NLpOShPCtv/JtLZa71ZCsLdL2eGRe6gFqNj
Z3g6gfSuzS92Qf0D1Ia9CsxOiHo7srdLqNiQNb009T20/CwxRzkPswCUsEqNC5FC
dESDPxjrR6YFJh3UtU6IZLYo1XZsj2jLGvF9e0E0xkrtptlqaj7obCfUaRiITu4N
l9DJ75zoTtPAuJxtJgGpF1XMZ+XQkRiXvKLN7j3700mfWgr4sk896nqW1TyTb1uw
C7QrP48yfGpD/jlVYkSXFZP49YV0WHU7JAqD/O8B4p2Q8YJovDc6Jm37Cwslj601
drr7HeIeUTBjJeFBS4SDmn0nq0ghM6+BMpJUzxpaROL/eTHYZNJp6OSzi2Za5oZ1
hKZSYzMeHeLSyCV88+cL5AiQWFqZel6MeMPbyTVKntRzJPt5ZU0AcU5CectY7yA3
QMjlgTbHWwgxmowS3JUAdjGfa3Z/qVA3IMsgfxln9PoIe6Gw+MynHDkUr1bceBTA
eOTEiMEPvC95SoXp5t15wcNVYoHhGcLnBpBM3Ac3l1LJZFdwJonIQNpyyTN/U5sT
EfzswfQ39jFo5rmB4Ts3DHeUvHqM31FFpBssWonSc6lwVCaYWQvuRZswp3a/EgqZ
oHlt2F/DB58y0v5LJFgAmTilIrbyfstrOY4ozWyEOYfejUXTL+Ui53sAsKY=
-----END CERTIFICATE-----
