Certificate:
    Data:
        Version: 3 (0x2)
        Serial Number: 312 (0x138)
    Signature Algorithm: sha1WithRSAEncryption
        Issuer: C=US, ST=CA, L=SanFrancisco, O=Pixglo, Inc., OU=VPN-CIE, CN=tunnel.pixglo.com/name=Bala Chandrasekaran/emailAddress=bala@pixglo.com
        Validity
            Not Before: Feb 14 06:30:09 2018 GMT
            Not After : Feb 12 06:30:09 2028 GMT
        Subject: C=US, ST=CA, L=SanFrancisco, O=Pixglo, Inc., OU=VPN-CIE, CN=cie311/name=Bala Chandrasekaran/emailAddress=bala@pixglo.com
        Subject Public Key Info:
            Public Key Algorithm: rsaEncryption
                Public-Key: (4096 bit)
                Modulus:
                    00:e3:c4:7b:8a:73:66:74:fd:44:1d:16:e0:3c:e5:
                    84:f3:30:9c:cb:24:e2:ea:5e:70:a9:dc:7a:50:61:
                    2b:4a:6e:98:c8:2e:27:d4:cb:d0:e6:c0:eb:27:cb:
                    20:dd:87:7a:55:39:bb:ab:4c:38:67:3b:cc:af:bb:
                    fc:28:c6:6a:97:44:6c:d4:bf:c4:fe:ec:b0:30:97:
                    ed:51:13:d3:99:b8:84:7c:b5:b0:4f:51:3d:04:a0:
                    e2:14:83:54:2e:47:de:82:5e:78:db:9b:0d:1a:c5:
                    21:a4:7a:78:ce:97:9f:d3:54:2f:62:7f:56:8b:63:
                    21:64:24:6e:7c:8c:e6:3e:9f:89:25:92:65:52:65:
                    c9:1f:59:c5:5a:a6:56:67:66:e5:54:f6:6c:0e:7e:
                    8f:ce:6b:6d:54:71:9f:cb:0b:29:d2:a9:54:68:30:
                    07:c2:72:c5:9e:8a:c2:30:ce:23:c8:c6:2b:5e:3a:
                    7b:09:6a:49:01:49:35:c7:1c:8b:46:d3:2e:67:7e:
                    6d:20:8e:e7:ca:c9:a3:dd:f5:ad:6e:38:8d:e4:a4:
                    f2:21:4a:fc:15:d3:1e:56:2c:4f:45:f8:97:7e:d4:
                    a4:c0:4c:c6:81:fe:c4:f6:a9:2d:c9:16:8c:d3:fd:
                    a3:1e:61:bc:17:e2:d3:1a:5f:10:93:16:6d:b3:30:
                    4a:8f:2f:50:92:a7:32:57:1f:83:52:0f:21:04:ba:
                    9a:33:5e:37:85:88:f2:ba:31:74:b1:8f:42:28:e6:
                    66:5d:33:06:ad:fd:e2:07:be:eb:ba:25:91:90:d4:
                    8c:ba:a7:5a:79:f4:32:61:aa:fd:41:14:a2:ce:e8:
                    11:3f:fb:34:0d:b5:3c:06:66:47:b5:73:88:d0:ec:
                    3e:1f:14:b6:80:72:cd:ca:ef:4a:4a:5c:88:15:52:
                    bc:2c:e4:fe:84:94:4f:d7:f5:08:c4:8d:1c:19:ec:
                    09:01:44:1c:b1:12:86:36:c3:48:17:e7:f6:c2:03:
                    0a:9f:2c:09:99:66:14:4e:7f:1a:6f:df:3e:43:9b:
                    ed:77:13:74:0e:90:d1:ef:2b:1e:ca:11:a3:bc:99:
                    45:89:91:e9:25:c6:af:32:03:d8:d9:72:b7:aa:c4:
                    e1:bc:57:bd:08:d8:54:9a:3b:b5:1c:94:f9:ac:18:
                    2e:11:9e:4e:43:18:2c:1f:4b:3c:6e:79:d7:cf:78:
                    1d:96:d2:23:4c:78:43:c8:d7:e5:da:23:83:0a:9f:
                    a0:f5:98:66:ca:f7:08:d8:d9:98:34:7b:6f:ee:a0:
                    ed:77:0e:02:c4:5f:48:fa:8c:99:ea:21:98:0e:ce:
                    9f:54:0f:34:6f:66:31:2d:2d:a0:e8:26:85:9d:9d:
                    c0:3a:4d
                Exponent: 65537 (0x10001)
        X509v3 extensions:
            X509v3 Basic Constraints: 
                CA:FALSE
            Netscape Comment: 
                Easy-RSA Generated Certificate
            X509v3 Subject Key Identifier: 
                C3:3B:76:EB:E9:84:C5:19:B9:E2:C6:11:70:38:46:72:69:A8:4D:27
            X509v3 Authority Key Identifier: 
                keyid:EF:38:8D:14:50:58:A7:5B:4D:9C:17:72:FC:DF:B9:AC:A7:51:B0:10
                DirName:/C=US/ST=CA/L=SanFrancisco/O=Pixglo, Inc./OU=VPN-CIE/CN=tunnel.pixglo.com/name=Bala Chandrasekaran/emailAddress=bala@pixglo.com
                serial:A6:DB:C6:83:80:E6:A0:79

            X509v3 Extended Key Usage: 
                TLS Web Client Authentication
            X509v3 Key Usage: 
                Digital Signature
    Signature Algorithm: sha1WithRSAEncryption
         20:ee:89:f7:6b:82:0a:60:93:60:37:55:68:84:00:a6:a2:91:
         a2:a4:44:da:07:0d:fe:83:a8:0b:78:5c:ec:19:51:da:2d:5f:
         fe:5c:eb:a9:46:75:dc:57:3d:68:62:de:f6:87:85:02:6a:85:
         be:45:69:ad:f8:73:3e:1b:d6:63:c9:c6:93:a8:c2:29:55:50:
         73:3a:f1:70:c8:f4:88:11:47:19:e3:6c:5c:06:c6:f5:c5:97:
         2c:cb:4e:1a:37:18:4a:5b:57:2a:6a:eb:5d:53:21:84:27:62:
         25:74:90:d5:f1:8c:72:8f:c0:7a:32:d5:a7:89:1f:51:84:15:
         8c:f8:ea:e7:24:31:ba:b6:e1:f4:39:5d:fc:e2:13:09:a6:46:
         e4:97:7d:38:77:b7:c9:e6:66:a4:7a:ba:dd:fd:66:92:d8:19:
         d7:f2:9d:66:4c:46:b7:de:49:59:af:65:42:5b:0a:20:ac:c3:
         26:8f:ec:1f:8e:d3:ee:d3:5d:4e:71:6f:fe:83:67:bf:ce:86:
         33:81:f1:2c:86:98:e1:ab:04:7e:3b:2b:a1:0f:39:d1:87:dc:
         73:f9:a5:48:5c:1b:bb:11:a4:d7:b6:13:e4:c1:e8:07:a2:11:
         5d:e7:25:6c:e3:ab:01:09:28:ec:f5:27:22:02:15:9f:3e:de:
         0a:18:6d:0c:c7:9b:40:0c:2c:a2:10:8d:e9:3c:79:12:88:8f:
         12:de:e7:4a:8c:c7:c5:28:53:58:74:a2:bd:0d:05:c7:d4:2d:
         43:23:25:18:76:ec:00:8e:6e:f7:6b:c0:3d:6d:38:7c:ea:69:
         7c:0e:2a:d4:1b:44:b8:18:54:72:a8:3c:79:e6:a2:1a:2a:28:
         85:1a:25:c7:95:24:8d:e5:4b:ea:09:10:5a:8e:40:4c:75:34:
         ca:4f:d9:0c:c3:83:8e:30:44:09:9c:98:32:e5:36:3c:c2:f7:
         21:7a:30:5e:fa:08:ad:ed:4e:55:4a:6d:98:41:99:5d:2b:9f:
         15:ae:b0:c9:db:28:9e:70:c2:18:75:9c:25:50:06:38:d3:42:
         63:52:c0:b6:df:22:5d:04:bb:71:6d:d8:be:5f:46:8a:93:a1:
         0b:3d:41:6d:5c:88:04:4f:ba:86:c8:d6:83:06:63:55:1c:89:
         de:18:51:95:ad:41:47:e2:10:b5:26:45:cf:29:6d:4f:a7:96:
         5c:f6:fb:c5:65:a0:50:64:85:df:48:1c:c7:5f:47:d7:5a:31:
         6c:c3:f5:96:35:f7:60:ca:e3:c9:b1:b7:c5:0b:76:5a:21:84:
         67:24:27:8a:fe:f8:e6:18:61:9b:0f:12:58:fc:ae:47:f1:e1:
         b4:17:bd:76:c9:15:61:d9
-----BEGIN CERTIFICATE-----
MIIHSDCCBTCgAwIBAgICATgwDQYJKoZIhvcNAQEFBQAwgbQxCzAJBgNVBAYTAlVT
MQswCQYDVQQIEwJDQTEVMBMGA1UEBxMMU2FuRnJhbmNpc2NvMRUwEwYDVQQKEwxQ
aXhnbG8sIEluYy4xEDAOBgNVBAsTB1ZQTi1DSUUxGjAYBgNVBAMTEXR1bm5lbC5w
aXhnbG8uY29tMRwwGgYDVQQpExNCYWxhIENoYW5kcmFzZWthcmFuMR4wHAYJKoZI
hvcNAQkBFg9iYWxhQHBpeGdsby5jb20wHhcNMTgwMjE0MDYzMDA5WhcNMjgwMjEy
MDYzMDA5WjCBqTELMAkGA1UEBhMCVVMxCzAJBgNVBAgTAkNBMRUwEwYDVQQHEwxT
YW5GcmFuY2lzY28xFTATBgNVBAoTDFBpeGdsbywgSW5jLjEQMA4GA1UECxMHVlBO
LUNJRTEPMA0GA1UEAxMGY2llMzExMRwwGgYDVQQpExNCYWxhIENoYW5kcmFzZWth
cmFuMR4wHAYJKoZIhvcNAQkBFg9iYWxhQHBpeGdsby5jb20wggIiMA0GCSqGSIb3
DQEBAQUAA4ICDwAwggIKAoICAQDjxHuKc2Z0/UQdFuA85YTzMJzLJOLqXnCp3HpQ
YStKbpjILifUy9DmwOsnyyDdh3pVOburTDhnO8yvu/woxmqXRGzUv8T+7LAwl+1R
E9OZuIR8tbBPUT0EoOIUg1QuR96CXnjbmw0axSGkenjOl5/TVC9if1aLYyFkJG58
jOY+n4klkmVSZckfWcVaplZnZuVU9mwOfo/Oa21UcZ/LCynSqVRoMAfCcsWeisIw
ziPIxiteOnsJakkBSTXHHItG0y5nfm0gjufKyaPd9a1uOI3kpPIhSvwV0x5WLE9F
+Jd+1KTATMaB/sT2qS3JFozT/aMeYbwX4tMaXxCTFm2zMEqPL1CSpzJXH4NSDyEE
upozXjeFiPK6MXSxj0Io5mZdMwat/eIHvuu6JZGQ1Iy6p1p59DJhqv1BFKLO6BE/
+zQNtTwGZke1c4jQ7D4fFLaAcs3K70pKXIgVUrws5P6ElE/X9QjEjRwZ7AkBRByx
EoY2w0gX5/bCAwqfLAmZZhROfxpv3z5Dm+13E3QOkNHvKx7KEaO8mUWJkeklxq8y
A9jZcreqxOG8V70I2FSaO7UclPmsGC4Rnk5DGCwfSzxuedfPeB2W0iNMeEPI1+Xa
I4MKn6D1mGbK9wjY2Zg0e2/uoO13DgLEX0j6jJnqIZgOzp9UDzRvZjEtLaDoJoWd
ncA6TQIDAQABo4IBazCCAWcwCQYDVR0TBAIwADAtBglghkgBhvhCAQ0EIBYeRWFz
eS1SU0EgR2VuZXJhdGVkIENlcnRpZmljYXRlMB0GA1UdDgQWBBTDO3br6YTFGbni
xhFwOEZyaahNJzCB6QYDVR0jBIHhMIHegBTvOI0UUFinW02cF3L837msp1GwEKGB
uqSBtzCBtDELMAkGA1UEBhMCVVMxCzAJBgNVBAgTAkNBMRUwEwYDVQQHEwxTYW5G
cmFuY2lzY28xFTATBgNVBAoTDFBpeGdsbywgSW5jLjEQMA4GA1UECxMHVlBOLUNJ
RTEaMBgGA1UEAxMRdHVubmVsLnBpeGdsby5jb20xHDAaBgNVBCkTE0JhbGEgQ2hh
bmRyYXNla2FyYW4xHjAcBgkqhkiG9w0BCQEWD2JhbGFAcGl4Z2xvLmNvbYIJAKbb
xoOA5qB5MBMGA1UdJQQMMAoGCCsGAQUFBwMCMAsGA1UdDwQEAwIHgDANBgkqhkiG
9w0BAQUFAAOCAgEAIO6J92uCCmCTYDdVaIQApqKRoqRE2gcN/oOoC3hc7BlR2i1f
/lzrqUZ13Fc9aGLe9oeFAmqFvkVprfhzPhvWY8nGk6jCKVVQczrxcMj0iBFHGeNs
XAbG9cWXLMtOGjcYSltXKmrrXVMhhCdiJXSQ1fGMco/AejLVp4kfUYQVjPjq5yQx
urbh9Dld/OITCaZG5Jd9OHe3yeZmpHq63f1mktgZ1/KdZkxGt95JWa9lQlsKIKzD
Jo/sH47T7tNdTnFv/oNnv86GM4HxLIaY4asEfjsroQ850Yfcc/mlSFwbuxGk17YT
5MHoB6IRXeclbOOrAQko7PUnIgIVnz7eChhtDMebQAwsohCN6Tx5EoiPEt7nSozH
xShTWHSivQ0Fx9QtQyMlGHbsAI5u92vAPW04fOppfA4q1BtEuBhUcqg8eeaiGioo
hRolx5UkjeVL6gkQWo5ATHU0yk/ZDMODjjBECZyYMuU2PML3IXowXvoIre1OVUpt
mEGZXSufFa6wydsonnDCGHWcJVAGONNCY1LAtt8iXQS7cW3Yvl9GipOhCz1BbVyI
BE+6hsjWgwZjVRyJ3hhRla1BR+IQtSZFzyltT6eWXPb7xWWgUGSF30gcx19H11ox
bMP1ljX3YMrjybG3xQt2WiGEZyQniv745hhhmw8SWPyuR/HhtBe9dskVYdk=
-----END CERTIFICATE-----
