Certificate:
    Data:
        Version: 3 (0x2)
        Serial Number: 39 (0x27)
    Signature Algorithm: sha1WithRSAEncryption
        Issuer: C=US, ST=CA, L=SanFrancisco, O=Pixglo, Inc., OU=VPN-CIE, CN=tunnel.pixglo.com/name=Bala Chandrasekaran/emailAddress=bala@pixglo.com
        Validity
            Not Before: Feb 14 06:24:39 2018 GMT
            Not After : Feb 12 06:24:39 2028 GMT
        Subject: C=US, ST=CA, L=SanFrancisco, O=Pixglo, Inc., OU=VPN-CIE, CN=cie38/name=Bala Chandrasekaran/emailAddress=bala@pixglo.com
        Subject Public Key Info:
            Public Key Algorithm: rsaEncryption
                Public-Key: (4096 bit)
                Modulus:
                    00:d2:bf:30:02:11:ef:11:c1:a6:61:8f:35:84:f2:
                    91:61:6c:02:82:e4:e9:b4:e9:e1:b5:d7:fd:4d:f7:
                    dd:76:5f:a8:76:76:8b:4d:e5:b1:f4:ad:f9:6d:5c:
                    66:b1:43:41:04:2e:5d:91:4d:5f:4a:c0:f0:c3:83:
                    c9:24:5d:37:ea:29:cd:fc:7c:66:c9:11:d7:a4:6e:
                    d3:5a:1f:a5:dd:f2:ff:b0:dc:c2:6a:93:63:52:fc:
                    f2:8c:14:fd:0f:32:98:54:c6:74:ba:da:33:9d:37:
                    6a:88:ec:7b:b4:e5:6c:eb:e0:46:1e:50:c2:bb:40:
                    37:85:f4:86:32:16:0d:94:bd:0e:02:b3:4f:34:50:
                    4a:d6:21:ce:31:75:d5:09:d1:67:03:cf:14:09:9d:
                    2e:f9:64:e9:ab:20:fb:a7:e7:63:57:55:09:34:cc:
                    94:50:bf:60:94:75:ca:c9:b8:cd:28:93:05:4d:34:
                    35:a1:3a:a3:59:31:3d:42:35:99:1a:a2:97:90:db:
                    38:39:09:6a:22:3c:af:51:a2:06:98:99:2e:1d:dd:
                    6e:e5:14:c9:c2:10:65:43:a7:df:71:ac:4f:52:d4:
                    58:3a:57:b3:69:a0:f8:a6:d5:0c:f2:99:38:e0:76:
                    cb:52:e8:66:81:ae:fb:3f:5d:6a:fa:ae:19:6d:0b:
                    10:4a:71:22:cb:a3:5b:d2:d7:b4:77:2a:a9:ad:04:
                    98:4a:07:b5:22:e3:bf:db:9c:7b:fb:e6:41:d7:a5:
                    be:7d:7a:32:8d:4e:4d:4f:39:df:c1:b3:90:54:97:
                    81:ec:31:88:35:af:cc:8b:bb:bd:ba:ab:68:55:74:
                    d4:ff:40:c4:54:0d:7c:32:66:1a:85:f0:50:b3:3e:
                    48:fa:9e:83:2f:02:6b:b2:d1:99:ba:b7:78:0e:b4:
                    4d:da:ec:fb:20:03:33:d5:2e:0d:5e:d7:16:0d:bb:
                    71:d3:b3:d2:7d:a9:f5:98:75:71:b1:af:d9:fa:93:
                    7e:f7:39:88:bc:81:c1:a7:0a:b6:37:7b:d8:0e:f6:
                    2d:98:62:ae:33:11:44:9b:09:12:97:1a:a0:6c:39:
                    8c:a4:0d:db:ea:be:b2:b3:bd:2d:e2:de:b9:cb:c6:
                    6a:70:74:cc:5b:54:d8:39:6d:25:39:0a:4c:ab:d3:
                    b4:f9:17:33:f9:22:f3:df:d6:bf:70:4a:d5:23:98:
                    07:56:54:7e:2b:bb:53:c7:82:0e:7f:67:5f:60:fa:
                    b1:b0:46:92:64:62:da:2a:68:84:66:aa:86:59:37:
                    27:1d:e7:c7:ea:1e:07:92:3f:69:dc:87:e4:55:0c:
                    af:34:64:d9:e1:f2:cc:8e:35:04:8a:3b:8c:99:98:
                    15:21:79
                Exponent: 65537 (0x10001)
        X509v3 extensions:
            X509v3 Basic Constraints: 
                CA:FALSE
            Netscape Comment: 
                Easy-RSA Generated Certificate
            X509v3 Subject Key Identifier: 
                0B:FE:99:7A:B2:E2:B2:60:2C:27:46:B6:54:24:98:67:FE:66:55:3A
            X509v3 Authority Key Identifier: 
                keyid:EF:38:8D:14:50:58:A7:5B:4D:9C:17:72:FC:DF:B9:AC:A7:51:B0:10
                DirName:/C=US/ST=CA/L=SanFrancisco/O=Pixglo, Inc./OU=VPN-CIE/CN=tunnel.pixglo.com/name=Bala Chandrasekaran/emailAddress=bala@pixglo.com
                serial:A6:DB:C6:83:80:E6:A0:79

            X509v3 Extended Key Usage: 
                TLS Web Client Authentication
            X509v3 Key Usage: 
                Digital Signature
    Signature Algorithm: sha1WithRSAEncryption
         c3:81:69:b4:c6:25:c8:f7:14:f9:a9:74:36:79:e8:35:7d:d9:
         a6:c0:84:05:6d:5e:fd:31:50:7c:ee:a9:ff:fc:9a:c4:a1:17:
         77:51:2f:2d:c1:c4:c9:a8:f9:06:f3:e3:98:3b:e0:96:4c:04:
         3b:05:8b:4c:4a:a0:2c:32:d0:dd:3a:0e:c5:bc:09:05:f8:c9:
         e5:7f:2f:e5:00:d1:bd:9a:5f:14:10:98:57:e0:03:e5:06:fe:
         2f:c0:8f:e2:e7:59:72:c3:23:43:f2:b6:39:b6:20:fe:45:e1:
         af:b0:69:3c:97:8e:83:cc:c1:a8:38:05:6d:ae:58:8a:23:46:
         ce:ae:b0:de:2e:eb:fe:02:e1:96:fc:ed:e5:65:08:7c:5c:73:
         3f:14:ff:92:41:cd:0a:57:ba:3d:c1:4a:bb:19:51:40:38:20:
         77:8e:d1:c1:eb:1b:e3:98:d9:e6:91:60:de:b0:03:a9:ca:03:
         19:b4:3a:ec:72:1d:07:47:45:c4:4d:8b:2a:a7:33:9b:88:88:
         c4:3b:92:78:07:5a:5c:30:c3:a2:73:bb:8e:eb:51:24:cd:f9:
         75:1c:b1:16:42:30:1e:9e:31:97:3f:f3:80:5c:b6:67:3d:23:
         43:6a:1d:7f:dd:02:16:4a:90:66:e3:b5:60:8d:97:4f:5f:28:
         34:e6:69:fe:57:38:92:2f:13:c2:9d:88:02:04:dc:63:18:25:
         67:37:89:fc:b8:e2:08:27:17:e6:25:b4:14:ac:9c:f0:56:3b:
         f5:43:bc:61:13:f0:cf:33:3b:99:1d:f6:a1:a7:b2:62:f5:5a:
         53:a4:43:f7:47:97:5c:d7:ae:e7:e5:89:ce:d8:94:49:d1:36:
         6e:c5:d4:38:fd:4a:0a:70:42:e9:b0:43:0e:9f:f9:38:66:c7:
         63:46:be:a7:22:5a:82:6b:18:2d:83:1b:c8:94:98:29:e7:25:
         ea:4d:f7:02:39:6b:f2:e2:33:df:42:46:e2:be:af:1e:60:d6:
         aa:ff:7b:17:81:73:be:07:8f:40:00:b9:2c:f1:92:e5:44:5b:
         2e:2b:3b:20:29:ea:36:63:b2:77:ba:fb:2a:7b:c0:ee:9c:54:
         ad:04:cb:55:a5:bc:f2:74:ae:14:4b:1c:9a:f2:17:3a:6c:6f:
         af:5a:e3:6a:4d:89:db:cb:a1:d6:8c:50:34:8c:99:85:7f:bc:
         24:e4:0f:d9:db:2e:47:bb:74:6e:f2:92:ac:d6:9a:21:ac:3d:
         04:11:51:a4:3b:d5:45:3e:53:fc:a9:52:e0:cf:f6:60:6c:5f:
         30:53:24:84:11:57:31:e4:2d:7e:e6:a4:45:ed:0c:d6:fd:13:
         9a:87:3d:18:85:0b:76:23
-----BEGIN CERTIFICATE-----
MIIHRjCCBS6gAwIBAgIBJzANBgkqhkiG9w0BAQUFADCBtDELMAkGA1UEBhMCVVMx
CzAJBgNVBAgTAkNBMRUwEwYDVQQHEwxTYW5GcmFuY2lzY28xFTATBgNVBAoTDFBp
eGdsbywgSW5jLjEQMA4GA1UECxMHVlBOLUNJRTEaMBgGA1UEAxMRdHVubmVsLnBp
eGdsby5jb20xHDAaBgNVBCkTE0JhbGEgQ2hhbmRyYXNla2FyYW4xHjAcBgkqhkiG
9w0BCQEWD2JhbGFAcGl4Z2xvLmNvbTAeFw0xODAyMTQwNjI0MzlaFw0yODAyMTIw
NjI0MzlaMIGoMQswCQYDVQQGEwJVUzELMAkGA1UECBMCQ0ExFTATBgNVBAcTDFNh
bkZyYW5jaXNjbzEVMBMGA1UEChMMUGl4Z2xvLCBJbmMuMRAwDgYDVQQLEwdWUE4t
Q0lFMQ4wDAYDVQQDEwVjaWUzODEcMBoGA1UEKRMTQmFsYSBDaGFuZHJhc2VrYXJh
bjEeMBwGCSqGSIb3DQEJARYPYmFsYUBwaXhnbG8uY29tMIICIjANBgkqhkiG9w0B
AQEFAAOCAg8AMIICCgKCAgEA0r8wAhHvEcGmYY81hPKRYWwCguTptOnhtdf9Tffd
dl+odnaLTeWx9K35bVxmsUNBBC5dkU1fSsDww4PJJF036inN/HxmyRHXpG7TWh+l
3fL/sNzCapNjUvzyjBT9DzKYVMZ0utoznTdqiOx7tOVs6+BGHlDCu0A3hfSGMhYN
lL0OArNPNFBK1iHOMXXVCdFnA88UCZ0u+WTpqyD7p+djV1UJNMyUUL9glHXKybjN
KJMFTTQ1oTqjWTE9QjWZGqKXkNs4OQlqIjyvUaIGmJkuHd1u5RTJwhBlQ6ffcaxP
UtRYOlezaaD4ptUM8pk44HbLUuhmga77P11q+q4ZbQsQSnEiy6Nb0te0dyqprQSY
Sge1IuO/25x7++ZB16W+fXoyjU5NTznfwbOQVJeB7DGINa/Mi7u9uqtoVXTU/0DE
VA18MmYahfBQsz5I+p6DLwJrstGZurd4DrRN2uz7IAMz1S4NXtcWDbtx07PSfan1
mHVxsa/Z+pN+9zmIvIHBpwq2N3vYDvYtmGKuMxFEmwkSlxqgbDmMpA3b6r6ys70t
4t65y8ZqcHTMW1TYOW0lOQpMq9O0+Rcz+SLz39a/cErVI5gHVlR+K7tTx4IOf2df
YPqxsEaSZGLaKmiEZqqGWTcnHefH6h4Hkj9p3IfkVQyvNGTZ4fLMjjUEijuMmZgV
IXkCAwEAAaOCAWswggFnMAkGA1UdEwQCMAAwLQYJYIZIAYb4QgENBCAWHkVhc3kt
UlNBIEdlbmVyYXRlZCBDZXJ0aWZpY2F0ZTAdBgNVHQ4EFgQUC/6ZerLismAsJ0a2
VCSYZ/5mVTowgekGA1UdIwSB4TCB3oAU7ziNFFBYp1tNnBdy/N+5rKdRsBChgbqk
gbcwgbQxCzAJBgNVBAYTAlVTMQswCQYDVQQIEwJDQTEVMBMGA1UEBxMMU2FuRnJh
bmNpc2NvMRUwEwYDVQQKEwxQaXhnbG8sIEluYy4xEDAOBgNVBAsTB1ZQTi1DSUUx
GjAYBgNVBAMTEXR1bm5lbC5waXhnbG8uY29tMRwwGgYDVQQpExNCYWxhIENoYW5k
cmFzZWthcmFuMR4wHAYJKoZIhvcNAQkBFg9iYWxhQHBpeGdsby5jb22CCQCm28aD
gOageTATBgNVHSUEDDAKBggrBgEFBQcDAjALBgNVHQ8EBAMCB4AwDQYJKoZIhvcN
AQEFBQADggIBAMOBabTGJcj3FPmpdDZ56DV92abAhAVtXv0xUHzuqf/8msShF3dR
Ly3BxMmo+Qbz45g74JZMBDsFi0xKoCwy0N06DsW8CQX4yeV/L+UA0b2aXxQQmFfg
A+UG/i/Aj+LnWXLDI0Pytjm2IP5F4a+waTyXjoPMwag4BW2uWIojRs6usN4u6/4C
4Zb87eVlCHxccz8U/5JBzQpXuj3BSrsZUUA4IHeO0cHrG+OY2eaRYN6wA6nKAxm0
OuxyHQdHRcRNiyqnM5uIiMQ7kngHWlwww6Jzu47rUSTN+XUcsRZCMB6eMZc/84Bc
tmc9I0NqHX/dAhZKkGbjtWCNl09fKDTmaf5XOJIvE8KdiAIE3GMYJWc3ify44ggn
F+YltBSsnPBWO/VDvGET8M8zO5kd9qGnsmL1WlOkQ/dHl1zXruflic7YlEnRNm7F
1Dj9SgpwQumwQw6f+Thmx2NGvqciWoJrGC2DG8iUmCnnJepN9wI5a/LiM99CRuK+
rx5g1qr/exeBc74Hj0AAuSzxkuVEWy4rOyAp6jZjsne6+yp7wO6cVK0Ey1WlvPJ0
rhRLHJryFzpsb69a42pNidvLodaMUDSMmYV/vCTkD9nbLke7dG7ykqzWmiGsPQQR
UaQ71UU+U/ypUuDP9mBsXzBTJIQRVzHkLX7mpEXtDNb9E5qHPRiFC3Yj
-----END CERTIFICATE-----
