Certificate:
    Data:
        Version: 3 (0x2)
        Serial Number: 374 (0x176)
    Signature Algorithm: sha1WithRSAEncryption
        Issuer: C=US, ST=CA, L=SanFrancisco, O=Pixglo, Inc., OU=VPN-CIE, CN=tunnel.pixglo.com/name=Bala Chandrasekaran/emailAddress=bala@pixglo.com
        Validity
            Not Before: Feb 14 06:31:44 2018 GMT
            Not After : Feb 12 06:31:44 2028 GMT
        Subject: C=US, ST=CA, L=SanFrancisco, O=Pixglo, Inc., OU=VPN-CIE, CN=cie373/name=Bala Chandrasekaran/emailAddress=bala@pixglo.com
        Subject Public Key Info:
            Public Key Algorithm: rsaEncryption
                Public-Key: (4096 bit)
                Modulus:
                    00:9a:51:bb:aa:63:c9:e9:b6:43:75:d6:16:27:01:
                    bf:d6:2c:aa:f2:fe:aa:75:4e:89:4f:7b:3d:a1:57:
                    83:a2:87:e7:c5:d3:c3:a1:62:3f:2a:1e:26:e2:12:
                    bf:d0:e9:df:41:d6:5c:ac:52:48:5d:a4:ae:47:00:
                    b5:19:8d:60:ce:b0:13:a9:95:6c:6c:43:59:e7:0b:
                    89:2a:d9:c0:93:13:55:fd:25:81:fa:7e:db:25:9a:
                    25:e8:09:d2:55:c4:d1:00:2a:1f:07:12:d8:1a:ad:
                    ea:f4:97:6c:38:6a:3a:da:b7:a2:b7:77:c9:de:e6:
                    0f:40:1b:d2:66:19:44:08:e4:e7:5c:b6:92:bc:a5:
                    d6:d9:62:3c:3a:c9:91:ae:64:7b:10:12:ec:d4:76:
                    e7:09:15:09:c5:21:ef:7e:14:54:dd:4c:58:0b:6d:
                    67:55:47:1c:2d:54:0e:f6:3e:4a:ec:15:01:30:b2:
                    82:d1:77:ad:4f:39:c1:90:0b:10:b2:63:08:34:f2:
                    fc:01:d8:64:fd:e6:17:66:61:87:c8:66:5b:79:a3:
                    a5:b6:fa:f5:e9:10:a4:37:96:66:5c:7f:61:4a:4f:
                    b3:90:66:a2:15:38:ce:42:65:c1:ad:b3:ed:37:97:
                    0e:5b:f0:11:07:50:0f:91:43:75:aa:66:f8:eb:59:
                    bb:3d:0e:68:62:ac:04:e2:c5:1b:43:72:9e:32:f6:
                    50:8d:4d:88:e4:78:21:b0:f9:e8:7c:aa:03:e6:44:
                    81:86:d1:b4:05:f3:b5:ea:83:5b:70:a4:5b:f7:87:
                    cd:82:49:72:83:97:61:86:5c:e7:bc:9c:be:b1:a1:
                    27:3e:0b:5b:53:95:1a:ff:8f:b0:38:3e:9b:87:74:
                    67:e5:6d:11:16:51:28:5e:3a:b4:79:ea:4f:89:b3:
                    e8:df:ec:3f:d0:a1:f5:da:c3:ed:d5:97:2e:80:ab:
                    3d:0d:e1:06:83:d1:a0:61:d0:bd:2d:1e:4a:ff:96:
                    8e:e9:ab:02:2a:9e:42:4e:3d:81:fd:fb:af:4e:c9:
                    84:3f:4c:d3:4a:e9:23:8d:1e:1b:2f:84:51:2d:d5:
                    2a:56:53:e7:2a:2b:fb:20:ca:db:5b:c7:14:94:f3:
                    7a:26:84:50:45:a0:bf:78:28:47:cc:0f:6a:0c:ec:
                    8d:d4:02:1a:8a:95:1a:26:11:48:4e:84:6d:8d:ae:
                    db:0f:b0:30:22:36:5a:ce:d8:0b:5e:f0:f1:a0:80:
                    ec:fd:0f:53:82:28:df:e6:da:32:e3:86:11:af:20:
                    b8:b3:e7:78:e7:67:60:6c:d0:ba:23:52:d0:71:60:
                    6a:1c:2b:5f:c1:b0:42:2f:ac:8d:7a:b2:65:2a:f3:
                    0d:97:4f
                Exponent: 65537 (0x10001)
        X509v3 extensions:
            X509v3 Basic Constraints: 
                CA:FALSE
            Netscape Comment: 
                Easy-RSA Generated Certificate
            X509v3 Subject Key Identifier: 
                0F:28:D5:D4:79:25:2F:B6:14:3D:C5:6C:6F:D2:A4:4E:ED:CC:B9:22
            X509v3 Authority Key Identifier: 
                keyid:EF:38:8D:14:50:58:A7:5B:4D:9C:17:72:FC:DF:B9:AC:A7:51:B0:10
                DirName:/C=US/ST=CA/L=SanFrancisco/O=Pixglo, Inc./OU=VPN-CIE/CN=tunnel.pixglo.com/name=Bala Chandrasekaran/emailAddress=bala@pixglo.com
                serial:A6:DB:C6:83:80:E6:A0:79

            X509v3 Extended Key Usage: 
                TLS Web Client Authentication
            X509v3 Key Usage: 
                Digital Signature
    Signature Algorithm: sha1WithRSAEncryption
         ba:b9:8c:94:7a:90:61:9b:23:70:d6:44:dd:f6:9e:cc:c4:1a:
         33:02:31:3f:f1:25:86:98:06:27:25:43:4d:cb:5a:78:b2:ac:
         fe:fb:40:8d:f1:1d:55:99:77:64:85:be:2c:aa:00:8d:e1:97:
         2d:e1:a3:38:07:d0:f5:31:2b:fb:b7:65:38:83:d5:3f:8e:42:
         bc:2d:7a:0a:8f:9a:2e:8d:ab:70:a6:fc:c7:42:75:c6:b0:9d:
         24:e9:99:c4:c5:f8:6e:b6:85:f7:95:1f:35:bd:9d:73:a5:2e:
         7e:1c:03:20:ae:dc:7f:77:6c:a8:79:1d:5d:86:99:5f:50:8f:
         03:ad:ab:9b:29:28:99:fa:c6:02:09:ba:1f:48:84:2a:00:04:
         d3:72:b0:e4:73:3e:45:fa:0b:5d:1c:77:55:fb:4b:94:fe:6e:
         c5:37:0d:ba:e9:67:e6:50:29:10:c4:72:38:df:90:fb:b3:55:
         d6:54:2d:bb:9d:08:83:ce:e0:17:3a:cd:e8:f8:75:7b:5d:2f:
         e5:5e:21:8c:7d:a6:e1:98:88:e4:c2:3d:c7:ba:35:07:0f:c0:
         12:a8:ad:9c:c6:f0:2e:bd:16:fb:10:7e:98:7c:9b:80:5f:cb:
         a9:29:cd:49:27:f0:0a:dc:4c:c3:82:21:8c:fe:8a:f5:4e:1c:
         27:86:95:72:c1:a6:ca:5c:56:40:5a:cf:78:23:ca:dd:77:cc:
         9d:95:6d:80:30:02:65:67:0e:45:d8:fa:6d:68:71:ea:2d:2c:
         c0:a4:9f:02:d3:22:fb:2c:03:06:b5:6e:6e:93:4d:fd:b7:e2:
         60:84:8f:63:b4:7c:2b:ee:07:ec:74:c4:75:e6:2c:bf:ec:32:
         e5:3c:28:3e:6e:08:ee:05:1e:99:bc:d1:12:2d:cb:50:ad:0a:
         f3:a3:f9:a7:47:a1:6a:80:b9:39:6c:19:82:7d:11:24:97:1d:
         3d:85:5b:d0:3a:6b:41:86:a2:57:d9:00:e8:2f:a1:99:ca:22:
         5b:c2:53:78:e6:3c:95:19:b0:86:41:a5:46:77:c2:3e:6f:89:
         12:6a:b7:97:e4:6e:c7:d9:97:d2:8a:44:8b:ac:a5:96:0a:98:
         0d:9d:32:6d:e7:9a:bb:27:2c:93:7a:42:db:a1:b5:50:e6:af:
         e7:51:23:0a:b8:b5:b5:dd:75:37:de:8e:11:0e:23:49:c6:0f:
         44:42:14:9e:18:58:05:c9:b5:18:39:bc:34:fd:24:1f:ee:fd:
         b0:3b:bb:f7:10:87:9a:7e:60:b2:ad:aa:fc:34:67:b5:2f:29:
         2e:70:ac:51:31:a7:1d:a0:79:11:98:20:99:4b:21:76:f5:b9:
         77:08:d2:1f:4f:2f:67:c5
-----BEGIN CERTIFICATE-----
MIIHSDCCBTCgAwIBAgICAXYwDQYJKoZIhvcNAQEFBQAwgbQxCzAJBgNVBAYTAlVT
MQswCQYDVQQIEwJDQTEVMBMGA1UEBxMMU2FuRnJhbmNpc2NvMRUwEwYDVQQKEwxQ
aXhnbG8sIEluYy4xEDAOBgNVBAsTB1ZQTi1DSUUxGjAYBgNVBAMTEXR1bm5lbC5w
aXhnbG8uY29tMRwwGgYDVQQpExNCYWxhIENoYW5kcmFzZWthcmFuMR4wHAYJKoZI
hvcNAQkBFg9iYWxhQHBpeGdsby5jb20wHhcNMTgwMjE0MDYzMTQ0WhcNMjgwMjEy
MDYzMTQ0WjCBqTELMAkGA1UEBhMCVVMxCzAJBgNVBAgTAkNBMRUwEwYDVQQHEwxT
YW5GcmFuY2lzY28xFTATBgNVBAoTDFBpeGdsbywgSW5jLjEQMA4GA1UECxMHVlBO
LUNJRTEPMA0GA1UEAxMGY2llMzczMRwwGgYDVQQpExNCYWxhIENoYW5kcmFzZWth
cmFuMR4wHAYJKoZIhvcNAQkBFg9iYWxhQHBpeGdsby5jb20wggIiMA0GCSqGSIb3
DQEBAQUAA4ICDwAwggIKAoICAQCaUbuqY8nptkN11hYnAb/WLKry/qp1TolPez2h
V4Oih+fF08OhYj8qHibiEr/Q6d9B1lysUkhdpK5HALUZjWDOsBOplWxsQ1nnC4kq
2cCTE1X9JYH6ftslmiXoCdJVxNEAKh8HEtgarer0l2w4ajrat6K3d8ne5g9AG9Jm
GUQI5OdctpK8pdbZYjw6yZGuZHsQEuzUducJFQnFIe9+FFTdTFgLbWdVRxwtVA72
PkrsFQEwsoLRd61POcGQCxCyYwg08vwB2GT95hdmYYfIZlt5o6W2+vXpEKQ3lmZc
f2FKT7OQZqIVOM5CZcGts+03lw5b8BEHUA+RQ3WqZvjrWbs9DmhirATixRtDcp4y
9lCNTYjkeCGw+eh8qgPmRIGG0bQF87Xqg1twpFv3h82CSXKDl2GGXOe8nL6xoSc+
C1tTlRr/j7A4PpuHdGflbREWUSheOrR56k+Js+jf7D/QofXaw+3Vly6Aqz0N4QaD
0aBh0L0tHkr/lo7pqwIqnkJOPYH9+69OyYQ/TNNK6SONHhsvhFEt1SpWU+cqK/sg
yttbxxSU83omhFBFoL94KEfMD2oM7I3UAhqKlRomEUhOhG2NrtsPsDAiNlrO2Ate
8PGggOz9D1OCKN/m2jLjhhGvILiz53jnZ2Bs0LojUtBxYGocK1/BsEIvrI16smUq
8w2XTwIDAQABo4IBazCCAWcwCQYDVR0TBAIwADAtBglghkgBhvhCAQ0EIBYeRWFz
eS1SU0EgR2VuZXJhdGVkIENlcnRpZmljYXRlMB0GA1UdDgQWBBQPKNXUeSUvthQ9
xWxv0qRO7cy5IjCB6QYDVR0jBIHhMIHegBTvOI0UUFinW02cF3L837msp1GwEKGB
uqSBtzCBtDELMAkGA1UEBhMCVVMxCzAJBgNVBAgTAkNBMRUwEwYDVQQHEwxTYW5G
cmFuY2lzY28xFTATBgNVBAoTDFBpeGdsbywgSW5jLjEQMA4GA1UECxMHVlBOLUNJ
RTEaMBgGA1UEAxMRdHVubmVsLnBpeGdsby5jb20xHDAaBgNVBCkTE0JhbGEgQ2hh
bmRyYXNla2FyYW4xHjAcBgkqhkiG9w0BCQEWD2JhbGFAcGl4Z2xvLmNvbYIJAKbb
xoOA5qB5MBMGA1UdJQQMMAoGCCsGAQUFBwMCMAsGA1UdDwQEAwIHgDANBgkqhkiG
9w0BAQUFAAOCAgEAurmMlHqQYZsjcNZE3faezMQaMwIxP/ElhpgGJyVDTctaeLKs
/vtAjfEdVZl3ZIW+LKoAjeGXLeGjOAfQ9TEr+7dlOIPVP45CvC16Co+aLo2rcKb8
x0J1xrCdJOmZxMX4braF95UfNb2dc6UufhwDIK7cf3dsqHkdXYaZX1CPA62rmyko
mfrGAgm6H0iEKgAE03Kw5HM+RfoLXRx3VftLlP5uxTcNuuln5lApEMRyON+Q+7NV
1lQtu50Ig87gFzrN6Ph1e10v5V4hjH2m4ZiI5MI9x7o1Bw/AEqitnMbwLr0W+xB+
mHybgF/LqSnNSSfwCtxMw4IhjP6K9U4cJ4aVcsGmylxWQFrPeCPK3XfMnZVtgDAC
ZWcORdj6bWhx6i0swKSfAtMi+ywDBrVubpNN/bfiYISPY7R8K+4H7HTEdeYsv+wy
5TwoPm4I7gUembzREi3LUK0K86P5p0ehaoC5OWwZgn0RJJcdPYVb0DprQYaiV9kA
6C+hmcoiW8JTeOY8lRmwhkGlRnfCPm+JEmq3l+Rux9mX0opEi6yllgqYDZ0ybeea
uycsk3pC26G1UOav51EjCri1td11N96OEQ4jScYPREIUnhhYBcm1GDm8NP0kH+79
sDu79xCHmn5gsq2q/DRntS8pLnCsUTGnHaB5EZggmUshdvW5dwjSH08vZ8U=
-----END CERTIFICATE-----
