Certificate:
    Data:
        Version: 3 (0x2)
        Serial Number: 381 (0x17d)
    Signature Algorithm: sha1WithRSAEncryption
        Issuer: C=US, ST=CA, L=SanFrancisco, O=Pixglo, Inc., OU=VPN-CIE, CN=tunnel.pixglo.com/name=Bala Chandrasekaran/emailAddress=bala@pixglo.com
        Validity
            Not Before: Feb 14 06:32:03 2018 GMT
            Not After : Feb 12 06:32:03 2028 GMT
        Subject: C=US, ST=CA, L=SanFrancisco, O=Pixglo, Inc., OU=VPN-CIE, CN=cie380/name=Bala Chandrasekaran/emailAddress=bala@pixglo.com
        Subject Public Key Info:
            Public Key Algorithm: rsaEncryption
                Public-Key: (4096 bit)
                Modulus:
                    00:d2:1d:fe:5d:3d:0c:c7:93:b5:60:35:64:6d:39:
                    7d:f7:26:9d:ff:90:8a:10:d0:59:d1:f5:13:90:5d:
                    ac:9e:00:e1:d9:67:98:c5:ba:48:5c:f0:0e:bc:6e:
                    c9:3d:54:e0:f1:95:43:7e:05:5b:62:44:e3:86:bc:
                    7f:42:5b:74:60:83:4a:36:d8:cc:7b:ce:b1:2d:78:
                    9d:9f:59:f5:e9:4f:16:4b:3c:db:23:cf:bd:04:43:
                    37:79:15:72:c4:41:d0:f2:9d:b9:19:52:f3:62:97:
                    0d:a7:1b:67:5e:a6:0d:dd:53:bb:de:7d:0c:44:8f:
                    a0:18:7f:29:e0:10:d5:3f:46:2b:fe:1c:cb:e5:e9:
                    12:a9:ee:eb:c9:1d:24:b2:5c:79:77:7e:4a:67:75:
                    af:11:f0:85:4f:cc:36:7e:43:82:6e:2f:ba:f5:d6:
                    da:4e:4c:86:ae:fb:dc:cf:fe:a3:c7:b8:2d:fe:4b:
                    36:45:21:36:a0:88:85:b9:02:7a:e2:59:10:41:1c:
                    40:f9:97:29:f3:fc:a5:b2:0b:84:3a:21:45:4b:ec:
                    38:d8:8e:bf:61:ea:c9:78:31:d6:15:6a:53:39:57:
                    7a:0f:b8:ff:af:1d:2d:50:2c:02:ed:34:f3:27:e1:
                    a6:2e:9a:83:ae:94:fb:c2:7e:8d:44:28:b9:37:05:
                    93:18:2d:7c:a7:fc:7d:89:12:b0:c8:a1:3d:54:ea:
                    34:1a:2c:4e:64:a7:44:ed:b4:c9:4a:79:0a:d8:b3:
                    47:ba:83:7b:c1:75:82:c9:9f:48:5f:4e:70:57:db:
                    e0:5d:73:0c:ab:bc:f8:b8:b7:b2:6e:0d:e3:fa:1f:
                    4a:15:62:00:f0:2c:13:c3:a0:d8:85:04:9a:7e:9b:
                    98:4b:19:b6:75:51:81:6b:32:b0:8e:cb:e3:fa:54:
                    7d:3f:ba:81:1d:12:dd:65:5f:04:16:92:72:19:90:
                    5b:2d:cd:ef:57:63:13:18:14:c9:da:95:c3:da:24:
                    d1:91:70:35:23:7c:30:98:8c:80:57:45:27:da:2a:
                    ac:6b:45:39:a5:00:6d:8e:6e:65:ac:b7:1e:61:6f:
                    b4:df:bf:83:3c:36:9e:54:97:f2:4e:5a:38:29:52:
                    ed:0e:ca:2c:c0:f3:4d:e6:40:fc:d7:7f:c4:8c:e8:
                    e6:32:f2:24:9a:ba:00:54:12:31:7d:85:37:2d:dc:
                    a0:77:4c:76:b6:a0:26:90:ee:89:b3:56:ab:12:a0:
                    05:7d:11:99:d4:6b:ca:93:91:a1:bc:28:18:72:06:
                    22:70:b6:ff:1a:29:aa:09:9a:36:c9:6b:0f:ff:5f:
                    c8:73:e3:ae:d9:9a:69:9c:c0:94:4f:09:3b:42:94:
                    07:2e:1f
                Exponent: 65537 (0x10001)
        X509v3 extensions:
            X509v3 Basic Constraints: 
                CA:FALSE
            Netscape Comment: 
                Easy-RSA Generated Certificate
            X509v3 Subject Key Identifier: 
                33:D9:57:F0:62:EE:5E:19:48:E5:AA:72:D7:E5:94:13:7A:F8:E9:2F
            X509v3 Authority Key Identifier: 
                keyid:EF:38:8D:14:50:58:A7:5B:4D:9C:17:72:FC:DF:B9:AC:A7:51:B0:10
                DirName:/C=US/ST=CA/L=SanFrancisco/O=Pixglo, Inc./OU=VPN-CIE/CN=tunnel.pixglo.com/name=Bala Chandrasekaran/emailAddress=bala@pixglo.com
                serial:A6:DB:C6:83:80:E6:A0:79

            X509v3 Extended Key Usage: 
                TLS Web Client Authentication
            X509v3 Key Usage: 
                Digital Signature
    Signature Algorithm: sha1WithRSAEncryption
         d5:c2:d2:e0:07:a4:88:ed:d9:be:a9:ff:fa:69:b0:99:e7:af:
         69:df:c2:ca:ba:ba:13:8f:b6:d1:0d:c3:3b:a1:11:c8:4a:be:
         17:91:ae:7f:0a:70:ec:2e:63:3c:26:e2:94:ae:7c:c5:30:9f:
         13:6e:e9:59:d8:75:2d:ac:45:31:0b:8b:57:d9:14:dc:cb:83:
         4d:77:37:95:8f:d6:10:4d:ec:9a:2b:e7:fe:ed:dc:50:a3:76:
         82:ac:12:46:78:ab:fa:a8:04:63:00:ac:e1:3e:5d:ba:29:ae:
         34:a9:6a:36:3f:50:2c:ac:16:ac:1a:c6:b7:8d:45:60:6a:a4:
         df:b0:74:9b:77:fa:5a:41:33:81:db:76:44:1d:d1:c9:78:5d:
         8d:a8:ae:d5:81:6b:fd:20:32:a5:c9:3e:18:3c:06:d3:e4:b3:
         1d:97:db:e7:91:b4:16:93:c7:d3:db:5f:79:80:e5:9a:3d:11:
         0e:82:f5:c1:69:fc:3b:a1:fc:e6:6b:c2:19:36:62:86:e0:ae:
         b1:68:46:f4:9c:4f:68:32:1d:c2:fd:4d:dd:7a:33:d9:c6:08:
         dd:56:91:c5:da:9d:6b:ca:08:cf:37:7b:aa:a1:e3:c6:37:0d:
         2d:4c:97:cf:93:ae:d2:77:50:6e:7a:37:66:bd:d0:76:41:30:
         f9:dd:ea:e1:9e:56:3a:18:ea:1d:92:31:41:8f:56:a1:d8:db:
         85:1f:10:a6:56:dc:b9:de:2d:f3:ea:5b:65:3b:02:2a:26:d5:
         86:c4:bf:ae:62:2d:ef:38:6e:93:b0:42:1d:65:bb:9b:50:66:
         36:d7:f1:44:52:27:2b:bc:9a:ec:a4:04:fa:d0:b9:f8:75:2a:
         10:a3:09:9a:d4:cb:9e:4e:60:0e:97:29:1d:67:56:81:04:cd:
         23:86:03:27:f8:e7:28:59:d3:1a:8e:f1:da:2a:21:57:a8:8f:
         13:19:e4:82:be:74:f2:2e:48:39:7b:55:d4:97:02:16:2c:b2:
         94:b0:3f:67:df:fc:f5:7c:1d:e3:57:f0:3b:1d:56:bc:da:b6:
         14:7b:3e:ab:c0:39:26:3f:22:c1:5d:d0:65:d1:e1:5b:af:bb:
         3d:a7:ed:9b:4d:8b:9d:89:5e:4b:57:15:1d:3a:55:8d:fa:51:
         67:39:bc:48:e3:e6:e5:36:a3:1a:1c:8c:d8:dd:dd:da:a7:05:
         d4:b4:ce:de:34:38:5a:c4:45:25:be:93:d1:de:c2:e1:d0:3c:
         37:14:9b:0c:ad:de:ef:e4:d7:bc:2f:29:87:1a:17:6f:97:58:
         e9:8d:8f:10:fa:3d:e4:50:a2:7d:ec:06:ca:b6:00:a3:3e:22:
         41:7a:52:3a:b5:a8:73:a4
-----BEGIN CERTIFICATE-----
MIIHSDCCBTCgAwIBAgICAX0wDQYJKoZIhvcNAQEFBQAwgbQxCzAJBgNVBAYTAlVT
MQswCQYDVQQIEwJDQTEVMBMGA1UEBxMMU2FuRnJhbmNpc2NvMRUwEwYDVQQKEwxQ
aXhnbG8sIEluYy4xEDAOBgNVBAsTB1ZQTi1DSUUxGjAYBgNVBAMTEXR1bm5lbC5w
aXhnbG8uY29tMRwwGgYDVQQpExNCYWxhIENoYW5kcmFzZWthcmFuMR4wHAYJKoZI
hvcNAQkBFg9iYWxhQHBpeGdsby5jb20wHhcNMTgwMjE0MDYzMjAzWhcNMjgwMjEy
MDYzMjAzWjCBqTELMAkGA1UEBhMCVVMxCzAJBgNVBAgTAkNBMRUwEwYDVQQHEwxT
YW5GcmFuY2lzY28xFTATBgNVBAoTDFBpeGdsbywgSW5jLjEQMA4GA1UECxMHVlBO
LUNJRTEPMA0GA1UEAxMGY2llMzgwMRwwGgYDVQQpExNCYWxhIENoYW5kcmFzZWth
cmFuMR4wHAYJKoZIhvcNAQkBFg9iYWxhQHBpeGdsby5jb20wggIiMA0GCSqGSIb3
DQEBAQUAA4ICDwAwggIKAoICAQDSHf5dPQzHk7VgNWRtOX33Jp3/kIoQ0FnR9ROQ
XayeAOHZZ5jFukhc8A68bsk9VODxlUN+BVtiROOGvH9CW3Rgg0o22Mx7zrEteJ2f
WfXpTxZLPNsjz70EQzd5FXLEQdDynbkZUvNilw2nG2depg3dU7vefQxEj6AYfyng
ENU/Riv+HMvl6RKp7uvJHSSyXHl3fkpnda8R8IVPzDZ+Q4JuL7r11tpOTIau+9zP
/qPHuC3+SzZFITagiIW5AnriWRBBHED5lynz/KWyC4Q6IUVL7DjYjr9h6sl4MdYV
alM5V3oPuP+vHS1QLALtNPMn4aYumoOulPvCfo1EKLk3BZMYLXyn/H2JErDIoT1U
6jQaLE5kp0TttMlKeQrYs0e6g3vBdYLJn0hfTnBX2+BdcwyrvPi4t7JuDeP6H0oV
YgDwLBPDoNiFBJp+m5hLGbZ1UYFrMrCOy+P6VH0/uoEdEt1lXwQWknIZkFstze9X
YxMYFMnalcPaJNGRcDUjfDCYjIBXRSfaKqxrRTmlAG2ObmWstx5hb7Tfv4M8Np5U
l/JOWjgpUu0OyizA803mQPzXf8SM6OYy8iSaugBUEjF9hTct3KB3THa2oCaQ7omz
VqsSoAV9EZnUa8qTkaG8KBhyBiJwtv8aKaoJmjbJaw//X8hz467ZmmmcwJRPCTtC
lAcuHwIDAQABo4IBazCCAWcwCQYDVR0TBAIwADAtBglghkgBhvhCAQ0EIBYeRWFz
eS1SU0EgR2VuZXJhdGVkIENlcnRpZmljYXRlMB0GA1UdDgQWBBQz2VfwYu5eGUjl
qnLX5ZQTevjpLzCB6QYDVR0jBIHhMIHegBTvOI0UUFinW02cF3L837msp1GwEKGB
uqSBtzCBtDELMAkGA1UEBhMCVVMxCzAJBgNVBAgTAkNBMRUwEwYDVQQHEwxTYW5G
cmFuY2lzY28xFTATBgNVBAoTDFBpeGdsbywgSW5jLjEQMA4GA1UECxMHVlBOLUNJ
RTEaMBgGA1UEAxMRdHVubmVsLnBpeGdsby5jb20xHDAaBgNVBCkTE0JhbGEgQ2hh
bmRyYXNla2FyYW4xHjAcBgkqhkiG9w0BCQEWD2JhbGFAcGl4Z2xvLmNvbYIJAKbb
xoOA5qB5MBMGA1UdJQQMMAoGCCsGAQUFBwMCMAsGA1UdDwQEAwIHgDANBgkqhkiG
9w0BAQUFAAOCAgEA1cLS4AekiO3Zvqn/+mmwmeevad/Cyrq6E4+20Q3DO6ERyEq+
F5Gufwpw7C5jPCbilK58xTCfE27pWdh1LaxFMQuLV9kU3MuDTXc3lY/WEE3smivn
/u3cUKN2gqwSRnir+qgEYwCs4T5duimuNKlqNj9QLKwWrBrGt41FYGqk37B0m3f6
WkEzgdt2RB3RyXhdjaiu1YFr/SAypck+GDwG0+SzHZfb55G0FpPH09tfeYDlmj0R
DoL1wWn8O6H85mvCGTZihuCusWhG9JxPaDIdwv1N3Xoz2cYI3VaRxdqda8oIzzd7
qqHjxjcNLUyXz5Ou0ndQbno3Zr3QdkEw+d3q4Z5WOhjqHZIxQY9WodjbhR8Qplbc
ud4t8+pbZTsCKibVhsS/rmIt7zhuk7BCHWW7m1BmNtfxRFInK7ya7KQE+tC5+HUq
EKMJmtTLnk5gDpcpHWdWgQTNI4YDJ/jnKFnTGo7x2iohV6iPExnkgr508i5IOXtV
1JcCFiyylLA/Z9/89Xwd41fwOx1WvNq2FHs+q8A5Jj8iwV3QZdHhW6+7Paftm02L
nYleS1cVHTpVjfpRZzm8SOPm5TajGhyM2N3d2qcF1LTO3jQ4WsRFJb6T0d7C4dA8
NxSbDK3e7+TXvC8phxoXb5dY6Y2PEPo95FCifewGyrYAoz4iQXpSOrWoc6Q=
-----END CERTIFICATE-----
