Certificate:
    Data:
        Version: 3 (0x2)
        Serial Number: 340 (0x154)
    Signature Algorithm: sha1WithRSAEncryption
        Issuer: C=US, ST=CA, L=SanFrancisco, O=Pixglo, Inc., OU=VPN-CIE, CN=tunnel.pixglo.com/name=Bala Chandrasekaran/emailAddress=bala@pixglo.com
        Validity
            Not Before: Feb 14 06:30:39 2018 GMT
            Not After : Feb 12 06:30:39 2028 GMT
        Subject: C=US, ST=CA, L=SanFrancisco, O=Pixglo, Inc., OU=VPN-CIE, CN=cie339/name=Bala Chandrasekaran/emailAddress=bala@pixglo.com
        Subject Public Key Info:
            Public Key Algorithm: rsaEncryption
                Public-Key: (4096 bit)
                Modulus:
                    00:b8:92:49:9d:cb:db:2a:27:c8:ab:07:c6:b3:f4:
                    45:e4:6d:54:92:a7:7c:6b:a5:ff:b7:66:a3:68:53:
                    49:63:99:b1:4a:e8:eb:78:52:57:e2:5e:5b:e9:73:
                    61:1e:0b:73:64:62:b3:17:77:b4:a3:7c:1d:6e:3d:
                    6c:6b:b7:7b:49:06:fa:dd:55:bf:94:01:01:f0:5c:
                    0c:11:44:10:d0:16:6e:78:63:db:dd:7d:bb:07:d0:
                    ed:c5:56:86:f2:d2:20:18:fb:2c:ce:2a:4e:0c:bb:
                    f7:5e:66:fd:18:de:8a:dd:e2:a7:86:5c:a2:7f:82:
                    77:58:8c:9e:9c:a2:35:c6:2b:bc:fc:7d:65:ec:da:
                    4e:1c:56:13:cc:ae:66:6f:40:43:40:c6:ce:ee:9c:
                    81:36:da:7a:e0:6a:39:2e:00:b7:dc:0a:5a:37:9c:
                    22:82:22:55:3b:ee:e5:87:36:79:7a:ee:c8:e7:c0:
                    ea:9f:2a:b8:ba:df:60:c3:1f:80:5e:b0:10:cf:b6:
                    13:1f:c8:ed:cf:65:fc:47:0e:81:6f:a6:61:db:a5:
                    d2:90:50:c1:ad:96:7b:bd:36:fe:d6:d9:a9:81:d7:
                    2e:c8:d8:3e:bf:ab:ac:b9:69:1e:89:6c:74:09:17:
                    80:b1:05:1d:1c:21:64:ec:96:b6:3b:7a:ef:f0:cc:
                    25:78:ad:ae:3b:3b:32:71:63:9f:16:ef:58:b5:71:
                    da:e2:26:84:8d:74:19:02:92:f2:0f:97:22:0c:2d:
                    8a:99:ff:50:59:13:ca:e9:0c:5a:75:47:c6:18:37:
                    7f:f2:5d:d6:d4:9c:6b:3a:b0:89:cc:63:96:53:85:
                    a6:04:fa:46:d2:3a:d4:b1:ad:46:23:38:c3:07:80:
                    2c:20:0a:1c:06:44:f5:7d:b5:95:37:b2:7e:ac:7d:
                    ba:23:9e:75:40:0c:03:cc:db:a7:c5:e8:de:28:c0:
                    f9:0a:80:61:87:38:86:7f:a6:2b:fd:c0:63:b5:4f:
                    ff:45:0e:e7:38:30:b5:d5:74:9c:14:39:89:46:d3:
                    f7:36:4e:6c:74:b2:0d:24:9a:41:53:24:6f:ce:98:
                    82:5b:97:2d:4c:af:74:b6:4b:56:3f:fa:8b:48:09:
                    5e:e2:e3:d0:43:ca:39:5a:00:bb:d2:0c:10:ff:09:
                    97:75:62:bd:28:dc:51:5d:73:60:7c:9e:3c:c6:4f:
                    7a:5a:6b:ea:c3:2a:6e:79:83:50:0f:76:de:45:40:
                    d4:af:1f:69:99:d1:50:4b:4f:4e:90:55:8e:04:26:
                    14:0b:88:b9:db:f5:3d:6c:a2:b8:48:bf:ac:fb:84:
                    0f:0a:91:89:c9:93:c2:c6:be:ab:78:0e:fa:f8:f4:
                    cd:17:8d
                Exponent: 65537 (0x10001)
        X509v3 extensions:
            X509v3 Basic Constraints: 
                CA:FALSE
            Netscape Comment: 
                Easy-RSA Generated Certificate
            X509v3 Subject Key Identifier: 
                35:C4:22:66:9A:CA:53:BC:F3:6E:58:29:30:A9:4E:A4:EB:7F:61:9B
            X509v3 Authority Key Identifier: 
                keyid:EF:38:8D:14:50:58:A7:5B:4D:9C:17:72:FC:DF:B9:AC:A7:51:B0:10
                DirName:/C=US/ST=CA/L=SanFrancisco/O=Pixglo, Inc./OU=VPN-CIE/CN=tunnel.pixglo.com/name=Bala Chandrasekaran/emailAddress=bala@pixglo.com
                serial:A6:DB:C6:83:80:E6:A0:79

            X509v3 Extended Key Usage: 
                TLS Web Client Authentication
            X509v3 Key Usage: 
                Digital Signature
    Signature Algorithm: sha1WithRSAEncryption
         e2:83:a9:5e:e1:f5:60:e1:5f:9e:4b:00:38:8e:87:c3:41:62:
         77:75:5d:ea:1c:cf:e4:bc:9b:37:7b:8d:e8:51:d8:0a:0c:40:
         5b:bf:c1:28:db:85:3d:0f:60:97:25:31:5b:bf:34:a2:62:25:
         66:14:2f:2a:cc:f9:d8:e5:c3:95:e5:72:8c:16:21:1f:0a:74:
         9a:66:64:1c:99:4f:38:38:3a:3e:99:55:df:c1:c4:95:d1:f1:
         82:22:99:78:d3:47:1b:61:a2:53:70:80:82:3d:d7:71:e1:fb:
         db:d3:f7:b8:8f:24:41:87:4a:fd:b7:18:b3:ab:90:18:4d:16:
         f0:aa:b2:0c:4f:76:41:01:a9:75:a9:47:67:ef:c7:f7:fa:ee:
         96:e7:3d:c3:e2:0a:60:70:e8:be:af:18:0f:1b:44:f4:c4:4b:
         63:ad:4e:be:68:6d:34:96:b8:2b:18:77:e9:13:c0:c9:89:25:
         f8:4e:a4:1c:83:f6:16:82:ed:fa:02:75:13:d3:18:92:c4:fe:
         ba:79:58:bc:b6:25:b1:db:18:3a:41:72:53:2b:50:f5:00:7b:
         af:c7:8f:a3:80:46:35:ed:08:45:e3:cd:53:da:7d:81:53:ce:
         50:32:4a:b5:8b:6e:48:1d:b9:52:4b:7d:72:59:9b:7f:db:9c:
         fe:96:11:43:aa:62:5c:68:af:39:9c:af:64:c7:f4:bb:3b:00:
         6d:2c:54:a7:a0:cd:72:4d:b1:a5:fe:af:27:34:4f:c3:9d:bc:
         02:c7:3c:a3:0c:5d:b7:15:b4:8a:77:79:c6:dd:45:bf:fe:41:
         a7:2c:75:30:f1:a8:fc:13:ed:04:19:16:10:61:af:f6:cb:09:
         0e:c0:cc:60:10:b3:61:1d:36:9d:77:29:05:24:b3:96:49:98:
         70:de:1c:e0:82:5f:4f:74:06:a2:70:3d:b8:0d:e7:db:32:52:
         08:74:ca:e8:c1:ab:87:98:08:00:fb:3a:cb:bf:b6:bf:8b:65:
         57:3c:51:4c:19:68:85:b8:49:ad:41:32:32:25:af:b8:9b:de:
         bc:b7:db:7e:01:0c:84:20:f5:6f:af:56:e9:7c:6f:68:db:ba:
         e4:fb:f3:77:00:88:b3:27:47:bf:df:c0:d6:0b:bd:35:28:2d:
         ca:0a:76:97:64:2a:c8:e7:c0:08:0a:ef:93:85:be:c4:04:6f:
         85:38:82:51:a7:1d:86:b2:8c:75:41:60:fa:f8:38:c6:15:21:
         4e:6e:48:d0:77:20:ff:c1:aa:b6:71:62:50:ec:70:19:72:85:
         5b:3a:f8:4e:06:c6:22:f5:53:62:53:c6:39:d0:b7:74:d1:93:
         c0:62:f5:6f:a1:48:01:45
-----BEGIN CERTIFICATE-----
MIIHSDCCBTCgAwIBAgICAVQwDQYJKoZIhvcNAQEFBQAwgbQxCzAJBgNVBAYTAlVT
MQswCQYDVQQIEwJDQTEVMBMGA1UEBxMMU2FuRnJhbmNpc2NvMRUwEwYDVQQKEwxQ
aXhnbG8sIEluYy4xEDAOBgNVBAsTB1ZQTi1DSUUxGjAYBgNVBAMTEXR1bm5lbC5w
aXhnbG8uY29tMRwwGgYDVQQpExNCYWxhIENoYW5kcmFzZWthcmFuMR4wHAYJKoZI
hvcNAQkBFg9iYWxhQHBpeGdsby5jb20wHhcNMTgwMjE0MDYzMDM5WhcNMjgwMjEy
MDYzMDM5WjCBqTELMAkGA1UEBhMCVVMxCzAJBgNVBAgTAkNBMRUwEwYDVQQHEwxT
YW5GcmFuY2lzY28xFTATBgNVBAoTDFBpeGdsbywgSW5jLjEQMA4GA1UECxMHVlBO
LUNJRTEPMA0GA1UEAxMGY2llMzM5MRwwGgYDVQQpExNCYWxhIENoYW5kcmFzZWth
cmFuMR4wHAYJKoZIhvcNAQkBFg9iYWxhQHBpeGdsby5jb20wggIiMA0GCSqGSIb3
DQEBAQUAA4ICDwAwggIKAoICAQC4kkmdy9sqJ8irB8az9EXkbVSSp3xrpf+3ZqNo
U0ljmbFK6Ot4UlfiXlvpc2EeC3NkYrMXd7SjfB1uPWxrt3tJBvrdVb+UAQHwXAwR
RBDQFm54Y9vdfbsH0O3FVoby0iAY+yzOKk4Mu/deZv0Y3ord4qeGXKJ/gndYjJ6c
ojXGK7z8fWXs2k4cVhPMrmZvQENAxs7unIE22nrgajkuALfcClo3nCKCIlU77uWH
Nnl67sjnwOqfKri632DDH4BesBDPthMfyO3PZfxHDoFvpmHbpdKQUMGtlnu9Nv7W
2amB1y7I2D6/q6y5aR6JbHQJF4CxBR0cIWTslrY7eu/wzCV4ra47OzJxY58W71i1
cdriJoSNdBkCkvIPlyIMLYqZ/1BZE8rpDFp1R8YYN3/yXdbUnGs6sInMY5ZThaYE
+kbSOtSxrUYjOMMHgCwgChwGRPV9tZU3sn6sfbojnnVADAPM26fF6N4owPkKgGGH
OIZ/piv9wGO1T/9FDuc4MLXVdJwUOYlG0/c2Tmx0sg0kmkFTJG/OmIJbly1Mr3S2
S1Y/+otICV7i49BDyjlaALvSDBD/CZd1Yr0o3FFdc2B8njzGT3paa+rDKm55g1AP
dt5FQNSvH2mZ0VBLT06QVY4EJhQLiLnb9T1sorhIv6z7hA8KkYnJk8LGvqt4Dvr4
9M0XjQIDAQABo4IBazCCAWcwCQYDVR0TBAIwADAtBglghkgBhvhCAQ0EIBYeRWFz
eS1SU0EgR2VuZXJhdGVkIENlcnRpZmljYXRlMB0GA1UdDgQWBBQ1xCJmmspTvPNu
WCkwqU6k639hmzCB6QYDVR0jBIHhMIHegBTvOI0UUFinW02cF3L837msp1GwEKGB
uqSBtzCBtDELMAkGA1UEBhMCVVMxCzAJBgNVBAgTAkNBMRUwEwYDVQQHEwxTYW5G
cmFuY2lzY28xFTATBgNVBAoTDFBpeGdsbywgSW5jLjEQMA4GA1UECxMHVlBOLUNJ
RTEaMBgGA1UEAxMRdHVubmVsLnBpeGdsby5jb20xHDAaBgNVBCkTE0JhbGEgQ2hh
bmRyYXNla2FyYW4xHjAcBgkqhkiG9w0BCQEWD2JhbGFAcGl4Z2xvLmNvbYIJAKbb
xoOA5qB5MBMGA1UdJQQMMAoGCCsGAQUFBwMCMAsGA1UdDwQEAwIHgDANBgkqhkiG
9w0BAQUFAAOCAgEA4oOpXuH1YOFfnksAOI6Hw0Fid3Vd6hzP5LybN3uN6FHYCgxA
W7/BKNuFPQ9glyUxW780omIlZhQvKsz52OXDleVyjBYhHwp0mmZkHJlPODg6PplV
38HEldHxgiKZeNNHG2GiU3CAgj3XceH729P3uI8kQYdK/bcYs6uQGE0W8KqyDE92
QQGpdalHZ+/H9/ruluc9w+IKYHDovq8YDxtE9MRLY61OvmhtNJa4Kxh36RPAyYkl
+E6kHIP2FoLt+gJ1E9MYksT+unlYvLYlsdsYOkFyUytQ9QB7r8ePo4BGNe0IRePN
U9p9gVPOUDJKtYtuSB25Ukt9clmbf9uc/pYRQ6piXGivOZyvZMf0uzsAbSxUp6DN
ck2xpf6vJzRPw528Asc8owxdtxW0ind5xt1Fv/5Bpyx1MPGo/BPtBBkWEGGv9ssJ
DsDMYBCzYR02nXcpBSSzlkmYcN4c4IJfT3QGonA9uA3n2zJSCHTK6MGrh5gIAPs6
y7+2v4tlVzxRTBlohbhJrUEyMiWvuJvevLfbfgEMhCD1b69W6XxvaNu65PvzdwCI
sydHv9/A1gu9NSgtygp2l2QqyOfACArvk4W+xARvhTiCUacdhrKMdUFg+vg4xhUh
Tm5I0Hcg/8GqtnFiUOxwGXKFWzr4TgbGIvVTYlPGOdC3dNGTwGL1b6FIAUU=
-----END CERTIFICATE-----
