Certificate:
    Data:
        Version: 3 (0x2)
        Serial Number: 372 (0x174)
    Signature Algorithm: sha1WithRSAEncryption
        Issuer: C=US, ST=CA, L=SanFrancisco, O=Pixglo, Inc., OU=VPN-CIE, CN=tunnel.pixglo.com/name=Bala Chandrasekaran/emailAddress=bala@pixglo.com
        Validity
            Not Before: Feb 14 06:31:42 2018 GMT
            Not After : Feb 12 06:31:42 2028 GMT
        Subject: C=US, ST=CA, L=SanFrancisco, O=Pixglo, Inc., OU=VPN-CIE, CN=cie371/name=Bala Chandrasekaran/emailAddress=bala@pixglo.com
        Subject Public Key Info:
            Public Key Algorithm: rsaEncryption
                Public-Key: (4096 bit)
                Modulus:
                    00:c2:18:a2:47:a7:ab:dd:71:a6:34:d3:f6:fb:f4:
                    62:71:b7:02:6b:57:6f:ca:fb:2d:75:be:26:88:b7:
                    3b:82:75:06:5e:3e:f1:7e:cc:af:42:cd:90:32:47:
                    de:12:aa:58:4d:89:4a:bb:e6:b5:11:bd:dd:a4:19:
                    0e:b2:ab:3a:bd:d2:be:e8:8b:06:79:0f:61:ac:14:
                    f0:ef:df:bc:75:f6:15:0b:ac:2f:86:8b:1c:f1:c4:
                    49:57:3b:b4:b0:37:2d:4f:16:4a:21:a6:87:8c:05:
                    c4:bf:a8:b5:10:67:ed:34:0b:34:62:e2:c1:8c:a4:
                    b3:64:46:b2:30:6e:0d:3a:a0:3f:33:71:64:0e:02:
                    4c:5f:6c:d6:7d:c6:d0:5c:5f:2b:70:0c:77:2e:f2:
                    b1:a0:b1:7c:3e:7c:e2:bf:e9:2d:93:bb:4d:1b:a0:
                    55:45:56:47:74:62:4d:9f:b7:ad:48:9e:26:88:77:
                    49:74:8a:00:83:c4:57:d0:67:37:75:9b:b4:a6:9a:
                    a0:3d:8b:56:14:2d:9c:b7:ce:6d:71:9a:b9:80:77:
                    86:4f:d2:71:fd:3a:64:4a:07:06:6c:f8:80:94:11:
                    8e:68:97:f0:29:3c:74:96:d4:8d:41:3e:15:47:24:
                    e7:99:25:01:9e:b2:6c:7b:8d:e6:7e:7e:9c:0f:da:
                    21:f5:65:2e:46:e6:f3:d2:f5:81:b8:b6:5a:0c:aa:
                    60:36:ac:68:4e:51:8f:0d:84:98:b7:53:3b:00:79:
                    11:86:d4:8e:ea:17:ad:77:01:a3:7b:db:cd:cb:3b:
                    37:88:61:72:46:87:44:17:38:8d:ff:25:21:cc:aa:
                    b2:9d:91:92:37:e4:e1:a0:a6:7f:44:76:23:a3:06:
                    ff:e3:17:2a:34:12:6e:0c:51:c5:0c:aa:ea:1d:21:
                    26:f9:f6:ea:3d:d3:c3:93:e1:a5:38:6b:5b:6d:13:
                    0a:f2:63:83:ab:60:02:40:e5:9a:33:64:40:23:3c:
                    bd:31:8a:61:6c:88:e7:e8:81:de:d5:49:63:05:4d:
                    78:03:4c:25:f6:6d:22:47:a7:46:7b:07:45:9f:b5:
                    94:9d:18:e8:3a:7f:18:fa:06:45:fe:1b:65:78:19:
                    f4:7c:cd:c9:f5:d3:d2:e4:a6:1a:5a:58:07:37:51:
                    bc:ce:e6:1d:45:73:fa:4b:88:5e:fd:93:6a:4f:e8:
                    bd:0e:c7:db:d8:30:f4:77:27:a2:39:43:e8:4b:10:
                    10:b0:06:c0:4d:f7:e1:5e:dc:f8:56:db:0c:7f:d5:
                    aa:87:71:e0:d5:1e:0d:66:38:47:41:4e:af:ee:09:
                    74:04:85:cf:d7:4d:84:df:a8:78:0b:1c:1b:c6:67:
                    93:76:15
                Exponent: 65537 (0x10001)
        X509v3 extensions:
            X509v3 Basic Constraints: 
                CA:FALSE
            Netscape Comment: 
                Easy-RSA Generated Certificate
            X509v3 Subject Key Identifier: 
                EB:3D:BF:DD:73:15:D1:9F:5B:45:8E:E1:F7:F6:4E:85:F7:BE:F7:6E
            X509v3 Authority Key Identifier: 
                keyid:EF:38:8D:14:50:58:A7:5B:4D:9C:17:72:FC:DF:B9:AC:A7:51:B0:10
                DirName:/C=US/ST=CA/L=SanFrancisco/O=Pixglo, Inc./OU=VPN-CIE/CN=tunnel.pixglo.com/name=Bala Chandrasekaran/emailAddress=bala@pixglo.com
                serial:A6:DB:C6:83:80:E6:A0:79

            X509v3 Extended Key Usage: 
                TLS Web Client Authentication
            X509v3 Key Usage: 
                Digital Signature
    Signature Algorithm: sha1WithRSAEncryption
         29:4a:07:5d:68:45:80:38:b8:ca:80:0a:7c:98:01:58:37:5a:
         92:c3:6f:1b:27:1c:64:b3:11:60:e5:d3:38:7c:01:e1:5a:f7:
         a6:6f:68:a1:c6:13:b4:df:1a:d2:6a:96:5e:87:53:2b:5d:90:
         11:f6:bc:9e:e7:b0:45:49:e9:a2:ec:43:da:55:40:10:02:88:
         67:23:19:cb:63:68:0a:9e:15:8e:25:dc:ce:73:cf:13:f1:92:
         f1:8d:74:85:c5:ce:74:34:15:8a:8d:f7:80:d2:b0:2d:71:39:
         b2:37:c0:5b:1f:5f:74:c6:7f:7b:c2:1b:25:5e:d4:e4:7d:f6:
         4b:18:d8:f6:83:bf:ec:4a:78:df:ef:87:4f:62:bb:8c:3c:76:
         6c:c4:3c:b3:90:ac:bf:83:e5:87:0f:25:57:9b:d9:86:42:90:
         40:b6:19:19:cf:a5:fb:9f:c4:f4:57:d5:20:9c:e7:e6:7b:4b:
         3d:e6:d7:b9:64:d5:ad:f0:ed:b5:16:bf:9d:f8:c9:12:8d:3a:
         96:f7:9e:5b:99:ba:95:2a:1c:85:5b:aa:30:b8:4f:cf:5d:c0:
         f0:8d:73:14:66:c9:6e:42:a9:49:b4:c3:d6:1c:8c:7d:9f:61:
         db:5e:df:a6:b6:40:74:a6:c1:1a:5b:c4:e3:39:f4:44:a4:80:
         f7:56:19:2b:19:5f:36:2b:7e:c9:d9:27:ab:c4:ad:f2:fe:7d:
         fa:a7:c6:84:ad:72:c4:12:3a:19:c6:ff:ba:cc:00:0d:46:dd:
         ae:f4:b9:ba:f6:dd:02:ca:69:61:e0:6d:79:68:d2:e7:12:96:
         07:83:a4:6f:14:2d:4f:6d:fe:b4:cb:c2:2e:59:3f:23:34:eb:
         5a:0b:a9:e1:c3:9d:bf:4a:26:9e:a0:ff:4a:4d:ca:31:5a:28:
         12:ce:e0:54:a0:00:ab:3f:11:be:1b:d9:9b:55:ff:59:c7:c7:
         54:53:41:dd:0d:59:9a:4d:a6:ff:eb:a2:f5:17:c7:d4:9b:8b:
         b3:05:b2:92:5c:b3:42:43:f2:d5:2c:99:2d:f5:6f:3e:91:e9:
         87:0d:b0:16:ef:e8:9e:b9:98:ed:8b:76:47:cb:2e:7f:c4:be:
         ef:7c:2f:05:78:d3:4f:7b:03:9a:3e:e8:d5:75:06:38:8e:1e:
         7b:72:bb:70:d5:c3:07:b8:df:64:74:81:e8:c5:6d:89:f8:45:
         c3:c3:56:2b:f3:d5:72:c4:09:22:ec:53:9f:37:dc:61:ff:4a:
         3a:74:1d:de:a9:9e:7b:4a:1f:a4:1f:52:cf:f9:0a:eb:0b:53:
         90:21:5e:11:24:d3:d2:a4:f8:6d:65:e2:ba:09:6d:9a:56:4c:
         94:05:37:9d:e4:fc:61:72
-----BEGIN CERTIFICATE-----
MIIHSDCCBTCgAwIBAgICAXQwDQYJKoZIhvcNAQEFBQAwgbQxCzAJBgNVBAYTAlVT
MQswCQYDVQQIEwJDQTEVMBMGA1UEBxMMU2FuRnJhbmNpc2NvMRUwEwYDVQQKEwxQ
aXhnbG8sIEluYy4xEDAOBgNVBAsTB1ZQTi1DSUUxGjAYBgNVBAMTEXR1bm5lbC5w
aXhnbG8uY29tMRwwGgYDVQQpExNCYWxhIENoYW5kcmFzZWthcmFuMR4wHAYJKoZI
hvcNAQkBFg9iYWxhQHBpeGdsby5jb20wHhcNMTgwMjE0MDYzMTQyWhcNMjgwMjEy
MDYzMTQyWjCBqTELMAkGA1UEBhMCVVMxCzAJBgNVBAgTAkNBMRUwEwYDVQQHEwxT
YW5GcmFuY2lzY28xFTATBgNVBAoTDFBpeGdsbywgSW5jLjEQMA4GA1UECxMHVlBO
LUNJRTEPMA0GA1UEAxMGY2llMzcxMRwwGgYDVQQpExNCYWxhIENoYW5kcmFzZWth
cmFuMR4wHAYJKoZIhvcNAQkBFg9iYWxhQHBpeGdsby5jb20wggIiMA0GCSqGSIb3
DQEBAQUAA4ICDwAwggIKAoICAQDCGKJHp6vdcaY00/b79GJxtwJrV2/K+y11viaI
tzuCdQZePvF+zK9CzZAyR94SqlhNiUq75rURvd2kGQ6yqzq90r7oiwZ5D2GsFPDv
37x19hULrC+GixzxxElXO7SwNy1PFkohpoeMBcS/qLUQZ+00CzRi4sGMpLNkRrIw
bg06oD8zcWQOAkxfbNZ9xtBcXytwDHcu8rGgsXw+fOK/6S2Tu00boFVFVkd0Yk2f
t61IniaId0l0igCDxFfQZzd1m7SmmqA9i1YULZy3zm1xmrmAd4ZP0nH9OmRKBwZs
+ICUEY5ol/ApPHSW1I1BPhVHJOeZJQGesmx7jeZ+fpwP2iH1ZS5G5vPS9YG4tloM
qmA2rGhOUY8NhJi3UzsAeRGG1I7qF613AaN7283LOzeIYXJGh0QXOI3/JSHMqrKd
kZI35OGgpn9EdiOjBv/jFyo0Em4MUcUMquodISb59uo908OT4aU4a1ttEwryY4Or
YAJA5ZozZEAjPL0ximFsiOfogd7VSWMFTXgDTCX2bSJHp0Z7B0WftZSdGOg6fxj6
BkX+G2V4GfR8zcn109LkphpaWAc3UbzO5h1Fc/pLiF79k2pP6L0Ox9vYMPR3J6I5
Q+hLEBCwBsBN9+Fe3PhW2wx/1aqHceDVHg1mOEdBTq/uCXQEhc/XTYTfqHgLHBvG
Z5N2FQIDAQABo4IBazCCAWcwCQYDVR0TBAIwADAtBglghkgBhvhCAQ0EIBYeRWFz
eS1SU0EgR2VuZXJhdGVkIENlcnRpZmljYXRlMB0GA1UdDgQWBBTrPb/dcxXRn1tF
juH39k6F9773bjCB6QYDVR0jBIHhMIHegBTvOI0UUFinW02cF3L837msp1GwEKGB
uqSBtzCBtDELMAkGA1UEBhMCVVMxCzAJBgNVBAgTAkNBMRUwEwYDVQQHEwxTYW5G
cmFuY2lzY28xFTATBgNVBAoTDFBpeGdsbywgSW5jLjEQMA4GA1UECxMHVlBOLUNJ
RTEaMBgGA1UEAxMRdHVubmVsLnBpeGdsby5jb20xHDAaBgNVBCkTE0JhbGEgQ2hh
bmRyYXNla2FyYW4xHjAcBgkqhkiG9w0BCQEWD2JhbGFAcGl4Z2xvLmNvbYIJAKbb
xoOA5qB5MBMGA1UdJQQMMAoGCCsGAQUFBwMCMAsGA1UdDwQEAwIHgDANBgkqhkiG
9w0BAQUFAAOCAgEAKUoHXWhFgDi4yoAKfJgBWDdaksNvGyccZLMRYOXTOHwB4Vr3
pm9oocYTtN8a0mqWXodTK12QEfa8nuewRUnpouxD2lVAEAKIZyMZy2NoCp4VjiXc
znPPE/GS8Y10hcXOdDQVio33gNKwLXE5sjfAWx9fdMZ/e8IbJV7U5H32SxjY9oO/
7Ep43++HT2K7jDx2bMQ8s5Csv4Plhw8lV5vZhkKQQLYZGc+l+5/E9FfVIJzn5ntL
PebXuWTVrfDttRa/nfjJEo06lveeW5m6lSochVuqMLhPz13A8I1zFGbJbkKpSbTD
1hyMfZ9h217fprZAdKbBGlvE4zn0RKSA91YZKxlfNit+ydknq8St8v59+qfGhK1y
xBI6Gcb/uswADUbdrvS5uvbdAsppYeBteWjS5xKWB4OkbxQtT23+tMvCLlk/IzTr
Wgup4cOdv0omnqD/Sk3KMVooEs7gVKAAqz8RvhvZm1X/WcfHVFNB3Q1Zmk2m/+ui
9RfH1JuLswWyklyzQkPy1SyZLfVvPpHphw2wFu/onrmY7Yt2R8suf8S+73wvBXjT
T3sDmj7o1XUGOI4ee3K7cNXDB7jfZHSB6MVtifhFw8NWK/PVcsQJIuxTnzfcYf9K
OnQd3qmee0ofpB9Sz/kK6wtTkCFeESTT0qT4bWXiugltmlZMlAU3neT8YXI=
-----END CERTIFICATE-----
