Certificate:
    Data:
        Version: 3 (0x2)
        Serial Number: 393 (0x189)
    Signature Algorithm: sha1WithRSAEncryption
        Issuer: C=US, ST=CA, L=SanFrancisco, O=Pixglo, Inc., OU=VPN-CIE, CN=tunnel.pixglo.com/name=Bala Chandrasekaran/emailAddress=bala@pixglo.com
        Validity
            Not Before: Feb 14 06:32:22 2018 GMT
            Not After : Feb 12 06:32:22 2028 GMT
        Subject: C=US, ST=CA, L=SanFrancisco, O=Pixglo, Inc., OU=VPN-CIE, CN=cie392/name=Bala Chandrasekaran/emailAddress=bala@pixglo.com
        Subject Public Key Info:
            Public Key Algorithm: rsaEncryption
                Public-Key: (4096 bit)
                Modulus:
                    00:ac:e9:e9:93:cd:3d:52:06:a2:a2:a5:18:ca:b6:
                    4f:6c:a3:2d:06:83:be:a5:bd:23:5e:b7:3f:cc:48:
                    74:a0:16:79:54:96:8d:f5:3e:53:c4:c4:55:73:7f:
                    a7:36:cc:f3:7a:89:8b:14:72:f8:19:ec:a4:80:87:
                    19:97:c8:a1:d7:e2:f5:67:e0:69:d1:e0:29:1d:f3:
                    be:a7:a4:a2:c5:1d:4c:16:22:04:3d:9d:83:e9:c2:
                    50:58:88:52:a8:e0:27:7c:50:f3:a7:bb:4c:ed:86:
                    c8:be:65:0f:51:cc:d3:b3:8b:b6:38:d9:14:70:48:
                    30:90:ee:fe:b5:f2:f8:c6:ea:97:7a:95:1b:79:f2:
                    7f:60:44:9a:26:f2:a7:a2:63:ef:ff:1b:04:96:cc:
                    dc:eb:13:08:3c:50:83:49:3a:b6:63:a8:04:30:bc:
                    04:3f:bb:4c:55:46:44:39:51:1e:40:16:31:7d:86:
                    4f:37:f0:ba:6f:b6:21:7e:2d:ac:35:d7:2c:c4:05:
                    f8:84:30:01:32:c5:98:60:8a:a7:10:98:b6:c9:a0:
                    ae:dd:8c:30:80:65:f0:c4:d0:ec:1d:41:fe:c2:9e:
                    41:f4:e9:cd:85:29:67:30:22:13:aa:6d:04:e3:e5:
                    3f:0d:71:6a:6e:a4:2b:02:a6:fa:46:c3:b0:f6:87:
                    55:a1:46:49:2e:c1:de:b4:34:71:53:04:22:19:de:
                    ca:ea:70:d5:f9:02:e1:68:e1:1a:dd:83:a8:02:92:
                    08:e1:ec:9e:2e:36:09:b2:4d:a3:d6:8a:86:48:d0:
                    8f:18:3c:60:6b:d1:9e:50:5a:65:41:ba:d5:c2:09:
                    1e:7b:0f:75:6b:44:f7:85:b5:4b:12:ec:19:bd:13:
                    8b:08:89:1b:a3:f6:05:9a:61:e4:80:c5:aa:f0:7f:
                    b8:1f:59:78:08:97:01:d8:ec:8d:8f:c8:b0:ea:0d:
                    43:05:30:bb:84:45:99:e2:e1:5c:cc:10:2c:91:46:
                    b4:d1:a9:e1:b3:4b:06:e4:67:91:a0:67:9e:40:2e:
                    5b:9b:53:f4:d7:08:4d:de:f0:b7:43:a7:24:fd:3f:
                    05:43:9f:44:a6:eb:ad:a5:48:4c:de:3d:79:6f:b5:
                    9d:86:73:7f:7c:53:28:8b:34:b2:8f:3b:9b:c0:89:
                    c7:b1:3a:dc:2d:89:43:0c:69:45:f1:6b:a8:98:6e:
                    84:72:b2:19:df:a7:0d:27:4f:2c:6c:c3:6b:31:f1:
                    17:fa:22:5d:94:1f:37:89:18:42:57:b6:ad:61:c6:
                    fb:9e:8c:03:af:14:71:36:5b:ed:77:1f:ce:8d:46:
                    e5:6a:41:ec:43:81:a2:80:a1:c1:c0:3e:d0:9c:f0:
                    a6:d4:e9
                Exponent: 65537 (0x10001)
        X509v3 extensions:
            X509v3 Basic Constraints: 
                CA:FALSE
            Netscape Comment: 
                Easy-RSA Generated Certificate
            X509v3 Subject Key Identifier: 
                23:67:E1:17:74:43:8A:D3:6E:DE:D8:48:B6:B7:3B:E8:89:2F:85:87
            X509v3 Authority Key Identifier: 
                keyid:EF:38:8D:14:50:58:A7:5B:4D:9C:17:72:FC:DF:B9:AC:A7:51:B0:10
                DirName:/C=US/ST=CA/L=SanFrancisco/O=Pixglo, Inc./OU=VPN-CIE/CN=tunnel.pixglo.com/name=Bala Chandrasekaran/emailAddress=bala@pixglo.com
                serial:A6:DB:C6:83:80:E6:A0:79

            X509v3 Extended Key Usage: 
                TLS Web Client Authentication
            X509v3 Key Usage: 
                Digital Signature
    Signature Algorithm: sha1WithRSAEncryption
         82:c0:3e:3a:83:ba:c6:0e:45:f0:e7:97:00:4e:b1:12:95:9a:
         67:d3:42:f6:35:20:83:69:6c:77:51:bf:4b:19:e9:8c:95:da:
         6d:9b:4f:10:d4:f4:50:9e:33:0f:d2:b8:23:57:d5:43:d9:88:
         6a:59:ba:07:81:a1:c2:b5:02:27:d3:f3:fa:5a:1e:67:30:39:
         b0:62:0c:a8:06:1e:67:56:b3:ff:7d:c3:30:f6:fd:2e:10:f2:
         5d:43:cb:c0:36:63:b1:99:a8:35:d6:ea:92:fb:fe:12:d2:ca:
         14:92:34:41:50:00:5e:c8:50:a8:10:a2:27:69:85:ec:32:19:
         16:56:cd:6e:16:8a:70:9d:5b:68:ab:9c:24:0e:d5:a5:70:71:
         1e:c8:35:dc:82:e5:bf:68:51:84:8f:ec:00:77:84:7c:b8:e8:
         be:08:2e:1d:db:60:19:45:cf:25:0d:bb:53:98:24:ae:b5:36:
         9d:14:53:fb:9f:df:39:04:70:8d:7b:6a:a2:a3:d0:a6:4a:b8:
         ff:5d:e6:41:07:4a:da:98:a4:b0:36:d5:b3:9c:10:0d:b3:a4:
         74:d3:fd:2c:fc:7f:fd:7c:f5:e1:d9:7a:0c:ab:ed:cd:4e:9f:
         5e:e9:3b:21:c1:34:db:6b:d8:6c:05:0b:9a:2d:55:4a:73:e3:
         59:3b:9a:79:61:92:48:e3:14:95:38:29:89:81:1c:59:c0:fd:
         20:c1:35:80:bb:0d:62:db:d9:02:34:55:76:1b:60:10:1f:27:
         e0:3d:2a:9a:d2:69:5d:77:81:d7:50:cb:61:b5:e2:05:34:cb:
         e6:52:93:5e:ac:04:94:d8:13:cf:2e:31:41:b2:16:5d:22:43:
         75:f0:62:ac:33:1b:aa:a2:d6:5b:5b:6c:e0:67:c9:9b:30:9a:
         92:2b:25:c5:cc:84:07:b8:15:7a:b6:24:3c:e6:e1:12:0b:22:
         5d:2e:89:38:98:2f:17:04:07:8f:3d:2c:b2:b7:7a:e4:60:04:
         4c:8a:d8:ec:36:04:49:54:47:0a:39:a6:19:b6:d9:82:18:b6:
         11:1a:05:c7:ff:65:9f:cb:6b:4b:f2:89:48:d6:73:34:bb:5f:
         05:f3:ae:99:9c:b7:a9:a4:2a:3a:38:bc:b1:ae:d5:11:e3:a1:
         00:8d:57:24:ec:07:c1:03:a9:72:ad:f2:ef:ac:a5:48:11:d4:
         2d:05:b6:0e:bf:5c:ed:0a:eb:51:81:0d:f0:f6:02:9d:df:93:
         47:a2:65:f2:4c:24:d4:3e:20:f2:46:ca:13:8e:d7:25:30:35:
         48:96:32:a8:ec:4c:5f:eb:90:bb:39:b8:7a:32:55:ca:d2:34:
         d1:c3:3b:28:76:bc:61:ee
-----BEGIN CERTIFICATE-----
MIIHSDCCBTCgAwIBAgICAYkwDQYJKoZIhvcNAQEFBQAwgbQxCzAJBgNVBAYTAlVT
MQswCQYDVQQIEwJDQTEVMBMGA1UEBxMMU2FuRnJhbmNpc2NvMRUwEwYDVQQKEwxQ
aXhnbG8sIEluYy4xEDAOBgNVBAsTB1ZQTi1DSUUxGjAYBgNVBAMTEXR1bm5lbC5w
aXhnbG8uY29tMRwwGgYDVQQpExNCYWxhIENoYW5kcmFzZWthcmFuMR4wHAYJKoZI
hvcNAQkBFg9iYWxhQHBpeGdsby5jb20wHhcNMTgwMjE0MDYzMjIyWhcNMjgwMjEy
MDYzMjIyWjCBqTELMAkGA1UEBhMCVVMxCzAJBgNVBAgTAkNBMRUwEwYDVQQHEwxT
YW5GcmFuY2lzY28xFTATBgNVBAoTDFBpeGdsbywgSW5jLjEQMA4GA1UECxMHVlBO
LUNJRTEPMA0GA1UEAxMGY2llMzkyMRwwGgYDVQQpExNCYWxhIENoYW5kcmFzZWth
cmFuMR4wHAYJKoZIhvcNAQkBFg9iYWxhQHBpeGdsby5jb20wggIiMA0GCSqGSIb3
DQEBAQUAA4ICDwAwggIKAoICAQCs6emTzT1SBqKipRjKtk9soy0Gg76lvSNetz/M
SHSgFnlUlo31PlPExFVzf6c2zPN6iYsUcvgZ7KSAhxmXyKHX4vVn4GnR4Ckd876n
pKLFHUwWIgQ9nYPpwlBYiFKo4Cd8UPOnu0zthsi+ZQ9RzNOzi7Y42RRwSDCQ7v61
8vjG6pd6lRt58n9gRJom8qeiY+//GwSWzNzrEwg8UINJOrZjqAQwvAQ/u0xVRkQ5
UR5AFjF9hk838LpvtiF+Law11yzEBfiEMAEyxZhgiqcQmLbJoK7djDCAZfDE0Owd
Qf7CnkH06c2FKWcwIhOqbQTj5T8NcWpupCsCpvpGw7D2h1WhRkkuwd60NHFTBCIZ
3srqcNX5AuFo4Rrdg6gCkgjh7J4uNgmyTaPWioZI0I8YPGBr0Z5QWmVButXCCR57
D3VrRPeFtUsS7Bm9E4sIiRuj9gWaYeSAxarwf7gfWXgIlwHY7I2PyLDqDUMFMLuE
RZni4VzMECyRRrTRqeGzSwbkZ5GgZ55ALlubU/TXCE3e8LdDpyT9PwVDn0Sm662l
SEzePXlvtZ2Gc398UyiLNLKPO5vAicexOtwtiUMMaUXxa6iYboRyshnfpw0nTyxs
w2sx8Rf6Il2UHzeJGEJXtq1hxvuejAOvFHE2W+13H86NRuVqQexDgaKAocHAPtCc
8KbU6QIDAQABo4IBazCCAWcwCQYDVR0TBAIwADAtBglghkgBhvhCAQ0EIBYeRWFz
eS1SU0EgR2VuZXJhdGVkIENlcnRpZmljYXRlMB0GA1UdDgQWBBQjZ+EXdEOK027e
2Ei2tzvoiS+FhzCB6QYDVR0jBIHhMIHegBTvOI0UUFinW02cF3L837msp1GwEKGB
uqSBtzCBtDELMAkGA1UEBhMCVVMxCzAJBgNVBAgTAkNBMRUwEwYDVQQHEwxTYW5G
cmFuY2lzY28xFTATBgNVBAoTDFBpeGdsbywgSW5jLjEQMA4GA1UECxMHVlBOLUNJ
RTEaMBgGA1UEAxMRdHVubmVsLnBpeGdsby5jb20xHDAaBgNVBCkTE0JhbGEgQ2hh
bmRyYXNla2FyYW4xHjAcBgkqhkiG9w0BCQEWD2JhbGFAcGl4Z2xvLmNvbYIJAKbb
xoOA5qB5MBMGA1UdJQQMMAoGCCsGAQUFBwMCMAsGA1UdDwQEAwIHgDANBgkqhkiG
9w0BAQUFAAOCAgEAgsA+OoO6xg5F8OeXAE6xEpWaZ9NC9jUgg2lsd1G/SxnpjJXa
bZtPENT0UJ4zD9K4I1fVQ9mIalm6B4GhwrUCJ9Pz+loeZzA5sGIMqAYeZ1az/33D
MPb9LhDyXUPLwDZjsZmoNdbqkvv+EtLKFJI0QVAAXshQqBCiJ2mF7DIZFlbNbhaK
cJ1baKucJA7VpXBxHsg13ILlv2hRhI/sAHeEfLjovgguHdtgGUXPJQ27U5gkrrU2
nRRT+5/fOQRwjXtqoqPQpkq4/13mQQdK2piksDbVs5wQDbOkdNP9LPx//Xz14dl6
DKvtzU6fXuk7IcE022vYbAULmi1VSnPjWTuaeWGSSOMUlTgpiYEcWcD9IME1gLsN
YtvZAjRVdhtgEB8n4D0qmtJpXXeB11DLYbXiBTTL5lKTXqwElNgTzy4xQbIWXSJD
dfBirDMbqqLWW1ts4GfJmzCakislxcyEB7gVerYkPObhEgsiXS6JOJgvFwQHjz0s
srd65GAETIrY7DYESVRHCjmmGbbZghi2ERoFx/9ln8trS/KJSNZzNLtfBfOumZy3
qaQqOji8sa7VEeOhAI1XJOwHwQOpcq3y76ylSBHULQW2Dr9c7QrrUYEN8PYCnd+T
R6Jl8kwk1D4g8kbKE47XJTA1SJYyqOxMX+uQuzm4ejJVytI00cM7KHa8Ye4=
-----END CERTIFICATE-----
