Certificate:
    Data:
        Version: 3 (0x2)
        Serial Number: 396 (0x18c)
    Signature Algorithm: sha1WithRSAEncryption
        Issuer: C=US, ST=CA, L=SanFrancisco, O=Pixglo, Inc., OU=VPN-CIE, CN=tunnel.pixglo.com/name=Bala Chandrasekaran/emailAddress=bala@pixglo.com
        Validity
            Not Before: Feb 14 06:32:29 2018 GMT
            Not After : Feb 12 06:32:29 2028 GMT
        Subject: C=US, ST=CA, L=SanFrancisco, O=Pixglo, Inc., OU=VPN-CIE, CN=cie395/name=Bala Chandrasekaran/emailAddress=bala@pixglo.com
        Subject Public Key Info:
            Public Key Algorithm: rsaEncryption
                Public-Key: (4096 bit)
                Modulus:
                    00:9e:1c:a7:d4:51:08:3f:4c:59:30:30:37:3d:d2:
                    58:f1:e3:9a:46:e8:36:bf:f1:d9:c6:43:45:fb:d9:
                    95:25:45:b3:b2:de:41:ef:9c:92:9b:88:87:f0:67:
                    b8:93:76:f3:ec:97:70:f5:6c:df:05:6a:29:d2:7c:
                    a3:26:e3:c8:01:d0:9e:36:13:9b:96:6d:68:6f:a4:
                    c7:45:4b:05:33:0e:b5:2e:c6:f5:7c:2b:42:31:c5:
                    ba:17:fb:5a:40:9c:34:95:fc:41:e1:65:a4:f0:c9:
                    47:12:a9:26:ea:70:8a:bb:2b:39:d3:56:66:9c:9e:
                    5e:7a:aa:4d:60:66:67:fe:dd:5f:33:df:bc:57:93:
                    f4:4d:98:93:49:08:e1:75:8c:c0:e4:ef:44:67:cd:
                    d4:0d:ac:3c:04:ad:d9:15:28:b4:35:19:e2:34:41:
                    e4:70:8b:48:59:8e:3d:95:e7:db:cb:13:57:ba:10:
                    25:cc:fe:46:16:bf:e8:9f:9a:5e:64:b7:36:27:b4:
                    cd:d7:88:5a:44:43:32:d1:ce:7a:b2:67:4d:d8:c3:
                    38:e9:27:b2:e8:a6:2a:cf:bc:e8:c9:d7:46:d3:95:
                    b5:8a:7f:bc:8b:90:7f:85:a6:dc:9b:6e:db:bf:46:
                    e1:45:29:f8:9b:e1:19:09:dc:77:b2:be:ef:8e:53:
                    7a:a1:a0:b8:d0:c2:61:6e:d9:c5:62:8d:7c:71:3d:
                    a2:03:58:5b:0c:fa:ee:93:05:9a:e2:30:90:1d:7c:
                    29:a5:dc:9b:a6:e2:c8:46:e1:15:8b:71:1b:44:a5:
                    e0:c2:0a:9c:7d:b5:8d:af:d7:24:00:44:cb:ef:7b:
                    e5:27:03:a8:d1:fe:d1:e4:93:cd:6a:a8:0f:3c:1c:
                    fb:7a:f9:39:7d:fd:31:75:b9:14:ef:fb:10:23:61:
                    2f:c4:6f:da:af:2e:77:d7:a3:8c:13:9f:69:6b:06:
                    8a:58:bd:de:76:ba:46:0a:b9:50:53:eb:eb:16:5b:
                    b8:e1:ae:e5:3e:05:67:47:2c:b3:2e:e3:42:4d:a1:
                    7c:c0:f7:7a:a3:e7:87:c1:7b:e0:a6:60:74:7a:da:
                    19:7b:72:06:37:b4:6f:2a:78:7e:da:5d:58:bd:ec:
                    27:88:a8:a5:f3:80:6c:f1:5c:c3:51:29:ad:bc:79:
                    23:b6:ad:0e:c4:f5:fb:c4:1f:14:2c:7e:e4:21:49:
                    dd:18:76:4a:29:11:1f:27:78:ad:0f:77:2f:cd:e8:
                    1b:00:38:c7:82:21:e8:03:04:44:6d:c7:39:11:54:
                    d3:92:a0:36:cb:a9:b1:ad:8b:93:40:0d:6a:ea:44:
                    53:6a:e1:90:c5:44:38:8b:91:3f:26:d7:3d:50:5d:
                    d4:bc:ad
                Exponent: 65537 (0x10001)
        X509v3 extensions:
            X509v3 Basic Constraints: 
                CA:FALSE
            Netscape Comment: 
                Easy-RSA Generated Certificate
            X509v3 Subject Key Identifier: 
                85:ED:D0:CD:B0:DD:D8:72:96:0B:CB:E1:14:5C:D1:F5:64:78:58:06
            X509v3 Authority Key Identifier: 
                keyid:EF:38:8D:14:50:58:A7:5B:4D:9C:17:72:FC:DF:B9:AC:A7:51:B0:10
                DirName:/C=US/ST=CA/L=SanFrancisco/O=Pixglo, Inc./OU=VPN-CIE/CN=tunnel.pixglo.com/name=Bala Chandrasekaran/emailAddress=bala@pixglo.com
                serial:A6:DB:C6:83:80:E6:A0:79

            X509v3 Extended Key Usage: 
                TLS Web Client Authentication
            X509v3 Key Usage: 
                Digital Signature
    Signature Algorithm: sha1WithRSAEncryption
         ac:e9:36:f5:df:8c:47:ce:ef:cd:70:15:4c:bf:b0:e8:90:a8:
         c5:0e:5c:da:7a:f2:53:28:5a:d2:00:0d:0f:e8:2e:8c:58:95:
         10:b2:15:6d:2d:4b:32:ff:fe:e5:1e:54:13:24:b3:e5:ac:12:
         60:08:aa:55:10:44:e9:be:5d:00:41:7e:37:8c:4e:64:81:07:
         d2:76:6c:8f:28:2d:b9:c0:2f:fa:10:89:16:53:89:6a:6c:ee:
         ab:b7:b1:08:28:ae:d7:45:06:3b:2f:c2:e4:72:ef:c8:06:c2:
         3b:ee:a6:a1:22:fa:16:b6:ba:0d:53:5b:ac:9f:d8:e1:9a:68:
         db:5d:6a:1c:e6:ae:d6:f5:4b:7d:b2:65:91:59:8c:ac:4e:a1:
         bd:74:e5:d5:27:b0:0c:cf:4a:2c:87:91:50:01:de:50:98:c3:
         56:15:3e:b7:6d:4b:4c:2e:92:b6:32:40:2c:d6:ea:28:47:99:
         a7:15:55:33:d9:c8:84:38:49:8f:59:98:ab:66:83:ec:03:cc:
         8f:05:67:c7:74:a1:2e:61:c9:64:db:11:70:51:f4:54:7a:59:
         d5:15:c2:7f:6c:65:83:3c:db:aa:89:79:77:03:46:49:6b:49:
         82:f1:d6:01:f5:c9:2a:31:a9:0f:7a:05:f8:8e:69:26:8e:47:
         56:1e:51:c1:ff:60:23:7c:a3:26:93:42:16:d3:af:1e:aa:96:
         a3:a1:d4:b0:d9:4d:6f:a7:ad:05:39:ef:8d:b7:ba:c0:98:81:
         0e:b6:a1:c7:7a:79:96:cd:d2:7d:66:d5:a5:e2:00:4d:0d:92:
         e5:5c:c1:4f:ca:09:02:28:e7:9b:d6:f4:94:1a:5a:a8:47:ad:
         c1:cd:f8:9a:a0:61:19:53:32:d8:fc:80:e5:3c:c3:70:26:53:
         78:5c:04:3c:5c:ba:46:f4:1c:e4:16:9c:75:49:dd:62:3f:b8:
         5a:36:d2:9a:04:9a:d9:ee:14:57:be:ca:61:ad:60:c5:46:89:
         89:2d:9a:b8:64:51:31:78:93:61:70:e1:8a:c1:95:a7:c7:d7:
         15:8c:31:77:e1:7a:d3:05:43:f6:1e:60:d4:2b:44:ab:a1:9f:
         63:9a:77:06:d1:0b:87:9a:1a:c4:57:9e:ab:42:d0:21:5c:16:
         af:00:5d:9c:45:ce:5c:58:03:e9:e1:36:fe:fa:90:41:1b:4d:
         1e:6a:e7:0b:2c:55:7a:6a:8e:25:ef:5f:ee:bf:32:14:a6:bb:
         ab:70:7a:39:f3:37:c2:7f:63:c6:10:a3:18:ca:25:0d:30:ec:
         4c:a3:85:2d:2c:2a:eb:9b:b8:a4:f9:93:04:11:ec:6d:ee:8a:
         95:12:0f:d3:cc:a2:54:83
-----BEGIN CERTIFICATE-----
MIIHSDCCBTCgAwIBAgICAYwwDQYJKoZIhvcNAQEFBQAwgbQxCzAJBgNVBAYTAlVT
MQswCQYDVQQIEwJDQTEVMBMGA1UEBxMMU2FuRnJhbmNpc2NvMRUwEwYDVQQKEwxQ
aXhnbG8sIEluYy4xEDAOBgNVBAsTB1ZQTi1DSUUxGjAYBgNVBAMTEXR1bm5lbC5w
aXhnbG8uY29tMRwwGgYDVQQpExNCYWxhIENoYW5kcmFzZWthcmFuMR4wHAYJKoZI
hvcNAQkBFg9iYWxhQHBpeGdsby5jb20wHhcNMTgwMjE0MDYzMjI5WhcNMjgwMjEy
MDYzMjI5WjCBqTELMAkGA1UEBhMCVVMxCzAJBgNVBAgTAkNBMRUwEwYDVQQHEwxT
YW5GcmFuY2lzY28xFTATBgNVBAoTDFBpeGdsbywgSW5jLjEQMA4GA1UECxMHVlBO
LUNJRTEPMA0GA1UEAxMGY2llMzk1MRwwGgYDVQQpExNCYWxhIENoYW5kcmFzZWth
cmFuMR4wHAYJKoZIhvcNAQkBFg9iYWxhQHBpeGdsby5jb20wggIiMA0GCSqGSIb3
DQEBAQUAA4ICDwAwggIKAoICAQCeHKfUUQg/TFkwMDc90ljx45pG6Da/8dnGQ0X7
2ZUlRbOy3kHvnJKbiIfwZ7iTdvPsl3D1bN8FainSfKMm48gB0J42E5uWbWhvpMdF
SwUzDrUuxvV8K0IxxboX+1pAnDSV/EHhZaTwyUcSqSbqcIq7KznTVmacnl56qk1g
Zmf+3V8z37xXk/RNmJNJCOF1jMDk70RnzdQNrDwErdkVKLQ1GeI0QeRwi0hZjj2V
59vLE1e6ECXM/kYWv+ifml5ktzYntM3XiFpEQzLRznqyZ03YwzjpJ7LopirPvOjJ
10bTlbWKf7yLkH+Fptybbtu/RuFFKfib4RkJ3Heyvu+OU3qhoLjQwmFu2cVijXxx
PaIDWFsM+u6TBZriMJAdfCml3Jum4shG4RWLcRtEpeDCCpx9tY2v1yQARMvve+Un
A6jR/tHkk81qqA88HPt6+Tl9/TF1uRTv+xAjYS/Eb9qvLnfXo4wTn2lrBopYvd52
ukYKuVBT6+sWW7jhruU+BWdHLLMu40JNoXzA93qj54fBe+CmYHR62hl7cgY3tG8q
eH7aXVi97CeIqKXzgGzxXMNRKa28eSO2rQ7E9fvEHxQsfuQhSd0YdkopER8neK0P
dy/N6BsAOMeCIegDBERtxzkRVNOSoDbLqbGti5NADWrqRFNq4ZDFRDiLkT8m1z1Q
XdS8rQIDAQABo4IBazCCAWcwCQYDVR0TBAIwADAtBglghkgBhvhCAQ0EIBYeRWFz
eS1SU0EgR2VuZXJhdGVkIENlcnRpZmljYXRlMB0GA1UdDgQWBBSF7dDNsN3YcpYL
y+EUXNH1ZHhYBjCB6QYDVR0jBIHhMIHegBTvOI0UUFinW02cF3L837msp1GwEKGB
uqSBtzCBtDELMAkGA1UEBhMCVVMxCzAJBgNVBAgTAkNBMRUwEwYDVQQHEwxTYW5G
cmFuY2lzY28xFTATBgNVBAoTDFBpeGdsbywgSW5jLjEQMA4GA1UECxMHVlBOLUNJ
RTEaMBgGA1UEAxMRdHVubmVsLnBpeGdsby5jb20xHDAaBgNVBCkTE0JhbGEgQ2hh
bmRyYXNla2FyYW4xHjAcBgkqhkiG9w0BCQEWD2JhbGFAcGl4Z2xvLmNvbYIJAKbb
xoOA5qB5MBMGA1UdJQQMMAoGCCsGAQUFBwMCMAsGA1UdDwQEAwIHgDANBgkqhkiG
9w0BAQUFAAOCAgEArOk29d+MR87vzXAVTL+w6JCoxQ5c2nryUyha0gAND+gujFiV
ELIVbS1LMv/+5R5UEySz5awSYAiqVRBE6b5dAEF+N4xOZIEH0nZsjygtucAv+hCJ
FlOJamzuq7exCCiu10UGOy/C5HLvyAbCO+6moSL6Fra6DVNbrJ/Y4Zpo211qHOau
1vVLfbJlkVmMrE6hvXTl1SewDM9KLIeRUAHeUJjDVhU+t21LTC6StjJALNbqKEeZ
pxVVM9nIhDhJj1mYq2aD7APMjwVnx3ShLmHJZNsRcFH0VHpZ1RXCf2xlgzzbqol5
dwNGSWtJgvHWAfXJKjGpD3oF+I5pJo5HVh5Rwf9gI3yjJpNCFtOvHqqWo6HUsNlN
b6etBTnvjbe6wJiBDrahx3p5ls3SfWbVpeIATQ2S5VzBT8oJAijnm9b0lBpaqEet
wc34mqBhGVMy2PyA5TzDcCZTeFwEPFy6RvQc5BacdUndYj+4WjbSmgSa2e4UV77K
Ya1gxUaJiS2auGRRMXiTYXDhisGVp8fXFYwxd+F60wVD9h5g1CtEq6GfY5p3BtEL
h5oaxFeeq0LQIVwWrwBdnEXOXFgD6eE2/vqQQRtNHmrnCyxVemqOJe9f7r8yFKa7
q3B6OfM3wn9jxhCjGMolDTDsTKOFLSwq65u4pPmTBBHsbe6KlRIP08yiVIM=
-----END CERTIFICATE-----
