Certificate:
    Data:
        Version: 3 (0x2)
        Serial Number: 354 (0x162)
    Signature Algorithm: sha1WithRSAEncryption
        Issuer: C=US, ST=CA, L=SanFrancisco, O=Pixglo, Inc., OU=VPN-CIE, CN=tunnel.pixglo.com/name=Bala Chandrasekaran/emailAddress=bala@pixglo.com
        Validity
            Not Before: Feb 14 06:31:05 2018 GMT
            Not After : Feb 12 06:31:05 2028 GMT
        Subject: C=US, ST=CA, L=SanFrancisco, O=Pixglo, Inc., OU=VPN-CIE, CN=cie353/name=Bala Chandrasekaran/emailAddress=bala@pixglo.com
        Subject Public Key Info:
            Public Key Algorithm: rsaEncryption
                Public-Key: (4096 bit)
                Modulus:
                    00:d3:f8:11:ee:29:00:80:5b:41:aa:f3:3d:0d:da:
                    4a:17:82:85:ea:17:82:b2:db:76:37:7d:b0:55:37:
                    3c:65:05:fb:d3:1c:d3:9d:b0:5a:ea:80:6e:78:33:
                    a0:f0:eb:52:41:2e:0f:00:3c:ce:24:ed:e2:2f:92:
                    8b:ea:f5:36:63:d1:03:25:65:73:ab:ef:b2:89:3b:
                    5f:1a:5f:c5:68:c9:2f:7a:67:78:19:6b:c4:a7:13:
                    4a:50:12:9e:c7:81:63:9e:35:1d:0a:5b:91:27:d4:
                    24:e0:61:8f:79:04:2e:8b:68:0e:de:20:80:07:10:
                    bc:35:47:db:3e:da:0a:cb:0c:ba:a3:fa:d2:76:aa:
                    82:09:a7:84:ed:78:b4:d7:4a:73:95:41:d2:4b:fe:
                    ba:83:2d:3f:18:bb:04:37:43:55:f9:a0:1c:6f:88:
                    b0:b5:c4:29:1f:5e:9a:4c:ad:9d:ce:d2:be:a8:30:
                    80:11:c2:58:85:00:d6:05:80:e3:ec:d8:15:23:ff:
                    3f:92:83:09:02:08:10:c6:75:85:58:a5:ff:c0:b3:
                    7d:08:df:ec:fc:61:10:21:0a:5c:09:f7:ce:9b:01:
                    96:20:7e:43:a1:c2:80:6c:b2:a5:7d:d6:2d:a5:f9:
                    d5:66:25:46:16:65:91:a8:d3:d0:df:df:15:65:7f:
                    dd:36:2d:32:22:8a:0d:6a:fc:f2:cc:8b:ee:5a:ff:
                    7d:a1:3d:20:38:3c:1c:fb:5d:a1:f4:e3:76:af:bc:
                    d2:89:6f:af:6f:72:77:0d:fb:74:66:4c:83:0d:39:
                    54:76:0f:14:4c:60:22:73:87:df:d0:d3:06:4e:e5:
                    5a:b8:59:b9:77:1e:64:96:c2:cd:48:13:90:54:97:
                    7d:c5:f3:3d:27:53:80:a3:6f:18:e6:c5:41:08:97:
                    d9:b0:62:7c:a5:f9:c0:5a:44:50:4e:37:4b:b4:10:
                    53:44:65:4b:e8:ed:aa:59:c1:72:56:10:40:3d:80:
                    94:40:8d:e9:c0:ee:76:67:1d:2e:28:b4:b5:d7:1b:
                    9d:a1:1a:43:38:cf:63:c8:94:8c:d7:eb:99:bd:1f:
                    45:ef:08:aa:fd:45:2e:3f:d7:54:1c:be:36:8e:13:
                    92:a0:7e:6c:23:e1:66:c4:d2:93:4c:26:8e:30:16:
                    45:0a:a4:ea:29:4f:60:14:35:57:d9:21:f5:81:c1:
                    43:ad:eb:af:0b:3e:32:28:fb:7f:0f:8e:89:fe:33:
                    6c:46:90:39:ff:42:ac:35:75:7b:6f:b5:c3:6e:16:
                    75:89:51:12:06:26:34:01:e5:8e:7c:ba:ca:7b:17:
                    fc:04:2b:07:c8:75:11:eb:37:f7:15:0f:8a:95:c3:
                    f5:a2:d1
                Exponent: 65537 (0x10001)
        X509v3 extensions:
            X509v3 Basic Constraints: 
                CA:FALSE
            Netscape Comment: 
                Easy-RSA Generated Certificate
            X509v3 Subject Key Identifier: 
                5A:D1:CB:6A:F3:BE:2F:8C:EB:EE:40:5C:A4:9E:68:C2:09:19:A1:1D
            X509v3 Authority Key Identifier: 
                keyid:EF:38:8D:14:50:58:A7:5B:4D:9C:17:72:FC:DF:B9:AC:A7:51:B0:10
                DirName:/C=US/ST=CA/L=SanFrancisco/O=Pixglo, Inc./OU=VPN-CIE/CN=tunnel.pixglo.com/name=Bala Chandrasekaran/emailAddress=bala@pixglo.com
                serial:A6:DB:C6:83:80:E6:A0:79

            X509v3 Extended Key Usage: 
                TLS Web Client Authentication
            X509v3 Key Usage: 
                Digital Signature
    Signature Algorithm: sha1WithRSAEncryption
         37:17:a3:2e:c7:f5:31:3e:37:f2:6d:73:e6:a9:c6:4c:9e:5f:
         74:d9:e4:86:a4:6a:5f:d6:63:24:e4:08:54:7c:07:71:37:ca:
         8e:17:d9:6c:dc:9d:05:6a:85:f9:a6:51:b3:43:76:e9:22:83:
         46:00:06:d5:0a:c9:dc:04:ed:22:d9:b9:df:d4:d5:b1:b3:d0:
         15:26:54:41:12:1f:62:17:c8:17:9f:01:77:aa:bf:b2:54:e0:
         94:12:bb:69:4a:c7:da:a3:8a:98:4d:92:b0:a2:b9:00:ef:c5:
         1c:28:f0:24:c1:db:12:31:e7:7e:5b:2d:4d:d5:5f:29:31:a8:
         09:df:71:6b:8a:4d:8c:a0:f9:9d:ba:04:d5:33:57:48:35:43:
         63:93:68:2d:d7:e5:58:c2:80:7e:de:25:ba:da:aa:92:e6:5c:
         ad:a8:47:73:67:eb:b9:bf:11:02:aa:9c:70:45:04:67:22:c9:
         9f:c6:80:77:40:f9:47:7b:fe:e7:45:e9:3b:55:84:29:9c:e1:
         15:b0:7a:5b:6b:6d:bc:76:00:7b:b4:83:3e:9b:44:52:77:81:
         5b:3c:b5:44:06:ff:46:2f:fc:4e:a5:03:a7:2b:bf:80:2a:82:
         a8:f9:15:17:01:78:df:27:f7:53:39:8d:b3:66:d8:19:92:c5:
         69:ed:0b:b7:63:b1:fc:e7:aa:89:8a:77:c8:c2:aa:f0:9f:80:
         be:91:5e:1f:fe:1c:ed:a9:5a:60:95:5c:b5:ec:46:5d:85:c7:
         57:55:ed:61:1b:53:1d:0d:8a:3d:3b:59:99:3f:f5:af:72:9a:
         33:76:5b:ad:f1:6f:69:e8:14:8d:f6:42:02:f8:21:47:e3:ee:
         d0:d9:20:13:de:09:aa:e1:4c:dc:7c:4f:c1:40:ef:1f:3f:76:
         8b:95:63:85:86:24:af:2a:bb:15:fd:a2:e8:a6:40:45:9c:e9:
         0a:8c:73:44:a3:36:ad:b5:bb:a9:f8:66:e2:b7:6b:05:05:76:
         fd:a0:07:45:9d:61:dd:bb:70:a6:68:be:96:f2:df:78:a0:7f:
         bf:a3:bd:09:32:b1:f2:0d:a5:35:dd:e2:d6:2d:2b:5c:63:cc:
         9a:0f:7a:c4:ee:12:49:f3:1f:85:a7:c3:f1:78:82:65:cf:61:
         79:d5:38:02:d6:95:c0:86:7d:aa:a5:91:be:61:9f:8e:53:a0:
         15:90:00:15:14:45:1f:ee:9e:f4:aa:ee:f6:e0:22:52:0d:27:
         f4:fd:8d:25:11:7f:66:82:52:f6:06:4d:37:88:df:1b:1f:e1:
         f9:09:96:c9:62:0c:24:a4:96:e2:f1:92:62:94:07:25:78:70:
         83:33:87:4b:ea:70:22:3b
-----BEGIN CERTIFICATE-----
MIIHSDCCBTCgAwIBAgICAWIwDQYJKoZIhvcNAQEFBQAwgbQxCzAJBgNVBAYTAlVT
MQswCQYDVQQIEwJDQTEVMBMGA1UEBxMMU2FuRnJhbmNpc2NvMRUwEwYDVQQKEwxQ
aXhnbG8sIEluYy4xEDAOBgNVBAsTB1ZQTi1DSUUxGjAYBgNVBAMTEXR1bm5lbC5w
aXhnbG8uY29tMRwwGgYDVQQpExNCYWxhIENoYW5kcmFzZWthcmFuMR4wHAYJKoZI
hvcNAQkBFg9iYWxhQHBpeGdsby5jb20wHhcNMTgwMjE0MDYzMTA1WhcNMjgwMjEy
MDYzMTA1WjCBqTELMAkGA1UEBhMCVVMxCzAJBgNVBAgTAkNBMRUwEwYDVQQHEwxT
YW5GcmFuY2lzY28xFTATBgNVBAoTDFBpeGdsbywgSW5jLjEQMA4GA1UECxMHVlBO
LUNJRTEPMA0GA1UEAxMGY2llMzUzMRwwGgYDVQQpExNCYWxhIENoYW5kcmFzZWth
cmFuMR4wHAYJKoZIhvcNAQkBFg9iYWxhQHBpeGdsby5jb20wggIiMA0GCSqGSIb3
DQEBAQUAA4ICDwAwggIKAoICAQDT+BHuKQCAW0Gq8z0N2koXgoXqF4Ky23Y3fbBV
NzxlBfvTHNOdsFrqgG54M6Dw61JBLg8APM4k7eIvkovq9TZj0QMlZXOr77KJO18a
X8VoyS96Z3gZa8SnE0pQEp7HgWOeNR0KW5En1CTgYY95BC6LaA7eIIAHELw1R9s+
2grLDLqj+tJ2qoIJp4TteLTXSnOVQdJL/rqDLT8YuwQ3Q1X5oBxviLC1xCkfXppM
rZ3O0r6oMIARwliFANYFgOPs2BUj/z+SgwkCCBDGdYVYpf/As30I3+z8YRAhClwJ
986bAZYgfkOhwoBssqV91i2l+dVmJUYWZZGo09Df3xVlf902LTIiig1q/PLMi+5a
/32hPSA4PBz7XaH043avvNKJb69vcncN+3RmTIMNOVR2DxRMYCJzh9/Q0wZO5Vq4
Wbl3HmSWws1IE5BUl33F8z0nU4CjbxjmxUEIl9mwYnyl+cBaRFBON0u0EFNEZUvo
7apZwXJWEEA9gJRAjenA7nZnHS4otLXXG52hGkM4z2PIlIzX65m9H0XvCKr9RS4/
11QcvjaOE5Kgfmwj4WbE0pNMJo4wFkUKpOopT2AUNVfZIfWBwUOt668LPjIo+38P
jon+M2xGkDn/Qqw1dXtvtcNuFnWJURIGJjQB5Y58usp7F/wEKwfIdRHrN/cVD4qV
w/Wi0QIDAQABo4IBazCCAWcwCQYDVR0TBAIwADAtBglghkgBhvhCAQ0EIBYeRWFz
eS1SU0EgR2VuZXJhdGVkIENlcnRpZmljYXRlMB0GA1UdDgQWBBRa0ctq874vjOvu
QFyknmjCCRmhHTCB6QYDVR0jBIHhMIHegBTvOI0UUFinW02cF3L837msp1GwEKGB
uqSBtzCBtDELMAkGA1UEBhMCVVMxCzAJBgNVBAgTAkNBMRUwEwYDVQQHEwxTYW5G
cmFuY2lzY28xFTATBgNVBAoTDFBpeGdsbywgSW5jLjEQMA4GA1UECxMHVlBOLUNJ
RTEaMBgGA1UEAxMRdHVubmVsLnBpeGdsby5jb20xHDAaBgNVBCkTE0JhbGEgQ2hh
bmRyYXNla2FyYW4xHjAcBgkqhkiG9w0BCQEWD2JhbGFAcGl4Z2xvLmNvbYIJAKbb
xoOA5qB5MBMGA1UdJQQMMAoGCCsGAQUFBwMCMAsGA1UdDwQEAwIHgDANBgkqhkiG
9w0BAQUFAAOCAgEANxejLsf1MT438m1z5qnGTJ5fdNnkhqRqX9ZjJOQIVHwHcTfK
jhfZbNydBWqF+aZRs0N26SKDRgAG1QrJ3ATtItm539TVsbPQFSZUQRIfYhfIF58B
d6q/slTglBK7aUrH2qOKmE2SsKK5AO/FHCjwJMHbEjHnflstTdVfKTGoCd9xa4pN
jKD5nboE1TNXSDVDY5NoLdflWMKAft4lutqqkuZcrahHc2frub8RAqqccEUEZyLJ
n8aAd0D5R3v+50XpO1WEKZzhFbB6W2ttvHYAe7SDPptEUneBWzy1RAb/Ri/8TqUD
pyu/gCqCqPkVFwF43yf3UzmNs2bYGZLFae0Lt2Ox/OeqiYp3yMKq8J+AvpFeH/4c
7alaYJVctexGXYXHV1XtYRtTHQ2KPTtZmT/1r3KaM3ZbrfFvaegUjfZCAvghR+Pu
0NkgE94JquFM3HxPwUDvHz92i5VjhYYkryq7Ff2i6KZARZzpCoxzRKM2rbW7qfhm
4rdrBQV2/aAHRZ1h3btwpmi+lvLfeKB/v6O9CTKx8g2lNd3i1i0rXGPMmg96xO4S
SfMfhafD8XiCZc9hedU4AtaVwIZ9qqWRvmGfjlOgFZAAFRRFH+6e9Kru9uAiUg0n
9P2NJRF/ZoJS9gZNN4jfGx/h+QmWyWIMJKSW4vGSYpQHJXhwgzOHS+pwIjs=
-----END CERTIFICATE-----
