Certificate:
    Data:
        Version: 3 (0x2)
        Serial Number: 368 (0x170)
    Signature Algorithm: sha1WithRSAEncryption
        Issuer: C=US, ST=CA, L=SanFrancisco, O=Pixglo, Inc., OU=VPN-CIE, CN=tunnel.pixglo.com/name=Bala Chandrasekaran/emailAddress=bala@pixglo.com
        Validity
            Not Before: Feb 14 06:31:36 2018 GMT
            Not After : Feb 12 06:31:36 2028 GMT
        Subject: C=US, ST=CA, L=SanFrancisco, O=Pixglo, Inc., OU=VPN-CIE, CN=cie367/name=Bala Chandrasekaran/emailAddress=bala@pixglo.com
        Subject Public Key Info:
            Public Key Algorithm: rsaEncryption
                Public-Key: (4096 bit)
                Modulus:
                    00:db:e9:4c:cd:45:b5:5b:fd:87:6d:ca:f7:85:50:
                    2d:de:97:db:8d:fe:45:03:cc:9a:c2:1b:ed:74:e2:
                    76:b0:ae:33:4e:8e:ab:da:36:2f:50:89:24:db:83:
                    90:0a:cb:73:b2:2a:c3:cc:72:e9:bd:12:5a:49:fd:
                    2b:45:b8:81:87:3e:11:6e:61:f6:b6:14:67:be:1e:
                    7c:bb:56:19:80:84:b3:11:69:17:f2:66:da:f2:8d:
                    ef:be:85:8c:49:f4:b1:53:17:f0:8d:8b:c7:f1:06:
                    42:3c:c7:c8:82:cb:b1:a8:c4:15:36:42:6b:d0:f4:
                    80:38:df:3b:3a:31:70:80:47:f1:dd:c0:55:92:94:
                    cd:a9:01:e3:28:d9:1a:93:96:07:db:cb:18:b6:1a:
                    0e:3a:98:7a:b0:36:7f:8c:a9:43:fe:3e:8a:f6:19:
                    74:6f:0b:2a:ef:a2:08:fb:3c:eb:3a:c6:4e:c3:73:
                    b1:a2:08:31:ed:36:53:41:5e:ef:f3:61:fc:a3:ae:
                    be:4c:38:2d:32:29:de:50:2d:60:da:af:af:80:8d:
                    d1:21:76:ba:2b:b3:44:ea:bc:43:eb:0a:4a:ef:04:
                    c1:4e:a1:d4:2e:4e:03:7b:73:2c:8f:67:60:b8:5e:
                    5e:52:96:5d:66:42:84:ba:7b:d4:9d:16:60:88:ce:
                    72:48:1c:89:67:98:12:2f:da:1f:47:c0:a9:c9:6d:
                    4b:31:e8:6c:83:4c:a6:02:2b:63:fa:fe:7f:e3:69:
                    c9:08:c8:53:82:2d:9f:5e:51:02:dc:d5:9b:7e:db:
                    65:4f:ff:9e:5b:bf:9c:45:85:b1:7e:b1:e9:c2:b4:
                    5f:5c:8f:f2:77:57:32:b1:99:45:29:9c:6d:4b:ca:
                    5f:3e:cf:81:2b:2c:4f:fb:09:8f:7c:b1:74:64:11:
                    b2:54:51:05:70:4f:be:f8:b7:24:99:36:e7:b7:33:
                    23:1f:28:73:de:d3:d0:8d:5a:c9:b3:cc:8f:25:c0:
                    34:52:2f:19:d0:27:5c:c2:9c:64:17:c8:80:91:af:
                    50:ad:ca:a7:7a:f4:93:7f:84:73:f8:23:90:d6:f0:
                    bd:25:ae:d2:98:bc:32:ae:b1:e4:4e:47:8b:88:13:
                    62:81:d2:13:49:23:e5:1e:10:14:9c:f2:61:a5:b7:
                    cb:98:d9:81:c4:05:ae:43:3e:7c:2f:25:59:f8:d3:
                    0a:40:f8:85:1f:d5:eb:04:64:6d:53:ea:41:be:6b:
                    da:05:09:9e:48:63:85:00:72:2a:4f:c3:97:3a:85:
                    c7:9d:63:bf:9f:21:bf:3a:57:90:8a:2f:5e:93:97:
                    61:c9:9e:0c:9d:63:97:15:69:be:a2:7f:9b:62:98:
                    44:3b:69
                Exponent: 65537 (0x10001)
        X509v3 extensions:
            X509v3 Basic Constraints: 
                CA:FALSE
            Netscape Comment: 
                Easy-RSA Generated Certificate
            X509v3 Subject Key Identifier: 
                C7:EE:0B:2E:60:20:22:E8:8E:24:58:EB:32:1A:64:58:43:9D:0F:4F
            X509v3 Authority Key Identifier: 
                keyid:EF:38:8D:14:50:58:A7:5B:4D:9C:17:72:FC:DF:B9:AC:A7:51:B0:10
                DirName:/C=US/ST=CA/L=SanFrancisco/O=Pixglo, Inc./OU=VPN-CIE/CN=tunnel.pixglo.com/name=Bala Chandrasekaran/emailAddress=bala@pixglo.com
                serial:A6:DB:C6:83:80:E6:A0:79

            X509v3 Extended Key Usage: 
                TLS Web Client Authentication
            X509v3 Key Usage: 
                Digital Signature
    Signature Algorithm: sha1WithRSAEncryption
         21:46:84:84:5c:51:fb:7f:59:ff:35:b4:21:fd:f7:88:1b:ad:
         8b:20:ce:c7:7c:ef:f7:d5:ff:c1:5c:3f:ee:b7:9f:10:5b:71:
         cf:3a:65:45:cd:06:37:79:f3:51:78:b0:04:92:f7:e9:f0:95:
         70:68:b0:99:c6:62:5b:40:b1:20:9a:80:90:f5:f2:b3:61:03:
         40:ac:f2:b1:2c:ba:45:e8:17:08:88:98:91:67:93:ff:9d:ce:
         fb:8c:11:9c:2d:88:58:cf:d9:b4:52:5a:a5:9b:06:1d:2f:af:
         e4:43:c7:85:b4:ba:b9:c7:3f:89:fd:73:62:ba:a7:86:da:f8:
         84:54:f7:7d:18:55:a4:41:d0:78:07:6b:ed:94:38:1b:70:01:
         d7:0d:21:db:04:c7:c4:f7:f7:4f:89:f4:f8:b5:ca:63:c7:6e:
         84:1f:d4:fa:44:14:dd:0f:b1:b2:ba:80:a4:60:c2:5b:c2:0d:
         5e:50:bc:89:5d:b7:44:53:45:2a:4a:fe:34:19:e9:6b:7c:bc:
         4e:c8:5f:f4:a3:cc:9d:09:2d:32:9c:c2:8d:c1:06:0d:81:33:
         ca:c7:8c:d0:c4:8f:0f:ed:03:55:c2:88:6b:70:d8:e1:3c:9a:
         7d:4f:36:dc:0c:4b:07:26:50:be:fa:f1:63:41:51:1b:74:d3:
         73:9c:ca:47:be:b5:1d:b6:6a:34:1f:61:c3:ce:75:a2:fa:30:
         29:79:83:f6:ef:c4:9c:5f:a9:65:0c:e6:fd:70:79:65:5e:b3:
         3f:3f:da:2d:12:ec:e4:b5:6a:97:00:d8:1e:28:25:8e:76:81:
         a4:90:19:59:81:4c:08:b4:83:c2:51:2b:3a:6c:87:07:07:b7:
         91:f1:45:cb:fe:aa:88:d0:88:ad:e3:60:8b:1c:94:e3:0a:77:
         c1:7a:e6:87:e1:84:ff:fd:e3:b8:7b:7a:83:8d:34:1c:62:f4:
         ad:28:8f:f4:ec:d3:61:d9:92:b2:6e:56:32:05:20:4a:ef:d0:
         7a:b5:ea:df:ef:7d:af:cf:d0:c0:4f:62:19:a7:f7:92:81:b4:
         c7:40:0e:8b:a9:05:4b:a4:2a:1a:0e:fa:86:fe:6c:0b:56:1e:
         4c:8d:9c:f7:97:1e:e9:63:90:25:97:05:94:26:94:08:1d:8d:
         08:1c:1b:1b:e0:0e:34:2d:c8:bb:3d:c0:4b:34:b5:57:b8:a1:
         19:18:e6:c4:98:e6:b2:db:d0:bd:d9:8b:aa:92:ce:6f:7d:72:
         18:68:ab:c4:4d:b5:b1:f6:dd:cf:7c:a7:4f:c2:6b:a9:61:2f:
         a3:bf:b4:32:3c:dc:e8:ad:c8:d2:14:2a:50:0a:84:dd:c3:32:
         f3:7e:89:7d:81:32:63:6b
-----BEGIN CERTIFICATE-----
MIIHSDCCBTCgAwIBAgICAXAwDQYJKoZIhvcNAQEFBQAwgbQxCzAJBgNVBAYTAlVT
MQswCQYDVQQIEwJDQTEVMBMGA1UEBxMMU2FuRnJhbmNpc2NvMRUwEwYDVQQKEwxQ
aXhnbG8sIEluYy4xEDAOBgNVBAsTB1ZQTi1DSUUxGjAYBgNVBAMTEXR1bm5lbC5w
aXhnbG8uY29tMRwwGgYDVQQpExNCYWxhIENoYW5kcmFzZWthcmFuMR4wHAYJKoZI
hvcNAQkBFg9iYWxhQHBpeGdsby5jb20wHhcNMTgwMjE0MDYzMTM2WhcNMjgwMjEy
MDYzMTM2WjCBqTELMAkGA1UEBhMCVVMxCzAJBgNVBAgTAkNBMRUwEwYDVQQHEwxT
YW5GcmFuY2lzY28xFTATBgNVBAoTDFBpeGdsbywgSW5jLjEQMA4GA1UECxMHVlBO
LUNJRTEPMA0GA1UEAxMGY2llMzY3MRwwGgYDVQQpExNCYWxhIENoYW5kcmFzZWth
cmFuMR4wHAYJKoZIhvcNAQkBFg9iYWxhQHBpeGdsby5jb20wggIiMA0GCSqGSIb3
DQEBAQUAA4ICDwAwggIKAoICAQDb6UzNRbVb/YdtyveFUC3el9uN/kUDzJrCG+10
4nawrjNOjqvaNi9QiSTbg5AKy3OyKsPMcum9ElpJ/StFuIGHPhFuYfa2FGe+Hny7
VhmAhLMRaRfyZtryje++hYxJ9LFTF/CNi8fxBkI8x8iCy7GoxBU2QmvQ9IA43zs6
MXCAR/HdwFWSlM2pAeMo2RqTlgfbyxi2Gg46mHqwNn+MqUP+Por2GXRvCyrvogj7
POs6xk7Dc7GiCDHtNlNBXu/zYfyjrr5MOC0yKd5QLWDar6+AjdEhdrors0TqvEPr
CkrvBMFOodQuTgN7cyyPZ2C4Xl5Sll1mQoS6e9SdFmCIznJIHIlnmBIv2h9HwKnJ
bUsx6GyDTKYCK2P6/n/jackIyFOCLZ9eUQLc1Zt+22VP/55bv5xFhbF+senCtF9c
j/J3VzKxmUUpnG1Lyl8+z4ErLE/7CY98sXRkEbJUUQVwT774tySZNue3MyMfKHPe
09CNWsmzzI8lwDRSLxnQJ1zCnGQXyICRr1Ctyqd69JN/hHP4I5DW8L0lrtKYvDKu
seROR4uIE2KB0hNJI+UeEBSc8mGlt8uY2YHEBa5DPnwvJVn40wpA+IUf1esEZG1T
6kG+a9oFCZ5IY4UAcipPw5c6hcedY7+fIb86V5CKL16Tl2HJngydY5cVab6if5ti
mEQ7aQIDAQABo4IBazCCAWcwCQYDVR0TBAIwADAtBglghkgBhvhCAQ0EIBYeRWFz
eS1SU0EgR2VuZXJhdGVkIENlcnRpZmljYXRlMB0GA1UdDgQWBBTH7gsuYCAi6I4k
WOsyGmRYQ50PTzCB6QYDVR0jBIHhMIHegBTvOI0UUFinW02cF3L837msp1GwEKGB
uqSBtzCBtDELMAkGA1UEBhMCVVMxCzAJBgNVBAgTAkNBMRUwEwYDVQQHEwxTYW5G
cmFuY2lzY28xFTATBgNVBAoTDFBpeGdsbywgSW5jLjEQMA4GA1UECxMHVlBOLUNJ
RTEaMBgGA1UEAxMRdHVubmVsLnBpeGdsby5jb20xHDAaBgNVBCkTE0JhbGEgQ2hh
bmRyYXNla2FyYW4xHjAcBgkqhkiG9w0BCQEWD2JhbGFAcGl4Z2xvLmNvbYIJAKbb
xoOA5qB5MBMGA1UdJQQMMAoGCCsGAQUFBwMCMAsGA1UdDwQEAwIHgDANBgkqhkiG
9w0BAQUFAAOCAgEAIUaEhFxR+39Z/zW0If33iButiyDOx3zv99X/wVw/7refEFtx
zzplRc0GN3nzUXiwBJL36fCVcGiwmcZiW0CxIJqAkPXys2EDQKzysSy6RegXCIiY
kWeT/53O+4wRnC2IWM/ZtFJapZsGHS+v5EPHhbS6ucc/if1zYrqnhtr4hFT3fRhV
pEHQeAdr7ZQ4G3AB1w0h2wTHxPf3T4n0+LXKY8duhB/U+kQU3Q+xsrqApGDCW8IN
XlC8iV23RFNFKkr+NBnpa3y8Tshf9KPMnQktMpzCjcEGDYEzyseM0MSPD+0DVcKI
a3DY4TyafU823AxLByZQvvrxY0FRG3TTc5zKR761HbZqNB9hw851ovowKXmD9u/E
nF+pZQzm/XB5ZV6zPz/aLRLs5LVqlwDYHigljnaBpJAZWYFMCLSDwlErOmyHBwe3
kfFFy/6qiNCIreNgixyU4wp3wXrmh+GE//3juHt6g400HGL0rSiP9OzTYdmSsm5W
MgUgSu/QerXq3+99r8/QwE9iGaf3koG0x0AOi6kFS6QqGg76hv5sC1YeTI2c95ce
6WOQJZcFlCaUCB2NCBwbG+AONC3Iuz3ASzS1V7ihGRjmxJjmstvQvdmLqpLOb31y
GGirxE21sfbdz3ynT8JrqWEvo7+0Mjzc6K3I0hQqUAqE3cMy836JfYEyY2s=
-----END CERTIFICATE-----
