Certificate:
    Data:
        Version: 3 (0x2)
        Serial Number: 367 (0x16f)
    Signature Algorithm: sha1WithRSAEncryption
        Issuer: C=US, ST=CA, L=SanFrancisco, O=Pixglo, Inc., OU=VPN-CIE, CN=tunnel.pixglo.com/name=Bala Chandrasekaran/emailAddress=bala@pixglo.com
        Validity
            Not Before: Feb 14 06:31:33 2018 GMT
            Not After : Feb 12 06:31:33 2028 GMT
        Subject: C=US, ST=CA, L=SanFrancisco, O=Pixglo, Inc., OU=VPN-CIE, CN=cie366/name=Bala Chandrasekaran/emailAddress=bala@pixglo.com
        Subject Public Key Info:
            Public Key Algorithm: rsaEncryption
                Public-Key: (4096 bit)
                Modulus:
                    00:bf:ab:6c:7d:97:75:27:50:9c:6f:53:6d:32:25:
                    86:44:76:b0:c6:46:7a:1e:37:58:00:4e:3c:62:16:
                    f0:cf:03:ab:78:31:44:ab:83:33:8d:b3:a2:0e:33:
                    21:84:95:bb:5b:2f:13:80:98:01:64:66:92:8f:fe:
                    b0:4f:64:7f:d4:3f:d8:43:31:b2:f3:d0:75:99:9d:
                    d3:58:42:77:f0:3a:e5:03:7f:8a:4b:51:b3:d5:07:
                    7b:37:6c:a0:cc:a6:9b:5b:b8:0e:c5:14:05:84:bf:
                    0b:64:02:67:06:f6:ec:4e:c2:93:3a:3e:02:1e:52:
                    d8:49:c0:45:89:35:0e:ee:15:84:92:ea:0b:bf:ce:
                    5a:ef:10:f9:2b:46:be:bf:a5:9f:36:b8:5c:c5:31:
                    e4:a8:1e:7f:93:c3:3f:fc:b2:73:b2:0b:33:de:98:
                    1e:68:4c:33:f1:1a:ed:c6:48:df:e2:c9:77:82:61:
                    04:be:ca:ae:9b:e2:7e:7c:b5:e7:7b:a0:f8:4f:be:
                    62:9d:57:01:59:e3:be:f6:98:20:c2:fe:ac:26:7e:
                    f5:ac:28:43:15:c1:e8:f9:88:5e:60:5e:65:2d:bd:
                    68:80:03:12:71:7a:73:99:02:f2:8f:01:8d:8d:b6:
                    b2:24:cc:d7:48:cd:78:49:a5:dc:8d:77:3d:78:b9:
                    e3:0a:ba:6f:54:72:a3:ff:28:41:ac:2c:67:fa:ea:
                    ee:a4:34:94:1a:e0:da:99:8c:f5:74:15:f3:0c:a4:
                    7e:b9:12:1b:71:6b:0a:ce:7f:f0:f6:0c:03:26:69:
                    a9:78:0a:73:bc:9e:86:be:8c:2b:12:e6:5c:2e:4c:
                    38:c1:82:fb:e1:27:06:57:97:5c:ba:17:da:61:30:
                    30:cb:0d:1d:08:f6:4d:5c:ba:28:f1:67:4c:b3:1c:
                    90:1e:d1:52:ab:57:ef:2d:ea:99:f1:41:dd:16:5b:
                    02:98:21:21:1a:3a:17:2b:23:c0:fd:90:01:c4:04:
                    aa:bc:83:cf:36:ac:98:d3:25:19:55:c1:a7:68:b0:
                    98:37:9c:9b:b4:43:56:fa:23:db:f5:d6:f0:f6:e9:
                    06:1e:05:86:ae:00:1f:4b:1d:10:6f:e0:9f:d4:d5:
                    fd:02:ef:59:51:b1:4b:7e:5a:80:ae:6a:2b:24:c7:
                    a5:36:1a:c7:e3:6a:ba:22:01:cd:0a:d6:61:f7:b8:
                    c6:dd:db:8d:ea:c6:03:c5:16:ed:3b:92:2a:a5:bd:
                    8d:f8:a2:0c:60:85:0e:07:d9:aa:a6:16:ef:69:d1:
                    71:9e:d2:4d:f5:91:c4:48:bc:a0:20:bf:69:36:ba:
                    a1:db:67:49:7e:ae:49:36:bc:aa:c4:79:94:ca:e6:
                    32:f6:1f
                Exponent: 65537 (0x10001)
        X509v3 extensions:
            X509v3 Basic Constraints: 
                CA:FALSE
            Netscape Comment: 
                Easy-RSA Generated Certificate
            X509v3 Subject Key Identifier: 
                5E:68:57:F5:5B:27:A2:A6:B0:96:82:B3:24:BD:2F:6C:AA:0B:67:95
            X509v3 Authority Key Identifier: 
                keyid:EF:38:8D:14:50:58:A7:5B:4D:9C:17:72:FC:DF:B9:AC:A7:51:B0:10
                DirName:/C=US/ST=CA/L=SanFrancisco/O=Pixglo, Inc./OU=VPN-CIE/CN=tunnel.pixglo.com/name=Bala Chandrasekaran/emailAddress=bala@pixglo.com
                serial:A6:DB:C6:83:80:E6:A0:79

            X509v3 Extended Key Usage: 
                TLS Web Client Authentication
            X509v3 Key Usage: 
                Digital Signature
    Signature Algorithm: sha1WithRSAEncryption
         3e:cb:09:1d:62:48:6c:4d:b8:54:12:76:45:f3:3a:82:1d:f1:
         ae:48:2e:00:22:11:62:89:2a:e5:ff:a8:de:23:51:ed:0e:d8:
         23:fa:98:40:1c:ec:15:8a:5e:66:eb:e7:08:a6:38:a9:7f:17:
         e7:1d:65:c1:a3:51:4c:3a:4f:6a:90:dd:84:12:fa:b5:86:a7:
         71:3f:9d:0b:c2:05:ba:09:3c:41:d6:82:e9:1f:ef:cc:b1:e7:
         2c:9d:2e:9c:95:13:44:c9:42:a0:96:4c:d7:26:8f:af:fa:9b:
         55:e2:e7:d0:1e:3a:72:52:50:cf:c9:34:39:4f:e4:d2:6b:58:
         ea:17:1f:a5:0d:ed:61:01:c1:2d:9b:9f:6c:04:2e:b4:b2:c5:
         76:b0:03:7b:9f:96:13:d3:a9:ca:1d:a3:5b:ad:c0:3d:7b:71:
         2d:5d:be:f6:58:10:49:16:16:d8:54:1d:61:84:81:ff:f1:93:
         dc:91:b5:cb:42:ab:e0:79:af:8e:42:fe:14:58:cc:9a:c1:1d:
         41:69:fc:d1:47:4a:9e:6c:39:1e:58:4e:b0:d3:de:15:70:39:
         02:a1:d8:93:41:e8:7b:fe:e8:03:a6:d5:b4:49:c0:89:b0:de:
         e4:a9:bf:5f:5d:5f:2b:f0:0a:45:b8:96:55:3e:8a:3d:53:b3:
         76:f9:0d:44:e7:67:f6:de:ad:ad:f6:d0:9a:bb:f3:fa:ac:f9:
         1d:fc:9e:8b:ae:59:65:43:5f:d8:ed:2c:98:fc:ca:0c:9a:41:
         b2:72:41:b8:b9:90:84:10:d3:61:79:3d:f8:b5:76:d3:44:c5:
         2c:e9:be:24:bb:93:31:f4:b6:dc:b0:7f:55:4b:b5:c4:36:2e:
         61:64:fa:d1:de:63:d2:84:8b:87:49:18:7a:1a:83:9c:b3:ee:
         b2:70:f4:57:d4:71:f5:7c:9b:29:1b:e7:79:4d:23:35:b1:4e:
         2a:bc:1f:84:28:e2:d2:67:67:20:d7:b8:29:8d:38:80:6b:9a:
         e3:82:fa:49:a4:b1:24:6c:63:f1:ee:f5:fe:df:b3:61:ac:a4:
         a2:f4:69:4e:46:eb:18:b1:f0:fb:76:2b:b6:a4:d1:cf:08:8f:
         85:b4:6e:b8:cc:4f:31:d0:35:4f:7c:a8:d4:ee:fe:d1:95:22:
         4f:71:28:ed:54:c5:7a:65:c9:36:a2:f0:84:d3:1e:54:ab:e2:
         8b:76:f5:1a:e3:f8:5f:6b:45:38:51:c4:ca:6b:97:c2:48:83:
         76:04:be:44:0b:17:eb:85:ee:27:45:d1:dc:25:f4:9d:f9:9b:
         09:fa:97:ad:b4:74:63:97:a2:a0:6f:a7:68:00:99:a9:5f:28:
         2b:9c:71:2e:30:93:6b:dd
-----BEGIN CERTIFICATE-----
MIIHSDCCBTCgAwIBAgICAW8wDQYJKoZIhvcNAQEFBQAwgbQxCzAJBgNVBAYTAlVT
MQswCQYDVQQIEwJDQTEVMBMGA1UEBxMMU2FuRnJhbmNpc2NvMRUwEwYDVQQKEwxQ
aXhnbG8sIEluYy4xEDAOBgNVBAsTB1ZQTi1DSUUxGjAYBgNVBAMTEXR1bm5lbC5w
aXhnbG8uY29tMRwwGgYDVQQpExNCYWxhIENoYW5kcmFzZWthcmFuMR4wHAYJKoZI
hvcNAQkBFg9iYWxhQHBpeGdsby5jb20wHhcNMTgwMjE0MDYzMTMzWhcNMjgwMjEy
MDYzMTMzWjCBqTELMAkGA1UEBhMCVVMxCzAJBgNVBAgTAkNBMRUwEwYDVQQHEwxT
YW5GcmFuY2lzY28xFTATBgNVBAoTDFBpeGdsbywgSW5jLjEQMA4GA1UECxMHVlBO
LUNJRTEPMA0GA1UEAxMGY2llMzY2MRwwGgYDVQQpExNCYWxhIENoYW5kcmFzZWth
cmFuMR4wHAYJKoZIhvcNAQkBFg9iYWxhQHBpeGdsby5jb20wggIiMA0GCSqGSIb3
DQEBAQUAA4ICDwAwggIKAoICAQC/q2x9l3UnUJxvU20yJYZEdrDGRnoeN1gATjxi
FvDPA6t4MUSrgzONs6IOMyGElbtbLxOAmAFkZpKP/rBPZH/UP9hDMbLz0HWZndNY
QnfwOuUDf4pLUbPVB3s3bKDMpptbuA7FFAWEvwtkAmcG9uxOwpM6PgIeUthJwEWJ
NQ7uFYSS6gu/zlrvEPkrRr6/pZ82uFzFMeSoHn+Twz/8snOyCzPemB5oTDPxGu3G
SN/iyXeCYQS+yq6b4n58ted7oPhPvmKdVwFZ4772mCDC/qwmfvWsKEMVwej5iF5g
XmUtvWiAAxJxenOZAvKPAY2NtrIkzNdIzXhJpdyNdz14ueMKum9UcqP/KEGsLGf6
6u6kNJQa4NqZjPV0FfMMpH65EhtxawrOf/D2DAMmaal4CnO8noa+jCsS5lwuTDjB
gvvhJwZXl1y6F9phMDDLDR0I9k1cuijxZ0yzHJAe0VKrV+8t6pnxQd0WWwKYISEa
OhcrI8D9kAHEBKq8g882rJjTJRlVwadosJg3nJu0Q1b6I9v11vD26QYeBYauAB9L
HRBv4J/U1f0C71lRsUt+WoCuaiskx6U2GsfjaroiAc0K1mH3uMbd243qxgPFFu07
kiqlvY34ogxghQ4H2aqmFu9p0XGe0k31kcRIvKAgv2k2uqHbZ0l+rkk2vKrEeZTK
5jL2HwIDAQABo4IBazCCAWcwCQYDVR0TBAIwADAtBglghkgBhvhCAQ0EIBYeRWFz
eS1SU0EgR2VuZXJhdGVkIENlcnRpZmljYXRlMB0GA1UdDgQWBBReaFf1WyeiprCW
grMkvS9sqgtnlTCB6QYDVR0jBIHhMIHegBTvOI0UUFinW02cF3L837msp1GwEKGB
uqSBtzCBtDELMAkGA1UEBhMCVVMxCzAJBgNVBAgTAkNBMRUwEwYDVQQHEwxTYW5G
cmFuY2lzY28xFTATBgNVBAoTDFBpeGdsbywgSW5jLjEQMA4GA1UECxMHVlBOLUNJ
RTEaMBgGA1UEAxMRdHVubmVsLnBpeGdsby5jb20xHDAaBgNVBCkTE0JhbGEgQ2hh
bmRyYXNla2FyYW4xHjAcBgkqhkiG9w0BCQEWD2JhbGFAcGl4Z2xvLmNvbYIJAKbb
xoOA5qB5MBMGA1UdJQQMMAoGCCsGAQUFBwMCMAsGA1UdDwQEAwIHgDANBgkqhkiG
9w0BAQUFAAOCAgEAPssJHWJIbE24VBJ2RfM6gh3xrkguACIRYokq5f+o3iNR7Q7Y
I/qYQBzsFYpeZuvnCKY4qX8X5x1lwaNRTDpPapDdhBL6tYancT+dC8IFugk8QdaC
6R/vzLHnLJ0unJUTRMlCoJZM1yaPr/qbVeLn0B46clJQz8k0OU/k0mtY6hcfpQ3t
YQHBLZufbAQutLLFdrADe5+WE9Opyh2jW63APXtxLV2+9lgQSRYW2FQdYYSB//GT
3JG1y0Kr4HmvjkL+FFjMmsEdQWn80UdKnmw5HlhOsNPeFXA5AqHYk0Hoe/7oA6bV
tEnAibDe5Km/X11fK/AKRbiWVT6KPVOzdvkNROdn9t6trfbQmrvz+qz5Hfyei65Z
ZUNf2O0smPzKDJpBsnJBuLmQhBDTYXk9+LV200TFLOm+JLuTMfS23LB/VUu1xDYu
YWT60d5j0oSLh0kYehqDnLPusnD0V9Rx9XybKRvneU0jNbFOKrwfhCji0mdnINe4
KY04gGua44L6SaSxJGxj8e71/t+zYaykovRpTkbrGLHw+3YrtqTRzwiPhbRuuMxP
MdA1T3yo1O7+0ZUiT3Eo7VTFemXJNqLwhNMeVKvii3b1GuP4X2tFOFHEymuXwkiD
dgS+RAsX64XuJ0XR3CX0nfmbCfqXrbR0Y5eioG+naACZqV8oK5xxLjCTa90=
-----END CERTIFICATE-----
