Certificate:
    Data:
        Version: 3 (0x2)
        Serial Number: 324 (0x144)
    Signature Algorithm: sha1WithRSAEncryption
        Issuer: C=US, ST=CA, L=SanFrancisco, O=Pixglo, Inc., OU=VPN-CIE, CN=tunnel.pixglo.com/name=Bala Chandrasekaran/emailAddress=bala@pixglo.com
        Validity
            Not Before: Feb 14 06:30:22 2018 GMT
            Not After : Feb 12 06:30:22 2028 GMT
        Subject: C=US, ST=CA, L=SanFrancisco, O=Pixglo, Inc., OU=VPN-CIE, CN=cie323/name=Bala Chandrasekaran/emailAddress=bala@pixglo.com
        Subject Public Key Info:
            Public Key Algorithm: rsaEncryption
                Public-Key: (4096 bit)
                Modulus:
                    00:b7:69:8a:86:fd:08:2a:07:ec:71:de:ef:4b:e8:
                    d2:39:c2:4b:6d:21:59:1d:d5:0e:a6:a5:95:45:23:
                    41:fa:3d:4c:35:7a:8c:e0:87:d0:83:f9:c9:93:bf:
                    76:0b:0f:0b:d1:df:97:34:da:62:45:91:e7:63:cf:
                    f0:26:9c:b6:55:3b:6b:8c:ff:67:47:ce:ca:ff:76:
                    e8:73:74:92:b6:ff:e5:ba:eb:e6:4e:17:b6:ee:c1:
                    2d:39:ca:b1:5d:84:81:a1:1e:52:11:24:e4:48:3a:
                    12:27:e6:02:81:0e:1d:bc:eb:6b:37:1f:35:fa:f0:
                    73:9e:06:09:31:be:fd:3e:35:3b:9f:e4:eb:85:57:
                    be:cf:d4:d7:bc:34:93:b9:86:79:55:e3:27:43:23:
                    c0:32:97:78:93:94:1f:ce:e4:9d:25:0f:94:98:dd:
                    09:dc:08:54:67:18:15:5e:41:e8:88:61:65:fa:a9:
                    a7:ab:b4:b6:5c:5e:19:0b:72:0e:2b:bc:7c:fd:0c:
                    de:01:c7:7a:84:84:93:3d:ee:61:c7:0e:44:44:ae:
                    2e:49:05:7a:62:ab:8d:70:ee:bb:00:d6:ee:39:f8:
                    f3:08:cd:c5:5a:b4:1b:93:5d:2f:ad:80:1f:b3:0f:
                    c1:a7:ad:f5:27:85:c3:f2:78:dc:51:2b:31:92:81:
                    7e:d8:06:fc:c8:6b:d7:e6:b7:3f:ad:aa:06:9f:86:
                    e0:41:69:0b:0a:09:9b:54:4e:3f:fb:64:10:33:3f:
                    85:a0:f4:c3:d2:06:b4:af:f8:a1:ca:87:ee:30:e4:
                    42:83:66:37:47:82:f9:2b:8e:1e:de:e2:d8:9d:42:
                    f9:5b:fb:7b:c1:67:79:1a:5b:e4:be:34:cd:b6:3e:
                    fa:cf:12:1c:45:e0:99:26:bb:82:f2:82:29:89:93:
                    7e:99:2e:e3:87:f9:b7:dc:d4:9d:5c:ab:78:eb:18:
                    65:e6:04:8b:bb:83:6d:ef:0d:0a:4b:ab:35:80:64:
                    d4:6d:f0:12:12:ee:da:e3:3a:1a:c8:56:82:7c:60:
                    12:ee:cd:72:57:94:2f:aa:10:df:eb:f0:4b:a0:eb:
                    cf:c8:73:db:5a:58:f9:ba:38:2f:62:e9:0b:32:0a:
                    c1:c5:d6:a5:c6:0c:8b:7a:e2:7e:19:d2:34:25:27:
                    d2:68:f6:5b:8e:a9:36:6f:76:a6:d4:4b:c4:d3:8c:
                    60:78:17:58:60:39:fd:e6:b2:84:66:14:31:eb:76:
                    ed:e4:a4:73:6b:8a:1a:bd:e2:50:ef:84:96:a1:b4:
                    a1:cf:81:9c:bd:1d:7a:09:07:78:40:48:3e:5f:c4:
                    e5:6f:44:68:71:55:42:16:cd:65:ca:ed:5a:54:84:
                    f0:28:d5
                Exponent: 65537 (0x10001)
        X509v3 extensions:
            X509v3 Basic Constraints: 
                CA:FALSE
            Netscape Comment: 
                Easy-RSA Generated Certificate
            X509v3 Subject Key Identifier: 
                E4:F1:63:D0:2C:AF:51:E5:DB:97:57:6C:A3:B9:BC:9B:25:37:C0:79
            X509v3 Authority Key Identifier: 
                keyid:EF:38:8D:14:50:58:A7:5B:4D:9C:17:72:FC:DF:B9:AC:A7:51:B0:10
                DirName:/C=US/ST=CA/L=SanFrancisco/O=Pixglo, Inc./OU=VPN-CIE/CN=tunnel.pixglo.com/name=Bala Chandrasekaran/emailAddress=bala@pixglo.com
                serial:A6:DB:C6:83:80:E6:A0:79

            X509v3 Extended Key Usage: 
                TLS Web Client Authentication
            X509v3 Key Usage: 
                Digital Signature
    Signature Algorithm: sha1WithRSAEncryption
         c3:51:d0:37:49:ca:90:c6:10:29:b2:0b:fa:06:48:95:c7:d1:
         59:47:0a:15:4d:d8:18:64:a1:fd:d0:91:64:f5:43:a9:77:db:
         c5:95:07:ec:9f:b9:ca:1f:39:57:96:bb:9d:26:02:ec:0f:f5:
         6d:db:b9:43:85:91:78:2f:af:35:22:73:ea:ae:0f:fe:e2:b1:
         13:bd:9a:18:88:83:13:55:c2:26:ea:32:20:1c:69:ff:2b:3f:
         34:b7:20:82:cc:18:7e:1a:76:f4:34:f2:5f:3d:7b:db:b2:06:
         7c:2b:97:29:fa:31:ec:d6:ef:92:45:90:08:9f:d0:1a:47:c0:
         0d:f9:1a:1f:9e:2b:89:7a:f8:b0:3e:b7:fd:93:cf:1d:a9:12:
         ef:4c:91:2d:b0:16:5f:99:ea:95:44:b9:eb:76:e3:2f:2e:03:
         12:c7:6c:69:ef:5d:36:4b:8e:1f:b3:c8:3f:a7:af:8b:70:c6:
         48:10:e3:3c:78:78:5f:c6:cd:b1:0d:a4:4e:02:b7:c3:7a:03:
         a6:f6:c8:01:b4:f2:2a:07:3f:00:e5:82:e4:34:90:8e:a8:29:
         35:54:76:e7:91:8f:7b:40:ad:4a:f2:d8:4c:29:02:ba:ed:31:
         be:4d:16:50:18:ac:85:25:e8:a1:d2:00:97:7a:7c:3a:5e:3c:
         96:2b:9d:03:7f:8a:da:7a:b9:a9:f6:6c:0e:51:0a:32:6d:2d:
         cf:84:7f:03:6e:ee:d1:8e:3b:c0:a6:54:0f:ea:31:d6:98:7e:
         39:d3:81:3e:2f:8c:d2:08:a3:91:f9:cc:51:e5:2c:a9:d2:0b:
         18:83:0a:19:27:fb:e4:3a:9c:9b:24:c5:2c:f6:0a:e6:9d:61:
         62:cc:b6:2d:04:59:2f:ad:e8:dc:4e:99:0a:13:39:b0:c2:9e:
         8b:24:d5:68:ac:20:60:7d:90:c3:de:0d:0d:10:37:d0:11:3b:
         b4:00:85:0a:4b:88:f9:3f:34:47:e5:c7:a7:c2:d4:bc:d3:30:
         eb:90:b1:e9:b6:70:9a:f3:4f:b3:2b:7a:ef:63:77:f8:ec:0f:
         99:31:dd:d8:83:f7:90:41:6d:66:8a:24:c9:8a:65:97:7c:e8:
         3c:e8:6c:8b:4d:65:70:46:5f:bb:49:b9:5c:60:41:e9:b6:5d:
         0f:1b:7d:70:a3:cd:7e:1a:a7:7a:cc:98:09:c3:98:4d:37:8b:
         2f:49:a7:97:d8:6a:79:12:51:d5:61:61:b3:a1:61:19:8f:4a:
         6a:22:83:16:59:5d:ea:77:8a:da:a6:35:6c:9d:40:c8:79:31:
         1f:b6:52:36:53:62:3f:07:ee:87:ae:5c:c4:32:87:e8:2b:56:
         2c:2d:b6:54:aa:86:5f:d3
-----BEGIN CERTIFICATE-----
MIIHSDCCBTCgAwIBAgICAUQwDQYJKoZIhvcNAQEFBQAwgbQxCzAJBgNVBAYTAlVT
MQswCQYDVQQIEwJDQTEVMBMGA1UEBxMMU2FuRnJhbmNpc2NvMRUwEwYDVQQKEwxQ
aXhnbG8sIEluYy4xEDAOBgNVBAsTB1ZQTi1DSUUxGjAYBgNVBAMTEXR1bm5lbC5w
aXhnbG8uY29tMRwwGgYDVQQpExNCYWxhIENoYW5kcmFzZWthcmFuMR4wHAYJKoZI
hvcNAQkBFg9iYWxhQHBpeGdsby5jb20wHhcNMTgwMjE0MDYzMDIyWhcNMjgwMjEy
MDYzMDIyWjCBqTELMAkGA1UEBhMCVVMxCzAJBgNVBAgTAkNBMRUwEwYDVQQHEwxT
YW5GcmFuY2lzY28xFTATBgNVBAoTDFBpeGdsbywgSW5jLjEQMA4GA1UECxMHVlBO
LUNJRTEPMA0GA1UEAxMGY2llMzIzMRwwGgYDVQQpExNCYWxhIENoYW5kcmFzZWth
cmFuMR4wHAYJKoZIhvcNAQkBFg9iYWxhQHBpeGdsby5jb20wggIiMA0GCSqGSIb3
DQEBAQUAA4ICDwAwggIKAoICAQC3aYqG/QgqB+xx3u9L6NI5wkttIVkd1Q6mpZVF
I0H6PUw1eozgh9CD+cmTv3YLDwvR35c02mJFkedjz/AmnLZVO2uM/2dHzsr/duhz
dJK2/+W66+ZOF7buwS05yrFdhIGhHlIRJORIOhIn5gKBDh2862s3HzX68HOeBgkx
vv0+NTuf5OuFV77P1Ne8NJO5hnlV4ydDI8Ayl3iTlB/O5J0lD5SY3QncCFRnGBVe
QeiIYWX6qaertLZcXhkLcg4rvHz9DN4Bx3qEhJM97mHHDkREri5JBXpiq41w7rsA
1u45+PMIzcVatBuTXS+tgB+zD8GnrfUnhcPyeNxRKzGSgX7YBvzIa9fmtz+tqgaf
huBBaQsKCZtUTj/7ZBAzP4Wg9MPSBrSv+KHKh+4w5EKDZjdHgvkrjh7e4tidQvlb
+3vBZ3kaW+S+NM22PvrPEhxF4Jkmu4LygimJk36ZLuOH+bfc1J1cq3jrGGXmBIu7
g23vDQpLqzWAZNRt8BIS7trjOhrIVoJ8YBLuzXJXlC+qEN/r8Eug68/Ic9taWPm6
OC9i6QsyCsHF1qXGDIt64n4Z0jQlJ9Jo9luOqTZvdqbUS8TTjGB4F1hgOf3msoRm
FDHrdu3kpHNrihq94lDvhJahtKHPgZy9HXoJB3hASD5fxOVvRGhxVUIWzWXK7VpU
hPAo1QIDAQABo4IBazCCAWcwCQYDVR0TBAIwADAtBglghkgBhvhCAQ0EIBYeRWFz
eS1SU0EgR2VuZXJhdGVkIENlcnRpZmljYXRlMB0GA1UdDgQWBBTk8WPQLK9R5duX
V2yjubybJTfAeTCB6QYDVR0jBIHhMIHegBTvOI0UUFinW02cF3L837msp1GwEKGB
uqSBtzCBtDELMAkGA1UEBhMCVVMxCzAJBgNVBAgTAkNBMRUwEwYDVQQHEwxTYW5G
cmFuY2lzY28xFTATBgNVBAoTDFBpeGdsbywgSW5jLjEQMA4GA1UECxMHVlBOLUNJ
RTEaMBgGA1UEAxMRdHVubmVsLnBpeGdsby5jb20xHDAaBgNVBCkTE0JhbGEgQ2hh
bmRyYXNla2FyYW4xHjAcBgkqhkiG9w0BCQEWD2JhbGFAcGl4Z2xvLmNvbYIJAKbb
xoOA5qB5MBMGA1UdJQQMMAoGCCsGAQUFBwMCMAsGA1UdDwQEAwIHgDANBgkqhkiG
9w0BAQUFAAOCAgEAw1HQN0nKkMYQKbIL+gZIlcfRWUcKFU3YGGSh/dCRZPVDqXfb
xZUH7J+5yh85V5a7nSYC7A/1bdu5Q4WReC+vNSJz6q4P/uKxE72aGIiDE1XCJuoy
IBxp/ys/NLcggswYfhp29DTyXz1727IGfCuXKfox7NbvkkWQCJ/QGkfADfkaH54r
iXr4sD63/ZPPHakS70yRLbAWX5nqlUS563bjLy4DEsdsae9dNkuOH7PIP6evi3DG
SBDjPHh4X8bNsQ2kTgK3w3oDpvbIAbTyKgc/AOWC5DSQjqgpNVR255GPe0CtSvLY
TCkCuu0xvk0WUBishSXoodIAl3p8Ol48liudA3+K2nq5qfZsDlEKMm0tz4R/A27u
0Y47wKZUD+ox1ph+OdOBPi+M0gijkfnMUeUsqdILGIMKGSf75DqcmyTFLPYK5p1h
Ysy2LQRZL63o3E6ZChM5sMKeiyTVaKwgYH2Qw94NDRA30BE7tACFCkuI+T80R+XH
p8LUvNMw65Cx6bZwmvNPsyt672N3+OwPmTHd2IP3kEFtZookyYpll3zoPOhsi01l
cEZfu0m5XGBB6bZdDxt9cKPNfhqnesyYCcOYTTeLL0mnl9hqeRJR1WFhs6FhGY9K
aiKDFlld6neK2qY1bJ1AyHkxH7ZSNlNiPwfuh65cxDKH6CtWLC22VKqGX9M=
-----END CERTIFICATE-----
