Certificate:
    Data:
        Version: 3 (0x2)
        Serial Number: 328 (0x148)
    Signature Algorithm: sha1WithRSAEncryption
        Issuer: C=US, ST=CA, L=SanFrancisco, O=Pixglo, Inc., OU=VPN-CIE, CN=tunnel.pixglo.com/name=Bala Chandrasekaran/emailAddress=bala@pixglo.com
        Validity
            Not Before: Feb 14 06:30:25 2018 GMT
            Not After : Feb 12 06:30:25 2028 GMT
        Subject: C=US, ST=CA, L=SanFrancisco, O=Pixglo, Inc., OU=VPN-CIE, CN=cie327/name=Bala Chandrasekaran/emailAddress=bala@pixglo.com
        Subject Public Key Info:
            Public Key Algorithm: rsaEncryption
                Public-Key: (4096 bit)
                Modulus:
                    00:bf:fe:4b:f4:4b:ce:e0:2f:2f:62:a5:d6:38:7a:
                    98:46:63:8b:35:4c:e3:bd:95:16:3a:79:c5:14:6a:
                    2b:bc:e9:0c:b3:02:4d:68:7b:34:df:91:9b:e6:61:
                    34:56:a1:4c:58:ee:09:da:fa:02:71:d6:63:f1:ab:
                    13:68:a8:6b:d7:68:ec:97:fc:d0:c0:26:60:23:cf:
                    e5:d5:8f:ee:f4:f7:99:a3:6d:e8:53:05:e6:fb:da:
                    35:c1:1a:4d:e7:c1:b8:62:47:03:25:47:de:9d:2d:
                    4a:c3:5a:11:76:0d:f3:29:5a:18:70:8b:7c:f3:80:
                    e1:5e:23:c6:c8:94:a7:e7:ae:e8:da:48:77:c5:b6:
                    3e:a0:a2:8e:69:a8:1a:45:11:3c:54:fc:fe:5b:93:
                    8e:38:27:df:14:01:0b:73:87:7e:da:83:a4:ef:af:
                    40:be:d3:37:19:b1:ad:f9:02:7d:70:66:a9:14:e3:
                    71:c6:c5:8e:39:28:35:c9:e9:1e:53:a1:b2:91:55:
                    0c:d7:c1:27:44:91:81:72:3d:53:f0:b9:44:f6:83:
                    56:0a:53:9e:e7:25:76:da:c8:07:fe:e2:1f:53:f2:
                    9f:ea:d8:7c:1e:6c:4f:5d:e5:8d:c8:df:f7:0c:10:
                    01:b4:0a:59:8d:13:b5:33:81:bc:e8:a5:85:cb:19:
                    46:7f:82:c0:c1:3f:b1:f4:e8:95:9a:70:e7:50:bd:
                    ab:5b:39:e5:4b:f8:fb:ce:a5:7f:de:b2:ad:74:43:
                    89:a5:16:5c:dc:94:87:1a:68:77:8d:86:41:33:d8:
                    a9:a4:bc:97:94:06:c7:dd:10:f7:6c:15:8f:86:8e:
                    9c:33:1f:a9:45:0c:05:86:3a:82:2a:2f:66:27:26:
                    9d:1e:9b:b6:ee:68:4b:1f:f4:1f:21:f7:bb:76:2b:
                    88:51:8c:f0:fd:e2:6c:d9:97:d3:72:c5:6a:04:98:
                    ed:b1:b4:4a:e9:64:fe:81:ea:01:e5:01:c1:ec:48:
                    fc:b4:7e:fd:d0:a5:8e:ef:76:d1:45:82:8d:82:21:
                    ad:71:74:41:01:43:fd:36:8b:0f:b2:6c:e4:cd:b2:
                    91:71:b9:93:99:9d:9f:3a:08:66:5d:1d:e7:5f:2e:
                    b0:a9:f6:ee:3e:cd:1e:fc:f9:9d:c4:ad:76:44:b8:
                    49:b2:24:0d:27:6e:9d:ea:d8:16:d6:c4:d8:95:7b:
                    d4:6f:51:80:08:a2:ee:c1:00:5a:16:7f:ce:29:18:
                    b6:62:2f:69:0a:f0:ca:db:c9:7c:94:d1:62:58:d6:
                    2d:2d:32:7c:54:4c:0e:7e:75:ee:dc:67:cd:d8:96:
                    ee:c3:6c:d8:1e:4b:0d:c5:41:90:72:5a:3d:73:a2:
                    bb:c2:d3
                Exponent: 65537 (0x10001)
        X509v3 extensions:
            X509v3 Basic Constraints: 
                CA:FALSE
            Netscape Comment: 
                Easy-RSA Generated Certificate
            X509v3 Subject Key Identifier: 
                BB:F5:34:CA:AB:0F:F7:DB:E7:DD:9E:51:5A:6B:C7:45:C5:D9:FE:D7
            X509v3 Authority Key Identifier: 
                keyid:EF:38:8D:14:50:58:A7:5B:4D:9C:17:72:FC:DF:B9:AC:A7:51:B0:10
                DirName:/C=US/ST=CA/L=SanFrancisco/O=Pixglo, Inc./OU=VPN-CIE/CN=tunnel.pixglo.com/name=Bala Chandrasekaran/emailAddress=bala@pixglo.com
                serial:A6:DB:C6:83:80:E6:A0:79

            X509v3 Extended Key Usage: 
                TLS Web Client Authentication
            X509v3 Key Usage: 
                Digital Signature
    Signature Algorithm: sha1WithRSAEncryption
         cf:ae:6d:72:ca:c9:f8:8e:31:60:76:a1:d6:2f:db:f8:ff:d8:
         dd:e6:5d:4d:73:bb:0c:17:09:80:a9:74:f3:74:ce:93:43:59:
         b5:51:78:5d:fc:2d:c3:e3:82:d6:48:70:8b:f2:b2:34:09:19:
         dc:1f:3b:48:9e:f6:b6:83:98:c4:61:7d:46:5c:6a:75:d5:2a:
         e8:3c:61:2d:17:87:3d:77:4c:e5:89:14:38:43:ee:24:fd:53:
         72:13:a9:a9:f5:f7:d4:8e:1a:83:88:e1:dc:42:10:9c:ed:28:
         1c:29:bc:ee:0b:2a:d2:25:5d:6b:7a:57:35:81:8d:f3:7c:42:
         a8:d2:ad:3f:87:d6:59:f7:60:78:68:d5:ae:9f:f6:88:42:85:
         f1:99:fb:36:33:61:09:cf:16:3d:21:66:69:54:ec:74:44:68:
         8d:e9:a1:bb:8a:e9:4c:bb:92:73:a7:ab:29:6f:c6:11:5f:7f:
         92:42:1f:91:9a:4f:56:97:5b:2e:df:c8:3a:7a:f7:1d:58:ba:
         81:2b:e6:88:cd:62:d0:66:06:9c:09:b5:0e:a3:a1:c3:04:9b:
         f8:0d:31:79:ba:d0:62:c9:77:c3:17:b2:8c:9b:9f:da:fe:45:
         9d:71:5e:9e:8f:01:72:3b:24:fb:3f:b4:43:1f:20:8c:bf:0d:
         b2:b5:c3:e1:c5:43:57:9f:16:e0:88:cc:ac:50:32:65:c6:cd:
         7c:0c:1b:c2:bc:72:bc:10:7c:40:7f:56:84:03:b5:9e:61:7c:
         ce:23:3b:ca:73:ab:a8:b3:a1:21:7a:06:b3:97:b1:0c:9c:fe:
         38:43:ac:bf:56:58:18:37:da:cf:fe:bc:c6:71:33:08:75:28:
         6f:ab:05:ca:3e:80:89:85:fa:cb:c3:5f:22:75:99:92:fc:21:
         db:46:b1:bb:e3:88:94:a3:ef:75:70:c8:6a:ed:97:b0:49:59:
         ed:61:65:be:30:8e:3d:b4:24:69:dc:6f:8c:3d:67:ea:5d:0e:
         4f:64:2f:fa:5d:85:9f:af:ed:db:33:7a:eb:fb:5c:14:58:44:
         96:d5:18:31:7d:36:17:48:47:10:f1:05:28:3a:9f:db:79:ab:
         57:1a:6a:a9:e9:56:d1:ff:14:3d:e5:29:1f:c7:ad:94:25:c0:
         f0:af:49:85:ca:e2:3f:0d:04:c8:d4:94:10:24:73:25:0b:d6:
         a8:20:8d:9a:f9:2f:14:5c:5d:4b:22:03:79:ef:b7:9e:ba:b8:
         d0:b3:dd:8b:91:54:ef:2e:40:4a:dc:9c:12:13:ed:6e:20:db:
         eb:8d:23:ec:e3:71:36:67:3f:3a:b6:0f:75:d4:23:d7:df:03:
         29:d2:4e:f9:d3:62:af:9b
-----BEGIN CERTIFICATE-----
MIIHSDCCBTCgAwIBAgICAUgwDQYJKoZIhvcNAQEFBQAwgbQxCzAJBgNVBAYTAlVT
MQswCQYDVQQIEwJDQTEVMBMGA1UEBxMMU2FuRnJhbmNpc2NvMRUwEwYDVQQKEwxQ
aXhnbG8sIEluYy4xEDAOBgNVBAsTB1ZQTi1DSUUxGjAYBgNVBAMTEXR1bm5lbC5w
aXhnbG8uY29tMRwwGgYDVQQpExNCYWxhIENoYW5kcmFzZWthcmFuMR4wHAYJKoZI
hvcNAQkBFg9iYWxhQHBpeGdsby5jb20wHhcNMTgwMjE0MDYzMDI1WhcNMjgwMjEy
MDYzMDI1WjCBqTELMAkGA1UEBhMCVVMxCzAJBgNVBAgTAkNBMRUwEwYDVQQHEwxT
YW5GcmFuY2lzY28xFTATBgNVBAoTDFBpeGdsbywgSW5jLjEQMA4GA1UECxMHVlBO
LUNJRTEPMA0GA1UEAxMGY2llMzI3MRwwGgYDVQQpExNCYWxhIENoYW5kcmFzZWth
cmFuMR4wHAYJKoZIhvcNAQkBFg9iYWxhQHBpeGdsby5jb20wggIiMA0GCSqGSIb3
DQEBAQUAA4ICDwAwggIKAoICAQC//kv0S87gLy9ipdY4ephGY4s1TOO9lRY6ecUU
aiu86QyzAk1oezTfkZvmYTRWoUxY7gna+gJx1mPxqxNoqGvXaOyX/NDAJmAjz+XV
j+7095mjbehTBeb72jXBGk3nwbhiRwMlR96dLUrDWhF2DfMpWhhwi3zzgOFeI8bI
lKfnrujaSHfFtj6goo5pqBpFETxU/P5bk444J98UAQtzh37ag6Tvr0C+0zcZsa35
An1wZqkU43HGxY45KDXJ6R5TobKRVQzXwSdEkYFyPVPwuUT2g1YKU57nJXbayAf+
4h9T8p/q2HwebE9d5Y3I3/cMEAG0ClmNE7UzgbzopYXLGUZ/gsDBP7H06JWacOdQ
vatbOeVL+PvOpX/esq10Q4mlFlzclIcaaHeNhkEz2KmkvJeUBsfdEPdsFY+Gjpwz
H6lFDAWGOoIqL2YnJp0em7buaEsf9B8h97t2K4hRjPD94mzZl9NyxWoEmO2xtErp
ZP6B6gHlAcHsSPy0fv3QpY7vdtFFgo2CIa1xdEEBQ/02iw+ybOTNspFxuZOZnZ86
CGZdHedfLrCp9u4+zR78+Z3ErXZEuEmyJA0nbp3q2BbWxNiVe9RvUYAIou7BAFoW
f84pGLZiL2kK8MrbyXyU0WJY1i0tMnxUTA5+de7cZ83Ylu7DbNgeSw3FQZByWj1z
orvC0wIDAQABo4IBazCCAWcwCQYDVR0TBAIwADAtBglghkgBhvhCAQ0EIBYeRWFz
eS1SU0EgR2VuZXJhdGVkIENlcnRpZmljYXRlMB0GA1UdDgQWBBS79TTKqw/32+fd
nlFaa8dFxdn+1zCB6QYDVR0jBIHhMIHegBTvOI0UUFinW02cF3L837msp1GwEKGB
uqSBtzCBtDELMAkGA1UEBhMCVVMxCzAJBgNVBAgTAkNBMRUwEwYDVQQHEwxTYW5G
cmFuY2lzY28xFTATBgNVBAoTDFBpeGdsbywgSW5jLjEQMA4GA1UECxMHVlBOLUNJ
RTEaMBgGA1UEAxMRdHVubmVsLnBpeGdsby5jb20xHDAaBgNVBCkTE0JhbGEgQ2hh
bmRyYXNla2FyYW4xHjAcBgkqhkiG9w0BCQEWD2JhbGFAcGl4Z2xvLmNvbYIJAKbb
xoOA5qB5MBMGA1UdJQQMMAoGCCsGAQUFBwMCMAsGA1UdDwQEAwIHgDANBgkqhkiG
9w0BAQUFAAOCAgEAz65tcsrJ+I4xYHah1i/b+P/Y3eZdTXO7DBcJgKl083TOk0NZ
tVF4Xfwtw+OC1khwi/KyNAkZ3B87SJ72toOYxGF9RlxqddUq6DxhLReHPXdM5YkU
OEPuJP1TchOpqfX31I4ag4jh3EIQnO0oHCm87gsq0iVda3pXNYGN83xCqNKtP4fW
WfdgeGjVrp/2iEKF8Zn7NjNhCc8WPSFmaVTsdERojemhu4rpTLuSc6erKW/GEV9/
kkIfkZpPVpdbLt/IOnr3HVi6gSvmiM1i0GYGnAm1DqOhwwSb+A0xebrQYsl3wxey
jJuf2v5FnXFeno8Bcjsk+z+0Qx8gjL8NsrXD4cVDV58W4IjMrFAyZcbNfAwbwrxy
vBB8QH9WhAO1nmF8ziM7ynOrqLOhIXoGs5exDJz+OEOsv1ZYGDfaz/68xnEzCHUo
b6sFyj6AiYX6y8NfInWZkvwh20axu+OIlKPvdXDIau2XsElZ7WFlvjCOPbQkadxv
jD1n6l0OT2Qv+l2Fn6/t2zN66/tcFFhEltUYMX02F0hHEPEFKDqf23mrVxpqqelW
0f8UPeUpH8etlCXA8K9JhcriPw0EyNSUECRzJQvWqCCNmvkvFFxdSyIDee+3nrq4
0LPdi5FU7y5AStycEhPtbiDb640j7ONxNmc/OrYPddQj198DKdJO+dNir5s=
-----END CERTIFICATE-----
