Certificate:
    Data:
        Version: 3 (0x2)
        Serial Number: 302 (0x12e)
    Signature Algorithm: sha1WithRSAEncryption
        Issuer: C=US, ST=CA, L=SanFrancisco, O=Pixglo, Inc., OU=VPN-CIE, CN=tunnel.pixglo.com/name=Bala Chandrasekaran/emailAddress=bala@pixglo.com
        Validity
            Not Before: Feb 14 06:30:01 2018 GMT
            Not After : Feb 12 06:30:01 2028 GMT
        Subject: C=US, ST=CA, L=SanFrancisco, O=Pixglo, Inc., OU=VPN-CIE, CN=cie301/name=Bala Chandrasekaran/emailAddress=bala@pixglo.com
        Subject Public Key Info:
            Public Key Algorithm: rsaEncryption
                Public-Key: (4096 bit)
                Modulus:
                    00:b7:d8:88:dd:82:e5:9f:44:92:27:b6:ff:75:d8:
                    27:42:b9:0c:06:0f:44:2b:db:1e:c5:1c:85:57:78:
                    2a:15:64:8c:47:30:15:bc:04:52:d4:34:f3:55:25:
                    bb:45:78:e5:56:70:77:a5:02:3b:6a:3f:89:eb:de:
                    4e:d8:f6:70:ef:9b:42:ef:8d:60:0f:47:d6:1a:56:
                    93:d0:43:9f:0b:45:d1:c0:32:f0:46:12:d2:d1:bf:
                    96:bc:25:a2:51:95:60:91:bb:a7:ce:f0:c6:94:27:
                    50:df:ce:a9:1b:16:d8:64:63:f3:f8:6d:7c:d6:15:
                    c1:57:ef:bc:5c:a5:e8:dd:70:50:73:8c:76:d3:60:
                    85:36:d3:27:1a:6b:b2:c8:a6:a1:f8:c0:59:3a:b8:
                    d6:06:7e:5b:f5:01:f4:f2:73:fd:b7:a6:ff:2d:7a:
                    19:51:0e:bb:90:70:3b:d5:40:99:c6:5f:94:9d:3b:
                    2e:69:5d:4c:0d:b2:1b:40:bf:1c:46:cd:2d:2e:47:
                    d3:14:d5:ae:e2:ca:4d:6f:68:2c:a6:37:8e:55:4d:
                    a7:e4:74:33:18:68:91:d1:1c:a5:25:97:ff:6b:22:
                    0a:4a:03:ff:e4:53:e9:d6:73:22:cd:3e:7c:70:35:
                    da:2f:cf:43:cb:08:97:6e:d0:55:56:b9:66:55:af:
                    c7:b7:27:fa:f9:70:ce:c2:dd:f5:2b:b7:4d:88:1c:
                    c8:cc:6e:fc:bb:7e:4e:bb:cf:11:68:7f:06:ad:df:
                    5c:aa:29:9d:90:21:13:62:99:63:11:b3:74:ed:cc:
                    29:42:82:b8:a7:ae:16:ff:bc:c1:61:1c:9b:18:b2:
                    fb:b9:2e:d0:95:d5:0e:89:7e:db:26:b9:6f:0c:d3:
                    eb:8c:fb:94:b7:96:54:af:01:af:8c:35:65:6d:0a:
                    13:78:16:3d:9c:e2:aa:b5:f2:d8:d6:2b:e5:45:53:
                    04:89:3f:38:da:b0:97:23:83:2f:7f:6d:f1:72:22:
                    a8:95:ca:de:27:99:62:d1:c9:1d:e6:e5:3f:28:3a:
                    67:c0:3c:6d:92:54:f7:5a:a1:03:56:1d:66:65:af:
                    15:ee:3d:5d:91:14:30:85:67:e1:a6:2b:91:6f:c3:
                    92:ae:7c:08:48:47:17:33:72:18:80:49:d6:ce:f4:
                    ee:46:8e:62:70:3d:16:15:c6:d4:d2:94:5e:e1:0a:
                    b4:0e:8f:ab:96:8f:40:58:1a:ea:1d:15:09:b5:f9:
                    70:eb:96:c9:69:3b:d8:da:a8:0e:ba:d0:b6:9f:f5:
                    8e:09:f1:bd:6b:68:35:e8:a0:32:87:49:bd:e8:7b:
                    b5:3a:d8:c3:5f:6f:a0:80:69:d8:4a:10:17:98:13:
                    ef:02:fd
                Exponent: 65537 (0x10001)
        X509v3 extensions:
            X509v3 Basic Constraints: 
                CA:FALSE
            Netscape Comment: 
                Easy-RSA Generated Certificate
            X509v3 Subject Key Identifier: 
                E4:7E:1F:F3:92:E4:9E:C9:E6:5A:23:17:F0:9E:2B:72:D5:49:EE:36
            X509v3 Authority Key Identifier: 
                keyid:EF:38:8D:14:50:58:A7:5B:4D:9C:17:72:FC:DF:B9:AC:A7:51:B0:10
                DirName:/C=US/ST=CA/L=SanFrancisco/O=Pixglo, Inc./OU=VPN-CIE/CN=tunnel.pixglo.com/name=Bala Chandrasekaran/emailAddress=bala@pixglo.com
                serial:A6:DB:C6:83:80:E6:A0:79

            X509v3 Extended Key Usage: 
                TLS Web Client Authentication
            X509v3 Key Usage: 
                Digital Signature
    Signature Algorithm: sha1WithRSAEncryption
         cd:cc:ad:ce:2d:d0:a3:82:9b:d2:3a:f6:68:89:0d:7e:64:cb:
         ca:e8:5c:07:bf:3e:53:68:4a:11:a8:6b:72:b4:6b:d7:e5:17:
         87:99:3e:84:bf:00:77:bb:cc:28:f8:c8:1a:f1:c9:88:65:ba:
         f0:ef:df:4c:70:50:1a:80:1f:06:96:3f:48:26:ab:1a:1b:18:
         8e:b3:24:a8:bc:30:f8:04:f7:21:96:cf:07:2f:22:85:0c:8d:
         45:be:fb:7f:fc:35:b6:78:ac:cd:c4:c9:6c:2a:35:6c:17:a2:
         ac:0b:6a:4b:d1:46:2f:7e:b3:21:7d:36:db:30:cd:7a:b5:a0:
         de:73:77:a8:d8:62:dc:40:09:34:6e:18:a0:7a:30:48:92:ac:
         82:b0:29:dc:58:eb:f9:fe:98:d7:a5:07:d5:bd:49:6e:88:ba:
         f7:8c:59:02:f2:52:9f:cb:ba:1e:a3:3f:31:8c:6c:42:bc:05:
         e1:7f:0c:ec:27:86:b9:44:61:60:6f:80:10:00:f3:19:43:06:
         d2:c1:b1:bb:c9:9e:dd:48:8e:b7:f8:c1:bf:c3:fb:74:35:f0:
         cb:c6:a4:58:fc:9a:f5:4e:6c:1b:5c:da:52:1b:35:27:9e:f6:
         4d:1e:eb:f5:8e:bf:26:a0:26:f1:0b:15:32:ad:ca:95:74:46:
         53:79:30:4d:be:66:40:c2:46:a4:94:7a:de:dc:05:75:be:c2:
         af:15:92:00:d1:94:9d:97:e3:c2:9a:b5:cd:05:36:a9:9c:54:
         a0:f7:17:6f:ef:3e:8c:8e:84:63:f4:5d:2e:b0:9b:76:75:f3:
         fe:fc:9a:3f:b1:7f:ab:ea:0e:b1:68:1b:dd:4b:d3:47:87:1f:
         81:0b:82:83:ba:10:fa:74:56:19:88:52:a4:b2:d9:27:15:24:
         c2:97:34:5b:71:de:88:ca:bf:e4:c2:5c:9c:dc:1d:15:14:a9:
         d5:e1:00:82:59:64:10:a4:ae:b5:21:e0:b4:22:08:9e:97:e1:
         6e:39:11:a1:02:07:0a:7b:a7:cc:7d:3f:60:a0:c4:a2:a1:11:
         2d:a8:ee:24:67:15:b0:e3:a0:fc:7f:25:99:f5:d3:a0:46:53:
         46:6e:42:b8:58:7e:8c:29:5a:11:dd:58:c9:6d:97:3d:74:7b:
         39:14:50:ed:2d:65:ae:23:18:66:69:48:05:fd:0d:a9:c9:d6:
         50:b9:b2:bc:a1:84:f1:aa:e9:94:9f:28:40:f0:3f:22:e9:c1:
         99:3f:fa:e0:dc:d3:f0:65:c1:c2:1d:56:77:d3:83:a6:20:6d:
         79:d1:80:d8:ce:8b:04:5a:95:46:ff:46:0e:1d:c8:11:8b:b2:
         e2:c8:42:84:67:d3:3c:4a
-----BEGIN CERTIFICATE-----
MIIHSDCCBTCgAwIBAgICAS4wDQYJKoZIhvcNAQEFBQAwgbQxCzAJBgNVBAYTAlVT
MQswCQYDVQQIEwJDQTEVMBMGA1UEBxMMU2FuRnJhbmNpc2NvMRUwEwYDVQQKEwxQ
aXhnbG8sIEluYy4xEDAOBgNVBAsTB1ZQTi1DSUUxGjAYBgNVBAMTEXR1bm5lbC5w
aXhnbG8uY29tMRwwGgYDVQQpExNCYWxhIENoYW5kcmFzZWthcmFuMR4wHAYJKoZI
hvcNAQkBFg9iYWxhQHBpeGdsby5jb20wHhcNMTgwMjE0MDYzMDAxWhcNMjgwMjEy
MDYzMDAxWjCBqTELMAkGA1UEBhMCVVMxCzAJBgNVBAgTAkNBMRUwEwYDVQQHEwxT
YW5GcmFuY2lzY28xFTATBgNVBAoTDFBpeGdsbywgSW5jLjEQMA4GA1UECxMHVlBO
LUNJRTEPMA0GA1UEAxMGY2llMzAxMRwwGgYDVQQpExNCYWxhIENoYW5kcmFzZWth
cmFuMR4wHAYJKoZIhvcNAQkBFg9iYWxhQHBpeGdsby5jb20wggIiMA0GCSqGSIb3
DQEBAQUAA4ICDwAwggIKAoICAQC32IjdguWfRJIntv912CdCuQwGD0Qr2x7FHIVX
eCoVZIxHMBW8BFLUNPNVJbtFeOVWcHelAjtqP4nr3k7Y9nDvm0LvjWAPR9YaVpPQ
Q58LRdHAMvBGEtLRv5a8JaJRlWCRu6fO8MaUJ1DfzqkbFthkY/P4bXzWFcFX77xc
pejdcFBzjHbTYIU20ycaa7LIpqH4wFk6uNYGflv1AfTyc/23pv8tehlRDruQcDvV
QJnGX5SdOy5pXUwNshtAvxxGzS0uR9MU1a7iyk1vaCymN45VTafkdDMYaJHRHKUl
l/9rIgpKA//kU+nWcyLNPnxwNdovz0PLCJdu0FVWuWZVr8e3J/r5cM7C3fUrt02I
HMjMbvy7fk67zxFofwat31yqKZ2QIRNimWMRs3TtzClCgrinrhb/vMFhHJsYsvu5
LtCV1Q6JftsmuW8M0+uM+5S3llSvAa+MNWVtChN4Fj2c4qq18tjWK+VFUwSJPzja
sJcjgy9/bfFyIqiVyt4nmWLRyR3m5T8oOmfAPG2SVPdaoQNWHWZlrxXuPV2RFDCF
Z+GmK5Fvw5KufAhIRxczchiASdbO9O5GjmJwPRYVxtTSlF7hCrQOj6uWj0BYGuod
FQm1+XDrlslpO9jaqA660Laf9Y4J8b1raDXooDKHSb3oe7U62MNfb6CAadhKEBeY
E+8C/QIDAQABo4IBazCCAWcwCQYDVR0TBAIwADAtBglghkgBhvhCAQ0EIBYeRWFz
eS1SU0EgR2VuZXJhdGVkIENlcnRpZmljYXRlMB0GA1UdDgQWBBTkfh/zkuSeyeZa
Ixfwnity1UnuNjCB6QYDVR0jBIHhMIHegBTvOI0UUFinW02cF3L837msp1GwEKGB
uqSBtzCBtDELMAkGA1UEBhMCVVMxCzAJBgNVBAgTAkNBMRUwEwYDVQQHEwxTYW5G
cmFuY2lzY28xFTATBgNVBAoTDFBpeGdsbywgSW5jLjEQMA4GA1UECxMHVlBOLUNJ
RTEaMBgGA1UEAxMRdHVubmVsLnBpeGdsby5jb20xHDAaBgNVBCkTE0JhbGEgQ2hh
bmRyYXNla2FyYW4xHjAcBgkqhkiG9w0BCQEWD2JhbGFAcGl4Z2xvLmNvbYIJAKbb
xoOA5qB5MBMGA1UdJQQMMAoGCCsGAQUFBwMCMAsGA1UdDwQEAwIHgDANBgkqhkiG
9w0BAQUFAAOCAgEAzcytzi3Qo4Kb0jr2aIkNfmTLyuhcB78+U2hKEahrcrRr1+UX
h5k+hL8Ad7vMKPjIGvHJiGW68O/fTHBQGoAfBpY/SCarGhsYjrMkqLww+AT3IZbP
By8ihQyNRb77f/w1tniszcTJbCo1bBeirAtqS9FGL36zIX022zDNerWg3nN3qNhi
3EAJNG4YoHowSJKsgrAp3Fjr+f6Y16UH1b1Jboi694xZAvJSn8u6HqM/MYxsQrwF
4X8M7CeGuURhYG+AEADzGUMG0sGxu8me3UiOt/jBv8P7dDXwy8akWPya9U5sG1za
Uhs1J572TR7r9Y6/JqAm8QsVMq3KlXRGU3kwTb5mQMJGpJR63twFdb7CrxWSANGU
nZfjwpq1zQU2qZxUoPcXb+8+jI6EY/RdLrCbdnXz/vyaP7F/q+oOsWgb3UvTR4cf
gQuCg7oQ+nRWGYhSpLLZJxUkwpc0W3HeiMq/5MJcnNwdFRSp1eEAgllkEKSutSHg
tCIInpfhbjkRoQIHCnunzH0/YKDEoqERLajuJGcVsOOg/H8lmfXToEZTRm5CuFh+
jClaEd1YyW2XPXR7ORRQ7S1lriMYZmlIBf0NqcnWULmyvKGE8arplJ8oQPA/IunB
mT/64NzT8GXBwh1Wd9ODpiBtedGA2M6LBFqVRv9GDh3IEYuy4shChGfTPEo=
-----END CERTIFICATE-----
