Certificate:
    Data:
        Version: 3 (0x2)
        Serial Number: 383 (0x17f)
    Signature Algorithm: sha1WithRSAEncryption
        Issuer: C=US, ST=CA, L=SanFrancisco, O=Pixglo, Inc., OU=VPN-CIE, CN=tunnel.pixglo.com/name=Bala Chandrasekaran/emailAddress=bala@pixglo.com
        Validity
            Not Before: Feb 14 06:32:05 2018 GMT
            Not After : Feb 12 06:32:05 2028 GMT
        Subject: C=US, ST=CA, L=SanFrancisco, O=Pixglo, Inc., OU=VPN-CIE, CN=cie382/name=Bala Chandrasekaran/emailAddress=bala@pixglo.com
        Subject Public Key Info:
            Public Key Algorithm: rsaEncryption
                Public-Key: (4096 bit)
                Modulus:
                    00:e7:11:2c:ea:3e:75:52:d3:f6:36:f1:74:91:ad:
                    b0:a0:d8:09:4b:ba:db:20:d9:d9:65:86:ea:db:76:
                    16:3e:5b:9f:b1:5f:3c:50:e4:c2:38:6f:e5:4e:a2:
                    69:9f:1a:35:06:5b:80:de:50:35:56:f1:51:39:aa:
                    0d:78:d1:b4:71:2e:58:6d:f7:0b:16:d2:b2:0b:d2:
                    6d:0d:ea:71:3a:38:a7:0f:44:6b:e6:71:e3:74:75:
                    dd:d1:fc:d5:38:4a:09:9b:cd:d1:e2:3e:76:f6:a7:
                    d5:23:ec:e1:c4:d1:b3:04:cc:6b:94:7d:a9:a1:25:
                    44:92:fe:de:84:3c:8a:9b:65:27:09:40:1e:20:4a:
                    7d:0b:04:91:51:2c:8b:e1:a9:80:37:5a:52:f4:fd:
                    73:d8:06:cf:79:d8:d7:9e:aa:4a:ec:dc:2c:f3:b0:
                    48:fe:3b:a5:90:b6:41:7a:1f:39:ee:c7:a9:86:1e:
                    ca:af:4c:b7:cd:f8:2e:28:f6:70:3a:55:3e:68:2d:
                    f2:da:1f:d9:71:9c:37:38:3d:39:bf:75:36:98:2a:
                    ff:b0:eb:b8:09:9e:25:57:e4:ba:4c:63:f1:7f:9b:
                    0d:ab:a6:19:4c:19:de:35:e7:69:81:30:99:1a:29:
                    96:86:0e:87:75:d7:aa:2f:eb:dd:1f:84:4d:36:45:
                    d0:d0:88:11:43:d9:9c:57:96:4a:17:40:a3:30:25:
                    c9:3a:1e:07:89:a1:9d:e1:e7:ef:61:0e:7e:b1:4e:
                    c9:66:80:7f:40:d9:ae:d8:3e:98:75:7c:b0:10:a9:
                    22:67:7f:87:c8:a7:cc:1e:8d:9d:97:34:5b:7d:67:
                    66:c8:05:6b:24:8c:c5:f9:e8:fd:64:e4:a1:d1:5c:
                    4e:70:dc:02:77:13:65:1c:dc:17:61:1a:a1:f6:41:
                    4e:b1:26:db:b5:0c:0b:d1:98:94:90:4d:4d:4f:99:
                    b4:20:a1:f0:21:f6:3d:d9:48:e9:9c:9b:eb:dd:cd:
                    15:c2:a5:73:1f:b3:5c:5f:6a:3c:43:2a:7b:94:66:
                    e6:fd:71:24:e6:31:af:a0:b7:b7:e3:98:8d:23:61:
                    9c:2c:6c:61:45:75:e4:e5:4a:fe:e5:5e:34:5d:cd:
                    8f:e3:7b:1c:83:45:b5:96:ec:6b:98:64:aa:10:ad:
                    25:ee:e8:26:55:74:43:89:c1:de:4a:ba:36:85:1d:
                    d5:e6:30:8f:59:92:4d:bc:4d:27:ac:8e:16:83:95:
                    d2:fe:d7:f6:e7:c9:96:fd:dc:2e:e9:8c:95:69:62:
                    bf:da:49:d2:cf:66:ed:96:12:f9:ac:6f:52:eb:3b:
                    ac:88:5c:bf:03:12:1c:1d:88:1b:37:a4:dd:89:0e:
                    9c:99:9f
                Exponent: 65537 (0x10001)
        X509v3 extensions:
            X509v3 Basic Constraints: 
                CA:FALSE
            Netscape Comment: 
                Easy-RSA Generated Certificate
            X509v3 Subject Key Identifier: 
                35:50:19:3C:7F:71:A9:C0:16:DB:72:F6:CB:F2:9D:40:0E:40:4B:5A
            X509v3 Authority Key Identifier: 
                keyid:EF:38:8D:14:50:58:A7:5B:4D:9C:17:72:FC:DF:B9:AC:A7:51:B0:10
                DirName:/C=US/ST=CA/L=SanFrancisco/O=Pixglo, Inc./OU=VPN-CIE/CN=tunnel.pixglo.com/name=Bala Chandrasekaran/emailAddress=bala@pixglo.com
                serial:A6:DB:C6:83:80:E6:A0:79

            X509v3 Extended Key Usage: 
                TLS Web Client Authentication
            X509v3 Key Usage: 
                Digital Signature
    Signature Algorithm: sha1WithRSAEncryption
         59:06:2c:42:e9:4e:19:7f:9b:01:b4:e9:08:ce:ad:d3:4d:18:
         52:b3:68:41:e2:94:36:51:7d:59:9c:42:9a:ee:b3:d6:60:2b:
         34:00:34:63:55:15:fe:9a:fd:a1:70:8a:75:70:2a:5f:16:20:
         a5:c3:0f:23:a2:6d:98:ef:8e:b7:a9:57:79:f1:2a:97:c4:e6:
         c5:dd:5e:6a:b4:99:0d:87:30:d5:81:a5:49:10:53:d4:98:95:
         10:2a:c4:a0:73:50:6a:45:b6:5f:68:1e:64:69:60:1f:27:5b:
         d7:6a:e4:b2:6b:e6:60:4e:f6:0c:e1:66:cd:16:a1:ff:1f:e4:
         61:ba:82:2f:2a:2e:e2:2b:dd:37:3d:90:c7:25:84:a0:9d:7b:
         81:ec:b4:9a:bd:a5:a9:e2:82:b3:ab:2c:1c:fd:e3:57:dd:a8:
         f3:32:f5:c8:11:23:4b:bb:a3:ad:c3:f0:f5:d8:c6:e7:a6:cb:
         43:23:a2:53:e9:63:47:ad:09:b4:75:28:1b:05:22:e3:c3:f7:
         89:49:84:35:c2:d1:1f:3b:1f:66:44:ae:e8:a1:5b:c9:87:87:
         74:20:f0:f3:89:4c:40:c9:de:76:d6:ec:20:a1:67:7f:81:2f:
         36:3a:38:b0:d5:33:56:62:3c:01:00:28:32:e7:98:92:0a:ae:
         c7:e1:22:97:95:d1:c4:ae:86:34:20:74:cf:6f:dd:c3:31:8c:
         70:88:31:be:cd:23:e0:7a:1f:b3:d3:8b:14:e3:a6:97:9e:a8:
         c7:bf:6f:41:f1:91:4d:e2:16:e5:83:8e:72:cb:e3:43:a5:85:
         87:83:fc:b3:ea:ee:27:54:44:83:8a:37:bd:68:55:ec:26:81:
         42:7b:70:64:15:1f:57:fc:de:e1:0e:58:b3:1b:e7:9f:7b:ab:
         ba:49:46:37:08:7d:b9:2e:0f:a1:e0:6d:ce:a2:f0:7b:92:b3:
         bf:e9:e9:ca:b4:8c:d5:da:b2:c1:8a:a6:02:b5:04:28:d2:e0:
         01:9d:74:20:f7:bd:8c:23:0c:c8:19:74:ed:01:13:68:d4:d5:
         cb:21:01:48:35:69:65:48:29:02:b6:78:1d:7b:7d:cd:d6:9a:
         93:1f:7b:e3:94:8e:18:82:d6:fb:be:04:e9:2d:fc:85:aa:18:
         8b:9e:a7:e1:5a:38:ac:8c:58:79:f8:bb:45:fd:93:e8:65:36:
         46:d5:cc:08:e1:ed:03:45:7c:48:a9:68:87:5f:bf:cb:9e:44:
         f2:ea:67:b8:7a:5a:f6:f0:1d:71:d6:e3:42:c9:be:94:c7:26:
         67:eb:2f:35:ba:95:17:51:28:0b:d7:4d:dc:b4:66:45:4d:a6:
         fd:cd:f9:9d:80:ae:08:0f
-----BEGIN CERTIFICATE-----
MIIHSDCCBTCgAwIBAgICAX8wDQYJKoZIhvcNAQEFBQAwgbQxCzAJBgNVBAYTAlVT
MQswCQYDVQQIEwJDQTEVMBMGA1UEBxMMU2FuRnJhbmNpc2NvMRUwEwYDVQQKEwxQ
aXhnbG8sIEluYy4xEDAOBgNVBAsTB1ZQTi1DSUUxGjAYBgNVBAMTEXR1bm5lbC5w
aXhnbG8uY29tMRwwGgYDVQQpExNCYWxhIENoYW5kcmFzZWthcmFuMR4wHAYJKoZI
hvcNAQkBFg9iYWxhQHBpeGdsby5jb20wHhcNMTgwMjE0MDYzMjA1WhcNMjgwMjEy
MDYzMjA1WjCBqTELMAkGA1UEBhMCVVMxCzAJBgNVBAgTAkNBMRUwEwYDVQQHEwxT
YW5GcmFuY2lzY28xFTATBgNVBAoTDFBpeGdsbywgSW5jLjEQMA4GA1UECxMHVlBO
LUNJRTEPMA0GA1UEAxMGY2llMzgyMRwwGgYDVQQpExNCYWxhIENoYW5kcmFzZWth
cmFuMR4wHAYJKoZIhvcNAQkBFg9iYWxhQHBpeGdsby5jb20wggIiMA0GCSqGSIb3
DQEBAQUAA4ICDwAwggIKAoICAQDnESzqPnVS0/Y28XSRrbCg2AlLutsg2dllhurb
dhY+W5+xXzxQ5MI4b+VOommfGjUGW4DeUDVW8VE5qg140bRxLlht9wsW0rIL0m0N
6nE6OKcPRGvmceN0dd3R/NU4SgmbzdHiPnb2p9Uj7OHE0bMEzGuUfamhJUSS/t6E
PIqbZScJQB4gSn0LBJFRLIvhqYA3WlL0/XPYBs952Neeqkrs3CzzsEj+O6WQtkF6
Hznux6mGHsqvTLfN+C4o9nA6VT5oLfLaH9lxnDc4PTm/dTaYKv+w67gJniVX5LpM
Y/F/mw2rphlMGd4152mBMJkaKZaGDod116ov690fhE02RdDQiBFD2ZxXlkoXQKMw
Jck6HgeJoZ3h5+9hDn6xTslmgH9A2a7YPph1fLAQqSJnf4fIp8wejZ2XNFt9Z2bI
BWskjMX56P1k5KHRXE5w3AJ3E2Uc3BdhGqH2QU6xJtu1DAvRmJSQTU1PmbQgofAh
9j3ZSOmcm+vdzRXCpXMfs1xfajxDKnuUZub9cSTmMa+gt7fjmI0jYZwsbGFFdeTl
Sv7lXjRdzY/jexyDRbWW7GuYZKoQrSXu6CZVdEOJwd5KujaFHdXmMI9Zkk28TSes
jhaDldL+1/bnyZb93C7pjJVpYr/aSdLPZu2WEvmsb1LrO6yIXL8DEhwdiBs3pN2J
DpyZnwIDAQABo4IBazCCAWcwCQYDVR0TBAIwADAtBglghkgBhvhCAQ0EIBYeRWFz
eS1SU0EgR2VuZXJhdGVkIENlcnRpZmljYXRlMB0GA1UdDgQWBBQ1UBk8f3GpwBbb
cvbL8p1ADkBLWjCB6QYDVR0jBIHhMIHegBTvOI0UUFinW02cF3L837msp1GwEKGB
uqSBtzCBtDELMAkGA1UEBhMCVVMxCzAJBgNVBAgTAkNBMRUwEwYDVQQHEwxTYW5G
cmFuY2lzY28xFTATBgNVBAoTDFBpeGdsbywgSW5jLjEQMA4GA1UECxMHVlBOLUNJ
RTEaMBgGA1UEAxMRdHVubmVsLnBpeGdsby5jb20xHDAaBgNVBCkTE0JhbGEgQ2hh
bmRyYXNla2FyYW4xHjAcBgkqhkiG9w0BCQEWD2JhbGFAcGl4Z2xvLmNvbYIJAKbb
xoOA5qB5MBMGA1UdJQQMMAoGCCsGAQUFBwMCMAsGA1UdDwQEAwIHgDANBgkqhkiG
9w0BAQUFAAOCAgEAWQYsQulOGX+bAbTpCM6t000YUrNoQeKUNlF9WZxCmu6z1mAr
NAA0Y1UV/pr9oXCKdXAqXxYgpcMPI6JtmO+Ot6lXefEql8Tmxd1earSZDYcw1YGl
SRBT1JiVECrEoHNQakW2X2geZGlgHydb12rksmvmYE72DOFmzRah/x/kYbqCLyou
4ivdNz2QxyWEoJ17gey0mr2lqeKCs6ssHP3jV92o8zL1yBEjS7ujrcPw9djG56bL
QyOiU+ljR60JtHUoGwUi48P3iUmENcLRHzsfZkSu6KFbyYeHdCDw84lMQMnedtbs
IKFnf4EvNjo4sNUzVmI8AQAoMueYkgqux+Eil5XRxK6GNCB0z2/dwzGMcIgxvs0j
4Hofs9OLFOOml56ox79vQfGRTeIW5YOOcsvjQ6WFh4P8s+ruJ1REg4o3vWhV7CaB
QntwZBUfV/ze4Q5Ysxvnn3uruklGNwh9uS4PoeBtzqLwe5Kzv+npyrSM1dqywYqm
ArUEKNLgAZ10IPe9jCMMyBl07QETaNTVyyEBSDVpZUgpArZ4HXt9zdaakx9745SO
GILW+74E6S38haoYi56n4Vo4rIxYefi7Rf2T6GU2RtXMCOHtA0V8SKloh1+/y55E
8upnuHpa9vAdcdbjQsm+lMcmZ+svNbqVF1EoC9dN3LRmRU2m/c35nYCuCA8=
-----END CERTIFICATE-----
