Certificate:
    Data:
        Version: 3 (0x2)
        Serial Number: 375 (0x177)
    Signature Algorithm: sha1WithRSAEncryption
        Issuer: C=US, ST=CA, L=SanFrancisco, O=Pixglo, Inc., OU=VPN-CIE, CN=tunnel.pixglo.com/name=Bala Chandrasekaran/emailAddress=bala@pixglo.com
        Validity
            Not Before: Feb 14 06:31:48 2018 GMT
            Not After : Feb 12 06:31:48 2028 GMT
        Subject: C=US, ST=CA, L=SanFrancisco, O=Pixglo, Inc., OU=VPN-CIE, CN=cie374/name=Bala Chandrasekaran/emailAddress=bala@pixglo.com
        Subject Public Key Info:
            Public Key Algorithm: rsaEncryption
                Public-Key: (4096 bit)
                Modulus:
                    00:d0:a5:68:ba:f5:1c:8d:26:e3:a5:23:48:7f:78:
                    7b:d1:53:41:e0:37:7a:d3:17:f0:16:98:f5:fa:ec:
                    a3:88:b6:ef:1a:06:ad:fb:67:49:ee:2f:5a:83:f0:
                    3a:bf:14:0f:0f:ea:dd:72:5d:f3:4f:f2:70:5a:a4:
                    20:9a:29:cd:d5:a9:8b:23:e5:d7:ac:ce:e5:b1:5a:
                    28:06:82:a1:70:62:90:81:c8:70:ab:0d:cd:c4:ef:
                    09:12:eb:6e:d4:f6:c8:cf:1f:c1:6e:6d:98:c6:ef:
                    da:19:24:08:5e:8d:07:bb:eb:59:1f:0c:3e:a0:aa:
                    5c:df:6f:22:c8:97:fb:52:6e:13:d6:e1:99:95:6e:
                    77:66:ec:f0:43:38:be:78:7f:8d:8d:d8:33:d9:fd:
                    fe:fa:db:94:c0:26:e5:ee:d0:d5:21:99:b1:af:b2:
                    eb:d2:24:29:4e:7e:8f:d7:94:e9:68:27:bd:71:0e:
                    00:0f:38:d8:e5:c9:51:d5:b4:50:2f:77:65:06:25:
                    cd:b6:fd:a1:09:ca:5c:c9:c3:40:1d:c0:7c:cb:04:
                    f2:17:75:be:92:44:2b:e4:81:7e:f6:aa:09:af:2c:
                    e3:13:87:c7:8c:c8:95:df:75:87:92:7b:dc:9c:04:
                    00:c3:0e:d8:cc:5e:ea:47:6e:3d:36:a6:73:6c:77:
                    db:41:67:a7:ec:b6:b1:a7:7f:18:a1:c3:5f:4c:fc:
                    6f:02:5c:d5:91:34:c8:06:c8:17:9c:1d:3a:93:79:
                    17:15:19:f8:95:63:84:b5:77:94:b0:4c:c3:05:18:
                    eb:fe:47:7e:29:f0:70:24:50:d1:65:50:49:ab:11:
                    bb:52:d7:fe:f0:2d:68:5d:c8:22:9d:f3:fb:f7:60:
                    3b:84:03:48:40:ae:82:bc:df:87:02:30:89:ad:03:
                    5f:5f:70:20:1e:83:76:91:54:e7:cb:10:c9:c2:9b:
                    07:24:5c:94:36:04:c9:b1:16:3b:60:8a:c2:4d:ab:
                    d0:6d:71:77:a3:83:94:43:2f:92:ad:63:4d:72:bf:
                    50:d0:ac:47:e9:71:e2:d7:96:cd:4f:bb:80:10:cb:
                    d9:13:77:eb:80:65:b3:28:0e:19:5e:63:6c:d0:2b:
                    01:0a:e7:9b:84:32:80:39:2c:b0:2a:68:22:96:23:
                    46:86:9a:52:aa:1c:f3:f7:77:95:1f:3e:cf:29:89:
                    c3:5f:94:9c:07:fd:d4:e4:b4:7b:b2:c0:ba:d9:20:
                    1c:9a:9c:d4:9a:ca:a3:6c:4e:cb:b2:6d:3b:c8:cc:
                    1f:67:fd:e8:4f:8a:3f:2e:f6:c2:41:49:38:92:b6:
                    b5:10:a1:2e:d5:d8:9c:26:81:a0:63:dc:27:47:a8:
                    4c:15:e3
                Exponent: 65537 (0x10001)
        X509v3 extensions:
            X509v3 Basic Constraints: 
                CA:FALSE
            Netscape Comment: 
                Easy-RSA Generated Certificate
            X509v3 Subject Key Identifier: 
                17:C6:F2:69:8B:C6:96:B1:71:0C:A5:AA:C8:FC:61:42:7C:BC:B4:B2
            X509v3 Authority Key Identifier: 
                keyid:EF:38:8D:14:50:58:A7:5B:4D:9C:17:72:FC:DF:B9:AC:A7:51:B0:10
                DirName:/C=US/ST=CA/L=SanFrancisco/O=Pixglo, Inc./OU=VPN-CIE/CN=tunnel.pixglo.com/name=Bala Chandrasekaran/emailAddress=bala@pixglo.com
                serial:A6:DB:C6:83:80:E6:A0:79

            X509v3 Extended Key Usage: 
                TLS Web Client Authentication
            X509v3 Key Usage: 
                Digital Signature
    Signature Algorithm: sha1WithRSAEncryption
         da:c0:24:c3:c7:80:ec:4c:e9:c6:2d:ea:02:a0:b3:3a:fe:c6:
         0c:5f:15:cc:c6:7a:49:7e:2b:f6:08:69:8a:a7:8b:f8:7c:96:
         ab:99:cd:c7:13:a7:e2:0c:b9:80:10:10:f8:60:94:6a:3a:bc:
         f9:7e:b7:64:f4:0c:12:fd:5a:1f:d1:f7:88:fa:3b:23:f6:e0:
         86:e7:59:e8:35:e6:fa:3d:3a:11:37:70:9b:ce:94:3c:ee:86:
         a0:1b:5e:62:a0:04:d8:b8:cf:93:01:49:b7:bd:b5:24:92:8d:
         91:12:74:73:34:42:ee:a4:fb:89:a6:2b:4a:53:67:eb:69:c8:
         fb:da:07:38:46:bf:56:de:62:6a:98:b6:a5:62:66:88:5f:12:
         f6:6c:af:45:39:92:84:c1:d5:14:b0:79:27:e6:8e:fe:e1:8a:
         3e:9f:63:d0:c8:f1:dd:9c:a7:13:1a:54:b2:36:a4:6d:be:d6:
         a7:37:d0:2b:52:a4:8b:40:32:e5:8c:91:41:44:dc:d8:38:13:
         f7:2f:11:a7:36:fc:99:ca:6d:b5:4f:2a:fb:76:f0:86:2d:0d:
         c2:5a:35:f3:e2:7d:f1:4e:de:f3:31:40:f0:15:3d:04:7e:5c:
         e5:f4:8c:61:b3:f8:e3:68:19:1c:e0:39:4f:00:73:ae:d4:34:
         1a:94:09:32:65:99:30:60:7f:e0:19:b3:a8:81:48:95:28:79:
         eb:52:cd:1f:2d:b4:3d:4e:f7:56:5d:e1:57:2c:d3:d4:65:86:
         c6:c2:fb:13:29:6c:29:7a:07:9c:37:c4:42:b1:4d:47:bd:d7:
         9d:a5:8c:02:ed:b0:81:d0:15:6a:d3:78:e1:2f:d6:d4:09:be:
         7c:93:ff:7f:01:f6:fe:71:2e:b8:1d:26:0e:33:99:ed:5e:db:
         a2:89:8a:ef:e0:c0:33:7a:a3:0e:b1:56:28:5f:f9:25:8b:4e:
         61:ac:3d:6b:a7:56:01:14:33:28:7b:06:3e:5a:ab:ce:d2:97:
         f9:1b:ad:89:92:c7:38:6b:2a:d7:2a:b0:a0:bd:2d:6a:e1:d8:
         3d:9e:83:d0:f8:c0:c0:5d:a1:9c:1a:6c:1e:43:f2:df:a4:5f:
         80:ab:8d:d2:65:3a:34:17:3d:cb:e6:a9:66:0e:92:8b:63:1f:
         06:47:9f:d5:e9:73:e9:4b:32:ff:c7:17:80:26:c0:2a:aa:85:
         8c:2a:96:fe:94:f7:78:df:72:7d:5a:b6:11:1c:22:53:86:8d:
         d1:04:0b:fe:0a:84:40:cd:62:89:99:83:dd:58:46:65:40:7e:
         19:09:e5:37:9c:90:47:05:31:9b:3c:f5:dd:87:4e:ed:36:de:
         cf:6f:26:4a:fc:5b:66:d4
-----BEGIN CERTIFICATE-----
MIIHSDCCBTCgAwIBAgICAXcwDQYJKoZIhvcNAQEFBQAwgbQxCzAJBgNVBAYTAlVT
MQswCQYDVQQIEwJDQTEVMBMGA1UEBxMMU2FuRnJhbmNpc2NvMRUwEwYDVQQKEwxQ
aXhnbG8sIEluYy4xEDAOBgNVBAsTB1ZQTi1DSUUxGjAYBgNVBAMTEXR1bm5lbC5w
aXhnbG8uY29tMRwwGgYDVQQpExNCYWxhIENoYW5kcmFzZWthcmFuMR4wHAYJKoZI
hvcNAQkBFg9iYWxhQHBpeGdsby5jb20wHhcNMTgwMjE0MDYzMTQ4WhcNMjgwMjEy
MDYzMTQ4WjCBqTELMAkGA1UEBhMCVVMxCzAJBgNVBAgTAkNBMRUwEwYDVQQHEwxT
YW5GcmFuY2lzY28xFTATBgNVBAoTDFBpeGdsbywgSW5jLjEQMA4GA1UECxMHVlBO
LUNJRTEPMA0GA1UEAxMGY2llMzc0MRwwGgYDVQQpExNCYWxhIENoYW5kcmFzZWth
cmFuMR4wHAYJKoZIhvcNAQkBFg9iYWxhQHBpeGdsby5jb20wggIiMA0GCSqGSIb3
DQEBAQUAA4ICDwAwggIKAoICAQDQpWi69RyNJuOlI0h/eHvRU0HgN3rTF/AWmPX6
7KOItu8aBq37Z0nuL1qD8Dq/FA8P6t1yXfNP8nBapCCaKc3VqYsj5deszuWxWigG
gqFwYpCByHCrDc3E7wkS627U9sjPH8FubZjG79oZJAhejQe761kfDD6gqlzfbyLI
l/tSbhPW4ZmVbndm7PBDOL54f42N2DPZ/f7625TAJuXu0NUhmbGvsuvSJClOfo/X
lOloJ71xDgAPONjlyVHVtFAvd2UGJc22/aEJylzJw0AdwHzLBPIXdb6SRCvkgX72
qgmvLOMTh8eMyJXfdYeSe9ycBADDDtjMXupHbj02pnNsd9tBZ6fstrGnfxihw19M
/G8CXNWRNMgGyBecHTqTeRcVGfiVY4S1d5SwTMMFGOv+R34p8HAkUNFlUEmrEbtS
1/7wLWhdyCKd8/v3YDuEA0hAroK834cCMImtA19fcCAeg3aRVOfLEMnCmwckXJQ2
BMmxFjtgisJNq9BtcXejg5RDL5KtY01yv1DQrEfpceLXls1Pu4AQy9kTd+uAZbMo
DhleY2zQKwEK55uEMoA5LLAqaCKWI0aGmlKqHPP3d5UfPs8picNflJwH/dTktHuy
wLrZIByanNSayqNsTsuybTvIzB9n/ehPij8u9sJBSTiStrUQoS7V2JwmgaBj3CdH
qEwV4wIDAQABo4IBazCCAWcwCQYDVR0TBAIwADAtBglghkgBhvhCAQ0EIBYeRWFz
eS1SU0EgR2VuZXJhdGVkIENlcnRpZmljYXRlMB0GA1UdDgQWBBQXxvJpi8aWsXEM
parI/GFCfLy0sjCB6QYDVR0jBIHhMIHegBTvOI0UUFinW02cF3L837msp1GwEKGB
uqSBtzCBtDELMAkGA1UEBhMCVVMxCzAJBgNVBAgTAkNBMRUwEwYDVQQHEwxTYW5G
cmFuY2lzY28xFTATBgNVBAoTDFBpeGdsbywgSW5jLjEQMA4GA1UECxMHVlBOLUNJ
RTEaMBgGA1UEAxMRdHVubmVsLnBpeGdsby5jb20xHDAaBgNVBCkTE0JhbGEgQ2hh
bmRyYXNla2FyYW4xHjAcBgkqhkiG9w0BCQEWD2JhbGFAcGl4Z2xvLmNvbYIJAKbb
xoOA5qB5MBMGA1UdJQQMMAoGCCsGAQUFBwMCMAsGA1UdDwQEAwIHgDANBgkqhkiG
9w0BAQUFAAOCAgEA2sAkw8eA7Ezpxi3qAqCzOv7GDF8VzMZ6SX4r9ghpiqeL+HyW
q5nNxxOn4gy5gBAQ+GCUajq8+X63ZPQMEv1aH9H3iPo7I/bghudZ6DXm+j06ETdw
m86UPO6GoBteYqAE2LjPkwFJt721JJKNkRJ0czRC7qT7iaYrSlNn62nI+9oHOEa/
Vt5iapi2pWJmiF8S9myvRTmShMHVFLB5J+aO/uGKPp9j0Mjx3ZynExpUsjakbb7W
pzfQK1Kki0Ay5YyRQUTc2DgT9y8Rpzb8mcpttU8q+3bwhi0Nwlo18+J98U7e8zFA
8BU9BH5c5fSMYbP442gZHOA5TwBzrtQ0GpQJMmWZMGB/4BmzqIFIlSh561LNHy20
PU73Vl3hVyzT1GWGxsL7EylsKXoHnDfEQrFNR73XnaWMAu2wgdAVatN44S/W1Am+
fJP/fwH2/nEuuB0mDjOZ7V7boomK7+DAM3qjDrFWKF/5JYtOYaw9a6dWARQzKHsG
PlqrztKX+RutiZLHOGsq1yqwoL0tauHYPZ6D0PjAwF2hnBpsHkPy36RfgKuN0mU6
NBc9y+apZg6Si2MfBkef1elz6Usy/8cXgCbAKqqFjCqW/pT3eN9yfVq2ERwiU4aN
0QQL/gqEQM1iiZmD3VhGZUB+GQnlN5yQRwUxmzz13YdO7Tbez28mSvxbZtQ=
-----END CERTIFICATE-----
