Certificate:
    Data:
        Version: 3 (0x2)
        Serial Number: 32 (0x20)
    Signature Algorithm: sha1WithRSAEncryption
        Issuer: C=US, ST=CA, L=SanFrancisco, O=Pixglo, Inc., OU=VPN-CIE, CN=tunnel.pixglo.com/name=Bala Chandrasekaran/emailAddress=bala@pixglo.com
        Validity
            Not Before: Feb 14 06:24:33 2018 GMT
            Not After : Feb 12 06:24:33 2028 GMT
        Subject: C=US, ST=CA, L=SanFrancisco, O=Pixglo, Inc., OU=VPN-CIE, CN=cie31/name=Bala Chandrasekaran/emailAddress=bala@pixglo.com
        Subject Public Key Info:
            Public Key Algorithm: rsaEncryption
                Public-Key: (4096 bit)
                Modulus:
                    00:c9:08:ac:3d:8a:5f:a8:0f:ef:9c:b8:55:72:09:
                    b6:69:a0:c2:cf:6b:75:a1:49:d6:bb:1d:d4:45:ef:
                    5c:73:1c:8d:4f:53:b0:18:93:00:f9:0f:60:e4:78:
                    b5:ce:a4:6b:8c:10:d2:86:50:f7:c4:0f:c1:7d:e2:
                    e1:24:0e:ee:c0:96:42:60:e0:8a:a4:56:57:fd:6a:
                    f7:f3:7b:03:cc:6a:b7:0a:86:0e:d9:36:ec:6f:5d:
                    e3:89:2b:9c:a9:5b:05:d4:3a:0f:0f:15:bf:54:0d:
                    6a:b5:fc:77:b9:f3:bd:cd:56:8e:29:23:b4:c9:98:
                    55:12:1b:cb:5a:4f:f0:fb:f7:eb:df:58:bd:be:4d:
                    e9:9f:4a:8e:77:9a:5e:89:b1:db:49:4c:75:1f:24:
                    29:03:42:38:c8:2f:79:a5:5e:8d:e1:14:9f:b3:92:
                    47:d7:38:65:5c:68:0f:b4:b4:73:f3:8b:4b:88:eb:
                    d5:ec:4f:37:e7:55:da:bc:1b:1a:f6:03:17:05:86:
                    36:5b:5c:de:5a:24:f3:91:9b:83:bb:e1:43:b1:a4:
                    b5:d6:4c:aa:1f:43:73:50:17:55:70:00:53:b5:ed:
                    65:d0:72:7d:54:ef:82:ab:12:71:93:dd:9b:fe:13:
                    ae:7f:ec:8d:d0:cd:3d:c8:6a:22:1b:23:22:10:af:
                    1c:72:e8:26:f0:8f:cf:b0:45:a8:a7:6d:08:e7:0e:
                    c6:32:17:64:8b:4e:50:b1:37:a2:b2:6d:dc:20:f7:
                    7d:ad:9b:9b:8b:60:fd:91:0a:6d:05:9f:3f:ec:1e:
                    fb:cc:6a:7f:66:ec:36:fc:c6:72:93:c3:d5:18:d2:
                    2e:53:e1:3e:36:55:ec:a7:d7:a2:b3:de:4a:aa:73:
                    68:ed:e7:50:74:ea:df:63:2d:50:e3:0c:cf:9a:f9:
                    d1:b5:98:0b:7c:71:00:eb:90:6d:74:e7:56:9f:a7:
                    cf:da:5c:ec:ba:86:10:1b:74:1f:36:ca:81:f9:93:
                    76:94:2a:3f:c5:e7:2e:f2:05:43:0e:05:a0:74:d1:
                    e8:9b:ed:8d:6d:b4:22:fc:e6:0d:b7:44:85:82:12:
                    28:2b:6a:9c:03:7f:3a:26:06:61:22:b6:b4:41:3e:
                    51:8c:17:dd:6f:10:0b:b8:85:ee:18:13:3a:be:12:
                    00:d0:d4:29:22:07:03:a8:5d:18:2c:37:a8:71:e8:
                    50:09:0d:89:f9:a5:d3:8a:5d:f3:f9:fd:77:89:52:
                    af:b0:79:50:53:04:5c:b1:74:f7:ad:c0:6d:7f:b6:
                    4c:3d:78:4e:2a:35:3a:1a:44:bf:32:88:e4:18:79:
                    db:55:f0:f0:97:26:69:87:35:3d:88:79:62:86:b0:
                    a9:fc:85
                Exponent: 65537 (0x10001)
        X509v3 extensions:
            X509v3 Basic Constraints: 
                CA:FALSE
            Netscape Comment: 
                Easy-RSA Generated Certificate
            X509v3 Subject Key Identifier: 
                92:40:80:ED:E4:04:E0:AD:3E:8C:4B:56:76:A5:E9:8A:B0:F9:D2:7C
            X509v3 Authority Key Identifier: 
                keyid:EF:38:8D:14:50:58:A7:5B:4D:9C:17:72:FC:DF:B9:AC:A7:51:B0:10
                DirName:/C=US/ST=CA/L=SanFrancisco/O=Pixglo, Inc./OU=VPN-CIE/CN=tunnel.pixglo.com/name=Bala Chandrasekaran/emailAddress=bala@pixglo.com
                serial:A6:DB:C6:83:80:E6:A0:79

            X509v3 Extended Key Usage: 
                TLS Web Client Authentication
            X509v3 Key Usage: 
                Digital Signature
    Signature Algorithm: sha1WithRSAEncryption
         b0:6a:8f:fc:46:a9:e7:cc:2e:10:01:0d:34:39:80:fc:ac:5d:
         6a:c0:ec:3a:21:0f:b6:7b:25:2c:da:cd:dc:b6:13:2b:1b:92:
         8a:d4:d3:b7:d2:1c:09:ef:2b:6f:6e:e9:cd:75:ff:3f:21:7a:
         4b:83:f4:da:af:74:86:83:93:a7:ff:df:7b:6f:6b:1f:2d:8c:
         11:66:18:cb:db:d6:8c:df:4d:0a:7b:93:85:54:ea:e9:2c:ab:
         08:31:06:03:cb:c8:3c:bf:c7:ac:8a:1b:6a:88:54:66:c7:dd:
         b7:fe:ac:a5:cf:77:b7:55:cb:d4:52:7b:3e:27:34:9c:8b:a7:
         42:74:df:7c:84:c0:bd:c0:f3:c3:e3:09:3e:e2:03:78:e9:14:
         2d:86:2e:57:40:ea:bb:30:42:53:64:d7:02:d2:0f:af:c9:9e:
         f3:c0:82:5c:f0:fa:65:a5:22:29:d1:1c:53:54:a8:b8:9f:1c:
         cd:0e:5f:d0:29:78:a8:b8:7f:13:cc:56:b1:c1:92:2f:f7:4a:
         f1:39:7f:19:a8:07:29:e3:61:27:bf:ad:57:e0:da:9a:be:ff:
         f2:b7:bb:0b:1e:c6:cf:a5:b8:b1:23:15:c1:fc:0f:d9:57:c7:
         da:89:44:ef:5a:7d:d5:06:e7:e8:7b:19:44:2a:84:0c:89:42:
         73:fd:13:64:e6:00:5a:c3:97:cc:db:9c:e2:87:6a:32:93:ae:
         67:03:1d:83:b4:a0:95:fa:a7:ff:3e:a6:56:ff:2e:97:5f:8d:
         1e:0a:29:07:02:19:bd:4a:6d:0b:d5:43:a3:7f:e3:c5:8d:c1:
         b8:0e:83:7e:82:1c:2b:c2:8d:68:44:06:7f:d7:6d:e9:90:97:
         b6:3e:ec:af:77:55:3a:b2:72:54:dd:d1:2e:1f:ad:1b:c0:e1:
         87:02:7d:af:b2:a2:5d:48:77:20:b2:11:26:e9:95:58:da:a9:
         05:c1:37:1f:45:64:61:8e:a0:4e:7d:d1:5a:24:1a:25:82:3e:
         0e:bc:a8:f7:00:d4:7f:b5:db:cc:02:d1:ec:42:f6:5c:b0:6e:
         be:64:e6:8c:ae:26:fe:07:c8:fb:53:93:eb:8d:4e:8f:3e:1c:
         bf:d9:7c:87:03:22:e7:6a:00:d1:54:8f:13:50:31:be:02:93:
         eb:6c:2a:4b:a6:4a:72:23:9f:d6:f0:96:4c:c1:ee:e2:b0:3e:
         41:ce:f0:10:83:eb:c1:29:ad:47:ed:8c:8c:63:c0:dc:a5:ab:
         8a:90:20:62:b1:6e:13:ff:e0:f4:4d:4a:42:e4:3a:bc:c6:2a:
         87:56:8b:54:40:d1:88:04:c2:a5:1d:f0:22:ca:0e:62:46:d5:
         32:99:e0:ae:03:71:f9:d8
-----BEGIN CERTIFICATE-----
MIIHRjCCBS6gAwIBAgIBIDANBgkqhkiG9w0BAQUFADCBtDELMAkGA1UEBhMCVVMx
CzAJBgNVBAgTAkNBMRUwEwYDVQQHEwxTYW5GcmFuY2lzY28xFTATBgNVBAoTDFBp
eGdsbywgSW5jLjEQMA4GA1UECxMHVlBOLUNJRTEaMBgGA1UEAxMRdHVubmVsLnBp
eGdsby5jb20xHDAaBgNVBCkTE0JhbGEgQ2hhbmRyYXNla2FyYW4xHjAcBgkqhkiG
9w0BCQEWD2JhbGFAcGl4Z2xvLmNvbTAeFw0xODAyMTQwNjI0MzNaFw0yODAyMTIw
NjI0MzNaMIGoMQswCQYDVQQGEwJVUzELMAkGA1UECBMCQ0ExFTATBgNVBAcTDFNh
bkZyYW5jaXNjbzEVMBMGA1UEChMMUGl4Z2xvLCBJbmMuMRAwDgYDVQQLEwdWUE4t
Q0lFMQ4wDAYDVQQDEwVjaWUzMTEcMBoGA1UEKRMTQmFsYSBDaGFuZHJhc2VrYXJh
bjEeMBwGCSqGSIb3DQEJARYPYmFsYUBwaXhnbG8uY29tMIICIjANBgkqhkiG9w0B
AQEFAAOCAg8AMIICCgKCAgEAyQisPYpfqA/vnLhVcgm2aaDCz2t1oUnWux3URe9c
cxyNT1OwGJMA+Q9g5Hi1zqRrjBDShlD3xA/BfeLhJA7uwJZCYOCKpFZX/Wr383sD
zGq3CoYO2Tbsb13jiSucqVsF1DoPDxW/VA1qtfx3ufO9zVaOKSO0yZhVEhvLWk/w
+/fr31i9vk3pn0qOd5peibHbSUx1HyQpA0I4yC95pV6N4RSfs5JH1zhlXGgPtLRz
84tLiOvV7E8351XavBsa9gMXBYY2W1zeWiTzkZuDu+FDsaS11kyqH0NzUBdVcABT
te1l0HJ9VO+CqxJxk92b/hOuf+yN0M09yGoiGyMiEK8ccugm8I/PsEWop20I5w7G
Mhdki05QsTeism3cIPd9rZubi2D9kQptBZ8/7B77zGp/Zuw2/MZyk8PVGNIuU+E+
NlXsp9eis95KqnNo7edQdOrfYy1Q4wzPmvnRtZgLfHEA65BtdOdWn6fP2lzsuoYQ
G3QfNsqB+ZN2lCo/xecu8gVDDgWgdNHom+2NbbQi/OYNt0SFghIoK2qcA386JgZh
Ira0QT5RjBfdbxALuIXuGBM6vhIA0NQpIgcDqF0YLDeocehQCQ2J+aXTil3z+f13
iVKvsHlQUwRcsXT3rcBtf7ZMPXhOKjU6GkS/MojkGHnbVfDwlyZphzU9iHlihrCp
/IUCAwEAAaOCAWswggFnMAkGA1UdEwQCMAAwLQYJYIZIAYb4QgENBCAWHkVhc3kt
UlNBIEdlbmVyYXRlZCBDZXJ0aWZpY2F0ZTAdBgNVHQ4EFgQUkkCA7eQE4K0+jEtW
dqXpirD50nwwgekGA1UdIwSB4TCB3oAU7ziNFFBYp1tNnBdy/N+5rKdRsBChgbqk
gbcwgbQxCzAJBgNVBAYTAlVTMQswCQYDVQQIEwJDQTEVMBMGA1UEBxMMU2FuRnJh
bmNpc2NvMRUwEwYDVQQKEwxQaXhnbG8sIEluYy4xEDAOBgNVBAsTB1ZQTi1DSUUx
GjAYBgNVBAMTEXR1bm5lbC5waXhnbG8uY29tMRwwGgYDVQQpExNCYWxhIENoYW5k
cmFzZWthcmFuMR4wHAYJKoZIhvcNAQkBFg9iYWxhQHBpeGdsby5jb22CCQCm28aD
gOageTATBgNVHSUEDDAKBggrBgEFBQcDAjALBgNVHQ8EBAMCB4AwDQYJKoZIhvcN
AQEFBQADggIBALBqj/xGqefMLhABDTQ5gPysXWrA7DohD7Z7JSzazdy2EysbkorU
07fSHAnvK29u6c11/z8hekuD9NqvdIaDk6f/33tvax8tjBFmGMvb1ozfTQp7k4VU
6uksqwgxBgPLyDy/x6yKG2qIVGbH3bf+rKXPd7dVy9RSez4nNJyLp0J033yEwL3A
88PjCT7iA3jpFC2GLldA6rswQlNk1wLSD6/JnvPAglzw+mWlIinRHFNUqLifHM0O
X9ApeKi4fxPMVrHBki/3SvE5fxmoBynjYSe/rVfg2pq+//K3uwsexs+luLEjFcH8
D9lXx9qJRO9afdUG5+h7GUQqhAyJQnP9E2TmAFrDl8zbnOKHajKTrmcDHYO0oJX6
p/8+plb/LpdfjR4KKQcCGb1KbQvVQ6N/48WNwbgOg36CHCvCjWhEBn/XbemQl7Y+
7K93VTqyclTd0S4frRvA4YcCfa+yol1IdyCyESbplVjaqQXBNx9FZGGOoE590Vok
GiWCPg68qPcA1H+128wC0exC9lywbr5k5oyuJv4HyPtTk+uNTo8+HL/ZfIcDIudq
ANFUjxNQMb4Ck+tsKkumSnIjn9bwlkzB7uKwPkHO8BCD68EprUftjIxjwNylq4qQ
IGKxbhP/4PRNSkLkOrzGKodWi1RA0YgEwqUd8CLKDmJG1TKZ4K4DcfnY
-----END CERTIFICATE-----
