Certificate:
    Data:
        Version: 3 (0x2)
        Serial Number: 311 (0x137)
    Signature Algorithm: sha1WithRSAEncryption
        Issuer: C=US, ST=CA, L=SanFrancisco, O=Pixglo, Inc., OU=VPN-CIE, CN=tunnel.pixglo.com/name=Bala Chandrasekaran/emailAddress=bala@pixglo.com
        Validity
            Not Before: Feb 14 06:30:09 2018 GMT
            Not After : Feb 12 06:30:09 2028 GMT
        Subject: C=US, ST=CA, L=SanFrancisco, O=Pixglo, Inc., OU=VPN-CIE, CN=cie310/name=Bala Chandrasekaran/emailAddress=bala@pixglo.com
        Subject Public Key Info:
            Public Key Algorithm: rsaEncryption
                Public-Key: (4096 bit)
                Modulus:
                    00:ae:e2:db:f7:c2:a3:4c:7e:24:67:4d:17:69:68:
                    07:5e:03:30:05:30:dd:83:3a:de:68:56:a1:db:a7:
                    88:dc:42:c5:aa:ef:65:2d:69:ee:34:2d:05:d5:d9:
                    20:50:a5:ef:df:e0:f6:04:1d:d8:d1:fd:4b:12:5f:
                    c6:bf:70:a3:19:e0:d4:d1:eb:dc:e9:2e:aa:a3:6e:
                    77:97:5e:b7:f7:5b:24:54:37:c5:ee:c5:d1:6f:4e:
                    e1:5a:9d:ec:5f:be:d3:a4:e7:7a:26:7b:8b:f4:e2:
                    1c:df:64:ba:98:d5:1e:a0:89:88:42:a9:20:bd:d7:
                    7c:27:74:c6:76:90:e5:81:4f:2e:36:d6:bc:ed:57:
                    03:94:de:5b:1a:c0:1c:cd:96:ce:81:1d:58:81:0d:
                    7d:fd:5e:1b:74:26:73:51:29:88:8a:49:be:ee:9f:
                    e2:81:51:63:c6:59:d6:f2:c3:94:24:b2:81:2c:e6:
                    4e:fc:18:3d:3d:e3:41:72:76:4c:7a:fb:c2:31:8f:
                    69:8e:c1:27:fc:22:25:e8:58:20:12:fb:63:75:a6:
                    19:3c:b7:a4:09:e9:34:63:7e:04:ad:1f:a2:30:59:
                    a0:17:d6:b4:6a:6f:df:3d:ca:17:d3:16:b5:8b:41:
                    00:c4:73:2a:d3:f3:ee:95:f2:1d:2b:e5:17:93:39:
                    3c:81:36:12:55:87:f9:75:aa:5a:45:c6:d0:6f:73:
                    5e:bf:76:b8:d4:3b:a1:1a:ab:13:9d:4d:48:28:92:
                    26:95:e4:d2:26:03:de:48:e8:ea:3e:53:a8:42:41:
                    48:5d:35:05:35:52:f9:bd:77:31:fb:1f:73:b1:30:
                    56:32:0a:68:90:ca:55:f2:ab:3c:f9:f7:0c:3a:1d:
                    a5:6e:c2:e9:14:bb:4a:f5:de:04:bd:f9:c3:1a:f7:
                    02:97:03:6b:66:b2:8e:ba:38:16:63:94:e8:3c:69:
                    f8:40:6b:a0:7b:af:85:ba:bd:21:27:36:af:34:4f:
                    43:ed:58:92:99:44:47:54:83:fe:e2:59:30:6e:5e:
                    b5:a9:3f:8b:e3:9e:a8:82:f5:ad:ce:77:34:ff:22:
                    26:06:a3:48:29:52:a7:79:86:76:45:35:bf:8e:b3:
                    58:ee:f0:9e:59:0d:a3:02:24:6a:97:3b:73:a2:98:
                    4d:f8:27:dc:36:2a:c9:39:3a:b2:f0:a7:12:72:aa:
                    25:d2:95:08:f2:6d:73:0f:fe:fc:17:98:c7:d1:47:
                    1c:84:90:0e:73:38:dd:39:f2:c0:08:55:ea:41:78:
                    7a:a9:46:a9:1a:81:bb:96:30:7f:07:04:1b:2d:41:
                    3d:6b:99:de:fb:4a:75:97:7c:36:28:b7:cc:3f:2b:
                    96:3e:9b
                Exponent: 65537 (0x10001)
        X509v3 extensions:
            X509v3 Basic Constraints: 
                CA:FALSE
            Netscape Comment: 
                Easy-RSA Generated Certificate
            X509v3 Subject Key Identifier: 
                F2:A2:A6:FF:7B:07:A7:38:41:E3:2D:53:17:BE:FE:99:22:2F:F1:8B
            X509v3 Authority Key Identifier: 
                keyid:EF:38:8D:14:50:58:A7:5B:4D:9C:17:72:FC:DF:B9:AC:A7:51:B0:10
                DirName:/C=US/ST=CA/L=SanFrancisco/O=Pixglo, Inc./OU=VPN-CIE/CN=tunnel.pixglo.com/name=Bala Chandrasekaran/emailAddress=bala@pixglo.com
                serial:A6:DB:C6:83:80:E6:A0:79

            X509v3 Extended Key Usage: 
                TLS Web Client Authentication
            X509v3 Key Usage: 
                Digital Signature
    Signature Algorithm: sha1WithRSAEncryption
         20:8e:3a:a8:b1:14:71:13:54:f6:c9:d9:95:0c:f1:14:27:99:
         a9:4a:3b:7c:56:79:10:99:1e:71:36:a1:f9:2e:6b:8b:53:3e:
         a2:61:59:b5:d8:22:1b:25:14:e4:b3:74:6d:d9:4c:53:18:ab:
         b6:5e:06:74:76:6a:3c:98:91:cd:cd:4d:f0:89:a5:b4:4a:b6:
         92:f4:a4:df:38:42:d8:94:9c:df:d3:95:db:a3:b5:b5:78:6e:
         18:b8:da:5b:00:14:78:cb:18:54:21:dd:a6:55:bb:f0:da:85:
         55:1a:c4:a0:7d:92:04:98:1c:8a:18:41:1b:cd:33:1d:9e:e7:
         22:fe:59:56:f2:77:3f:8d:e9:cb:29:9b:44:b6:08:5e:d9:e2:
         c5:f4:7f:0b:72:7b:77:e4:8e:e3:87:29:a3:0a:f8:b0:08:43:
         bd:69:c1:54:b0:74:98:3f:f4:b9:c1:f8:a6:9f:23:88:80:2c:
         d9:e2:70:a5:45:1f:95:78:11:23:79:62:bc:e4:15:c9:93:a3:
         4b:1d:6f:0c:b7:9e:d4:b4:af:49:f3:c0:53:6a:c7:db:f1:60:
         e3:bf:ed:98:fc:a8:92:fd:db:3c:5d:bf:da:b4:f9:fa:27:dc:
         db:82:69:f3:95:bd:93:5b:c9:08:dd:11:9b:a8:d8:02:42:3b:
         21:9b:3c:9c:4c:be:76:56:0e:82:b0:09:ab:cc:cb:00:60:bb:
         bc:ee:27:6c:62:fb:e4:e3:e4:95:2a:e1:65:1a:b1:af:ea:50:
         90:ea:f5:2c:87:05:09:e2:f1:94:03:37:d9:84:f4:f0:03:82:
         1e:a1:13:63:98:d9:d0:5c:87:26:4f:f9:79:8d:74:ed:32:c6:
         bb:e2:e0:23:01:52:cc:33:6c:5b:a7:f2:44:2c:48:aa:72:a9:
         0d:79:48:1d:9f:d8:b2:4a:4f:73:92:30:8d:cf:95:45:c9:48:
         e0:16:40:d1:55:f1:ae:d5:67:99:77:e8:7a:0a:3d:94:03:38:
         45:ed:92:53:67:ed:95:f6:29:20:3f:eb:8e:cd:a7:2c:b7:85:
         54:bb:73:f8:3d:7a:74:3c:2b:2e:43:a3:88:75:9e:13:e0:d3:
         d9:95:f2:27:48:9c:8b:40:f4:2e:89:4f:4e:7b:8e:70:87:e9:
         13:d8:9d:67:c4:97:62:88:15:45:6a:81:83:af:bf:7e:e7:a9:
         c7:d3:29:7a:cb:e3:79:f8:28:a5:73:02:54:27:f1:9d:66:e9:
         5a:78:d0:a4:b7:9f:b9:1f:28:65:ab:f3:0a:93:a9:f2:93:2b:
         e7:c6:54:c3:1a:82:74:34:57:ae:17:4e:1a:36:17:32:89:a3:
         92:1b:ad:11:db:93:b5:cf
-----BEGIN CERTIFICATE-----
MIIHSDCCBTCgAwIBAgICATcwDQYJKoZIhvcNAQEFBQAwgbQxCzAJBgNVBAYTAlVT
MQswCQYDVQQIEwJDQTEVMBMGA1UEBxMMU2FuRnJhbmNpc2NvMRUwEwYDVQQKEwxQ
aXhnbG8sIEluYy4xEDAOBgNVBAsTB1ZQTi1DSUUxGjAYBgNVBAMTEXR1bm5lbC5w
aXhnbG8uY29tMRwwGgYDVQQpExNCYWxhIENoYW5kcmFzZWthcmFuMR4wHAYJKoZI
hvcNAQkBFg9iYWxhQHBpeGdsby5jb20wHhcNMTgwMjE0MDYzMDA5WhcNMjgwMjEy
MDYzMDA5WjCBqTELMAkGA1UEBhMCVVMxCzAJBgNVBAgTAkNBMRUwEwYDVQQHEwxT
YW5GcmFuY2lzY28xFTATBgNVBAoTDFBpeGdsbywgSW5jLjEQMA4GA1UECxMHVlBO
LUNJRTEPMA0GA1UEAxMGY2llMzEwMRwwGgYDVQQpExNCYWxhIENoYW5kcmFzZWth
cmFuMR4wHAYJKoZIhvcNAQkBFg9iYWxhQHBpeGdsby5jb20wggIiMA0GCSqGSIb3
DQEBAQUAA4ICDwAwggIKAoICAQCu4tv3wqNMfiRnTRdpaAdeAzAFMN2DOt5oVqHb
p4jcQsWq72Utae40LQXV2SBQpe/f4PYEHdjR/UsSX8a/cKMZ4NTR69zpLqqjbneX
Xrf3WyRUN8XuxdFvTuFanexfvtOk53ome4v04hzfZLqY1R6giYhCqSC913wndMZ2
kOWBTy421rztVwOU3lsawBzNls6BHViBDX39Xht0JnNRKYiKSb7un+KBUWPGWdby
w5QksoEs5k78GD0940Fydkx6+8Ixj2mOwSf8IiXoWCAS+2N1phk8t6QJ6TRjfgSt
H6IwWaAX1rRqb989yhfTFrWLQQDEcyrT8+6V8h0r5ReTOTyBNhJVh/l1qlpFxtBv
c16/drjUO6EaqxOdTUgokiaV5NImA95I6Oo+U6hCQUhdNQU1Uvm9dzH7H3OxMFYy
CmiQylXyqzz59ww6HaVuwukUu0r13gS9+cMa9wKXA2tmso66OBZjlOg8afhAa6B7
r4W6vSEnNq80T0PtWJKZREdUg/7iWTBuXrWpP4vjnqiC9a3OdzT/IiYGo0gpUqd5
hnZFNb+Os1ju8J5ZDaMCJGqXO3OimE34J9w2Ksk5OrLwpxJyqiXSlQjybXMP/vwX
mMfRRxyEkA5zON058sAIVepBeHqpRqkagbuWMH8HBBstQT1rmd77SnWXfDYot8w/
K5Y+mwIDAQABo4IBazCCAWcwCQYDVR0TBAIwADAtBglghkgBhvhCAQ0EIBYeRWFz
eS1SU0EgR2VuZXJhdGVkIENlcnRpZmljYXRlMB0GA1UdDgQWBBTyoqb/ewenOEHj
LVMXvv6ZIi/xizCB6QYDVR0jBIHhMIHegBTvOI0UUFinW02cF3L837msp1GwEKGB
uqSBtzCBtDELMAkGA1UEBhMCVVMxCzAJBgNVBAgTAkNBMRUwEwYDVQQHEwxTYW5G
cmFuY2lzY28xFTATBgNVBAoTDFBpeGdsbywgSW5jLjEQMA4GA1UECxMHVlBOLUNJ
RTEaMBgGA1UEAxMRdHVubmVsLnBpeGdsby5jb20xHDAaBgNVBCkTE0JhbGEgQ2hh
bmRyYXNla2FyYW4xHjAcBgkqhkiG9w0BCQEWD2JhbGFAcGl4Z2xvLmNvbYIJAKbb
xoOA5qB5MBMGA1UdJQQMMAoGCCsGAQUFBwMCMAsGA1UdDwQEAwIHgDANBgkqhkiG
9w0BAQUFAAOCAgEAII46qLEUcRNU9snZlQzxFCeZqUo7fFZ5EJkecTah+S5ri1M+
omFZtdgiGyUU5LN0bdlMUxirtl4GdHZqPJiRzc1N8ImltEq2kvSk3zhC2JSc39OV
26O1tXhuGLjaWwAUeMsYVCHdplW78NqFVRrEoH2SBJgcihhBG80zHZ7nIv5ZVvJ3
P43pyymbRLYIXtnixfR/C3J7d+SO44cpowr4sAhDvWnBVLB0mD/0ucH4pp8jiIAs
2eJwpUUflXgRI3livOQVyZOjSx1vDLee1LSvSfPAU2rH2/Fg47/tmPyokv3bPF2/
2rT5+ifc24Jp85W9k1vJCN0Rm6jYAkI7IZs8nEy+dlYOgrAJq8zLAGC7vO4nbGL7
5OPklSrhZRqxr+pQkOr1LIcFCeLxlAM32YT08AOCHqETY5jZ0FyHJk/5eY107TLG
u+LgIwFSzDNsW6fyRCxIqnKpDXlIHZ/YskpPc5Iwjc+VRclI4BZA0VXxrtVnmXfo
ego9lAM4Re2SU2ftlfYpID/rjs2nLLeFVLtz+D16dDwrLkOjiHWeE+DT2ZXyJ0ic
i0D0LolPTnuOcIfpE9idZ8SXYogVRWqBg6+/fuepx9MpesvjefgopXMCVCfxnWbp
WnjQpLefuR8oZavzCpOp8pMr58ZUwxqCdDRXrhdOGjYXMomjkhutEduTtc8=
-----END CERTIFICATE-----
