Certificate:
    Data:
        Version: 3 (0x2)
        Serial Number: 453 (0x1c5)
    Signature Algorithm: sha1WithRSAEncryption
        Issuer: C=US, ST=CA, L=SanFrancisco, O=Pixglo, Inc., OU=VPN-CIE, CN=tunnel.pixglo.com/name=Bala Chandrasekaran/emailAddress=bala@pixglo.com
        Validity
            Not Before: Feb 14 06:34:27 2018 GMT
            Not After : Feb 12 06:34:27 2028 GMT
        Subject: C=US, ST=CA, L=SanFrancisco, O=Pixglo, Inc., OU=VPN-CIE, CN=cie452/name=Bala Chandrasekaran/emailAddress=bala@pixglo.com
        Subject Public Key Info:
            Public Key Algorithm: rsaEncryption
                Public-Key: (4096 bit)
                Modulus:
                    00:d7:1b:8c:3d:36:98:56:9f:6c:bb:6d:a2:90:8f:
                    3a:be:0f:95:fc:8d:76:2e:f3:eb:bb:c5:ea:d6:33:
                    a0:50:a2:48:bf:a5:10:c5:47:49:3a:e5:f3:f4:d0:
                    d1:bc:ef:6d:79:09:d8:d9:b5:22:21:54:e2:6a:07:
                    55:39:a3:f8:29:d4:fd:8a:5d:28:ba:d3:22:64:c7:
                    8a:a4:25:3a:8e:4b:41:fa:40:30:08:10:f1:4a:fc:
                    3b:72:04:dc:00:8d:3a:d8:73:91:cb:7e:f6:66:6c:
                    6f:be:9e:73:4c:cb:f8:95:35:3c:a7:3b:70:13:a4:
                    bc:e7:75:fd:f2:38:61:e2:f9:bb:21:a6:24:c7:ee:
                    73:5c:0a:1e:5e:55:a7:a7:10:df:8f:8c:36:02:e5:
                    34:c0:8f:8d:77:10:2b:65:ca:df:a7:ea:80:a8:72:
                    6a:4f:98:0d:fb:f7:fb:46:65:ae:ad:d8:b8:e4:48:
                    bd:c3:bf:b4:d0:62:4d:25:15:a9:b1:ec:ec:b4:94:
                    1b:7c:4f:e8:18:2e:cd:24:df:28:80:be:93:7c:f9:
                    12:4f:ab:e4:43:81:65:95:84:a2:69:d7:0f:1b:9a:
                    9c:07:6a:2e:d7:0b:7b:be:d9:e0:85:35:68:b3:95:
                    0c:1a:6e:a8:3a:c3:9c:67:a1:15:9c:1b:dd:8e:f2:
                    33:b9:9a:66:6e:ac:48:c9:61:14:e9:76:cf:a2:55:
                    7a:27:89:36:18:17:ca:68:a6:27:2b:46:01:8b:d1:
                    21:35:ed:10:da:e8:dc:04:66:71:41:d0:1d:39:1b:
                    f3:e8:9e:f0:6c:36:33:54:df:75:ee:65:a7:ce:8c:
                    b4:56:14:4f:1d:99:f8:fc:cd:06:23:14:e8:6e:75:
                    7f:66:b7:a9:f8:ea:13:e9:b8:9b:18:47:71:0c:14:
                    82:5b:6a:28:cc:d1:fb:e9:38:58:c0:19:ae:11:af:
                    19:41:f7:d0:19:b1:0b:dc:32:20:79:31:70:32:b1:
                    36:5a:aa:7f:7c:ff:59:56:2c:c5:0e:2c:7a:74:1b:
                    22:ea:dd:f1:22:fc:8e:b8:27:ac:b5:d3:4d:9a:81:
                    af:c8:ab:d9:39:25:65:39:f9:93:3a:90:e6:55:84:
                    5f:30:af:b9:df:5e:82:c6:1f:14:28:0b:6a:cf:16:
                    d5:99:1f:70:b6:67:9a:6d:15:dc:bb:4c:a7:8c:26:
                    d4:cb:5c:73:80:a5:ba:7a:73:f8:76:ed:84:00:3a:
                    b4:f2:3e:6f:3a:7d:60:e2:94:af:10:d8:df:17:70:
                    f3:be:13:ae:86:f8:f2:6f:00:d0:64:51:13:19:bc:
                    ff:fe:7b:b3:44:79:82:3a:ce:4f:52:9f:cb:0f:b8:
                    51:a8:d3
                Exponent: 65537 (0x10001)
        X509v3 extensions:
            X509v3 Basic Constraints: 
                CA:FALSE
            Netscape Comment: 
                Easy-RSA Generated Certificate
            X509v3 Subject Key Identifier: 
                74:2A:FE:F4:DB:01:F3:D2:25:A6:AF:34:D7:75:EB:0C:D7:D9:89:6A
            X509v3 Authority Key Identifier: 
                keyid:EF:38:8D:14:50:58:A7:5B:4D:9C:17:72:FC:DF:B9:AC:A7:51:B0:10
                DirName:/C=US/ST=CA/L=SanFrancisco/O=Pixglo, Inc./OU=VPN-CIE/CN=tunnel.pixglo.com/name=Bala Chandrasekaran/emailAddress=bala@pixglo.com
                serial:A6:DB:C6:83:80:E6:A0:79

            X509v3 Extended Key Usage: 
                TLS Web Client Authentication
            X509v3 Key Usage: 
                Digital Signature
    Signature Algorithm: sha1WithRSAEncryption
         9f:df:0c:30:92:66:af:c5:c2:2e:ec:f1:f3:6d:b7:2e:01:17:
         cb:3e:a7:0f:db:f0:dc:96:dc:99:03:8f:a1:12:08:07:36:bd:
         e1:15:0a:c5:c7:b7:8b:de:0d:82:03:92:81:28:09:98:02:07:
         8f:2c:22:e8:81:ba:12:03:5d:35:89:ee:ec:40:e8:ee:f3:c0:
         cf:99:75:e7:50:6a:79:c7:ff:fd:84:17:2f:fd:20:02:1f:1c:
         43:f2:7a:b1:fc:db:f5:43:f2:5c:ea:9a:a9:72:d6:a1:ba:38:
         b0:f9:2e:b8:1d:be:8d:51:c6:a7:b1:ea:c7:99:26:5c:80:bc:
         11:1a:bb:a9:80:8b:ff:76:17:00:e2:31:fb:98:45:d8:39:55:
         49:ef:62:7c:cb:ba:8f:90:42:26:be:66:23:51:ce:e8:44:84:
         a5:42:e8:95:d6:d3:2a:49:1a:de:d8:ed:c1:f0:1e:1b:bc:b2:
         4b:9c:42:81:d4:3b:09:15:7b:01:fb:f3:7a:08:6d:13:e4:36:
         65:e9:c2:94:7a:e3:2d:ab:dc:1d:d4:4e:04:a5:b9:60:2b:e0:
         bd:bc:d9:e2:53:99:29:50:f8:88:da:7d:de:32:c5:5b:42:80:
         aa:9e:1a:25:6d:fe:9b:a7:d9:e5:f2:52:c0:81:06:75:59:25:
         cf:c4:92:78:5c:53:f8:8c:d2:80:fc:bd:0f:84:3e:9c:39:0d:
         ed:24:8d:dd:a3:cd:e8:6b:b7:10:eb:75:81:0f:90:cd:59:8c:
         42:90:88:f8:31:26:03:7a:3f:a3:74:b7:9c:2e:b7:ad:c1:9d:
         21:0a:ac:49:6c:a7:41:c1:a1:07:c2:12:fe:95:9e:68:ec:e5:
         8c:65:fb:da:eb:68:b0:05:3a:35:e2:c3:10:04:f7:dc:cb:5c:
         9f:ea:52:23:35:18:98:b9:e3:05:4d:9c:f3:a1:c4:91:e0:00:
         74:07:59:56:0f:a9:b4:f9:db:dc:98:fd:92:86:2f:cf:76:dd:
         f8:78:08:d5:18:9f:4a:cf:88:13:e0:8f:c0:c1:37:ec:68:d1:
         d2:a0:34:3a:61:10:4b:04:ee:3e:d4:1f:82:95:6b:7a:8f:6a:
         98:61:6a:94:68:60:9f:4b:b1:4f:da:36:ec:69:35:6b:1d:5c:
         b4:cc:80:66:d2:20:9f:ff:9b:8c:ea:aa:82:72:bf:38:a1:3a:
         ca:26:43:cf:46:d3:3a:a0:59:d8:2f:00:30:36:da:b3:0d:95:
         04:8c:b6:db:72:43:48:06:23:3e:6e:11:c3:de:16:eb:c3:46:
         12:5e:cb:ab:c8:3d:8d:91:ac:b1:44:a1:46:7c:21:09:45:fe:
         6e:8c:09:fd:2c:56:c1:1d
-----BEGIN CERTIFICATE-----
MIIHSDCCBTCgAwIBAgICAcUwDQYJKoZIhvcNAQEFBQAwgbQxCzAJBgNVBAYTAlVT
MQswCQYDVQQIEwJDQTEVMBMGA1UEBxMMU2FuRnJhbmNpc2NvMRUwEwYDVQQKEwxQ
aXhnbG8sIEluYy4xEDAOBgNVBAsTB1ZQTi1DSUUxGjAYBgNVBAMTEXR1bm5lbC5w
aXhnbG8uY29tMRwwGgYDVQQpExNCYWxhIENoYW5kcmFzZWthcmFuMR4wHAYJKoZI
hvcNAQkBFg9iYWxhQHBpeGdsby5jb20wHhcNMTgwMjE0MDYzNDI3WhcNMjgwMjEy
MDYzNDI3WjCBqTELMAkGA1UEBhMCVVMxCzAJBgNVBAgTAkNBMRUwEwYDVQQHEwxT
YW5GcmFuY2lzY28xFTATBgNVBAoTDFBpeGdsbywgSW5jLjEQMA4GA1UECxMHVlBO
LUNJRTEPMA0GA1UEAxMGY2llNDUyMRwwGgYDVQQpExNCYWxhIENoYW5kcmFzZWth
cmFuMR4wHAYJKoZIhvcNAQkBFg9iYWxhQHBpeGdsby5jb20wggIiMA0GCSqGSIb3
DQEBAQUAA4ICDwAwggIKAoICAQDXG4w9NphWn2y7baKQjzq+D5X8jXYu8+u7xerW
M6BQoki/pRDFR0k65fP00NG87215CdjZtSIhVOJqB1U5o/gp1P2KXSi60yJkx4qk
JTqOS0H6QDAIEPFK/DtyBNwAjTrYc5HLfvZmbG++nnNMy/iVNTynO3ATpLzndf3y
OGHi+bshpiTH7nNcCh5eVaenEN+PjDYC5TTAj413ECtlyt+n6oCocmpPmA379/tG
Za6t2LjkSL3Dv7TQYk0lFamx7Oy0lBt8T+gYLs0k3yiAvpN8+RJPq+RDgWWVhKJp
1w8bmpwHai7XC3u+2eCFNWizlQwabqg6w5xnoRWcG92O8jO5mmZurEjJYRTpds+i
VXoniTYYF8popicrRgGL0SE17RDa6NwEZnFB0B05G/PonvBsNjNU33XuZafOjLRW
FE8dmfj8zQYjFOhudX9mt6n46hPpuJsYR3EMFIJbaijM0fvpOFjAGa4RrxlB99AZ
sQvcMiB5MXAysTZaqn98/1lWLMUOLHp0GyLq3fEi/I64J6y1002aga/Iq9k5JWU5
+ZM6kOZVhF8wr7nfXoLGHxQoC2rPFtWZH3C2Z5ptFdy7TKeMJtTLXHOApbp6c/h2
7YQAOrTyPm86fWDilK8Q2N8XcPO+E66G+PJvANBkURMZvP/+e7NEeYI6zk9Sn8sP
uFGo0wIDAQABo4IBazCCAWcwCQYDVR0TBAIwADAtBglghkgBhvhCAQ0EIBYeRWFz
eS1SU0EgR2VuZXJhdGVkIENlcnRpZmljYXRlMB0GA1UdDgQWBBR0Kv702wHz0iWm
rzTXdesM19mJajCB6QYDVR0jBIHhMIHegBTvOI0UUFinW02cF3L837msp1GwEKGB
uqSBtzCBtDELMAkGA1UEBhMCVVMxCzAJBgNVBAgTAkNBMRUwEwYDVQQHEwxTYW5G
cmFuY2lzY28xFTATBgNVBAoTDFBpeGdsbywgSW5jLjEQMA4GA1UECxMHVlBOLUNJ
RTEaMBgGA1UEAxMRdHVubmVsLnBpeGdsby5jb20xHDAaBgNVBCkTE0JhbGEgQ2hh
bmRyYXNla2FyYW4xHjAcBgkqhkiG9w0BCQEWD2JhbGFAcGl4Z2xvLmNvbYIJAKbb
xoOA5qB5MBMGA1UdJQQMMAoGCCsGAQUFBwMCMAsGA1UdDwQEAwIHgDANBgkqhkiG
9w0BAQUFAAOCAgEAn98MMJJmr8XCLuzx8223LgEXyz6nD9vw3JbcmQOPoRIIBza9
4RUKxce3i94NggOSgSgJmAIHjywi6IG6EgNdNYnu7EDo7vPAz5l151Bqecf//YQX
L/0gAh8cQ/J6sfzb9UPyXOqaqXLWobo4sPkuuB2+jVHGp7Hqx5kmXIC8ERq7qYCL
/3YXAOIx+5hF2DlVSe9ifMu6j5BCJr5mI1HO6ESEpULoldbTKkka3tjtwfAeG7yy
S5xCgdQ7CRV7AfvzeghtE+Q2ZenClHrjLavcHdROBKW5YCvgvbzZ4lOZKVD4iNp9
3jLFW0KAqp4aJW3+m6fZ5fJSwIEGdVklz8SSeFxT+IzSgPy9D4Q+nDkN7SSN3aPN
6Gu3EOt1gQ+QzVmMQpCI+DEmA3o/o3S3nC63rcGdIQqsSWynQcGhB8IS/pWeaOzl
jGX72utosAU6NeLDEAT33Mtcn+pSIzUYmLnjBU2c86HEkeAAdAdZVg+ptPnb3Jj9
koYvz3bd+HgI1RifSs+IE+CPwME37GjR0qA0OmEQSwTuPtQfgpVreo9qmGFqlGhg
n0uxT9o27Gk1ax1ctMyAZtIgn/+bjOqqgnK/OKE6yiZDz0bTOqBZ2C8AMDbasw2V
BIy223JDSAYjPm4Rw94W68NGEl7Lq8g9jZGssUShRnwhCUX+bowJ/SxWwR0=
-----END CERTIFICATE-----
