Certificate:
    Data:
        Version: 3 (0x2)
        Serial Number: 468 (0x1d4)
    Signature Algorithm: sha1WithRSAEncryption
        Issuer: C=US, ST=CA, L=SanFrancisco, O=Pixglo, Inc., OU=VPN-CIE, CN=tunnel.pixglo.com/name=Bala Chandrasekaran/emailAddress=bala@pixglo.com
        Validity
            Not Before: Feb 14 06:34:51 2018 GMT
            Not After : Feb 12 06:34:51 2028 GMT
        Subject: C=US, ST=CA, L=SanFrancisco, O=Pixglo, Inc., OU=VPN-CIE, CN=cie467/name=Bala Chandrasekaran/emailAddress=bala@pixglo.com
        Subject Public Key Info:
            Public Key Algorithm: rsaEncryption
                Public-Key: (4096 bit)
                Modulus:
                    00:b2:53:ad:0b:06:b1:c1:d7:41:38:11:5f:10:6d:
                    1a:e7:e0:de:8b:35:b2:7b:83:51:b5:ee:00:00:79:
                    e4:09:bd:9d:2d:03:02:24:a3:c0:b9:28:30:cf:d4:
                    be:8c:34:d7:b7:6c:88:99:6e:93:c9:9b:35:b7:1d:
                    4a:1c:e7:9c:5f:a1:eb:59:49:a0:10:96:1a:0e:f1:
                    89:ef:a6:70:19:85:03:e8:24:6b:84:78:b2:3b:c0:
                    81:f9:51:97:a4:19:9a:07:6d:85:6e:2e:63:11:1d:
                    de:f7:07:7a:f6:61:02:ff:3c:1d:ef:70:28:3d:27:
                    4f:99:f4:83:af:2a:cd:6d:cc:df:bc:8f:6f:b7:17:
                    d8:a3:2b:4c:9e:76:3d:6c:a4:98:10:ce:69:e1:85:
                    9a:7a:76:b2:3e:af:d3:63:0c:5a:14:3d:b7:ba:18:
                    3d:c7:8c:43:91:03:52:1d:4b:1a:de:fd:d0:1b:da:
                    17:b0:b3:e4:45:72:79:62:c7:41:bd:79:74:99:05:
                    2c:80:70:36:3d:a6:db:8f:37:eb:fc:84:3d:3c:5e:
                    c5:29:2a:39:9a:f6:1c:11:53:02:e1:e7:b8:22:63:
                    ee:55:04:cd:96:c1:62:d1:63:12:da:41:a9:5a:27:
                    ae:dc:12:ae:f0:92:0d:72:4b:02:4f:30:4f:43:4f:
                    88:65:4f:da:ed:f7:12:04:42:7b:2c:87:c9:2a:bb:
                    78:98:5a:92:73:da:f6:80:75:16:f6:31:f7:ec:14:
                    dd:42:83:1b:36:45:57:3a:b1:f4:bf:7f:27:9b:1c:
                    c8:32:3f:36:aa:11:90:6d:03:11:82:fe:28:23:fa:
                    69:9a:6a:93:b3:50:83:97:0e:60:0d:87:37:00:71:
                    a9:6a:ad:33:5a:f6:89:1c:5c:56:53:c5:04:bb:00:
                    9e:81:b1:ad:67:83:00:59:04:2f:93:87:91:bf:c4:
                    99:c5:7c:a4:36:20:96:fa:34:c5:3d:ee:95:ec:81:
                    68:4a:11:3a:62:88:f1:45:1b:fe:d6:dc:be:e6:57:
                    79:67:e9:70:6c:a4:d6:07:53:bd:da:d3:9f:e4:b2:
                    b6:d9:8f:e6:00:eb:9c:c0:96:39:b3:f5:79:73:d9:
                    4d:26:47:01:eb:4f:cb:43:ea:79:f9:64:0b:f0:64:
                    b0:a6:13:91:e2:35:89:37:8f:93:25:d7:66:6d:c5:
                    49:95:ea:1e:2c:ee:f5:1a:07:3e:20:eb:ce:14:56:
                    a8:81:4e:2b:bf:b2:f6:c1:e2:97:1e:78:fc:ab:81:
                    f9:ca:58:5e:bf:26:57:3f:32:06:71:4e:1a:a5:f9:
                    e9:3a:3b:95:d4:1e:63:e9:a9:83:61:1c:b8:4c:f7:
                    c8:f2:8b
                Exponent: 65537 (0x10001)
        X509v3 extensions:
            X509v3 Basic Constraints: 
                CA:FALSE
            Netscape Comment: 
                Easy-RSA Generated Certificate
            X509v3 Subject Key Identifier: 
                43:47:F9:13:13:C3:94:AA:EF:F7:90:DC:D8:85:34:8E:8E:A6:34:FC
            X509v3 Authority Key Identifier: 
                keyid:EF:38:8D:14:50:58:A7:5B:4D:9C:17:72:FC:DF:B9:AC:A7:51:B0:10
                DirName:/C=US/ST=CA/L=SanFrancisco/O=Pixglo, Inc./OU=VPN-CIE/CN=tunnel.pixglo.com/name=Bala Chandrasekaran/emailAddress=bala@pixglo.com
                serial:A6:DB:C6:83:80:E6:A0:79

            X509v3 Extended Key Usage: 
                TLS Web Client Authentication
            X509v3 Key Usage: 
                Digital Signature
    Signature Algorithm: sha1WithRSAEncryption
         a8:71:87:3a:c0:0a:2d:92:1e:f5:2a:d1:3c:b7:f3:53:a0:d0:
         b3:fe:6a:72:84:d9:1c:0a:74:fe:b5:a4:cf:06:3c:6b:68:0e:
         a1:93:6d:7e:a9:2f:81:ed:67:3b:60:e2:4b:bf:90:94:36:e2:
         bc:7a:23:9f:c2:91:da:cb:96:fb:b3:e4:0d:15:97:1f:5b:f4:
         07:58:1a:a1:8c:a0:f7:04:e5:48:e4:05:96:35:e1:8f:d7:68:
         7d:18:5f:ab:d3:21:e0:ea:02:18:ef:f0:42:1c:29:f0:d9:4c:
         ae:cf:08:8e:4b:52:b6:17:30:40:38:39:54:13:f5:06:e5:32:
         03:4b:08:9e:6e:53:81:4e:52:4b:16:00:d5:14:f7:41:4d:ac:
         fd:af:27:12:ff:db:4d:b8:af:06:a0:b2:ea:4b:1f:1a:db:af:
         44:41:28:13:db:79:df:8d:93:21:11:d8:07:52:f4:9d:31:ee:
         0f:72:eb:28:8a:8e:4d:da:5a:6c:1c:9b:83:b9:4e:3d:b0:07:
         18:1c:a0:40:20:79:5b:d2:57:9f:68:e6:d5:9f:8a:e0:c5:ca:
         93:df:01:07:0d:3b:c4:c3:4e:5e:1d:1e:e9:24:38:03:55:5d:
         34:19:94:d9:ce:c1:6a:8a:fb:bd:0f:e3:48:4f:78:e2:82:33:
         54:b0:bc:0d:15:9b:bf:c1:f0:53:9e:9e:50:a4:33:9f:f8:05:
         27:71:3f:d0:b3:46:c9:02:ef:2a:ac:a0:df:b7:ef:24:2a:1b:
         92:30:bb:b0:35:29:04:d5:95:ee:dd:cd:40:f9:58:2c:e6:a5:
         78:3d:f8:c0:39:01:d5:b9:61:96:07:26:06:cf:0b:15:8d:13:
         d1:f2:14:ab:f9:ac:73:fe:9d:15:2e:43:b4:b2:dd:4c:00:9f:
         c2:35:7e:73:5e:cd:48:29:98:f7:4b:5c:a2:b6:8f:26:f7:b2:
         c3:2c:90:75:56:cc:3b:4a:87:ee:34:17:d5:5a:f0:cd:ee:a0:
         a7:9e:eb:26:a3:22:34:b4:d4:47:7c:77:63:85:75:74:f1:e9:
         72:b3:e6:00:16:13:ce:37:53:b3:8e:84:62:b5:2e:9e:9f:01:
         46:e3:cd:a4:5e:22:01:5c:04:af:0a:7c:7f:58:3f:89:8d:4a:
         60:fc:79:03:4d:53:6e:84:2d:c0:48:f8:91:a2:ea:0f:44:e8:
         6d:af:56:f8:71:7a:c8:b6:7f:df:72:8f:3b:56:5e:81:7a:40:
         38:fb:44:71:f2:7f:3f:f4:35:c4:18:e1:dd:b1:e8:df:2c:4d:
         d8:a6:cd:45:c7:c6:5d:a9:4d:d4:a5:cf:01:3a:06:db:24:e8:
         14:c5:e6:dc:de:68:fb:6b
-----BEGIN CERTIFICATE-----
MIIHSDCCBTCgAwIBAgICAdQwDQYJKoZIhvcNAQEFBQAwgbQxCzAJBgNVBAYTAlVT
MQswCQYDVQQIEwJDQTEVMBMGA1UEBxMMU2FuRnJhbmNpc2NvMRUwEwYDVQQKEwxQ
aXhnbG8sIEluYy4xEDAOBgNVBAsTB1ZQTi1DSUUxGjAYBgNVBAMTEXR1bm5lbC5w
aXhnbG8uY29tMRwwGgYDVQQpExNCYWxhIENoYW5kcmFzZWthcmFuMR4wHAYJKoZI
hvcNAQkBFg9iYWxhQHBpeGdsby5jb20wHhcNMTgwMjE0MDYzNDUxWhcNMjgwMjEy
MDYzNDUxWjCBqTELMAkGA1UEBhMCVVMxCzAJBgNVBAgTAkNBMRUwEwYDVQQHEwxT
YW5GcmFuY2lzY28xFTATBgNVBAoTDFBpeGdsbywgSW5jLjEQMA4GA1UECxMHVlBO
LUNJRTEPMA0GA1UEAxMGY2llNDY3MRwwGgYDVQQpExNCYWxhIENoYW5kcmFzZWth
cmFuMR4wHAYJKoZIhvcNAQkBFg9iYWxhQHBpeGdsby5jb20wggIiMA0GCSqGSIb3
DQEBAQUAA4ICDwAwggIKAoICAQCyU60LBrHB10E4EV8QbRrn4N6LNbJ7g1G17gAA
eeQJvZ0tAwIko8C5KDDP1L6MNNe3bIiZbpPJmzW3HUoc55xfoetZSaAQlhoO8Ynv
pnAZhQPoJGuEeLI7wIH5UZekGZoHbYVuLmMRHd73B3r2YQL/PB3vcCg9J0+Z9IOv
Ks1tzN+8j2+3F9ijK0yedj1spJgQzmnhhZp6drI+r9NjDFoUPbe6GD3HjEORA1Id
Sxre/dAb2hews+RFcnlix0G9eXSZBSyAcDY9ptuPN+v8hD08XsUpKjma9hwRUwLh
57giY+5VBM2WwWLRYxLaQalaJ67cEq7wkg1ySwJPME9DT4hlT9rt9xIEQnssh8kq
u3iYWpJz2vaAdRb2MffsFN1Cgxs2RVc6sfS/fyebHMgyPzaqEZBtAxGC/igj+mma
apOzUIOXDmANhzcAcalqrTNa9okcXFZTxQS7AJ6Bsa1ngwBZBC+Th5G/xJnFfKQ2
IJb6NMU97pXsgWhKETpiiPFFG/7W3L7mV3ln6XBspNYHU73a05/ksrbZj+YA65zA
ljmz9Xlz2U0mRwHrT8tD6nn5ZAvwZLCmE5HiNYk3j5Ml12ZtxUmV6h4s7vUaBz4g
684UVqiBTiu/svbB4pceePyrgfnKWF6/Jlc/MgZxThql+ek6O5XUHmPpqYNhHLhM
98jyiwIDAQABo4IBazCCAWcwCQYDVR0TBAIwADAtBglghkgBhvhCAQ0EIBYeRWFz
eS1SU0EgR2VuZXJhdGVkIENlcnRpZmljYXRlMB0GA1UdDgQWBBRDR/kTE8OUqu/3
kNzYhTSOjqY0/DCB6QYDVR0jBIHhMIHegBTvOI0UUFinW02cF3L837msp1GwEKGB
uqSBtzCBtDELMAkGA1UEBhMCVVMxCzAJBgNVBAgTAkNBMRUwEwYDVQQHEwxTYW5G
cmFuY2lzY28xFTATBgNVBAoTDFBpeGdsbywgSW5jLjEQMA4GA1UECxMHVlBOLUNJ
RTEaMBgGA1UEAxMRdHVubmVsLnBpeGdsby5jb20xHDAaBgNVBCkTE0JhbGEgQ2hh
bmRyYXNla2FyYW4xHjAcBgkqhkiG9w0BCQEWD2JhbGFAcGl4Z2xvLmNvbYIJAKbb
xoOA5qB5MBMGA1UdJQQMMAoGCCsGAQUFBwMCMAsGA1UdDwQEAwIHgDANBgkqhkiG
9w0BAQUFAAOCAgEAqHGHOsAKLZIe9SrRPLfzU6DQs/5qcoTZHAp0/rWkzwY8a2gO
oZNtfqkvge1nO2DiS7+QlDbivHojn8KR2suW+7PkDRWXH1v0B1gaoYyg9wTlSOQF
ljXhj9dofRhfq9Mh4OoCGO/wQhwp8NlMrs8IjktSthcwQDg5VBP1BuUyA0sInm5T
gU5SSxYA1RT3QU2s/a8nEv/bTbivBqCy6ksfGtuvREEoE9t5342TIRHYB1L0nTHu
D3LrKIqOTdpabBybg7lOPbAHGBygQCB5W9JXn2jm1Z+K4MXKk98BBw07xMNOXh0e
6SQ4A1VdNBmU2c7Baor7vQ/jSE944oIzVLC8DRWbv8HwU56eUKQzn/gFJ3E/0LNG
yQLvKqyg37fvJCobkjC7sDUpBNWV7t3NQPlYLOaleD34wDkB1blhlgcmBs8LFY0T
0fIUq/msc/6dFS5DtLLdTACfwjV+c17NSCmY90tcoraPJveywyyQdVbMO0qH7jQX
1Vrwze6gp57rJqMiNLTUR3x3Y4V1dPHpcrPmABYTzjdTs46EYrUunp8BRuPNpF4i
AVwErwp8f1g/iY1KYPx5A01TboQtwEj4kaLqD0Toba9W+HF6yLZ/33KPO1ZegXpA
OPtEcfJ/P/Q1xBjh3bHo3yxN2KbNRcfGXalN1KXPAToG2yToFMXm3N5o+2s=
-----END CERTIFICATE-----
