Certificate:
    Data:
        Version: 3 (0x2)
        Serial Number: 469 (0x1d5)
    Signature Algorithm: sha1WithRSAEncryption
        Issuer: C=US, ST=CA, L=SanFrancisco, O=Pixglo, Inc., OU=VPN-CIE, CN=tunnel.pixglo.com/name=Bala Chandrasekaran/emailAddress=bala@pixglo.com
        Validity
            Not Before: Feb 14 06:34:52 2018 GMT
            Not After : Feb 12 06:34:52 2028 GMT
        Subject: C=US, ST=CA, L=SanFrancisco, O=Pixglo, Inc., OU=VPN-CIE, CN=cie468/name=Bala Chandrasekaran/emailAddress=bala@pixglo.com
        Subject Public Key Info:
            Public Key Algorithm: rsaEncryption
                Public-Key: (4096 bit)
                Modulus:
                    00:b1:74:54:91:fb:08:4d:ec:6b:bd:33:5b:e2:b8:
                    b9:e5:b0:78:46:9c:24:53:56:68:dc:4f:ff:e3:07:
                    1b:03:3b:2e:56:56:e2:16:95:36:b7:a0:92:2a:25:
                    1b:a2:9b:af:b7:8b:53:93:75:c5:bc:ea:40:9b:ac:
                    a2:d6:b3:d6:d5:0d:ee:f0:39:48:a6:ad:81:56:2d:
                    06:a3:b9:1e:dc:15:eb:4f:3a:e4:c5:1f:f4:6e:37:
                    ed:b8:b2:75:9d:9a:df:7b:52:21:70:15:b5:a8:fd:
                    6e:38:58:d6:fe:9a:ab:c8:e2:2b:a3:f2:47:d8:25:
                    74:c3:bb:04:57:7d:f5:51:26:ae:99:d0:03:02:fe:
                    ca:b9:d1:70:0d:10:a5:b9:01:9d:fa:49:eb:12:4b:
                    dc:5d:06:bd:b7:ac:cf:99:66:ac:83:9a:5b:79:a1:
                    59:35:6f:b7:ca:28:37:64:85:7e:ad:f6:68:0c:3c:
                    f1:6e:7b:64:08:a8:53:3d:c4:b1:55:ed:1b:20:0f:
                    b2:09:66:72:78:34:4e:fe:a3:8e:67:b3:37:ea:ff:
                    92:f7:77:5a:48:dc:95:c3:7b:b7:0f:95:7a:e6:05:
                    e6:d2:c4:f9:54:d6:49:3d:ed:76:ee:d0:e1:1d:37:
                    54:0f:42:61:6b:00:5d:0f:50:29:d9:39:c0:1d:f2:
                    94:1c:5d:e7:58:a0:64:3d:bb:c5:b4:90:cf:cc:d8:
                    09:01:c4:2a:ea:0d:04:29:6a:77:7c:78:af:5d:93:
                    7b:25:51:57:64:85:0c:1e:06:64:a9:55:af:02:5d:
                    35:58:2c:18:0d:4a:3c:24:10:45:7c:80:8b:95:57:
                    31:6e:1d:70:b3:b2:ad:de:c4:4f:81:ef:9f:ce:aa:
                    33:14:c0:3a:75:66:d5:82:52:a3:df:81:bf:b8:48:
                    b7:40:7d:1b:5a:05:7a:cf:bc:aa:d7:e3:fb:89:df:
                    c5:4f:d3:e9:d3:b0:a6:61:cf:67:87:1d:f2:5f:c6:
                    85:e6:47:c4:2a:39:bd:34:df:3b:7d:53:07:19:15:
                    e4:8a:9c:e5:28:9c:0e:33:a8:b4:be:44:c0:e4:c1:
                    7f:96:e6:31:37:81:84:c4:bb:fd:4a:f8:46:6b:f1:
                    c9:91:2d:ca:f3:0d:e1:51:3d:e6:51:41:5d:fd:e6:
                    8a:d2:38:e3:21:32:14:ba:ce:a4:52:87:28:26:23:
                    c8:98:a7:a4:fb:39:b9:2a:9d:45:bc:a3:12:a1:65:
                    b5:69:8a:1c:c6:1c:60:a4:99:d0:be:09:d2:52:9b:
                    14:f3:83:b7:46:22:c3:82:21:bd:5f:bc:1f:99:df:
                    33:f0:86:28:33:64:52:b4:df:65:5f:27:84:f8:43:
                    5f:89:01
                Exponent: 65537 (0x10001)
        X509v3 extensions:
            X509v3 Basic Constraints: 
                CA:FALSE
            Netscape Comment: 
                Easy-RSA Generated Certificate
            X509v3 Subject Key Identifier: 
                58:93:A4:90:1A:D4:1C:04:25:87:EF:C8:38:88:5D:C5:F9:F3:55:93
            X509v3 Authority Key Identifier: 
                keyid:EF:38:8D:14:50:58:A7:5B:4D:9C:17:72:FC:DF:B9:AC:A7:51:B0:10
                DirName:/C=US/ST=CA/L=SanFrancisco/O=Pixglo, Inc./OU=VPN-CIE/CN=tunnel.pixglo.com/name=Bala Chandrasekaran/emailAddress=bala@pixglo.com
                serial:A6:DB:C6:83:80:E6:A0:79

            X509v3 Extended Key Usage: 
                TLS Web Client Authentication
            X509v3 Key Usage: 
                Digital Signature
    Signature Algorithm: sha1WithRSAEncryption
         1b:5c:b8:45:81:33:e0:7b:f6:43:a8:3b:3c:4a:f0:23:be:ce:
         bb:c5:db:4c:e9:90:7e:e6:bf:55:db:d7:9e:4e:46:37:f0:f2:
         5b:a4:9c:0b:d1:f8:25:ef:5a:55:68:40:bb:ec:44:fd:51:44:
         ad:73:56:98:f5:b1:3b:52:61:ed:10:19:d3:07:30:cd:08:48:
         5b:2a:98:30:58:94:68:d3:12:29:52:9f:a1:77:ce:7e:01:e5:
         ac:7b:36:f9:5e:53:b8:e2:41:c5:13:89:e0:1a:c3:ad:71:b1:
         44:ca:0c:5c:44:1d:41:38:45:d8:74:97:61:9d:78:1e:69:39:
         d9:98:c8:6f:6d:35:a3:7e:2a:7d:3c:ba:4a:ae:fa:35:53:4e:
         20:85:98:0a:65:9b:ec:db:9c:ea:59:b8:90:4a:11:9b:91:2a:
         c4:d2:49:9f:ac:69:2d:32:8b:ea:79:44:ef:1c:0d:92:d3:d6:
         58:ec:98:e8:2d:81:d4:2f:b3:5f:e8:b9:5d:7b:2a:af:f8:b4:
         7a:86:5e:64:82:66:45:39:cf:33:fa:a8:b4:dd:43:0b:05:93:
         f6:18:c7:b0:a0:a6:4c:6f:3d:5f:43:73:e4:7b:d3:86:72:54:
         10:b8:ea:e4:8c:a3:2c:d4:a7:e8:2b:d8:3e:96:76:9f:7f:4f:
         36:10:af:ee:0a:8d:c3:5c:4c:ae:06:51:7a:56:b6:dd:0b:27:
         82:17:3e:5b:1f:e2:bb:8d:7f:56:2c:12:9a:a4:b2:09:db:25:
         fa:e4:60:3a:02:58:8b:ca:99:f9:43:1b:c1:23:e2:93:96:8c:
         79:83:f2:ce:00:ab:75:60:93:b7:3a:6b:3f:9e:c7:bd:23:c3:
         d8:47:41:fc:45:78:32:ea:18:33:a8:67:b9:df:88:09:51:61:
         26:fd:5e:8b:0a:08:1b:dc:9e:e0:42:26:03:e0:dd:2d:4a:d7:
         ba:70:09:f6:e2:26:f6:b3:b0:a7:3b:6c:3d:c6:c5:6c:7e:ac:
         ba:70:f2:fd:12:a9:f3:8d:d8:29:93:4f:d6:b8:ef:30:bd:3e:
         07:5a:41:d6:1e:8a:fb:3f:7a:0b:73:10:02:c8:09:29:c9:f8:
         3c:0e:bc:c1:fa:ef:47:da:d7:c7:5e:e6:83:0c:01:68:f2:bf:
         36:88:9f:a5:d5:3d:01:51:e7:bb:8e:14:0d:b4:1e:9e:93:44:
         36:25:17:14:b1:26:ad:cd:e1:2c:d3:18:e7:c2:33:86:db:4b:
         21:92:d5:23:00:6b:c0:b7:c1:ec:4c:e3:75:24:6b:79:e4:3e:
         cc:e2:c8:5e:b2:f4:35:fb:bd:99:36:e4:61:77:d0:66:ac:ee:
         f7:12:94:c8:db:5e:0b:77
-----BEGIN CERTIFICATE-----
MIIHSDCCBTCgAwIBAgICAdUwDQYJKoZIhvcNAQEFBQAwgbQxCzAJBgNVBAYTAlVT
MQswCQYDVQQIEwJDQTEVMBMGA1UEBxMMU2FuRnJhbmNpc2NvMRUwEwYDVQQKEwxQ
aXhnbG8sIEluYy4xEDAOBgNVBAsTB1ZQTi1DSUUxGjAYBgNVBAMTEXR1bm5lbC5w
aXhnbG8uY29tMRwwGgYDVQQpExNCYWxhIENoYW5kcmFzZWthcmFuMR4wHAYJKoZI
hvcNAQkBFg9iYWxhQHBpeGdsby5jb20wHhcNMTgwMjE0MDYzNDUyWhcNMjgwMjEy
MDYzNDUyWjCBqTELMAkGA1UEBhMCVVMxCzAJBgNVBAgTAkNBMRUwEwYDVQQHEwxT
YW5GcmFuY2lzY28xFTATBgNVBAoTDFBpeGdsbywgSW5jLjEQMA4GA1UECxMHVlBO
LUNJRTEPMA0GA1UEAxMGY2llNDY4MRwwGgYDVQQpExNCYWxhIENoYW5kcmFzZWth
cmFuMR4wHAYJKoZIhvcNAQkBFg9iYWxhQHBpeGdsby5jb20wggIiMA0GCSqGSIb3
DQEBAQUAA4ICDwAwggIKAoICAQCxdFSR+whN7Gu9M1viuLnlsHhGnCRTVmjcT//j
BxsDOy5WVuIWlTa3oJIqJRuim6+3i1OTdcW86kCbrKLWs9bVDe7wOUimrYFWLQaj
uR7cFetPOuTFH/RuN+24snWdmt97UiFwFbWo/W44WNb+mqvI4iuj8kfYJXTDuwRX
ffVRJq6Z0AMC/sq50XANEKW5AZ36SesSS9xdBr23rM+ZZqyDmlt5oVk1b7fKKDdk
hX6t9mgMPPFue2QIqFM9xLFV7RsgD7IJZnJ4NE7+o45nszfq/5L3d1pI3JXDe7cP
lXrmBebSxPlU1kk97Xbu0OEdN1QPQmFrAF0PUCnZOcAd8pQcXedYoGQ9u8W0kM/M
2AkBxCrqDQQpand8eK9dk3slUVdkhQweBmSpVa8CXTVYLBgNSjwkEEV8gIuVVzFu
HXCzsq3exE+B75/OqjMUwDp1ZtWCUqPfgb+4SLdAfRtaBXrPvKrX4/uJ38VP0+nT
sKZhz2eHHfJfxoXmR8QqOb003zt9UwcZFeSKnOUonA4zqLS+RMDkwX+W5jE3gYTE
u/1K+EZr8cmRLcrzDeFRPeZRQV395orSOOMhMhS6zqRShygmI8iYp6T7ObkqnUW8
oxKhZbVpihzGHGCkmdC+CdJSmxTzg7dGIsOCIb1fvB+Z3zPwhigzZFK032VfJ4T4
Q1+JAQIDAQABo4IBazCCAWcwCQYDVR0TBAIwADAtBglghkgBhvhCAQ0EIBYeRWFz
eS1SU0EgR2VuZXJhdGVkIENlcnRpZmljYXRlMB0GA1UdDgQWBBRYk6SQGtQcBCWH
78g4iF3F+fNVkzCB6QYDVR0jBIHhMIHegBTvOI0UUFinW02cF3L837msp1GwEKGB
uqSBtzCBtDELMAkGA1UEBhMCVVMxCzAJBgNVBAgTAkNBMRUwEwYDVQQHEwxTYW5G
cmFuY2lzY28xFTATBgNVBAoTDFBpeGdsbywgSW5jLjEQMA4GA1UECxMHVlBOLUNJ
RTEaMBgGA1UEAxMRdHVubmVsLnBpeGdsby5jb20xHDAaBgNVBCkTE0JhbGEgQ2hh
bmRyYXNla2FyYW4xHjAcBgkqhkiG9w0BCQEWD2JhbGFAcGl4Z2xvLmNvbYIJAKbb
xoOA5qB5MBMGA1UdJQQMMAoGCCsGAQUFBwMCMAsGA1UdDwQEAwIHgDANBgkqhkiG
9w0BAQUFAAOCAgEAG1y4RYEz4Hv2Q6g7PErwI77Ou8XbTOmQfua/VdvXnk5GN/Dy
W6ScC9H4Je9aVWhAu+xE/VFErXNWmPWxO1Jh7RAZ0wcwzQhIWyqYMFiUaNMSKVKf
oXfOfgHlrHs2+V5TuOJBxROJ4BrDrXGxRMoMXEQdQThF2HSXYZ14Hmk52ZjIb201
o34qfTy6Sq76NVNOIIWYCmWb7Nuc6lm4kEoRm5EqxNJJn6xpLTKL6nlE7xwNktPW
WOyY6C2B1C+zX+i5XXsqr/i0eoZeZIJmRTnPM/qotN1DCwWT9hjHsKCmTG89X0Nz
5HvThnJUELjq5IyjLNSn6CvYPpZ2n39PNhCv7gqNw1xMrgZRela23Qsnghc+Wx/i
u41/ViwSmqSyCdsl+uRgOgJYi8qZ+UMbwSPik5aMeYPyzgCrdWCTtzprP57HvSPD
2EdB/EV4MuoYM6hnud+ICVFhJv1eiwoIG9ye4EImA+DdLUrXunAJ9uIm9rOwpzts
PcbFbH6sunDy/RKp843YKZNP1rjvML0+B1pB1h6K+z96C3MQAsgJKcn4PA68wfrv
R9rXx17mgwwBaPK/NoifpdU9AVHnu44UDbQenpNENiUXFLEmrc3hLNMY58IzhttL
IZLVIwBrwLfB7EzjdSRreeQ+zOLIXrL0Nfu9mTbkYXfQZqzu9xKUyNteC3c=
-----END CERTIFICATE-----
