Certificate:
    Data:
        Version: 3 (0x2)
        Serial Number: 450 (0x1c2)
    Signature Algorithm: sha1WithRSAEncryption
        Issuer: C=US, ST=CA, L=SanFrancisco, O=Pixglo, Inc., OU=VPN-CIE, CN=tunnel.pixglo.com/name=Bala Chandrasekaran/emailAddress=bala@pixglo.com
        Validity
            Not Before: Feb 14 06:34:20 2018 GMT
            Not After : Feb 12 06:34:20 2028 GMT
        Subject: C=US, ST=CA, L=SanFrancisco, O=Pixglo, Inc., OU=VPN-CIE, CN=cie449/name=Bala Chandrasekaran/emailAddress=bala@pixglo.com
        Subject Public Key Info:
            Public Key Algorithm: rsaEncryption
                Public-Key: (4096 bit)
                Modulus:
                    00:e1:e7:93:19:eb:6f:eb:d4:22:86:f9:57:27:96:
                    aa:83:b2:72:df:e5:83:af:25:f6:f3:eb:5f:e8:a7:
                    32:8a:d2:98:7b:56:fd:0f:57:7b:7b:49:3c:ee:d7:
                    cc:57:48:82:b2:6b:02:b1:13:ff:af:cd:cb:2a:60:
                    52:ce:fb:9c:79:0b:e5:70:bc:d0:12:33:e0:cc:60:
                    6c:1e:28:6b:40:f4:0e:16:13:12:fe:d4:90:43:6a:
                    83:67:e6:0e:e3:f2:38:42:8f:59:62:3b:ad:51:e2:
                    4f:28:e2:3c:49:22:a4:56:49:93:42:61:1a:12:ad:
                    13:0d:ad:a1:c6:7d:5e:c2:5f:11:e0:eb:28:ce:15:
                    d5:b6:49:77:f9:38:5a:93:20:93:ed:4a:65:ba:3d:
                    fd:47:6c:9e:88:f4:4c:7c:4a:55:ad:e6:12:71:01:
                    30:13:bc:85:5a:07:c9:c1:76:9c:a7:86:7a:e3:b4:
                    ed:98:d3:a4:1b:60:25:f8:e2:06:c8:f2:b0:12:c5:
                    65:10:10:dd:1f:04:9c:1e:bd:34:24:70:41:66:db:
                    57:45:32:97:dc:32:82:dd:7d:08:a0:ea:d5:25:7e:
                    df:10:d8:df:5d:43:d5:fe:2a:93:b3:45:04:d9:e3:
                    02:18:fa:6e:c3:4f:95:08:8d:17:09:64:06:20:d6:
                    f9:87:9e:61:a9:55:5e:f2:cd:03:e9:26:7e:13:e2:
                    77:bc:3b:51:91:2b:80:bb:11:0c:97:ea:82:0e:ca:
                    03:0e:85:38:5e:3a:d2:ef:81:6d:52:1e:0f:d7:12:
                    f3:cf:17:92:9e:7c:83:6d:46:00:96:aa:43:a6:5c:
                    23:29:a0:9c:87:94:06:a0:f0:e5:b2:aa:77:42:6c:
                    74:a8:60:07:31:4f:06:18:53:81:41:5e:dc:3b:eb:
                    33:b1:5e:b7:50:b9:33:a9:aa:84:88:99:07:f2:22:
                    2c:81:41:6a:b6:52:36:f9:fe:66:b3:55:e0:aa:e1:
                    1d:73:be:fd:27:7a:8f:75:86:a8:3d:6d:b3:f8:d3:
                    2c:33:6d:50:22:f0:a3:13:bd:97:a1:f8:7f:15:73:
                    cb:2f:ee:06:8f:0d:72:b8:3a:db:6f:68:73:87:3d:
                    78:47:2c:81:c3:21:fe:1b:3b:57:8e:3d:ce:64:dc:
                    69:2d:fc:0f:7f:6b:af:6c:1b:14:a8:25:77:bc:40:
                    ba:d0:02:73:87:aa:3c:c8:bd:bb:fb:18:0d:9a:f5:
                    ed:22:89:04:27:00:46:41:38:8b:e4:29:8c:c4:f5:
                    dd:c3:c4:f4:61:7e:b5:20:1b:73:bb:52:84:56:0d:
                    f1:ef:50:64:8d:29:0d:5f:1d:60:af:f5:fa:37:26:
                    89:a8:dd
                Exponent: 65537 (0x10001)
        X509v3 extensions:
            X509v3 Basic Constraints: 
                CA:FALSE
            Netscape Comment: 
                Easy-RSA Generated Certificate
            X509v3 Subject Key Identifier: 
                E0:A2:97:6C:E3:33:3F:C4:48:C0:51:F0:B1:5A:02:1C:C2:6C:57:FE
            X509v3 Authority Key Identifier: 
                keyid:EF:38:8D:14:50:58:A7:5B:4D:9C:17:72:FC:DF:B9:AC:A7:51:B0:10
                DirName:/C=US/ST=CA/L=SanFrancisco/O=Pixglo, Inc./OU=VPN-CIE/CN=tunnel.pixglo.com/name=Bala Chandrasekaran/emailAddress=bala@pixglo.com
                serial:A6:DB:C6:83:80:E6:A0:79

            X509v3 Extended Key Usage: 
                TLS Web Client Authentication
            X509v3 Key Usage: 
                Digital Signature
    Signature Algorithm: sha1WithRSAEncryption
         03:ab:6c:e5:92:60:02:9c:e7:ef:71:57:a0:8e:8e:c1:eb:bb:
         d1:47:78:c0:e4:cc:86:af:0a:67:e7:11:1f:e6:7f:d1:58:5a:
         90:43:e8:b6:38:af:f3:cc:25:7f:6d:b7:fa:d2:60:73:9b:39:
         b1:f5:45:f7:17:cb:c6:7e:5d:66:f1:a5:3d:d0:7c:63:42:7d:
         17:99:cf:c9:7b:73:4d:bb:e3:db:dc:04:63:5e:3c:45:87:a5:
         48:6f:39:29:f6:15:34:26:b4:33:09:b9:98:72:44:2a:e8:3d:
         f3:bb:41:d2:eb:5c:3e:43:c7:d9:06:d1:19:f8:cc:08:11:ce:
         ba:0d:0b:50:25:f0:a6:6c:b5:e4:e7:ba:d2:7f:01:ed:bd:1c:
         09:a7:7f:50:53:fd:5f:31:61:3d:26:0c:2f:87:46:06:92:2e:
         88:ff:e7:99:f2:53:d8:36:6f:3f:bb:92:1e:f1:15:fb:85:a4:
         b8:e6:d2:63:59:be:76:67:7b:b4:9a:bf:28:fa:d9:44:44:e8:
         26:be:7d:0a:35:3c:06:f7:11:a6:e1:24:44:fa:ff:49:5b:9b:
         a5:4d:3b:13:1e:8b:c0:5d:19:e0:c1:8e:8d:d3:b3:b4:c2:b9:
         1b:26:d9:cb:5a:95:82:32:1e:f0:bb:71:5b:09:0f:32:39:34:
         f5:3a:1e:c7:89:f8:e6:64:be:7e:2e:d1:b2:5f:18:5a:62:7f:
         be:0e:34:8a:54:bb:b6:a0:3f:9f:29:d0:32:b6:c2:d2:b7:09:
         14:84:58:ff:dd:4f:52:f3:6c:07:c4:dd:f3:40:e1:ea:c4:37:
         65:4b:94:aa:09:e7:3b:3d:a3:86:0c:08:6e:9b:c9:a4:1c:4b:
         6f:d5:12:b1:e6:21:8e:ce:a7:1c:08:d9:ac:93:f2:13:49:78:
         ab:2f:70:13:b1:d2:bb:a7:5f:e2:3b:7b:e2:5d:9d:12:57:f7:
         27:cf:ba:76:37:21:6e:46:54:db:da:17:d5:9e:df:a4:e2:ae:
         1c:78:45:fe:0f:5e:5a:04:7c:8b:c1:29:40:57:a0:ee:6d:15:
         8a:09:65:b6:51:30:0e:0b:86:7c:f3:0a:d1:b6:bf:ae:4c:ee:
         20:7c:0b:e8:0f:db:b7:93:1c:62:71:9e:7f:f8:c9:e0:f3:97:
         ad:6b:84:18:23:e9:c1:50:0f:4f:f5:d5:0d:0b:c1:6f:b9:e9:
         05:fe:3d:a0:52:ef:f5:50:3b:52:7a:fd:fe:c7:67:55:88:75:
         d3:9f:ef:97:ea:39:86:11:4c:59:dc:90:43:44:59:a6:fc:1b:
         7c:e2:3b:03:1f:51:b8:be:a1:3d:3d:87:9d:81:d5:8c:9b:b0:
         ed:66:5e:63:95:e7:4e:e4
-----BEGIN CERTIFICATE-----
MIIHSDCCBTCgAwIBAgICAcIwDQYJKoZIhvcNAQEFBQAwgbQxCzAJBgNVBAYTAlVT
MQswCQYDVQQIEwJDQTEVMBMGA1UEBxMMU2FuRnJhbmNpc2NvMRUwEwYDVQQKEwxQ
aXhnbG8sIEluYy4xEDAOBgNVBAsTB1ZQTi1DSUUxGjAYBgNVBAMTEXR1bm5lbC5w
aXhnbG8uY29tMRwwGgYDVQQpExNCYWxhIENoYW5kcmFzZWthcmFuMR4wHAYJKoZI
hvcNAQkBFg9iYWxhQHBpeGdsby5jb20wHhcNMTgwMjE0MDYzNDIwWhcNMjgwMjEy
MDYzNDIwWjCBqTELMAkGA1UEBhMCVVMxCzAJBgNVBAgTAkNBMRUwEwYDVQQHEwxT
YW5GcmFuY2lzY28xFTATBgNVBAoTDFBpeGdsbywgSW5jLjEQMA4GA1UECxMHVlBO
LUNJRTEPMA0GA1UEAxMGY2llNDQ5MRwwGgYDVQQpExNCYWxhIENoYW5kcmFzZWth
cmFuMR4wHAYJKoZIhvcNAQkBFg9iYWxhQHBpeGdsby5jb20wggIiMA0GCSqGSIb3
DQEBAQUAA4ICDwAwggIKAoICAQDh55MZ62/r1CKG+VcnlqqDsnLf5YOvJfbz61/o
pzKK0ph7Vv0PV3t7STzu18xXSIKyawKxE/+vzcsqYFLO+5x5C+VwvNASM+DMYGwe
KGtA9A4WExL+1JBDaoNn5g7j8jhCj1liO61R4k8o4jxJIqRWSZNCYRoSrRMNraHG
fV7CXxHg6yjOFdW2SXf5OFqTIJPtSmW6Pf1HbJ6I9Ex8SlWt5hJxATATvIVaB8nB
dpynhnrjtO2Y06QbYCX44gbI8rASxWUQEN0fBJwevTQkcEFm21dFMpfcMoLdfQig
6tUlft8Q2N9dQ9X+KpOzRQTZ4wIY+m7DT5UIjRcJZAYg1vmHnmGpVV7yzQPpJn4T
4ne8O1GRK4C7EQyX6oIOygMOhTheOtLvgW1SHg/XEvPPF5KefINtRgCWqkOmXCMp
oJyHlAag8OWyqndCbHSoYAcxTwYYU4FBXtw76zOxXrdQuTOpqoSImQfyIiyBQWq2
Ujb5/mazVeCq4R1zvv0neo91hqg9bbP40ywzbVAi8KMTvZeh+H8Vc8sv7gaPDXK4
OttvaHOHPXhHLIHDIf4bO1eOPc5k3Gkt/A9/a69sGxSoJXe8QLrQAnOHqjzIvbv7
GA2a9e0iiQQnAEZBOIvkKYzE9d3DxPRhfrUgG3O7UoRWDfHvUGSNKQ1fHWCv9fo3
Jomo3QIDAQABo4IBazCCAWcwCQYDVR0TBAIwADAtBglghkgBhvhCAQ0EIBYeRWFz
eS1SU0EgR2VuZXJhdGVkIENlcnRpZmljYXRlMB0GA1UdDgQWBBTgopds4zM/xEjA
UfCxWgIcwmxX/jCB6QYDVR0jBIHhMIHegBTvOI0UUFinW02cF3L837msp1GwEKGB
uqSBtzCBtDELMAkGA1UEBhMCVVMxCzAJBgNVBAgTAkNBMRUwEwYDVQQHEwxTYW5G
cmFuY2lzY28xFTATBgNVBAoTDFBpeGdsbywgSW5jLjEQMA4GA1UECxMHVlBOLUNJ
RTEaMBgGA1UEAxMRdHVubmVsLnBpeGdsby5jb20xHDAaBgNVBCkTE0JhbGEgQ2hh
bmRyYXNla2FyYW4xHjAcBgkqhkiG9w0BCQEWD2JhbGFAcGl4Z2xvLmNvbYIJAKbb
xoOA5qB5MBMGA1UdJQQMMAoGCCsGAQUFBwMCMAsGA1UdDwQEAwIHgDANBgkqhkiG
9w0BAQUFAAOCAgEAA6ts5ZJgApzn73FXoI6Oweu70Ud4wOTMhq8KZ+cRH+Z/0Vha
kEPotjiv88wlf223+tJgc5s5sfVF9xfLxn5dZvGlPdB8Y0J9F5nPyXtzTbvj29wE
Y148RYelSG85KfYVNCa0Mwm5mHJEKug987tB0utcPkPH2QbRGfjMCBHOug0LUCXw
pmy15Oe60n8B7b0cCad/UFP9XzFhPSYML4dGBpIuiP/nmfJT2DZvP7uSHvEV+4Wk
uObSY1m+dmd7tJq/KPrZREToJr59CjU8BvcRpuEkRPr/SVubpU07Ex6LwF0Z4MGO
jdOztMK5GybZy1qVgjIe8LtxWwkPMjk09Toex4n45mS+fi7Rsl8YWmJ/vg40ilS7
tqA/nynQMrbC0rcJFIRY/91PUvNsB8Td80Dh6sQ3ZUuUqgnnOz2jhgwIbpvJpBxL
b9USseYhjs6nHAjZrJPyE0l4qy9wE7HSu6df4jt74l2dElf3J8+6djchbkZU29oX
1Z7fpOKuHHhF/g9eWgR8i8EpQFeg7m0ViglltlEwDguGfPMK0ba/rkzuIHwL6A/b
t5McYnGef/jJ4POXrWuEGCPpwVAPT/XVDQvBb7npBf49oFLv9VA7Unr9/sdnVYh1
05/vl+o5hhFMWdyQQ0RZpvwbfOI7Ax9RuL6hPT2HnYHVjJuw7WZeY5XnTuQ=
-----END CERTIFICATE-----
