Certificate:
    Data:
        Version: 3 (0x2)
        Serial Number: 43 (0x2b)
    Signature Algorithm: sha1WithRSAEncryption
        Issuer: C=US, ST=CA, L=SanFrancisco, O=Pixglo, Inc., OU=VPN-CIE, CN=tunnel.pixglo.com/name=Bala Chandrasekaran/emailAddress=bala@pixglo.com
        Validity
            Not Before: Feb 14 06:24:43 2018 GMT
            Not After : Feb 12 06:24:43 2028 GMT
        Subject: C=US, ST=CA, L=SanFrancisco, O=Pixglo, Inc., OU=VPN-CIE, CN=cie42/name=Bala Chandrasekaran/emailAddress=bala@pixglo.com
        Subject Public Key Info:
            Public Key Algorithm: rsaEncryption
                Public-Key: (4096 bit)
                Modulus:
                    00:ae:94:93:78:ff:32:0d:77:8f:e8:18:cf:06:8e:
                    0c:17:1e:cb:ac:5b:62:57:78:b9:0f:a8:5d:c9:dc:
                    67:d5:13:4a:1f:95:3b:da:e2:38:0b:f2:4e:1a:5b:
                    71:79:26:6a:f5:b1:66:f1:95:ff:54:58:2d:93:26:
                    d6:d6:aa:e7:79:ef:6a:9b:86:47:6d:d2:b6:f8:c2:
                    f9:71:bc:62:b6:c6:eb:d5:24:c6:7e:3e:98:89:23:
                    c2:aa:de:58:c4:e9:28:96:f2:56:25:a3:e2:4c:0a:
                    6e:69:db:5d:8e:79:a8:3d:1a:07:20:03:85:2a:53:
                    20:a7:c8:c8:7e:54:e0:cd:2e:c3:d0:a8:45:2b:28:
                    44:d9:3a:41:c5:17:d9:6f:49:9e:d0:5c:21:17:bb:
                    4c:d3:a2:02:35:e6:c5:4f:6b:fd:aa:61:f2:31:62:
                    ac:88:34:89:f3:d8:27:bb:5f:ab:d1:54:b1:c3:f4:
                    9e:a8:c5:22:dd:14:a1:3b:09:e5:57:89:57:62:26:
                    0b:98:40:16:a5:e1:7e:e9:8d:ef:15:8e:fc:30:7e:
                    48:38:47:40:5e:d3:2a:6d:8e:a0:62:9e:05:d9:96:
                    83:d2:db:27:66:2f:a0:fd:d8:72:6c:7c:86:8d:d2:
                    4d:cc:1e:b8:2b:21:f6:a7:c5:3d:f5:04:79:87:a3:
                    cf:c4:43:b9:9b:e4:07:0a:31:6c:e0:48:8f:86:be:
                    45:d5:4d:d7:35:c2:22:cd:00:cb:ce:31:ac:18:5c:
                    f6:64:fd:ea:00:59:29:42:8d:56:a7:35:84:c2:be:
                    cc:98:c0:6a:ad:34:ee:c2:02:09:21:b6:96:aa:5a:
                    15:15:db:07:2e:d2:4c:06:18:a8:4a:23:97:c4:da:
                    54:a8:53:87:da:b4:37:c5:5d:ab:db:64:4c:19:c3:
                    81:73:ac:56:84:e0:e7:30:18:cf:6f:dc:a9:7d:0b:
                    6c:ff:02:44:65:37:4b:47:af:1e:5e:9e:19:93:69:
                    7c:56:11:8a:bc:ee:6c:17:7a:fa:96:44:5c:38:6a:
                    3f:65:3f:f7:a5:5c:89:22:11:bc:42:fe:b3:91:d7:
                    c4:df:02:55:48:c9:52:78:76:91:04:d9:2b:87:47:
                    33:83:89:c9:50:82:ca:d2:21:63:90:e2:36:c2:07:
                    6f:ff:8c:5b:29:34:8a:0a:78:86:09:d2:d1:00:16:
                    0b:d0:01:77:75:92:b0:dc:be:00:18:3a:bf:cc:51:
                    ce:1c:dd:79:73:40:8c:0a:91:a9:be:29:b9:81:53:
                    b2:d3:dd:61:10:19:d4:bd:e2:09:cc:6e:cf:3b:4e:
                    3f:51:73:8b:e1:c6:fc:70:46:a2:34:a0:4c:8f:2c:
                    4a:91:27
                Exponent: 65537 (0x10001)
        X509v3 extensions:
            X509v3 Basic Constraints: 
                CA:FALSE
            Netscape Comment: 
                Easy-RSA Generated Certificate
            X509v3 Subject Key Identifier: 
                BD:32:6D:2B:8F:2F:CE:02:66:9E:73:A9:42:91:FF:32:B9:5C:60:8B
            X509v3 Authority Key Identifier: 
                keyid:EF:38:8D:14:50:58:A7:5B:4D:9C:17:72:FC:DF:B9:AC:A7:51:B0:10
                DirName:/C=US/ST=CA/L=SanFrancisco/O=Pixglo, Inc./OU=VPN-CIE/CN=tunnel.pixglo.com/name=Bala Chandrasekaran/emailAddress=bala@pixglo.com
                serial:A6:DB:C6:83:80:E6:A0:79

            X509v3 Extended Key Usage: 
                TLS Web Client Authentication
            X509v3 Key Usage: 
                Digital Signature
    Signature Algorithm: sha1WithRSAEncryption
         af:da:a7:d6:53:6e:f7:f2:6c:1e:bb:b8:cd:14:a2:f5:f3:19:
         ec:80:f2:6f:3e:a4:e1:73:9e:bb:7a:e7:bd:dd:a9:80:cd:e3:
         f9:d0:f8:ee:5f:0c:62:28:b5:ca:c5:b1:8e:c2:59:38:fc:70:
         21:fc:e3:00:7e:92:9a:cf:3a:28:e6:72:74:e6:7a:57:ba:9d:
         81:cb:03:7e:97:0f:06:1b:3b:9a:35:d2:d8:50:a5:4d:11:e9:
         bb:f1:2d:d2:a5:ed:e0:df:d5:85:c0:53:b7:5c:24:a5:8a:b4:
         57:3b:37:44:c9:70:79:17:41:3f:46:ba:0f:d1:67:d2:3f:9e:
         82:6f:e5:d6:d1:0f:d9:a9:9e:ce:23:16:cb:5e:ee:85:b7:a4:
         8e:ca:bb:fe:54:1e:9e:5d:c5:7c:ec:59:2b:8b:b4:b0:6d:2d:
         36:03:d0:fd:6a:09:14:1c:54:c0:17:a4:fb:59:cf:89:6f:95:
         82:71:2d:97:67:53:b1:b5:bb:fa:9d:37:79:c3:d9:b8:4f:86:
         57:12:01:c6:13:e0:c5:c6:dc:ee:49:22:4f:df:2f:ef:3e:11:
         8d:5d:a0:86:3c:2c:3b:c1:75:84:5a:fc:8f:32:ff:22:3c:75:
         e4:b8:77:7e:db:8c:93:86:db:43:03:03:1e:25:bb:50:30:1d:
         a7:70:e9:f8:a3:13:9a:e7:d7:b9:ff:2b:89:03:68:5a:3d:ca:
         94:ac:0e:59:7c:0a:52:41:ed:d2:fa:6b:b7:a8:3c:78:71:d2:
         6d:7b:d4:8a:99:d1:cb:5c:94:ce:1d:03:ca:da:95:06:86:ff:
         0d:89:8d:2c:5e:e9:6b:7e:ac:70:fd:a7:6c:16:8a:60:3a:08:
         a0:90:b5:bc:6a:12:97:d2:f8:50:ad:40:f4:a6:41:70:6f:3f:
         ca:ef:b8:50:42:69:8f:96:81:93:b6:05:14:ef:38:15:47:4f:
         bb:11:5a:d3:4c:89:b1:31:64:54:b6:f8:cf:09:03:6c:a5:40:
         98:db:38:b1:0a:c9:1a:1f:d0:ae:95:7a:5a:9d:e3:dc:72:ba:
         1a:00:ba:dd:23:48:60:d1:98:cf:84:70:a2:75:34:8d:dc:b9:
         ca:e9:24:d3:8d:93:bc:75:79:86:a0:31:67:03:fe:76:59:a2:
         1d:12:0f:5e:24:ef:60:91:61:2f:ad:0a:fa:41:1a:f0:b3:fa:
         c1:8d:93:a3:25:21:96:46:7e:40:0b:f6:04:2b:e8:63:b3:dc:
         3a:84:a2:50:49:ba:5d:25:77:f2:e4:42:ea:77:0e:f6:e3:3f:
         36:d9:9d:cc:87:27:31:a6:58:8b:3b:5e:88:b5:ea:82:0f:31:
         4d:7c:56:4e:f1:ac:fc:6b
-----BEGIN CERTIFICATE-----
MIIHRjCCBS6gAwIBAgIBKzANBgkqhkiG9w0BAQUFADCBtDELMAkGA1UEBhMCVVMx
CzAJBgNVBAgTAkNBMRUwEwYDVQQHEwxTYW5GcmFuY2lzY28xFTATBgNVBAoTDFBp
eGdsbywgSW5jLjEQMA4GA1UECxMHVlBOLUNJRTEaMBgGA1UEAxMRdHVubmVsLnBp
eGdsby5jb20xHDAaBgNVBCkTE0JhbGEgQ2hhbmRyYXNla2FyYW4xHjAcBgkqhkiG
9w0BCQEWD2JhbGFAcGl4Z2xvLmNvbTAeFw0xODAyMTQwNjI0NDNaFw0yODAyMTIw
NjI0NDNaMIGoMQswCQYDVQQGEwJVUzELMAkGA1UECBMCQ0ExFTATBgNVBAcTDFNh
bkZyYW5jaXNjbzEVMBMGA1UEChMMUGl4Z2xvLCBJbmMuMRAwDgYDVQQLEwdWUE4t
Q0lFMQ4wDAYDVQQDEwVjaWU0MjEcMBoGA1UEKRMTQmFsYSBDaGFuZHJhc2VrYXJh
bjEeMBwGCSqGSIb3DQEJARYPYmFsYUBwaXhnbG8uY29tMIICIjANBgkqhkiG9w0B
AQEFAAOCAg8AMIICCgKCAgEArpSTeP8yDXeP6BjPBo4MFx7LrFtiV3i5D6hdydxn
1RNKH5U72uI4C/JOGltxeSZq9bFm8ZX/VFgtkybW1qrnee9qm4ZHbdK2+ML5cbxi
tsbr1STGfj6YiSPCqt5YxOkolvJWJaPiTApuadtdjnmoPRoHIAOFKlMgp8jIflTg
zS7D0KhFKyhE2TpBxRfZb0me0FwhF7tM06ICNebFT2v9qmHyMWKsiDSJ89gnu1+r
0VSxw/SeqMUi3RShOwnlV4lXYiYLmEAWpeF+6Y3vFY78MH5IOEdAXtMqbY6gYp4F
2ZaD0tsnZi+g/dhybHyGjdJNzB64KyH2p8U99QR5h6PPxEO5m+QHCjFs4EiPhr5F
1U3XNcIizQDLzjGsGFz2ZP3qAFkpQo1WpzWEwr7MmMBqrTTuwgIJIbaWqloVFdsH
LtJMBhioSiOXxNpUqFOH2rQ3xV2r22RMGcOBc6xWhODnMBjPb9ypfQts/wJEZTdL
R68eXp4Zk2l8VhGKvO5sF3r6lkRcOGo/ZT/3pVyJIhG8Qv6zkdfE3wJVSMlSeHaR
BNkrh0czg4nJUILK0iFjkOI2wgdv/4xbKTSKCniGCdLRABYL0AF3dZKw3L4AGDq/
zFHOHN15c0CMCpGpvim5gVOy091hEBnUveIJzG7PO04/UXOL4cb8cEaiNKBMjyxK
kScCAwEAAaOCAWswggFnMAkGA1UdEwQCMAAwLQYJYIZIAYb4QgENBCAWHkVhc3kt
UlNBIEdlbmVyYXRlZCBDZXJ0aWZpY2F0ZTAdBgNVHQ4EFgQUvTJtK48vzgJmnnOp
QpH/MrlcYIswgekGA1UdIwSB4TCB3oAU7ziNFFBYp1tNnBdy/N+5rKdRsBChgbqk
gbcwgbQxCzAJBgNVBAYTAlVTMQswCQYDVQQIEwJDQTEVMBMGA1UEBxMMU2FuRnJh
bmNpc2NvMRUwEwYDVQQKEwxQaXhnbG8sIEluYy4xEDAOBgNVBAsTB1ZQTi1DSUUx
GjAYBgNVBAMTEXR1bm5lbC5waXhnbG8uY29tMRwwGgYDVQQpExNCYWxhIENoYW5k
cmFzZWthcmFuMR4wHAYJKoZIhvcNAQkBFg9iYWxhQHBpeGdsby5jb22CCQCm28aD
gOageTATBgNVHSUEDDAKBggrBgEFBQcDAjALBgNVHQ8EBAMCB4AwDQYJKoZIhvcN
AQEFBQADggIBAK/ap9ZTbvfybB67uM0UovXzGeyA8m8+pOFznrt6573dqYDN4/nQ
+O5fDGIotcrFsY7CWTj8cCH84wB+kprPOijmcnTmele6nYHLA36XDwYbO5o10thQ
pU0R6bvxLdKl7eDf1YXAU7dcJKWKtFc7N0TJcHkXQT9Gug/RZ9I/noJv5dbRD9mp
ns4jFste7oW3pI7Ku/5UHp5dxXzsWSuLtLBtLTYD0P1qCRQcVMAXpPtZz4lvlYJx
LZdnU7G1u/qdN3nD2bhPhlcSAcYT4MXG3O5JIk/fL+8+EY1doIY8LDvBdYRa/I8y
/yI8deS4d37bjJOG20MDAx4lu1AwHadw6fijE5rn17n/K4kDaFo9ypSsDll8ClJB
7dL6a7eoPHhx0m171IqZ0ctclM4dA8ralQaG/w2JjSxe6Wt+rHD9p2wWimA6CKCQ
tbxqEpfS+FCtQPSmQXBvP8rvuFBCaY+WgZO2BRTvOBVHT7sRWtNMibExZFS2+M8J
A2ylQJjbOLEKyRof0K6Velqd49xyuhoAut0jSGDRmM+EcKJ1NI3cucrpJNONk7x1
eYagMWcD/nZZoh0SD14k72CRYS+tCvpBGvCz+sGNk6MlIZZGfkAL9gQr6GOz3DqE
olBJul0ld/LkQup3DvbjPzbZncyHJzGmWIs7Xoi16oIPMU18Vk7xrPxr
-----END CERTIFICATE-----
