Certificate:
    Data:
        Version: 3 (0x2)
        Serial Number: 48 (0x30)
    Signature Algorithm: sha1WithRSAEncryption
        Issuer: C=US, ST=CA, L=SanFrancisco, O=Pixglo, Inc., OU=VPN-CIE, CN=tunnel.pixglo.com/name=Bala Chandrasekaran/emailAddress=bala@pixglo.com
        Validity
            Not Before: Feb 14 06:24:51 2018 GMT
            Not After : Feb 12 06:24:51 2028 GMT
        Subject: C=US, ST=CA, L=SanFrancisco, O=Pixglo, Inc., OU=VPN-CIE, CN=cie47/name=Bala Chandrasekaran/emailAddress=bala@pixglo.com
        Subject Public Key Info:
            Public Key Algorithm: rsaEncryption
                Public-Key: (4096 bit)
                Modulus:
                    00:d8:f6:83:14:67:d5:cd:09:42:35:0c:4b:71:0f:
                    fd:eb:8d:4a:c9:0a:ec:42:93:2b:0b:6a:dd:e9:89:
                    d8:43:87:26:35:49:35:f1:d8:91:9e:14:f3:cd:34:
                    d6:e4:6f:e4:32:5a:d9:0e:63:2e:49:52:c0:ed:c4:
                    30:9b:5c:c2:45:fb:9b:e3:2d:1a:7b:58:81:fb:f3:
                    3c:26:d2:20:4b:f7:1f:63:6e:2c:a1:39:3a:f8:61:
                    38:6f:06:3d:e7:5f:2c:39:54:b7:7f:e6:f9:0e:fb:
                    84:3f:90:d8:dc:46:d4:5e:5f:8b:8c:d0:b6:16:14:
                    ac:a2:6a:4b:4d:b3:a0:c5:f8:59:de:20:74:13:71:
                    2a:8f:35:a3:d2:ec:e1:07:79:ad:5e:dd:6d:4a:92:
                    db:37:9a:11:f3:ae:b8:7e:3a:19:3b:60:d5:65:73:
                    7e:df:ca:b3:51:c2:6e:2d:74:95:c8:ff:eb:d9:89:
                    c9:3c:2e:4d:28:0c:fd:b1:a2:df:27:fe:7a:ab:b6:
                    0c:76:a6:55:de:26:2a:d6:ce:87:e1:c0:45:a6:8d:
                    e8:22:53:b4:89:12:ce:b7:fd:09:4a:cd:31:a0:5a:
                    a2:f3:db:ee:a3:7b:49:c1:fa:84:2c:ad:68:e4:12:
                    95:f3:84:5e:2d:7a:cf:0e:37:bc:d4:d4:32:16:19:
                    91:81:8e:1f:d3:96:3d:29:e2:7a:1d:34:be:89:88:
                    07:b3:3b:0e:27:94:89:8b:36:1f:00:12:a0:44:79:
                    a8:81:07:a3:c2:64:5e:59:5e:45:33:a7:42:5e:4e:
                    35:a0:a1:34:87:75:85:30:ab:fe:5f:ec:ae:e7:21:
                    f6:8f:8b:ee:75:56:a5:a6:c9:d9:d2:af:a0:c0:3d:
                    27:02:17:d7:d7:e5:da:c6:2a:bf:21:b3:94:84:aa:
                    f9:10:70:08:d8:7d:0b:e3:f0:d3:88:98:90:ab:6d:
                    9b:bf:ba:ea:fe:57:e9:6a:d8:87:87:85:93:ff:b3:
                    33:a4:55:de:fb:70:90:6e:13:fb:d5:09:68:49:4a:
                    56:52:8d:87:2c:cf:69:d4:d8:af:d3:39:41:85:f1:
                    7b:5c:e3:3a:eb:37:a8:63:ee:58:2d:12:e1:bf:5b:
                    89:85:f4:ea:2d:91:f1:7d:a3:be:50:23:22:d5:b8:
                    8d:87:41:d1:a1:c1:7a:44:9b:8d:cc:b0:4f:85:89:
                    2b:66:b9:54:64:15:bc:9f:70:7a:ab:38:9a:e3:2d:
                    74:d5:5d:d6:2e:7c:e8:28:00:41:d0:03:fa:59:1c:
                    34:8b:2d:e7:80:4a:5a:e1:f2:d8:36:e1:bd:95:52:
                    0b:d1:54:84:ae:ff:bd:07:dc:a3:0f:41:5c:a2:5f:
                    69:f1:e5
                Exponent: 65537 (0x10001)
        X509v3 extensions:
            X509v3 Basic Constraints: 
                CA:FALSE
            Netscape Comment: 
                Easy-RSA Generated Certificate
            X509v3 Subject Key Identifier: 
                E8:23:FB:1E:98:A1:90:57:BB:DE:D4:93:7E:44:60:6E:FD:84:5E:FF
            X509v3 Authority Key Identifier: 
                keyid:EF:38:8D:14:50:58:A7:5B:4D:9C:17:72:FC:DF:B9:AC:A7:51:B0:10
                DirName:/C=US/ST=CA/L=SanFrancisco/O=Pixglo, Inc./OU=VPN-CIE/CN=tunnel.pixglo.com/name=Bala Chandrasekaran/emailAddress=bala@pixglo.com
                serial:A6:DB:C6:83:80:E6:A0:79

            X509v3 Extended Key Usage: 
                TLS Web Client Authentication
            X509v3 Key Usage: 
                Digital Signature
    Signature Algorithm: sha1WithRSAEncryption
         23:f4:f2:6e:91:30:1d:58:3d:7a:41:fe:47:f5:8b:a7:10:6b:
         a0:8d:ab:fc:dd:f0:f0:5c:57:1d:d4:33:3a:7b:45:28:80:9d:
         a9:ff:bf:99:60:02:f3:d7:a6:94:69:d9:c7:f5:e3:33:7e:3d:
         ef:cc:dd:9a:86:b9:6b:ff:aa:94:b8:36:f5:e3:dd:80:f7:af:
         a2:a9:dd:16:3f:5d:fa:bc:72:ad:7f:2d:76:33:b1:92:87:34:
         72:34:eb:59:f7:32:03:67:c3:a5:a4:3d:9d:17:c5:0b:a8:08:
         4e:51:6c:25:a9:d7:1e:45:37:43:04:04:cc:4d:3f:c9:7f:d7:
         8d:c9:84:10:91:9d:44:a1:94:05:53:cd:fd:ef:9e:13:55:db:
         d1:8a:fd:21:16:09:e5:1a:97:64:d8:97:56:12:ad:ad:c0:d8:
         bd:97:a9:ce:0b:f5:93:5e:8e:cf:eb:a7:75:65:63:58:49:b4:
         ae:ad:c9:52:e4:ee:69:fe:31:ec:77:03:22:18:36:00:1d:7b:
         49:62:50:f4:ea:84:13:2f:23:56:db:45:1a:06:71:79:ac:a4:
         54:6f:f0:8a:19:46:08:68:82:7a:7c:b4:ed:9e:f3:6f:3f:f5:
         7b:a5:d5:44:97:1d:d7:45:65:d3:11:59:28:19:84:1a:c4:9b:
         4e:6c:e6:f4:f3:4e:4d:fd:c5:79:2f:7a:88:c0:7e:72:59:46:
         aa:4d:21:8c:ba:2a:dc:ea:8b:e3:ca:e9:7e:ad:ed:c5:e4:e7:
         55:04:72:ff:f9:b2:b3:04:4e:ca:e8:17:a6:20:e2:9f:88:8c:
         be:c7:a4:46:c0:0d:9d:d1:b3:3d:3f:f6:0b:97:1d:cf:b1:0d:
         4b:b7:b2:95:5d:f2:41:70:07:67:7b:25:f5:07:74:7f:bc:25:
         2d:15:aa:cc:bf:51:02:5c:b5:b4:5a:a1:5e:a8:42:79:90:c9:
         b7:de:60:6d:4a:67:1d:40:ff:d7:5b:12:e1:57:fb:73:12:7c:
         6e:a7:85:7b:4b:03:82:83:61:62:81:8a:88:ce:a8:53:52:1c:
         fd:5b:fd:2a:e9:f8:51:93:93:d6:34:e3:3a:03:db:3f:1a:fc:
         e0:63:1d:96:eb:91:ff:3d:fc:a8:18:25:ad:58:ff:81:dd:83:
         dc:cd:80:94:34:46:6c:f1:f6:a6:47:87:7c:c4:2b:2b:03:6a:
         6c:0b:d6:98:61:5d:b1:fd:a4:2d:3b:24:d4:d5:fc:b4:62:8e:
         75:a1:60:15:a6:fd:ef:3d:f7:f8:d4:d6:ad:d3:97:0e:f5:a9:
         dd:a8:2e:2e:d8:f8:26:44:01:9b:f9:f3:20:11:66:ba:48:e4:
         6f:3f:9b:5f:99:31:7d:cf
-----BEGIN CERTIFICATE-----
MIIHRjCCBS6gAwIBAgIBMDANBgkqhkiG9w0BAQUFADCBtDELMAkGA1UEBhMCVVMx
CzAJBgNVBAgTAkNBMRUwEwYDVQQHEwxTYW5GcmFuY2lzY28xFTATBgNVBAoTDFBp
eGdsbywgSW5jLjEQMA4GA1UECxMHVlBOLUNJRTEaMBgGA1UEAxMRdHVubmVsLnBp
eGdsby5jb20xHDAaBgNVBCkTE0JhbGEgQ2hhbmRyYXNla2FyYW4xHjAcBgkqhkiG
9w0BCQEWD2JhbGFAcGl4Z2xvLmNvbTAeFw0xODAyMTQwNjI0NTFaFw0yODAyMTIw
NjI0NTFaMIGoMQswCQYDVQQGEwJVUzELMAkGA1UECBMCQ0ExFTATBgNVBAcTDFNh
bkZyYW5jaXNjbzEVMBMGA1UEChMMUGl4Z2xvLCBJbmMuMRAwDgYDVQQLEwdWUE4t
Q0lFMQ4wDAYDVQQDEwVjaWU0NzEcMBoGA1UEKRMTQmFsYSBDaGFuZHJhc2VrYXJh
bjEeMBwGCSqGSIb3DQEJARYPYmFsYUBwaXhnbG8uY29tMIICIjANBgkqhkiG9w0B
AQEFAAOCAg8AMIICCgKCAgEA2PaDFGfVzQlCNQxLcQ/9641KyQrsQpMrC2rd6YnY
Q4cmNUk18diRnhTzzTTW5G/kMlrZDmMuSVLA7cQwm1zCRfub4y0ae1iB+/M8JtIg
S/cfY24soTk6+GE4bwY9518sOVS3f+b5DvuEP5DY3EbUXl+LjNC2FhSsompLTbOg
xfhZ3iB0E3EqjzWj0uzhB3mtXt1tSpLbN5oR8664fjoZO2DVZXN+38qzUcJuLXSV
yP/r2YnJPC5NKAz9saLfJ/56q7YMdqZV3iYq1s6H4cBFpo3oIlO0iRLOt/0JSs0x
oFqi89vuo3tJwfqELK1o5BKV84ReLXrPDje81NQyFhmRgY4f05Y9KeJ6HTS+iYgH
szsOJ5SJizYfABKgRHmogQejwmReWV5FM6dCXk41oKE0h3WFMKv+X+yu5yH2j4vu
dValpsnZ0q+gwD0nAhfX1+Xaxiq/IbOUhKr5EHAI2H0L4/DTiJiQq22bv7rq/lfp
atiHh4WT/7MzpFXe+3CQbhP71QloSUpWUo2HLM9p1Niv0zlBhfF7XOM66zeoY+5Y
LRLhv1uJhfTqLZHxfaO+UCMi1biNh0HRocF6RJuNzLBPhYkrZrlUZBW8n3B6qzia
4y101V3WLnzoKABB0AP6WRw0iy3ngEpa4fLYNuG9lVIL0VSErv+9B9yjD0Fcol9p
8eUCAwEAAaOCAWswggFnMAkGA1UdEwQCMAAwLQYJYIZIAYb4QgENBCAWHkVhc3kt
UlNBIEdlbmVyYXRlZCBDZXJ0aWZpY2F0ZTAdBgNVHQ4EFgQU6CP7HpihkFe73tST
fkRgbv2EXv8wgekGA1UdIwSB4TCB3oAU7ziNFFBYp1tNnBdy/N+5rKdRsBChgbqk
gbcwgbQxCzAJBgNVBAYTAlVTMQswCQYDVQQIEwJDQTEVMBMGA1UEBxMMU2FuRnJh
bmNpc2NvMRUwEwYDVQQKEwxQaXhnbG8sIEluYy4xEDAOBgNVBAsTB1ZQTi1DSUUx
GjAYBgNVBAMTEXR1bm5lbC5waXhnbG8uY29tMRwwGgYDVQQpExNCYWxhIENoYW5k
cmFzZWthcmFuMR4wHAYJKoZIhvcNAQkBFg9iYWxhQHBpeGdsby5jb22CCQCm28aD
gOageTATBgNVHSUEDDAKBggrBgEFBQcDAjALBgNVHQ8EBAMCB4AwDQYJKoZIhvcN
AQEFBQADggIBACP08m6RMB1YPXpB/kf1i6cQa6CNq/zd8PBcVx3UMzp7RSiAnan/
v5lgAvPXppRp2cf14zN+Pe/M3ZqGuWv/qpS4NvXj3YD3r6Kp3RY/Xfq8cq1/LXYz
sZKHNHI061n3MgNnw6WkPZ0XxQuoCE5RbCWp1x5FN0MEBMxNP8l/143JhBCRnUSh
lAVTzf3vnhNV29GK/SEWCeUal2TYl1YSra3A2L2Xqc4L9ZNejs/rp3VlY1hJtK6t
yVLk7mn+Mex3AyIYNgAde0liUPTqhBMvI1bbRRoGcXmspFRv8IoZRghognp8tO2e
828/9Xul1USXHddFZdMRWSgZhBrEm05s5vTzTk39xXkveojAfnJZRqpNIYy6Ktzq
i+PK6X6t7cXk51UEcv/5srMETsroF6Yg4p+IjL7HpEbADZ3Rsz0/9guXHc+xDUu3
spVd8kFwB2d7JfUHdH+8JS0Vqsy/UQJctbRaoV6oQnmQybfeYG1KZx1A/9dbEuFX
+3MSfG6nhXtLA4KDYWKBiojOqFNSHP1b/Srp+FGTk9Y04zoD2z8a/OBjHZbrkf89
/KgYJa1Y/4Hdg9zNgJQ0Rmzx9qZHh3zEKysDamwL1phhXbH9pC07JNTV/LRijnWh
YBWm/e899/jU1q3Tlw71qd2oLi7Y+CZEAZv58yARZrpI5G8/m1+ZMX3P
-----END CERTIFICATE-----
