Certificate:
    Data:
        Version: 3 (0x2)
        Serial Number: 478 (0x1de)
    Signature Algorithm: sha1WithRSAEncryption
        Issuer: C=US, ST=CA, L=SanFrancisco, O=Pixglo, Inc., OU=VPN-CIE, CN=tunnel.pixglo.com/name=Bala Chandrasekaran/emailAddress=bala@pixglo.com
        Validity
            Not Before: Feb 14 06:35:06 2018 GMT
            Not After : Feb 12 06:35:06 2028 GMT
        Subject: C=US, ST=CA, L=SanFrancisco, O=Pixglo, Inc., OU=VPN-CIE, CN=cie477/name=Bala Chandrasekaran/emailAddress=bala@pixglo.com
        Subject Public Key Info:
            Public Key Algorithm: rsaEncryption
                Public-Key: (4096 bit)
                Modulus:
                    00:a0:9e:d4:e6:11:b7:d2:e2:7d:2e:22:64:c8:05:
                    3d:dc:bc:b2:5b:fb:cf:1d:2e:99:66:34:81:2d:6f:
                    43:b3:10:98:bc:50:0a:17:e3:76:10:93:bd:6a:95:
                    23:64:7b:2a:f9:24:b0:23:c6:34:4c:f2:b5:6c:d3:
                    48:a2:7d:ee:ae:5e:38:10:1c:38:cf:15:0e:82:64:
                    0c:09:34:02:de:7f:66:e7:c5:14:b7:3b:a3:1d:52:
                    48:71:1f:aa:e6:45:16:0a:a2:7c:ac:e0:c0:f9:f4:
                    e7:4b:4a:40:8b:72:f5:10:d2:a8:c2:4f:9b:fe:d6:
                    5e:35:b6:79:b6:a2:5e:11:af:69:25:98:58:4b:f1:
                    d5:2e:f1:8b:01:d9:73:c3:c0:3f:fa:13:18:eb:01:
                    6f:45:b5:da:5f:0f:1f:2a:51:a0:b3:1a:0a:3f:79:
                    cc:01:9d:1b:4c:56:14:50:46:e1:ce:25:1a:18:cb:
                    e9:27:c4:f0:b2:92:79:a0:c2:82:21:a2:2a:a1:f5:
                    c9:56:ad:04:fc:85:6d:dd:ec:3a:b9:75:27:c0:29:
                    4d:92:87:03:2a:97:a2:f5:7a:7e:38:a3:65:69:3c:
                    20:b5:5e:b5:a7:0c:df:35:5f:8c:b7:d5:97:fd:da:
                    87:d4:5f:ef:c9:d8:62:7c:82:6a:a1:3b:11:c0:cb:
                    d2:46:77:64:8c:1a:f0:6c:83:52:25:19:ee:1a:22:
                    a4:c9:e5:d2:c0:81:22:44:cd:a6:bc:e3:8e:be:3f:
                    70:65:08:f3:91:33:4f:88:9b:1e:55:c6:e5:95:23:
                    2c:98:c9:36:57:6b:eb:48:f3:5a:d4:6d:23:74:c5:
                    a4:3d:42:15:8d:f5:b3:1f:13:a7:a5:3e:79:18:71:
                    01:2e:9b:e9:5b:31:89:a4:d3:c8:cb:d5:02:9e:9d:
                    4d:6f:88:57:e0:19:17:cb:e3:17:dc:6d:92:23:d9:
                    cd:6d:7f:60:34:cc:2c:e6:c4:f3:d2:b3:97:5e:92:
                    6d:eb:b5:5b:94:d2:d4:f5:ba:1e:d3:e7:16:ef:b7:
                    4c:b7:46:5c:e5:ea:26:39:84:cf:8e:a6:cb:45:63:
                    28:47:c2:11:9a:b6:26:a0:7d:28:b5:db:fc:46:3f:
                    63:5e:10:28:5d:59:12:ac:df:61:ab:c7:d3:2f:9c:
                    63:f1:21:57:b4:7b:8c:ee:0d:9e:72:8b:0d:90:4a:
                    9e:b5:76:3f:f3:15:2c:12:89:81:f2:cc:ec:00:f3:
                    b8:3c:99:46:f9:da:d4:51:b4:fd:7a:45:a3:fc:7f:
                    c2:b1:a7:d1:3a:c6:10:dd:7c:e4:8e:33:8b:43:fc:
                    c0:17:b9:21:2c:66:5f:4c:33:e8:7f:24:6f:f3:71:
                    5c:48:ed
                Exponent: 65537 (0x10001)
        X509v3 extensions:
            X509v3 Basic Constraints: 
                CA:FALSE
            Netscape Comment: 
                Easy-RSA Generated Certificate
            X509v3 Subject Key Identifier: 
                48:C0:C1:7B:65:2B:4F:2D:02:F1:BC:D5:1E:11:86:5A:CB:0C:33:C0
            X509v3 Authority Key Identifier: 
                keyid:EF:38:8D:14:50:58:A7:5B:4D:9C:17:72:FC:DF:B9:AC:A7:51:B0:10
                DirName:/C=US/ST=CA/L=SanFrancisco/O=Pixglo, Inc./OU=VPN-CIE/CN=tunnel.pixglo.com/name=Bala Chandrasekaran/emailAddress=bala@pixglo.com
                serial:A6:DB:C6:83:80:E6:A0:79

            X509v3 Extended Key Usage: 
                TLS Web Client Authentication
            X509v3 Key Usage: 
                Digital Signature
    Signature Algorithm: sha1WithRSAEncryption
         1b:1a:09:6f:cb:06:e5:6b:eb:14:92:15:45:c1:ff:b5:4e:0e:
         e1:bf:0d:6c:36:e4:c3:32:66:bc:8c:9a:00:b5:24:96:b4:0c:
         66:cd:3a:ac:62:ec:f6:af:ef:94:60:ae:7e:8a:3b:00:2c:f5:
         ed:2c:b6:bf:10:81:74:e7:62:da:8e:eb:fb:8c:16:a6:f8:f7:
         1c:b5:d8:5f:94:a1:3f:02:2f:25:fc:34:1b:d1:1e:13:22:ef:
         84:a4:c0:70:8d:8d:f2:61:53:82:ae:5a:e0:7f:55:b3:96:34:
         f5:f4:77:f3:84:9b:4d:ff:6f:e3:60:26:1c:b3:ff:ef:a3:34:
         b3:58:b5:05:c8:f7:98:45:bd:dc:93:f0:26:d1:45:46:70:49:
         24:34:58:20:84:99:b8:f6:91:1e:f1:61:f7:6c:4d:39:5a:f4:
         59:45:38:62:af:03:e8:b4:71:70:9a:f0:67:af:03:73:58:c5:
         a7:ce:18:5e:16:d2:9a:7d:01:76:ee:c3:71:3a:4d:d3:62:88:
         95:d2:76:1d:cd:36:e1:9c:44:22:08:6a:23:d9:9d:41:ff:3b:
         d4:c0:12:26:ba:df:95:de:0f:8d:e6:9e:94:fc:76:f0:29:fd:
         09:7e:87:90:f4:9a:05:2c:ed:b2:82:90:01:48:8f:d4:9e:ea:
         89:86:7b:82:fa:c4:d1:c5:b0:da:13:67:e8:4d:c9:1a:4a:3b:
         29:41:41:42:5a:47:02:7f:94:f0:c4:55:f7:3b:b3:e0:85:74:
         3c:b8:2a:c1:01:7c:ec:c1:fd:39:a5:88:1d:68:18:90:e3:59:
         ba:ed:5d:a2:0a:dd:63:a0:48:4c:b4:0e:82:53:d6:a6:52:a2:
         4d:88:29:c8:30:24:81:2f:b5:f6:df:93:29:da:1e:74:3b:8a:
         ef:b3:3d:64:8d:61:11:5b:8b:7c:db:9d:bb:f8:89:06:b0:5f:
         8e:94:9a:b4:1b:dd:b1:c7:21:76:ce:b2:82:e3:40:02:d9:f2:
         21:89:7b:fa:03:32:ee:ed:35:8d:f6:34:0b:14:d4:88:cf:09:
         d7:7e:ff:56:66:33:f1:e7:72:a4:82:b3:fa:22:49:05:8b:d8:
         21:63:bd:ed:01:51:21:d0:3e:e4:a6:53:11:aa:14:51:72:56:
         f4:a8:04:d4:af:c2:07:23:d8:37:1e:dc:d6:f2:09:8b:b6:d6:
         69:fb:e4:95:54:5c:c6:0e:c1:3f:24:76:21:b9:5c:17:6f:d2:
         f3:ba:35:fb:5e:e0:6d:6c:d0:a8:9a:32:5a:c6:f5:82:4f:d2:
         17:9d:33:3a:ba:b9:00:fd:55:3a:a5:a7:b7:b2:3a:99:33:1d:
         3f:51:fb:d2:50:5f:6a:08
-----BEGIN CERTIFICATE-----
MIIHSDCCBTCgAwIBAgICAd4wDQYJKoZIhvcNAQEFBQAwgbQxCzAJBgNVBAYTAlVT
MQswCQYDVQQIEwJDQTEVMBMGA1UEBxMMU2FuRnJhbmNpc2NvMRUwEwYDVQQKEwxQ
aXhnbG8sIEluYy4xEDAOBgNVBAsTB1ZQTi1DSUUxGjAYBgNVBAMTEXR1bm5lbC5w
aXhnbG8uY29tMRwwGgYDVQQpExNCYWxhIENoYW5kcmFzZWthcmFuMR4wHAYJKoZI
hvcNAQkBFg9iYWxhQHBpeGdsby5jb20wHhcNMTgwMjE0MDYzNTA2WhcNMjgwMjEy
MDYzNTA2WjCBqTELMAkGA1UEBhMCVVMxCzAJBgNVBAgTAkNBMRUwEwYDVQQHEwxT
YW5GcmFuY2lzY28xFTATBgNVBAoTDFBpeGdsbywgSW5jLjEQMA4GA1UECxMHVlBO
LUNJRTEPMA0GA1UEAxMGY2llNDc3MRwwGgYDVQQpExNCYWxhIENoYW5kcmFzZWth
cmFuMR4wHAYJKoZIhvcNAQkBFg9iYWxhQHBpeGdsby5jb20wggIiMA0GCSqGSIb3
DQEBAQUAA4ICDwAwggIKAoICAQCgntTmEbfS4n0uImTIBT3cvLJb+88dLplmNIEt
b0OzEJi8UAoX43YQk71qlSNkeyr5JLAjxjRM8rVs00iife6uXjgQHDjPFQ6CZAwJ
NALef2bnxRS3O6MdUkhxH6rmRRYKonys4MD59OdLSkCLcvUQ0qjCT5v+1l41tnm2
ol4Rr2klmFhL8dUu8YsB2XPDwD/6ExjrAW9FtdpfDx8qUaCzGgo/ecwBnRtMVhRQ
RuHOJRoYy+knxPCyknmgwoIhoiqh9clWrQT8hW3d7Dq5dSfAKU2ShwMql6L1en44
o2VpPCC1XrWnDN81X4y31Zf92ofUX+/J2GJ8gmqhOxHAy9JGd2SMGvBsg1IlGe4a
IqTJ5dLAgSJEzaa8446+P3BlCPORM0+Imx5VxuWVIyyYyTZXa+tI81rUbSN0xaQ9
QhWN9bMfE6elPnkYcQEum+lbMYmk08jL1QKenU1viFfgGRfL4xfcbZIj2c1tf2A0
zCzmxPPSs5dekm3rtVuU0tT1uh7T5xbvt0y3Rlzl6iY5hM+OpstFYyhHwhGatiag
fSi12/xGP2NeEChdWRKs32Grx9MvnGPxIVe0e4zuDZ5yiw2QSp61dj/zFSwSiYHy
zOwA87g8mUb52tRRtP16RaP8f8Kxp9E6xhDdfOSOM4tD/MAXuSEsZl9MM+h/JG/z
cVxI7QIDAQABo4IBazCCAWcwCQYDVR0TBAIwADAtBglghkgBhvhCAQ0EIBYeRWFz
eS1SU0EgR2VuZXJhdGVkIENlcnRpZmljYXRlMB0GA1UdDgQWBBRIwMF7ZStPLQLx
vNUeEYZaywwzwDCB6QYDVR0jBIHhMIHegBTvOI0UUFinW02cF3L837msp1GwEKGB
uqSBtzCBtDELMAkGA1UEBhMCVVMxCzAJBgNVBAgTAkNBMRUwEwYDVQQHEwxTYW5G
cmFuY2lzY28xFTATBgNVBAoTDFBpeGdsbywgSW5jLjEQMA4GA1UECxMHVlBOLUNJ
RTEaMBgGA1UEAxMRdHVubmVsLnBpeGdsby5jb20xHDAaBgNVBCkTE0JhbGEgQ2hh
bmRyYXNla2FyYW4xHjAcBgkqhkiG9w0BCQEWD2JhbGFAcGl4Z2xvLmNvbYIJAKbb
xoOA5qB5MBMGA1UdJQQMMAoGCCsGAQUFBwMCMAsGA1UdDwQEAwIHgDANBgkqhkiG
9w0BAQUFAAOCAgEAGxoJb8sG5WvrFJIVRcH/tU4O4b8NbDbkwzJmvIyaALUklrQM
Zs06rGLs9q/vlGCufoo7ACz17Sy2vxCBdOdi2o7r+4wWpvj3HLXYX5ShPwIvJfw0
G9EeEyLvhKTAcI2N8mFTgq5a4H9Vs5Y09fR384SbTf9v42AmHLP/76M0s1i1Bcj3
mEW93JPwJtFFRnBJJDRYIISZuPaRHvFh92xNOVr0WUU4Yq8D6LRxcJrwZ68Dc1jF
p84YXhbSmn0Bdu7DcTpN02KIldJ2Hc024ZxEIghqI9mdQf871MASJrrfld4Pjeae
lPx28Cn9CX6HkPSaBSztsoKQAUiP1J7qiYZ7gvrE0cWw2hNn6E3JGko7KUFBQlpH
An+U8MRV9zuz4IV0PLgqwQF87MH9OaWIHWgYkONZuu1dogrdY6BITLQOglPWplKi
TYgpyDAkgS+19t+TKdoedDuK77M9ZI1hEVuLfNudu/iJBrBfjpSatBvdscchds6y
guNAAtnyIYl7+gMy7u01jfY0CxTUiM8J137/VmYz8edypIKz+iJJBYvYIWO97QFR
IdA+5KZTEaoUUXJW9KgE1K/CByPYNx7c1vIJi7bWafvklVRcxg7BPyR2IblcF2/S
87o1+17gbWzQqJoyWsb1gk/SF50zOrq5AP1VOqWnt7I6mTMdP1H70lBfagg=
-----END CERTIFICATE-----
