Certificate:
    Data:
        Version: 3 (0x2)
        Serial Number: 498 (0x1f2)
    Signature Algorithm: sha1WithRSAEncryption
        Issuer: C=US, ST=CA, L=SanFrancisco, O=Pixglo, Inc., OU=VPN-CIE, CN=tunnel.pixglo.com/name=Bala Chandrasekaran/emailAddress=bala@pixglo.com
        Validity
            Not Before: Feb 14 06:35:36 2018 GMT
            Not After : Feb 12 06:35:36 2028 GMT
        Subject: C=US, ST=CA, L=SanFrancisco, O=Pixglo, Inc., OU=VPN-CIE, CN=cie497/name=Bala Chandrasekaran/emailAddress=bala@pixglo.com
        Subject Public Key Info:
            Public Key Algorithm: rsaEncryption
                Public-Key: (4096 bit)
                Modulus:
                    00:ed:9e:cb:97:2c:5e:c3:11:f8:48:f8:da:9a:0b:
                    71:16:fe:89:ea:69:49:9f:59:4a:df:d3:d3:1c:97:
                    56:6e:ab:2c:3f:81:5f:57:44:62:02:76:77:d8:98:
                    e4:eb:99:1f:07:90:da:a1:da:19:46:9a:be:ac:ce:
                    a7:0e:24:b8:28:2c:8f:e9:e2:42:5a:4e:e7:d2:b0:
                    7c:39:d9:cf:b4:bd:49:fd:35:8c:46:23:db:4e:e6:
                    00:63:c5:77:47:3c:d8:f2:e1:8b:59:ab:a5:23:30:
                    86:24:42:d0:83:1f:c8:70:47:38:c1:f1:7b:45:8e:
                    ee:24:e6:3f:13:05:a2:34:48:46:e1:8a:a8:4f:63:
                    05:4b:cd:70:81:1c:3e:7d:3e:c0:ea:10:90:5d:d1:
                    ae:e2:2d:10:12:22:c1:da:50:30:73:b1:51:8f:be:
                    c0:59:e0:ab:e1:69:35:52:fa:7d:d1:41:9a:a1:b8:
                    a3:36:32:ae:0e:3e:12:44:c8:6e:b2:f8:cc:4e:70:
                    56:04:4d:83:a3:93:bd:94:8d:a2:ab:55:9e:d7:50:
                    31:09:3b:86:15:94:2c:9c:68:3d:89:30:97:b9:c2:
                    73:db:8e:65:bb:5c:5f:c3:32:e5:0c:a0:29:a7:5c:
                    f4:8f:f3:81:24:05:63:ae:8e:3b:db:d0:b4:50:b0:
                    61:3c:d0:be:71:48:a6:8c:97:10:d1:03:48:48:94:
                    bc:79:54:98:3d:1c:ad:11:2f:75:51:40:26:66:0f:
                    40:49:02:ef:82:34:bd:75:85:5a:20:49:2d:69:23:
                    4b:f3:3f:f7:98:87:13:a9:68:d3:a7:dc:96:31:33:
                    a3:6d:09:ee:3a:e8:30:dc:ea:d7:89:e9:4c:a2:6f:
                    f4:e0:8a:30:97:ae:84:c4:c6:60:f8:bb:d8:aa:f8:
                    af:1a:d2:b3:85:a7:38:46:36:b7:68:79:44:55:0b:
                    b4:14:c1:13:ca:e5:f4:b4:22:29:ee:11:33:3d:9b:
                    12:7a:ac:43:9d:94:3a:87:a2:87:1e:1f:f7:9b:71:
                    10:06:e3:c1:43:e4:eb:49:d5:29:a7:1d:9f:fc:16:
                    15:03:8f:98:2b:3f:db:ed:4e:e3:69:43:a0:95:3c:
                    ff:af:8c:2f:b8:f1:71:a3:e3:ad:48:b1:a3:94:37:
                    6a:61:a8:b2:dd:d7:07:a8:82:cd:16:08:74:1a:d5:
                    1a:7f:af:ca:f1:ab:a6:0a:b3:9a:62:94:e7:26:58:
                    fb:48:2b:dd:d5:64:d3:a3:48:bc:f4:fd:8e:e3:35:
                    4c:a6:70:64:20:fa:a3:0d:f3:8e:f5:89:14:3a:2d:
                    63:ae:57:10:f4:f3:ee:2f:de:62:10:d1:ff:e7:5a:
                    e1:7c:c1
                Exponent: 65537 (0x10001)
        X509v3 extensions:
            X509v3 Basic Constraints: 
                CA:FALSE
            Netscape Comment: 
                Easy-RSA Generated Certificate
            X509v3 Subject Key Identifier: 
                29:CA:E8:75:82:58:FA:7C:94:2F:7A:D0:AD:13:67:5D:AE:E1:26:99
            X509v3 Authority Key Identifier: 
                keyid:EF:38:8D:14:50:58:A7:5B:4D:9C:17:72:FC:DF:B9:AC:A7:51:B0:10
                DirName:/C=US/ST=CA/L=SanFrancisco/O=Pixglo, Inc./OU=VPN-CIE/CN=tunnel.pixglo.com/name=Bala Chandrasekaran/emailAddress=bala@pixglo.com
                serial:A6:DB:C6:83:80:E6:A0:79

            X509v3 Extended Key Usage: 
                TLS Web Client Authentication
            X509v3 Key Usage: 
                Digital Signature
    Signature Algorithm: sha1WithRSAEncryption
         d1:b2:2e:b3:62:33:9b:b7:7f:ec:f4:99:e4:a5:b4:fd:b2:ee:
         a6:9b:85:e4:c0:0b:56:ea:97:f2:bd:55:4b:d5:54:ac:17:31:
         e5:65:6b:4d:4a:c7:72:be:ef:62:fe:b7:a1:2e:81:bc:81:e9:
         52:fa:39:94:38:f7:a3:71:60:21:e7:69:11:b0:04:01:56:84:
         76:7f:b5:2c:d4:d4:7a:e4:1e:ec:63:77:16:b5:b4:7d:e8:aa:
         c2:42:30:4d:f7:3b:7c:05:b2:92:de:c0:8d:e9:82:28:db:5b:
         cd:5e:3a:40:37:0c:21:02:24:99:47:ba:bb:24:ca:19:57:bc:
         50:19:d2:e4:c7:05:34:69:41:02:6b:85:1d:aa:95:f7:4f:8c:
         f4:9c:ee:9c:f5:bf:c5:10:43:b7:e6:60:5a:2f:b5:1c:70:21:
         0e:83:55:8f:01:a6:e0:81:14:dc:c6:00:14:d1:f5:e0:bd:36:
         55:5e:66:ba:1e:1c:f2:2b:ae:7b:e9:38:94:a1:05:5d:bf:40:
         b6:6f:e3:19:45:28:0d:da:2b:21:ab:fc:56:de:d8:e2:84:54:
         47:c1:40:fc:32:4a:02:f8:27:c8:b3:96:7a:a1:d4:11:fa:fb:
         74:c8:94:4c:e9:c9:9c:51:19:eb:1b:4e:67:40:08:68:14:28:
         a7:b2:c8:c5:2b:1c:f5:72:bf:e1:53:a3:89:94:ea:a7:ed:9f:
         fb:49:b7:6e:42:b7:5d:84:db:a4:eb:e8:d1:0c:45:14:92:b2:
         57:23:34:51:7e:52:a2:43:64:db:e6:d7:b0:b5:0d:06:75:0b:
         29:8e:7b:e0:92:96:f5:03:58:c6:59:70:44:83:b1:41:52:d9:
         21:0a:5d:43:c3:58:9f:71:ee:d5:dc:49:91:a2:39:40:6a:85:
         c5:d6:6d:c0:84:97:a2:ae:ca:94:d9:23:92:b0:bb:5a:f3:92:
         3d:b0:2d:4b:5f:80:4a:1b:d0:b9:07:cf:1e:42:7c:f8:f0:1f:
         0d:da:c2:90:3e:a5:30:08:b5:7e:34:2e:15:60:2d:54:18:a8:
         5e:e6:76:7e:1c:a0:68:77:c9:17:fa:1a:ae:42:fe:14:4a:cc:
         9b:0e:86:db:d6:37:42:b4:ce:c1:c7:93:74:96:a7:88:93:b4:
         b0:31:77:ad:51:cb:2d:79:8d:fd:23:14:cb:8c:23:bb:dd:b2:
         6f:b1:7a:1a:ae:e4:92:e1:2d:0b:5b:66:bc:0f:c9:dc:d3:46:
         a4:5c:bc:ec:23:6b:e3:95:1e:a2:7d:94:68:e7:eb:3c:19:98:
         8e:de:22:11:fa:ef:e1:57:24:37:74:64:ce:0e:10:16:e4:d3:
         21:5a:64:00:0d:32:92:dd
-----BEGIN CERTIFICATE-----
MIIHSDCCBTCgAwIBAgICAfIwDQYJKoZIhvcNAQEFBQAwgbQxCzAJBgNVBAYTAlVT
MQswCQYDVQQIEwJDQTEVMBMGA1UEBxMMU2FuRnJhbmNpc2NvMRUwEwYDVQQKEwxQ
aXhnbG8sIEluYy4xEDAOBgNVBAsTB1ZQTi1DSUUxGjAYBgNVBAMTEXR1bm5lbC5w
aXhnbG8uY29tMRwwGgYDVQQpExNCYWxhIENoYW5kcmFzZWthcmFuMR4wHAYJKoZI
hvcNAQkBFg9iYWxhQHBpeGdsby5jb20wHhcNMTgwMjE0MDYzNTM2WhcNMjgwMjEy
MDYzNTM2WjCBqTELMAkGA1UEBhMCVVMxCzAJBgNVBAgTAkNBMRUwEwYDVQQHEwxT
YW5GcmFuY2lzY28xFTATBgNVBAoTDFBpeGdsbywgSW5jLjEQMA4GA1UECxMHVlBO
LUNJRTEPMA0GA1UEAxMGY2llNDk3MRwwGgYDVQQpExNCYWxhIENoYW5kcmFzZWth
cmFuMR4wHAYJKoZIhvcNAQkBFg9iYWxhQHBpeGdsby5jb20wggIiMA0GCSqGSIb3
DQEBAQUAA4ICDwAwggIKAoICAQDtnsuXLF7DEfhI+NqaC3EW/onqaUmfWUrf09Mc
l1Zuqyw/gV9XRGICdnfYmOTrmR8HkNqh2hlGmr6szqcOJLgoLI/p4kJaTufSsHw5
2c+0vUn9NYxGI9tO5gBjxXdHPNjy4YtZq6UjMIYkQtCDH8hwRzjB8XtFju4k5j8T
BaI0SEbhiqhPYwVLzXCBHD59PsDqEJBd0a7iLRASIsHaUDBzsVGPvsBZ4KvhaTVS
+n3RQZqhuKM2Mq4OPhJEyG6y+MxOcFYETYOjk72UjaKrVZ7XUDEJO4YVlCycaD2J
MJe5wnPbjmW7XF/DMuUMoCmnXPSP84EkBWOujjvb0LRQsGE80L5xSKaMlxDRA0hI
lLx5VJg9HK0RL3VRQCZmD0BJAu+CNL11hVogSS1pI0vzP/eYhxOpaNOn3JYxM6Nt
Ce466DDc6teJ6Uyib/TgijCXroTExmD4u9iq+K8a0rOFpzhGNrdoeURVC7QUwRPK
5fS0IinuETM9mxJ6rEOdlDqHooceH/ebcRAG48FD5OtJ1SmnHZ/8FhUDj5grP9vt
TuNpQ6CVPP+vjC+48XGj461IsaOUN2phqLLd1weogs0WCHQa1Rp/r8rxq6YKs5pi
lOcmWPtIK93VZNOjSLz0/Y7jNUymcGQg+qMN8471iRQ6LWOuVxD08+4v3mIQ0f/n
WuF8wQIDAQABo4IBazCCAWcwCQYDVR0TBAIwADAtBglghkgBhvhCAQ0EIBYeRWFz
eS1SU0EgR2VuZXJhdGVkIENlcnRpZmljYXRlMB0GA1UdDgQWBBQpyuh1glj6fJQv
etCtE2ddruEmmTCB6QYDVR0jBIHhMIHegBTvOI0UUFinW02cF3L837msp1GwEKGB
uqSBtzCBtDELMAkGA1UEBhMCVVMxCzAJBgNVBAgTAkNBMRUwEwYDVQQHEwxTYW5G
cmFuY2lzY28xFTATBgNVBAoTDFBpeGdsbywgSW5jLjEQMA4GA1UECxMHVlBOLUNJ
RTEaMBgGA1UEAxMRdHVubmVsLnBpeGdsby5jb20xHDAaBgNVBCkTE0JhbGEgQ2hh
bmRyYXNla2FyYW4xHjAcBgkqhkiG9w0BCQEWD2JhbGFAcGl4Z2xvLmNvbYIJAKbb
xoOA5qB5MBMGA1UdJQQMMAoGCCsGAQUFBwMCMAsGA1UdDwQEAwIHgDANBgkqhkiG
9w0BAQUFAAOCAgEA0bIus2Izm7d/7PSZ5KW0/bLuppuF5MALVuqX8r1VS9VUrBcx
5WVrTUrHcr7vYv63oS6BvIHpUvo5lDj3o3FgIedpEbAEAVaEdn+1LNTUeuQe7GN3
FrW0feiqwkIwTfc7fAWykt7AjemCKNtbzV46QDcMIQIkmUe6uyTKGVe8UBnS5McF
NGlBAmuFHaqV90+M9JzunPW/xRBDt+ZgWi+1HHAhDoNVjwGm4IEU3MYAFNH14L02
VV5muh4c8iuue+k4lKEFXb9Atm/jGUUoDdorIav8Vt7Y4oRUR8FA/DJKAvgnyLOW
eqHUEfr7dMiUTOnJnFEZ6xtOZ0AIaBQop7LIxSsc9XK/4VOjiZTqp+2f+0m3bkK3
XYTbpOvo0QxFFJKyVyM0UX5SokNk2+bXsLUNBnULKY574JKW9QNYxllwRIOxQVLZ
IQpdQ8NYn3Hu1dxJkaI5QGqFxdZtwISXoq7KlNkjkrC7WvOSPbAtS1+AShvQuQfP
HkJ8+PAfDdrCkD6lMAi1fjQuFWAtVBioXuZ2fhygaHfJF/oarkL+FErMmw6G29Y3
QrTOwceTdJaniJO0sDF3rVHLLXmN/SMUy4wju92yb7F6Gq7kkuEtC1tmvA/J3NNG
pFy87CNr45Ueon2UaOfrPBmYjt4iEfrv4VckN3Rkzg4QFuTTIVpkAA0ykt0=
-----END CERTIFICATE-----
