Certificate:
    Data:
        Version: 3 (0x2)
        Serial Number: 500 (0x1f4)
    Signature Algorithm: sha1WithRSAEncryption
        Issuer: C=US, ST=CA, L=SanFrancisco, O=Pixglo, Inc., OU=VPN-CIE, CN=tunnel.pixglo.com/name=Bala Chandrasekaran/emailAddress=bala@pixglo.com
        Validity
            Not Before: Feb 14 06:35:40 2018 GMT
            Not After : Feb 12 06:35:40 2028 GMT
        Subject: C=US, ST=CA, L=SanFrancisco, O=Pixglo, Inc., OU=VPN-CIE, CN=cie499/name=Bala Chandrasekaran/emailAddress=bala@pixglo.com
        Subject Public Key Info:
            Public Key Algorithm: rsaEncryption
                Public-Key: (4096 bit)
                Modulus:
                    00:ce:53:b8:c9:b9:dd:7c:15:cf:80:e4:7f:9d:a1:
                    78:54:3d:86:bc:c1:92:cf:cd:53:a4:6c:50:62:6a:
                    ba:0c:00:e6:b5:6a:88:38:e6:b8:e3:b8:7e:1b:a3:
                    2d:b4:61:fc:48:8f:a1:0d:3d:62:d3:c3:7c:e8:e6:
                    fa:c1:f9:1d:46:de:ca:d9:ea:5e:43:e6:2d:8f:17:
                    f3:e9:e3:1c:0f:c8:c5:90:3e:ba:96:b7:aa:74:af:
                    be:e0:d7:64:7c:86:ff:c0:e9:31:6f:50:83:0c:c4:
                    31:09:36:d3:34:ed:68:11:d6:92:c4:6e:ee:53:87:
                    1a:9b:93:10:0d:ec:3a:d8:84:d3:3c:05:4b:36:1e:
                    ab:74:06:75:24:46:81:a8:86:a9:3b:8d:de:3a:b9:
                    66:b7:6a:b9:e3:60:fa:21:4c:7e:cd:62:d2:53:19:
                    e5:f5:1b:8f:1a:01:99:34:e0:ae:a5:9f:46:1e:79:
                    74:9b:fc:e0:b0:2f:c0:77:4a:d6:97:94:a9:86:b2:
                    b4:d1:bd:1d:91:69:8f:03:71:9b:8a:2e:ee:34:9a:
                    e3:28:90:32:86:fc:52:5b:40:c6:c9:40:e2:14:e1:
                    03:78:49:ea:4a:26:df:9b:f1:4c:9e:ee:de:5b:98:
                    33:3f:57:8b:1d:24:9b:7d:c6:cd:28:c8:3a:3c:06:
                    c5:fe:10:e9:2c:bf:52:f1:2f:46:2f:45:d7:f6:e0:
                    6f:f5:e0:70:69:c6:3c:5e:d4:13:85:0a:93:a1:89:
                    8c:b4:9e:27:b8:4c:5a:b4:ab:70:7f:55:04:1e:73:
                    50:61:53:ae:ab:da:67:11:f3:ef:8c:3c:33:45:52:
                    9a:5f:05:66:34:70:88:0a:5c:de:1f:66:b9:4c:ba:
                    26:8f:1a:96:57:d5:e0:e3:03:7d:95:f9:c4:37:13:
                    a2:d5:99:a0:54:84:e8:ce:e9:fb:00:73:68:e1:68:
                    95:a6:17:67:99:69:0d:fe:ef:dc:c4:4d:d3:15:86:
                    2f:fd:2d:af:0a:36:03:d8:ad:dc:66:e7:62:ed:59:
                    c3:99:cb:e2:05:88:93:66:55:7c:44:d6:67:bd:1f:
                    08:92:8d:e9:33:63:ba:ca:bc:2d:7d:eb:93:b7:e3:
                    5a:3e:72:6b:96:9f:69:79:02:22:e1:09:f2:e3:09:
                    38:f1:5e:34:de:7a:8c:6f:e8:c1:2b:2e:af:09:3d:
                    f0:ed:25:07:fb:cb:eb:a2:c7:80:98:cd:b7:89:a0:
                    d9:87:fb:84:bc:fb:a4:6f:5b:55:d5:c0:e7:86:62:
                    45:ed:03:5b:25:bc:6e:d3:d7:55:e4:10:29:36:7b:
                    56:67:ce:59:f0:35:c8:e8:63:8c:b0:fe:e9:7a:35:
                    f6:45:b5
                Exponent: 65537 (0x10001)
        X509v3 extensions:
            X509v3 Basic Constraints: 
                CA:FALSE
            Netscape Comment: 
                Easy-RSA Generated Certificate
            X509v3 Subject Key Identifier: 
                17:3C:CE:27:EE:C5:AA:40:D3:D3:F1:34:5E:04:BB:33:54:23:9C:F5
            X509v3 Authority Key Identifier: 
                keyid:EF:38:8D:14:50:58:A7:5B:4D:9C:17:72:FC:DF:B9:AC:A7:51:B0:10
                DirName:/C=US/ST=CA/L=SanFrancisco/O=Pixglo, Inc./OU=VPN-CIE/CN=tunnel.pixglo.com/name=Bala Chandrasekaran/emailAddress=bala@pixglo.com
                serial:A6:DB:C6:83:80:E6:A0:79

            X509v3 Extended Key Usage: 
                TLS Web Client Authentication
            X509v3 Key Usage: 
                Digital Signature
    Signature Algorithm: sha1WithRSAEncryption
         27:af:c0:01:f0:84:c9:0d:f9:50:f4:8d:e4:e3:52:63:ad:b5:
         3d:34:fc:f0:14:44:25:17:5f:fa:04:4a:5c:35:b6:62:fe:c9:
         9b:20:28:7c:68:f7:37:76:2a:4d:a9:bf:48:67:28:31:93:d2:
         d9:80:04:19:db:8c:0e:42:91:cb:64:6d:23:4c:f3:ed:1a:f9:
         5a:fa:8a:51:81:6d:78:67:bb:fc:4e:b7:d6:4a:99:a8:fa:af:
         be:b6:17:c1:9e:9e:ec:59:d1:ed:f5:6e:94:42:11:dc:99:89:
         40:bb:99:76:27:2e:b9:41:86:1d:9b:2e:ad:f5:1e:e9:1a:5a:
         e0:ed:0d:c9:27:92:8d:9c:35:38:72:c6:74:c4:34:d7:6b:7f:
         ca:70:62:b0:f3:ab:ab:a1:76:13:cc:1e:ad:ea:dc:6e:ca:c2:
         11:37:6b:e1:6b:c2:39:d5:3d:7e:a7:a5:ff:26:9c:30:ab:00:
         2c:4b:d3:b8:87:81:a7:db:f0:78:56:6f:f3:54:67:08:92:a8:
         49:31:06:f2:58:36:c4:ac:ae:c8:fd:d1:25:94:ad:eb:93:03:
         3d:8a:7c:2d:67:b7:35:6f:eb:4e:0a:7a:12:14:e0:b4:6e:cd:
         e8:a7:0b:b3:4d:84:77:9a:f2:a5:88:46:78:bf:f0:e4:dc:e1:
         ea:a0:c5:0d:37:57:6d:75:b7:71:13:bd:1a:32:e5:3f:34:2f:
         78:79:4f:57:13:85:ab:a9:69:39:60:eb:a3:f2:2e:97:ec:a4:
         08:47:da:61:fe:15:eb:28:3a:6c:6e:6b:38:b3:62:6d:17:45:
         1d:2d:1c:bd:3b:2b:12:59:72:c0:7c:3a:66:27:ca:61:e3:ee:
         be:5c:bc:90:a2:36:aa:a7:6d:c0:96:58:a6:61:c2:c5:bc:40:
         c6:47:f5:41:79:9c:39:00:7b:60:ae:c4:24:1c:ff:33:d0:e4:
         4e:e5:27:a2:da:3c:1d:1c:f9:c7:6d:ae:36:7f:a7:e7:02:3d:
         3c:83:eb:1f:5b:09:46:d4:36:fb:25:d0:20:56:bc:90:d1:f4:
         a7:04:b0:1a:a8:82:85:7a:2e:3e:81:e4:b4:95:ce:38:7c:2f:
         84:d9:1e:6d:15:8c:94:aa:2a:79:4b:2b:1b:e8:a7:76:d7:90:
         89:95:b4:08:19:9f:22:36:d2:67:4f:56:65:da:63:9c:48:25:
         56:c0:a4:27:9e:b9:c2:77:84:52:99:c4:dc:dc:37:1c:6a:3c:
         aa:cb:69:92:e6:be:36:8a:4f:ed:f6:27:48:09:6d:ba:a0:61:
         f5:4d:1a:73:0c:2b:44:f9:ab:58:e0:e6:a1:7c:cc:fc:a8:45:
         c1:56:c5:a9:b8:5b:8e:07
-----BEGIN CERTIFICATE-----
MIIHSDCCBTCgAwIBAgICAfQwDQYJKoZIhvcNAQEFBQAwgbQxCzAJBgNVBAYTAlVT
MQswCQYDVQQIEwJDQTEVMBMGA1UEBxMMU2FuRnJhbmNpc2NvMRUwEwYDVQQKEwxQ
aXhnbG8sIEluYy4xEDAOBgNVBAsTB1ZQTi1DSUUxGjAYBgNVBAMTEXR1bm5lbC5w
aXhnbG8uY29tMRwwGgYDVQQpExNCYWxhIENoYW5kcmFzZWthcmFuMR4wHAYJKoZI
hvcNAQkBFg9iYWxhQHBpeGdsby5jb20wHhcNMTgwMjE0MDYzNTQwWhcNMjgwMjEy
MDYzNTQwWjCBqTELMAkGA1UEBhMCVVMxCzAJBgNVBAgTAkNBMRUwEwYDVQQHEwxT
YW5GcmFuY2lzY28xFTATBgNVBAoTDFBpeGdsbywgSW5jLjEQMA4GA1UECxMHVlBO
LUNJRTEPMA0GA1UEAxMGY2llNDk5MRwwGgYDVQQpExNCYWxhIENoYW5kcmFzZWth
cmFuMR4wHAYJKoZIhvcNAQkBFg9iYWxhQHBpeGdsby5jb20wggIiMA0GCSqGSIb3
DQEBAQUAA4ICDwAwggIKAoICAQDOU7jJud18Fc+A5H+doXhUPYa8wZLPzVOkbFBi
aroMAOa1aog45rjjuH4boy20YfxIj6ENPWLTw3zo5vrB+R1G3srZ6l5D5i2PF/Pp
4xwPyMWQPrqWt6p0r77g12R8hv/A6TFvUIMMxDEJNtM07WgR1pLEbu5ThxqbkxAN
7DrYhNM8BUs2Hqt0BnUkRoGohqk7jd46uWa3arnjYPohTH7NYtJTGeX1G48aAZk0
4K6ln0YeeXSb/OCwL8B3StaXlKmGsrTRvR2RaY8DcZuKLu40muMokDKG/FJbQMbJ
QOIU4QN4SepKJt+b8Uye7t5bmDM/V4sdJJt9xs0oyDo8BsX+EOksv1LxL0YvRdf2
4G/14HBpxjxe1BOFCpOhiYy0nie4TFq0q3B/VQQec1BhU66r2mcR8++MPDNFUppf
BWY0cIgKXN4fZrlMuiaPGpZX1eDjA32V+cQ3E6LVmaBUhOjO6fsAc2jhaJWmF2eZ
aQ3+79zETdMVhi/9La8KNgPYrdxm52LtWcOZy+IFiJNmVXxE1me9HwiSjekzY7rK
vC1965O341o+cmuWn2l5AiLhCfLjCTjxXjTeeoxv6MErLq8JPfDtJQf7y+uix4CY
zbeJoNmH+4S8+6RvW1XVwOeGYkXtA1slvG7T11XkECk2e1ZnzlnwNcjoY4yw/ul6
NfZFtQIDAQABo4IBazCCAWcwCQYDVR0TBAIwADAtBglghkgBhvhCAQ0EIBYeRWFz
eS1SU0EgR2VuZXJhdGVkIENlcnRpZmljYXRlMB0GA1UdDgQWBBQXPM4n7sWqQNPT
8TReBLszVCOc9TCB6QYDVR0jBIHhMIHegBTvOI0UUFinW02cF3L837msp1GwEKGB
uqSBtzCBtDELMAkGA1UEBhMCVVMxCzAJBgNVBAgTAkNBMRUwEwYDVQQHEwxTYW5G
cmFuY2lzY28xFTATBgNVBAoTDFBpeGdsbywgSW5jLjEQMA4GA1UECxMHVlBOLUNJ
RTEaMBgGA1UEAxMRdHVubmVsLnBpeGdsby5jb20xHDAaBgNVBCkTE0JhbGEgQ2hh
bmRyYXNla2FyYW4xHjAcBgkqhkiG9w0BCQEWD2JhbGFAcGl4Z2xvLmNvbYIJAKbb
xoOA5qB5MBMGA1UdJQQMMAoGCCsGAQUFBwMCMAsGA1UdDwQEAwIHgDANBgkqhkiG
9w0BAQUFAAOCAgEAJ6/AAfCEyQ35UPSN5ONSY621PTT88BREJRdf+gRKXDW2Yv7J
myAofGj3N3YqTam/SGcoMZPS2YAEGduMDkKRy2RtI0zz7Rr5WvqKUYFteGe7/E63
1kqZqPqvvrYXwZ6e7FnR7fVulEIR3JmJQLuZdicuuUGGHZsurfUe6Rpa4O0NySeS
jZw1OHLGdMQ012t/ynBisPOrq6F2E8werercbsrCETdr4WvCOdU9fqel/yacMKsA
LEvTuIeBp9vweFZv81RnCJKoSTEG8lg2xKyuyP3RJZSt65MDPYp8LWe3NW/rTgp6
EhTgtG7N6KcLs02Ed5rypYhGeL/w5Nzh6qDFDTdXbXW3cRO9GjLlPzQveHlPVxOF
q6lpOWDro/Iul+ykCEfaYf4V6yg6bG5rOLNibRdFHS0cvTsrEllywHw6ZifKYePu
vly8kKI2qqdtwJZYpmHCxbxAxkf1QXmcOQB7YK7EJBz/M9DkTuUnoto8HRz5x22u
Nn+n5wI9PIPrH1sJRtQ2+yXQIFa8kNH0pwSwGqiChXouPoHktJXOOHwvhNkebRWM
lKoqeUsrG+indteQiZW0CBmfIjbSZ09WZdpjnEglVsCkJ565wneEUpnE3Nw3HGo8
qstpkua+NopP7fYnSAltuqBh9U0acwwrRPmrWODmoXzM/KhFwVbFqbhbjgc=
-----END CERTIFICATE-----
