Certificate:
    Data:
        Version: 3 (0x2)
        Serial Number: 409 (0x199)
    Signature Algorithm: sha1WithRSAEncryption
        Issuer: C=US, ST=CA, L=SanFrancisco, O=Pixglo, Inc., OU=VPN-CIE, CN=tunnel.pixglo.com/name=Bala Chandrasekaran/emailAddress=bala@pixglo.com
        Validity
            Not Before: Feb 14 06:33:03 2018 GMT
            Not After : Feb 12 06:33:03 2028 GMT
        Subject: C=US, ST=CA, L=SanFrancisco, O=Pixglo, Inc., OU=VPN-CIE, CN=cie408/name=Bala Chandrasekaran/emailAddress=bala@pixglo.com
        Subject Public Key Info:
            Public Key Algorithm: rsaEncryption
                Public-Key: (4096 bit)
                Modulus:
                    00:94:aa:de:d6:01:3f:28:b0:54:93:12:c7:32:73:
                    bf:01:f4:fb:c1:24:fa:1f:92:6b:71:ef:e2:e7:a6:
                    5e:66:fb:63:d6:fd:d8:db:46:53:e5:1b:b6:7f:70:
                    8a:6f:c0:81:6b:5e:bb:c1:c8:41:75:23:b7:07:28:
                    5c:1a:2e:4d:3b:ea:c9:1e:1b:22:9f:e0:19:90:ed:
                    96:4e:c4:de:d2:ce:e1:8b:68:99:ba:c9:ef:1a:f9:
                    2f:0c:91:6f:af:b1:cb:2e:74:a3:b7:f5:df:45:48:
                    39:46:23:be:b2:8b:b5:32:2e:db:b1:81:e2:01:15:
                    1a:31:d9:c1:8f:be:ca:72:5b:09:92:26:c2:ce:82:
                    34:cf:dd:9c:43:cd:ff:4c:27:d0:56:e0:a2:f1:5e:
                    ca:a9:67:9d:5e:5e:27:dd:08:11:39:82:e5:76:0d:
                    3d:84:eb:a4:2d:3d:ab:1b:c6:6d:d0:99:74:89:a8:
                    2f:41:f7:47:63:4e:a4:b9:2d:31:6f:cd:b8:d1:f0:
                    7f:58:06:b3:23:6a:5e:e4:b7:07:6d:ff:6e:1c:32:
                    cb:ab:b1:6f:bf:1b:88:e3:9d:af:66:37:3b:d4:d3:
                    dd:85:98:fb:98:ed:dd:b6:67:c3:e6:46:6a:e7:10:
                    3a:32:b2:19:3e:22:4f:7f:b4:fd:3f:ae:b4:57:69:
                    8f:ca:0a:02:9a:41:01:74:52:8d:a0:a9:df:e3:4a:
                    5e:ed:52:d8:15:22:34:39:bf:df:5b:5e:23:01:7a:
                    2a:c0:2c:4f:40:55:d0:dc:fe:0a:41:bc:5c:08:36:
                    16:da:e3:75:a1:94:31:ca:2e:ee:ec:0a:a4:82:52:
                    23:8c:20:82:9a:fc:2e:bd:d6:c9:67:09:c8:63:77:
                    92:c1:0d:7b:04:ff:5e:1b:3c:d1:da:41:77:02:0a:
                    f7:b7:8e:44:67:63:1c:01:09:85:31:f0:af:2d:a0:
                    1e:7a:d4:d0:9d:f2:ae:15:8c:95:9d:ee:ae:73:5c:
                    c6:1f:40:25:5c:57:83:0f:bb:c7:28:9a:f0:a4:6a:
                    f6:14:4a:02:61:4a:ce:a2:52:0d:35:0a:32:bc:72:
                    7c:b4:4f:82:d4:37:67:d3:bc:a7:d9:94:3e:e0:c6:
                    9b:ea:af:50:76:dc:91:43:85:c7:02:9c:e9:9f:df:
                    19:a3:9b:f3:27:2f:7e:08:9d:b8:8a:62:8e:77:43:
                    7c:2f:d5:30:54:29:df:96:4e:79:6e:ed:07:89:30:
                    d9:24:74:12:fb:6f:93:d6:76:97:8e:ca:a4:51:11:
                    9d:e2:b7:7b:83:d8:2f:53:9d:7a:2f:89:58:b6:15:
                    29:8a:13:f7:8c:96:75:ac:17:bc:7d:92:99:20:21:
                    8b:6c:09
                Exponent: 65537 (0x10001)
        X509v3 extensions:
            X509v3 Basic Constraints: 
                CA:FALSE
            Netscape Comment: 
                Easy-RSA Generated Certificate
            X509v3 Subject Key Identifier: 
                BE:75:06:E7:DC:3C:B0:82:24:FA:A9:70:F2:02:AC:CD:A0:5C:25:40
            X509v3 Authority Key Identifier: 
                keyid:EF:38:8D:14:50:58:A7:5B:4D:9C:17:72:FC:DF:B9:AC:A7:51:B0:10
                DirName:/C=US/ST=CA/L=SanFrancisco/O=Pixglo, Inc./OU=VPN-CIE/CN=tunnel.pixglo.com/name=Bala Chandrasekaran/emailAddress=bala@pixglo.com
                serial:A6:DB:C6:83:80:E6:A0:79

            X509v3 Extended Key Usage: 
                TLS Web Client Authentication
            X509v3 Key Usage: 
                Digital Signature
    Signature Algorithm: sha1WithRSAEncryption
         b0:24:2c:ca:d4:c4:86:27:96:08:5a:1d:cc:5d:47:2a:0a:70:
         d5:a1:83:7c:da:5e:21:e6:84:a5:1e:1a:7e:b4:5f:fc:fc:ac:
         d0:84:49:fe:de:57:18:1e:4a:f6:f0:9f:bf:20:5a:cc:64:e5:
         03:35:52:f7:59:40:35:2c:25:a2:58:b6:e3:a3:7e:1a:ad:7f:
         8e:44:3a:52:4e:61:5a:9f:51:b0:4c:b1:3a:89:f7:a8:5c:76:
         5b:d7:b4:30:58:7e:9e:5d:bf:59:df:ec:9f:12:53:0c:93:ae:
         b2:92:6c:c3:eb:a7:e3:ed:75:1d:bd:b8:67:ba:45:02:3f:c2:
         a6:a0:a5:3d:fd:d6:10:9a:03:a1:fe:7f:a4:c7:90:d5:68:db:
         52:b5:d9:fb:a4:c3:f5:43:61:ec:b2:7a:4b:39:b5:33:9a:12:
         03:6e:41:1c:f5:8f:ec:5b:a2:c3:db:81:6c:dd:d2:8d:ad:34:
         95:37:fe:d0:99:f8:80:da:33:e9:08:5d:8a:bd:e1:52:05:35:
         6a:ef:cc:a0:85:79:82:a6:94:a2:26:3c:cb:42:26:e6:f8:c2:
         c8:bb:8b:7b:8a:3a:9f:26:15:1d:60:48:5c:22:47:47:53:31:
         12:64:d9:fb:86:c2:b1:9d:17:9f:06:fc:08:a2:ce:80:53:7e:
         fe:cf:06:32:1d:21:87:76:75:91:b0:c7:8b:d3:08:d0:d4:ae:
         08:01:88:2d:95:62:3d:a0:b0:b5:37:2f:32:2f:b0:47:8c:cf:
         39:04:cd:54:5e:63:66:88:da:03:84:7a:14:1c:ce:d2:30:15:
         03:29:7f:8f:da:dc:3f:de:9f:60:13:c8:d5:30:68:66:a5:e3:
         c6:56:05:c8:9f:41:34:0d:35:08:b0:3f:fc:23:fb:57:0a:eb:
         8a:8e:c5:2b:3e:dc:af:37:2e:68:72:51:08:51:4b:2e:ed:f9:
         64:c8:5e:61:65:30:55:9d:df:be:46:71:9a:45:fa:36:d1:03:
         56:5d:02:a3:43:95:68:a1:be:d7:60:a7:4f:7e:6b:44:02:38:
         1c:d8:85:68:af:b8:1f:0d:8e:67:d3:4c:03:ca:cb:e2:d6:78:
         68:0b:af:1f:50:e6:f1:fd:9e:53:4b:72:ee:74:2b:e8:cb:b4:
         1e:9b:fd:6c:9a:e6:86:1f:88:3e:f0:d9:e1:4d:80:28:b1:47:
         92:a5:38:df:40:80:ae:1c:a0:5e:16:1f:1c:6d:2f:3f:4a:2e:
         7c:4e:f4:fc:56:db:e6:45:40:83:7d:ee:bd:5e:be:e3:a7:a8:
         21:a5:e7:6a:c1:c0:13:8c:0a:98:45:f6:e9:75:47:ef:a9:8c:
         6e:f3:00:42:06:fa:36:99
-----BEGIN CERTIFICATE-----
MIIHSDCCBTCgAwIBAgICAZkwDQYJKoZIhvcNAQEFBQAwgbQxCzAJBgNVBAYTAlVT
MQswCQYDVQQIEwJDQTEVMBMGA1UEBxMMU2FuRnJhbmNpc2NvMRUwEwYDVQQKEwxQ
aXhnbG8sIEluYy4xEDAOBgNVBAsTB1ZQTi1DSUUxGjAYBgNVBAMTEXR1bm5lbC5w
aXhnbG8uY29tMRwwGgYDVQQpExNCYWxhIENoYW5kcmFzZWthcmFuMR4wHAYJKoZI
hvcNAQkBFg9iYWxhQHBpeGdsby5jb20wHhcNMTgwMjE0MDYzMzAzWhcNMjgwMjEy
MDYzMzAzWjCBqTELMAkGA1UEBhMCVVMxCzAJBgNVBAgTAkNBMRUwEwYDVQQHEwxT
YW5GcmFuY2lzY28xFTATBgNVBAoTDFBpeGdsbywgSW5jLjEQMA4GA1UECxMHVlBO
LUNJRTEPMA0GA1UEAxMGY2llNDA4MRwwGgYDVQQpExNCYWxhIENoYW5kcmFzZWth
cmFuMR4wHAYJKoZIhvcNAQkBFg9iYWxhQHBpeGdsby5jb20wggIiMA0GCSqGSIb3
DQEBAQUAA4ICDwAwggIKAoICAQCUqt7WAT8osFSTEscyc78B9PvBJPofkmtx7+Ln
pl5m+2PW/djbRlPlG7Z/cIpvwIFrXrvByEF1I7cHKFwaLk076skeGyKf4BmQ7ZZO
xN7SzuGLaJm6ye8a+S8MkW+vscsudKO39d9FSDlGI76yi7UyLtuxgeIBFRox2cGP
vspyWwmSJsLOgjTP3ZxDzf9MJ9BW4KLxXsqpZ51eXifdCBE5guV2DT2E66QtPasb
xm3QmXSJqC9B90djTqS5LTFvzbjR8H9YBrMjal7ktwdt/24cMsursW+/G4jjna9m
NzvU092FmPuY7d22Z8PmRmrnEDoyshk+Ik9/tP0/rrRXaY/KCgKaQQF0Uo2gqd/j
Sl7tUtgVIjQ5v99bXiMBeirALE9AVdDc/gpBvFwINhba43WhlDHKLu7sCqSCUiOM
IIKa/C691slnCchjd5LBDXsE/14bPNHaQXcCCve3jkRnYxwBCYUx8K8toB561NCd
8q4VjJWd7q5zXMYfQCVcV4MPu8comvCkavYUSgJhSs6iUg01CjK8cny0T4LUN2fT
vKfZlD7gxpvqr1B23JFDhccCnOmf3xmjm/MnL34InbiKYo53Q3wv1TBUKd+WTnlu
7QeJMNkkdBL7b5PWdpeOyqRREZ3it3uD2C9TnXoviVi2FSmKE/eMlnWsF7x9kpkg
IYtsCQIDAQABo4IBazCCAWcwCQYDVR0TBAIwADAtBglghkgBhvhCAQ0EIBYeRWFz
eS1SU0EgR2VuZXJhdGVkIENlcnRpZmljYXRlMB0GA1UdDgQWBBS+dQbn3DywgiT6
qXDyAqzNoFwlQDCB6QYDVR0jBIHhMIHegBTvOI0UUFinW02cF3L837msp1GwEKGB
uqSBtzCBtDELMAkGA1UEBhMCVVMxCzAJBgNVBAgTAkNBMRUwEwYDVQQHEwxTYW5G
cmFuY2lzY28xFTATBgNVBAoTDFBpeGdsbywgSW5jLjEQMA4GA1UECxMHVlBOLUNJ
RTEaMBgGA1UEAxMRdHVubmVsLnBpeGdsby5jb20xHDAaBgNVBCkTE0JhbGEgQ2hh
bmRyYXNla2FyYW4xHjAcBgkqhkiG9w0BCQEWD2JhbGFAcGl4Z2xvLmNvbYIJAKbb
xoOA5qB5MBMGA1UdJQQMMAoGCCsGAQUFBwMCMAsGA1UdDwQEAwIHgDANBgkqhkiG
9w0BAQUFAAOCAgEAsCQsytTEhieWCFodzF1HKgpw1aGDfNpeIeaEpR4afrRf/Pys
0IRJ/t5XGB5K9vCfvyBazGTlAzVS91lANSwloli246N+Gq1/jkQ6Uk5hWp9RsEyx
Oon3qFx2W9e0MFh+nl2/Wd/snxJTDJOuspJsw+un4+11Hb24Z7pFAj/CpqClPf3W
EJoDof5/pMeQ1WjbUrXZ+6TD9UNh7LJ6Szm1M5oSA25BHPWP7Fuiw9uBbN3Sja00
lTf+0Jn4gNoz6Qhdir3hUgU1au/MoIV5gqaUoiY8y0Im5vjCyLuLe4o6nyYVHWBI
XCJHR1MxEmTZ+4bCsZ0Xnwb8CKLOgFN+/s8GMh0hh3Z1kbDHi9MI0NSuCAGILZVi
PaCwtTcvMi+wR4zPOQTNVF5jZojaA4R6FBzO0jAVAyl/j9rcP96fYBPI1TBoZqXj
xlYFyJ9BNA01CLA//CP7Vwrrio7FKz7crzcuaHJRCFFLLu35ZMheYWUwVZ3fvkZx
mkX6NtEDVl0Co0OVaKG+12CnT35rRAI4HNiFaK+4Hw2OZ9NMA8rL4tZ4aAuvH1Dm
8f2eU0ty7nQr6Mu0Hpv9bJrmhh+IPvDZ4U2AKLFHkqU430CArhygXhYfHG0vP0ou
fE70/Fbb5kVAg33uvV6+46eoIaXnasHAE4wKmEX26XVH76mMbvMAQgb6Npk=
-----END CERTIFICATE-----
