Certificate:
    Data:
        Version: 3 (0x2)
        Serial Number: 449 (0x1c1)
    Signature Algorithm: sha1WithRSAEncryption
        Issuer: C=US, ST=CA, L=SanFrancisco, O=Pixglo, Inc., OU=VPN-CIE, CN=tunnel.pixglo.com/name=Bala Chandrasekaran/emailAddress=bala@pixglo.com
        Validity
            Not Before: Feb 14 06:34:19 2018 GMT
            Not After : Feb 12 06:34:19 2028 GMT
        Subject: C=US, ST=CA, L=SanFrancisco, O=Pixglo, Inc., OU=VPN-CIE, CN=cie448/name=Bala Chandrasekaran/emailAddress=bala@pixglo.com
        Subject Public Key Info:
            Public Key Algorithm: rsaEncryption
                Public-Key: (4096 bit)
                Modulus:
                    00:cc:e5:cf:6d:00:ab:0b:81:31:03:e8:e9:6c:a6:
                    5e:dd:ee:4c:f2:85:e6:93:7e:7b:72:60:cb:e5:c8:
                    98:63:32:69:5b:c9:6a:3c:9d:2f:40:30:62:76:47:
                    d2:ad:b8:30:68:6a:c1:7f:5b:b6:3a:1c:55:0e:8a:
                    d0:77:75:ea:f1:66:8c:62:56:7f:6b:57:4e:ed:8e:
                    3d:f8:79:6a:f3:ba:ca:d3:de:23:e6:a4:d3:ab:42:
                    0d:ed:68:7f:1c:32:74:cd:a8:0e:3a:10:7e:96:59:
                    a8:9b:4f:88:2d:c6:0a:ac:01:dc:be:7f:1d:f7:20:
                    65:38:3e:e7:a0:12:18:b5:21:0e:33:12:d9:9c:9d:
                    35:74:e7:1a:d3:35:73:9b:e9:79:d5:2e:ae:f7:80:
                    13:1f:6d:d8:29:0a:24:f4:b7:a1:91:05:9a:a9:c6:
                    d5:56:06:35:6f:ba:a2:e1:af:ca:0c:96:fd:ae:ca:
                    8b:d9:49:3f:3a:89:10:72:2a:7a:23:6f:6c:5d:cf:
                    f0:96:63:1b:47:85:75:5d:f7:d1:af:53:d9:85:cd:
                    0d:bb:89:c9:9a:0d:b5:c2:79:3f:3b:19:ed:dc:51:
                    5d:4b:60:c6:d2:9e:39:02:9a:c7:e8:e1:da:e2:8e:
                    e4:b2:05:63:03:2a:3d:37:7f:db:d1:2e:70:a0:a6:
                    8d:01:ec:2c:12:c2:78:e8:2c:b7:0e:3e:fb:bb:ce:
                    6d:4a:8b:0b:04:e1:74:45:4a:b8:45:4e:76:12:4c:
                    21:e4:22:19:ad:39:0d:ae:96:9a:3c:f9:d8:bb:07:
                    3c:c1:ad:4c:f0:15:5d:6e:dd:67:9e:85:42:59:60:
                    00:c0:f8:2d:b2:97:6b:55:6d:cb:e9:73:b7:ad:2c:
                    31:9f:4a:91:63:52:a5:f2:a6:07:56:d3:08:bf:23:
                    a9:94:71:a5:33:24:70:48:e7:ab:36:56:f1:db:20:
                    82:ef:6e:17:ef:9d:6a:01:fc:e8:d5:ac:2b:12:25:
                    06:9a:30:b2:f1:7e:24:58:36:97:fa:aa:2e:f7:d7:
                    ad:b0:59:f1:ac:e5:78:fe:65:bb:57:18:7c:a9:a8:
                    d6:73:2e:e2:13:59:40:d7:c1:c6:81:e0:cd:11:16:
                    45:f2:60:8b:ad:f4:9c:42:d5:11:7c:3b:d2:0b:9d:
                    7e:d1:c5:a4:ee:95:5c:0e:2a:94:21:85:db:a0:26:
                    bd:aa:bd:37:36:16:9e:b1:fd:91:b1:b4:74:c4:a1:
                    5f:8a:50:4a:40:40:98:00:22:8b:02:70:e4:b5:1a:
                    fb:2d:56:81:7f:3a:33:f0:4d:b3:a9:b6:43:42:90:
                    c0:6e:65:e5:a5:67:13:17:89:9e:08:b5:d2:cf:f3:
                    fa:ca:1f
                Exponent: 65537 (0x10001)
        X509v3 extensions:
            X509v3 Basic Constraints: 
                CA:FALSE
            Netscape Comment: 
                Easy-RSA Generated Certificate
            X509v3 Subject Key Identifier: 
                26:D9:5B:44:E9:D1:40:94:BE:6A:95:DD:F6:4E:1C:91:8E:1C:F2:84
            X509v3 Authority Key Identifier: 
                keyid:EF:38:8D:14:50:58:A7:5B:4D:9C:17:72:FC:DF:B9:AC:A7:51:B0:10
                DirName:/C=US/ST=CA/L=SanFrancisco/O=Pixglo, Inc./OU=VPN-CIE/CN=tunnel.pixglo.com/name=Bala Chandrasekaran/emailAddress=bala@pixglo.com
                serial:A6:DB:C6:83:80:E6:A0:79

            X509v3 Extended Key Usage: 
                TLS Web Client Authentication
            X509v3 Key Usage: 
                Digital Signature
    Signature Algorithm: sha1WithRSAEncryption
         71:d0:0c:2e:d6:cd:5d:07:f2:87:9c:59:7a:29:18:39:ec:ca:
         77:4a:a2:d2:17:2d:1b:10:f1:16:ea:55:ae:b5:81:c9:ff:9f:
         98:d6:5a:d6:87:1f:2c:2d:b0:e2:c3:23:49:84:29:ec:f8:96:
         e5:85:34:32:97:ff:6a:23:92:2a:c1:fc:8a:73:e0:eb:08:81:
         a3:3a:de:17:41:54:f1:21:0b:b7:44:13:be:75:45:ea:87:f0:
         66:e2:85:02:5b:fa:9a:dc:3c:d6:13:7f:21:65:e8:ba:ff:93:
         fb:6b:8e:0f:3d:7c:86:63:6e:fa:d0:ef:ec:71:70:d5:02:fc:
         d6:95:80:ff:2b:ac:df:cf:f2:04:d0:65:df:b9:7f:14:c9:9b:
         f3:fb:f8:11:d5:be:07:b4:7e:c9:db:5b:88:39:7b:09:ec:98:
         51:36:c9:1a:a3:5d:8d:dc:bb:a8:00:f5:3e:c0:1e:64:c6:ec:
         97:24:a2:0f:ca:15:87:4c:9b:07:b4:b9:b3:fa:ad:44:85:a7:
         8f:f8:70:eb:7f:1a:dc:43:68:d4:8c:f9:ed:c3:50:b8:f0:f6:
         9e:59:10:a3:27:fe:72:51:22:e5:10:03:90:3c:c0:7e:93:74:
         45:10:b5:18:81:af:de:d2:e6:52:d0:37:bc:c6:07:90:02:f4:
         19:c3:db:ae:49:cd:0e:f3:f4:91:96:2c:63:ef:24:d9:39:25:
         2f:75:9b:ca:47:01:d0:f3:9d:d8:ae:f6:e9:b3:92:a2:fd:6e:
         d2:f4:08:e8:ce:23:17:55:f3:47:14:f7:75:2b:48:94:5e:dc:
         ab:c8:f4:a4:27:0b:ac:37:d8:10:63:6f:53:04:e5:45:60:36:
         67:fb:3e:7e:19:09:36:f1:fc:b9:8e:7c:87:09:ce:12:34:1e:
         54:8d:a7:65:6e:b2:72:c4:2d:9d:98:98:3a:6f:db:98:de:bb:
         94:2d:49:5d:48:3e:8f:d6:59:1d:17:32:33:aa:40:7f:6d:11:
         6b:2b:17:b1:3a:b0:e4:c2:f9:7d:58:0b:3d:3e:11:de:dd:0d:
         d7:da:5f:49:bb:bb:1c:81:fb:89:05:48:8b:e8:18:7d:77:e5:
         04:41:34:49:08:66:b4:2a:11:25:10:7e:52:c0:87:98:62:0a:
         27:dd:aa:ad:d3:db:2d:f3:ed:ed:bc:c1:9d:63:90:e5:be:10:
         4d:6e:35:76:85:ef:0e:7a:c7:0e:61:0a:5f:58:fa:94:e8:3b:
         f0:33:da:2f:bb:fe:22:d3:70:76:6d:fa:25:ae:fb:cc:ea:cf:
         e7:5c:19:39:aa:e2:33:69:b6:cc:7a:c6:25:66:a1:b9:fc:64:
         2b:8b:aa:bf:ce:33:b8:4d
-----BEGIN CERTIFICATE-----
MIIHSDCCBTCgAwIBAgICAcEwDQYJKoZIhvcNAQEFBQAwgbQxCzAJBgNVBAYTAlVT
MQswCQYDVQQIEwJDQTEVMBMGA1UEBxMMU2FuRnJhbmNpc2NvMRUwEwYDVQQKEwxQ
aXhnbG8sIEluYy4xEDAOBgNVBAsTB1ZQTi1DSUUxGjAYBgNVBAMTEXR1bm5lbC5w
aXhnbG8uY29tMRwwGgYDVQQpExNCYWxhIENoYW5kcmFzZWthcmFuMR4wHAYJKoZI
hvcNAQkBFg9iYWxhQHBpeGdsby5jb20wHhcNMTgwMjE0MDYzNDE5WhcNMjgwMjEy
MDYzNDE5WjCBqTELMAkGA1UEBhMCVVMxCzAJBgNVBAgTAkNBMRUwEwYDVQQHEwxT
YW5GcmFuY2lzY28xFTATBgNVBAoTDFBpeGdsbywgSW5jLjEQMA4GA1UECxMHVlBO
LUNJRTEPMA0GA1UEAxMGY2llNDQ4MRwwGgYDVQQpExNCYWxhIENoYW5kcmFzZWth
cmFuMR4wHAYJKoZIhvcNAQkBFg9iYWxhQHBpeGdsby5jb20wggIiMA0GCSqGSIb3
DQEBAQUAA4ICDwAwggIKAoICAQDM5c9tAKsLgTED6Olspl7d7kzyheaTfntyYMvl
yJhjMmlbyWo8nS9AMGJ2R9KtuDBoasF/W7Y6HFUOitB3derxZoxiVn9rV07tjj34
eWrzusrT3iPmpNOrQg3taH8cMnTNqA46EH6WWaibT4gtxgqsAdy+fx33IGU4Pueg
Ehi1IQ4zEtmcnTV05xrTNXOb6XnVLq73gBMfbdgpCiT0t6GRBZqpxtVWBjVvuqLh
r8oMlv2uyovZST86iRByKnojb2xdz/CWYxtHhXVd99GvU9mFzQ27icmaDbXCeT87
Ge3cUV1LYMbSnjkCmsfo4drijuSyBWMDKj03f9vRLnCgpo0B7CwSwnjoLLcOPvu7
zm1KiwsE4XRFSrhFTnYSTCHkIhmtOQ2ulpo8+di7BzzBrUzwFV1u3WeehUJZYADA
+C2yl2tVbcvpc7etLDGfSpFjUqXypgdW0wi/I6mUcaUzJHBI56s2VvHbIILvbhfv
nWoB/OjVrCsSJQaaMLLxfiRYNpf6qi73162wWfGs5Xj+ZbtXGHypqNZzLuITWUDX
wcaB4M0RFkXyYIut9JxC1RF8O9ILnX7RxaTulVwOKpQhhdugJr2qvTc2Fp6x/ZGx
tHTEoV+KUEpAQJgAIosCcOS1GvstVoF/OjPwTbOptkNCkMBuZeWlZxMXiZ4ItdLP
8/rKHwIDAQABo4IBazCCAWcwCQYDVR0TBAIwADAtBglghkgBhvhCAQ0EIBYeRWFz
eS1SU0EgR2VuZXJhdGVkIENlcnRpZmljYXRlMB0GA1UdDgQWBBQm2VtE6dFAlL5q
ld32ThyRjhzyhDCB6QYDVR0jBIHhMIHegBTvOI0UUFinW02cF3L837msp1GwEKGB
uqSBtzCBtDELMAkGA1UEBhMCVVMxCzAJBgNVBAgTAkNBMRUwEwYDVQQHEwxTYW5G
cmFuY2lzY28xFTATBgNVBAoTDFBpeGdsbywgSW5jLjEQMA4GA1UECxMHVlBOLUNJ
RTEaMBgGA1UEAxMRdHVubmVsLnBpeGdsby5jb20xHDAaBgNVBCkTE0JhbGEgQ2hh
bmRyYXNla2FyYW4xHjAcBgkqhkiG9w0BCQEWD2JhbGFAcGl4Z2xvLmNvbYIJAKbb
xoOA5qB5MBMGA1UdJQQMMAoGCCsGAQUFBwMCMAsGA1UdDwQEAwIHgDANBgkqhkiG
9w0BAQUFAAOCAgEAcdAMLtbNXQfyh5xZeikYOezKd0qi0hctGxDxFupVrrWByf+f
mNZa1ocfLC2w4sMjSYQp7PiW5YU0Mpf/aiOSKsH8inPg6wiBozreF0FU8SELt0QT
vnVF6ofwZuKFAlv6mtw81hN/IWXouv+T+2uODz18hmNu+tDv7HFw1QL81pWA/yus
38/yBNBl37l/FMmb8/v4EdW+B7R+ydtbiDl7CeyYUTbJGqNdjdy7qAD1PsAeZMbs
lySiD8oVh0ybB7S5s/qtRIWnj/hw638a3ENo1Iz57cNQuPD2nlkQoyf+clEi5RAD
kDzAfpN0RRC1GIGv3tLmUtA3vMYHkAL0GcPbrknNDvP0kZYsY+8k2TklL3WbykcB
0POd2K726bOSov1u0vQI6M4jF1XzRxT3dStIlF7cq8j0pCcLrDfYEGNvUwTlRWA2
Z/s+fhkJNvH8uY58hwnOEjQeVI2nZW6ycsQtnZiYOm/bmN67lC1JXUg+j9ZZHRcy
M6pAf20RaysXsTqw5ML5fVgLPT4R3t0N19pfSbu7HIH7iQVIi+gYfXflBEE0SQhm
tCoRJRB+UsCHmGIKJ92qrdPbLfPt7bzBnWOQ5b4QTW41doXvDnrHDmEKX1j6lOg7
8DPaL7v+ItNwdm36Ja77zOrP51wZOariM2m2zHrGJWahufxkK4uqv84zuE0=
-----END CERTIFICATE-----
