Certificate:
    Data:
        Version: 3 (0x2)
        Serial Number: 437 (0x1b5)
    Signature Algorithm: sha1WithRSAEncryption
        Issuer: C=US, ST=CA, L=SanFrancisco, O=Pixglo, Inc., OU=VPN-CIE, CN=tunnel.pixglo.com/name=Bala Chandrasekaran/emailAddress=bala@pixglo.com
        Validity
            Not Before: Feb 14 06:34:02 2018 GMT
            Not After : Feb 12 06:34:02 2028 GMT
        Subject: C=US, ST=CA, L=SanFrancisco, O=Pixglo, Inc., OU=VPN-CIE, CN=cie436/name=Bala Chandrasekaran/emailAddress=bala@pixglo.com
        Subject Public Key Info:
            Public Key Algorithm: rsaEncryption
                Public-Key: (4096 bit)
                Modulus:
                    00:b8:8f:9e:45:43:0f:62:64:58:04:25:b6:84:cb:
                    1f:cf:80:04:dd:f6:05:39:82:a3:96:d5:63:cc:20:
                    38:52:8b:d0:7d:8d:d9:98:24:ed:2b:8d:0f:67:4e:
                    c3:a5:1f:7a:53:81:6d:c4:b1:83:1d:c9:6d:14:dd:
                    95:bd:60:1d:94:05:e9:88:74:87:38:f5:35:e6:40:
                    d6:6e:5f:4d:3f:54:4f:58:91:43:a7:61:7c:63:66:
                    90:45:e8:d4:b2:8b:92:e5:b0:40:3b:63:b8:23:d6:
                    e8:2d:07:be:d1:40:ce:cf:09:42:5e:77:f3:9b:5b:
                    4d:fe:2d:4a:e1:09:94:82:a6:a3:1d:a3:aa:8f:c7:
                    bc:74:b0:02:b3:cd:04:e0:94:39:34:6b:ee:ba:ab:
                    db:2b:44:54:a1:7b:90:b6:e5:e4:be:72:13:7d:05:
                    33:7a:61:d0:ec:21:ec:5b:47:9e:f8:69:d1:d3:49:
                    55:fd:f1:25:fc:e9:f7:ac:b6:e5:52:0a:53:68:c6:
                    51:8f:e1:04:da:c5:2a:e6:1f:a3:50:1d:01:f6:72:
                    e6:19:09:d5:22:5d:fb:b8:aa:62:cf:41:1b:d1:21:
                    a8:08:0b:4a:9f:92:53:23:30:0b:b5:52:e4:43:d4:
                    fe:98:cc:e7:44:b5:d3:3f:fa:38:72:36:bc:3f:b2:
                    25:aa:57:5f:ac:14:49:bd:e7:ab:e6:d4:ec:e9:ee:
                    c0:0c:cf:1e:7f:ef:af:44:6c:8c:3b:44:63:1a:e1:
                    be:14:9b:6f:b6:b6:3f:fd:c3:4d:88:6e:72:52:39:
                    39:b7:f7:df:33:63:1a:d0:29:97:39:bb:da:ff:b3:
                    0c:1c:4c:81:ed:e1:29:a0:90:fc:69:50:84:c9:a5:
                    a0:bd:e2:77:a5:eb:b9:2d:41:e0:d7:9c:7d:17:f6:
                    1b:d5:55:3c:b7:bd:f6:af:c0:71:8b:03:d0:89:a4:
                    0e:03:6b:26:1c:08:75:f6:87:e1:04:35:c7:f7:9b:
                    de:cb:1d:25:e5:d8:68:8f:39:02:1b:7f:3a:d1:15:
                    68:b9:9d:c3:6b:02:5c:5f:eb:4d:29:90:f7:33:48:
                    3f:8e:44:e3:bc:db:50:a0:ef:40:e9:75:fc:37:b4:
                    99:ab:84:27:d7:2a:7a:b6:ed:28:4a:e5:d4:95:9f:
                    02:8a:a4:c0:0e:ba:22:97:07:59:b4:b5:1d:1b:d7:
                    63:c4:33:27:6a:14:8d:5d:00:8a:19:30:fd:4b:43:
                    45:aa:0e:b2:61:64:19:25:b0:cc:ba:f1:c9:fc:f4:
                    11:16:c6:2f:27:ac:cc:71:d6:c0:ec:fa:1b:3c:c4:
                    69:ae:56:05:89:6a:6c:1f:00:b8:dd:90:68:7b:57:
                    e3:bb:29
                Exponent: 65537 (0x10001)
        X509v3 extensions:
            X509v3 Basic Constraints: 
                CA:FALSE
            Netscape Comment: 
                Easy-RSA Generated Certificate
            X509v3 Subject Key Identifier: 
                02:65:61:ED:D1:96:CA:FC:67:22:06:8E:24:F0:97:13:5E:75:95:5E
            X509v3 Authority Key Identifier: 
                keyid:EF:38:8D:14:50:58:A7:5B:4D:9C:17:72:FC:DF:B9:AC:A7:51:B0:10
                DirName:/C=US/ST=CA/L=SanFrancisco/O=Pixglo, Inc./OU=VPN-CIE/CN=tunnel.pixglo.com/name=Bala Chandrasekaran/emailAddress=bala@pixglo.com
                serial:A6:DB:C6:83:80:E6:A0:79

            X509v3 Extended Key Usage: 
                TLS Web Client Authentication
            X509v3 Key Usage: 
                Digital Signature
    Signature Algorithm: sha1WithRSAEncryption
         ad:19:b0:59:fb:e3:23:4f:1e:f2:b7:cf:1c:f8:13:08:5e:f3:
         3a:17:a2:2c:0e:82:c6:21:25:a3:73:4e:74:20:6d:0b:9b:d4:
         88:d2:82:6c:aa:a2:fb:b8:4d:64:69:b5:5b:a0:4f:12:44:21:
         bb:3a:1b:da:1f:b2:65:4a:3f:90:84:8a:54:7e:63:dc:ad:79:
         9d:a9:be:00:0d:96:10:d8:ba:98:9d:bc:97:33:8f:b2:29:83:
         a8:a0:47:45:45:88:d2:cf:67:4e:9d:27:19:41:09:91:89:c7:
         5e:09:ba:e7:63:7f:61:ab:e8:e7:b9:15:20:85:6c:b5:bd:b8:
         fa:c4:74:e9:79:92:27:0b:b0:18:22:ff:bd:9a:72:e8:53:44:
         47:a2:20:e3:10:55:ba:88:e2:54:0c:3f:11:8a:a4:96:0d:1e:
         4b:01:2e:85:1b:ed:04:98:e9:5e:5f:4b:6f:df:46:c9:03:75:
         76:1c:47:12:59:5c:ef:cc:77:be:06:18:f0:ca:e8:ad:12:77:
         e2:03:e9:78:9e:da:1f:37:19:4d:d1:d4:fa:a5:35:da:43:e0:
         1a:1d:dc:2e:2f:c9:69:6a:f1:21:31:da:f0:29:78:5c:a8:c9:
         d6:af:f4:6d:64:3c:01:78:65:92:6e:2a:08:61:ab:4a:2e:f8:
         7f:dc:d6:1c:1c:67:7b:32:f6:af:e3:0c:0c:87:2a:61:a7:85:
         aa:4f:ba:32:c0:74:57:af:7e:c7:ad:44:83:9b:9e:da:89:a1:
         86:3c:38:fb:b5:fa:1c:8f:dc:87:00:04:7e:42:28:06:b9:4e:
         07:b9:25:b7:67:19:0e:dd:19:f7:7b:49:23:7f:fa:40:d8:e1:
         81:d8:e0:44:0d:46:b2:c2:b2:c5:27:f8:2b:50:f0:9d:59:05:
         53:0d:d4:0d:52:84:6a:86:ff:1a:0b:ee:17:bd:27:2d:9b:4c:
         27:2f:f8:57:3a:a7:7d:63:bc:59:ab:80:00:ae:43:c2:dc:d7:
         bc:89:7a:a9:aa:8c:15:ee:19:56:f4:66:8a:84:62:6b:9b:9c:
         27:10:a8:a7:96:e5:64:c1:d9:e3:08:5e:b8:ce:50:8c:06:f5:
         5d:2b:c3:e4:ff:f6:1f:5f:47:6c:f3:72:a2:72:9e:4f:73:41:
         f0:f9:70:be:c4:db:0c:72:73:b4:3a:84:60:74:16:e2:70:5e:
         b0:53:d8:47:bd:ba:2b:e8:94:78:7f:f8:76:b0:65:5f:0b:bf:
         9e:35:eb:62:ea:3c:63:52:91:be:17:57:15:49:d6:4c:a3:ce:
         2e:ef:51:9e:cd:5d:cf:1f:b0:8a:07:e8:8e:1e:48:81:af:00:
         03:14:0c:47:11:1e:d5:3c
-----BEGIN CERTIFICATE-----
MIIHSDCCBTCgAwIBAgICAbUwDQYJKoZIhvcNAQEFBQAwgbQxCzAJBgNVBAYTAlVT
MQswCQYDVQQIEwJDQTEVMBMGA1UEBxMMU2FuRnJhbmNpc2NvMRUwEwYDVQQKEwxQ
aXhnbG8sIEluYy4xEDAOBgNVBAsTB1ZQTi1DSUUxGjAYBgNVBAMTEXR1bm5lbC5w
aXhnbG8uY29tMRwwGgYDVQQpExNCYWxhIENoYW5kcmFzZWthcmFuMR4wHAYJKoZI
hvcNAQkBFg9iYWxhQHBpeGdsby5jb20wHhcNMTgwMjE0MDYzNDAyWhcNMjgwMjEy
MDYzNDAyWjCBqTELMAkGA1UEBhMCVVMxCzAJBgNVBAgTAkNBMRUwEwYDVQQHEwxT
YW5GcmFuY2lzY28xFTATBgNVBAoTDFBpeGdsbywgSW5jLjEQMA4GA1UECxMHVlBO
LUNJRTEPMA0GA1UEAxMGY2llNDM2MRwwGgYDVQQpExNCYWxhIENoYW5kcmFzZWth
cmFuMR4wHAYJKoZIhvcNAQkBFg9iYWxhQHBpeGdsby5jb20wggIiMA0GCSqGSIb3
DQEBAQUAA4ICDwAwggIKAoICAQC4j55FQw9iZFgEJbaEyx/PgATd9gU5gqOW1WPM
IDhSi9B9jdmYJO0rjQ9nTsOlH3pTgW3EsYMdyW0U3ZW9YB2UBemIdIc49TXmQNZu
X00/VE9YkUOnYXxjZpBF6NSyi5LlsEA7Y7gj1ugtB77RQM7PCUJed/ObW03+LUrh
CZSCpqMdo6qPx7x0sAKzzQTglDk0a+66q9srRFShe5C25eS+chN9BTN6YdDsIexb
R574adHTSVX98SX86festuVSClNoxlGP4QTaxSrmH6NQHQH2cuYZCdUiXfu4qmLP
QRvRIagIC0qfklMjMAu1UuRD1P6YzOdEtdM/+jhyNrw/siWqV1+sFEm956vm1Ozp
7sAMzx5/769EbIw7RGMa4b4Um2+2tj/9w02IbnJSOTm3998zYxrQKZc5u9r/swwc
TIHt4SmgkPxpUITJpaC94nel67ktQeDXnH0X9hvVVTy3vfavwHGLA9CJpA4DayYc
CHX2h+EENcf3m97LHSXl2GiPOQIbfzrRFWi5ncNrAlxf600pkPczSD+OROO821Cg
70Dpdfw3tJmrhCfXKnq27ShK5dSVnwKKpMAOuiKXB1m0tR0b12PEMydqFI1dAIoZ
MP1LQ0WqDrJhZBklsMy68cn89BEWxi8nrMxx1sDs+hs8xGmuVgWJamwfALjdkGh7
V+O7KQIDAQABo4IBazCCAWcwCQYDVR0TBAIwADAtBglghkgBhvhCAQ0EIBYeRWFz
eS1SU0EgR2VuZXJhdGVkIENlcnRpZmljYXRlMB0GA1UdDgQWBBQCZWHt0ZbK/Gci
Bo4k8JcTXnWVXjCB6QYDVR0jBIHhMIHegBTvOI0UUFinW02cF3L837msp1GwEKGB
uqSBtzCBtDELMAkGA1UEBhMCVVMxCzAJBgNVBAgTAkNBMRUwEwYDVQQHEwxTYW5G
cmFuY2lzY28xFTATBgNVBAoTDFBpeGdsbywgSW5jLjEQMA4GA1UECxMHVlBOLUNJ
RTEaMBgGA1UEAxMRdHVubmVsLnBpeGdsby5jb20xHDAaBgNVBCkTE0JhbGEgQ2hh
bmRyYXNla2FyYW4xHjAcBgkqhkiG9w0BCQEWD2JhbGFAcGl4Z2xvLmNvbYIJAKbb
xoOA5qB5MBMGA1UdJQQMMAoGCCsGAQUFBwMCMAsGA1UdDwQEAwIHgDANBgkqhkiG
9w0BAQUFAAOCAgEArRmwWfvjI08e8rfPHPgTCF7zOheiLA6CxiElo3NOdCBtC5vU
iNKCbKqi+7hNZGm1W6BPEkQhuzob2h+yZUo/kISKVH5j3K15nam+AA2WENi6mJ28
lzOPsimDqKBHRUWI0s9nTp0nGUEJkYnHXgm652N/Yavo57kVIIVstb24+sR06XmS
JwuwGCL/vZpy6FNER6Ig4xBVuojiVAw/EYqklg0eSwEuhRvtBJjpXl9Lb99GyQN1
dhxHEllc78x3vgYY8MrorRJ34gPpeJ7aHzcZTdHU+qU12kPgGh3cLi/JaWrxITHa
8Cl4XKjJ1q/0bWQ8AXhlkm4qCGGrSi74f9zWHBxnezL2r+MMDIcqYaeFqk+6MsB0
V69+x61Eg5ue2omhhjw4+7X6HI/chwAEfkIoBrlOB7klt2cZDt0Z93tJI3/6QNjh
gdjgRA1GssKyxSf4K1DwnVkFUw3UDVKEaob/GgvuF70nLZtMJy/4VzqnfWO8WauA
AK5DwtzXvIl6qaqMFe4ZVvRmioRia5ucJxCop5blZMHZ4wheuM5QjAb1XSvD5P/2
H19HbPNyonKeT3NB8PlwvsTbDHJztDqEYHQW4nBesFPYR726K+iUeH/4drBlXwu/
njXrYuo8Y1KRvhdXFUnWTKPOLu9Rns1dzx+wigfojh5Iga8AAxQMRxEe1Tw=
-----END CERTIFICATE-----
