Certificate:
    Data:
        Version: 3 (0x2)
        Serial Number: 461 (0x1cd)
    Signature Algorithm: sha1WithRSAEncryption
        Issuer: C=US, ST=CA, L=SanFrancisco, O=Pixglo, Inc., OU=VPN-CIE, CN=tunnel.pixglo.com/name=Bala Chandrasekaran/emailAddress=bala@pixglo.com
        Validity
            Not Before: Feb 14 06:34:40 2018 GMT
            Not After : Feb 12 06:34:40 2028 GMT
        Subject: C=US, ST=CA, L=SanFrancisco, O=Pixglo, Inc., OU=VPN-CIE, CN=cie460/name=Bala Chandrasekaran/emailAddress=bala@pixglo.com
        Subject Public Key Info:
            Public Key Algorithm: rsaEncryption
                Public-Key: (4096 bit)
                Modulus:
                    00:b2:78:4f:26:63:03:03:d9:e8:d8:87:fa:96:42:
                    e1:c9:f0:74:98:7d:6e:e9:e5:a2:fc:f2:12:b4:05:
                    de:72:6b:b4:50:fb:71:48:67:3b:6b:ed:0c:65:55:
                    d3:44:cd:d4:23:bd:1a:f8:00:12:db:da:b8:8b:7a:
                    fa:21:29:83:45:1d:9a:8d:71:da:39:f4:fc:bc:1e:
                    6f:3c:4f:bd:51:63:e6:77:84:18:8c:ab:08:91:5b:
                    87:7e:bf:f2:32:41:44:64:45:5f:18:78:ef:b3:04:
                    f6:60:19:05:08:0d:16:bc:6a:a3:99:d7:59:37:04:
                    7c:52:1e:24:0d:74:6a:d5:69:10:e5:c1:be:72:88:
                    ec:40:c2:74:5c:34:76:6f:aa:ee:7d:a3:8b:e8:c4:
                    bd:4b:b2:b9:ea:5f:56:ab:3a:b8:e4:32:18:7a:3b:
                    fb:73:5b:97:f0:39:59:cc:2d:d5:be:f6:b9:9d:3b:
                    fb:0e:32:3e:c3:0d:b3:e6:4a:73:7d:40:7f:93:9c:
                    4b:04:4a:f6:73:04:ea:94:87:ec:f5:7f:62:67:26:
                    36:70:f2:7d:41:78:5a:8a:0a:e5:ba:2a:54:2e:c9:
                    9f:2b:43:41:65:e2:0f:4a:a3:7a:f7:27:f3:ef:0c:
                    79:e3:9a:5d:a8:7c:6b:32:f2:c1:c9:ed:7f:91:f7:
                    45:a1:cc:f0:fe:dd:1c:e4:68:82:5b:d6:17:8e:9e:
                    1c:72:4d:8a:d1:81:1f:aa:b9:d9:d0:d6:e5:b9:bb:
                    41:d0:cf:dd:52:31:f2:47:7b:c2:f3:98:14:97:a7:
                    b7:b4:67:c2:b7:39:49:d2:15:e0:c4:6b:50:cb:64:
                    18:d3:de:4a:6b:46:d1:61:46:84:a2:d2:38:7c:e6:
                    43:5d:44:87:05:2a:77:e3:37:c5:c7:55:ee:00:3f:
                    16:bc:f9:ea:d7:5a:99:36:1d:cb:87:f7:00:8d:d8:
                    74:6a:40:4a:0e:ef:6a:f8:68:d4:dc:98:72:d2:65:
                    79:01:39:66:57:68:8d:d8:b5:7d:b3:bf:6b:bb:e1:
                    86:bb:bc:91:e8:a0:45:04:8a:2d:71:e6:4c:47:0f:
                    4c:7a:1a:e7:6b:21:f0:f0:a8:0e:44:a8:be:7f:44:
                    8d:00:35:05:2a:d2:9c:4c:a4:08:ae:a9:ec:61:ae:
                    5f:fa:be:ad:0c:7a:6d:50:51:61:dc:ef:15:31:6e:
                    1a:08:2f:11:e1:b8:81:38:ae:58:21:36:f7:98:7f:
                    66:08:3f:40:8b:72:b6:16:de:27:ee:ba:b4:58:81:
                    b0:c9:4f:74:25:57:b3:6d:fa:f7:3c:9b:7e:3f:11:
                    7d:4d:15:f7:dc:17:1e:28:5b:7b:3b:53:b4:4e:02:
                    51:04:17
                Exponent: 65537 (0x10001)
        X509v3 extensions:
            X509v3 Basic Constraints: 
                CA:FALSE
            Netscape Comment: 
                Easy-RSA Generated Certificate
            X509v3 Subject Key Identifier: 
                06:5C:8A:F6:4B:73:8C:87:CF:4C:25:80:4B:64:A2:1F:FB:88:B1:2F
            X509v3 Authority Key Identifier: 
                keyid:EF:38:8D:14:50:58:A7:5B:4D:9C:17:72:FC:DF:B9:AC:A7:51:B0:10
                DirName:/C=US/ST=CA/L=SanFrancisco/O=Pixglo, Inc./OU=VPN-CIE/CN=tunnel.pixglo.com/name=Bala Chandrasekaran/emailAddress=bala@pixglo.com
                serial:A6:DB:C6:83:80:E6:A0:79

            X509v3 Extended Key Usage: 
                TLS Web Client Authentication
            X509v3 Key Usage: 
                Digital Signature
    Signature Algorithm: sha1WithRSAEncryption
         12:71:e7:4c:36:80:a5:da:63:60:5a:c1:45:c5:48:12:1c:d2:
         32:72:a5:c0:16:ef:ab:53:4a:12:02:c6:45:fa:f3:ea:21:c1:
         3c:ff:d5:ec:fe:60:39:55:84:3a:5c:51:c5:7e:14:e6:6b:7e:
         dc:03:8a:52:05:2a:e3:c9:29:72:32:ef:69:e9:4f:fa:c5:da:
         28:31:2a:f3:d1:86:f9:a8:24:31:13:96:d1:c3:0d:8e:16:d9:
         4e:55:9c:11:b3:8e:9b:0a:13:36:a7:f4:06:67:7f:99:15:47:
         98:49:a4:73:88:42:92:df:58:07:bb:ff:a1:1d:f4:c1:0f:7c:
         f2:e9:7f:ce:f4:f2:2c:4e:4d:74:84:9c:ba:d0:7c:8c:c6:9f:
         a4:05:b4:6f:f3:e7:e8:91:cf:b7:2a:57:04:79:a1:64:e0:dd:
         f2:d8:ec:06:63:a5:94:5f:56:9f:6f:6e:cc:52:41:d4:6d:1a:
         e2:d8:6f:26:8b:fd:ac:b7:e3:81:31:ae:01:db:a3:d8:ed:46:
         00:d0:fb:e9:10:f4:89:10:a4:71:97:d1:e9:a6:11:56:31:12:
         4e:84:ad:11:d5:4c:54:f3:19:cc:52:ea:98:89:5c:a1:0e:97:
         83:e5:18:68:fa:90:86:cd:42:1b:6c:cc:0c:8c:41:98:24:69:
         23:3a:26:91:cf:3b:8c:ba:b1:40:50:d0:15:40:e4:f7:2e:7f:
         75:34:46:d8:6b:de:b4:a4:98:4f:4c:dd:1e:64:fc:74:75:5c:
         e6:4e:fe:32:2d:11:06:b9:1c:cb:f2:92:58:6d:7f:bc:57:8e:
         68:7a:ec:b3:9b:60:4e:38:de:ab:cb:c6:b4:1b:a7:53:d7:34:
         98:ea:3f:5d:51:07:ff:9f:e9:2f:cb:77:72:8d:34:1c:77:4c:
         84:9d:9f:3e:2d:9c:63:73:49:3c:4d:25:56:fd:fd:dd:ce:2c:
         84:16:98:c9:0e:cb:40:2f:b6:cc:a4:f9:d3:de:04:09:52:43:
         61:f9:28:b1:61:e7:fd:35:38:b9:85:17:f9:c4:bb:58:81:6a:
         38:30:a9:01:4e:3a:e3:59:ed:84:15:e1:04:ae:ab:d6:dc:80:
         e3:39:78:93:7e:e7:00:6c:df:62:37:a8:c2:ca:1e:c1:46:86:
         50:37:f3:74:92:13:a0:f7:3a:88:31:34:52:ea:c3:58:18:74:
         77:95:6c:ec:3f:cb:f4:8e:13:0a:33:3d:fb:50:f8:b0:12:fe:
         b5:ec:ac:4a:65:ce:56:1a:34:0d:ae:cd:a4:a2:be:0b:00:19:
         7f:fa:6d:64:c6:7c:4b:08:42:fb:70:df:55:e1:de:73:21:37:
         70:72:a0:00:ec:f4:e1:f5
-----BEGIN CERTIFICATE-----
MIIHSDCCBTCgAwIBAgICAc0wDQYJKoZIhvcNAQEFBQAwgbQxCzAJBgNVBAYTAlVT
MQswCQYDVQQIEwJDQTEVMBMGA1UEBxMMU2FuRnJhbmNpc2NvMRUwEwYDVQQKEwxQ
aXhnbG8sIEluYy4xEDAOBgNVBAsTB1ZQTi1DSUUxGjAYBgNVBAMTEXR1bm5lbC5w
aXhnbG8uY29tMRwwGgYDVQQpExNCYWxhIENoYW5kcmFzZWthcmFuMR4wHAYJKoZI
hvcNAQkBFg9iYWxhQHBpeGdsby5jb20wHhcNMTgwMjE0MDYzNDQwWhcNMjgwMjEy
MDYzNDQwWjCBqTELMAkGA1UEBhMCVVMxCzAJBgNVBAgTAkNBMRUwEwYDVQQHEwxT
YW5GcmFuY2lzY28xFTATBgNVBAoTDFBpeGdsbywgSW5jLjEQMA4GA1UECxMHVlBO
LUNJRTEPMA0GA1UEAxMGY2llNDYwMRwwGgYDVQQpExNCYWxhIENoYW5kcmFzZWth
cmFuMR4wHAYJKoZIhvcNAQkBFg9iYWxhQHBpeGdsby5jb20wggIiMA0GCSqGSIb3
DQEBAQUAA4ICDwAwggIKAoICAQCyeE8mYwMD2ejYh/qWQuHJ8HSYfW7p5aL88hK0
Bd5ya7RQ+3FIZztr7QxlVdNEzdQjvRr4ABLb2riLevohKYNFHZqNcdo59Py8Hm88
T71RY+Z3hBiMqwiRW4d+v/IyQURkRV8YeO+zBPZgGQUIDRa8aqOZ11k3BHxSHiQN
dGrVaRDlwb5yiOxAwnRcNHZvqu59o4voxL1LsrnqX1arOrjkMhh6O/tzW5fwOVnM
LdW+9rmdO/sOMj7DDbPmSnN9QH+TnEsESvZzBOqUh+z1f2JnJjZw8n1BeFqKCuW6
KlQuyZ8rQ0Fl4g9Ko3r3J/PvDHnjml2ofGsy8sHJ7X+R90WhzPD+3RzkaIJb1heO
nhxyTYrRgR+qudnQ1uW5u0HQz91SMfJHe8LzmBSXp7e0Z8K3OUnSFeDEa1DLZBjT
3kprRtFhRoSi0jh85kNdRIcFKnfjN8XHVe4APxa8+erXWpk2HcuH9wCN2HRqQEoO
72r4aNTcmHLSZXkBOWZXaI3YtX2zv2u74Ya7vJHooEUEii1x5kxHD0x6GudrIfDw
qA5EqL5/RI0ANQUq0pxMpAiuqexhrl/6vq0Mem1QUWHc7xUxbhoILxHhuIE4rlgh
NveYf2YIP0CLcrYW3ifuurRYgbDJT3QlV7Nt+vc8m34/EX1NFffcFx4oW3s7U7RO
AlEEFwIDAQABo4IBazCCAWcwCQYDVR0TBAIwADAtBglghkgBhvhCAQ0EIBYeRWFz
eS1SU0EgR2VuZXJhdGVkIENlcnRpZmljYXRlMB0GA1UdDgQWBBQGXIr2S3OMh89M
JYBLZKIf+4ixLzCB6QYDVR0jBIHhMIHegBTvOI0UUFinW02cF3L837msp1GwEKGB
uqSBtzCBtDELMAkGA1UEBhMCVVMxCzAJBgNVBAgTAkNBMRUwEwYDVQQHEwxTYW5G
cmFuY2lzY28xFTATBgNVBAoTDFBpeGdsbywgSW5jLjEQMA4GA1UECxMHVlBOLUNJ
RTEaMBgGA1UEAxMRdHVubmVsLnBpeGdsby5jb20xHDAaBgNVBCkTE0JhbGEgQ2hh
bmRyYXNla2FyYW4xHjAcBgkqhkiG9w0BCQEWD2JhbGFAcGl4Z2xvLmNvbYIJAKbb
xoOA5qB5MBMGA1UdJQQMMAoGCCsGAQUFBwMCMAsGA1UdDwQEAwIHgDANBgkqhkiG
9w0BAQUFAAOCAgEAEnHnTDaApdpjYFrBRcVIEhzSMnKlwBbvq1NKEgLGRfrz6iHB
PP/V7P5gOVWEOlxRxX4U5mt+3AOKUgUq48kpcjLvaelP+sXaKDEq89GG+agkMROW
0cMNjhbZTlWcEbOOmwoTNqf0Bmd/mRVHmEmkc4hCkt9YB7v/oR30wQ988ul/zvTy
LE5NdIScutB8jMafpAW0b/Pn6JHPtypXBHmhZODd8tjsBmOllF9Wn29uzFJB1G0a
4thvJov9rLfjgTGuAduj2O1GAND76RD0iRCkcZfR6aYRVjESToStEdVMVPMZzFLq
mIlcoQ6Xg+UYaPqQhs1CG2zMDIxBmCRpIzomkc87jLqxQFDQFUDk9y5/dTRG2Gve
tKSYT0zdHmT8dHVc5k7+Mi0RBrkcy/KSWG1/vFeOaHrss5tgTjjeq8vGtBunU9c0
mOo/XVEH/5/pL8t3co00HHdMhJ2fPi2cY3NJPE0lVv393c4shBaYyQ7LQC+2zKT5
094ECVJDYfkosWHn/TU4uYUX+cS7WIFqODCpAU4641nthBXhBK6r1tyA4zl4k37n
AGzfYjeowsoewUaGUDfzdJIToPc6iDE0UurDWBh0d5Vs7D/L9I4TCjM9+1D4sBL+
teysSmXOVho0Da7NpKK+CwAZf/ptZMZ8SwhC+3DfVeHecyE3cHKgAOz04fU=
-----END CERTIFICATE-----
