Certificate:
    Data:
        Version: 3 (0x2)
        Serial Number: 496 (0x1f0)
    Signature Algorithm: sha1WithRSAEncryption
        Issuer: C=US, ST=CA, L=SanFrancisco, O=Pixglo, Inc., OU=VPN-CIE, CN=tunnel.pixglo.com/name=Bala Chandrasekaran/emailAddress=bala@pixglo.com
        Validity
            Not Before: Feb 14 06:35:35 2018 GMT
            Not After : Feb 12 06:35:35 2028 GMT
        Subject: C=US, ST=CA, L=SanFrancisco, O=Pixglo, Inc., OU=VPN-CIE, CN=cie495/name=Bala Chandrasekaran/emailAddress=bala@pixglo.com
        Subject Public Key Info:
            Public Key Algorithm: rsaEncryption
                Public-Key: (4096 bit)
                Modulus:
                    00:c5:95:40:18:4e:76:fc:83:a8:fa:1f:a2:2b:a1:
                    e3:8e:83:03:83:c1:ca:e9:4c:56:64:75:15:56:34:
                    3a:5e:0d:d6:07:ac:a9:15:a1:d7:18:b1:f6:7a:ea:
                    1e:1d:49:10:1c:8e:db:e2:26:1c:0f:16:64:7c:37:
                    02:b2:fe:dd:5d:fe:29:cd:e7:40:9a:df:18:a6:45:
                    f5:96:33:3a:fe:88:c8:ed:33:2a:ed:d4:99:35:c1:
                    8a:b4:b9:c3:d4:dc:17:6c:f3:a4:d9:b6:21:1f:62:
                    8b:e3:87:2a:15:d4:ed:ab:f4:32:db:30:89:4a:c4:
                    90:36:40:5b:9b:4e:8d:f4:14:d0:42:c8:68:7c:b4:
                    9d:3a:47:3f:06:f2:0e:70:33:ae:bf:e0:36:79:f3:
                    65:72:0c:5c:25:13:45:ff:5e:42:79:d1:f7:c8:53:
                    15:05:28:92:ca:03:eb:81:27:91:ef:b2:d5:38:1e:
                    e6:c6:3b:50:98:4f:94:28:9e:54:1a:1e:3d:a1:c3:
                    b9:a8:d8:67:ac:e4:09:05:ef:2f:94:3f:9d:43:96:
                    4f:d9:5b:ab:17:bc:3c:e2:72:94:cf:53:99:5c:d1:
                    b2:25:6c:5e:6d:6e:7d:54:41:74:1c:0a:94:0a:47:
                    44:7d:57:b9:a5:4a:e4:f5:ac:b6:40:da:32:12:32:
                    a6:47:7a:f1:58:fa:4a:45:bd:00:83:a7:0b:6f:27:
                    98:78:f4:98:f0:e7:1f:28:a5:64:3f:9d:51:4a:0b:
                    0f:fd:08:52:f2:a4:3e:3f:d5:21:24:c3:58:4b:76:
                    94:83:31:4f:ab:11:b1:06:ec:cd:6f:9c:57:2f:1e:
                    f1:ef:1a:d4:b1:6b:2b:9b:ae:06:58:02:42:bc:14:
                    dd:28:3d:16:26:b5:7c:43:af:1e:e3:aa:ec:4b:20:
                    d9:eb:24:c1:8a:20:c9:a4:dd:7d:1d:03:30:f7:6c:
                    5a:c0:39:fc:66:58:c1:ec:5d:bc:1c:2e:f0:fe:1a:
                    4b:94:2b:99:86:ac:50:ed:37:40:4c:cc:81:ca:e5:
                    85:cb:eb:5c:4e:c3:a7:73:96:94:32:61:8f:f6:33:
                    1c:1a:1a:d1:82:7f:05:78:df:bb:c0:f5:f4:ae:03:
                    0f:15:ba:86:f5:fc:f5:7e:53:63:29:58:05:6a:34:
                    b9:91:81:4e:0a:20:8b:eb:69:c3:4a:a9:dc:e8:a0:
                    9d:b9:a7:6e:d4:39:de:da:49:b0:8a:60:db:d3:e6:
                    42:4e:c4:45:fd:14:32:72:7c:f5:88:0d:aa:9a:ca:
                    98:1a:28:cd:e0:68:e6:93:64:ff:9f:e1:14:86:74:
                    0a:64:a7:f5:71:c3:e4:7d:65:16:74:61:3c:71:98:
                    6b:19:b1
                Exponent: 65537 (0x10001)
        X509v3 extensions:
            X509v3 Basic Constraints: 
                CA:FALSE
            Netscape Comment: 
                Easy-RSA Generated Certificate
            X509v3 Subject Key Identifier: 
                C8:2B:3D:B7:F3:0E:2C:D7:BC:C4:AB:0E:2B:A8:FB:9B:8B:F4:72:72
            X509v3 Authority Key Identifier: 
                keyid:EF:38:8D:14:50:58:A7:5B:4D:9C:17:72:FC:DF:B9:AC:A7:51:B0:10
                DirName:/C=US/ST=CA/L=SanFrancisco/O=Pixglo, Inc./OU=VPN-CIE/CN=tunnel.pixglo.com/name=Bala Chandrasekaran/emailAddress=bala@pixglo.com
                serial:A6:DB:C6:83:80:E6:A0:79

            X509v3 Extended Key Usage: 
                TLS Web Client Authentication
            X509v3 Key Usage: 
                Digital Signature
    Signature Algorithm: sha1WithRSAEncryption
         c9:5e:3f:36:f9:93:5b:98:b4:6c:6f:d5:4c:25:e3:05:53:a4:
         cf:5f:74:d8:e7:dd:24:ab:69:c9:22:9a:3f:6a:61:14:b0:84:
         0c:47:98:00:f0:30:29:61:ff:b8:21:8a:10:7b:78:a6:c4:3d:
         f3:97:ff:a6:d0:16:08:c0:97:ca:98:29:78:6e:16:c5:e8:74:
         bb:75:be:cf:3f:42:4f:a1:4b:07:95:2c:9d:32:9b:d0:76:ea:
         4b:53:f0:d3:c1:f6:fa:89:29:34:07:6f:1a:17:ce:dd:03:07:
         e9:b0:fc:9d:1e:7b:fd:5b:a1:39:7f:06:e1:17:17:ab:3e:a1:
         71:f6:dd:de:8e:ee:6a:15:d1:fd:5f:26:5c:8f:e3:3f:17:f4:
         ee:c4:f7:7b:23:8f:78:9d:e8:16:21:90:cd:3a:6b:cc:c1:3c:
         6a:92:f2:15:be:93:97:71:ac:63:40:76:e4:f6:42:e1:9f:25:
         2b:31:b5:bb:31:69:10:73:8f:22:8a:94:1c:90:41:8b:35:8c:
         71:c9:9c:b0:3e:81:f0:cd:56:2d:5c:92:41:cd:eb:82:a9:7a:
         62:81:f2:3e:bf:29:b1:21:e2:47:a0:0b:ad:8c:85:f1:ee:f9:
         0a:31:9b:0e:a2:bb:05:be:70:a4:7d:12:4a:e2:2b:f8:01:91:
         50:79:23:9e:54:02:e1:2a:4d:3f:5f:bd:2f:1f:6b:d4:e2:64:
         e2:67:77:2e:b5:0b:b1:6d:01:7b:d9:ab:d0:9d:76:8e:a3:7c:
         36:81:28:22:78:bd:02:3e:66:89:d6:99:7d:a0:13:e6:cf:47:
         65:e4:af:07:0a:4d:d5:13:d5:27:c9:c6:dc:01:36:89:02:44:
         2b:7f:ed:f5:01:4f:65:a4:74:f6:9c:33:20:7c:f2:85:cd:0e:
         bc:c1:8c:74:4d:09:f3:66:a5:76:23:7e:7a:39:f5:8a:f8:2c:
         eb:5a:91:bd:0e:ac:6a:2d:1b:0d:fd:bc:c1:f9:6a:c8:6b:ee:
         61:c3:06:82:29:32:e1:47:dc:ae:64:af:27:b7:27:2f:87:4d:
         bb:2a:75:74:91:8c:03:1b:1b:00:a7:99:72:b1:84:74:3d:cd:
         6c:10:f6:66:19:21:55:d6:9a:74:06:10:78:62:2d:4a:f3:e4:
         0e:51:47:23:93:86:66:95:a8:1d:26:c9:38:1e:6a:96:7f:0c:
         1a:39:66:fc:f3:06:d9:43:38:d6:52:0e:d5:03:2c:a2:a6:ae:
         07:58:c8:10:49:47:62:ea:16:c7:ca:43:da:00:8f:62:76:50:
         f6:69:0b:1d:11:01:e4:d1:ab:2c:6d:ca:9d:df:c5:14:30:70:
         89:ef:8b:6c:e4:c9:12:7b
-----BEGIN CERTIFICATE-----
MIIHSDCCBTCgAwIBAgICAfAwDQYJKoZIhvcNAQEFBQAwgbQxCzAJBgNVBAYTAlVT
MQswCQYDVQQIEwJDQTEVMBMGA1UEBxMMU2FuRnJhbmNpc2NvMRUwEwYDVQQKEwxQ
aXhnbG8sIEluYy4xEDAOBgNVBAsTB1ZQTi1DSUUxGjAYBgNVBAMTEXR1bm5lbC5w
aXhnbG8uY29tMRwwGgYDVQQpExNCYWxhIENoYW5kcmFzZWthcmFuMR4wHAYJKoZI
hvcNAQkBFg9iYWxhQHBpeGdsby5jb20wHhcNMTgwMjE0MDYzNTM1WhcNMjgwMjEy
MDYzNTM1WjCBqTELMAkGA1UEBhMCVVMxCzAJBgNVBAgTAkNBMRUwEwYDVQQHEwxT
YW5GcmFuY2lzY28xFTATBgNVBAoTDFBpeGdsbywgSW5jLjEQMA4GA1UECxMHVlBO
LUNJRTEPMA0GA1UEAxMGY2llNDk1MRwwGgYDVQQpExNCYWxhIENoYW5kcmFzZWth
cmFuMR4wHAYJKoZIhvcNAQkBFg9iYWxhQHBpeGdsby5jb20wggIiMA0GCSqGSIb3
DQEBAQUAA4ICDwAwggIKAoICAQDFlUAYTnb8g6j6H6IroeOOgwODwcrpTFZkdRVW
NDpeDdYHrKkVodcYsfZ66h4dSRAcjtviJhwPFmR8NwKy/t1d/inN50Ca3ximRfWW
Mzr+iMjtMyrt1Jk1wYq0ucPU3Bds86TZtiEfYovjhyoV1O2r9DLbMIlKxJA2QFub
To30FNBCyGh8tJ06Rz8G8g5wM66/4DZ582VyDFwlE0X/XkJ50ffIUxUFKJLKA+uB
J5HvstU4HubGO1CYT5QonlQaHj2hw7mo2Ges5AkF7y+UP51Dlk/ZW6sXvDzicpTP
U5lc0bIlbF5tbn1UQXQcCpQKR0R9V7mlSuT1rLZA2jISMqZHevFY+kpFvQCDpwtv
J5h49Jjw5x8opWQ/nVFKCw/9CFLypD4/1SEkw1hLdpSDMU+rEbEG7M1vnFcvHvHv
GtSxayubrgZYAkK8FN0oPRYmtXxDrx7jquxLINnrJMGKIMmk3X0dAzD3bFrAOfxm
WMHsXbwcLvD+GkuUK5mGrFDtN0BMzIHK5YXL61xOw6dzlpQyYY/2MxwaGtGCfwV4
37vA9fSuAw8Vuob1/PV+U2MpWAVqNLmRgU4KIIvracNKqdzooJ25p27UOd7aSbCK
YNvT5kJOxEX9FDJyfPWIDaqaypgaKM3gaOaTZP+f4RSGdApkp/Vxw+R9ZRZ0YTxx
mGsZsQIDAQABo4IBazCCAWcwCQYDVR0TBAIwADAtBglghkgBhvhCAQ0EIBYeRWFz
eS1SU0EgR2VuZXJhdGVkIENlcnRpZmljYXRlMB0GA1UdDgQWBBTIKz238w4s17zE
qw4rqPubi/RycjCB6QYDVR0jBIHhMIHegBTvOI0UUFinW02cF3L837msp1GwEKGB
uqSBtzCBtDELMAkGA1UEBhMCVVMxCzAJBgNVBAgTAkNBMRUwEwYDVQQHEwxTYW5G
cmFuY2lzY28xFTATBgNVBAoTDFBpeGdsbywgSW5jLjEQMA4GA1UECxMHVlBOLUNJ
RTEaMBgGA1UEAxMRdHVubmVsLnBpeGdsby5jb20xHDAaBgNVBCkTE0JhbGEgQ2hh
bmRyYXNla2FyYW4xHjAcBgkqhkiG9w0BCQEWD2JhbGFAcGl4Z2xvLmNvbYIJAKbb
xoOA5qB5MBMGA1UdJQQMMAoGCCsGAQUFBwMCMAsGA1UdDwQEAwIHgDANBgkqhkiG
9w0BAQUFAAOCAgEAyV4/NvmTW5i0bG/VTCXjBVOkz1902OfdJKtpySKaP2phFLCE
DEeYAPAwKWH/uCGKEHt4psQ985f/ptAWCMCXypgpeG4Wxeh0u3W+zz9CT6FLB5Us
nTKb0HbqS1Pw08H2+okpNAdvGhfO3QMH6bD8nR57/VuhOX8G4RcXqz6hcfbd3o7u
ahXR/V8mXI/jPxf07sT3eyOPeJ3oFiGQzTprzME8apLyFb6Tl3GsY0B25PZC4Z8l
KzG1uzFpEHOPIoqUHJBBizWMccmcsD6B8M1WLVySQc3rgql6YoHyPr8psSHiR6AL
rYyF8e75CjGbDqK7Bb5wpH0SSuIr+AGRUHkjnlQC4SpNP1+9Lx9r1OJk4md3LrUL
sW0Be9mr0J12jqN8NoEoIni9Aj5midaZfaAT5s9HZeSvBwpN1RPVJ8nG3AE2iQJE
K3/t9QFPZaR09pwzIHzyhc0OvMGMdE0J82aldiN+ejn1ivgs61qRvQ6sai0bDf28
wflqyGvuYcMGgiky4UfcrmSvJ7cnL4dNuyp1dJGMAxsbAKeZcrGEdD3NbBD2Zhkh
VdaadAYQeGItSvPkDlFHI5OGZpWoHSbJOB5qln8MGjlm/PMG2UM41lIO1QMsoqau
B1jIEElHYuoWx8pD2gCPYnZQ9mkLHREB5NGrLG3Knd/FFDBwie+LbOTJEns=
-----END CERTIFICATE-----
