Certificate:
    Data:
        Version: 3 (0x2)
        Serial Number: 405 (0x195)
    Signature Algorithm: sha1WithRSAEncryption
        Issuer: C=US, ST=CA, L=SanFrancisco, O=Pixglo, Inc., OU=VPN-CIE, CN=tunnel.pixglo.com/name=Bala Chandrasekaran/emailAddress=bala@pixglo.com
        Validity
            Not Before: Feb 14 06:32:55 2018 GMT
            Not After : Feb 12 06:32:55 2028 GMT
        Subject: C=US, ST=CA, L=SanFrancisco, O=Pixglo, Inc., OU=VPN-CIE, CN=cie404/name=Bala Chandrasekaran/emailAddress=bala@pixglo.com
        Subject Public Key Info:
            Public Key Algorithm: rsaEncryption
                Public-Key: (4096 bit)
                Modulus:
                    00:9e:6f:df:6c:6f:11:23:b5:4a:3f:f6:84:e4:13:
                    70:be:c6:91:56:35:85:d3:1f:28:a4:41:d5:cc:d9:
                    86:a2:08:60:16:a7:47:fa:59:35:33:37:47:79:9a:
                    86:bf:7b:24:9b:84:e7:a3:33:3f:36:8a:54:78:df:
                    31:91:11:2b:a2:32:46:a3:dd:45:42:f4:da:54:13:
                    e0:85:b7:83:6d:8b:d6:dd:96:5e:21:06:36:fd:3d:
                    55:fe:a1:70:2e:28:66:b6:fb:15:4a:a0:31:02:7b:
                    f9:4e:8f:37:62:27:f3:92:11:f9:ff:3f:34:c3:c7:
                    16:ba:58:9c:18:e6:ec:d1:28:2a:4a:48:b5:f4:8a:
                    b3:31:05:c3:22:c7:fe:b6:12:7e:d3:85:48:98:0c:
                    9a:1e:1f:17:a7:16:5b:07:43:7a:3f:24:3d:96:5e:
                    c5:b2:4c:e8:a1:60:a2:55:44:c5:58:a8:74:a0:ef:
                    74:15:ca:3a:a2:4c:85:bb:0e:0e:ff:b6:85:55:32:
                    9f:22:35:c9:8e:17:9f:fb:28:21:dd:53:73:95:29:
                    97:5c:a3:0d:0a:c4:4e:52:91:02:fe:65:42:81:3d:
                    5c:eb:1d:01:c1:ce:79:4f:ae:92:97:2d:04:55:45:
                    d9:6c:62:c2:63:16:47:62:ee:af:a4:c8:87:70:e2:
                    41:09:95:22:4a:f7:45:af:dd:83:51:43:35:41:6e:
                    d3:e6:b6:c5:2e:9e:38:b2:96:10:cd:9e:be:7e:b0:
                    05:7d:97:bd:8c:c4:29:5a:dd:0a:4f:f7:a1:7d:51:
                    2f:b9:fe:18:71:c3:23:1d:7e:12:35:84:49:ee:c9:
                    e0:ec:60:ae:1e:af:e3:cd:2a:b8:b8:7a:7f:9a:c8:
                    a2:84:5f:18:10:dd:18:3e:08:ae:21:4b:58:07:b0:
                    aa:30:0e:98:02:9c:44:68:91:ea:46:99:00:5f:cc:
                    5d:4f:ff:3c:11:22:4a:42:dd:52:6b:1d:79:70:cd:
                    dd:4e:e0:ab:65:68:96:8a:eb:d8:a7:89:fd:5d:7d:
                    d2:b0:8d:be:12:a0:bc:a8:83:59:d4:f2:4b:15:d5:
                    8b:6e:2c:54:cc:6c:5f:43:9f:90:c4:02:24:11:60:
                    30:6c:85:0b:92:d2:c2:cc:9c:1e:b6:f1:62:ae:95:
                    d8:a6:45:df:42:70:44:6c:0e:33:9b:c7:0f:83:86:
                    1f:f7:a6:69:36:a3:ad:65:b8:e5:95:f9:4a:8e:f4:
                    d2:d1:38:0d:67:c3:e9:f5:d6:af:e1:c7:16:e2:1b:
                    8c:8f:71:1e:ed:7f:86:99:f8:f9:5f:6b:c1:fb:db:
                    92:cb:8e:0d:9c:ae:fb:97:1d:48:e1:4a:55:0b:8d:
                    01:31:b3
                Exponent: 65537 (0x10001)
        X509v3 extensions:
            X509v3 Basic Constraints: 
                CA:FALSE
            Netscape Comment: 
                Easy-RSA Generated Certificate
            X509v3 Subject Key Identifier: 
                A6:38:D6:BB:07:4D:B7:12:3C:9F:5A:D4:00:37:B7:DF:E6:1C:EF:49
            X509v3 Authority Key Identifier: 
                keyid:EF:38:8D:14:50:58:A7:5B:4D:9C:17:72:FC:DF:B9:AC:A7:51:B0:10
                DirName:/C=US/ST=CA/L=SanFrancisco/O=Pixglo, Inc./OU=VPN-CIE/CN=tunnel.pixglo.com/name=Bala Chandrasekaran/emailAddress=bala@pixglo.com
                serial:A6:DB:C6:83:80:E6:A0:79

            X509v3 Extended Key Usage: 
                TLS Web Client Authentication
            X509v3 Key Usage: 
                Digital Signature
    Signature Algorithm: sha1WithRSAEncryption
         c8:3f:d9:b6:6d:eb:15:b8:1f:a6:89:9b:bf:ca:fa:b9:cb:06:
         ea:aa:19:96:b6:72:68:c7:e0:d7:19:94:e8:ed:3f:5b:b3:88:
         b5:4d:f2:1f:44:9e:38:7d:ec:4b:ad:8d:f1:5a:67:47:0c:28:
         09:e1:4f:26:25:23:ec:a8:51:ef:06:27:6c:db:97:e6:39:c1:
         e6:04:38:ff:1f:3a:53:47:36:b0:83:8f:47:f5:e8:78:b7:68:
         76:92:92:26:bc:2d:c3:8d:7e:8d:cc:2b:76:d3:07:3d:7f:6f:
         f1:5c:a3:3f:7b:b2:46:ba:de:c6:29:69:7d:fa:25:bd:41:7c:
         af:05:88:1d:2d:b2:a0:26:23:5c:dd:87:20:65:72:41:48:c1:
         70:b0:24:6d:b4:bc:ce:ad:f4:f3:81:56:64:ac:d0:c4:36:49:
         7a:a7:4d:bf:4f:b9:be:02:ef:c5:6d:b5:e9:49:93:af:c2:7b:
         25:e6:68:6e:d9:a6:e2:c2:bb:25:c5:a7:25:cb:93:cb:f2:46:
         d4:18:57:82:94:f0:f4:29:a9:06:0c:94:79:69:80:94:72:af:
         a2:78:a2:ac:56:62:fb:cc:93:8e:1a:46:f1:96:88:f1:68:ce:
         aa:c7:5f:99:0a:b9:74:a6:af:d3:7e:5d:68:61:e7:2a:5d:fa:
         71:1b:91:cf:ee:30:dd:f8:86:0e:97:19:db:5b:48:d1:bd:b2:
         e5:ef:ea:77:05:11:1c:8b:c6:fd:20:69:cb:8c:89:a4:6a:2b:
         96:d3:b9:51:78:8c:ec:45:29:4e:7c:9e:73:62:15:26:cd:48:
         17:09:00:06:ec:46:3e:13:4f:37:f5:06:1a:7f:2c:d3:44:e9:
         cc:35:44:3a:5f:93:2f:f4:85:dd:27:b7:c2:54:65:65:62:a4:
         18:65:89:0d:14:36:85:c5:8a:1e:f3:11:41:af:7e:7c:ab:6a:
         02:70:39:1f:c5:d8:e8:59:4d:55:ec:17:17:94:67:55:2d:ea:
         50:d0:d3:32:dd:9f:42:d6:1a:43:38:4e:61:ae:fb:f3:39:40:
         a3:ae:eb:1d:ce:48:4e:46:b7:92:8c:70:e1:75:10:af:d9:15:
         24:ec:b2:6d:12:56:80:8f:1a:93:35:eb:e0:26:4f:7f:4f:88:
         76:83:dd:63:62:dc:94:db:59:f8:30:69:30:7d:e3:ac:ab:5f:
         09:06:70:2f:da:ca:38:30:36:54:f7:a7:d2:04:44:22:4c:c0:
         dd:fc:39:0d:fc:7a:da:b0:9f:78:11:b8:97:90:6c:f2:3f:ff:
         cd:aa:d8:d8:dc:82:c3:24:dc:87:89:a7:15:94:89:a6:22:98:
         d5:e4:74:3d:f1:17:ec:77
-----BEGIN CERTIFICATE-----
MIIHSDCCBTCgAwIBAgICAZUwDQYJKoZIhvcNAQEFBQAwgbQxCzAJBgNVBAYTAlVT
MQswCQYDVQQIEwJDQTEVMBMGA1UEBxMMU2FuRnJhbmNpc2NvMRUwEwYDVQQKEwxQ
aXhnbG8sIEluYy4xEDAOBgNVBAsTB1ZQTi1DSUUxGjAYBgNVBAMTEXR1bm5lbC5w
aXhnbG8uY29tMRwwGgYDVQQpExNCYWxhIENoYW5kcmFzZWthcmFuMR4wHAYJKoZI
hvcNAQkBFg9iYWxhQHBpeGdsby5jb20wHhcNMTgwMjE0MDYzMjU1WhcNMjgwMjEy
MDYzMjU1WjCBqTELMAkGA1UEBhMCVVMxCzAJBgNVBAgTAkNBMRUwEwYDVQQHEwxT
YW5GcmFuY2lzY28xFTATBgNVBAoTDFBpeGdsbywgSW5jLjEQMA4GA1UECxMHVlBO
LUNJRTEPMA0GA1UEAxMGY2llNDA0MRwwGgYDVQQpExNCYWxhIENoYW5kcmFzZWth
cmFuMR4wHAYJKoZIhvcNAQkBFg9iYWxhQHBpeGdsby5jb20wggIiMA0GCSqGSIb3
DQEBAQUAA4ICDwAwggIKAoICAQCeb99sbxEjtUo/9oTkE3C+xpFWNYXTHyikQdXM
2YaiCGAWp0f6WTUzN0d5moa/eySbhOejMz82ilR43zGRESuiMkaj3UVC9NpUE+CF
t4Nti9bdll4hBjb9PVX+oXAuKGa2+xVKoDECe/lOjzdiJ/OSEfn/PzTDxxa6WJwY
5uzRKCpKSLX0irMxBcMix/62En7ThUiYDJoeHxenFlsHQ3o/JD2WXsWyTOihYKJV
RMVYqHSg73QVyjqiTIW7Dg7/toVVMp8iNcmOF5/7KCHdU3OVKZdcow0KxE5SkQL+
ZUKBPVzrHQHBznlPrpKXLQRVRdlsYsJjFkdi7q+kyIdw4kEJlSJK90Wv3YNRQzVB
btPmtsUunjiylhDNnr5+sAV9l72MxCla3QpP96F9US+5/hhxwyMdfhI1hEnuyeDs
YK4er+PNKri4en+ayKKEXxgQ3Rg+CK4hS1gHsKowDpgCnERokepGmQBfzF1P/zwR
IkpC3VJrHXlwzd1O4KtlaJaK69inif1dfdKwjb4SoLyog1nU8ksV1YtuLFTMbF9D
n5DEAiQRYDBshQuS0sLMnB628WKuldimRd9CcERsDjObxw+Dhh/3pmk2o61luOWV
+UqO9NLROA1nw+n11q/hxxbiG4yPcR7tf4aZ+Plfa8H725LLjg2crvuXHUjhSlUL
jQExswIDAQABo4IBazCCAWcwCQYDVR0TBAIwADAtBglghkgBhvhCAQ0EIBYeRWFz
eS1SU0EgR2VuZXJhdGVkIENlcnRpZmljYXRlMB0GA1UdDgQWBBSmONa7B023Ejyf
WtQAN7ff5hzvSTCB6QYDVR0jBIHhMIHegBTvOI0UUFinW02cF3L837msp1GwEKGB
uqSBtzCBtDELMAkGA1UEBhMCVVMxCzAJBgNVBAgTAkNBMRUwEwYDVQQHEwxTYW5G
cmFuY2lzY28xFTATBgNVBAoTDFBpeGdsbywgSW5jLjEQMA4GA1UECxMHVlBOLUNJ
RTEaMBgGA1UEAxMRdHVubmVsLnBpeGdsby5jb20xHDAaBgNVBCkTE0JhbGEgQ2hh
bmRyYXNla2FyYW4xHjAcBgkqhkiG9w0BCQEWD2JhbGFAcGl4Z2xvLmNvbYIJAKbb
xoOA5qB5MBMGA1UdJQQMMAoGCCsGAQUFBwMCMAsGA1UdDwQEAwIHgDANBgkqhkiG
9w0BAQUFAAOCAgEAyD/Ztm3rFbgfpombv8r6ucsG6qoZlrZyaMfg1xmU6O0/W7OI
tU3yH0SeOH3sS62N8VpnRwwoCeFPJiUj7KhR7wYnbNuX5jnB5gQ4/x86U0c2sIOP
R/XoeLdodpKSJrwtw41+jcwrdtMHPX9v8VyjP3uyRrrexilpffolvUF8rwWIHS2y
oCYjXN2HIGVyQUjBcLAkbbS8zq3084FWZKzQxDZJeqdNv0+5vgLvxW216UmTr8J7
JeZobtmm4sK7JcWnJcuTy/JG1BhXgpTw9CmpBgyUeWmAlHKvoniirFZi+8yTjhpG
8ZaI8WjOqsdfmQq5dKav035daGHnKl36cRuRz+4w3fiGDpcZ21tI0b2y5e/qdwUR
HIvG/SBpy4yJpGorltO5UXiM7EUpTnyec2IVJs1IFwkABuxGPhNPN/UGGn8s00Tp
zDVEOl+TL/SF3Se3wlRlZWKkGGWJDRQ2hcWKHvMRQa9+fKtqAnA5H8XY6FlNVewX
F5RnVS3qUNDTMt2fQtYaQzhOYa778zlAo67rHc5ITka3koxw4XUQr9kVJOyybRJW
gI8akzXr4CZPf0+IdoPdY2LclNtZ+DBpMH3jrKtfCQZwL9rKODA2VPen0gREIkzA
3fw5Dfx62rCfeBG4l5Bs8j//zarY2NyCwyTch4mnFZSJpiKY1eR0PfEX7Hc=
-----END CERTIFICATE-----
