Certificate:
    Data:
        Version: 3 (0x2)
        Serial Number: 473 (0x1d9)
    Signature Algorithm: sha1WithRSAEncryption
        Issuer: C=US, ST=CA, L=SanFrancisco, O=Pixglo, Inc., OU=VPN-CIE, CN=tunnel.pixglo.com/name=Bala Chandrasekaran/emailAddress=bala@pixglo.com
        Validity
            Not Before: Feb 14 06:34:57 2018 GMT
            Not After : Feb 12 06:34:57 2028 GMT
        Subject: C=US, ST=CA, L=SanFrancisco, O=Pixglo, Inc., OU=VPN-CIE, CN=cie472/name=Bala Chandrasekaran/emailAddress=bala@pixglo.com
        Subject Public Key Info:
            Public Key Algorithm: rsaEncryption
                Public-Key: (4096 bit)
                Modulus:
                    00:af:2a:d2:e0:90:aa:7d:14:ef:a3:8a:3c:1e:9a:
                    0e:d4:41:0d:52:de:56:56:6e:71:77:5f:9d:4e:0f:
                    4b:97:f3:b1:27:15:d6:e8:0b:e7:8f:0f:88:ed:6c:
                    22:f8:d8:ae:c7:ba:26:da:df:aa:03:35:41:88:8d:
                    e6:98:dc:30:72:b6:79:c8:06:56:b0:fc:35:b3:bc:
                    16:47:a3:65:7e:c9:1d:97:02:41:f5:9b:36:ac:5b:
                    84:71:d0:99:18:8a:50:f0:32:14:9a:93:84:36:fb:
                    2e:39:db:e4:e6:21:98:a3:9c:41:6e:5f:ad:ad:49:
                    c2:b5:9e:5e:f4:4e:36:11:e6:d7:25:b3:45:82:4b:
                    cb:4a:38:12:dc:03:54:1f:3c:e6:d0:95:63:ba:70:
                    af:bb:60:ef:9b:65:c0:51:85:a2:f5:84:f0:3b:d8:
                    29:58:41:3c:8b:e6:cb:6c:26:87:c7:bd:39:3b:8f:
                    25:3b:88:8a:5f:32:6d:68:7d:ee:80:95:18:a2:b4:
                    ec:46:f4:b6:f9:33:c0:6d:5c:1f:9d:0e:45:37:03:
                    71:ba:8b:5b:17:86:82:64:b6:25:ef:5b:e5:bb:73:
                    3c:20:f9:0a:26:7e:87:3c:6c:64:2c:a5:61:57:ef:
                    a5:34:7b:ff:d3:71:9d:9c:44:34:81:28:7e:65:45:
                    82:d2:45:47:83:be:51:14:6a:a1:e2:99:ee:ac:1a:
                    9b:93:79:4b:2f:9f:5d:8a:ba:31:9a:a2:b5:74:34:
                    28:5e:1e:37:ef:ef:f9:2d:94:a0:b5:94:07:35:7e:
                    8b:76:5a:1b:ba:f3:55:5e:97:7e:44:62:76:76:2a:
                    8b:49:fe:46:1f:51:34:2c:c6:e5:9c:0a:44:b5:b3:
                    70:38:55:79:63:70:f1:c5:34:f8:6c:5d:ca:88:ae:
                    d6:91:65:01:91:26:f6:3c:d0:dd:6f:ee:4b:5a:af:
                    f8:b6:6f:a3:e2:02:e0:90:4f:5c:17:d7:4a:36:a5:
                    38:03:0f:df:35:dd:16:4d:af:32:0f:d9:e5:e3:df:
                    74:f5:5b:7e:f4:a3:3b:c8:79:94:f0:39:59:d3:5e:
                    ab:26:15:0b:18:3b:74:6d:c8:83:af:c3:d2:45:8a:
                    07:89:a0:e3:0a:63:45:5b:78:3b:4e:06:41:c4:d2:
                    3a:67:e2:1c:00:7e:50:76:38:be:de:a2:ee:61:76:
                    b1:b1:3d:2d:18:aa:01:f4:76:11:c1:60:df:f6:bb:
                    11:3a:d4:e2:8d:0f:ba:08:e4:b2:89:2b:e3:ac:77:
                    27:90:d8:90:2a:3f:cd:15:d1:71:0c:0e:6c:fb:0c:
                    62:e8:cf:2e:b0:6f:ef:40:96:44:f8:ed:bd:fe:9f:
                    69:b7:1f
                Exponent: 65537 (0x10001)
        X509v3 extensions:
            X509v3 Basic Constraints: 
                CA:FALSE
            Netscape Comment: 
                Easy-RSA Generated Certificate
            X509v3 Subject Key Identifier: 
                6B:4C:AC:05:A5:BC:16:23:FF:3A:E0:A2:75:B4:D6:DD:A6:64:EF:E5
            X509v3 Authority Key Identifier: 
                keyid:EF:38:8D:14:50:58:A7:5B:4D:9C:17:72:FC:DF:B9:AC:A7:51:B0:10
                DirName:/C=US/ST=CA/L=SanFrancisco/O=Pixglo, Inc./OU=VPN-CIE/CN=tunnel.pixglo.com/name=Bala Chandrasekaran/emailAddress=bala@pixglo.com
                serial:A6:DB:C6:83:80:E6:A0:79

            X509v3 Extended Key Usage: 
                TLS Web Client Authentication
            X509v3 Key Usage: 
                Digital Signature
    Signature Algorithm: sha1WithRSAEncryption
         30:08:81:ff:d7:e1:0a:83:d0:2e:cd:43:17:d5:63:3f:0b:c0:
         c1:59:cb:b3:be:41:7c:92:8d:a3:a1:63:b9:51:25:db:9c:3b:
         58:8a:f2:f3:9e:de:d6:4e:ce:6d:ce:de:b0:d7:35:26:58:45:
         22:b9:f3:ab:24:ca:81:ad:db:17:da:2c:ae:03:61:83:2b:63:
         e5:12:27:5c:5f:fe:cf:c4:9d:7d:3b:65:7b:42:a3:63:27:ae:
         75:0f:a7:0a:43:e1:25:34:54:b1:ab:74:ca:ec:44:f1:de:6b:
         c7:ad:15:9b:78:17:b4:02:20:d0:2c:8f:12:f5:80:48:06:43:
         d6:8c:8c:e8:fe:c0:11:a3:7f:91:5a:d1:40:fa:56:c6:8f:d1:
         a7:7b:fd:d8:ff:d9:d5:3a:27:b7:e4:a0:da:9b:49:b1:f8:5d:
         88:b6:dd:af:94:8d:bc:da:22:66:c0:85:d2:47:eb:9a:45:b8:
         dd:d4:ce:15:24:a7:da:6b:06:4b:5d:ef:f8:bc:b9:4b:11:66:
         70:8c:3b:2c:06:d3:cb:4a:de:1b:79:a3:f2:91:23:89:73:e8:
         50:28:4c:15:c3:d0:fe:7e:1b:35:47:ea:8d:52:3c:58:f3:72:
         b4:b7:96:25:98:ea:96:87:6e:49:73:0d:33:69:07:81:4a:94:
         7d:82:63:82:57:71:5a:0f:07:3c:a3:dd:01:ed:08:2c:d9:a1:
         a2:70:18:42:00:ea:dd:06:6b:a0:fe:4b:ee:f6:82:5a:fe:ce:
         e8:cc:12:05:a8:1e:81:8a:4c:84:e6:81:d4:c2:73:40:6d:bf:
         08:43:a1:a3:d8:1b:19:f5:e8:9c:63:74:8d:ad:c1:84:fb:ac:
         c0:78:f8:53:b3:d5:72:a2:32:3c:c8:41:0f:6e:0f:9b:b2:cf:
         29:ea:58:d2:a7:d9:30:ac:0c:2f:26:1d:7e:6c:90:68:73:b6:
         e9:86:b1:fa:3b:a3:76:43:6e:76:49:f7:3f:70:e2:a9:17:5b:
         72:b5:57:0d:bc:5e:5a:2d:35:72:b8:42:13:69:8c:03:c0:31:
         99:52:a0:7e:48:ff:41:83:05:b8:e5:ee:8f:39:7c:f3:6b:55:
         eb:f9:18:9a:0a:44:11:2e:3c:d9:bf:88:78:15:88:89:5d:c3:
         26:4a:84:07:27:5a:b8:44:e6:16:d9:81:51:7a:1c:7d:9e:fc:
         c2:c6:ce:9a:eb:ce:22:63:b3:d5:73:18:21:06:a9:a0:38:dc:
         09:fb:0d:14:9b:a7:3d:17:db:bd:a8:ac:89:ff:68:00:3d:e4:
         16:14:d6:03:f4:94:08:0e:a1:63:a4:f7:22:1c:45:6e:30:96:
         8b:10:2d:13:5e:60:7a:94
-----BEGIN CERTIFICATE-----
MIIHSDCCBTCgAwIBAgICAdkwDQYJKoZIhvcNAQEFBQAwgbQxCzAJBgNVBAYTAlVT
MQswCQYDVQQIEwJDQTEVMBMGA1UEBxMMU2FuRnJhbmNpc2NvMRUwEwYDVQQKEwxQ
aXhnbG8sIEluYy4xEDAOBgNVBAsTB1ZQTi1DSUUxGjAYBgNVBAMTEXR1bm5lbC5w
aXhnbG8uY29tMRwwGgYDVQQpExNCYWxhIENoYW5kcmFzZWthcmFuMR4wHAYJKoZI
hvcNAQkBFg9iYWxhQHBpeGdsby5jb20wHhcNMTgwMjE0MDYzNDU3WhcNMjgwMjEy
MDYzNDU3WjCBqTELMAkGA1UEBhMCVVMxCzAJBgNVBAgTAkNBMRUwEwYDVQQHEwxT
YW5GcmFuY2lzY28xFTATBgNVBAoTDFBpeGdsbywgSW5jLjEQMA4GA1UECxMHVlBO
LUNJRTEPMA0GA1UEAxMGY2llNDcyMRwwGgYDVQQpExNCYWxhIENoYW5kcmFzZWth
cmFuMR4wHAYJKoZIhvcNAQkBFg9iYWxhQHBpeGdsby5jb20wggIiMA0GCSqGSIb3
DQEBAQUAA4ICDwAwggIKAoICAQCvKtLgkKp9FO+jijwemg7UQQ1S3lZWbnF3X51O
D0uX87EnFdboC+ePD4jtbCL42K7Huiba36oDNUGIjeaY3DBytnnIBlaw/DWzvBZH
o2V+yR2XAkH1mzasW4Rx0JkYilDwMhSak4Q2+y452+TmIZijnEFuX62tScK1nl70
TjYR5tcls0WCS8tKOBLcA1QfPObQlWO6cK+7YO+bZcBRhaL1hPA72ClYQTyL5sts
JofHvTk7jyU7iIpfMm1ofe6AlRiitOxG9Lb5M8BtXB+dDkU3A3G6i1sXhoJktiXv
W+W7czwg+Qomfoc8bGQspWFX76U0e//TcZ2cRDSBKH5lRYLSRUeDvlEUaqHime6s
GpuTeUsvn12KujGaorV0NCheHjfv7/ktlKC1lAc1fot2Whu681Vel35EYnZ2KotJ
/kYfUTQsxuWcCkS1s3A4VXljcPHFNPhsXcqIrtaRZQGRJvY80N1v7ktar/i2b6Pi
AuCQT1wX10o2pTgDD9813RZNrzIP2eXj33T1W370ozvIeZTwOVnTXqsmFQsYO3Rt
yIOvw9JFigeJoOMKY0VbeDtOBkHE0jpn4hwAflB2OL7eou5hdrGxPS0YqgH0dhHB
YN/2uxE61OKND7oI5LKJK+OsdyeQ2JAqP80V0XEMDmz7DGLozy6wb+9AlkT47b3+
n2m3HwIDAQABo4IBazCCAWcwCQYDVR0TBAIwADAtBglghkgBhvhCAQ0EIBYeRWFz
eS1SU0EgR2VuZXJhdGVkIENlcnRpZmljYXRlMB0GA1UdDgQWBBRrTKwFpbwWI/86
4KJ1tNbdpmTv5TCB6QYDVR0jBIHhMIHegBTvOI0UUFinW02cF3L837msp1GwEKGB
uqSBtzCBtDELMAkGA1UEBhMCVVMxCzAJBgNVBAgTAkNBMRUwEwYDVQQHEwxTYW5G
cmFuY2lzY28xFTATBgNVBAoTDFBpeGdsbywgSW5jLjEQMA4GA1UECxMHVlBOLUNJ
RTEaMBgGA1UEAxMRdHVubmVsLnBpeGdsby5jb20xHDAaBgNVBCkTE0JhbGEgQ2hh
bmRyYXNla2FyYW4xHjAcBgkqhkiG9w0BCQEWD2JhbGFAcGl4Z2xvLmNvbYIJAKbb
xoOA5qB5MBMGA1UdJQQMMAoGCCsGAQUFBwMCMAsGA1UdDwQEAwIHgDANBgkqhkiG
9w0BAQUFAAOCAgEAMAiB/9fhCoPQLs1DF9VjPwvAwVnLs75BfJKNo6FjuVEl25w7
WIry857e1k7Obc7esNc1JlhFIrnzqyTKga3bF9osrgNhgytj5RInXF/+z8SdfTtl
e0KjYyeudQ+nCkPhJTRUsat0yuxE8d5rx60Vm3gXtAIg0CyPEvWASAZD1oyM6P7A
EaN/kVrRQPpWxo/Rp3v92P/Z1Tont+Sg2ptJsfhdiLbdr5SNvNoiZsCF0kfrmkW4
3dTOFSSn2msGS13v+Ly5SxFmcIw7LAbTy0reG3mj8pEjiXPoUChMFcPQ/n4bNUfq
jVI8WPNytLeWJZjqloduSXMNM2kHgUqUfYJjgldxWg8HPKPdAe0ILNmhonAYQgDq
3QZroP5L7vaCWv7O6MwSBagegYpMhOaB1MJzQG2/CEOho9gbGfXonGN0ja3BhPus
wHj4U7PVcqIyPMhBD24Pm7LPKepY0qfZMKwMLyYdfmyQaHO26Yax+jujdkNudkn3
P3DiqRdbcrVXDbxeWi01crhCE2mMA8AxmVKgfkj/QYMFuOXujzl882tV6/kYmgpE
ES482b+IeBWIiV3DJkqEBydauETmFtmBUXocfZ78wsbOmuvOImOz1XMYIQapoDjc
CfsNFJunPRfbvaisif9oAD3kFhTWA/SUCA6hY6T3IhxFbjCWixAtE15gepQ=
-----END CERTIFICATE-----
