Certificate:
    Data:
        Version: 3 (0x2)
        Serial Number: 481 (0x1e1)
    Signature Algorithm: sha1WithRSAEncryption
        Issuer: C=US, ST=CA, L=SanFrancisco, O=Pixglo, Inc., OU=VPN-CIE, CN=tunnel.pixglo.com/name=Bala Chandrasekaran/emailAddress=bala@pixglo.com
        Validity
            Not Before: Feb 14 06:35:12 2018 GMT
            Not After : Feb 12 06:35:12 2028 GMT
        Subject: C=US, ST=CA, L=SanFrancisco, O=Pixglo, Inc., OU=VPN-CIE, CN=cie480/name=Bala Chandrasekaran/emailAddress=bala@pixglo.com
        Subject Public Key Info:
            Public Key Algorithm: rsaEncryption
                Public-Key: (4096 bit)
                Modulus:
                    00:cb:3c:43:b5:c7:ab:05:4e:5d:25:3f:ef:de:d9:
                    8f:d3:80:60:71:04:fb:72:fb:2a:d2:4b:ba:03:4c:
                    a0:77:33:6e:06:67:95:ec:12:45:7f:bb:87:ff:7e:
                    51:5f:7b:19:a6:72:b7:a6:86:c1:7b:82:cb:d8:91:
                    e2:74:0b:6c:bf:ac:e7:f0:42:ba:1c:3b:0d:72:4f:
                    1d:ed:42:2e:be:76:b6:bc:0c:a4:8f:a0:36:53:c9:
                    92:1a:69:5f:39:9c:70:50:76:7a:bd:fe:7b:f6:3e:
                    9a:42:de:37:2a:38:87:5f:f7:fb:66:03:75:c9:c4:
                    a5:a4:1e:ac:ec:54:a1:69:0b:e6:f4:8d:21:fa:79:
                    f2:ef:a6:ad:fe:bc:6c:66:6a:41:9d:c9:6a:84:53:
                    7a:ed:3d:5c:02:af:c5:21:e6:1d:35:96:94:8a:fc:
                    38:57:95:c6:6f:29:5d:17:5b:0b:58:e7:03:4b:3b:
                    e3:c4:58:ed:a0:d8:91:eb:e1:65:46:f3:8f:8d:6c:
                    e1:6e:f2:e1:c4:58:3b:79:b8:53:9f:8e:af:f4:95:
                    ff:74:b9:74:69:3a:2f:c5:13:a6:e8:54:e0:4d:09:
                    e9:68:e8:2c:0a:f7:91:4c:97:e1:f9:51:8c:be:69:
                    9c:3f:f2:e2:37:ef:d9:fd:24:04:b8:b3:12:56:8a:
                    ea:72:7a:9c:ce:d4:d0:79:02:a0:51:3b:c3:f4:e0:
                    40:b2:ca:0c:eb:bf:9f:91:99:5f:b5:03:c4:e1:81:
                    78:8f:7d:6c:12:6a:1e:cb:ee:13:97:b6:5a:76:1c:
                    b5:98:23:b9:82:81:3f:84:8c:03:e6:15:e1:e2:c0:
                    43:b4:94:27:bb:f2:6d:7a:30:3f:66:1b:27:85:63:
                    3d:2f:ca:e5:7c:cc:cc:21:26:ec:78:fe:9f:0a:98:
                    cb:e7:7e:d5:2c:44:8f:02:f5:b0:bd:30:60:1b:be:
                    b0:db:af:31:36:37:bc:b4:91:95:3a:77:80:3b:c2:
                    1e:43:29:03:b0:5f:b9:a0:24:16:68:b5:d6:db:d4:
                    44:24:2f:8f:3e:07:46:bd:85:ea:b7:54:98:78:b1:
                    8c:51:ef:de:71:3f:31:33:10:60:c6:6e:fd:16:6e:
                    e3:c7:b1:e8:08:dd:bd:63:b8:68:45:48:7e:ea:a8:
                    18:3d:96:7d:d3:86:c4:1a:a0:e2:62:64:00:d7:ac:
                    74:19:6e:3d:fd:0d:18:98:52:25:ca:63:41:92:0a:
                    4c:fc:05:85:d5:aa:a5:6e:56:85:d0:9e:0e:34:ec:
                    35:33:42:af:0b:ff:8e:a8:af:d9:ba:1e:85:ae:f0:
                    69:05:82:60:d9:48:b0:9b:4e:77:c2:fd:65:26:d9:
                    11:91:ff
                Exponent: 65537 (0x10001)
        X509v3 extensions:
            X509v3 Basic Constraints: 
                CA:FALSE
            Netscape Comment: 
                Easy-RSA Generated Certificate
            X509v3 Subject Key Identifier: 
                BB:6D:E7:BA:4D:AA:23:47:6E:83:F4:80:5E:15:F2:58:91:EF:85:23
            X509v3 Authority Key Identifier: 
                keyid:EF:38:8D:14:50:58:A7:5B:4D:9C:17:72:FC:DF:B9:AC:A7:51:B0:10
                DirName:/C=US/ST=CA/L=SanFrancisco/O=Pixglo, Inc./OU=VPN-CIE/CN=tunnel.pixglo.com/name=Bala Chandrasekaran/emailAddress=bala@pixglo.com
                serial:A6:DB:C6:83:80:E6:A0:79

            X509v3 Extended Key Usage: 
                TLS Web Client Authentication
            X509v3 Key Usage: 
                Digital Signature
    Signature Algorithm: sha1WithRSAEncryption
         53:40:de:19:7c:7a:fa:c3:75:ea:98:df:53:91:01:c5:6e:51:
         12:51:71:8a:bf:ed:b0:79:f7:ac:19:de:72:e4:3f:29:d4:2a:
         2c:82:d2:e4:8f:8f:30:c5:8d:6a:ad:14:e9:9b:16:a9:33:e6:
         3b:f1:ab:10:af:f1:d3:77:84:39:e2:36:07:fd:5f:5a:e9:03:
         f3:d1:87:a5:4b:35:02:f8:2e:9d:cc:b5:4d:6f:16:7b:f9:5e:
         9c:48:e9:d0:ef:a6:cb:96:91:cc:fe:fd:fd:90:8b:6d:f0:b1:
         ea:b4:53:b4:e7:29:12:97:e1:21:e2:25:a3:e9:73:08:1e:3c:
         e6:a9:55:cf:77:6f:2f:67:e5:3e:22:a2:70:3b:75:d4:19:ba:
         8c:1e:38:f8:23:ce:d2:cc:37:0b:ad:72:9c:b5:94:0d:b5:b9:
         25:ce:0c:2e:fb:36:d9:2f:8d:c7:11:ee:76:c0:5b:04:41:48:
         e0:0b:d2:f5:05:56:dc:11:65:ca:d0:f4:1c:78:ab:37:02:83:
         12:08:40:74:7e:72:e6:9f:91:d3:21:26:24:75:66:b9:91:c5:
         e6:cd:d2:75:a6:d6:cc:8d:5d:07:a7:0d:43:67:a7:89:7a:28:
         6d:21:f1:24:48:3f:15:f9:91:17:eb:02:f4:58:58:2f:e6:88:
         f2:43:8f:5e:ee:a3:50:02:51:dd:8e:38:ab:3d:24:8a:cb:18:
         d3:fb:39:e9:3c:7f:fa:b0:fe:eb:9c:af:7c:ab:84:fb:dd:c3:
         8b:1e:0c:46:cc:4f:45:45:fe:ad:54:81:16:d5:2a:1e:8e:2c:
         2d:86:4c:1f:1d:89:cf:95:20:9a:5b:33:9d:d8:b5:65:12:03:
         40:0f:87:ea:a4:05:8a:b4:c8:9f:2a:7e:d4:ad:8b:15:dc:68:
         da:b5:19:26:79:8c:bc:f1:6b:7f:90:d3:67:60:5f:f2:fc:29:
         58:20:8c:36:d6:d0:c7:4f:5b:ab:c4:60:16:6c:d1:36:6e:ad:
         78:d8:7a:9d:9b:89:ec:01:ff:85:71:db:85:6c:76:45:e8:9d:
         d4:a9:fc:06:64:06:63:ca:85:db:0f:80:49:e5:70:84:09:6a:
         8a:32:86:23:18:1f:6a:27:fb:6d:49:81:49:54:7c:45:15:0c:
         18:56:09:85:5b:ce:51:9b:df:e9:63:c1:80:86:b6:2b:f5:d5:
         fd:9f:51:e9:07:8d:73:29:c6:70:52:b5:c9:e4:b9:96:2c:f6:
         d4:6d:a4:25:58:bd:e1:32:7c:93:be:37:2a:43:41:cb:5f:0f:
         b8:0f:35:cc:95:af:dc:9f:06:5c:d8:c1:cf:a6:ab:69:e8:59:
         94:4a:db:eb:74:ee:29:3c
-----BEGIN CERTIFICATE-----
MIIHSDCCBTCgAwIBAgICAeEwDQYJKoZIhvcNAQEFBQAwgbQxCzAJBgNVBAYTAlVT
MQswCQYDVQQIEwJDQTEVMBMGA1UEBxMMU2FuRnJhbmNpc2NvMRUwEwYDVQQKEwxQ
aXhnbG8sIEluYy4xEDAOBgNVBAsTB1ZQTi1DSUUxGjAYBgNVBAMTEXR1bm5lbC5w
aXhnbG8uY29tMRwwGgYDVQQpExNCYWxhIENoYW5kcmFzZWthcmFuMR4wHAYJKoZI
hvcNAQkBFg9iYWxhQHBpeGdsby5jb20wHhcNMTgwMjE0MDYzNTEyWhcNMjgwMjEy
MDYzNTEyWjCBqTELMAkGA1UEBhMCVVMxCzAJBgNVBAgTAkNBMRUwEwYDVQQHEwxT
YW5GcmFuY2lzY28xFTATBgNVBAoTDFBpeGdsbywgSW5jLjEQMA4GA1UECxMHVlBO
LUNJRTEPMA0GA1UEAxMGY2llNDgwMRwwGgYDVQQpExNCYWxhIENoYW5kcmFzZWth
cmFuMR4wHAYJKoZIhvcNAQkBFg9iYWxhQHBpeGdsby5jb20wggIiMA0GCSqGSIb3
DQEBAQUAA4ICDwAwggIKAoICAQDLPEO1x6sFTl0lP+/e2Y/TgGBxBPty+yrSS7oD
TKB3M24GZ5XsEkV/u4f/flFfexmmcremhsF7gsvYkeJ0C2y/rOfwQrocOw1yTx3t
Qi6+dra8DKSPoDZTyZIaaV85nHBQdnq9/nv2PppC3jcqOIdf9/tmA3XJxKWkHqzs
VKFpC+b0jSH6efLvpq3+vGxmakGdyWqEU3rtPVwCr8Uh5h01lpSK/DhXlcZvKV0X
WwtY5wNLO+PEWO2g2JHr4WVG84+NbOFu8uHEWDt5uFOfjq/0lf90uXRpOi/FE6bo
VOBNCelo6CwK95FMl+H5UYy+aZw/8uI379n9JAS4sxJWiupyepzO1NB5AqBRO8P0
4ECyygzrv5+RmV+1A8ThgXiPfWwSah7L7hOXtlp2HLWYI7mCgT+EjAPmFeHiwEO0
lCe78m16MD9mGyeFYz0vyuV8zMwhJux4/p8KmMvnftUsRI8C9bC9MGAbvrDbrzE2
N7y0kZU6d4A7wh5DKQOwX7mgJBZotdbb1EQkL48+B0a9heq3VJh4sYxR795xPzEz
EGDGbv0WbuPHsegI3b1juGhFSH7qqBg9ln3ThsQaoOJiZADXrHQZbj39DRiYUiXK
Y0GSCkz8BYXVqqVuVoXQng407DUzQq8L/46or9m6HoWu8GkFgmDZSLCbTnfC/WUm
2RGR/wIDAQABo4IBazCCAWcwCQYDVR0TBAIwADAtBglghkgBhvhCAQ0EIBYeRWFz
eS1SU0EgR2VuZXJhdGVkIENlcnRpZmljYXRlMB0GA1UdDgQWBBS7bee6TaojR26D
9IBeFfJYke+FIzCB6QYDVR0jBIHhMIHegBTvOI0UUFinW02cF3L837msp1GwEKGB
uqSBtzCBtDELMAkGA1UEBhMCVVMxCzAJBgNVBAgTAkNBMRUwEwYDVQQHEwxTYW5G
cmFuY2lzY28xFTATBgNVBAoTDFBpeGdsbywgSW5jLjEQMA4GA1UECxMHVlBOLUNJ
RTEaMBgGA1UEAxMRdHVubmVsLnBpeGdsby5jb20xHDAaBgNVBCkTE0JhbGEgQ2hh
bmRyYXNla2FyYW4xHjAcBgkqhkiG9w0BCQEWD2JhbGFAcGl4Z2xvLmNvbYIJAKbb
xoOA5qB5MBMGA1UdJQQMMAoGCCsGAQUFBwMCMAsGA1UdDwQEAwIHgDANBgkqhkiG
9w0BAQUFAAOCAgEAU0DeGXx6+sN16pjfU5EBxW5RElFxir/tsHn3rBnecuQ/KdQq
LILS5I+PMMWNaq0U6ZsWqTPmO/GrEK/x03eEOeI2B/1fWukD89GHpUs1Avguncy1
TW8We/lenEjp0O+my5aRzP79/ZCLbfCx6rRTtOcpEpfhIeIlo+lzCB485qlVz3dv
L2flPiKicDt11Bm6jB44+CPO0sw3C61ynLWUDbW5Jc4MLvs22S+NxxHudsBbBEFI
4AvS9QVW3BFlytD0HHirNwKDEghAdH5y5p+R0yEmJHVmuZHF5s3SdabWzI1dB6cN
Q2eniXoobSHxJEg/FfmRF+sC9FhYL+aI8kOPXu6jUAJR3Y44qz0kissY0/s56Tx/
+rD+65yvfKuE+93Dix4MRsxPRUX+rVSBFtUqHo4sLYZMHx2Jz5Ugmlszndi1ZRID
QA+H6qQFirTInyp+1K2LFdxo2rUZJnmMvPFrf5DTZ2Bf8vwpWCCMNtbQx09bq8Rg
FmzRNm6teNh6nZuJ7AH/hXHbhWx2Reid1Kn8BmQGY8qF2w+ASeVwhAlqijKGIxgf
aif7bUmBSVR8RRUMGFYJhVvOUZvf6WPBgIa2K/XV/Z9R6QeNcynGcFK1yeS5liz2
1G2kJVi94TJ8k743KkNBy18PuA81zJWv3J8GXNjBz6araehZlErb63TuKTw=
-----END CERTIFICATE-----
