Certificate:
    Data:
        Version: 3 (0x2)
        Serial Number: 458 (0x1ca)
    Signature Algorithm: sha1WithRSAEncryption
        Issuer: C=US, ST=CA, L=SanFrancisco, O=Pixglo, Inc., OU=VPN-CIE, CN=tunnel.pixglo.com/name=Bala Chandrasekaran/emailAddress=bala@pixglo.com
        Validity
            Not Before: Feb 14 06:34:32 2018 GMT
            Not After : Feb 12 06:34:32 2028 GMT
        Subject: C=US, ST=CA, L=SanFrancisco, O=Pixglo, Inc., OU=VPN-CIE, CN=cie457/name=Bala Chandrasekaran/emailAddress=bala@pixglo.com
        Subject Public Key Info:
            Public Key Algorithm: rsaEncryption
                Public-Key: (4096 bit)
                Modulus:
                    00:ba:ee:14:81:e9:b3:ab:01:ed:6a:29:af:c7:bf:
                    7d:92:9f:d0:44:1d:ec:b0:96:7e:98:2a:cc:61:fe:
                    81:f4:c4:66:07:d7:81:35:a3:12:fb:d5:f8:c0:54:
                    f5:c4:e8:62:d3:28:fb:09:55:d1:7d:b3:b2:1d:60:
                    9f:4e:3e:ea:50:01:cc:9d:a7:84:04:9b:5f:1b:3a:
                    01:f2:73:b1:6a:4e:15:65:fe:83:d4:05:ff:ef:05:
                    91:fb:47:6e:79:61:18:47:4e:f5:94:30:9f:b9:ad:
                    dd:92:4c:9a:fd:34:7c:cc:0f:f5:dd:67:21:eb:a7:
                    da:71:19:36:42:b1:ce:d2:5b:7d:82:05:c3:8d:05:
                    f9:f0:04:62:c9:83:1a:2a:83:c4:1b:2c:f6:c2:d8:
                    e0:f9:1b:3b:9c:a1:34:97:56:f8:06:42:df:e1:74:
                    e6:97:22:8d:3b:3d:04:ae:6d:bf:0c:40:5f:ac:36:
                    16:9b:b1:77:4b:e6:77:a9:fb:34:21:f3:7e:35:56:
                    d2:2c:53:3a:56:c5:99:93:26:94:e8:93:ed:59:21:
                    7c:f3:b0:82:07:bd:87:0a:d0:d1:e7:00:1a:be:6b:
                    f8:fd:2b:2a:ff:1d:25:e6:6b:2c:f6:88:fd:9e:a1:
                    fc:a3:48:0c:e6:5c:07:5b:e7:a8:1f:9e:bb:a6:96:
                    68:c0:ee:08:ff:0a:b7:2b:c6:fa:6c:e5:e4:c7:af:
                    9a:4a:0b:b3:a0:b1:34:d5:a5:40:66:33:cf:67:59:
                    58:ac:fa:70:16:e4:9d:d9:7a:9c:97:bc:68:aa:7a:
                    8c:58:3d:f0:77:e6:31:76:2e:9f:68:d5:e7:32:24:
                    52:d0:42:99:7d:71:08:53:09:23:d5:1f:ab:df:8b:
                    f9:71:2b:75:b8:6e:a1:4c:15:e7:c3:a4:0e:c5:9d:
                    3f:d1:25:5c:e1:ff:02:67:fc:2a:64:1b:f7:09:66:
                    af:40:35:b5:2c:1d:2b:73:3a:8e:ae:67:3f:66:c2:
                    d6:9f:a4:d2:54:ee:d0:4e:e4:e5:1e:e4:97:5f:5f:
                    12:d8:a9:d6:f4:51:9c:25:b2:be:3a:b0:bd:e3:c5:
                    d0:73:01:97:72:9c:68:22:86:0f:f8:62:2d:46:f3:
                    93:65:62:9d:96:f4:e3:7a:93:b5:bf:0c:70:84:86:
                    4a:62:3f:35:8f:86:0f:94:cb:03:49:e1:f9:93:95:
                    d5:13:61:d5:8b:8e:92:1d:f5:e5:d7:1d:f2:8a:3e:
                    dc:eb:f2:9c:11:10:6a:59:bd:17:f9:f7:89:e6:79:
                    0c:a8:5d:14:3b:27:e2:8a:b8:43:d6:8a:db:d9:09:
                    12:8b:a3:2b:02:ae:38:7f:90:7e:60:80:eb:9f:e1:
                    1b:9c:b5
                Exponent: 65537 (0x10001)
        X509v3 extensions:
            X509v3 Basic Constraints: 
                CA:FALSE
            Netscape Comment: 
                Easy-RSA Generated Certificate
            X509v3 Subject Key Identifier: 
                A9:E1:BC:1A:33:B9:76:CF:C3:2F:6E:F6:FF:26:F5:F4:EB:4B:08:88
            X509v3 Authority Key Identifier: 
                keyid:EF:38:8D:14:50:58:A7:5B:4D:9C:17:72:FC:DF:B9:AC:A7:51:B0:10
                DirName:/C=US/ST=CA/L=SanFrancisco/O=Pixglo, Inc./OU=VPN-CIE/CN=tunnel.pixglo.com/name=Bala Chandrasekaran/emailAddress=bala@pixglo.com
                serial:A6:DB:C6:83:80:E6:A0:79

            X509v3 Extended Key Usage: 
                TLS Web Client Authentication
            X509v3 Key Usage: 
                Digital Signature
    Signature Algorithm: sha1WithRSAEncryption
         29:27:ae:5b:65:04:7f:4c:2c:f9:fb:b7:e6:a9:69:28:15:0e:
         96:70:c9:c0:ca:bd:04:55:b6:b8:52:da:4e:c9:05:eb:f8:b5:
         5d:b8:bd:08:40:a7:ed:40:67:d8:a0:e9:a6:c0:20:b5:9b:b2:
         3f:4a:4b:a6:f7:42:3a:f6:de:82:af:05:de:a0:a3:d8:49:57:
         98:c1:11:5b:93:e3:11:1e:81:8c:19:ff:52:40:be:c9:65:79:
         dd:93:6e:3e:4a:ee:85:56:d2:45:09:78:ee:de:0d:78:ea:1b:
         17:40:77:19:86:b0:9e:82:9f:78:bb:59:4c:e8:e8:19:45:39:
         85:71:01:cd:0b:b4:c4:8a:20:5b:5d:f0:44:55:92:f7:fc:fc:
         01:af:f7:31:e2:c3:aa:84:21:50:8f:d0:9b:e1:8e:38:57:9e:
         f5:f1:ba:7c:36:a9:97:c8:00:3d:88:df:5a:c5:3d:27:4f:57:
         0c:5b:db:65:e2:5f:e2:5f:8a:bd:23:d1:7b:51:de:5f:60:f1:
         56:ba:af:d9:53:11:07:37:fa:10:30:03:53:9c:e4:3e:70:38:
         6a:6c:a7:84:64:f4:b3:3a:45:ff:fc:b5:f9:f3:c8:76:41:79:
         ae:78:1e:be:2c:9e:b7:cd:ec:ff:6a:49:8c:29:4b:f3:96:15:
         a4:50:e9:b7:d2:d2:a7:06:2c:4e:0e:2a:43:ef:f0:16:3c:b4:
         b8:71:25:11:1d:bd:bb:8e:05:c7:b0:2d:f7:37:e3:43:dc:81:
         44:76:6c:64:1e:36:18:73:9e:fb:c0:e5:54:96:df:ec:8f:1a:
         b7:b3:87:21:80:af:46:7b:54:cc:ad:30:f7:b3:db:e4:d8:58:
         5c:7d:29:33:39:3e:55:b3:0f:32:3e:6b:aa:a4:71:7c:f6:8d:
         9a:67:94:b0:a9:a7:30:6a:b2:41:50:fb:eb:a4:8d:5e:22:59:
         47:f7:f2:5f:08:9e:63:bc:b8:23:4e:d8:eb:1b:13:73:92:cf:
         dd:9b:0d:11:4f:06:a6:f7:2a:cb:a2:97:ab:a8:f8:9b:c4:da:
         96:35:0d:71:08:8a:40:50:e4:5d:f9:99:cd:68:0c:fc:e3:c0:
         fa:04:b9:c1:89:f1:65:39:7d:b7:04:8d:e2:d5:b0:05:3c:df:
         e4:78:6c:c8:80:df:61:ec:77:62:59:83:4b:85:cf:ce:cc:14:
         8c:62:36:b5:32:82:0e:18:5d:41:b3:50:42:a3:8c:24:31:06:
         98:62:01:c5:8a:35:5e:59:38:25:00:89:b3:e7:68:10:f5:76:
         ff:34:6b:e9:68:b5:3d:a6:71:ab:ce:7a:81:3a:bf:7d:41:21:
         53:67:3a:d0:bf:85:e2:27
-----BEGIN CERTIFICATE-----
MIIHSDCCBTCgAwIBAgICAcowDQYJKoZIhvcNAQEFBQAwgbQxCzAJBgNVBAYTAlVT
MQswCQYDVQQIEwJDQTEVMBMGA1UEBxMMU2FuRnJhbmNpc2NvMRUwEwYDVQQKEwxQ
aXhnbG8sIEluYy4xEDAOBgNVBAsTB1ZQTi1DSUUxGjAYBgNVBAMTEXR1bm5lbC5w
aXhnbG8uY29tMRwwGgYDVQQpExNCYWxhIENoYW5kcmFzZWthcmFuMR4wHAYJKoZI
hvcNAQkBFg9iYWxhQHBpeGdsby5jb20wHhcNMTgwMjE0MDYzNDMyWhcNMjgwMjEy
MDYzNDMyWjCBqTELMAkGA1UEBhMCVVMxCzAJBgNVBAgTAkNBMRUwEwYDVQQHEwxT
YW5GcmFuY2lzY28xFTATBgNVBAoTDFBpeGdsbywgSW5jLjEQMA4GA1UECxMHVlBO
LUNJRTEPMA0GA1UEAxMGY2llNDU3MRwwGgYDVQQpExNCYWxhIENoYW5kcmFzZWth
cmFuMR4wHAYJKoZIhvcNAQkBFg9iYWxhQHBpeGdsby5jb20wggIiMA0GCSqGSIb3
DQEBAQUAA4ICDwAwggIKAoICAQC67hSB6bOrAe1qKa/Hv32Sn9BEHeywln6YKsxh
/oH0xGYH14E1oxL71fjAVPXE6GLTKPsJVdF9s7IdYJ9OPupQAcydp4QEm18bOgHy
c7FqThVl/oPUBf/vBZH7R255YRhHTvWUMJ+5rd2STJr9NHzMD/XdZyHrp9pxGTZC
sc7SW32CBcONBfnwBGLJgxoqg8QbLPbC2OD5GzucoTSXVvgGQt/hdOaXIo07PQSu
bb8MQF+sNhabsXdL5nep+zQh8341VtIsUzpWxZmTJpTok+1ZIXzzsIIHvYcK0NHn
ABq+a/j9Kyr/HSXmayz2iP2eofyjSAzmXAdb56gfnrumlmjA7gj/Crcrxvps5eTH
r5pKC7OgsTTVpUBmM89nWVis+nAW5J3ZepyXvGiqeoxYPfB35jF2Lp9o1ecyJFLQ
Qpl9cQhTCSPVH6vfi/lxK3W4bqFMFefDpA7FnT/RJVzh/wJn/CpkG/cJZq9ANbUs
HStzOo6uZz9mwtafpNJU7tBO5OUe5JdfXxLYqdb0UZwlsr46sL3jxdBzAZdynGgi
hg/4Yi1G85NlYp2W9ON6k7W/DHCEhkpiPzWPhg+UywNJ4fmTldUTYdWLjpId9eXX
HfKKPtzr8pwREGpZvRf594nmeQyoXRQ7J+KKuEPWitvZCRKLoysCrjh/kH5ggOuf
4RuctQIDAQABo4IBazCCAWcwCQYDVR0TBAIwADAtBglghkgBhvhCAQ0EIBYeRWFz
eS1SU0EgR2VuZXJhdGVkIENlcnRpZmljYXRlMB0GA1UdDgQWBBSp4bwaM7l2z8Mv
bvb/JvX060sIiDCB6QYDVR0jBIHhMIHegBTvOI0UUFinW02cF3L837msp1GwEKGB
uqSBtzCBtDELMAkGA1UEBhMCVVMxCzAJBgNVBAgTAkNBMRUwEwYDVQQHEwxTYW5G
cmFuY2lzY28xFTATBgNVBAoTDFBpeGdsbywgSW5jLjEQMA4GA1UECxMHVlBOLUNJ
RTEaMBgGA1UEAxMRdHVubmVsLnBpeGdsby5jb20xHDAaBgNVBCkTE0JhbGEgQ2hh
bmRyYXNla2FyYW4xHjAcBgkqhkiG9w0BCQEWD2JhbGFAcGl4Z2xvLmNvbYIJAKbb
xoOA5qB5MBMGA1UdJQQMMAoGCCsGAQUFBwMCMAsGA1UdDwQEAwIHgDANBgkqhkiG
9w0BAQUFAAOCAgEAKSeuW2UEf0ws+fu35qlpKBUOlnDJwMq9BFW2uFLaTskF6/i1
Xbi9CECn7UBn2KDppsAgtZuyP0pLpvdCOvbegq8F3qCj2ElXmMERW5PjER6BjBn/
UkC+yWV53ZNuPkruhVbSRQl47t4NeOobF0B3GYawnoKfeLtZTOjoGUU5hXEBzQu0
xIogW13wRFWS9/z8Aa/3MeLDqoQhUI/Qm+GOOFee9fG6fDapl8gAPYjfWsU9J09X
DFvbZeJf4l+KvSPRe1HeX2DxVrqv2VMRBzf6EDADU5zkPnA4amynhGT0szpF//y1
+fPIdkF5rngeviyet83s/2pJjClL85YVpFDpt9LSpwYsTg4qQ+/wFjy0uHElER29
u44Fx7At9zfjQ9yBRHZsZB42GHOe+8DlVJbf7I8at7OHIYCvRntUzK0w97Pb5NhY
XH0pMzk+VbMPMj5rqqRxfPaNmmeUsKmnMGqyQVD766SNXiJZR/fyXwieY7y4I07Y
6xsTc5LP3ZsNEU8Gpvcqy6KXq6j4m8TaljUNcQiKQFDkXfmZzWgM/OPA+gS5wYnx
ZTl9twSN4tWwBTzf5HhsyIDfYex3YlmDS4XPzswUjGI2tTKCDhhdQbNQQqOMJDEG
mGIBxYo1Xlk4JQCJs+doEPV2/zRr6Wi1PaZxq856gTq/fUEhU2c60L+F4ic=
-----END CERTIFICATE-----
