Certificate:
    Data:
        Version: 3 (0x2)
        Serial Number: 416 (0x1a0)
    Signature Algorithm: sha1WithRSAEncryption
        Issuer: C=US, ST=CA, L=SanFrancisco, O=Pixglo, Inc., OU=VPN-CIE, CN=tunnel.pixglo.com/name=Bala Chandrasekaran/emailAddress=bala@pixglo.com
        Validity
            Not Before: Feb 14 06:33:17 2018 GMT
            Not After : Feb 12 06:33:17 2028 GMT
        Subject: C=US, ST=CA, L=SanFrancisco, O=Pixglo, Inc., OU=VPN-CIE, CN=cie415/name=Bala Chandrasekaran/emailAddress=bala@pixglo.com
        Subject Public Key Info:
            Public Key Algorithm: rsaEncryption
                Public-Key: (4096 bit)
                Modulus:
                    00:c7:7b:cd:3d:cf:86:67:af:53:39:bf:9b:07:4b:
                    30:11:7d:20:b9:fd:4b:9f:f4:7f:ee:c5:9a:b9:bd:
                    18:cb:76:72:f5:b7:74:8b:4d:e8:2c:e3:2f:d2:b8:
                    b4:e3:43:ad:0e:a8:b1:99:8f:fe:74:b3:ca:12:18:
                    8f:f6:9a:65:fb:cd:2c:73:1d:1d:63:25:79:8e:70:
                    57:be:5d:fd:ec:a7:c0:fd:c4:ae:24:15:91:be:a1:
                    10:8e:5e:cc:de:af:c2:65:2c:ef:10:93:a0:25:84:
                    57:7c:ba:1b:28:03:b2:2f:d8:0b:5e:a9:84:91:fd:
                    f6:da:ec:d4:93:d3:7b:18:79:6b:92:49:c4:39:f6:
                    24:c0:99:b6:1b:94:fa:6a:0d:16:b6:03:83:5c:c5:
                    21:3d:1a:89:8d:1f:ff:51:a2:77:f3:4e:fd:8f:be:
                    0c:cb:44:6e:ab:f2:f2:0d:9a:d6:27:1c:79:d0:4c:
                    64:1c:f1:9c:6a:3b:16:c1:42:22:53:3d:09:cb:e7:
                    c5:c9:26:29:06:b4:46:98:1c:30:af:82:4d:77:83:
                    8f:32:58:93:07:95:85:66:37:ec:2b:f2:ed:e1:19:
                    65:68:81:27:92:56:1f:71:01:7a:9e:9a:ee:30:dd:
                    43:61:b8:5c:a4:43:24:27:07:5c:19:f5:e6:cf:c5:
                    5f:25:b0:96:be:db:6f:f7:75:ef:c8:7c:6e:ba:e8:
                    70:8d:65:f4:a6:ad:ab:12:ba:ed:de:4f:87:f8:74:
                    f6:75:d2:5a:57:58:e6:02:69:56:99:42:f7:da:cc:
                    08:0f:e2:21:5f:a1:71:dc:89:57:f4:e4:80:ca:63:
                    00:f4:b2:bc:76:83:d2:83:b7:68:35:87:ba:35:3a:
                    46:79:34:c3:98:53:c4:bb:51:62:4d:85:71:c1:c5:
                    74:17:98:16:26:68:29:4b:78:1d:12:7b:84:b5:53:
                    3a:bf:44:55:69:4d:39:2d:1c:e5:a0:e0:99:40:49:
                    39:19:32:bd:a6:62:76:2d:d7:15:e2:65:9a:87:8f:
                    0b:b2:fe:90:9f:cc:02:ce:78:02:49:7d:62:66:65:
                    22:fc:29:b9:f9:1a:7b:14:18:03:5f:4a:e8:af:cf:
                    0f:22:1d:4b:9f:07:d3:10:66:9c:64:13:56:38:5e:
                    5f:42:97:2e:c9:7c:91:60:f3:11:8d:6b:7d:eb:a0:
                    7c:12:54:6f:b0:0e:e5:f6:01:f0:14:a0:c1:0d:13:
                    00:38:40:a7:06:8b:29:29:1a:ee:a4:57:e7:0c:46:
                    99:0f:81:04:06:d8:80:a4:64:e8:6f:8a:1e:32:30:
                    76:38:fa:e2:17:1a:ae:29:9c:db:7d:55:61:38:92:
                    72:47:0b
                Exponent: 65537 (0x10001)
        X509v3 extensions:
            X509v3 Basic Constraints: 
                CA:FALSE
            Netscape Comment: 
                Easy-RSA Generated Certificate
            X509v3 Subject Key Identifier: 
                73:2A:FB:FB:7C:0A:46:B0:D8:64:5F:B1:3E:E4:2E:EF:42:CE:B4:8C
            X509v3 Authority Key Identifier: 
                keyid:EF:38:8D:14:50:58:A7:5B:4D:9C:17:72:FC:DF:B9:AC:A7:51:B0:10
                DirName:/C=US/ST=CA/L=SanFrancisco/O=Pixglo, Inc./OU=VPN-CIE/CN=tunnel.pixglo.com/name=Bala Chandrasekaran/emailAddress=bala@pixglo.com
                serial:A6:DB:C6:83:80:E6:A0:79

            X509v3 Extended Key Usage: 
                TLS Web Client Authentication
            X509v3 Key Usage: 
                Digital Signature
    Signature Algorithm: sha1WithRSAEncryption
         6a:3e:07:6d:ce:ed:bf:92:f1:8e:37:51:c9:40:47:f5:fa:cf:
         35:d7:46:11:4d:4a:d3:c4:42:f9:61:3e:12:51:03:b8:e9:53:
         2e:b2:87:77:b1:11:9c:86:1b:1e:f6:52:92:7f:21:21:f0:76:
         bd:59:86:18:7d:8b:22:8e:15:2d:dd:9d:8b:97:a7:6f:a2:28:
         47:e7:2d:da:5a:ce:f4:7b:2d:fa:c6:f1:2f:8a:ff:bf:a9:50:
         5d:fb:3a:eb:1f:85:53:b4:55:84:6e:72:b7:4c:b6:2d:3e:4e:
         6c:e4:70:1f:a0:1c:61:86:11:f5:1d:5e:0e:f2:55:7a:e0:f4:
         f1:87:d6:9a:39:a1:4b:49:f3:67:8c:9b:e4:93:22:bd:f1:4f:
         82:8d:7c:17:ed:9a:c5:96:bd:0d:3b:2d:3d:79:9c:d0:f9:0c:
         20:9e:48:e7:2c:a6:77:d0:f3:84:9a:86:52:c1:97:11:fa:17:
         b8:78:28:9d:50:1e:6e:1c:cd:e1:e8:e8:bf:97:57:d5:97:4e:
         04:ac:bc:f5:d0:35:82:94:d7:61:7e:d5:b3:2b:9f:72:85:8d:
         12:6b:cd:21:ab:8f:34:5c:f0:f8:51:8c:4d:90:c6:c9:e4:2b:
         82:8d:e5:a3:22:cb:95:3b:ef:f1:e9:1c:6c:59:ab:2c:d5:1e:
         76:94:ef:65:cb:ff:72:2e:cd:60:ff:cb:4a:27:94:d6:14:c0:
         b2:78:01:2a:c5:ee:cc:a1:2b:b8:2b:06:3f:4d:ad:43:42:98:
         71:07:dc:2d:e3:e1:c6:a5:51:7f:cc:93:c6:96:f5:09:be:c4:
         7f:ed:b5:5b:37:23:d5:f7:72:cd:df:53:e2:8b:51:38:21:ad:
         d6:8a:d3:25:f0:5e:62:39:f7:e6:a3:66:30:bf:31:9f:cd:91:
         3a:7d:6d:0e:b1:dc:ef:cf:b5:09:a1:70:ce:31:d5:2f:94:a0:
         7d:30:42:56:48:05:0e:21:90:7b:87:9a:0c:f5:26:cf:b8:5c:
         53:de:59:35:ef:b5:10:bf:7e:eb:b6:ae:47:f8:bd:b8:e5:e5:
         8e:6d:7e:96:b2:fe:dc:95:3a:50:28:76:89:7e:6b:c4:a5:ee:
         eb:24:80:1d:d1:09:29:95:6f:c0:92:34:8e:ee:c5:0d:66:6e:
         7e:cd:d5:ed:7e:3a:a6:f3:5a:07:78:f2:32:f8:9c:d9:74:77:
         c6:cd:fa:41:d9:9d:bc:30:27:5c:70:55:2b:09:4b:e9:46:7f:
         47:15:f4:ac:09:5f:cf:4a:cc:7e:9b:14:ca:0c:15:b3:76:a3:
         a9:8e:1e:b6:80:fb:fe:89:cc:da:13:b8:fa:7c:c8:0a:e3:cc:
         81:52:66:12:06:aa:e4:54
-----BEGIN CERTIFICATE-----
MIIHSDCCBTCgAwIBAgICAaAwDQYJKoZIhvcNAQEFBQAwgbQxCzAJBgNVBAYTAlVT
MQswCQYDVQQIEwJDQTEVMBMGA1UEBxMMU2FuRnJhbmNpc2NvMRUwEwYDVQQKEwxQ
aXhnbG8sIEluYy4xEDAOBgNVBAsTB1ZQTi1DSUUxGjAYBgNVBAMTEXR1bm5lbC5w
aXhnbG8uY29tMRwwGgYDVQQpExNCYWxhIENoYW5kcmFzZWthcmFuMR4wHAYJKoZI
hvcNAQkBFg9iYWxhQHBpeGdsby5jb20wHhcNMTgwMjE0MDYzMzE3WhcNMjgwMjEy
MDYzMzE3WjCBqTELMAkGA1UEBhMCVVMxCzAJBgNVBAgTAkNBMRUwEwYDVQQHEwxT
YW5GcmFuY2lzY28xFTATBgNVBAoTDFBpeGdsbywgSW5jLjEQMA4GA1UECxMHVlBO
LUNJRTEPMA0GA1UEAxMGY2llNDE1MRwwGgYDVQQpExNCYWxhIENoYW5kcmFzZWth
cmFuMR4wHAYJKoZIhvcNAQkBFg9iYWxhQHBpeGdsby5jb20wggIiMA0GCSqGSIb3
DQEBAQUAA4ICDwAwggIKAoICAQDHe809z4Znr1M5v5sHSzARfSC5/Uuf9H/uxZq5
vRjLdnL1t3SLTegs4y/SuLTjQ60OqLGZj/50s8oSGI/2mmX7zSxzHR1jJXmOcFe+
Xf3sp8D9xK4kFZG+oRCOXszer8JlLO8Qk6AlhFd8uhsoA7Iv2AteqYSR/fba7NST
03sYeWuSScQ59iTAmbYblPpqDRa2A4NcxSE9GomNH/9RonfzTv2PvgzLRG6r8vIN
mtYnHHnQTGQc8ZxqOxbBQiJTPQnL58XJJikGtEaYHDCvgk13g48yWJMHlYVmN+wr
8u3hGWVogSeSVh9xAXqemu4w3UNhuFykQyQnB1wZ9ebPxV8lsJa+22/3de/IfG66
6HCNZfSmrasSuu3eT4f4dPZ10lpXWOYCaVaZQvfazAgP4iFfoXHciVf05IDKYwD0
srx2g9KDt2g1h7o1OkZ5NMOYU8S7UWJNhXHBxXQXmBYmaClLeB0Se4S1Uzq/RFVp
TTktHOWg4JlASTkZMr2mYnYt1xXiZZqHjwuy/pCfzALOeAJJfWJmZSL8Kbn5GnsU
GANfSuivzw8iHUufB9MQZpxkE1Y4Xl9Cly7JfJFg8xGNa33roHwSVG+wDuX2AfAU
oMENEwA4QKcGiykpGu6kV+cMRpkPgQQG2ICkZOhvih4yMHY4+uIXGq4pnNt9VWE4
knJHCwIDAQABo4IBazCCAWcwCQYDVR0TBAIwADAtBglghkgBhvhCAQ0EIBYeRWFz
eS1SU0EgR2VuZXJhdGVkIENlcnRpZmljYXRlMB0GA1UdDgQWBBRzKvv7fApGsNhk
X7E+5C7vQs60jDCB6QYDVR0jBIHhMIHegBTvOI0UUFinW02cF3L837msp1GwEKGB
uqSBtzCBtDELMAkGA1UEBhMCVVMxCzAJBgNVBAgTAkNBMRUwEwYDVQQHEwxTYW5G
cmFuY2lzY28xFTATBgNVBAoTDFBpeGdsbywgSW5jLjEQMA4GA1UECxMHVlBOLUNJ
RTEaMBgGA1UEAxMRdHVubmVsLnBpeGdsby5jb20xHDAaBgNVBCkTE0JhbGEgQ2hh
bmRyYXNla2FyYW4xHjAcBgkqhkiG9w0BCQEWD2JhbGFAcGl4Z2xvLmNvbYIJAKbb
xoOA5qB5MBMGA1UdJQQMMAoGCCsGAQUFBwMCMAsGA1UdDwQEAwIHgDANBgkqhkiG
9w0BAQUFAAOCAgEAaj4Hbc7tv5LxjjdRyUBH9frPNddGEU1K08RC+WE+ElEDuOlT
LrKHd7ERnIYbHvZSkn8hIfB2vVmGGH2LIo4VLd2di5enb6IoR+ct2lrO9Hst+sbx
L4r/v6lQXfs66x+FU7RVhG5yt0y2LT5ObORwH6AcYYYR9R1eDvJVeuD08YfWmjmh
S0nzZ4yb5JMivfFPgo18F+2axZa9DTstPXmc0PkMIJ5I5yymd9DzhJqGUsGXEfoX
uHgonVAebhzN4ejov5dX1ZdOBKy89dA1gpTXYX7VsyufcoWNEmvNIauPNFzw+FGM
TZDGyeQrgo3loyLLlTvv8ekcbFmrLNUedpTvZcv/ci7NYP/LSieU1hTAsngBKsXu
zKEruCsGP02tQ0KYcQfcLePhxqVRf8yTxpb1Cb7Ef+21Wzcj1fdyzd9T4otROCGt
1orTJfBeYjn35qNmML8xn82ROn1tDrHc78+1CaFwzjHVL5SgfTBCVkgFDiGQe4ea
DPUmz7hcU95ZNe+1EL9+67auR/i9uOXljm1+lrL+3JU6UCh2iX5rxKXu6ySAHdEJ
KZVvwJI0ju7FDWZufs3V7X46pvNaB3jyMvic2XR3xs36QdmdvDAnXHBVKwlL6UZ/
RxX0rAlfz0rMfpsUygwVs3ajqY4etoD7/onM2hO4+nzICuPMgVJmEgaq5FQ=
-----END CERTIFICATE-----
