Certificate:
    Data:
        Version: 3 (0x2)
        Serial Number: 42 (0x2a)
    Signature Algorithm: sha1WithRSAEncryption
        Issuer: C=US, ST=CA, L=SanFrancisco, O=Pixglo, Inc., OU=VPN-CIE, CN=tunnel.pixglo.com/name=Bala Chandrasekaran/emailAddress=bala@pixglo.com
        Validity
            Not Before: Feb 14 06:24:42 2018 GMT
            Not After : Feb 12 06:24:42 2028 GMT
        Subject: C=US, ST=CA, L=SanFrancisco, O=Pixglo, Inc., OU=VPN-CIE, CN=cie41/name=Bala Chandrasekaran/emailAddress=bala@pixglo.com
        Subject Public Key Info:
            Public Key Algorithm: rsaEncryption
                Public-Key: (4096 bit)
                Modulus:
                    00:be:b1:5d:65:ea:1e:79:cf:aa:b6:53:5a:fb:0b:
                    b5:4e:70:81:c3:9f:ce:c9:f0:8d:7f:99:c0:72:cc:
                    a4:df:cf:9c:92:70:db:d5:1b:9f:11:88:9e:11:d0:
                    c2:63:c5:ee:0d:e2:b5:d3:04:08:3c:43:b2:2c:07:
                    ca:a9:e4:1e:7a:ce:d3:ff:bf:a5:bc:ab:3e:eb:83:
                    87:04:e6:ee:a3:94:21:f1:50:2b:bd:05:63:4b:05:
                    4f:9d:b5:ce:6d:7b:cd:97:2e:a9:1e:b4:da:d6:41:
                    f5:0d:76:40:4d:61:da:7e:7c:31:83:1e:58:fb:42:
                    6f:3d:20:ab:07:20:01:1e:c8:c3:4e:d4:83:37:2a:
                    b9:ae:83:18:bf:2a:99:87:8e:10:3f:62:04:78:a4:
                    3f:61:e0:f3:da:89:2f:3b:fb:47:2e:98:b9:13:32:
                    9e:66:e4:64:dc:7a:ef:13:ed:15:1f:fc:e5:db:db:
                    7d:18:6f:28:88:9d:39:39:64:be:1b:f9:3b:8b:bb:
                    37:61:2b:a8:12:1d:45:0d:fc:a0:6f:9f:88:29:2f:
                    dc:0d:09:29:e5:19:f1:07:cf:11:a0:0f:b6:2e:08:
                    1c:11:a4:e5:ad:7c:74:38:2b:8a:e1:fb:e7:cd:33:
                    a9:98:75:62:81:a6:cf:95:83:22:12:c6:a2:c8:a6:
                    11:7d:0c:05:65:66:27:78:82:09:e5:d1:a5:24:bf:
                    ae:e7:14:f9:1f:ee:13:b2:ab:5a:d0:15:4b:71:b0:
                    43:50:24:1b:c3:35:df:ab:45:1b:27:a0:13:28:23:
                    2a:51:a1:40:84:5b:d2:08:be:6a:d6:56:21:f9:1a:
                    97:4e:9f:4a:d3:b4:23:df:54:fd:91:11:26:88:c5:
                    50:f5:af:c6:fd:4f:95:76:1c:d9:48:36:7d:4f:19:
                    af:1b:9e:7c:6c:15:50:2b:0f:e2:60:01:f3:8c:d3:
                    5b:34:c2:4b:dc:8a:62:37:93:80:a1:c2:8a:a2:97:
                    2c:48:98:88:26:61:5d:56:7a:54:88:b8:a8:ca:97:
                    2f:3a:fc:82:aa:8a:de:a3:73:ed:28:d4:1f:fa:09:
                    04:15:6a:79:08:66:e6:67:e4:1e:d4:61:60:aa:99:
                    a6:1d:bb:8d:5e:a0:d4:f3:76:91:fc:64:0f:86:b7:
                    a1:cc:c5:52:45:0b:60:f6:a3:1e:ab:c5:3e:aa:51:
                    e6:45:3e:a0:b2:95:77:e3:cf:a1:1e:e2:c0:38:45:
                    a0:19:39:c6:58:0a:39:91:5f:30:4f:bd:46:59:73:
                    b1:85:71:00:47:12:43:38:5f:cc:d5:e2:d9:3c:46:
                    fe:f5:2c:38:ef:4c:c1:e1:b7:8c:a7:ba:16:7b:93:
                    26:68:01
                Exponent: 65537 (0x10001)
        X509v3 extensions:
            X509v3 Basic Constraints: 
                CA:FALSE
            Netscape Comment: 
                Easy-RSA Generated Certificate
            X509v3 Subject Key Identifier: 
                8B:62:84:B9:0D:23:E5:3F:5A:59:4C:60:F3:04:41:62:92:D5:E6:AC
            X509v3 Authority Key Identifier: 
                keyid:EF:38:8D:14:50:58:A7:5B:4D:9C:17:72:FC:DF:B9:AC:A7:51:B0:10
                DirName:/C=US/ST=CA/L=SanFrancisco/O=Pixglo, Inc./OU=VPN-CIE/CN=tunnel.pixglo.com/name=Bala Chandrasekaran/emailAddress=bala@pixglo.com
                serial:A6:DB:C6:83:80:E6:A0:79

            X509v3 Extended Key Usage: 
                TLS Web Client Authentication
            X509v3 Key Usage: 
                Digital Signature
    Signature Algorithm: sha1WithRSAEncryption
         33:bf:c3:c2:37:33:49:e5:9a:5f:45:a1:ba:6b:8c:33:a0:b9:
         70:b1:3e:1c:e4:11:a5:bd:e3:d2:e7:01:42:69:80:ad:1e:ce:
         ec:5a:05:f8:26:88:f8:9f:28:1d:12:e9:6d:86:a9:1b:58:3c:
         5a:2d:a5:74:fd:d7:02:ca:84:ae:0b:8e:2b:49:e7:c8:4b:df:
         88:fc:f9:be:3d:0c:7a:fb:ae:3b:9e:61:f2:84:08:74:a4:02:
         ee:c0:34:ce:fa:ef:58:4d:28:c3:e7:5d:27:b3:90:f2:29:20:
         20:2f:01:f3:9b:99:31:b2:7b:ae:04:c2:24:8f:33:6d:45:4b:
         7c:79:0c:0b:bd:1a:83:66:2e:dd:ea:dc:25:e9:38:95:a2:b5:
         1d:cf:70:75:b4:94:9d:79:5c:94:d8:92:88:fc:d6:87:9d:5c:
         4b:4a:f3:f2:7c:41:49:61:3e:aa:7c:6e:b9:a7:06:22:78:16:
         83:d7:02:85:b4:05:be:ea:db:24:64:c1:c4:89:b6:01:3e:9b:
         ba:8a:4e:da:8b:8d:b5:3a:81:68:a9:1f:2e:b0:bf:f5:81:3e:
         d1:f5:5f:cf:e8:c1:be:f7:69:cd:da:e5:26:3d:db:ab:6b:28:
         f3:ad:37:62:23:33:3c:ac:82:60:bf:4b:f1:3f:33:a3:80:dc:
         45:96:7e:4f:9f:61:96:39:7c:64:a3:5f:6b:ed:74:76:6d:ae:
         07:4e:b6:53:2a:fa:9a:88:97:14:b4:08:69:9f:96:aa:41:42:
         a7:8e:d9:27:39:3a:32:e7:4a:7e:10:87:b2:34:76:e4:a3:41:
         90:44:9e:af:56:5e:3a:7c:68:2e:08:32:7b:4d:d5:aa:ca:42:
         1c:b9:3e:26:35:79:83:52:26:80:b2:bf:37:a3:04:3e:8d:d6:
         99:c1:6c:62:9f:dd:6d:61:25:2c:f4:1e:91:44:ea:ec:f5:92:
         3e:be:57:12:ff:ab:24:38:a9:1f:08:c7:30:19:76:a0:4b:dc:
         0b:91:b5:b3:7d:f1:8d:17:1a:a6:0a:bb:1a:90:1c:38:82:ef:
         bf:81:6b:f7:53:86:1f:4a:ec:8f:20:7b:f7:c8:41:05:b3:62:
         61:97:12:90:89:7e:89:d0:e3:66:81:42:72:75:30:2d:67:3d:
         6c:9c:19:cf:6d:0d:ae:6a:91:14:1e:22:9e:29:f5:e4:e3:60:
         f8:da:9a:30:5d:c4:1d:da:9f:1f:0d:51:3a:d9:7f:7f:d2:08:
         11:55:b5:e5:97:0f:c1:43:d3:bf:20:ee:89:4c:17:04:24:06:
         a8:1f:f2:bc:ab:bf:a4:78:7a:62:fc:37:32:75:f8:83:55:54:
         fe:74:1d:c2:97:5d:a6:7a
-----BEGIN CERTIFICATE-----
MIIHRjCCBS6gAwIBAgIBKjANBgkqhkiG9w0BAQUFADCBtDELMAkGA1UEBhMCVVMx
CzAJBgNVBAgTAkNBMRUwEwYDVQQHEwxTYW5GcmFuY2lzY28xFTATBgNVBAoTDFBp
eGdsbywgSW5jLjEQMA4GA1UECxMHVlBOLUNJRTEaMBgGA1UEAxMRdHVubmVsLnBp
eGdsby5jb20xHDAaBgNVBCkTE0JhbGEgQ2hhbmRyYXNla2FyYW4xHjAcBgkqhkiG
9w0BCQEWD2JhbGFAcGl4Z2xvLmNvbTAeFw0xODAyMTQwNjI0NDJaFw0yODAyMTIw
NjI0NDJaMIGoMQswCQYDVQQGEwJVUzELMAkGA1UECBMCQ0ExFTATBgNVBAcTDFNh
bkZyYW5jaXNjbzEVMBMGA1UEChMMUGl4Z2xvLCBJbmMuMRAwDgYDVQQLEwdWUE4t
Q0lFMQ4wDAYDVQQDEwVjaWU0MTEcMBoGA1UEKRMTQmFsYSBDaGFuZHJhc2VrYXJh
bjEeMBwGCSqGSIb3DQEJARYPYmFsYUBwaXhnbG8uY29tMIICIjANBgkqhkiG9w0B
AQEFAAOCAg8AMIICCgKCAgEAvrFdZeoeec+qtlNa+wu1TnCBw5/OyfCNf5nAcsyk
38+cknDb1RufEYieEdDCY8XuDeK10wQIPEOyLAfKqeQees7T/7+lvKs+64OHBObu
o5Qh8VArvQVjSwVPnbXObXvNly6pHrTa1kH1DXZATWHafnwxgx5Y+0JvPSCrByAB
HsjDTtSDNyq5roMYvyqZh44QP2IEeKQ/YeDz2okvO/tHLpi5EzKeZuRk3HrvE+0V
H/zl29t9GG8oiJ05OWS+G/k7i7s3YSuoEh1FDfygb5+IKS/cDQkp5RnxB88RoA+2
LggcEaTlrXx0OCuK4fvnzTOpmHVigabPlYMiEsaiyKYRfQwFZWYneIIJ5dGlJL+u
5xT5H+4Tsqta0BVLcbBDUCQbwzXfq0UbJ6ATKCMqUaFAhFvSCL5q1lYh+RqXTp9K
07Qj31T9kREmiMVQ9a/G/U+VdhzZSDZ9TxmvG558bBVQKw/iYAHzjNNbNMJL3Ipi
N5OAocKKopcsSJiIJmFdVnpUiLioypcvOvyCqoreo3PtKNQf+gkEFWp5CGbmZ+Qe
1GFgqpmmHbuNXqDU83aR/GQPhrehzMVSRQtg9qMeq8U+qlHmRT6gspV348+hHuLA
OEWgGTnGWAo5kV8wT71GWXOxhXEARxJDOF/M1eLZPEb+9Sw470zB4beMp7oWe5Mm
aAECAwEAAaOCAWswggFnMAkGA1UdEwQCMAAwLQYJYIZIAYb4QgENBCAWHkVhc3kt
UlNBIEdlbmVyYXRlZCBDZXJ0aWZpY2F0ZTAdBgNVHQ4EFgQUi2KEuQ0j5T9aWUxg
8wRBYpLV5qwwgekGA1UdIwSB4TCB3oAU7ziNFFBYp1tNnBdy/N+5rKdRsBChgbqk
gbcwgbQxCzAJBgNVBAYTAlVTMQswCQYDVQQIEwJDQTEVMBMGA1UEBxMMU2FuRnJh
bmNpc2NvMRUwEwYDVQQKEwxQaXhnbG8sIEluYy4xEDAOBgNVBAsTB1ZQTi1DSUUx
GjAYBgNVBAMTEXR1bm5lbC5waXhnbG8uY29tMRwwGgYDVQQpExNCYWxhIENoYW5k
cmFzZWthcmFuMR4wHAYJKoZIhvcNAQkBFg9iYWxhQHBpeGdsby5jb22CCQCm28aD
gOageTATBgNVHSUEDDAKBggrBgEFBQcDAjALBgNVHQ8EBAMCB4AwDQYJKoZIhvcN
AQEFBQADggIBADO/w8I3M0nlml9FobprjDOguXCxPhzkEaW949LnAUJpgK0ezuxa
BfgmiPifKB0S6W2GqRtYPFotpXT91wLKhK4LjitJ58hL34j8+b49DHr7rjueYfKE
CHSkAu7ANM7671hNKMPnXSezkPIpICAvAfObmTGye64EwiSPM21FS3x5DAu9GoNm
Lt3q3CXpOJWitR3PcHW0lJ15XJTYkoj81oedXEtK8/J8QUlhPqp8brmnBiJ4FoPX
AoW0Bb7q2yRkwcSJtgE+m7qKTtqLjbU6gWipHy6wv/WBPtH1X8/owb73ac3a5SY9
26trKPOtN2IjMzysgmC/S/E/M6OA3EWWfk+fYZY5fGSjX2vtdHZtrgdOtlMq+pqI
lxS0CGmflqpBQqeO2Sc5OjLnSn4Qh7I0duSjQZBEnq9WXjp8aC4IMntN1arKQhy5
PiY1eYNSJoCyvzejBD6N1pnBbGKf3W1hJSz0HpFE6uz1kj6+VxL/qyQ4qR8IxzAZ
dqBL3AuRtbN98Y0XGqYKuxqQHDiC77+Ba/dThh9K7I8ge/fIQQWzYmGXEpCJfonQ
42aBQnJ1MC1nPWycGc9tDa5qkRQeIp4p9eTjYPjamjBdxB3anx8NUTrZf3/SCBFV
teWXD8FD078g7olMFwQkBqgf8ryrv6R4emL8NzJ1+INVVP50HcKXXaZ6
-----END CERTIFICATE-----
