Certificate:
    Data:
        Version: 3 (0x2)
        Serial Number: 476 (0x1dc)
    Signature Algorithm: sha1WithRSAEncryption
        Issuer: C=US, ST=CA, L=SanFrancisco, O=Pixglo, Inc., OU=VPN-CIE, CN=tunnel.pixglo.com/name=Bala Chandrasekaran/emailAddress=bala@pixglo.com
        Validity
            Not Before: Feb 14 06:35:03 2018 GMT
            Not After : Feb 12 06:35:03 2028 GMT
        Subject: C=US, ST=CA, L=SanFrancisco, O=Pixglo, Inc., OU=VPN-CIE, CN=cie475/name=Bala Chandrasekaran/emailAddress=bala@pixglo.com
        Subject Public Key Info:
            Public Key Algorithm: rsaEncryption
                Public-Key: (4096 bit)
                Modulus:
                    00:a8:48:5e:73:31:23:89:c6:98:4e:bd:bf:c6:93:
                    3d:f7:21:16:23:d1:89:fa:64:29:ee:b1:4d:1e:68:
                    2e:0d:84:ae:19:75:d4:35:00:73:ff:1f:35:03:9d:
                    95:80:ec:6a:20:f8:f5:c5:43:6d:fc:0e:3a:e0:07:
                    33:28:2a:ff:2b:8b:fd:1a:39:2e:ac:6f:76:02:35:
                    bd:1a:c7:59:29:25:d3:a3:e8:00:85:c3:b5:65:4f:
                    ae:5e:98:f6:f3:aa:bd:7a:f4:69:74:f0:4b:55:37:
                    61:70:6a:92:70:21:a0:e0:8b:6c:97:24:41:69:48:
                    f0:a2:76:65:30:a1:4d:9c:15:38:e0:71:e5:44:65:
                    fa:30:a4:11:51:23:3f:c5:c6:32:b0:22:b4:86:50:
                    ca:02:6c:85:67:5a:ec:ad:58:59:19:d5:7e:c9:f3:
                    01:29:9a:5b:c6:42:a0:21:ec:c7:ee:72:17:d7:87:
                    da:a7:99:31:e1:47:9d:9d:7d:ff:31:6c:75:bf:d6:
                    b7:5c:d9:1e:1d:0c:80:91:67:84:37:c4:9e:aa:da:
                    27:16:a0:25:34:c9:a1:12:67:9d:2f:aa:65:99:3e:
                    c8:c3:64:0a:2b:92:62:c9:09:59:c8:c0:72:8e:9f:
                    ba:9d:91:68:8d:68:07:44:f3:6b:bd:e2:c0:27:11:
                    21:25:12:ac:76:bf:70:35:a3:52:e4:d4:e5:53:a1:
                    c8:a7:a3:4a:63:ed:aa:4c:4b:fb:16:a5:58:e0:d4:
                    77:1b:5a:57:74:2e:45:b3:fb:2b:c8:79:ec:7b:58:
                    8c:e4:9a:e1:75:8d:64:b4:b2:26:82:50:aa:e1:eb:
                    40:62:a4:9f:1e:8b:56:5b:53:28:cc:66:c5:6f:03:
                    b5:e6:38:7a:a7:ec:28:55:70:65:db:06:84:21:9e:
                    c1:17:e8:84:54:59:d9:29:7b:a5:7d:63:2f:98:3d:
                    4b:3b:d7:e3:2a:ba:81:b8:9c:2c:1e:3f:74:26:ba:
                    c4:e1:14:c7:ac:79:6e:11:d6:cc:d3:22:4c:a2:87:
                    46:09:7b:c0:15:1a:06:95:1f:df:74:33:9f:0f:2e:
                    a4:92:f6:20:3b:0d:40:47:64:e0:e4:39:87:d3:8a:
                    42:fa:e5:f7:1c:4f:76:c6:f9:80:e4:40:62:90:4e:
                    58:ec:44:66:01:61:ff:a0:f1:72:49:15:6c:15:e1:
                    83:c5:f1:7d:8d:9e:de:2b:83:6f:23:c7:91:19:9a:
                    60:e6:e3:98:04:82:65:d3:97:20:10:ab:62:80:d0:
                    49:6c:1e:5e:3f:e3:d2:60:eb:46:5d:d2:8d:a4:c2:
                    82:2e:4e:c7:90:1b:e1:28:50:39:f3:f9:5c:52:10:
                    75:53:11
                Exponent: 65537 (0x10001)
        X509v3 extensions:
            X509v3 Basic Constraints: 
                CA:FALSE
            Netscape Comment: 
                Easy-RSA Generated Certificate
            X509v3 Subject Key Identifier: 
                83:54:0A:57:EB:64:A6:8F:BC:1F:78:65:1E:4A:7F:D8:BD:1B:D4:80
            X509v3 Authority Key Identifier: 
                keyid:EF:38:8D:14:50:58:A7:5B:4D:9C:17:72:FC:DF:B9:AC:A7:51:B0:10
                DirName:/C=US/ST=CA/L=SanFrancisco/O=Pixglo, Inc./OU=VPN-CIE/CN=tunnel.pixglo.com/name=Bala Chandrasekaran/emailAddress=bala@pixglo.com
                serial:A6:DB:C6:83:80:E6:A0:79

            X509v3 Extended Key Usage: 
                TLS Web Client Authentication
            X509v3 Key Usage: 
                Digital Signature
    Signature Algorithm: sha1WithRSAEncryption
         e4:a8:4f:81:2d:7c:48:a8:56:e6:e9:22:5c:4b:13:4d:22:76:
         8c:73:81:9c:38:07:7b:2e:83:a2:ee:af:ad:bc:f1:29:3b:e8:
         7c:d1:aa:e8:11:d9:e6:4d:9e:8e:06:6f:5d:75:65:34:60:88:
         c5:3a:96:67:aa:e6:69:e8:46:b4:56:21:91:df:c9:08:99:01:
         24:bf:b7:91:2c:ca:9d:44:92:92:b9:63:39:ce:b4:11:26:cd:
         75:a9:8d:8b:f4:7c:30:02:a0:29:11:e1:9e:19:cb:b7:b7:43:
         f8:e9:26:ec:90:e2:1c:db:53:c9:00:4c:8a:28:bd:06:ba:3b:
         15:f9:dc:34:27:ba:9b:88:f7:8c:26:25:0a:bc:8d:25:56:dc:
         b5:e4:da:08:08:84:87:72:78:14:b3:44:1b:c5:4a:4c:9d:49:
         b3:7c:dc:f1:5c:85:f3:eb:b9:a6:a1:2b:f4:c9:aa:98:70:25:
         d4:2e:3e:1e:9b:5b:73:57:7f:bd:2d:72:e4:93:99:4c:26:b2:
         7e:ae:69:98:30:66:8a:de:d4:e8:4b:f9:3c:be:99:a9:8b:4a:
         81:69:4c:29:7a:73:59:d7:0a:91:57:0a:00:89:f6:b9:85:aa:
         20:6f:3f:b2:a9:ab:05:47:05:7b:73:24:02:6a:53:09:ac:0b:
         94:5c:7d:69:0c:35:1e:cd:cd:45:cb:28:5e:27:5b:cd:bf:4d:
         1d:1f:00:63:00:a9:f0:c9:54:a6:ec:97:d0:76:9d:aa:91:95:
         e4:64:e6:bd:9f:09:ef:5e:a6:7b:3f:a9:e0:8c:51:a5:3e:8e:
         71:7f:0d:99:85:7c:00:8f:e7:4e:2d:07:f6:b7:6c:a2:54:f7:
         34:57:da:23:5b:ed:e6:88:cf:60:41:79:4e:45:28:50:2b:96:
         27:ad:c5:a7:b7:ec:c8:10:d8:96:b2:8f:3d:cf:e2:cf:02:bf:
         d1:78:bb:f3:a5:c0:7c:ca:38:c6:f2:17:70:27:de:1a:0a:5f:
         3e:46:57:1e:4f:e2:1f:ca:3f:c9:0e:3b:ec:ff:b0:25:70:b1:
         83:f3:1f:c1:ce:0e:b3:5f:89:72:d6:11:45:16:2f:22:28:63:
         c1:e4:ba:a8:b1:eb:8f:2c:86:7c:b3:d0:ee:ea:94:bd:90:18:
         a7:ff:b8:75:c7:cb:c4:8e:10:f0:40:92:1b:3e:83:f4:be:5c:
         31:fb:de:b7:7f:c4:96:4f:b9:ee:76:1e:fa:7c:1e:5f:17:ba:
         d7:97:d3:34:32:86:1e:b0:57:c7:e1:44:1b:8b:c8:4c:4b:80:
         ce:75:ce:bb:d9:50:74:3f:50:82:5a:3c:19:9b:6d:24:3d:fb:
         05:07:36:96:70:ae:8b:18
-----BEGIN CERTIFICATE-----
MIIHSDCCBTCgAwIBAgICAdwwDQYJKoZIhvcNAQEFBQAwgbQxCzAJBgNVBAYTAlVT
MQswCQYDVQQIEwJDQTEVMBMGA1UEBxMMU2FuRnJhbmNpc2NvMRUwEwYDVQQKEwxQ
aXhnbG8sIEluYy4xEDAOBgNVBAsTB1ZQTi1DSUUxGjAYBgNVBAMTEXR1bm5lbC5w
aXhnbG8uY29tMRwwGgYDVQQpExNCYWxhIENoYW5kcmFzZWthcmFuMR4wHAYJKoZI
hvcNAQkBFg9iYWxhQHBpeGdsby5jb20wHhcNMTgwMjE0MDYzNTAzWhcNMjgwMjEy
MDYzNTAzWjCBqTELMAkGA1UEBhMCVVMxCzAJBgNVBAgTAkNBMRUwEwYDVQQHEwxT
YW5GcmFuY2lzY28xFTATBgNVBAoTDFBpeGdsbywgSW5jLjEQMA4GA1UECxMHVlBO
LUNJRTEPMA0GA1UEAxMGY2llNDc1MRwwGgYDVQQpExNCYWxhIENoYW5kcmFzZWth
cmFuMR4wHAYJKoZIhvcNAQkBFg9iYWxhQHBpeGdsby5jb20wggIiMA0GCSqGSIb3
DQEBAQUAA4ICDwAwggIKAoICAQCoSF5zMSOJxphOvb/Gkz33IRYj0Yn6ZCnusU0e
aC4NhK4ZddQ1AHP/HzUDnZWA7Gog+PXFQ238DjrgBzMoKv8ri/0aOS6sb3YCNb0a
x1kpJdOj6ACFw7VlT65emPbzqr169Gl08EtVN2FwapJwIaDgi2yXJEFpSPCidmUw
oU2cFTjgceVEZfowpBFRIz/FxjKwIrSGUMoCbIVnWuytWFkZ1X7J8wEpmlvGQqAh
7MfuchfXh9qnmTHhR52dff8xbHW/1rdc2R4dDICRZ4Q3xJ6q2icWoCU0yaESZ50v
qmWZPsjDZAorkmLJCVnIwHKOn7qdkWiNaAdE82u94sAnESElEqx2v3A1o1Lk1OVT
ocino0pj7apMS/sWpVjg1HcbWld0LkWz+yvIeex7WIzkmuF1jWS0siaCUKrh60Bi
pJ8ei1ZbUyjMZsVvA7XmOHqn7ChVcGXbBoQhnsEX6IRUWdkpe6V9Yy+YPUs71+Mq
uoG4nCweP3QmusThFMeseW4R1szTIkyih0YJe8AVGgaVH990M58PLqSS9iA7DUBH
ZODkOYfTikL65fccT3bG+YDkQGKQTljsRGYBYf+g8XJJFWwV4YPF8X2Nnt4rg28j
x5EZmmDm45gEgmXTlyAQq2KA0ElsHl4/49Jg60Zd0o2kwoIuTseQG+EoUDnz+VxS
EHVTEQIDAQABo4IBazCCAWcwCQYDVR0TBAIwADAtBglghkgBhvhCAQ0EIBYeRWFz
eS1SU0EgR2VuZXJhdGVkIENlcnRpZmljYXRlMB0GA1UdDgQWBBSDVApX62Smj7wf
eGUeSn/YvRvUgDCB6QYDVR0jBIHhMIHegBTvOI0UUFinW02cF3L837msp1GwEKGB
uqSBtzCBtDELMAkGA1UEBhMCVVMxCzAJBgNVBAgTAkNBMRUwEwYDVQQHEwxTYW5G
cmFuY2lzY28xFTATBgNVBAoTDFBpeGdsbywgSW5jLjEQMA4GA1UECxMHVlBOLUNJ
RTEaMBgGA1UEAxMRdHVubmVsLnBpeGdsby5jb20xHDAaBgNVBCkTE0JhbGEgQ2hh
bmRyYXNla2FyYW4xHjAcBgkqhkiG9w0BCQEWD2JhbGFAcGl4Z2xvLmNvbYIJAKbb
xoOA5qB5MBMGA1UdJQQMMAoGCCsGAQUFBwMCMAsGA1UdDwQEAwIHgDANBgkqhkiG
9w0BAQUFAAOCAgEA5KhPgS18SKhW5ukiXEsTTSJ2jHOBnDgHey6Dou6vrbzxKTvo
fNGq6BHZ5k2ejgZvXXVlNGCIxTqWZ6rmaehGtFYhkd/JCJkBJL+3kSzKnUSSkrlj
Oc60ESbNdamNi/R8MAKgKRHhnhnLt7dD+Okm7JDiHNtTyQBMiii9Bro7FfncNCe6
m4j3jCYlCryNJVbcteTaCAiEh3J4FLNEG8VKTJ1Js3zc8VyF8+u5pqEr9MmqmHAl
1C4+Hptbc1d/vS1y5JOZTCayfq5pmDBmit7U6Ev5PL6ZqYtKgWlMKXpzWdcKkVcK
AIn2uYWqIG8/sqmrBUcFe3MkAmpTCawLlFx9aQw1Hs3NRcsoXidbzb9NHR8AYwCp
8MlUpuyX0HadqpGV5GTmvZ8J716mez+p4IxRpT6OcX8NmYV8AI/nTi0H9rdsolT3
NFfaI1vt5ojPYEF5TkUoUCuWJ63Fp7fsyBDYlrKPPc/izwK/0Xi786XAfMo4xvIX
cCfeGgpfPkZXHk/iH8o/yQ477P+wJXCxg/Mfwc4Os1+JctYRRRYvIihjweS6qLHr
jyyGfLPQ7uqUvZAYp/+4dcfLxI4Q8ECSGz6D9L5cMfvet3/Elk+57nYe+nweXxe6
15fTNDKGHrBXx+FEG4vITEuAznXOu9lQdD9Qglo8GZttJD37BQc2lnCuixg=
-----END CERTIFICATE-----
