Certificate:
    Data:
        Version: 3 (0x2)
        Serial Number: 487 (0x1e7)
    Signature Algorithm: sha1WithRSAEncryption
        Issuer: C=US, ST=CA, L=SanFrancisco, O=Pixglo, Inc., OU=VPN-CIE, CN=tunnel.pixglo.com/name=Bala Chandrasekaran/emailAddress=bala@pixglo.com
        Validity
            Not Before: Feb 14 06:35:20 2018 GMT
            Not After : Feb 12 06:35:20 2028 GMT
        Subject: C=US, ST=CA, L=SanFrancisco, O=Pixglo, Inc., OU=VPN-CIE, CN=cie486/name=Bala Chandrasekaran/emailAddress=bala@pixglo.com
        Subject Public Key Info:
            Public Key Algorithm: rsaEncryption
                Public-Key: (4096 bit)
                Modulus:
                    00:b7:95:55:ae:f8:bd:d7:be:ba:d7:a8:79:c5:0e:
                    46:45:22:d2:ba:c5:b1:50:27:dc:2e:52:27:b9:4a:
                    b4:c8:10:02:08:63:dd:7e:6e:d2:82:c4:4a:9b:11:
                    4d:8f:1f:8b:7a:77:8b:2f:b2:d0:97:d3:94:14:dd:
                    ac:02:14:17:37:b3:b6:92:59:6c:13:a7:f1:2b:ae:
                    02:a7:41:3d:45:82:d3:01:82:45:2e:09:73:5f:7b:
                    05:b5:14:98:fc:ca:96:af:e3:a5:f0:b8:d9:9d:5b:
                    d4:c5:97:c9:f8:23:7d:88:50:5e:67:82:9c:bf:3b:
                    a2:ae:31:2e:e0:2f:61:02:4b:4f:35:38:9b:37:b7:
                    8a:85:d5:63:97:90:76:ef:47:ca:30:ef:b0:92:8d:
                    45:5e:d1:c4:a7:56:9f:99:6a:c0:6b:d9:6f:cd:06:
                    65:c9:34:82:4c:e5:0e:75:ce:df:55:4a:6f:dd:94:
                    89:a3:f2:51:17:89:f3:cb:10:a1:e3:25:35:5c:30:
                    83:22:b3:c3:7e:42:b1:ef:32:84:7a:90:26:ed:d0:
                    09:5a:57:c2:30:cb:59:75:a6:ff:8e:3c:2f:0a:42:
                    5f:2a:0e:ad:46:4b:af:87:66:6b:37:7f:d3:b0:dd:
                    3c:f7:2e:00:74:c7:1c:1d:f7:c3:f3:de:d5:e9:a4:
                    cf:89:44:f4:76:b9:4e:40:42:2a:34:19:e5:70:e8:
                    fe:85:ce:c1:a8:b9:9a:32:ec:fc:f7:72:bd:0a:0a:
                    7d:69:8c:c3:3a:f2:80:a9:90:b8:7e:8c:a1:84:84:
                    43:29:96:fb:bc:a7:5e:7d:e2:4f:90:3d:6c:74:fb:
                    7f:94:93:a4:8e:2d:a0:03:06:7a:a3:71:fa:70:1f:
                    51:92:83:0c:1e:62:2c:97:9e:ba:52:47:ad:00:7a:
                    4a:13:35:e8:fd:43:49:42:14:33:b0:ee:bc:c1:d6:
                    10:05:51:1f:30:13:57:61:a1:bb:b8:6c:1c:b0:7a:
                    b5:c9:90:95:7f:4f:55:a8:a1:a7:60:76:3b:d0:a6:
                    03:40:18:e9:42:9f:9f:28:d6:d7:18:29:06:41:62:
                    db:01:16:49:72:8d:cf:e4:c9:51:5c:e1:7e:f8:0a:
                    94:2c:5e:95:1c:47:48:d6:5b:5b:06:3d:8f:41:b4:
                    3d:9b:c9:05:1a:89:a2:9c:8d:f5:c0:9c:a6:1f:9a:
                    4c:92:76:5a:d1:8d:81:57:a4:cf:40:ae:4a:75:ee:
                    6d:2c:38:9a:84:f1:c6:ed:28:33:c5:45:b2:21:97:
                    e4:bd:e4:b0:07:3f:39:62:b1:dc:8e:bf:13:2f:f3:
                    bc:e7:ea:dd:b2:d3:d2:af:ee:e2:f1:52:cd:b7:56:
                    b8:8e:0f
                Exponent: 65537 (0x10001)
        X509v3 extensions:
            X509v3 Basic Constraints: 
                CA:FALSE
            Netscape Comment: 
                Easy-RSA Generated Certificate
            X509v3 Subject Key Identifier: 
                6D:92:02:AD:10:FE:59:39:1F:A4:CA:EE:22:83:11:55:4E:3A:67:5B
            X509v3 Authority Key Identifier: 
                keyid:EF:38:8D:14:50:58:A7:5B:4D:9C:17:72:FC:DF:B9:AC:A7:51:B0:10
                DirName:/C=US/ST=CA/L=SanFrancisco/O=Pixglo, Inc./OU=VPN-CIE/CN=tunnel.pixglo.com/name=Bala Chandrasekaran/emailAddress=bala@pixglo.com
                serial:A6:DB:C6:83:80:E6:A0:79

            X509v3 Extended Key Usage: 
                TLS Web Client Authentication
            X509v3 Key Usage: 
                Digital Signature
    Signature Algorithm: sha1WithRSAEncryption
         48:77:80:5c:a4:0a:8c:c5:67:ae:6a:e6:89:e6:cc:f4:2d:b1:
         40:6a:67:51:72:b8:be:a4:cb:20:30:7a:87:9d:cb:73:c3:45:
         30:16:86:09:1b:05:8d:a4:88:35:73:90:df:19:ff:58:1e:14:
         25:48:2d:31:64:40:b1:59:e1:9d:23:eb:a9:e9:66:b5:5a:92:
         ea:ad:bf:29:1e:34:15:b2:5e:72:31:8e:bf:4b:f5:3d:5a:90:
         e4:be:d6:8d:3b:84:c2:67:d5:a0:c6:ba:ae:0d:39:79:b1:7f:
         89:69:0a:ce:25:e0:04:97:7a:42:9c:42:cc:4d:80:0c:b6:60:
         52:f5:2d:fe:4a:4c:93:99:c0:2f:36:fd:7b:66:85:31:b8:b8:
         40:43:89:70:d2:ba:cd:05:f4:be:4a:de:ef:c1:72:f9:ab:7e:
         b5:93:e1:dc:52:b9:40:84:d2:e4:72:7c:2a:c9:ce:d5:6f:29:
         e4:6e:ef:ef:8d:8b:61:ca:5b:84:be:dd:ac:1d:ef:67:34:9b:
         d6:c9:08:38:53:6e:d2:1d:82:c4:de:ff:fa:9a:0a:15:00:ac:
         a5:e2:64:53:04:0f:2a:0d:c0:c4:b6:05:d8:da:43:dc:26:25:
         fb:b8:81:f8:0b:31:bb:da:23:91:c7:13:ae:dd:7e:82:e6:ba:
         04:7e:1b:69:6a:26:c9:88:b5:9d:59:76:49:36:42:11:8a:f8:
         48:09:15:56:81:05:5b:87:db:6d:40:2b:33:26:05:1c:83:89:
         dc:c6:e7:73:93:af:e8:a9:ec:76:3e:b9:5f:a5:8a:b3:13:0c:
         c4:f3:70:83:a5:ea:51:e3:7c:ed:ff:6e:94:bd:f6:e7:6e:26:
         a1:fd:54:30:6b:a3:a5:50:49:6d:26:47:2a:2b:d0:50:2d:ea:
         1a:6f:e8:0e:87:6e:63:d4:24:b7:a5:fb:c8:65:83:b2:2d:9a:
         4d:9e:e7:36:03:5b:ea:22:fc:22:36:d2:c6:44:4a:ab:9a:d2:
         36:ad:49:43:f7:36:be:77:70:dc:24:fb:df:f7:88:0c:80:7e:
         08:97:2d:a4:a3:36:f6:e3:d5:7b:35:00:aa:51:5a:48:dd:39:
         52:e0:60:db:fe:b1:86:33:bd:63:2b:3e:bd:51:34:67:08:a0:
         f4:1d:c1:ca:f7:c6:38:d2:5e:02:9d:56:79:e5:c0:5d:d9:34:
         18:9d:d7:db:7f:f1:0c:d5:fd:3c:46:47:c5:f5:82:c7:03:5f:
         cc:3e:0e:0c:a9:c7:24:6d:92:f5:dc:aa:4f:d3:53:22:34:87:
         a0:81:7f:13:6a:1e:65:42:e2:19:09:e7:de:bb:eb:56:d8:f9:
         01:f0:43:3d:91:54:54:ea
-----BEGIN CERTIFICATE-----
MIIHSDCCBTCgAwIBAgICAecwDQYJKoZIhvcNAQEFBQAwgbQxCzAJBgNVBAYTAlVT
MQswCQYDVQQIEwJDQTEVMBMGA1UEBxMMU2FuRnJhbmNpc2NvMRUwEwYDVQQKEwxQ
aXhnbG8sIEluYy4xEDAOBgNVBAsTB1ZQTi1DSUUxGjAYBgNVBAMTEXR1bm5lbC5w
aXhnbG8uY29tMRwwGgYDVQQpExNCYWxhIENoYW5kcmFzZWthcmFuMR4wHAYJKoZI
hvcNAQkBFg9iYWxhQHBpeGdsby5jb20wHhcNMTgwMjE0MDYzNTIwWhcNMjgwMjEy
MDYzNTIwWjCBqTELMAkGA1UEBhMCVVMxCzAJBgNVBAgTAkNBMRUwEwYDVQQHEwxT
YW5GcmFuY2lzY28xFTATBgNVBAoTDFBpeGdsbywgSW5jLjEQMA4GA1UECxMHVlBO
LUNJRTEPMA0GA1UEAxMGY2llNDg2MRwwGgYDVQQpExNCYWxhIENoYW5kcmFzZWth
cmFuMR4wHAYJKoZIhvcNAQkBFg9iYWxhQHBpeGdsby5jb20wggIiMA0GCSqGSIb3
DQEBAQUAA4ICDwAwggIKAoICAQC3lVWu+L3XvrrXqHnFDkZFItK6xbFQJ9wuUie5
SrTIEAIIY91+btKCxEqbEU2PH4t6d4svstCX05QU3awCFBc3s7aSWWwTp/ErrgKn
QT1FgtMBgkUuCXNfewW1FJj8ypav46XwuNmdW9TFl8n4I32IUF5ngpy/O6KuMS7g
L2ECS081OJs3t4qF1WOXkHbvR8ow77CSjUVe0cSnVp+ZasBr2W/NBmXJNIJM5Q51
zt9VSm/dlImj8lEXifPLEKHjJTVcMIMis8N+QrHvMoR6kCbt0AlaV8Iwy1l1pv+O
PC8KQl8qDq1GS6+HZms3f9Ow3Tz3LgB0xxwd98Pz3tXppM+JRPR2uU5AQio0GeVw
6P6FzsGouZoy7Pz3cr0KCn1pjMM68oCpkLh+jKGEhEMplvu8p1594k+QPWx0+3+U
k6SOLaADBnqjcfpwH1GSgwweYiyXnrpSR60AekoTNej9Q0lCFDOw7rzB1hAFUR8w
E1dhobu4bBywerXJkJV/T1WooadgdjvQpgNAGOlCn58o1tcYKQZBYtsBFklyjc/k
yVFc4X74CpQsXpUcR0jWW1sGPY9BtD2byQUaiaKcjfXAnKYfmkySdlrRjYFXpM9A
rkp17m0sOJqE8cbtKDPFRbIhl+S95LAHPzlisdyOvxMv87zn6t2y09Kv7uLxUs23
VriODwIDAQABo4IBazCCAWcwCQYDVR0TBAIwADAtBglghkgBhvhCAQ0EIBYeRWFz
eS1SU0EgR2VuZXJhdGVkIENlcnRpZmljYXRlMB0GA1UdDgQWBBRtkgKtEP5ZOR+k
yu4igxFVTjpnWzCB6QYDVR0jBIHhMIHegBTvOI0UUFinW02cF3L837msp1GwEKGB
uqSBtzCBtDELMAkGA1UEBhMCVVMxCzAJBgNVBAgTAkNBMRUwEwYDVQQHEwxTYW5G
cmFuY2lzY28xFTATBgNVBAoTDFBpeGdsbywgSW5jLjEQMA4GA1UECxMHVlBOLUNJ
RTEaMBgGA1UEAxMRdHVubmVsLnBpeGdsby5jb20xHDAaBgNVBCkTE0JhbGEgQ2hh
bmRyYXNla2FyYW4xHjAcBgkqhkiG9w0BCQEWD2JhbGFAcGl4Z2xvLmNvbYIJAKbb
xoOA5qB5MBMGA1UdJQQMMAoGCCsGAQUFBwMCMAsGA1UdDwQEAwIHgDANBgkqhkiG
9w0BAQUFAAOCAgEASHeAXKQKjMVnrmrmiebM9C2xQGpnUXK4vqTLIDB6h53Lc8NF
MBaGCRsFjaSINXOQ3xn/WB4UJUgtMWRAsVnhnSPrqelmtVqS6q2/KR40FbJecjGO
v0v1PVqQ5L7WjTuEwmfVoMa6rg05ebF/iWkKziXgBJd6QpxCzE2ADLZgUvUt/kpM
k5nALzb9e2aFMbi4QEOJcNK6zQX0vkre78Fy+at+tZPh3FK5QITS5HJ8KsnO1W8p
5G7v742LYcpbhL7drB3vZzSb1skIOFNu0h2CxN7/+poKFQCspeJkUwQPKg3AxLYF
2NpD3CYl+7iB+Asxu9ojkccTrt1+gua6BH4baWomyYi1nVl2STZCEYr4SAkVVoEF
W4fbbUArMyYFHIOJ3Mbnc5Ov6Knsdj65X6WKsxMMxPNwg6XqUeN87f9ulL32524m
of1UMGujpVBJbSZHKivQUC3qGm/oDoduY9Qkt6X7yGWDsi2aTZ7nNgNb6iL8IjbS
xkRKq5rSNq1JQ/c2vndw3CT73/eIDIB+CJctpKM29uPVezUAqlFaSN05UuBg2/6x
hjO9Yys+vVE0Zwig9B3ByvfGONJeAp1WeeXAXdk0GJ3X23/xDNX9PEZHxfWCxwNf
zD4ODKnHJG2S9dyqT9NTIjSHoIF/E2oeZULiGQnn3rvrVtj5AfBDPZFUVOo=
-----END CERTIFICATE-----
