Certificate:
    Data:
        Version: 3 (0x2)
        Serial Number: 454 (0x1c6)
    Signature Algorithm: sha1WithRSAEncryption
        Issuer: C=US, ST=CA, L=SanFrancisco, O=Pixglo, Inc., OU=VPN-CIE, CN=tunnel.pixglo.com/name=Bala Chandrasekaran/emailAddress=bala@pixglo.com
        Validity
            Not Before: Feb 14 06:34:27 2018 GMT
            Not After : Feb 12 06:34:27 2028 GMT
        Subject: C=US, ST=CA, L=SanFrancisco, O=Pixglo, Inc., OU=VPN-CIE, CN=cie453/name=Bala Chandrasekaran/emailAddress=bala@pixglo.com
        Subject Public Key Info:
            Public Key Algorithm: rsaEncryption
                Public-Key: (4096 bit)
                Modulus:
                    00:d9:4b:10:e7:86:11:76:90:47:f6:0a:c1:b2:f5:
                    7c:52:67:09:68:15:43:3d:d0:fc:91:6e:4a:67:6a:
                    7a:c1:60:d4:ff:74:98:86:0b:eb:bc:67:5b:36:86:
                    2e:eb:87:bc:80:f0:93:aa:58:92:53:ed:64:c4:e7:
                    73:bc:2e:d9:30:8a:f7:0e:59:4b:d9:6a:ef:df:c3:
                    18:3f:45:f6:17:c6:6f:df:d4:f8:c7:12:38:e7:33:
                    24:dc:2a:da:ee:ef:ac:28:fd:99:a2:12:6a:b0:32:
                    b9:16:99:63:dc:f2:52:bf:2d:13:52:7b:cb:31:f8:
                    01:f2:94:f5:13:2b:b4:a9:53:5d:cc:c8:6c:a0:a4:
                    a4:d0:76:72:31:99:b3:51:4a:1a:0d:16:3d:52:4a:
                    e2:55:3b:1e:e1:98:09:70:13:f9:25:10:f0:4e:6c:
                    e5:50:78:47:02:43:d4:18:f9:47:f9:f1:96:52:c2:
                    71:f0:aa:aa:cf:71:e7:18:8d:0d:6c:db:f7:dc:d7:
                    e3:4d:6f:2c:53:3d:7b:47:9a:fd:b2:b5:c4:ba:3e:
                    0e:6d:55:63:79:0a:40:83:a0:26:9a:9a:2e:2a:5e:
                    f9:20:eb:bc:9c:c1:43:e4:e7:dc:eb:78:ef:df:fb:
                    f7:65:09:3a:1b:69:ec:cb:a9:00:17:27:0a:5b:73:
                    8f:e9:6b:86:39:0d:0b:bd:a5:8d:f2:17:17:0c:1f:
                    b4:65:b2:53:2a:d3:b9:8c:fc:a2:ec:b8:d4:fe:2a:
                    0b:92:49:47:7e:e2:2d:aa:b9:cb:fc:1b:e3:cd:22:
                    ee:69:27:95:6b:7a:ac:4d:5b:d9:6b:9c:97:d8:76:
                    67:7e:8a:67:d8:7a:7f:51:19:d9:53:b5:97:c3:1c:
                    5e:69:09:7c:9b:7b:05:bd:3a:e9:a6:0f:0f:6c:e9:
                    89:29:8b:57:b3:e2:2b:ef:99:64:36:0a:f8:c5:a3:
                    a8:8b:8f:4f:ef:47:24:34:3c:c6:af:67:b4:e9:64:
                    88:11:b3:9c:c4:25:71:8a:a8:de:25:61:e4:da:e7:
                    b5:a1:07:6a:2a:e7:cd:48:72:d8:99:34:1d:c1:ac:
                    2d:53:26:2d:8f:0e:66:7e:4e:ea:c7:2e:5a:26:94:
                    90:dd:d5:29:d0:16:27:7b:b6:c4:e7:0c:5f:d3:43:
                    ff:7c:88:b3:c9:42:95:88:5c:bc:d1:67:3a:21:65:
                    cf:b5:c5:9b:c6:35:cf:7d:4f:2b:b7:af:e9:9d:11:
                    b3:71:65:df:44:d1:0d:83:a6:11:4e:86:fe:0b:fa:
                    6c:35:d1:f2:5d:11:35:19:68:4e:a8:f6:5f:7b:7e:
                    9f:df:8e:3f:28:01:ec:00:b8:35:87:1e:eb:5b:47:
                    b0:c4:db
                Exponent: 65537 (0x10001)
        X509v3 extensions:
            X509v3 Basic Constraints: 
                CA:FALSE
            Netscape Comment: 
                Easy-RSA Generated Certificate
            X509v3 Subject Key Identifier: 
                39:E9:76:00:99:1F:61:59:AB:88:9C:23:AA:85:E8:64:C7:81:57:19
            X509v3 Authority Key Identifier: 
                keyid:EF:38:8D:14:50:58:A7:5B:4D:9C:17:72:FC:DF:B9:AC:A7:51:B0:10
                DirName:/C=US/ST=CA/L=SanFrancisco/O=Pixglo, Inc./OU=VPN-CIE/CN=tunnel.pixglo.com/name=Bala Chandrasekaran/emailAddress=bala@pixglo.com
                serial:A6:DB:C6:83:80:E6:A0:79

            X509v3 Extended Key Usage: 
                TLS Web Client Authentication
            X509v3 Key Usage: 
                Digital Signature
    Signature Algorithm: sha1WithRSAEncryption
         1d:4e:33:61:51:8e:e7:49:ab:3d:f6:de:3f:82:bc:86:04:28:
         d3:d0:ff:46:78:0a:ec:bf:42:06:b7:76:88:30:1f:af:fd:1d:
         d3:98:a4:f1:cd:23:b8:92:03:9a:94:48:b1:1f:fd:50:66:7c:
         cf:5b:b7:d9:f2:1f:cb:94:f2:c1:df:12:6c:57:ba:64:1a:1e:
         cb:e4:af:ea:73:9c:32:80:db:90:e6:6f:e6:98:20:e7:64:13:
         ce:59:2c:de:37:40:bb:c3:92:69:e1:55:d6:a4:f1:e5:eb:a2:
         6c:9d:31:ca:52:2b:ef:3c:70:64:44:4a:ab:32:02:b3:5b:07:
         89:07:da:63:e3:5e:a5:a4:46:95:92:e0:8f:09:27:57:65:e7:
         98:7c:7a:45:fe:81:9d:f0:1b:2e:82:c9:ea:ae:99:89:0e:00:
         83:2c:e3:da:1f:de:40:68:3c:2a:1e:f9:c5:04:7b:41:fb:f0:
         80:c6:0d:98:0c:6b:86:5c:68:83:52:1b:a0:9f:96:1d:5e:c4:
         c4:a5:f3:d2:fa:19:9d:6f:70:9e:8d:23:10:49:a2:ca:d8:0a:
         89:cb:93:70:20:75:1e:91:09:b7:60:b5:9a:49:37:53:cd:9c:
         98:56:b8:ac:63:28:6d:38:68:30:cb:a7:7c:48:0e:3b:0e:3f:
         81:82:1a:45:8b:52:07:d9:eb:95:96:8c:56:c8:f8:d0:b6:03:
         39:f4:4c:f8:bf:a4:0d:bc:4d:bb:0c:14:84:f1:aa:2e:83:0a:
         15:e1:38:5b:9a:22:f2:ba:9b:cf:b4:44:c0:2a:fd:2b:3e:00:
         29:89:ca:0b:7e:1b:df:46:16:9f:22:7a:13:43:ce:81:56:9b:
         84:fe:cd:15:1f:cb:c7:85:f8:ca:f1:f8:75:24:7a:fe:3d:46:
         27:a1:32:84:c8:a0:e5:68:04:5b:50:03:68:fb:fb:00:41:49:
         f1:49:3d:a8:c7:5e:1f:ff:d7:fe:c3:a7:f3:a4:a9:47:85:7c:
         a6:15:46:e5:67:b8:0d:55:40:76:40:06:b3:1b:e1:c0:28:7c:
         78:7a:7d:35:d5:e5:28:58:aa:ad:98:46:20:4d:eb:ce:8a:6d:
         22:d1:fb:f0:f0:00:e3:e5:70:9a:45:b8:c0:30:ba:ed:46:2d:
         27:e0:d4:56:0a:21:8c:40:fd:f5:3b:78:73:c8:be:02:e4:c1:
         ab:7a:85:c5:c6:23:43:b4:c3:f3:cf:30:4a:2a:16:60:7d:f3:
         6f:45:0d:08:96:46:f9:72:72:e6:31:96:9b:70:3c:6e:65:09:
         97:1a:72:da:ad:4c:98:d3:69:a8:53:67:ab:8c:32:41:f1:dc:
         e1:6b:bb:f0:c5:ab:9d:ad
-----BEGIN CERTIFICATE-----
MIIHSDCCBTCgAwIBAgICAcYwDQYJKoZIhvcNAQEFBQAwgbQxCzAJBgNVBAYTAlVT
MQswCQYDVQQIEwJDQTEVMBMGA1UEBxMMU2FuRnJhbmNpc2NvMRUwEwYDVQQKEwxQ
aXhnbG8sIEluYy4xEDAOBgNVBAsTB1ZQTi1DSUUxGjAYBgNVBAMTEXR1bm5lbC5w
aXhnbG8uY29tMRwwGgYDVQQpExNCYWxhIENoYW5kcmFzZWthcmFuMR4wHAYJKoZI
hvcNAQkBFg9iYWxhQHBpeGdsby5jb20wHhcNMTgwMjE0MDYzNDI3WhcNMjgwMjEy
MDYzNDI3WjCBqTELMAkGA1UEBhMCVVMxCzAJBgNVBAgTAkNBMRUwEwYDVQQHEwxT
YW5GcmFuY2lzY28xFTATBgNVBAoTDFBpeGdsbywgSW5jLjEQMA4GA1UECxMHVlBO
LUNJRTEPMA0GA1UEAxMGY2llNDUzMRwwGgYDVQQpExNCYWxhIENoYW5kcmFzZWth
cmFuMR4wHAYJKoZIhvcNAQkBFg9iYWxhQHBpeGdsby5jb20wggIiMA0GCSqGSIb3
DQEBAQUAA4ICDwAwggIKAoICAQDZSxDnhhF2kEf2CsGy9XxSZwloFUM90PyRbkpn
anrBYNT/dJiGC+u8Z1s2hi7rh7yA8JOqWJJT7WTE53O8LtkwivcOWUvZau/fwxg/
RfYXxm/f1PjHEjjnMyTcKtru76wo/ZmiEmqwMrkWmWPc8lK/LRNSe8sx+AHylPUT
K7SpU13MyGygpKTQdnIxmbNRShoNFj1SSuJVOx7hmAlwE/klEPBObOVQeEcCQ9QY
+Uf58ZZSwnHwqqrPcecYjQ1s2/fc1+NNbyxTPXtHmv2ytcS6Pg5tVWN5CkCDoCaa
mi4qXvkg67ycwUPk59zreO/f+/dlCTobaezLqQAXJwpbc4/pa4Y5DQu9pY3yFxcM
H7RlslMq07mM/KLsuNT+KguSSUd+4i2qucv8G+PNIu5pJ5VreqxNW9lrnJfYdmd+
imfYen9RGdlTtZfDHF5pCXybewW9OummDw9s6Ykpi1ez4ivvmWQ2CvjFo6iLj0/v
RyQ0PMavZ7TpZIgRs5zEJXGKqN4lYeTa57WhB2oq581IctiZNB3BrC1TJi2PDmZ+
TurHLlomlJDd1SnQFid7tsTnDF/TQ/98iLPJQpWIXLzRZzohZc+1xZvGNc99Tyu3
r+mdEbNxZd9E0Q2DphFOhv4L+mw10fJdETUZaE6o9l97fp/fjj8oAewAuDWHHutb
R7DE2wIDAQABo4IBazCCAWcwCQYDVR0TBAIwADAtBglghkgBhvhCAQ0EIBYeRWFz
eS1SU0EgR2VuZXJhdGVkIENlcnRpZmljYXRlMB0GA1UdDgQWBBQ56XYAmR9hWauI
nCOqhehkx4FXGTCB6QYDVR0jBIHhMIHegBTvOI0UUFinW02cF3L837msp1GwEKGB
uqSBtzCBtDELMAkGA1UEBhMCVVMxCzAJBgNVBAgTAkNBMRUwEwYDVQQHEwxTYW5G
cmFuY2lzY28xFTATBgNVBAoTDFBpeGdsbywgSW5jLjEQMA4GA1UECxMHVlBOLUNJ
RTEaMBgGA1UEAxMRdHVubmVsLnBpeGdsby5jb20xHDAaBgNVBCkTE0JhbGEgQ2hh
bmRyYXNla2FyYW4xHjAcBgkqhkiG9w0BCQEWD2JhbGFAcGl4Z2xvLmNvbYIJAKbb
xoOA5qB5MBMGA1UdJQQMMAoGCCsGAQUFBwMCMAsGA1UdDwQEAwIHgDANBgkqhkiG
9w0BAQUFAAOCAgEAHU4zYVGO50mrPfbeP4K8hgQo09D/RngK7L9CBrd2iDAfr/0d
05ik8c0juJIDmpRIsR/9UGZ8z1u32fIfy5Tywd8SbFe6ZBoey+Sv6nOcMoDbkOZv
5pgg52QTzlks3jdAu8OSaeFV1qTx5euibJ0xylIr7zxwZERKqzICs1sHiQfaY+Ne
paRGlZLgjwknV2XnmHx6Rf6BnfAbLoLJ6q6ZiQ4Agyzj2h/eQGg8Kh75xQR7Qfvw
gMYNmAxrhlxog1IboJ+WHV7ExKXz0voZnW9wno0jEEmiytgKicuTcCB1HpEJt2C1
mkk3U82cmFa4rGMobThoMMunfEgOOw4/gYIaRYtSB9nrlZaMVsj40LYDOfRM+L+k
DbxNuwwUhPGqLoMKFeE4W5oi8rqbz7REwCr9Kz4AKYnKC34b30YWnyJ6E0POgVab
hP7NFR/Lx4X4yvH4dSR6/j1GJ6EyhMig5WgEW1ADaPv7AEFJ8Uk9qMdeH//X/sOn
86SpR4V8phVG5We4DVVAdkAGsxvhwCh8eHp9NdXlKFiqrZhGIE3rzoptItH78PAA
4+VwmkW4wDC67UYtJ+DUVgohjED99Tt4c8i+AuTBq3qFxcYjQ7TD888wSioWYH3z
b0UNCJZG+XJy5jGWm3A8bmUJlxpy2q1MmNNpqFNnq4wyQfHc4Wu78MWrna0=
-----END CERTIFICATE-----
