Certificate:
    Data:
        Version: 3 (0x2)
        Serial Number: 467 (0x1d3)
    Signature Algorithm: sha1WithRSAEncryption
        Issuer: C=US, ST=CA, L=SanFrancisco, O=Pixglo, Inc., OU=VPN-CIE, CN=tunnel.pixglo.com/name=Bala Chandrasekaran/emailAddress=bala@pixglo.com
        Validity
            Not Before: Feb 14 06:34:46 2018 GMT
            Not After : Feb 12 06:34:46 2028 GMT
        Subject: C=US, ST=CA, L=SanFrancisco, O=Pixglo, Inc., OU=VPN-CIE, CN=cie466/name=Bala Chandrasekaran/emailAddress=bala@pixglo.com
        Subject Public Key Info:
            Public Key Algorithm: rsaEncryption
                Public-Key: (4096 bit)
                Modulus:
                    00:bd:6a:de:b4:ac:42:5b:37:bb:3b:dc:b0:e2:fd:
                    5f:b8:96:7b:24:d5:a9:e8:48:67:f4:35:c7:24:7d:
                    1d:cf:1b:2f:9d:55:22:51:5d:08:fe:48:99:d5:f1:
                    95:5b:70:df:79:9c:ab:41:e4:7d:3f:75:ac:f2:21:
                    bb:72:5e:4e:da:86:6b:b1:a9:54:23:a7:55:71:04:
                    49:29:61:d6:c8:33:aa:43:80:a6:fb:7d:63:1f:4b:
                    40:1b:f4:2e:03:da:21:18:4f:67:1b:88:e2:91:56:
                    7a:ff:27:e1:04:15:d4:6f:1a:78:51:3a:13:cd:7c:
                    4f:f5:98:f7:31:c6:a9:d4:0e:2a:3a:d3:fd:be:86:
                    6f:3d:ba:2b:5c:66:d5:46:3f:9f:f8:9a:f0:95:8e:
                    ff:17:46:aa:f8:c9:8b:b5:b2:f4:7a:30:10:19:97:
                    93:fc:ec:6f:dc:b4:53:3f:cd:fe:95:e1:c9:0f:45:
                    a9:46:1a:1b:2d:fb:70:dc:5c:a1:89:25:40:62:0c:
                    2e:e9:b3:af:40:dc:50:9d:a9:d5:27:68:37:57:4b:
                    ca:f7:1d:b5:09:85:92:d6:d5:cb:a0:85:fc:03:52:
                    8a:53:c2:c3:fd:e8:5b:ba:d9:85:bb:6b:73:bd:50:
                    86:7f:02:c9:cd:7f:0d:70:2a:14:47:f3:57:3a:e2:
                    df:20:59:ce:2c:0a:6a:9c:8d:ee:a5:08:79:0f:5d:
                    19:d3:81:6b:9f:cd:4a:b5:93:70:e4:25:b5:73:9f:
                    3f:37:d5:1c:ec:66:39:2c:a3:11:da:59:6f:89:3b:
                    af:58:55:bb:f1:56:3e:cd:29:a8:da:7d:8e:f7:f6:
                    b7:3c:c2:21:31:f4:8e:fc:07:e5:fb:0b:14:ca:f6:
                    43:70:f0:49:29:09:9d:73:b5:dc:83:86:49:44:61:
                    e0:c0:cf:43:55:10:a6:4d:5f:bb:69:b3:a5:14:89:
                    6a:c1:b3:f9:56:3c:5f:f6:32:30:24:74:b9:34:dd:
                    74:03:13:23:4b:4f:b9:77:49:2b:71:a4:0f:4c:64:
                    9a:86:0f:50:87:fe:8f:b7:c5:41:e7:36:7a:54:40:
                    b1:b1:37:a1:80:18:0e:c5:3d:43:69:5a:ef:a5:b9:
                    d7:6b:a7:83:e2:55:cf:7b:da:a0:ef:7f:f5:22:b1:
                    7e:c2:23:af:0f:d2:74:66:07:4f:d8:d8:76:68:e6:
                    8b:3b:77:b4:f3:bc:c3:d1:ae:a7:79:83:4e:b1:d1:
                    bd:a3:de:92:bf:61:dc:c2:bd:66:84:f6:9b:f1:39:
                    45:73:85:70:fe:53:8a:e8:98:9a:c7:0e:b9:cf:e0:
                    0b:86:cd:3a:02:80:0f:35:55:9b:25:fb:2a:70:1b:
                    5d:77:29
                Exponent: 65537 (0x10001)
        X509v3 extensions:
            X509v3 Basic Constraints: 
                CA:FALSE
            Netscape Comment: 
                Easy-RSA Generated Certificate
            X509v3 Subject Key Identifier: 
                33:4C:3E:52:83:78:80:70:ED:3A:7F:FC:CF:DA:1D:9A:D4:59:48:1B
            X509v3 Authority Key Identifier: 
                keyid:EF:38:8D:14:50:58:A7:5B:4D:9C:17:72:FC:DF:B9:AC:A7:51:B0:10
                DirName:/C=US/ST=CA/L=SanFrancisco/O=Pixglo, Inc./OU=VPN-CIE/CN=tunnel.pixglo.com/name=Bala Chandrasekaran/emailAddress=bala@pixglo.com
                serial:A6:DB:C6:83:80:E6:A0:79

            X509v3 Extended Key Usage: 
                TLS Web Client Authentication
            X509v3 Key Usage: 
                Digital Signature
    Signature Algorithm: sha1WithRSAEncryption
         69:70:d9:a4:d1:5e:7a:1f:1e:0d:bb:29:aa:5a:e1:de:4e:9c:
         f8:9e:d8:55:1d:35:8a:a3:46:8e:1a:d9:e2:6d:be:3e:d8:c1:
         83:9c:3a:b8:ac:7f:62:a6:43:fc:03:b1:15:d0:7b:ae:a7:39:
         a1:c3:2f:d5:77:87:19:3d:e3:4e:9b:33:4e:a1:46:25:00:e8:
         5f:33:4d:b7:c3:da:01:9d:08:e1:ac:81:04:37:fe:04:ab:fd:
         5f:74:bc:96:22:dd:bd:14:ea:db:5e:76:6c:eb:18:22:ea:82:
         8f:3a:f2:74:3b:36:9c:e6:29:bc:0e:55:87:ac:de:35:6c:4c:
         20:e9:73:ac:1d:04:b0:4b:2a:48:a5:65:da:b7:9c:99:bf:18:
         88:b1:f5:ae:44:5c:72:d6:f9:bb:d1:1d:fe:c4:98:b9:a8:b7:
         c0:6d:25:90:98:b3:c3:61:ac:4b:2a:24:cf:54:3d:f0:a9:da:
         a6:38:16:83:d0:4d:19:99:d8:33:7c:27:ac:cc:91:ef:c9:b4:
         93:c9:20:85:3d:b5:f3:9f:c4:ae:e0:6f:39:9c:e0:00:0d:d9:
         de:c7:b1:31:fe:d4:07:f7:62:3d:82:f2:a6:e8:f2:c7:e3:c3:
         b2:b5:ed:71:66:44:d4:cb:73:6c:f7:d3:ab:e7:5e:df:b4:c9:
         9c:c0:93:03:4a:fa:88:8a:76:3d:0e:c2:26:53:cd:20:0f:07:
         56:0b:92:66:00:91:ca:0a:5b:57:89:f1:96:54:a8:80:12:5e:
         f4:89:f8:ac:5d:8a:db:b2:c7:f9:0c:16:0a:cd:76:9c:6a:ba:
         ea:e5:cb:da:4a:ab:39:39:1e:9c:10:31:d8:73:02:b4:59:c6:
         80:c9:78:5a:f0:57:43:97:59:28:85:c8:1f:84:ef:52:f5:79:
         43:70:40:cb:62:c7:be:2f:56:49:9a:75:4c:fe:65:b6:dc:4b:
         90:40:b1:ec:09:09:72:4e:ee:8f:65:64:fa:8e:90:a9:81:e4:
         f0:67:ba:05:1b:89:af:6e:c3:61:b9:37:0a:eb:e2:6f:5a:8b:
         b8:3c:c1:2e:7c:58:dc:18:7a:49:b7:4b:c9:78:88:57:49:17:
         5f:19:24:df:32:d1:3e:c6:32:bb:14:b5:0d:a6:52:76:66:9a:
         b6:6f:d1:de:86:74:f7:a1:75:86:eb:77:0c:0a:6c:38:58:f1:
         0d:f6:0a:28:ca:80:ca:eb:b1:61:71:6f:4b:85:de:eb:ea:0e:
         9c:67:6a:1c:eb:95:f6:53:fc:a1:f4:ff:f9:8d:5f:09:3a:e6:
         3a:4d:4a:64:df:42:fd:ee:15:a5:14:cd:3c:e1:0f:f8:38:81:
         e7:82:59:8a:10:d1:b5:36
-----BEGIN CERTIFICATE-----
MIIHSDCCBTCgAwIBAgICAdMwDQYJKoZIhvcNAQEFBQAwgbQxCzAJBgNVBAYTAlVT
MQswCQYDVQQIEwJDQTEVMBMGA1UEBxMMU2FuRnJhbmNpc2NvMRUwEwYDVQQKEwxQ
aXhnbG8sIEluYy4xEDAOBgNVBAsTB1ZQTi1DSUUxGjAYBgNVBAMTEXR1bm5lbC5w
aXhnbG8uY29tMRwwGgYDVQQpExNCYWxhIENoYW5kcmFzZWthcmFuMR4wHAYJKoZI
hvcNAQkBFg9iYWxhQHBpeGdsby5jb20wHhcNMTgwMjE0MDYzNDQ2WhcNMjgwMjEy
MDYzNDQ2WjCBqTELMAkGA1UEBhMCVVMxCzAJBgNVBAgTAkNBMRUwEwYDVQQHEwxT
YW5GcmFuY2lzY28xFTATBgNVBAoTDFBpeGdsbywgSW5jLjEQMA4GA1UECxMHVlBO
LUNJRTEPMA0GA1UEAxMGY2llNDY2MRwwGgYDVQQpExNCYWxhIENoYW5kcmFzZWth
cmFuMR4wHAYJKoZIhvcNAQkBFg9iYWxhQHBpeGdsby5jb20wggIiMA0GCSqGSIb3
DQEBAQUAA4ICDwAwggIKAoICAQC9at60rEJbN7s73LDi/V+4lnsk1anoSGf0Ncck
fR3PGy+dVSJRXQj+SJnV8ZVbcN95nKtB5H0/dazyIbtyXk7ahmuxqVQjp1VxBEkp
YdbIM6pDgKb7fWMfS0Ab9C4D2iEYT2cbiOKRVnr/J+EEFdRvGnhROhPNfE/1mPcx
xqnUDio60/2+hm89uitcZtVGP5/4mvCVjv8XRqr4yYu1svR6MBAZl5P87G/ctFM/
zf6V4ckPRalGGhst+3DcXKGJJUBiDC7ps69A3FCdqdUnaDdXS8r3HbUJhZLW1cug
hfwDUopTwsP96Fu62YW7a3O9UIZ/AsnNfw1wKhRH81c64t8gWc4sCmqcje6lCHkP
XRnTgWufzUq1k3DkJbVznz831RzsZjksoxHaWW+JO69YVbvxVj7NKajafY739rc8
wiEx9I78B+X7CxTK9kNw8EkpCZ1ztdyDhklEYeDAz0NVEKZNX7tps6UUiWrBs/lW
PF/2MjAkdLk03XQDEyNLT7l3SStxpA9MZJqGD1CH/o+3xUHnNnpUQLGxN6GAGA7F
PUNpWu+luddrp4PiVc972qDvf/UisX7CI68P0nRmB0/Y2HZo5os7d7TzvMPRrqd5
g06x0b2j3pK/YdzCvWaE9pvxOUVzhXD+U4romJrHDrnP4AuGzToCgA81VZsl+ypw
G113KQIDAQABo4IBazCCAWcwCQYDVR0TBAIwADAtBglghkgBhvhCAQ0EIBYeRWFz
eS1SU0EgR2VuZXJhdGVkIENlcnRpZmljYXRlMB0GA1UdDgQWBBQzTD5Sg3iAcO06
f/zP2h2a1FlIGzCB6QYDVR0jBIHhMIHegBTvOI0UUFinW02cF3L837msp1GwEKGB
uqSBtzCBtDELMAkGA1UEBhMCVVMxCzAJBgNVBAgTAkNBMRUwEwYDVQQHEwxTYW5G
cmFuY2lzY28xFTATBgNVBAoTDFBpeGdsbywgSW5jLjEQMA4GA1UECxMHVlBOLUNJ
RTEaMBgGA1UEAxMRdHVubmVsLnBpeGdsby5jb20xHDAaBgNVBCkTE0JhbGEgQ2hh
bmRyYXNla2FyYW4xHjAcBgkqhkiG9w0BCQEWD2JhbGFAcGl4Z2xvLmNvbYIJAKbb
xoOA5qB5MBMGA1UdJQQMMAoGCCsGAQUFBwMCMAsGA1UdDwQEAwIHgDANBgkqhkiG
9w0BAQUFAAOCAgEAaXDZpNFeeh8eDbspqlrh3k6c+J7YVR01iqNGjhrZ4m2+PtjB
g5w6uKx/YqZD/AOxFdB7rqc5ocMv1XeHGT3jTpszTqFGJQDoXzNNt8PaAZ0I4ayB
BDf+BKv9X3S8liLdvRTq2152bOsYIuqCjzrydDs2nOYpvA5Vh6zeNWxMIOlzrB0E
sEsqSKVl2recmb8YiLH1rkRcctb5u9Ed/sSYuai3wG0lkJizw2GsSyokz1Q98Kna
pjgWg9BNGZnYM3wnrMyR78m0k8kghT2185/EruBvOZzgAA3Z3sexMf7UB/diPYLy
pujyx+PDsrXtcWZE1MtzbPfTq+de37TJnMCTA0r6iIp2PQ7CJlPNIA8HVguSZgCR
ygpbV4nxllSogBJe9In4rF2K27LH+QwWCs12nGq66uXL2kqrOTkenBAx2HMCtFnG
gMl4WvBXQ5dZKIXIH4TvUvV5Q3BAy2LHvi9WSZp1TP5lttxLkECx7AkJck7uj2Vk
+o6QqYHk8Ge6BRuJr27DYbk3Cuvib1qLuDzBLnxY3Bh6SbdLyXiIV0kXXxkk3zLR
PsYyuxS1DaZSdmaatm/R3oZ096F1hut3DApsOFjxDfYKKMqAyuuxYXFvS4Xe6+oO
nGdqHOuV9lP8ofT/+Y1fCTrmOk1KZN9C/e4VpRTNPOEP+DiB54JZihDRtTY=
-----END CERTIFICATE-----
