Certificate:
    Data:
        Version: 3 (0x2)
        Serial Number: 499 (0x1f3)
    Signature Algorithm: sha1WithRSAEncryption
        Issuer: C=US, ST=CA, L=SanFrancisco, O=Pixglo, Inc., OU=VPN-CIE, CN=tunnel.pixglo.com/name=Bala Chandrasekaran/emailAddress=bala@pixglo.com
        Validity
            Not Before: Feb 14 06:35:39 2018 GMT
            Not After : Feb 12 06:35:39 2028 GMT
        Subject: C=US, ST=CA, L=SanFrancisco, O=Pixglo, Inc., OU=VPN-CIE, CN=cie498/name=Bala Chandrasekaran/emailAddress=bala@pixglo.com
        Subject Public Key Info:
            Public Key Algorithm: rsaEncryption
                Public-Key: (4096 bit)
                Modulus:
                    00:e6:09:9f:4e:ae:e0:43:3e:22:4a:24:c9:98:12:
                    fb:2c:5b:c3:8f:ca:f0:90:ca:c9:b9:2e:0d:5a:e9:
                    0c:3d:f6:2d:67:e6:55:24:c7:00:f6:c4:7e:be:9e:
                    aa:93:99:7c:c3:aa:6a:78:69:30:40:43:35:2d:c7:
                    a1:73:7f:d3:b1:34:b4:42:3a:55:23:9e:5b:ef:9f:
                    25:de:4c:67:26:ea:4d:44:b9:ef:62:6c:89:44:88:
                    37:03:6b:17:93:e0:12:d0:82:3f:06:18:9c:57:bc:
                    b4:0f:df:80:04:1a:ae:e2:38:27:04:30:54:5a:55:
                    8b:2f:53:ac:db:dc:f9:ea:8b:fd:d0:d9:37:6e:8d:
                    50:19:36:32:9c:0c:f2:58:cc:fd:b1:29:ea:41:57:
                    ed:fe:5f:aa:bd:9d:4b:f4:db:a9:b4:6e:94:3e:23:
                    2d:83:47:0a:ec:c4:0f:c7:11:8a:ea:14:46:73:2b:
                    38:ad:97:84:61:39:b3:78:d9:9c:8c:45:a7:8d:93:
                    82:98:ed:54:1f:50:1d:98:43:f7:29:82:f9:13:65:
                    5b:30:7f:a1:83:b1:68:80:cf:0a:a1:c4:8f:64:89:
                    96:da:75:53:14:be:4a:04:fa:ac:a0:99:aa:d8:e7:
                    f0:c5:90:00:9f:29:70:85:8d:76:c7:6e:84:18:17:
                    53:c6:41:4b:61:ff:80:21:0b:fa:95:5f:1a:b8:0e:
                    17:eb:1e:d5:51:71:c2:00:b5:94:c0:56:fb:27:73:
                    ca:1d:ae:d1:18:0a:a4:10:c7:42:49:ec:81:36:c8:
                    2c:6d:bc:94:53:0f:dc:60:68:3d:fe:8c:68:6e:74:
                    e1:11:ac:df:57:99:67:2c:be:e1:35:99:17:cf:78:
                    c2:8a:dc:cd:82:ee:6b:36:d5:00:76:f0:96:c3:92:
                    3a:b9:81:5f:06:a9:73:a3:de:fb:81:e3:6b:87:41:
                    c0:0a:41:57:f7:78:4d:bb:3e:3f:51:75:5f:1f:d6:
                    37:bd:60:0e:ce:7f:34:5a:53:38:7b:ea:c6:ac:7e:
                    87:34:19:22:74:d8:48:b8:3c:2b:ae:58:72:6e:1c:
                    78:3e:13:d2:47:66:7c:5a:da:0c:0a:fe:a4:57:c5:
                    7f:3e:88:08:75:e0:e2:fb:33:0c:0b:7b:19:6f:a4:
                    a9:d5:60:7b:58:88:5e:c5:c7:2d:26:84:bf:90:fd:
                    c9:7e:1d:ef:f3:77:24:2b:1f:fb:ed:c1:15:28:12:
                    d4:3e:77:37:52:62:ed:25:04:ec:55:39:bc:18:fd:
                    55:1d:85:9a:90:9c:62:21:94:43:46:6b:dd:3d:54:
                    89:85:df:df:d7:e0:8a:74:32:d1:c2:78:08:d7:d7:
                    25:ed:01
                Exponent: 65537 (0x10001)
        X509v3 extensions:
            X509v3 Basic Constraints: 
                CA:FALSE
            Netscape Comment: 
                Easy-RSA Generated Certificate
            X509v3 Subject Key Identifier: 
                08:9B:92:46:16:03:A6:C6:6F:1A:9A:52:E7:06:6E:55:81:8F:16:67
            X509v3 Authority Key Identifier: 
                keyid:EF:38:8D:14:50:58:A7:5B:4D:9C:17:72:FC:DF:B9:AC:A7:51:B0:10
                DirName:/C=US/ST=CA/L=SanFrancisco/O=Pixglo, Inc./OU=VPN-CIE/CN=tunnel.pixglo.com/name=Bala Chandrasekaran/emailAddress=bala@pixglo.com
                serial:A6:DB:C6:83:80:E6:A0:79

            X509v3 Extended Key Usage: 
                TLS Web Client Authentication
            X509v3 Key Usage: 
                Digital Signature
    Signature Algorithm: sha1WithRSAEncryption
         2a:97:80:0e:1d:d8:62:27:a6:7b:3e:6b:8c:39:ce:65:08:7d:
         8d:8f:0a:7c:7b:2b:cd:73:04:ae:53:c0:de:7d:8f:94:9d:a2:
         39:83:86:e4:f6:5b:01:d0:b7:f6:2b:12:96:c4:c4:4f:0e:fc:
         90:65:3a:7e:43:f3:16:65:6e:10:27:02:d2:db:a0:7e:29:b9:
         84:2d:b4:92:6a:76:09:f2:6a:d2:15:67:1d:c9:78:b1:57:9c:
         7e:ba:44:ff:41:f0:73:40:1a:52:89:10:56:cd:85:7e:40:f8:
         e5:bf:20:18:f8:7d:1e:f2:13:ff:4c:4e:05:62:7c:8c:e4:9d:
         6c:0f:a7:2e:d6:13:c5:fa:3e:ca:69:cd:7a:01:b2:3a:84:e9:
         dc:5d:32:14:1c:b1:81:aa:80:dc:c9:6c:ab:22:f8:24:b6:4c:
         fe:19:34:cd:17:45:6e:e9:6c:8d:ed:6e:4c:34:f2:1b:a3:68:
         63:26:e3:d3:99:a0:25:13:4e:ad:60:dd:88:65:9e:5f:c9:c2:
         74:0f:be:28:62:53:d6:3c:e5:bf:b2:88:bf:be:8f:a5:ac:6d:
         07:5b:31:8a:8f:fd:7e:ce:1c:52:df:09:21:38:d4:f3:32:9b:
         67:70:fe:93:dd:d7:48:fd:a1:96:d5:0a:17:09:fc:5a:b0:14:
         e0:c4:0d:ec:f0:60:08:3d:58:ca:62:8b:14:d4:55:e1:f3:23:
         b9:62:57:65:35:27:af:4e:db:a8:32:ee:b4:fe:f9:9a:9d:af:
         8f:c2:f5:0f:cc:6e:31:d2:b6:90:bd:e1:99:15:67:a8:0a:1b:
         09:88:a7:ad:a3:9c:86:c4:06:31:0f:4a:c8:df:5f:be:d8:d4:
         e7:4c:8b:e1:bc:76:c7:de:9b:cb:e2:43:bc:04:a4:44:0e:da:
         61:86:51:8d:ca:4a:a5:dd:56:8f:36:dd:ee:95:cd:07:c7:5e:
         a6:4a:b3:ed:91:96:8d:da:69:8e:4e:02:ab:23:a7:06:ec:6e:
         a1:54:42:5c:bd:e7:4a:ca:09:f4:da:ab:e0:25:af:52:3d:ce:
         bd:f4:d9:2a:d0:f4:b9:af:de:fd:21:a1:ed:98:ba:2f:0a:08:
         d5:19:54:99:02:59:31:b8:01:d6:ba:3e:3e:30:a1:45:05:8b:
         17:d0:b5:07:cd:02:a8:38:d0:31:d9:4d:ad:e3:50:84:5c:a1:
         c2:cf:85:07:af:39:72:e5:9c:a5:bd:e8:b0:89:44:35:d2:76:
         96:39:38:59:16:0e:65:8e:72:8d:e6:69:66:a4:35:c1:93:7e:
         bd:6f:c4:2a:a2:77:71:77:bc:f3:4a:7a:30:7b:c6:d6:c3:e0:
         fd:0c:e7:b5:cd:2d:40:75
-----BEGIN CERTIFICATE-----
MIIHSDCCBTCgAwIBAgICAfMwDQYJKoZIhvcNAQEFBQAwgbQxCzAJBgNVBAYTAlVT
MQswCQYDVQQIEwJDQTEVMBMGA1UEBxMMU2FuRnJhbmNpc2NvMRUwEwYDVQQKEwxQ
aXhnbG8sIEluYy4xEDAOBgNVBAsTB1ZQTi1DSUUxGjAYBgNVBAMTEXR1bm5lbC5w
aXhnbG8uY29tMRwwGgYDVQQpExNCYWxhIENoYW5kcmFzZWthcmFuMR4wHAYJKoZI
hvcNAQkBFg9iYWxhQHBpeGdsby5jb20wHhcNMTgwMjE0MDYzNTM5WhcNMjgwMjEy
MDYzNTM5WjCBqTELMAkGA1UEBhMCVVMxCzAJBgNVBAgTAkNBMRUwEwYDVQQHEwxT
YW5GcmFuY2lzY28xFTATBgNVBAoTDFBpeGdsbywgSW5jLjEQMA4GA1UECxMHVlBO
LUNJRTEPMA0GA1UEAxMGY2llNDk4MRwwGgYDVQQpExNCYWxhIENoYW5kcmFzZWth
cmFuMR4wHAYJKoZIhvcNAQkBFg9iYWxhQHBpeGdsby5jb20wggIiMA0GCSqGSIb3
DQEBAQUAA4ICDwAwggIKAoICAQDmCZ9OruBDPiJKJMmYEvssW8OPyvCQysm5Lg1a
6Qw99i1n5lUkxwD2xH6+nqqTmXzDqmp4aTBAQzUtx6Fzf9OxNLRCOlUjnlvvnyXe
TGcm6k1Eue9ibIlEiDcDaxeT4BLQgj8GGJxXvLQP34AEGq7iOCcEMFRaVYsvU6zb
3Pnqi/3Q2TdujVAZNjKcDPJYzP2xKepBV+3+X6q9nUv026m0bpQ+Iy2DRwrsxA/H
EYrqFEZzKzitl4RhObN42ZyMRaeNk4KY7VQfUB2YQ/cpgvkTZVswf6GDsWiAzwqh
xI9kiZbadVMUvkoE+qygmarY5/DFkACfKXCFjXbHboQYF1PGQUth/4AhC/qVXxq4
DhfrHtVRccIAtZTAVvsnc8odrtEYCqQQx0JJ7IE2yCxtvJRTD9xgaD3+jGhudOER
rN9XmWcsvuE1mRfPeMKK3M2C7ms21QB28JbDkjq5gV8GqXOj3vuB42uHQcAKQVf3
eE27Pj9RdV8f1je9YA7OfzRaUzh76sasfoc0GSJ02Ei4PCuuWHJuHHg+E9JHZnxa
2gwK/qRXxX8+iAh14OL7MwwLexlvpKnVYHtYiF7Fxy0mhL+Q/cl+He/zdyQrH/vt
wRUoEtQ+dzdSYu0lBOxVObwY/VUdhZqQnGIhlENGa909VImF39/X4Ip0MtHCeAjX
1yXtAQIDAQABo4IBazCCAWcwCQYDVR0TBAIwADAtBglghkgBhvhCAQ0EIBYeRWFz
eS1SU0EgR2VuZXJhdGVkIENlcnRpZmljYXRlMB0GA1UdDgQWBBQIm5JGFgOmxm8a
mlLnBm5VgY8WZzCB6QYDVR0jBIHhMIHegBTvOI0UUFinW02cF3L837msp1GwEKGB
uqSBtzCBtDELMAkGA1UEBhMCVVMxCzAJBgNVBAgTAkNBMRUwEwYDVQQHEwxTYW5G
cmFuY2lzY28xFTATBgNVBAoTDFBpeGdsbywgSW5jLjEQMA4GA1UECxMHVlBOLUNJ
RTEaMBgGA1UEAxMRdHVubmVsLnBpeGdsby5jb20xHDAaBgNVBCkTE0JhbGEgQ2hh
bmRyYXNla2FyYW4xHjAcBgkqhkiG9w0BCQEWD2JhbGFAcGl4Z2xvLmNvbYIJAKbb
xoOA5qB5MBMGA1UdJQQMMAoGCCsGAQUFBwMCMAsGA1UdDwQEAwIHgDANBgkqhkiG
9w0BAQUFAAOCAgEAKpeADh3YYiemez5rjDnOZQh9jY8KfHsrzXMErlPA3n2PlJ2i
OYOG5PZbAdC39isSlsTETw78kGU6fkPzFmVuECcC0tugfim5hC20kmp2CfJq0hVn
Hcl4sVecfrpE/0Hwc0AaUokQVs2FfkD45b8gGPh9HvIT/0xOBWJ8jOSdbA+nLtYT
xfo+ymnNegGyOoTp3F0yFByxgaqA3MlsqyL4JLZM/hk0zRdFbulsje1uTDTyG6No
Yybj05mgJRNOrWDdiGWeX8nCdA++KGJT1jzlv7KIv76PpaxtB1sxio/9fs4cUt8J
ITjU8zKbZ3D+k93XSP2hltUKFwn8WrAU4MQN7PBgCD1YymKLFNRV4fMjuWJXZTUn
r07bqDLutP75mp2vj8L1D8xuMdK2kL3hmRVnqAobCYinraOchsQGMQ9KyN9fvtjU
50yL4bx2x96by+JDvASkRA7aYYZRjcpKpd1Wjzbd7pXNB8depkqz7ZGWjdppjk4C
qyOnBuxuoVRCXL3nSsoJ9Nqr4CWvUj3OvfTZKtD0ua/e/SGh7Zi6LwoI1RlUmQJZ
MbgB1ro+PjChRQWLF9C1B80CqDjQMdlNreNQhFyhws+FB685cuWcpb3osIlENdJ2
ljk4WRYOZY5yjeZpZqQ1wZN+vW/EKqJ3cXe880p6MHvG1sPg/Qzntc0tQHU=
-----END CERTIFICATE-----
