Certificate:
    Data:
        Version: 3 (0x2)
        Serial Number: 49 (0x31)
    Signature Algorithm: sha1WithRSAEncryption
        Issuer: C=US, ST=CA, L=SanFrancisco, O=Pixglo, Inc., OU=VPN-CIE, CN=tunnel.pixglo.com/name=Bala Chandrasekaran/emailAddress=bala@pixglo.com
        Validity
            Not Before: Feb 14 06:24:52 2018 GMT
            Not After : Feb 12 06:24:52 2028 GMT
        Subject: C=US, ST=CA, L=SanFrancisco, O=Pixglo, Inc., OU=VPN-CIE, CN=cie48/name=Bala Chandrasekaran/emailAddress=bala@pixglo.com
        Subject Public Key Info:
            Public Key Algorithm: rsaEncryption
                Public-Key: (4096 bit)
                Modulus:
                    00:cb:5b:3f:34:9a:9b:13:84:cb:ba:6e:26:94:90:
                    f7:13:91:57:1c:6e:8b:76:32:c9:48:b2:22:70:8d:
                    b6:6f:8a:7c:5a:80:77:75:6c:15:d0:2a:e4:b2:5b:
                    dd:a5:08:fd:a5:32:c0:51:c6:81:91:a6:14:94:be:
                    b9:83:8f:3b:cb:f3:4d:86:f6:9b:da:7c:40:f0:34:
                    62:3f:59:d7:bb:4d:72:45:e8:b2:70:ba:14:44:66:
                    44:e5:12:26:5f:0b:5a:57:df:96:4a:be:d5:cc:f3:
                    1f:43:05:41:fd:f6:f0:67:07:0c:73:b3:1f:cc:66:
                    f8:8e:65:2d:cd:ba:83:00:ec:93:53:ef:e4:a6:cf:
                    b5:ad:dc:0c:a0:0c:65:06:cc:b8:27:51:21:78:45:
                    75:b8:78:4f:e8:19:37:d1:ec:98:69:91:42:a0:49:
                    63:31:d9:29:a5:3b:da:ab:14:fa:e7:42:b5:4c:02:
                    9f:fe:2e:a2:c8:3b:e3:6f:aa:bb:1e:33:2c:33:66:
                    f1:f5:2d:30:fd:36:e5:7a:9a:86:d6:61:23:28:5f:
                    84:35:6e:d6:c2:11:8d:2f:ef:de:fe:3d:e9:48:94:
                    a9:51:0e:4e:83:53:7d:03:0b:7d:eb:47:2f:90:0e:
                    10:c8:f4:df:38:60:9b:f5:cc:c4:99:5f:97:cc:3d:
                    e7:23:b7:8c:3f:36:48:5d:b0:37:aa:a8:99:ed:cb:
                    1a:11:f7:45:50:10:c4:eb:2d:a0:9e:d8:43:51:dd:
                    d2:39:82:40:e0:d9:19:d9:91:fe:98:b7:3f:72:ca:
                    3f:03:2c:43:3a:f1:94:83:02:73:e2:20:3e:11:a9:
                    b0:ad:50:8a:21:d4:3d:ec:29:13:fc:a5:97:4b:59:
                    5f:c0:fa:35:d5:1a:be:11:33:58:aa:5e:26:6a:d5:
                    04:c2:75:2a:18:1a:20:d6:08:4e:95:f1:e9:46:fa:
                    8b:7c:11:37:ba:b1:36:a0:3e:24:db:13:68:ef:b2:
                    08:e8:c0:88:8d:43:91:7f:ec:f7:39:2f:ea:a4:64:
                    a5:a4:e2:18:9a:63:44:26:78:51:96:d2:2c:45:d2:
                    8f:7e:c3:a9:ee:ca:7c:13:ce:9f:30:4b:69:3e:78:
                    10:39:57:79:f7:f4:9e:8a:1f:80:3b:7e:6f:ce:76:
                    ed:6a:57:17:c1:7d:d2:81:d2:88:b0:c8:e9:b3:ae:
                    22:6f:bb:ed:74:e5:d7:6c:c0:fb:46:3d:99:b4:57:
                    bb:f2:90:8a:a7:10:9b:3e:69:7a:ec:85:b4:6f:4c:
                    15:b2:de:dd:66:71:c9:9b:45:b4:9d:39:2e:36:86:
                    82:44:5b:db:3a:42:6c:dd:49:37:e4:30:18:5a:90:
                    54:4b:53
                Exponent: 65537 (0x10001)
        X509v3 extensions:
            X509v3 Basic Constraints: 
                CA:FALSE
            Netscape Comment: 
                Easy-RSA Generated Certificate
            X509v3 Subject Key Identifier: 
                39:54:BE:7F:74:7A:44:CE:7B:1A:D6:9B:A0:E7:2F:70:9C:D1:9B:00
            X509v3 Authority Key Identifier: 
                keyid:EF:38:8D:14:50:58:A7:5B:4D:9C:17:72:FC:DF:B9:AC:A7:51:B0:10
                DirName:/C=US/ST=CA/L=SanFrancisco/O=Pixglo, Inc./OU=VPN-CIE/CN=tunnel.pixglo.com/name=Bala Chandrasekaran/emailAddress=bala@pixglo.com
                serial:A6:DB:C6:83:80:E6:A0:79

            X509v3 Extended Key Usage: 
                TLS Web Client Authentication
            X509v3 Key Usage: 
                Digital Signature
    Signature Algorithm: sha1WithRSAEncryption
         a3:21:77:30:de:3e:8a:8a:8b:63:e2:ca:01:6e:1e:25:df:e4:
         89:f4:f2:76:78:a5:b8:fd:3e:9d:a5:39:0a:78:8d:4c:d7:68:
         26:98:af:43:43:42:b7:59:5d:3e:53:b8:81:b9:e7:20:10:d7:
         c3:85:71:9a:7b:5e:f8:5e:15:01:91:f4:2b:0e:20:8e:dc:a3:
         27:5f:2c:b3:47:43:e4:01:2a:3a:3a:20:d7:30:d4:03:f4:88:
         26:bf:13:2a:bf:f1:c5:3e:a2:5f:06:0e:1f:bf:cd:9e:10:cb:
         43:94:eb:4a:77:bd:c7:10:fa:ae:28:94:e6:04:e5:a2:23:b6:
         e8:c7:ff:1f:ac:1a:3d:89:16:36:a9:64:37:e9:3e:1a:71:66:
         f7:e0:b3:01:c2:61:ed:4a:d8:17:86:0d:b2:ee:a1:46:be:c8:
         c5:43:ec:a8:fd:cb:22:49:ac:f0:63:af:b9:4d:f6:9c:04:25:
         33:52:ce:37:07:37:25:6f:c4:e8:7e:ae:b4:5d:a7:c3:be:0f:
         1e:3a:0a:1b:92:5e:56:9f:68:5f:1a:31:44:14:fb:cf:75:01:
         f6:48:4c:2c:5c:a1:c5:0e:a5:8d:f4:2a:05:0a:0c:8b:4d:6c:
         49:42:98:fc:f9:91:c9:b9:b5:81:95:1f:3b:80:3f:bb:ed:aa:
         4a:d1:cb:b3:12:6e:cd:eb:9b:04:db:bd:61:10:1a:f4:0a:6c:
         2e:09:da:c8:60:70:e8:c0:fe:71:e9:ad:b4:67:c6:09:b7:f4:
         ad:cf:57:ad:6c:e3:84:9f:34:35:d4:84:c7:1d:1f:ce:d4:e8:
         ae:e0:3d:86:f1:63:ea:54:b4:c7:c1:8c:56:d7:05:e9:41:38:
         c7:cc:c8:3e:4f:5a:da:fe:8c:6d:8c:3e:49:88:4c:60:ba:09:
         ff:f6:17:88:79:f6:2a:01:6b:76:08:cd:48:29:59:5a:dd:8a:
         cb:ce:98:88:78:37:8a:3e:50:7b:70:69:76:cc:9e:40:69:4d:
         ef:90:f3:0d:cc:55:7d:29:5e:96:2b:a1:c1:22:51:40:49:65:
         94:7c:23:ee:db:06:cf:96:26:b3:d6:0a:31:fb:85:38:ad:d3:
         c1:7a:b5:18:8c:11:72:f6:e6:02:8f:18:9e:fe:67:3e:49:58:
         02:95:ff:1f:c1:e0:c3:ec:e7:54:a7:f4:65:ac:27:b4:76:94:
         29:42:9b:09:c7:da:c6:91:7f:14:fa:34:d8:96:a4:6d:21:e7:
         6d:2c:7f:f4:97:f4:b7:83:e2:74:41:c7:c5:44:f3:16:d1:13:
         04:48:79:ea:2a:62:80:28:47:be:0b:86:b9:e6:8d:fe:33:cb:
         44:f6:c5:b1:61:05:b9:62
-----BEGIN CERTIFICATE-----
MIIHRjCCBS6gAwIBAgIBMTANBgkqhkiG9w0BAQUFADCBtDELMAkGA1UEBhMCVVMx
CzAJBgNVBAgTAkNBMRUwEwYDVQQHEwxTYW5GcmFuY2lzY28xFTATBgNVBAoTDFBp
eGdsbywgSW5jLjEQMA4GA1UECxMHVlBOLUNJRTEaMBgGA1UEAxMRdHVubmVsLnBp
eGdsby5jb20xHDAaBgNVBCkTE0JhbGEgQ2hhbmRyYXNla2FyYW4xHjAcBgkqhkiG
9w0BCQEWD2JhbGFAcGl4Z2xvLmNvbTAeFw0xODAyMTQwNjI0NTJaFw0yODAyMTIw
NjI0NTJaMIGoMQswCQYDVQQGEwJVUzELMAkGA1UECBMCQ0ExFTATBgNVBAcTDFNh
bkZyYW5jaXNjbzEVMBMGA1UEChMMUGl4Z2xvLCBJbmMuMRAwDgYDVQQLEwdWUE4t
Q0lFMQ4wDAYDVQQDEwVjaWU0ODEcMBoGA1UEKRMTQmFsYSBDaGFuZHJhc2VrYXJh
bjEeMBwGCSqGSIb3DQEJARYPYmFsYUBwaXhnbG8uY29tMIICIjANBgkqhkiG9w0B
AQEFAAOCAg8AMIICCgKCAgEAy1s/NJqbE4TLum4mlJD3E5FXHG6LdjLJSLIicI22
b4p8WoB3dWwV0CrkslvdpQj9pTLAUcaBkaYUlL65g487y/NNhvab2nxA8DRiP1nX
u01yReiycLoURGZE5RImXwtaV9+WSr7VzPMfQwVB/fbwZwcMc7MfzGb4jmUtzbqD
AOyTU+/kps+1rdwMoAxlBsy4J1EheEV1uHhP6Bk30eyYaZFCoEljMdkppTvaqxT6
50K1TAKf/i6iyDvjb6q7HjMsM2bx9S0w/TblepqG1mEjKF+ENW7WwhGNL+/e/j3p
SJSpUQ5Og1N9Awt960cvkA4QyPTfOGCb9czEmV+XzD3nI7eMPzZIXbA3qqiZ7csa
EfdFUBDE6y2gnthDUd3SOYJA4NkZ2ZH+mLc/cso/AyxDOvGUgwJz4iA+EamwrVCK
IdQ97CkT/KWXS1lfwPo11Rq+ETNYql4matUEwnUqGBog1ghOlfHpRvqLfBE3urE2
oD4k2xNo77II6MCIjUORf+z3OS/qpGSlpOIYmmNEJnhRltIsRdKPfsOp7sp8E86f
MEtpPngQOVd59/Seih+AO35vznbtalcXwX3SgdKIsMjps64ib7vtdOXXbMD7Rj2Z
tFe78pCKpxCbPml67IW0b0wVst7dZnHJm0W0nTkuNoaCRFvbOkJs3Uk35DAYWpBU
S1MCAwEAAaOCAWswggFnMAkGA1UdEwQCMAAwLQYJYIZIAYb4QgENBCAWHkVhc3kt
UlNBIEdlbmVyYXRlZCBDZXJ0aWZpY2F0ZTAdBgNVHQ4EFgQUOVS+f3R6RM57Gtab
oOcvcJzRmwAwgekGA1UdIwSB4TCB3oAU7ziNFFBYp1tNnBdy/N+5rKdRsBChgbqk
gbcwgbQxCzAJBgNVBAYTAlVTMQswCQYDVQQIEwJDQTEVMBMGA1UEBxMMU2FuRnJh
bmNpc2NvMRUwEwYDVQQKEwxQaXhnbG8sIEluYy4xEDAOBgNVBAsTB1ZQTi1DSUUx
GjAYBgNVBAMTEXR1bm5lbC5waXhnbG8uY29tMRwwGgYDVQQpExNCYWxhIENoYW5k
cmFzZWthcmFuMR4wHAYJKoZIhvcNAQkBFg9iYWxhQHBpeGdsby5jb22CCQCm28aD
gOageTATBgNVHSUEDDAKBggrBgEFBQcDAjALBgNVHQ8EBAMCB4AwDQYJKoZIhvcN
AQEFBQADggIBAKMhdzDePoqKi2PiygFuHiXf5In08nZ4pbj9Pp2lOQp4jUzXaCaY
r0NDQrdZXT5TuIG55yAQ18OFcZp7XvheFQGR9CsOII7coydfLLNHQ+QBKjo6INcw
1AP0iCa/Eyq/8cU+ol8GDh+/zZ4Qy0OU60p3vccQ+q4olOYE5aIjtujH/x+sGj2J
FjapZDfpPhpxZvfgswHCYe1K2BeGDbLuoUa+yMVD7Kj9yyJJrPBjr7lN9pwEJTNS
zjcHNyVvxOh+rrRdp8O+Dx46ChuSXlafaF8aMUQU+891AfZITCxcocUOpY30KgUK
DItNbElCmPz5kcm5tYGVHzuAP7vtqkrRy7MSbs3rmwTbvWEQGvQKbC4J2shgcOjA
/nHprbRnxgm39K3PV61s44SfNDXUhMcdH87U6K7gPYbxY+pUtMfBjFbXBelBOMfM
yD5PWtr+jG2MPkmITGC6Cf/2F4h59ioBa3YIzUgpWVrdisvOmIh4N4o+UHtwaXbM
nkBpTe+Q8w3MVX0pXpYrocEiUUBJZZR8I+7bBs+WJrPWCjH7hTit08F6tRiMEXL2
5gKPGJ7+Zz5JWAKV/x/B4MPs51Sn9GWsJ7R2lClCmwnH2saRfxT6NNiWpG0h520s
f/SX9LeD4nRBx8VE8xbREwRIeeoqYoAoR74Lhrnmjf4zy0T2xbFhBbli
-----END CERTIFICATE-----
