Certificate:
    Data:
        Version: 3 (0x2)
        Serial Number: 545 (0x221)
    Signature Algorithm: sha1WithRSAEncryption
        Issuer: C=US, ST=CA, L=SanFrancisco, O=Pixglo, Inc., OU=VPN-CIE, CN=tunnel.pixglo.com/name=Bala Chandrasekaran/emailAddress=bala@pixglo.com
        Validity
            Not Before: Feb 14 06:36:44 2018 GMT
            Not After : Feb 12 06:36:44 2028 GMT
        Subject: C=US, ST=CA, L=SanFrancisco, O=Pixglo, Inc., OU=VPN-CIE, CN=cie544/name=Bala Chandrasekaran/emailAddress=bala@pixglo.com
        Subject Public Key Info:
            Public Key Algorithm: rsaEncryption
                Public-Key: (4096 bit)
                Modulus:
                    00:c8:c9:a4:b1:70:5d:79:af:c6:39:61:cd:66:18:
                    96:b7:d4:c1:77:48:2c:44:db:12:23:1c:55:1a:42:
                    7a:76:b2:27:b8:5b:f8:2f:bc:00:40:bd:db:50:5a:
                    e3:55:de:3a:3e:5f:37:61:71:fc:bd:2c:c0:26:6d:
                    ef:75:5e:ab:97:c8:20:12:e6:1f:45:40:23:9b:9a:
                    8b:c6:c4:98:49:22:4a:e2:87:89:58:a2:44:14:a2:
                    b4:b4:b8:59:b2:c6:51:d9:8f:8b:5f:d2:3c:17:e9:
                    7a:3e:1e:3e:d0:d2:34:ee:21:10:68:69:60:92:82:
                    cf:91:22:b8:bc:1c:52:a8:7d:94:68:fb:86:0b:67:
                    77:c4:9c:c9:14:3a:89:a3:e2:cc:a1:7b:f4:6a:e0:
                    70:32:0e:7b:00:f2:22:48:50:57:73:dc:88:d4:d8:
                    d9:01:6d:3a:12:02:8e:06:4d:b5:6e:5c:08:3f:76:
                    39:6d:d6:82:97:71:8e:e2:41:7d:90:04:dc:de:ee:
                    85:f4:80:03:40:42:63:b7:87:8b:ee:81:d7:1c:ba:
                    cb:70:29:57:4b:2d:a1:b4:6c:53:ce:02:a5:7c:91:
                    7b:96:ed:55:28:6e:8b:ef:75:4b:4d:b7:0b:fd:b7:
                    ac:ad:b1:63:17:9a:83:3d:00:b7:53:12:3c:70:74:
                    30:34:cc:96:52:98:07:3a:7f:8f:d1:c6:12:3b:42:
                    94:15:f8:fc:3c:06:61:3b:ff:51:65:e4:2b:b3:9f:
                    9c:b3:0e:c4:e3:5f:71:74:ae:5f:b1:ee:a8:6c:ae:
                    f4:86:37:5d:82:5e:65:14:87:5e:e0:0f:4c:6c:32:
                    92:6f:a3:6f:bb:0c:00:cd:03:d2:bd:a7:e7:0c:74:
                    ba:12:90:74:06:2a:44:46:4f:31:96:41:14:bc:19:
                    ae:ea:66:ca:24:64:97:0a:7f:68:03:85:2d:96:d4:
                    e6:51:9e:a3:ed:b6:8c:46:7c:60:8b:5e:75:52:e5:
                    cf:f3:1d:87:77:87:a2:3d:54:cc:1b:d5:e8:a3:03:
                    38:43:6d:ea:2c:eb:0f:09:9a:9c:cf:55:1c:f3:e0:
                    a8:7d:e5:82:84:8d:94:61:fd:6a:18:cc:5f:69:52:
                    39:d3:f0:68:5b:fe:08:fc:a1:1f:94:63:ce:f6:ff:
                    61:de:57:05:9d:b1:f5:0e:61:10:b9:bc:06:9c:58:
                    61:9d:79:e8:1a:2c:5f:4c:6d:25:01:80:49:c2:97:
                    4d:e4:d8:ee:5c:8f:07:48:f7:78:dd:d1:44:23:0c:
                    4f:49:82:5f:5f:fa:99:41:1d:c7:d1:3e:5b:94:30:
                    ba:6f:80:c5:03:3c:f1:d6:3b:1f:34:9f:12:fe:48:
                    7b:77:4b
                Exponent: 65537 (0x10001)
        X509v3 extensions:
            X509v3 Basic Constraints: 
                CA:FALSE
            Netscape Comment: 
                Easy-RSA Generated Certificate
            X509v3 Subject Key Identifier: 
                BC:16:AE:64:E7:33:36:50:19:08:4E:D1:97:54:EF:27:21:ED:65:AF
            X509v3 Authority Key Identifier: 
                keyid:EF:38:8D:14:50:58:A7:5B:4D:9C:17:72:FC:DF:B9:AC:A7:51:B0:10
                DirName:/C=US/ST=CA/L=SanFrancisco/O=Pixglo, Inc./OU=VPN-CIE/CN=tunnel.pixglo.com/name=Bala Chandrasekaran/emailAddress=bala@pixglo.com
                serial:A6:DB:C6:83:80:E6:A0:79

            X509v3 Extended Key Usage: 
                TLS Web Client Authentication
            X509v3 Key Usage: 
                Digital Signature
    Signature Algorithm: sha1WithRSAEncryption
         7a:66:bb:43:7e:77:f1:1c:1f:c6:bf:38:23:89:9e:eb:78:71:
         41:77:45:8c:94:19:03:28:26:ad:d9:8a:f9:af:a8:9a:7b:70:
         ad:fa:b1:ea:b4:5a:4e:22:f6:8d:49:e2:d0:46:af:27:dc:6a:
         d1:a4:06:c1:59:f1:1c:9f:36:18:95:9e:72:64:2e:69:73:48:
         68:b7:bf:e0:d9:d0:ec:df:40:b0:a0:11:12:83:90:85:31:d7:
         d7:73:fa:13:4c:0e:b1:99:ef:0b:e6:6e:df:fc:74:55:67:41:
         02:ad:5a:4a:9d:31:c1:2c:ba:c3:fb:1c:06:23:8d:7a:b8:f3:
         a3:c4:87:1a:7b:ab:ae:e9:a0:b4:ee:57:fd:89:95:85:a5:64:
         cb:df:04:96:1a:35:97:9c:b0:f0:3a:71:ff:a2:d0:a3:52:8d:
         c6:3e:32:8b:80:e1:e7:a7:96:e9:49:1e:94:53:70:f4:11:c6:
         41:29:16:9b:ab:f5:c9:ef:91:fe:7a:f5:b8:2a:49:bc:34:7b:
         c3:28:c8:68:69:95:2b:c1:57:4d:a3:c7:0f:13:9a:6a:62:c5:
         5b:4f:eb:74:c4:9b:6e:54:dd:44:17:96:8c:4c:52:62:fa:47:
         e2:26:45:35:0e:16:b3:de:ec:22:be:30:5c:36:95:69:aa:97:
         08:7e:3d:7d:41:b8:e5:51:cb:de:36:b7:26:54:0f:4e:28:7a:
         1e:11:c6:17:38:5f:8c:21:41:16:65:94:a7:26:a8:f0:f4:fb:
         f6:c3:31:c7:a9:f0:4b:07:e4:aa:db:7b:b2:df:52:f1:a1:37:
         63:e0:84:c0:8a:44:19:a6:35:4c:a6:7d:5b:ad:7c:d7:a3:d5:
         d6:04:cd:f5:5a:26:a8:4c:f9:4a:bf:31:38:1f:05:01:dd:a3:
         1c:67:22:db:65:98:02:99:a7:f5:11:9e:5f:f1:db:7e:69:65:
         36:4c:58:cd:87:23:df:bd:71:46:5e:7f:15:d0:ba:ef:b9:cb:
         50:3f:cb:ab:89:70:66:ad:18:3b:72:d1:8a:cc:b1:2e:a8:8b:
         94:ce:0d:b1:87:bb:43:59:f4:a0:d1:92:71:1d:e2:01:1d:88:
         34:97:79:e7:74:c9:f4:43:35:09:cc:56:93:0c:f4:42:97:4d:
         7f:4a:9b:dd:df:8d:e8:bc:bc:28:a8:d4:ee:cf:f4:8c:71:bd:
         95:a4:99:19:97:c1:19:9b:e1:d7:1d:84:0d:c5:ec:69:81:b8:
         04:8f:6a:d6:12:c1:d9:75:96:16:d6:14:a7:aa:a5:d0:3f:dc:
         46:53:18:34:db:8f:16:31:78:d0:84:28:b6:90:a3:57:8a:e2:
         ac:dd:ad:2b:d4:9a:c3:1b
-----BEGIN CERTIFICATE-----
MIIHSDCCBTCgAwIBAgICAiEwDQYJKoZIhvcNAQEFBQAwgbQxCzAJBgNVBAYTAlVT
MQswCQYDVQQIEwJDQTEVMBMGA1UEBxMMU2FuRnJhbmNpc2NvMRUwEwYDVQQKEwxQ
aXhnbG8sIEluYy4xEDAOBgNVBAsTB1ZQTi1DSUUxGjAYBgNVBAMTEXR1bm5lbC5w
aXhnbG8uY29tMRwwGgYDVQQpExNCYWxhIENoYW5kcmFzZWthcmFuMR4wHAYJKoZI
hvcNAQkBFg9iYWxhQHBpeGdsby5jb20wHhcNMTgwMjE0MDYzNjQ0WhcNMjgwMjEy
MDYzNjQ0WjCBqTELMAkGA1UEBhMCVVMxCzAJBgNVBAgTAkNBMRUwEwYDVQQHEwxT
YW5GcmFuY2lzY28xFTATBgNVBAoTDFBpeGdsbywgSW5jLjEQMA4GA1UECxMHVlBO
LUNJRTEPMA0GA1UEAxMGY2llNTQ0MRwwGgYDVQQpExNCYWxhIENoYW5kcmFzZWth
cmFuMR4wHAYJKoZIhvcNAQkBFg9iYWxhQHBpeGdsby5jb20wggIiMA0GCSqGSIb3
DQEBAQUAA4ICDwAwggIKAoICAQDIyaSxcF15r8Y5Yc1mGJa31MF3SCxE2xIjHFUa
Qnp2sie4W/gvvABAvdtQWuNV3jo+Xzdhcfy9LMAmbe91XquXyCAS5h9FQCObmovG
xJhJIkrih4lYokQUorS0uFmyxlHZj4tf0jwX6Xo+Hj7Q0jTuIRBoaWCSgs+RIri8
HFKofZRo+4YLZ3fEnMkUOomj4syhe/Rq4HAyDnsA8iJIUFdz3IjU2NkBbToSAo4G
TbVuXAg/djlt1oKXcY7iQX2QBNze7oX0gANAQmO3h4vugdccustwKVdLLaG0bFPO
AqV8kXuW7VUobovvdUtNtwv9t6ytsWMXmoM9ALdTEjxwdDA0zJZSmAc6f4/RxhI7
QpQV+Pw8BmE7/1Fl5Cuzn5yzDsTjX3F0rl+x7qhsrvSGN12CXmUUh17gD0xsMpJv
o2+7DADNA9K9p+cMdLoSkHQGKkRGTzGWQRS8Ga7qZsokZJcKf2gDhS2W1OZRnqPt
toxGfGCLXnVS5c/zHYd3h6I9VMwb1eijAzhDbeos6w8JmpzPVRzz4Kh95YKEjZRh
/WoYzF9pUjnT8Ghb/gj8oR+UY872/2HeVwWdsfUOYRC5vAacWGGdeegaLF9MbSUB
gEnCl03k2O5cjwdI93jd0UQjDE9Jgl9f+plBHcfRPluUMLpvgMUDPPHWOx80nxL+
SHt3SwIDAQABo4IBazCCAWcwCQYDVR0TBAIwADAtBglghkgBhvhCAQ0EIBYeRWFz
eS1SU0EgR2VuZXJhdGVkIENlcnRpZmljYXRlMB0GA1UdDgQWBBS8Fq5k5zM2UBkI
TtGXVO8nIe1lrzCB6QYDVR0jBIHhMIHegBTvOI0UUFinW02cF3L837msp1GwEKGB
uqSBtzCBtDELMAkGA1UEBhMCVVMxCzAJBgNVBAgTAkNBMRUwEwYDVQQHEwxTYW5G
cmFuY2lzY28xFTATBgNVBAoTDFBpeGdsbywgSW5jLjEQMA4GA1UECxMHVlBOLUNJ
RTEaMBgGA1UEAxMRdHVubmVsLnBpeGdsby5jb20xHDAaBgNVBCkTE0JhbGEgQ2hh
bmRyYXNla2FyYW4xHjAcBgkqhkiG9w0BCQEWD2JhbGFAcGl4Z2xvLmNvbYIJAKbb
xoOA5qB5MBMGA1UdJQQMMAoGCCsGAQUFBwMCMAsGA1UdDwQEAwIHgDANBgkqhkiG
9w0BAQUFAAOCAgEAema7Q3538Rwfxr84I4me63hxQXdFjJQZAygmrdmK+a+omntw
rfqx6rRaTiL2jUni0EavJ9xq0aQGwVnxHJ82GJWecmQuaXNIaLe/4NnQ7N9AsKAR
EoOQhTHX13P6E0wOsZnvC+Zu3/x0VWdBAq1aSp0xwSy6w/scBiONerjzo8SHGnur
rumgtO5X/YmVhaVky98Elho1l5yw8Dpx/6LQo1KNxj4yi4Dh56eW6UkelFNw9BHG
QSkWm6v1ye+R/nr1uCpJvDR7wyjIaGmVK8FXTaPHDxOaamLFW0/rdMSbblTdRBeW
jExSYvpH4iZFNQ4Ws97sIr4wXDaVaaqXCH49fUG45VHL3ja3JlQPTih6HhHGFzhf
jCFBFmWUpyao8PT79sMxx6nwSwfkqtt7st9S8aE3Y+CEwIpEGaY1TKZ9W61816PV
1gTN9VomqEz5Sr8xOB8FAd2jHGci22WYApmn9RGeX/HbfmllNkxYzYcj371xRl5/
FdC677nLUD/Lq4lwZq0YO3LRisyxLqiLlM4NsYe7Q1n0oNGScR3iAR2INJd553TJ
9EM1CcxWkwz0QpdNf0qb3d+N6Ly8KKjU7s/0jHG9laSZGZfBGZvh1x2EDcXsaYG4
BI9q1hLB2XWWFtYUp6ql0D/cRlMYNNuPFjF40IQotpCjV4rirN2tK9Sawxs=
-----END CERTIFICATE-----
