Certificate:
    Data:
        Version: 3 (0x2)
        Serial Number: 568 (0x238)
    Signature Algorithm: sha1WithRSAEncryption
        Issuer: C=US, ST=CA, L=SanFrancisco, O=Pixglo, Inc., OU=VPN-CIE, CN=tunnel.pixglo.com/name=Bala Chandrasekaran/emailAddress=bala@pixglo.com
        Validity
            Not Before: Feb 14 06:37:19 2018 GMT
            Not After : Feb 12 06:37:19 2028 GMT
        Subject: C=US, ST=CA, L=SanFrancisco, O=Pixglo, Inc., OU=VPN-CIE, CN=cie567/name=Bala Chandrasekaran/emailAddress=bala@pixglo.com
        Subject Public Key Info:
            Public Key Algorithm: rsaEncryption
                Public-Key: (4096 bit)
                Modulus:
                    00:ad:e9:cb:fa:2a:d8:6c:07:59:e5:f2:34:23:73:
                    4e:bd:ae:e9:e4:11:bf:09:a9:56:19:24:2f:3c:12:
                    f6:e6:1a:eb:44:de:1d:1a:41:b9:23:6d:4b:94:90:
                    ba:83:aa:d6:ed:d1:0a:82:6f:4a:b2:7d:cb:84:c5:
                    9c:bb:2c:43:ab:55:5e:27:62:58:64:f5:79:49:ff:
                    e6:3d:bf:ec:6b:58:2e:89:90:03:d9:a5:95:34:bf:
                    51:6a:69:a6:47:04:34:1c:c9:0c:10:47:96:d7:95:
                    22:55:26:02:49:b6:ac:30:a5:f9:c2:56:76:30:54:
                    58:d9:2e:54:b0:3f:64:91:dc:c4:ed:fa:6e:76:94:
                    aa:57:54:b0:c5:d6:17:ae:01:11:00:64:59:de:95:
                    23:88:65:d7:2e:a7:0c:e8:49:72:f7:0c:e5:8e:3b:
                    f2:28:77:29:fd:f6:ce:8c:c4:7d:81:69:d0:78:d1:
                    96:be:d2:66:78:3b:ba:53:f3:7e:bc:b4:c9:12:15:
                    b8:5f:f5:ea:c2:98:36:5a:de:d9:7f:e7:9c:4e:ee:
                    83:8e:f6:8d:50:cd:c3:97:06:25:b1:45:af:33:1f:
                    c7:43:c9:af:67:cd:b4:29:1a:2c:bf:3f:f9:b2:83:
                    e0:cb:7d:04:d1:db:9d:14:e4:89:c7:0b:5d:ca:fb:
                    3b:27:ca:89:88:96:20:a8:f0:42:2f:09:7a:b3:a3:
                    e0:58:6a:e2:e9:2a:b7:b5:c0:9c:82:5d:5d:9e:aa:
                    ad:64:64:7f:6a:fe:9b:12:8f:8e:c1:5f:2c:ac:69:
                    1f:88:a7:38:7e:09:fb:fb:0b:3c:0a:c9:2b:1e:e0:
                    b5:eb:33:c8:fa:54:bc:6c:78:a9:b5:eb:37:c6:14:
                    c6:59:b3:bf:68:b5:91:41:bc:88:9c:f5:ba:cf:70:
                    a4:8d:98:e9:12:72:dc:e6:df:83:f2:e4:d6:7f:bc:
                    47:e1:3f:dc:0a:e2:d4:7c:3e:8c:64:37:a6:68:0e:
                    6f:c1:2c:42:a2:f9:c3:6c:55:fa:c9:87:9d:2e:a9:
                    fd:90:8b:55:b9:b6:e4:1c:ab:30:a7:f6:33:d2:05:
                    a8:6a:88:55:9d:d0:a0:ee:70:e0:88:63:5e:29:14:
                    c6:9d:3e:94:c5:d7:ed:f1:d3:a6:d2:6a:cf:0f:69:
                    95:6f:5b:3b:aa:8e:81:8e:2c:4f:0e:ea:a3:db:77:
                    6f:2e:f3:03:18:a7:18:ec:95:57:9b:46:02:0d:0d:
                    01:54:d3:22:06:2e:19:b8:cc:04:fa:5d:91:04:d7:
                    b4:19:87:57:4a:87:b1:ef:30:2c:33:b9:53:2e:90:
                    3e:5e:10:07:92:5f:bb:12:e4:9d:6e:4c:7e:c6:1b:
                    36:08:8f
                Exponent: 65537 (0x10001)
        X509v3 extensions:
            X509v3 Basic Constraints: 
                CA:FALSE
            Netscape Comment: 
                Easy-RSA Generated Certificate
            X509v3 Subject Key Identifier: 
                5F:19:96:05:2B:C7:8E:77:4D:D9:F7:72:DB:BD:95:51:1C:13:AD:62
            X509v3 Authority Key Identifier: 
                keyid:EF:38:8D:14:50:58:A7:5B:4D:9C:17:72:FC:DF:B9:AC:A7:51:B0:10
                DirName:/C=US/ST=CA/L=SanFrancisco/O=Pixglo, Inc./OU=VPN-CIE/CN=tunnel.pixglo.com/name=Bala Chandrasekaran/emailAddress=bala@pixglo.com
                serial:A6:DB:C6:83:80:E6:A0:79

            X509v3 Extended Key Usage: 
                TLS Web Client Authentication
            X509v3 Key Usage: 
                Digital Signature
    Signature Algorithm: sha1WithRSAEncryption
         10:8d:9c:10:ca:db:9c:c7:12:2a:a3:f4:23:d2:66:16:78:fa:
         6b:8e:3f:34:fc:ad:87:e4:09:81:d7:1d:79:d7:09:57:b8:62:
         20:15:45:2b:dc:84:4a:5d:d1:47:98:92:0d:1e:a5:2b:ca:15:
         7a:c9:b2:75:88:67:a3:6c:37:fb:38:f4:c4:c8:eb:d6:1e:69:
         a8:d7:cd:7f:ba:1a:a6:87:92:b3:52:1f:20:99:6a:b8:43:e3:
         6c:77:8c:d0:da:c3:c3:a6:b9:47:04:9d:fa:8a:14:f8:23:44:
         9d:a2:ff:33:57:80:e6:7d:04:ca:f6:e8:a6:40:8f:ac:1c:b5:
         70:ab:c3:3f:7d:fc:bc:87:22:65:f1:4c:36:79:21:57:17:1a:
         09:e6:56:a7:11:26:8f:6e:29:2e:fa:65:fa:6c:15:82:ae:3c:
         80:9d:c2:9c:c8:8d:f5:b6:5e:26:ac:e7:e0:72:9d:ae:5d:8d:
         d8:94:b3:7e:ed:7c:f3:14:fe:99:d7:f5:f9:2b:df:f4:0f:19:
         6d:11:fe:83:91:fe:a4:81:0d:db:17:39:42:49:ab:cb:bb:23:
         0b:60:dd:00:44:fd:b2:e0:07:c3:d3:1a:cd:86:4f:8f:2e:86:
         60:14:03:1c:e4:ad:25:ef:db:1e:ab:c3:80:f3:e9:08:a4:34:
         e5:a2:07:82:fd:c0:25:5b:b8:00:4b:ca:86:63:dc:37:79:93:
         74:05:12:9c:1a:9c:29:86:25:c8:cc:2b:a1:0f:61:26:7c:71:
         bb:9a:06:f0:1d:47:b8:d3:01:d7:23:8c:6d:51:45:a0:bd:2c:
         29:e3:ba:17:50:b7:33:44:c2:8f:43:14:b0:72:71:50:a6:3d:
         bc:42:39:6a:5b:b4:a2:62:e3:20:ca:85:c5:66:31:d1:29:c8:
         a4:33:d5:2d:6a:08:e8:d8:95:f7:10:e3:22:3b:77:5f:5e:e3:
         b8:c4:7d:2f:7e:66:a2:b1:2d:60:22:71:13:c0:b6:b7:e5:5e:
         8b:6c:bf:5f:83:7d:6d:b2:e9:d0:48:9e:4a:34:22:91:be:7b:
         d8:31:a4:fa:43:e7:f9:b9:00:09:2b:df:c5:bd:2f:0f:5e:74:
         33:7c:b4:31:74:c7:21:52:fa:9c:24:0a:49:21:9e:f7:ea:5f:
         82:df:cc:69:b9:6f:16:e7:9a:da:ae:38:6e:c8:67:d6:88:81:
         06:a3:59:4d:ce:c2:54:e0:53:a8:95:f4:af:33:86:d2:43:20:
         f7:8a:b4:c7:b2:62:b7:28:92:96:1f:48:23:a6:b6:fb:82:c2:
         db:2e:e7:2c:26:7f:53:64:2e:32:91:35:76:3f:20:0f:a6:02:
         94:fb:c8:9f:d7:57:62:d7
-----BEGIN CERTIFICATE-----
MIIHSDCCBTCgAwIBAgICAjgwDQYJKoZIhvcNAQEFBQAwgbQxCzAJBgNVBAYTAlVT
MQswCQYDVQQIEwJDQTEVMBMGA1UEBxMMU2FuRnJhbmNpc2NvMRUwEwYDVQQKEwxQ
aXhnbG8sIEluYy4xEDAOBgNVBAsTB1ZQTi1DSUUxGjAYBgNVBAMTEXR1bm5lbC5w
aXhnbG8uY29tMRwwGgYDVQQpExNCYWxhIENoYW5kcmFzZWthcmFuMR4wHAYJKoZI
hvcNAQkBFg9iYWxhQHBpeGdsby5jb20wHhcNMTgwMjE0MDYzNzE5WhcNMjgwMjEy
MDYzNzE5WjCBqTELMAkGA1UEBhMCVVMxCzAJBgNVBAgTAkNBMRUwEwYDVQQHEwxT
YW5GcmFuY2lzY28xFTATBgNVBAoTDFBpeGdsbywgSW5jLjEQMA4GA1UECxMHVlBO
LUNJRTEPMA0GA1UEAxMGY2llNTY3MRwwGgYDVQQpExNCYWxhIENoYW5kcmFzZWth
cmFuMR4wHAYJKoZIhvcNAQkBFg9iYWxhQHBpeGdsby5jb20wggIiMA0GCSqGSIb3
DQEBAQUAA4ICDwAwggIKAoICAQCt6cv6KthsB1nl8jQjc069runkEb8JqVYZJC88
EvbmGutE3h0aQbkjbUuUkLqDqtbt0QqCb0qyfcuExZy7LEOrVV4nYlhk9XlJ/+Y9
v+xrWC6JkAPZpZU0v1FqaaZHBDQcyQwQR5bXlSJVJgJJtqwwpfnCVnYwVFjZLlSw
P2SR3MTt+m52lKpXVLDF1heuAREAZFnelSOIZdcupwzoSXL3DOWOO/Iodyn99s6M
xH2BadB40Za+0mZ4O7pT8368tMkSFbhf9erCmDZa3tl/55xO7oOO9o1QzcOXBiWx
Ra8zH8dDya9nzbQpGiy/P/myg+DLfQTR250U5InHC13K+zsnyomIliCo8EIvCXqz
o+BYauLpKre1wJyCXV2eqq1kZH9q/psSj47BXyysaR+Ipzh+Cfv7CzwKySse4LXr
M8j6VLxseKm16zfGFMZZs79otZFBvIic9brPcKSNmOkSctzm34Py5NZ/vEfhP9wK
4tR8PoxkN6ZoDm/BLEKi+cNsVfrJh50uqf2Qi1W5tuQcqzCn9jPSBahqiFWd0KDu
cOCIY14pFMadPpTF1+3x06bSas8PaZVvWzuqjoGOLE8O6qPbd28u8wMYpxjslVeb
RgINDQFU0yIGLhm4zAT6XZEE17QZh1dKh7HvMCwzuVMukD5eEAeSX7sS5J1uTH7G
GzYIjwIDAQABo4IBazCCAWcwCQYDVR0TBAIwADAtBglghkgBhvhCAQ0EIBYeRWFz
eS1SU0EgR2VuZXJhdGVkIENlcnRpZmljYXRlMB0GA1UdDgQWBBRfGZYFK8eOd03Z
93LbvZVRHBOtYjCB6QYDVR0jBIHhMIHegBTvOI0UUFinW02cF3L837msp1GwEKGB
uqSBtzCBtDELMAkGA1UEBhMCVVMxCzAJBgNVBAgTAkNBMRUwEwYDVQQHEwxTYW5G
cmFuY2lzY28xFTATBgNVBAoTDFBpeGdsbywgSW5jLjEQMA4GA1UECxMHVlBOLUNJ
RTEaMBgGA1UEAxMRdHVubmVsLnBpeGdsby5jb20xHDAaBgNVBCkTE0JhbGEgQ2hh
bmRyYXNla2FyYW4xHjAcBgkqhkiG9w0BCQEWD2JhbGFAcGl4Z2xvLmNvbYIJAKbb
xoOA5qB5MBMGA1UdJQQMMAoGCCsGAQUFBwMCMAsGA1UdDwQEAwIHgDANBgkqhkiG
9w0BAQUFAAOCAgEAEI2cEMrbnMcSKqP0I9JmFnj6a44/NPyth+QJgdcdedcJV7hi
IBVFK9yESl3RR5iSDR6lK8oVesmydYhno2w3+zj0xMjr1h5pqNfNf7oapoeSs1If
IJlquEPjbHeM0NrDw6a5RwSd+ooU+CNEnaL/M1eA5n0EyvbopkCPrBy1cKvDP338
vIciZfFMNnkhVxcaCeZWpxEmj24pLvpl+mwVgq48gJ3CnMiN9bZeJqzn4HKdrl2N
2JSzfu188xT+mdf1+Svf9A8ZbRH+g5H+pIEN2xc5Qkmry7sjC2DdAET9suAHw9Ma
zYZPjy6GYBQDHOStJe/bHqvDgPPpCKQ05aIHgv3AJVu4AEvKhmPcN3mTdAUSnBqc
KYYlyMwroQ9hJnxxu5oG8B1HuNMB1yOMbVFFoL0sKeO6F1C3M0TCj0MUsHJxUKY9
vEI5alu0omLjIMqFxWYx0SnIpDPVLWoI6NiV9xDjIjt3X17juMR9L35morEtYCJx
E8C2t+Vei2y/X4N9bbLp0EieSjQikb572DGk+kPn+bkACSvfxb0vD150M3y0MXTH
IVL6nCQKSSGe9+pfgt/MablvFuea2q44bshn1oiBBqNZTc7CVOBTqJX0rzOG0kMg
94q0x7JityiSlh9II6a2+4LC2y7nLCZ/U2QuMpE1dj8gD6YClPvIn9dXYtc=
-----END CERTIFICATE-----
