Certificate:
    Data:
        Version: 3 (0x2)
        Serial Number: 525 (0x20d)
    Signature Algorithm: sha1WithRSAEncryption
        Issuer: C=US, ST=CA, L=SanFrancisco, O=Pixglo, Inc., OU=VPN-CIE, CN=tunnel.pixglo.com/name=Bala Chandrasekaran/emailAddress=bala@pixglo.com
        Validity
            Not Before: Feb 14 06:36:18 2018 GMT
            Not After : Feb 12 06:36:18 2028 GMT
        Subject: C=US, ST=CA, L=SanFrancisco, O=Pixglo, Inc., OU=VPN-CIE, CN=cie524/name=Bala Chandrasekaran/emailAddress=bala@pixglo.com
        Subject Public Key Info:
            Public Key Algorithm: rsaEncryption
                Public-Key: (4096 bit)
                Modulus:
                    00:c1:c3:f2:22:11:e4:6d:7e:ab:b4:ba:58:3c:07:
                    49:68:82:7f:28:c9:e7:15:c5:56:2f:02:86:95:c7:
                    b7:9f:b6:93:88:c7:0f:3f:b8:a2:bf:a9:b3:65:db:
                    e0:43:68:5a:7f:0c:c3:85:e7:f0:ed:7c:28:0f:fc:
                    87:c9:20:8a:b9:0e:4a:a0:0f:70:c7:a3:33:04:07:
                    28:a4:0c:57:35:41:5f:77:78:b2:50:15:99:09:92:
                    e8:6c:c7:6a:b1:00:7e:4e:91:b3:67:87:5c:85:18:
                    7c:6c:06:9c:93:6c:78:57:a1:07:eb:a7:bd:89:3d:
                    40:8f:2a:c3:88:54:26:ee:99:cd:2f:db:ce:79:74:
                    32:23:af:4e:b3:05:ed:db:76:89:68:d5:6e:72:c2:
                    5d:f5:8d:ad:2d:58:68:b4:73:76:20:6d:83:a1:d2:
                    7b:be:49:ef:c3:51:eb:09:67:be:6e:ef:fa:f3:5a:
                    f0:1e:b8:be:8c:94:d0:54:ff:00:26:02:ca:e1:4d:
                    e8:4a:b3:1d:37:10:34:d9:bf:af:75:00:c1:83:da:
                    02:e5:f9:ac:58:9e:40:c2:76:fc:2d:78:18:2c:39:
                    b0:91:e8:76:45:44:ed:46:dc:a5:82:85:ff:af:88:
                    5b:9f:ce:66:7c:10:eb:67:30:b8:b7:d8:35:8e:88:
                    45:53:2d:47:08:06:5c:e1:c1:8a:07:0d:f6:75:3c:
                    64:ed:cb:18:66:73:08:6c:e9:74:6d:fe:64:ca:92:
                    2d:29:41:15:e1:a9:3a:72:3c:56:cb:9a:ef:36:50:
                    57:1f:26:13:69:ca:cd:cf:7d:b4:48:5a:95:47:85:
                    26:e3:69:61:fd:1c:1a:a8:3d:86:a2:11:6a:62:4b:
                    36:04:00:78:50:d6:0f:8d:d8:5b:d2:15:c0:9c:f1:
                    65:7f:52:44:d3:97:fd:13:a3:7c:67:8c:49:24:da:
                    eb:99:e4:35:87:12:b2:f5:85:cd:f0:e9:e5:fc:ba:
                    ef:68:ee:a0:9a:dd:e5:b2:0b:91:52:2a:85:88:5d:
                    fc:00:d6:0b:aa:ae:4a:77:19:c5:3f:a6:62:3c:72:
                    e7:7a:f8:15:00:97:b8:05:9a:52:c4:1f:b2:6c:ab:
                    11:33:1d:97:fd:ba:29:e0:98:1d:37:a5:10:dd:72:
                    48:3a:59:66:d7:87:19:df:18:cb:0d:78:46:02:48:
                    17:0d:53:b8:f2:e9:76:89:6a:cb:b0:b6:81:ea:4f:
                    79:d3:c7:51:5f:10:ed:1d:98:9e:97:98:a1:9d:13:
                    0c:e7:1e:dc:9b:58:39:9d:9b:be:4d:e7:47:65:ec:
                    d0:56:5f:b3:e4:d4:db:fa:86:1c:96:89:d0:2f:84:
                    13:49:1b
                Exponent: 65537 (0x10001)
        X509v3 extensions:
            X509v3 Basic Constraints: 
                CA:FALSE
            Netscape Comment: 
                Easy-RSA Generated Certificate
            X509v3 Subject Key Identifier: 
                27:E0:EB:11:6E:62:D7:BD:E3:55:ED:68:71:6E:AF:1F:75:2A:C9:0E
            X509v3 Authority Key Identifier: 
                keyid:EF:38:8D:14:50:58:A7:5B:4D:9C:17:72:FC:DF:B9:AC:A7:51:B0:10
                DirName:/C=US/ST=CA/L=SanFrancisco/O=Pixglo, Inc./OU=VPN-CIE/CN=tunnel.pixglo.com/name=Bala Chandrasekaran/emailAddress=bala@pixglo.com
                serial:A6:DB:C6:83:80:E6:A0:79

            X509v3 Extended Key Usage: 
                TLS Web Client Authentication
            X509v3 Key Usage: 
                Digital Signature
    Signature Algorithm: sha1WithRSAEncryption
         b8:b6:50:a3:2a:5a:39:65:b4:ff:e8:b9:64:a6:a7:bf:1a:c6:
         eb:64:64:81:35:cf:8e:a0:83:d1:6c:84:c0:b8:da:f0:0b:17:
         41:d2:73:29:51:99:3b:88:a5:18:50:32:7e:a8:12:5f:21:b3:
         12:a1:74:78:74:48:2a:df:fd:32:43:36:dc:f4:bf:d4:e7:0f:
         79:9e:84:79:8e:bd:6e:b4:9e:ab:45:c6:9f:89:ab:d8:98:cf:
         23:3b:02:84:09:1d:20:e3:48:34:76:00:97:56:f2:8f:fc:a5:
         3e:36:27:17:43:79:38:bf:d5:a6:aa:cf:98:02:49:0d:ef:e7:
         e3:a3:53:95:85:d1:61:97:23:e0:a1:97:4a:ff:db:85:e6:ca:
         34:14:de:1a:58:b6:66:9c:8d:3f:52:a8:02:8a:ae:f8:22:bf:
         f7:00:aa:de:ad:9e:3b:a0:0c:a2:6e:6a:cf:7d:35:00:c7:37:
         51:17:2e:ed:d9:59:c6:32:41:a2:c6:ff:6e:7d:de:cf:90:f0:
         b6:e4:b7:dc:f9:80:ad:a3:18:40:b8:85:21:ae:65:97:07:00:
         54:8e:fe:61:87:fd:e7:71:36:97:08:7c:15:b5:6f:2c:51:e6:
         4c:68:df:a4:9f:49:1e:50:bc:01:ab:2b:43:37:8b:aa:4e:47:
         db:33:2f:6f:13:1b:1f:cd:ba:5e:04:c0:c4:08:c4:cb:23:3b:
         f2:a9:d2:dd:8e:fc:9f:05:b6:bf:c1:14:96:bd:ad:ff:79:bb:
         8e:f9:a4:6d:98:ff:63:5f:84:bc:e8:d1:66:d4:90:1c:14:17:
         4a:eb:71:75:e0:18:e1:04:73:56:c3:f4:0f:71:f6:bb:e7:dd:
         25:07:3a:87:e0:f5:10:94:3f:a7:82:72:45:f4:27:89:7b:4a:
         ff:99:59:63:d5:d8:e4:86:97:ca:8c:72:c3:5d:71:bb:6f:fd:
         08:03:c9:3a:ad:c2:3f:eb:4f:17:e7:d7:1f:a1:c1:0c:78:50:
         77:be:ca:c1:bc:c7:2d:a1:5c:ca:f3:1d:7e:58:3c:6a:a0:d2:
         b9:be:50:d7:48:7c:1c:33:cf:25:2a:d9:e4:9b:49:0b:cb:3b:
         25:b6:0d:12:cc:b5:2a:5e:a8:b6:be:98:98:f5:16:aa:69:06:
         b8:b3:dd:ad:13:91:39:11:f2:41:62:c2:16:40:8e:71:aa:a9:
         bf:8e:eb:fd:9f:44:24:ea:2a:66:8a:dd:78:50:33:92:d3:f8:
         4b:93:d5:36:3e:e9:1b:2e:17:6e:c8:49:1b:bb:8e:fe:f9:9f:
         41:e6:29:fa:e1:4d:af:9e:05:a5:46:2e:88:50:bd:8a:01:fa:
         55:29:98:52:19:d9:cb:9a
-----BEGIN CERTIFICATE-----
MIIHSDCCBTCgAwIBAgICAg0wDQYJKoZIhvcNAQEFBQAwgbQxCzAJBgNVBAYTAlVT
MQswCQYDVQQIEwJDQTEVMBMGA1UEBxMMU2FuRnJhbmNpc2NvMRUwEwYDVQQKEwxQ
aXhnbG8sIEluYy4xEDAOBgNVBAsTB1ZQTi1DSUUxGjAYBgNVBAMTEXR1bm5lbC5w
aXhnbG8uY29tMRwwGgYDVQQpExNCYWxhIENoYW5kcmFzZWthcmFuMR4wHAYJKoZI
hvcNAQkBFg9iYWxhQHBpeGdsby5jb20wHhcNMTgwMjE0MDYzNjE4WhcNMjgwMjEy
MDYzNjE4WjCBqTELMAkGA1UEBhMCVVMxCzAJBgNVBAgTAkNBMRUwEwYDVQQHEwxT
YW5GcmFuY2lzY28xFTATBgNVBAoTDFBpeGdsbywgSW5jLjEQMA4GA1UECxMHVlBO
LUNJRTEPMA0GA1UEAxMGY2llNTI0MRwwGgYDVQQpExNCYWxhIENoYW5kcmFzZWth
cmFuMR4wHAYJKoZIhvcNAQkBFg9iYWxhQHBpeGdsby5jb20wggIiMA0GCSqGSIb3
DQEBAQUAA4ICDwAwggIKAoICAQDBw/IiEeRtfqu0ulg8B0logn8oyecVxVYvAoaV
x7eftpOIxw8/uKK/qbNl2+BDaFp/DMOF5/DtfCgP/IfJIIq5DkqgD3DHozMEByik
DFc1QV93eLJQFZkJkuhsx2qxAH5OkbNnh1yFGHxsBpyTbHhXoQfrp72JPUCPKsOI
VCbumc0v2855dDIjr06zBe3bdolo1W5ywl31ja0tWGi0c3YgbYOh0nu+Se/DUesJ
Z75u7/rzWvAeuL6MlNBU/wAmAsrhTehKsx03EDTZv691AMGD2gLl+axYnkDCdvwt
eBgsObCR6HZFRO1G3KWChf+viFufzmZ8EOtnMLi32DWOiEVTLUcIBlzhwYoHDfZ1
PGTtyxhmcwhs6XRt/mTKki0pQRXhqTpyPFbLmu82UFcfJhNpys3PfbRIWpVHhSbj
aWH9HBqoPYaiEWpiSzYEAHhQ1g+N2FvSFcCc8WV/UkTTl/0To3xnjEkk2uuZ5DWH
ErL1hc3w6eX8uu9o7qCa3eWyC5FSKoWIXfwA1guqrkp3GcU/pmI8cud6+BUAl7gF
mlLEH7JsqxEzHZf9uingmB03pRDdckg6WWbXhxnfGMsNeEYCSBcNU7jy6XaJasuw
toHqT3nTx1FfEO0dmJ6XmKGdEwznHtybWDmdm75N50dl7NBWX7Pk1Nv6hhyWidAv
hBNJGwIDAQABo4IBazCCAWcwCQYDVR0TBAIwADAtBglghkgBhvhCAQ0EIBYeRWFz
eS1SU0EgR2VuZXJhdGVkIENlcnRpZmljYXRlMB0GA1UdDgQWBBQn4OsRbmLXveNV
7Whxbq8fdSrJDjCB6QYDVR0jBIHhMIHegBTvOI0UUFinW02cF3L837msp1GwEKGB
uqSBtzCBtDELMAkGA1UEBhMCVVMxCzAJBgNVBAgTAkNBMRUwEwYDVQQHEwxTYW5G
cmFuY2lzY28xFTATBgNVBAoTDFBpeGdsbywgSW5jLjEQMA4GA1UECxMHVlBOLUNJ
RTEaMBgGA1UEAxMRdHVubmVsLnBpeGdsby5jb20xHDAaBgNVBCkTE0JhbGEgQ2hh
bmRyYXNla2FyYW4xHjAcBgkqhkiG9w0BCQEWD2JhbGFAcGl4Z2xvLmNvbYIJAKbb
xoOA5qB5MBMGA1UdJQQMMAoGCCsGAQUFBwMCMAsGA1UdDwQEAwIHgDANBgkqhkiG
9w0BAQUFAAOCAgEAuLZQoypaOWW0/+i5ZKanvxrG62RkgTXPjqCD0WyEwLja8AsX
QdJzKVGZO4ilGFAyfqgSXyGzEqF0eHRIKt/9MkM23PS/1OcPeZ6EeY69brSeq0XG
n4mr2JjPIzsChAkdIONINHYAl1byj/ylPjYnF0N5OL/VpqrPmAJJDe/n46NTlYXR
YZcj4KGXSv/bhebKNBTeGli2ZpyNP1KoAoqu+CK/9wCq3q2eO6AMom5qz301AMc3
URcu7dlZxjJBosb/bn3ez5DwtuS33PmAraMYQLiFIa5llwcAVI7+YYf953E2lwh8
FbVvLFHmTGjfpJ9JHlC8AasrQzeLqk5H2zMvbxMbH826XgTAxAjEyyM78qnS3Y78
nwW2v8EUlr2t/3m7jvmkbZj/Y1+EvOjRZtSQHBQXSutxdeAY4QRzVsP0D3H2u+fd
JQc6h+D1EJQ/p4JyRfQniXtK/5lZY9XY5IaXyoxyw11xu2/9CAPJOq3CP+tPF+fX
H6HBDHhQd77KwbzHLaFcyvMdflg8aqDSub5Q10h8HDPPJSrZ5JtJC8s7JbYNEsy1
Kl6otr6YmPUWqmkGuLPdrRORORHyQWLCFkCOcaqpv47r/Z9EJOoqZordeFAzktP4
S5PVNj7pGy4XbshJG7uO/vmfQeYp+uFNr54FpUYuiFC9igH6VSmYUhnZy5o=
-----END CERTIFICATE-----
