Certificate:
    Data:
        Version: 3 (0x2)
        Serial Number: 58 (0x3a)
    Signature Algorithm: sha1WithRSAEncryption
        Issuer: C=US, ST=CA, L=SanFrancisco, O=Pixglo, Inc., OU=VPN-CIE, CN=tunnel.pixglo.com/name=Bala Chandrasekaran/emailAddress=bala@pixglo.com
        Validity
            Not Before: Feb 14 06:25:00 2018 GMT
            Not After : Feb 12 06:25:00 2028 GMT
        Subject: C=US, ST=CA, L=SanFrancisco, O=Pixglo, Inc., OU=VPN-CIE, CN=cie57/name=Bala Chandrasekaran/emailAddress=bala@pixglo.com
        Subject Public Key Info:
            Public Key Algorithm: rsaEncryption
                Public-Key: (4096 bit)
                Modulus:
                    00:92:87:f5:53:ff:62:28:85:cf:a0:f0:25:76:f9:
                    91:08:67:74:a6:93:ee:9f:25:50:24:87:96:58:94:
                    02:32:44:d1:46:3b:9f:ba:2c:2c:c7:a8:4d:cb:84:
                    19:4f:fa:f0:da:31:57:38:73:21:81:42:e6:d1:88:
                    98:fc:c8:99:29:68:b6:ac:8a:b6:58:91:12:ab:6e:
                    6c:de:c4:6a:6f:fc:07:c4:73:18:f8:41:f5:d4:14:
                    65:30:b6:6c:61:cf:54:8f:90:62:a5:38:01:0e:e9:
                    0a:7e:2d:af:ce:f1:50:0b:67:5c:82:7e:5d:29:fc:
                    60:7b:66:a2:d8:f8:b0:8c:bb:ac:49:12:6e:7a:bb:
                    cd:84:8f:9a:b8:21:38:94:7f:e9:d1:9d:9d:ec:0f:
                    c1:d1:a4:45:b1:42:f0:40:a2:72:be:34:da:4c:4d:
                    71:45:ba:51:20:7e:ef:9a:3a:c2:30:5f:ca:c3:ce:
                    82:e9:b1:50:7f:c2:71:ab:0c:de:a8:79:60:52:53:
                    13:7a:c2:03:9f:b3:8e:b2:5f:ab:b2:ce:37:71:b3:
                    a3:7c:15:c4:66:07:11:69:64:e9:77:ad:87:bc:c1:
                    22:b2:1a:df:66:9f:ab:c0:b1:55:10:c5:60:fa:05:
                    e2:e9:f6:8f:9f:1d:60:fd:ed:29:36:20:d7:2b:3a:
                    4e:7f:a6:e3:49:8a:1a:57:e8:5a:9c:93:4f:f3:48:
                    25:36:95:0a:1a:0e:1f:e4:18:24:03:1c:2f:6f:be:
                    bb:13:b4:4c:c6:b1:f1:48:89:c8:01:15:82:94:c2:
                    a0:2d:56:3c:a1:e1:ed:82:e1:68:7e:eb:a8:93:64:
                    8d:8f:b9:10:40:42:22:27:57:4c:0c:d7:fa:fd:9a:
                    d5:af:2c:0b:b0:05:a0:8b:a3:a0:71:46:70:28:42:
                    eb:36:6d:44:7a:63:c4:70:0d:71:29:c0:26:39:76:
                    2e:82:24:af:bd:b1:71:66:fe:b0:1c:13:9e:37:1f:
                    3d:f9:b4:02:0b:2f:4e:79:cf:69:47:de:15:3d:00:
                    92:85:1a:6a:7d:0c:e2:7e:9f:b1:d2:fc:31:89:1e:
                    91:b7:d3:6e:0a:84:50:9e:8f:80:1f:ca:5c:63:2d:
                    60:8a:15:be:a5:02:50:24:3d:03:b3:c1:80:4a:d9:
                    1f:a3:ee:ca:c7:25:a7:09:a7:a3:cb:98:64:d6:eb:
                    5e:c6:46:95:d3:7d:ca:90:88:ec:fa:6f:93:65:73:
                    d8:f6:12:82:cd:a5:57:d0:1b:f3:ca:38:7e:38:4a:
                    d4:52:1f:16:8b:b7:83:5c:0d:48:db:19:ba:5c:26:
                    03:ee:8e:5a:33:e7:a6:00:f1:6b:b0:78:07:61:cd:
                    db:1d:55
                Exponent: 65537 (0x10001)
        X509v3 extensions:
            X509v3 Basic Constraints: 
                CA:FALSE
            Netscape Comment: 
                Easy-RSA Generated Certificate
            X509v3 Subject Key Identifier: 
                45:64:4E:32:26:F6:B4:79:97:EF:6C:17:21:01:CE:80:D7:A1:C5:9A
            X509v3 Authority Key Identifier: 
                keyid:EF:38:8D:14:50:58:A7:5B:4D:9C:17:72:FC:DF:B9:AC:A7:51:B0:10
                DirName:/C=US/ST=CA/L=SanFrancisco/O=Pixglo, Inc./OU=VPN-CIE/CN=tunnel.pixglo.com/name=Bala Chandrasekaran/emailAddress=bala@pixglo.com
                serial:A6:DB:C6:83:80:E6:A0:79

            X509v3 Extended Key Usage: 
                TLS Web Client Authentication
            X509v3 Key Usage: 
                Digital Signature
    Signature Algorithm: sha1WithRSAEncryption
         c6:bf:23:93:8b:d3:54:23:51:25:be:57:db:e3:95:02:da:4e:
         ea:a2:94:23:04:8a:19:29:d7:85:c6:36:e1:13:47:b3:ce:9e:
         da:b7:b7:05:c3:48:72:a4:6c:78:9d:3d:84:79:cf:6c:56:95:
         c0:1b:21:86:cf:89:2b:db:54:54:28:c9:f0:e2:8a:1d:26:03:
         96:21:a3:78:14:d9:64:b6:6f:44:87:1f:73:ab:41:29:4a:e7:
         bc:f7:18:74:f3:4c:f1:74:91:d6:ff:45:b5:0e:d0:5d:5b:c4:
         fc:f6:71:47:ab:bf:34:ad:4c:5f:0e:44:69:1d:23:84:41:7e:
         6a:79:d1:d6:0f:66:aa:08:1d:8e:55:b1:de:77:36:b8:8d:1a:
         1a:85:a3:20:da:5b:9b:3a:65:84:10:13:f0:12:21:96:33:d1:
         39:b2:25:18:ed:e6:8d:70:99:a0:fa:bb:d2:05:54:e5:89:9a:
         ef:7a:5a:08:f9:1f:c4:a6:55:a1:2d:98:c9:bf:3e:85:30:ad:
         45:44:4d:5e:26:c5:5f:70:25:38:39:8c:e7:ce:d5:4e:25:3f:
         53:44:d7:5d:d1:c1:26:0b:c7:7a:22:db:55:d9:85:39:91:fc:
         53:fb:05:f3:57:5a:9f:87:b1:6a:62:f2:ba:ad:df:1a:1b:b6:
         f5:f4:a6:cf:a7:10:08:00:35:9e:d1:b6:ba:3a:ad:4d:23:2e:
         2e:4f:d3:5b:3f:e4:fb:b1:81:20:9a:e7:84:6a:4a:6d:87:3d:
         0d:b6:1c:e0:6c:03:8a:1a:18:df:8a:61:fd:5c:20:7c:4d:c8:
         6b:0d:26:97:d4:30:94:16:7d:18:53:4d:9f:29:4b:7e:77:00:
         27:1a:c0:64:e8:24:4d:c8:d5:38:aa:c9:d7:0c:46:0f:8b:82:
         65:96:71:c4:c5:7b:23:f0:7c:43:01:0a:2f:ac:72:20:6d:a1:
         55:38:78:5e:38:bd:2f:09:58:af:f9:1c:fd:ff:dd:41:65:cd:
         8c:5c:9d:0e:bc:96:0b:1f:41:64:25:83:69:2a:00:e0:49:2c:
         e1:12:0c:c2:1c:e2:ae:8a:13:32:47:74:48:65:12:4e:4e:4d:
         da:6e:30:0d:b7:57:c3:2c:df:24:ad:9a:c7:fe:e4:73:5e:64:
         c7:5a:c7:64:24:c2:c7:89:23:1f:86:3d:4a:e0:a9:b2:c9:7a:
         87:a2:d7:2b:cd:25:56:b9:f1:19:35:90:89:17:4a:bd:44:c6:
         fe:13:67:a6:32:f0:83:07:9b:b6:7b:bb:1f:d5:ff:6a:36:60:
         70:2a:9a:2b:28:74:ea:9f:12:35:55:67:5f:f9:c2:8e:0f:b1:
         ea:9d:11:3b:4b:67:e6:50
-----BEGIN CERTIFICATE-----
MIIHRjCCBS6gAwIBAgIBOjANBgkqhkiG9w0BAQUFADCBtDELMAkGA1UEBhMCVVMx
CzAJBgNVBAgTAkNBMRUwEwYDVQQHEwxTYW5GcmFuY2lzY28xFTATBgNVBAoTDFBp
eGdsbywgSW5jLjEQMA4GA1UECxMHVlBOLUNJRTEaMBgGA1UEAxMRdHVubmVsLnBp
eGdsby5jb20xHDAaBgNVBCkTE0JhbGEgQ2hhbmRyYXNla2FyYW4xHjAcBgkqhkiG
9w0BCQEWD2JhbGFAcGl4Z2xvLmNvbTAeFw0xODAyMTQwNjI1MDBaFw0yODAyMTIw
NjI1MDBaMIGoMQswCQYDVQQGEwJVUzELMAkGA1UECBMCQ0ExFTATBgNVBAcTDFNh
bkZyYW5jaXNjbzEVMBMGA1UEChMMUGl4Z2xvLCBJbmMuMRAwDgYDVQQLEwdWUE4t
Q0lFMQ4wDAYDVQQDEwVjaWU1NzEcMBoGA1UEKRMTQmFsYSBDaGFuZHJhc2VrYXJh
bjEeMBwGCSqGSIb3DQEJARYPYmFsYUBwaXhnbG8uY29tMIICIjANBgkqhkiG9w0B
AQEFAAOCAg8AMIICCgKCAgEAkof1U/9iKIXPoPAldvmRCGd0ppPunyVQJIeWWJQC
MkTRRjufuiwsx6hNy4QZT/rw2jFXOHMhgULm0YiY/MiZKWi2rIq2WJESq25s3sRq
b/wHxHMY+EH11BRlMLZsYc9Uj5BipTgBDukKfi2vzvFQC2dcgn5dKfxge2ai2Piw
jLusSRJuervNhI+auCE4lH/p0Z2d7A/B0aRFsULwQKJyvjTaTE1xRbpRIH7vmjrC
MF/Kw86C6bFQf8JxqwzeqHlgUlMTesIDn7OOsl+rss43cbOjfBXEZgcRaWTpd62H
vMEishrfZp+rwLFVEMVg+gXi6faPnx1g/e0pNiDXKzpOf6bjSYoaV+hanJNP80gl
NpUKGg4f5BgkAxwvb767E7RMxrHxSInIARWClMKgLVY8oeHtguFofuuok2SNj7kQ
QEIiJ1dMDNf6/ZrVrywLsAWgi6OgcUZwKELrNm1EemPEcA1xKcAmOXYugiSvvbFx
Zv6wHBOeNx89+bQCCy9Oec9pR94VPQCShRpqfQzifp+x0vwxiR6Rt9NuCoRQno+A
H8pcYy1gihW+pQJQJD0Ds8GAStkfo+7KxyWnCaejy5hk1utexkaV033KkIjs+m+T
ZXPY9hKCzaVX0Bvzyjh+OErUUh8Wi7eDXA1I2xm6XCYD7o5aM+emAPFrsHgHYc3b
HVUCAwEAAaOCAWswggFnMAkGA1UdEwQCMAAwLQYJYIZIAYb4QgENBCAWHkVhc3kt
UlNBIEdlbmVyYXRlZCBDZXJ0aWZpY2F0ZTAdBgNVHQ4EFgQURWROMib2tHmX72wX
IQHOgNehxZowgekGA1UdIwSB4TCB3oAU7ziNFFBYp1tNnBdy/N+5rKdRsBChgbqk
gbcwgbQxCzAJBgNVBAYTAlVTMQswCQYDVQQIEwJDQTEVMBMGA1UEBxMMU2FuRnJh
bmNpc2NvMRUwEwYDVQQKEwxQaXhnbG8sIEluYy4xEDAOBgNVBAsTB1ZQTi1DSUUx
GjAYBgNVBAMTEXR1bm5lbC5waXhnbG8uY29tMRwwGgYDVQQpExNCYWxhIENoYW5k
cmFzZWthcmFuMR4wHAYJKoZIhvcNAQkBFg9iYWxhQHBpeGdsby5jb22CCQCm28aD
gOageTATBgNVHSUEDDAKBggrBgEFBQcDAjALBgNVHQ8EBAMCB4AwDQYJKoZIhvcN
AQEFBQADggIBAMa/I5OL01QjUSW+V9vjlQLaTuqilCMEihkp14XGNuETR7POntq3
twXDSHKkbHidPYR5z2xWlcAbIYbPiSvbVFQoyfDiih0mA5Yho3gU2WS2b0SHH3Or
QSlK57z3GHTzTPF0kdb/RbUO0F1bxPz2cUervzStTF8ORGkdI4RBfmp50dYPZqoI
HY5Vsd53NriNGhqFoyDaW5s6ZYQQE/ASIZYz0TmyJRjt5o1wmaD6u9IFVOWJmu96
Wgj5H8SmVaEtmMm/PoUwrUVETV4mxV9wJTg5jOfO1U4lP1NE113RwSYLx3oi21XZ
hTmR/FP7BfNXWp+HsWpi8rqt3xobtvX0ps+nEAgANZ7Rtro6rU0jLi5P01s/5Pux
gSCa54RqSm2HPQ22HOBsA4oaGN+KYf1cIHxNyGsNJpfUMJQWfRhTTZ8pS353ACca
wGToJE3I1TiqydcMRg+LgmWWccTFeyPwfEMBCi+sciBtoVU4eF44vS8JWK/5HP3/
3UFlzYxcnQ68lgsfQWQlg2kqAOBJLOESDMIc4q6KEzJHdEhlEk5OTdpuMA23V8Ms
3yStmsf+5HNeZMdax2QkwseJIx+GPUrgqbLJeoei1yvNJVa58Rk1kIkXSr1Exv4T
Z6Yy8IMHm7Z7ux/V/2o2YHAqmisodOqfEjVVZ1/5wo4PseqdETtLZ+ZQ
-----END CERTIFICATE-----
