Certificate:
    Data:
        Version: 3 (0x2)
        Serial Number: 572 (0x23c)
    Signature Algorithm: sha1WithRSAEncryption
        Issuer: C=US, ST=CA, L=SanFrancisco, O=Pixglo, Inc., OU=VPN-CIE, CN=tunnel.pixglo.com/name=Bala Chandrasekaran/emailAddress=bala@pixglo.com
        Validity
            Not Before: Feb 14 06:37:25 2018 GMT
            Not After : Feb 12 06:37:25 2028 GMT
        Subject: C=US, ST=CA, L=SanFrancisco, O=Pixglo, Inc., OU=VPN-CIE, CN=cie571/name=Bala Chandrasekaran/emailAddress=bala@pixglo.com
        Subject Public Key Info:
            Public Key Algorithm: rsaEncryption
                Public-Key: (4096 bit)
                Modulus:
                    00:df:7d:03:4f:1a:8a:7e:79:cd:29:41:e7:8c:3e:
                    37:47:ec:ac:77:1b:0e:2a:94:4b:e4:78:9e:01:94:
                    04:b3:16:02:53:57:22:2e:dd:fa:44:78:25:8b:9d:
                    a0:cd:65:87:34:f7:d0:95:b7:3b:36:ff:aa:99:d8:
                    2e:59:44:52:bd:e4:8f:52:1c:8e:76:f0:8e:9b:af:
                    f9:8a:68:4f:77:33:6a:1e:1d:f5:1a:61:1b:f4:0a:
                    48:1e:2e:63:64:87:4e:c8:f0:eb:bb:43:97:2a:69:
                    d2:40:d4:1b:fa:93:c3:36:0b:c0:e2:a3:81:fb:3b:
                    0f:cb:43:5a:66:c8:22:06:a5:b0:fc:8b:1f:db:20:
                    da:75:39:c8:48:01:de:7d:51:4c:6f:f0:88:9a:63:
                    ef:fc:16:af:69:5a:2e:47:45:e5:bf:f7:69:5e:35:
                    07:38:d6:55:1c:a7:73:50:69:4e:48:70:41:09:97:
                    af:d3:28:96:86:f6:cd:e9:ef:da:cd:cb:28:e2:ae:
                    63:62:a7:fd:c5:0c:05:28:60:98:6b:ae:2f:f6:99:
                    97:fb:93:08:c6:4e:d6:bb:53:16:66:f7:d3:37:17:
                    d9:48:15:8c:ee:23:92:e2:e3:f5:0f:ca:03:1a:66:
                    ab:b5:4d:c5:ab:0b:34:bb:46:90:df:ad:b5:52:ad:
                    0f:b7:b9:38:da:67:1f:8f:cf:4c:38:e2:13:de:a9:
                    5a:dd:e8:8d:db:d1:53:f4:6e:38:e4:07:13:3f:56:
                    9b:e7:9e:3b:1d:f5:30:fe:29:f5:3b:7c:d7:ad:99:
                    d9:39:0a:c5:a9:fa:65:c7:b1:43:ea:71:e1:8a:af:
                    ee:f0:ae:3a:61:d1:99:9f:af:4b:cd:02:a1:80:17:
                    d8:76:d3:db:a9:b7:ce:58:3d:31:80:c6:0b:4a:57:
                    53:e7:22:41:63:69:27:e1:9b:4f:a3:03:ab:54:92:
                    1e:59:ea:fe:4f:fc:94:ab:fe:0a:8f:62:45:7d:ba:
                    79:b2:8f:48:a9:05:ea:74:58:37:0d:23:73:a6:56:
                    8a:2a:ea:4a:50:6b:04:28:5a:5f:b1:2e:8e:37:46:
                    d3:1a:cf:ff:d3:be:b0:a5:8d:f3:25:4d:5d:b9:08:
                    58:f6:e5:86:e0:b3:fc:c5:f0:c4:fb:f0:96:9a:e0:
                    a3:e8:b1:ee:53:a3:ae:dc:3d:21:be:95:d4:35:2f:
                    61:ad:65:11:f9:6e:60:89:12:12:39:cb:17:a1:32:
                    c6:cd:e8:dc:2a:87:53:68:f4:0d:8a:6b:5a:7f:7e:
                    b3:4e:96:34:d6:db:ed:9f:be:83:62:4e:89:00:d0:
                    d5:46:d7:e9:54:58:92:85:e8:34:68:73:0f:ff:68:
                    43:ed:d9
                Exponent: 65537 (0x10001)
        X509v3 extensions:
            X509v3 Basic Constraints: 
                CA:FALSE
            Netscape Comment: 
                Easy-RSA Generated Certificate
            X509v3 Subject Key Identifier: 
                AF:D1:60:0E:21:17:08:27:38:E3:CB:47:DB:DF:34:5D:A1:64:85:97
            X509v3 Authority Key Identifier: 
                keyid:EF:38:8D:14:50:58:A7:5B:4D:9C:17:72:FC:DF:B9:AC:A7:51:B0:10
                DirName:/C=US/ST=CA/L=SanFrancisco/O=Pixglo, Inc./OU=VPN-CIE/CN=tunnel.pixglo.com/name=Bala Chandrasekaran/emailAddress=bala@pixglo.com
                serial:A6:DB:C6:83:80:E6:A0:79

            X509v3 Extended Key Usage: 
                TLS Web Client Authentication
            X509v3 Key Usage: 
                Digital Signature
    Signature Algorithm: sha1WithRSAEncryption
         40:17:01:aa:25:c7:f1:8f:28:ff:f6:20:72:d0:e8:38:7e:64:
         61:b6:4e:3d:70:3c:48:7c:96:26:f5:01:33:19:94:2c:07:c1:
         06:95:af:83:f5:c2:60:f9:7e:3e:f5:2c:ce:1f:06:52:bc:ed:
         70:d0:5a:23:de:8e:43:d2:0f:72:16:9f:42:8f:ab:87:b9:de:
         9e:5e:3b:1b:a0:34:9d:d3:e8:bc:16:9f:67:ab:34:c9:07:48:
         ca:cf:cc:45:12:b5:c1:50:5b:b0:70:9d:82:46:83:f3:bc:65:
         dd:18:dd:3e:51:e0:99:ff:54:3a:37:06:90:7b:ba:44:00:3b:
         66:f9:34:68:0b:69:f4:34:c3:90:30:9e:20:af:2f:94:fc:61:
         cf:a2:39:7d:1c:2a:51:5a:e7:00:f8:b1:03:f2:dc:53:39:82:
         69:b0:68:e4:fc:87:d0:ed:86:b9:be:bc:8d:4b:e2:c3:bd:4b:
         b1:52:57:8c:8a:80:69:e7:0d:33:38:4b:2b:b9:bb:19:fc:22:
         f8:6a:90:85:5a:0d:28:e2:5a:7a:16:79:bb:e1:4c:32:53:04:
         d2:fe:d0:d7:79:f4:df:54:84:75:c6:22:fa:25:ac:11:04:6e:
         d0:b4:a3:9d:34:bd:5d:88:59:56:df:33:8e:6d:21:4c:20:f4:
         6c:3d:05:4e:be:c4:5c:8c:b0:66:53:27:1e:1f:e0:a3:80:dc:
         b7:7c:ea:69:96:dc:6d:8c:50:76:55:60:37:c0:ce:bf:e6:32:
         51:d5:89:8d:6e:22:97:4f:17:76:40:a1:ff:b0:d8:eb:f3:54:
         2d:ff:38:69:da:ac:30:c3:35:ff:1e:ce:62:f0:30:bc:8a:b3:
         b6:0b:df:6e:82:6f:b0:ee:3d:8e:73:27:38:9e:d8:d8:f5:cb:
         31:28:76:fb:9d:aa:b3:1c:70:38:2e:6e:5d:a1:19:80:ec:08:
         06:d1:67:d8:78:db:97:6d:d1:1b:5c:57:e4:69:a1:e1:f2:89:
         09:9f:a4:54:b8:a5:70:74:8c:a5:c2:ac:71:57:14:f6:4e:7c:
         23:f5:90:be:04:54:b8:7b:24:8d:07:ef:b6:8c:d0:dd:a4:52:
         0b:e2:2d:59:5c:bf:dd:d1:79:82:7a:49:66:33:f4:73:f7:77:
         6b:46:56:f5:92:39:58:59:7f:6c:a4:6e:e7:a6:53:a2:63:90:
         0b:e4:1e:5f:4c:e9:22:3c:b4:cc:90:ed:b1:f1:15:6a:dd:9b:
         be:cb:77:1d:37:eb:a8:16:ff:cb:74:9b:88:e2:50:ac:1e:51:
         4e:75:84:8b:05:8b:ae:f9:cf:54:63:06:d4:8a:e3:ae:92:41:
         05:9d:73:71:f1:4c:7d:36
-----BEGIN CERTIFICATE-----
MIIHSDCCBTCgAwIBAgICAjwwDQYJKoZIhvcNAQEFBQAwgbQxCzAJBgNVBAYTAlVT
MQswCQYDVQQIEwJDQTEVMBMGA1UEBxMMU2FuRnJhbmNpc2NvMRUwEwYDVQQKEwxQ
aXhnbG8sIEluYy4xEDAOBgNVBAsTB1ZQTi1DSUUxGjAYBgNVBAMTEXR1bm5lbC5w
aXhnbG8uY29tMRwwGgYDVQQpExNCYWxhIENoYW5kcmFzZWthcmFuMR4wHAYJKoZI
hvcNAQkBFg9iYWxhQHBpeGdsby5jb20wHhcNMTgwMjE0MDYzNzI1WhcNMjgwMjEy
MDYzNzI1WjCBqTELMAkGA1UEBhMCVVMxCzAJBgNVBAgTAkNBMRUwEwYDVQQHEwxT
YW5GcmFuY2lzY28xFTATBgNVBAoTDFBpeGdsbywgSW5jLjEQMA4GA1UECxMHVlBO
LUNJRTEPMA0GA1UEAxMGY2llNTcxMRwwGgYDVQQpExNCYWxhIENoYW5kcmFzZWth
cmFuMR4wHAYJKoZIhvcNAQkBFg9iYWxhQHBpeGdsby5jb20wggIiMA0GCSqGSIb3
DQEBAQUAA4ICDwAwggIKAoICAQDffQNPGop+ec0pQeeMPjdH7Kx3Gw4qlEvkeJ4B
lASzFgJTVyIu3fpEeCWLnaDNZYc099CVtzs2/6qZ2C5ZRFK95I9SHI528I6br/mK
aE93M2oeHfUaYRv0CkgeLmNkh07I8Ou7Q5cqadJA1Bv6k8M2C8Dio4H7Ow/LQ1pm
yCIGpbD8ix/bINp1OchIAd59UUxv8IiaY+/8Fq9pWi5HReW/92leNQc41lUcp3NQ
aU5IcEEJl6/TKJaG9s3p79rNyyjirmNip/3FDAUoYJhrri/2mZf7kwjGTta7UxZm
99M3F9lIFYzuI5Li4/UPygMaZqu1TcWrCzS7RpDfrbVSrQ+3uTjaZx+Pz0w44hPe
qVrd6I3b0VP0bjjkBxM/Vpvnnjsd9TD+KfU7fNetmdk5CsWp+mXHsUPqceGKr+7w
rjph0Zmfr0vNAqGAF9h209upt85YPTGAxgtKV1PnIkFjaSfhm0+jA6tUkh5Z6v5P
/JSr/gqPYkV9unmyj0ipBep0WDcNI3OmVooq6kpQawQoWl+xLo43RtMaz//TvrCl
jfMlTV25CFj25Ybgs/zF8MT78Jaa4KPose5To67cPSG+ldQ1L2GtZRH5bmCJEhI5
yxehMsbN6Nwqh1No9A2Ka1p/frNOljTW2+2fvoNiTokA0NVG1+lUWJKF6DRocw//
aEPt2QIDAQABo4IBazCCAWcwCQYDVR0TBAIwADAtBglghkgBhvhCAQ0EIBYeRWFz
eS1SU0EgR2VuZXJhdGVkIENlcnRpZmljYXRlMB0GA1UdDgQWBBSv0WAOIRcIJzjj
y0fb3zRdoWSFlzCB6QYDVR0jBIHhMIHegBTvOI0UUFinW02cF3L837msp1GwEKGB
uqSBtzCBtDELMAkGA1UEBhMCVVMxCzAJBgNVBAgTAkNBMRUwEwYDVQQHEwxTYW5G
cmFuY2lzY28xFTATBgNVBAoTDFBpeGdsbywgSW5jLjEQMA4GA1UECxMHVlBOLUNJ
RTEaMBgGA1UEAxMRdHVubmVsLnBpeGdsby5jb20xHDAaBgNVBCkTE0JhbGEgQ2hh
bmRyYXNla2FyYW4xHjAcBgkqhkiG9w0BCQEWD2JhbGFAcGl4Z2xvLmNvbYIJAKbb
xoOA5qB5MBMGA1UdJQQMMAoGCCsGAQUFBwMCMAsGA1UdDwQEAwIHgDANBgkqhkiG
9w0BAQUFAAOCAgEAQBcBqiXH8Y8o//YgctDoOH5kYbZOPXA8SHyWJvUBMxmULAfB
BpWvg/XCYPl+PvUszh8GUrztcNBaI96OQ9IPchafQo+rh7nenl47G6A0ndPovBaf
Z6s0yQdIys/MRRK1wVBbsHCdgkaD87xl3RjdPlHgmf9UOjcGkHu6RAA7Zvk0aAtp
9DTDkDCeIK8vlPxhz6I5fRwqUVrnAPixA/LcUzmCabBo5PyH0O2Gub68jUviw71L
sVJXjIqAaecNMzhLK7m7Gfwi+GqQhVoNKOJaehZ5u+FMMlME0v7Q13n031SEdcYi
+iWsEQRu0LSjnTS9XYhZVt8zjm0hTCD0bD0FTr7EXIywZlMnHh/go4Dct3zqaZbc
bYxQdlVgN8DOv+YyUdWJjW4il08XdkCh/7DY6/NULf84adqsMMM1/x7OYvAwvIqz
tgvfboJvsO49jnMnOJ7Y2PXLMSh2+52qsxxwOC5uXaEZgOwIBtFn2Hjbl23RG1xX
5Gmh4fKJCZ+kVLilcHSMpcKscVcU9k58I/WQvgRUuHskjQfvtozQ3aRSC+ItWVy/
3dF5gnpJZjP0c/d3a0ZW9ZI5WFl/bKRu56ZTomOQC+QeX0zpIjy0zJDtsfEVat2b
vst3HTfrqBb/y3SbiOJQrB5RTnWEiwWLrvnPVGMG1IrjrpJBBZ1zcfFMfTY=
-----END CERTIFICATE-----
