Certificate:
    Data:
        Version: 3 (0x2)
        Serial Number: 529 (0x211)
    Signature Algorithm: sha1WithRSAEncryption
        Issuer: C=US, ST=CA, L=SanFrancisco, O=Pixglo, Inc., OU=VPN-CIE, CN=tunnel.pixglo.com/name=Bala Chandrasekaran/emailAddress=bala@pixglo.com
        Validity
            Not Before: Feb 14 06:36:25 2018 GMT
            Not After : Feb 12 06:36:25 2028 GMT
        Subject: C=US, ST=CA, L=SanFrancisco, O=Pixglo, Inc., OU=VPN-CIE, CN=cie528/name=Bala Chandrasekaran/emailAddress=bala@pixglo.com
        Subject Public Key Info:
            Public Key Algorithm: rsaEncryption
                Public-Key: (4096 bit)
                Modulus:
                    00:ba:d2:51:cb:90:81:d2:fc:f9:dd:2e:c1:dd:5a:
                    59:a8:30:73:4f:22:d6:77:e4:e5:d1:23:fe:55:0e:
                    0a:33:93:f5:9b:9c:24:01:f1:b2:30:2f:8f:fb:ab:
                    39:74:30:3f:e1:7a:5a:b0:52:78:7e:1e:88:f1:e7:
                    a9:68:78:c4:37:a1:b8:7f:81:e8:09:64:80:af:ec:
                    c5:51:49:a3:11:35:eb:5f:d6:1d:e3:77:b5:9b:28:
                    f6:29:82:a1:91:8e:60:06:3e:00:45:df:89:81:8d:
                    08:c2:89:e7:35:92:5f:cd:39:94:ec:a6:05:dc:de:
                    7c:fd:3d:8e:11:8f:fe:91:61:34:a8:65:67:82:6d:
                    ec:01:02:cd:17:84:fc:17:d3:a0:e9:8a:5e:e8:1b:
                    82:26:5f:9c:49:1f:9f:d2:53:6c:81:c1:f8:8a:f6:
                    2d:18:e5:e3:e5:03:5e:2b:96:f3:a7:ba:c3:60:70:
                    0e:5c:62:cb:d3:6a:20:17:9c:21:66:1a:b4:a7:9e:
                    c2:fd:60:b9:75:97:e5:0f:19:28:e0:05:df:83:57:
                    32:c1:7a:b9:39:e5:3a:d0:5e:6a:5a:e1:6c:ce:3f:
                    57:24:3a:b7:48:6e:a6:01:d9:a4:1d:9d:9b:86:f2:
                    e0:ba:d5:3a:d2:4e:15:2c:99:fa:78:93:3e:30:ba:
                    72:d7:31:f7:e9:1b:fa:a2:b9:c7:e9:0b:18:96:47:
                    4f:1b:4e:7b:b5:d6:b8:a4:a4:ab:14:58:98:51:92:
                    ae:b1:10:74:80:9f:60:4d:1a:c0:32:4f:0b:6c:fc:
                    09:65:4c:b5:e2:ff:a9:d7:79:61:ec:d3:4b:2d:5e:
                    c9:4e:33:a8:07:56:20:9b:86:7a:81:b1:23:1e:b1:
                    f3:d9:8f:70:bf:f5:e6:f3:2f:13:76:90:9d:bc:92:
                    19:a1:10:a4:6f:a0:c3:53:1a:c5:ff:12:07:06:63:
                    df:79:e8:94:13:e9:d5:69:3a:ac:95:af:02:32:20:
                    3b:0d:2d:a1:8e:9c:98:88:19:96:4b:8a:7f:48:df:
                    fa:fc:83:60:f0:03:76:02:3d:9f:22:a8:af:18:52:
                    f6:e3:e1:a3:26:d8:7f:df:69:56:cf:65:52:13:77:
                    50:03:be:42:c1:52:b4:25:95:99:52:d9:8a:4e:da:
                    6a:af:5f:ae:41:76:56:f6:f8:f3:4a:53:8a:bb:54:
                    f2:d2:9e:3d:bf:9c:9b:9b:1e:6e:b2:21:b4:d0:0d:
                    e2:d4:60:46:2e:d8:15:66:cb:6d:83:75:d5:ef:d2:
                    8f:bc:9b:25:3a:55:f4:da:4c:53:47:dc:7a:5d:7e:
                    e3:73:6a:a1:a7:5b:89:4c:e1:d1:05:01:01:e6:f9:
                    10:d9:43
                Exponent: 65537 (0x10001)
        X509v3 extensions:
            X509v3 Basic Constraints: 
                CA:FALSE
            Netscape Comment: 
                Easy-RSA Generated Certificate
            X509v3 Subject Key Identifier: 
                78:51:86:30:AB:32:6C:04:2B:F0:5D:D2:5E:BF:A8:DE:1B:AD:4B:A8
            X509v3 Authority Key Identifier: 
                keyid:EF:38:8D:14:50:58:A7:5B:4D:9C:17:72:FC:DF:B9:AC:A7:51:B0:10
                DirName:/C=US/ST=CA/L=SanFrancisco/O=Pixglo, Inc./OU=VPN-CIE/CN=tunnel.pixglo.com/name=Bala Chandrasekaran/emailAddress=bala@pixglo.com
                serial:A6:DB:C6:83:80:E6:A0:79

            X509v3 Extended Key Usage: 
                TLS Web Client Authentication
            X509v3 Key Usage: 
                Digital Signature
    Signature Algorithm: sha1WithRSAEncryption
         1d:21:de:6e:1f:a1:c5:43:2e:d2:50:8f:e2:a4:62:20:57:da:
         c2:0c:2b:6d:5a:02:37:18:a7:91:91:95:66:75:ea:21:8c:98:
         67:ad:45:7e:2e:4f:47:b5:7b:2c:19:28:b5:40:f9:e0:c7:e4:
         3a:9e:ef:25:a6:3d:49:8d:ca:4b:50:3e:70:cb:0b:c6:24:c9:
         a1:73:ab:82:69:93:56:2b:c7:12:7d:24:75:3b:83:be:4d:17:
         25:37:98:c1:53:d4:4f:0a:f6:50:ce:b3:73:e0:18:20:4f:90:
         36:dd:98:08:2e:04:81:d6:e7:d6:9a:68:c9:dd:64:36:c4:03:
         d2:d1:cb:08:79:53:f8:29:78:42:46:76:16:1b:99:13:0f:c0:
         0b:a9:70:ee:20:1d:ba:db:5a:a2:60:a5:c8:e7:8f:fc:9e:74:
         c5:a1:7e:50:c3:00:df:30:33:39:2f:59:73:46:db:d5:44:ed:
         c6:e5:a2:da:ed:da:43:23:a5:c8:8d:99:5a:09:c6:99:20:4b:
         da:0f:24:09:31:f4:43:9b:2e:b0:1e:d8:57:95:36:47:03:7c:
         86:98:6a:58:39:bf:43:ab:32:78:7a:f6:18:3f:ca:df:6a:6b:
         11:a0:3d:6e:e8:02:40:67:a0:9c:9c:cc:e1:1a:0f:16:b8:1f:
         69:18:1a:17:76:a3:5f:88:47:a5:4f:1d:7d:22:5b:21:a8:47:
         bc:4e:6c:c1:4a:c9:3e:65:fb:8d:a3:7e:06:63:04:76:9e:4a:
         5a:ce:4c:be:d6:bb:96:33:a9:95:be:ff:3c:2d:2c:70:78:6e:
         be:46:84:0e:39:ca:a6:3d:5f:bb:6d:ff:b4:4e:b3:4f:b6:4c:
         86:41:67:2c:d5:7d:0c:76:91:51:01:de:9e:2f:bd:5c:34:81:
         f9:b0:df:16:05:a6:19:de:10:d3:2c:e2:7b:b2:99:1e:27:e5:
         b6:a9:2c:bf:9d:cf:82:b2:6a:61:15:3c:3a:52:1d:b3:93:a5:
         62:93:64:9b:27:8e:fb:32:b3:04:d4:38:40:f8:d3:13:df:39:
         50:7e:43:b1:44:88:f7:ff:07:91:69:0b:c3:05:46:d6:65:94:
         d8:7d:5d:cd:8d:6b:ea:98:d2:e4:d1:90:4c:8d:e3:4e:53:96:
         58:9b:a4:f3:47:94:02:41:bb:e6:98:8b:84:40:86:c4:3c:db:
         95:a8:59:f3:86:21:e1:3a:f2:fb:12:0a:cc:27:b0:50:2b:b8:
         d0:2d:c9:97:8a:9e:6f:78:1c:99:c7:b1:da:fe:a4:80:4a:7b:
         c5:64:f1:de:00:28:6e:d2:98:27:2d:6b:e8:9c:a2:a6:cf:3a:
         d3:be:95:c5:55:38:f4:2f
-----BEGIN CERTIFICATE-----
MIIHSDCCBTCgAwIBAgICAhEwDQYJKoZIhvcNAQEFBQAwgbQxCzAJBgNVBAYTAlVT
MQswCQYDVQQIEwJDQTEVMBMGA1UEBxMMU2FuRnJhbmNpc2NvMRUwEwYDVQQKEwxQ
aXhnbG8sIEluYy4xEDAOBgNVBAsTB1ZQTi1DSUUxGjAYBgNVBAMTEXR1bm5lbC5w
aXhnbG8uY29tMRwwGgYDVQQpExNCYWxhIENoYW5kcmFzZWthcmFuMR4wHAYJKoZI
hvcNAQkBFg9iYWxhQHBpeGdsby5jb20wHhcNMTgwMjE0MDYzNjI1WhcNMjgwMjEy
MDYzNjI1WjCBqTELMAkGA1UEBhMCVVMxCzAJBgNVBAgTAkNBMRUwEwYDVQQHEwxT
YW5GcmFuY2lzY28xFTATBgNVBAoTDFBpeGdsbywgSW5jLjEQMA4GA1UECxMHVlBO
LUNJRTEPMA0GA1UEAxMGY2llNTI4MRwwGgYDVQQpExNCYWxhIENoYW5kcmFzZWth
cmFuMR4wHAYJKoZIhvcNAQkBFg9iYWxhQHBpeGdsby5jb20wggIiMA0GCSqGSIb3
DQEBAQUAA4ICDwAwggIKAoICAQC60lHLkIHS/PndLsHdWlmoMHNPItZ35OXRI/5V
Dgozk/WbnCQB8bIwL4/7qzl0MD/helqwUnh+Hojx56loeMQ3obh/gegJZICv7MVR
SaMRNetf1h3jd7WbKPYpgqGRjmAGPgBF34mBjQjCiec1kl/NOZTspgXc3nz9PY4R
j/6RYTSoZWeCbewBAs0XhPwX06Dpil7oG4ImX5xJH5/SU2yBwfiK9i0Y5ePlA14r
lvOnusNgcA5cYsvTaiAXnCFmGrSnnsL9YLl1l+UPGSjgBd+DVzLBerk55TrQXmpa
4WzOP1ckOrdIbqYB2aQdnZuG8uC61TrSThUsmfp4kz4wunLXMffpG/qiucfpCxiW
R08bTnu11rikpKsUWJhRkq6xEHSAn2BNGsAyTwts/AllTLXi/6nXeWHs00stXslO
M6gHViCbhnqBsSMesfPZj3C/9ebzLxN2kJ28khmhEKRvoMNTGsX/EgcGY9956JQT
6dVpOqyVrwIyIDsNLaGOnJiIGZZLin9I3/r8g2DwA3YCPZ8iqK8YUvbj4aMm2H/f
aVbPZVITd1ADvkLBUrQllZlS2YpO2mqvX65Bdlb2+PNKU4q7VPLSnj2/nJubHm6y
IbTQDeLUYEYu2BVmy22DddXv0o+8myU6VfTaTFNH3HpdfuNzaqGnW4lM4dEFAQHm
+RDZQwIDAQABo4IBazCCAWcwCQYDVR0TBAIwADAtBglghkgBhvhCAQ0EIBYeRWFz
eS1SU0EgR2VuZXJhdGVkIENlcnRpZmljYXRlMB0GA1UdDgQWBBR4UYYwqzJsBCvw
XdJev6jeG61LqDCB6QYDVR0jBIHhMIHegBTvOI0UUFinW02cF3L837msp1GwEKGB
uqSBtzCBtDELMAkGA1UEBhMCVVMxCzAJBgNVBAgTAkNBMRUwEwYDVQQHEwxTYW5G
cmFuY2lzY28xFTATBgNVBAoTDFBpeGdsbywgSW5jLjEQMA4GA1UECxMHVlBOLUNJ
RTEaMBgGA1UEAxMRdHVubmVsLnBpeGdsby5jb20xHDAaBgNVBCkTE0JhbGEgQ2hh
bmRyYXNla2FyYW4xHjAcBgkqhkiG9w0BCQEWD2JhbGFAcGl4Z2xvLmNvbYIJAKbb
xoOA5qB5MBMGA1UdJQQMMAoGCCsGAQUFBwMCMAsGA1UdDwQEAwIHgDANBgkqhkiG
9w0BAQUFAAOCAgEAHSHebh+hxUMu0lCP4qRiIFfawgwrbVoCNxinkZGVZnXqIYyY
Z61Ffi5PR7V7LBkotUD54MfkOp7vJaY9SY3KS1A+cMsLxiTJoXOrgmmTVivHEn0k
dTuDvk0XJTeYwVPUTwr2UM6zc+AYIE+QNt2YCC4Egdbn1ppoyd1kNsQD0tHLCHlT
+Cl4QkZ2FhuZEw/AC6lw7iAduttaomClyOeP/J50xaF+UMMA3zAzOS9Zc0bb1UTt
xuWi2u3aQyOlyI2ZWgnGmSBL2g8kCTH0Q5susB7YV5U2RwN8hphqWDm/Q6syeHr2
GD/K32prEaA9bugCQGegnJzM4RoPFrgfaRgaF3ajX4hHpU8dfSJbIahHvE5swUrJ
PmX7jaN+BmMEdp5KWs5Mvta7ljOplb7/PC0scHhuvkaEDjnKpj1fu23/tE6zT7ZM
hkFnLNV9DHaRUQHeni+9XDSB+bDfFgWmGd4Q0yzie7KZHifltqksv53PgrJqYRU8
OlIds5OlYpNkmyeO+zKzBNQ4QPjTE985UH5DsUSI9/8HkWkLwwVG1mWU2H1dzY1r
6pjS5NGQTI3jTlOWWJuk80eUAkG75piLhECGxDzblahZ84Yh4Try+xIKzCewUCu4
0C3Jl4qeb3gcmcex2v6kgEp7xWTx3gAobtKYJy1r6Jyips86076VxVU49C8=
-----END CERTIFICATE-----
