Certificate:
    Data:
        Version: 3 (0x2)
        Serial Number: 541 (0x21d)
    Signature Algorithm: sha1WithRSAEncryption
        Issuer: C=US, ST=CA, L=SanFrancisco, O=Pixglo, Inc., OU=VPN-CIE, CN=tunnel.pixglo.com/name=Bala Chandrasekaran/emailAddress=bala@pixglo.com
        Validity
            Not Before: Feb 14 06:36:39 2018 GMT
            Not After : Feb 12 06:36:39 2028 GMT
        Subject: C=US, ST=CA, L=SanFrancisco, O=Pixglo, Inc., OU=VPN-CIE, CN=cie540/name=Bala Chandrasekaran/emailAddress=bala@pixglo.com
        Subject Public Key Info:
            Public Key Algorithm: rsaEncryption
                Public-Key: (4096 bit)
                Modulus:
                    00:ca:89:9f:db:a6:d2:c4:49:88:a2:3a:98:34:23:
                    d3:55:25:56:db:50:f6:c8:2f:d2:5d:24:b8:e2:b2:
                    96:e9:51:3e:49:f2:2b:d6:5b:a9:21:b3:37:6a:0e:
                    54:d1:b6:c7:c0:cb:30:eb:c6:bc:93:6d:ca:df:ff:
                    83:de:06:8d:d6:e1:a6:e6:36:87:dc:75:c4:b0:d6:
                    d4:18:b0:53:b9:50:7e:b5:b0:22:3d:f6:e4:d1:36:
                    80:4f:76:cb:cd:b1:80:f3:b9:5a:d4:ba:ea:5a:77:
                    62:fd:71:05:6e:bb:a4:04:3f:05:e6:6d:83:b1:ea:
                    7e:ad:f6:21:3d:73:5e:b7:9d:8a:4d:51:1a:b6:bd:
                    fe:ef:40:e2:32:a3:d6:5c:c2:47:fa:e5:5b:1d:74:
                    89:77:96:21:00:89:52:06:3b:d2:f6:24:aa:04:54:
                    06:cc:ae:55:aa:5c:91:5e:5e:f5:3b:71:67:19:5c:
                    ce:48:04:3f:10:8d:b9:a4:3c:18:06:5f:a3:f8:92:
                    8c:fa:eb:f0:dc:af:66:9e:d9:5a:a8:b5:13:f4:06:
                    88:cf:fe:21:e6:54:31:7a:da:87:45:91:17:89:3b:
                    50:6c:11:3d:39:f4:a9:4d:03:16:76:80:c0:cc:29:
                    2e:7d:f8:b6:60:73:84:03:f5:b4:a8:9f:e8:da:e9:
                    e6:8c:3a:d9:d4:de:16:8e:61:ae:d1:c4:65:df:9f:
                    69:3c:61:2f:b9:63:81:a9:a4:0c:9b:48:14:4e:41:
                    ef:fb:96:3a:40:33:83:22:35:68:78:fa:7b:14:e3:
                    6e:bb:8f:78:b2:6e:9a:f8:3b:04:1e:43:72:c7:c7:
                    09:c5:9a:f9:fe:90:c8:41:a1:80:3f:f9:ec:b1:a4:
                    82:ee:45:73:bf:39:34:5c:30:92:1c:db:7f:63:8d:
                    0f:ed:cd:ca:53:47:7c:11:42:13:fd:84:e7:33:72:
                    be:82:c8:7b:25:58:c3:1f:5a:4f:3e:14:dd:6a:ef:
                    6b:59:26:90:a9:6f:42:dd:ff:95:81:b2:a7:a7:bb:
                    95:10:81:0f:ea:61:a1:9a:40:42:e8:93:a1:95:88:
                    20:b4:be:d1:5b:ea:95:d5:fe:f4:07:93:6e:fd:3e:
                    1d:79:9e:da:8f:6d:44:3f:02:1a:75:43:8e:30:a8:
                    72:46:10:bb:cc:30:db:b1:4f:f8:1f:d4:40:ea:57:
                    a2:f3:85:2a:1a:a5:98:0c:74:f7:1d:13:5e:96:60:
                    37:63:b2:ad:8a:b6:b3:19:20:a4:1a:42:09:ab:c1:
                    c9:6a:81:24:ca:a1:82:d1:e7:74:a9:63:da:d7:7e:
                    b8:50:6b:b4:85:92:99:d2:6d:ea:1a:cd:d2:cf:9a:
                    d2:24:0d
                Exponent: 65537 (0x10001)
        X509v3 extensions:
            X509v3 Basic Constraints: 
                CA:FALSE
            Netscape Comment: 
                Easy-RSA Generated Certificate
            X509v3 Subject Key Identifier: 
                19:69:1F:25:2C:2B:C8:8B:B0:A9:A1:98:8C:7D:AE:7C:76:72:06:63
            X509v3 Authority Key Identifier: 
                keyid:EF:38:8D:14:50:58:A7:5B:4D:9C:17:72:FC:DF:B9:AC:A7:51:B0:10
                DirName:/C=US/ST=CA/L=SanFrancisco/O=Pixglo, Inc./OU=VPN-CIE/CN=tunnel.pixglo.com/name=Bala Chandrasekaran/emailAddress=bala@pixglo.com
                serial:A6:DB:C6:83:80:E6:A0:79

            X509v3 Extended Key Usage: 
                TLS Web Client Authentication
            X509v3 Key Usage: 
                Digital Signature
    Signature Algorithm: sha1WithRSAEncryption
         89:77:d1:f5:4b:76:83:32:21:95:b9:e5:f5:fc:68:48:0b:21:
         6d:9f:3b:af:15:e7:b5:24:55:8e:a7:f1:ba:89:d4:95:05:89:
         24:ac:b1:f9:bf:5b:d4:e5:ce:9c:58:30:cb:dc:89:41:28:17:
         b9:9f:1d:ca:45:b4:89:7b:d1:62:5b:fb:af:51:1a:ed:82:23:
         64:ad:43:75:26:c2:dc:e7:3a:67:50:4b:0d:3c:98:a8:6b:ea:
         d7:60:ba:7a:0e:9a:ec:32:31:90:da:81:7b:dc:db:32:30:25:
         78:4f:02:b2:30:7f:7b:c0:0d:a8:fd:81:a5:6d:65:05:7f:cf:
         2c:ac:5f:f5:e0:7f:19:60:e8:0d:31:63:8d:88:46:47:c4:5e:
         de:0e:aa:02:2f:4d:b9:90:1e:8b:f7:78:5c:34:0e:83:59:4f:
         60:86:77:6a:12:94:6e:d1:ad:47:90:32:b8:4b:c7:8a:57:3a:
         d4:a7:65:df:15:b5:97:63:b3:0e:d5:5e:5d:90:6b:bb:be:af:
         5c:e1:1c:fd:e3:ad:44:3c:11:87:54:2f:ea:94:e3:c8:96:06:
         73:20:9d:96:3c:54:b1:a8:9d:57:2f:8d:b8:55:1b:0a:92:0e:
         b4:43:03:f8:bd:ff:e9:89:0d:24:a0:dd:5c:b0:24:24:fe:78:
         06:8a:c0:79:a6:ae:e3:73:9c:4c:9e:dc:b2:87:a7:8f:04:da:
         48:34:2c:01:ff:f1:f7:e5:39:ad:1e:c7:ae:df:75:ad:86:37:
         47:2b:9e:7e:a5:f6:16:d3:9b:47:6e:11:c1:ed:24:7a:68:6c:
         1b:4d:8a:aa:fe:8e:70:1b:76:2c:21:c5:50:10:37:26:d7:21:
         a5:9e:d4:fe:2b:e2:df:29:ff:54:f2:06:a7:10:99:d5:aa:50:
         e6:d7:bc:bd:82:a9:e7:e4:49:43:06:06:40:46:e2:35:b0:9d:
         46:b5:5e:31:78:f2:f8:17:c4:cb:63:45:47:29:ca:40:49:3f:
         0b:37:c5:30:ef:d9:f6:a6:66:62:52:79:68:1b:9f:27:08:10:
         f0:7e:a1:53:5f:da:1f:1c:b4:95:86:6d:35:5c:8c:78:e5:fe:
         41:69:9f:1d:e4:ce:71:99:ac:f1:b8:ab:7f:8b:41:6c:ec:f1:
         e0:2f:ba:57:ec:38:c0:4e:6a:23:af:3e:ce:b2:1c:63:b5:2f:
         4b:29:81:1a:a9:02:8e:58:ca:cb:1e:37:69:8a:75:96:14:b6:
         da:bc:23:6d:7b:54:92:10:88:c2:ec:0c:b3:80:45:9f:7c:45:
         97:79:78:97:77:f2:14:3d:be:34:fd:09:fe:30:a9:72:82:47:
         bb:18:57:24:a8:d6:08:4a
-----BEGIN CERTIFICATE-----
MIIHSDCCBTCgAwIBAgICAh0wDQYJKoZIhvcNAQEFBQAwgbQxCzAJBgNVBAYTAlVT
MQswCQYDVQQIEwJDQTEVMBMGA1UEBxMMU2FuRnJhbmNpc2NvMRUwEwYDVQQKEwxQ
aXhnbG8sIEluYy4xEDAOBgNVBAsTB1ZQTi1DSUUxGjAYBgNVBAMTEXR1bm5lbC5w
aXhnbG8uY29tMRwwGgYDVQQpExNCYWxhIENoYW5kcmFzZWthcmFuMR4wHAYJKoZI
hvcNAQkBFg9iYWxhQHBpeGdsby5jb20wHhcNMTgwMjE0MDYzNjM5WhcNMjgwMjEy
MDYzNjM5WjCBqTELMAkGA1UEBhMCVVMxCzAJBgNVBAgTAkNBMRUwEwYDVQQHEwxT
YW5GcmFuY2lzY28xFTATBgNVBAoTDFBpeGdsbywgSW5jLjEQMA4GA1UECxMHVlBO
LUNJRTEPMA0GA1UEAxMGY2llNTQwMRwwGgYDVQQpExNCYWxhIENoYW5kcmFzZWth
cmFuMR4wHAYJKoZIhvcNAQkBFg9iYWxhQHBpeGdsby5jb20wggIiMA0GCSqGSIb3
DQEBAQUAA4ICDwAwggIKAoICAQDKiZ/bptLESYiiOpg0I9NVJVbbUPbIL9JdJLji
spbpUT5J8ivWW6khszdqDlTRtsfAyzDrxryTbcrf/4PeBo3W4abmNofcdcSw1tQY
sFO5UH61sCI99uTRNoBPdsvNsYDzuVrUuupad2L9cQVuu6QEPwXmbYOx6n6t9iE9
c163nYpNURq2vf7vQOIyo9Zcwkf65VsddIl3liEAiVIGO9L2JKoEVAbMrlWqXJFe
XvU7cWcZXM5IBD8QjbmkPBgGX6P4koz66/Dcr2ae2VqotRP0BojP/iHmVDF62odF
kReJO1BsET059KlNAxZ2gMDMKS59+LZgc4QD9bSon+ja6eaMOtnU3haOYa7RxGXf
n2k8YS+5Y4GppAybSBROQe/7ljpAM4MiNWh4+nsU4267j3iybpr4OwQeQ3LHxwnF
mvn+kMhBoYA/+eyxpILuRXO/OTRcMJIc239jjQ/tzcpTR3wRQhP9hOczcr6CyHsl
WMMfWk8+FN1q72tZJpCpb0Ld/5WBsqenu5UQgQ/qYaGaQELok6GViCC0vtFb6pXV
/vQHk279Ph15ntqPbUQ/Ahp1Q44wqHJGELvMMNuxT/gf1EDqV6LzhSoapZgMdPcd
E16WYDdjsq2KtrMZIKQaQgmrwclqgSTKoYLR53SpY9rXfrhQa7SFkpnSbeoazdLP
mtIkDQIDAQABo4IBazCCAWcwCQYDVR0TBAIwADAtBglghkgBhvhCAQ0EIBYeRWFz
eS1SU0EgR2VuZXJhdGVkIENlcnRpZmljYXRlMB0GA1UdDgQWBBQZaR8lLCvIi7Cp
oZiMfa58dnIGYzCB6QYDVR0jBIHhMIHegBTvOI0UUFinW02cF3L837msp1GwEKGB
uqSBtzCBtDELMAkGA1UEBhMCVVMxCzAJBgNVBAgTAkNBMRUwEwYDVQQHEwxTYW5G
cmFuY2lzY28xFTATBgNVBAoTDFBpeGdsbywgSW5jLjEQMA4GA1UECxMHVlBOLUNJ
RTEaMBgGA1UEAxMRdHVubmVsLnBpeGdsby5jb20xHDAaBgNVBCkTE0JhbGEgQ2hh
bmRyYXNla2FyYW4xHjAcBgkqhkiG9w0BCQEWD2JhbGFAcGl4Z2xvLmNvbYIJAKbb
xoOA5qB5MBMGA1UdJQQMMAoGCCsGAQUFBwMCMAsGA1UdDwQEAwIHgDANBgkqhkiG
9w0BAQUFAAOCAgEAiXfR9Ut2gzIhlbnl9fxoSAshbZ87rxXntSRVjqfxuonUlQWJ
JKyx+b9b1OXOnFgwy9yJQSgXuZ8dykW0iXvRYlv7r1Ea7YIjZK1DdSbC3Oc6Z1BL
DTyYqGvq12C6eg6a7DIxkNqBe9zbMjAleE8CsjB/e8ANqP2BpW1lBX/PLKxf9eB/
GWDoDTFjjYhGR8Re3g6qAi9NuZAei/d4XDQOg1lPYIZ3ahKUbtGtR5AyuEvHilc6
1Kdl3xW1l2OzDtVeXZBru76vXOEc/eOtRDwRh1Qv6pTjyJYGcyCdljxUsaidVy+N
uFUbCpIOtEMD+L3/6YkNJKDdXLAkJP54BorAeaau43OcTJ7csoenjwTaSDQsAf/x
9+U5rR7Hrt91rYY3RyuefqX2FtObR24Rwe0kemhsG02Kqv6OcBt2LCHFUBA3Jtch
pZ7U/ivi3yn/VPIGpxCZ1apQ5te8vYKp5+RJQwYGQEbiNbCdRrVeMXjy+BfEy2NF
RynKQEk/CzfFMO/Z9qZmYlJ5aBufJwgQ8H6hU1/aHxy0lYZtNVyMeOX+QWmfHeTO
cZms8birf4tBbOzx4C+6V+w4wE5qI68+zrIcY7UvSymBGqkCjljKyx43aYp1lhS2
2rwjbXtUkhCIwuwMs4BFn3xFl3l4l3fyFD2+NP0J/jCpcoJHuxhXJKjWCEo=
-----END CERTIFICATE-----
