Certificate:
    Data:
        Version: 3 (0x2)
        Serial Number: 583 (0x247)
    Signature Algorithm: sha1WithRSAEncryption
        Issuer: C=US, ST=CA, L=SanFrancisco, O=Pixglo, Inc., OU=VPN-CIE, CN=tunnel.pixglo.com/name=Bala Chandrasekaran/emailAddress=bala@pixglo.com
        Validity
            Not Before: Feb 14 06:37:39 2018 GMT
            Not After : Feb 12 06:37:39 2028 GMT
        Subject: C=US, ST=CA, L=SanFrancisco, O=Pixglo, Inc., OU=VPN-CIE, CN=cie582/name=Bala Chandrasekaran/emailAddress=bala@pixglo.com
        Subject Public Key Info:
            Public Key Algorithm: rsaEncryption
                Public-Key: (4096 bit)
                Modulus:
                    00:c9:d0:26:45:16:95:57:29:90:df:2d:74:12:11:
                    96:ec:76:7f:e4:70:44:06:c9:14:19:97:8a:79:53:
                    4a:ff:e1:f2:67:fe:0d:0c:0b:b2:a9:c0:90:af:b3:
                    47:ad:74:6a:ea:ff:60:67:54:c8:20:00:8b:ca:a7:
                    3d:89:22:18:80:1b:ef:46:5b:e5:8f:41:e9:82:81:
                    ae:13:43:30:02:e6:09:fa:40:a9:20:9b:8d:9a:f1:
                    46:ef:df:65:54:8b:8e:90:6c:20:a5:f5:a0:b7:31:
                    29:1c:4d:ff:19:13:93:e5:42:fb:41:18:59:f9:d3:
                    09:4f:03:6f:74:21:0f:e6:65:cd:9a:39:62:1f:53:
                    6f:10:33:25:3c:ca:c8:4c:1a:b2:db:8d:76:a4:c5:
                    dc:28:29:c8:64:ac:90:50:54:41:f1:11:37:26:1f:
                    1b:d8:b1:76:41:88:96:aa:4a:36:87:4c:46:49:0a:
                    ef:df:9c:1f:3e:51:bb:78:c0:67:f0:3d:d9:11:58:
                    6a:b3:5b:76:a9:51:d7:1c:cb:e6:4f:89:de:2c:de:
                    fc:08:c8:08:f7:f7:cb:35:c4:c0:af:51:1b:07:47:
                    c1:77:b1:f6:3e:6b:9e:92:04:84:82:85:14:27:44:
                    e6:4e:49:a7:f3:3a:01:1f:c0:f4:16:6c:26:1b:75:
                    37:11:4d:4a:cf:63:c3:25:6f:a2:a5:26:f9:5e:08:
                    d3:f9:6e:7b:cb:d9:71:9e:e1:ac:5d:c6:07:31:e5:
                    29:22:7c:2a:d2:37:29:0d:2d:76:18:d6:87:60:90:
                    44:e3:11:14:06:7a:9a:0d:34:97:f1:73:9c:45:ec:
                    0d:82:b1:14:2c:ff:6c:ae:05:46:47:5e:b8:24:cf:
                    a4:9e:7c:15:48:f4:79:e7:93:1e:a9:8c:bf:ff:1f:
                    ed:17:0b:68:9b:50:2c:cc:9e:f3:ac:90:66:e9:2a:
                    9a:ce:56:18:6c:c2:34:1a:d4:bc:05:e1:56:5b:92:
                    8d:7c:3c:8f:0f:83:07:64:7b:58:29:c5:92:f8:6f:
                    dc:72:9f:32:4c:33:ae:ea:da:f7:bb:4b:6d:8a:5a:
                    41:c5:38:e6:ad:48:60:7b:34:b4:a8:fd:3c:d4:cf:
                    9d:06:bf:11:9f:d2:2b:22:b3:b4:08:3b:13:c3:95:
                    77:97:59:9a:23:3f:d8:97:1c:f9:c6:26:13:9a:6c:
                    62:fd:7a:f5:f4:8a:0f:f6:16:6d:2f:f5:3d:e5:84:
                    f6:b0:87:21:9a:cd:7e:bd:37:79:0f:b6:f3:ae:14:
                    77:12:3a:0b:57:ab:53:a0:a0:f4:8e:95:7b:b7:9e:
                    7b:5d:6c:b9:91:65:59:23:cc:02:46:7b:0f:83:fb:
                    eb:7b:e9
                Exponent: 65537 (0x10001)
        X509v3 extensions:
            X509v3 Basic Constraints: 
                CA:FALSE
            Netscape Comment: 
                Easy-RSA Generated Certificate
            X509v3 Subject Key Identifier: 
                35:8F:1F:93:A7:09:55:64:3E:09:C0:EA:74:26:40:45:7F:87:D4:F6
            X509v3 Authority Key Identifier: 
                keyid:EF:38:8D:14:50:58:A7:5B:4D:9C:17:72:FC:DF:B9:AC:A7:51:B0:10
                DirName:/C=US/ST=CA/L=SanFrancisco/O=Pixglo, Inc./OU=VPN-CIE/CN=tunnel.pixglo.com/name=Bala Chandrasekaran/emailAddress=bala@pixglo.com
                serial:A6:DB:C6:83:80:E6:A0:79

            X509v3 Extended Key Usage: 
                TLS Web Client Authentication
            X509v3 Key Usage: 
                Digital Signature
    Signature Algorithm: sha1WithRSAEncryption
         68:6b:7b:29:50:23:e1:04:0f:fd:7c:d4:57:a2:54:a2:f8:90:
         b8:85:ba:b9:7a:f6:be:bc:1b:b8:e8:86:16:61:2c:02:cf:90:
         f8:d8:66:ee:e8:3a:1a:32:31:16:07:35:2c:93:04:5d:07:73:
         ad:97:ad:84:40:01:08:33:49:c4:f5:fd:8d:95:5a:68:f3:fb:
         70:86:2c:41:64:40:10:3b:6f:8f:72:17:46:21:bd:ef:47:3a:
         c7:96:b4:a6:63:ac:d6:c1:3a:ff:a3:18:6e:67:60:ec:e4:41:
         a8:b8:12:c8:4a:e7:a2:ac:02:18:4b:fe:2a:9f:6a:00:ff:ba:
         9d:a2:f5:2f:34:6b:fc:9c:fe:c0:71:03:a1:25:a8:1a:83:5c:
         1d:c0:b6:b8:b9:f8:d8:70:fe:98:c3:22:b6:3b:bb:cc:02:6a:
         79:a4:0e:c7:45:84:f2:c6:46:f8:16:4d:fb:81:b0:c8:ef:5a:
         ec:9f:a2:59:ba:03:eb:54:c9:7a:b3:2c:e0:d9:7e:fb:fc:9b:
         38:ff:9c:d0:e0:55:b0:13:3c:1f:f9:0e:f1:dc:59:96:09:51:
         2e:b0:14:b7:eb:ff:e0:9c:20:89:38:da:5f:97:61:cf:ea:eb:
         66:5e:c8:c4:48:13:a4:df:e7:e4:c7:f6:e3:e1:e2:bf:72:9e:
         08:38:e5:96:01:81:53:7e:48:07:b5:01:fa:e4:fd:bf:46:05:
         e7:c0:da:bd:85:7c:8c:3e:fd:a3:1b:55:80:43:67:a1:fe:62:
         a0:73:b4:29:a4:ff:15:18:34:db:b7:4e:93:ba:90:65:28:51:
         e4:81:ae:a0:1e:3e:55:e1:4d:96:72:8b:93:0c:34:d8:88:7e:
         b0:e0:83:3e:0d:70:07:96:15:92:93:22:37:be:b8:35:a9:8c:
         64:36:b5:e0:b5:bd:14:65:fa:06:8b:7c:19:d1:0e:24:fc:74:
         5a:3f:67:3c:fb:86:35:e1:22:43:15:69:c6:dc:fa:69:2d:dc:
         d5:8f:99:e3:17:01:f9:c3:4a:47:b5:f9:f8:e0:38:f4:2e:fc:
         e4:c1:ba:7e:9c:d2:a4:cb:d8:0f:e5:db:3d:04:2b:f9:61:64:
         8c:a9:ba:d0:5f:95:7d:ff:e1:45:2f:95:ed:f4:c0:23:75:75:
         bb:6e:9c:75:7f:ea:08:a1:3f:c1:91:4a:09:f8:3c:9b:f5:36:
         01:95:a7:51:a4:f3:da:ba:0f:31:34:ae:03:3a:00:74:53:5e:
         48:f6:65:d9:22:fc:ec:71:6c:02:3b:c9:0a:9e:7d:f3:1c:34:
         fc:f3:7a:08:1c:9f:e0:a6:12:1f:99:16:5f:59:26:93:14:5f:
         b8:97:be:42:4a:d7:d8:38
-----BEGIN CERTIFICATE-----
MIIHSDCCBTCgAwIBAgICAkcwDQYJKoZIhvcNAQEFBQAwgbQxCzAJBgNVBAYTAlVT
MQswCQYDVQQIEwJDQTEVMBMGA1UEBxMMU2FuRnJhbmNpc2NvMRUwEwYDVQQKEwxQ
aXhnbG8sIEluYy4xEDAOBgNVBAsTB1ZQTi1DSUUxGjAYBgNVBAMTEXR1bm5lbC5w
aXhnbG8uY29tMRwwGgYDVQQpExNCYWxhIENoYW5kcmFzZWthcmFuMR4wHAYJKoZI
hvcNAQkBFg9iYWxhQHBpeGdsby5jb20wHhcNMTgwMjE0MDYzNzM5WhcNMjgwMjEy
MDYzNzM5WjCBqTELMAkGA1UEBhMCVVMxCzAJBgNVBAgTAkNBMRUwEwYDVQQHEwxT
YW5GcmFuY2lzY28xFTATBgNVBAoTDFBpeGdsbywgSW5jLjEQMA4GA1UECxMHVlBO
LUNJRTEPMA0GA1UEAxMGY2llNTgyMRwwGgYDVQQpExNCYWxhIENoYW5kcmFzZWth
cmFuMR4wHAYJKoZIhvcNAQkBFg9iYWxhQHBpeGdsby5jb20wggIiMA0GCSqGSIb3
DQEBAQUAA4ICDwAwggIKAoICAQDJ0CZFFpVXKZDfLXQSEZbsdn/kcEQGyRQZl4p5
U0r/4fJn/g0MC7KpwJCvs0etdGrq/2BnVMggAIvKpz2JIhiAG+9GW+WPQemCga4T
QzAC5gn6QKkgm42a8Ubv32VUi46QbCCl9aC3MSkcTf8ZE5PlQvtBGFn50wlPA290
IQ/mZc2aOWIfU28QMyU8yshMGrLbjXakxdwoKchkrJBQVEHxETcmHxvYsXZBiJaq
SjaHTEZJCu/fnB8+Ubt4wGfwPdkRWGqzW3apUdccy+ZPid4s3vwIyAj398s1xMCv
URsHR8F3sfY+a56SBISChRQnROZOSafzOgEfwPQWbCYbdTcRTUrPY8Mlb6KlJvle
CNP5bnvL2XGe4axdxgcx5SkifCrSNykNLXYY1odgkETjERQGepoNNJfxc5xF7A2C
sRQs/2yuBUZHXrgkz6SefBVI9Hnnkx6pjL//H+0XC2ibUCzMnvOskGbpKprOVhhs
wjQa1LwF4VZbko18PI8Pgwdke1gpxZL4b9xynzJMM67q2ve7S22KWkHFOOatSGB7
NLSo/TzUz50GvxGf0isis7QIOxPDlXeXWZojP9iXHPnGJhOabGL9evX0ig/2Fm0v
9T3lhPawhyGazX69N3kPtvOuFHcSOgtXq1OgoPSOlXu3nntdbLmRZVkjzAJGew+D
++t76QIDAQABo4IBazCCAWcwCQYDVR0TBAIwADAtBglghkgBhvhCAQ0EIBYeRWFz
eS1SU0EgR2VuZXJhdGVkIENlcnRpZmljYXRlMB0GA1UdDgQWBBQ1jx+TpwlVZD4J
wOp0JkBFf4fU9jCB6QYDVR0jBIHhMIHegBTvOI0UUFinW02cF3L837msp1GwEKGB
uqSBtzCBtDELMAkGA1UEBhMCVVMxCzAJBgNVBAgTAkNBMRUwEwYDVQQHEwxTYW5G
cmFuY2lzY28xFTATBgNVBAoTDFBpeGdsbywgSW5jLjEQMA4GA1UECxMHVlBOLUNJ
RTEaMBgGA1UEAxMRdHVubmVsLnBpeGdsby5jb20xHDAaBgNVBCkTE0JhbGEgQ2hh
bmRyYXNla2FyYW4xHjAcBgkqhkiG9w0BCQEWD2JhbGFAcGl4Z2xvLmNvbYIJAKbb
xoOA5qB5MBMGA1UdJQQMMAoGCCsGAQUFBwMCMAsGA1UdDwQEAwIHgDANBgkqhkiG
9w0BAQUFAAOCAgEAaGt7KVAj4QQP/XzUV6JUoviQuIW6uXr2vrwbuOiGFmEsAs+Q
+Nhm7ug6GjIxFgc1LJMEXQdzrZethEABCDNJxPX9jZVaaPP7cIYsQWRAEDtvj3IX
RiG970c6x5a0pmOs1sE6/6MYbmdg7ORBqLgSyErnoqwCGEv+Kp9qAP+6naL1LzRr
/Jz+wHEDoSWoGoNcHcC2uLn42HD+mMMitju7zAJqeaQOx0WE8sZG+BZN+4GwyO9a
7J+iWboD61TJerMs4Nl++/ybOP+c0OBVsBM8H/kO8dxZlglRLrAUt+v/4JwgiTja
X5dhz+rrZl7IxEgTpN/n5Mf24+Hiv3KeCDjllgGBU35IB7UB+uT9v0YF58DavYV8
jD79oxtVgENnof5ioHO0KaT/FRg027dOk7qQZShR5IGuoB4+VeFNlnKLkww02Ih+
sOCDPg1wB5YVkpMiN764NamMZDa14LW9FGX6Bot8GdEOJPx0Wj9nPPuGNeEiQxVp
xtz6aS3c1Y+Z4xcB+cNKR7X5+OA49C785MG6fpzSpMvYD+XbPQQr+WFkjKm60F+V
ff/hRS+V7fTAI3V1u26cdX/qCKE/wZFKCfg8m/U2AZWnUaTz2roPMTSuAzoAdFNe
SPZl2SL87HFsAjvJCp598xw0/PN6CByf4KYSH5kWX1kmkxRfuJe+QkrX2Dg=
-----END CERTIFICATE-----
