Certificate:
    Data:
        Version: 3 (0x2)
        Serial Number: 516 (0x204)
    Signature Algorithm: sha1WithRSAEncryption
        Issuer: C=US, ST=CA, L=SanFrancisco, O=Pixglo, Inc., OU=VPN-CIE, CN=tunnel.pixglo.com/name=Bala Chandrasekaran/emailAddress=bala@pixglo.com
        Validity
            Not Before: Feb 14 06:36:04 2018 GMT
            Not After : Feb 12 06:36:04 2028 GMT
        Subject: C=US, ST=CA, L=SanFrancisco, O=Pixglo, Inc., OU=VPN-CIE, CN=cie515/name=Bala Chandrasekaran/emailAddress=bala@pixglo.com
        Subject Public Key Info:
            Public Key Algorithm: rsaEncryption
                Public-Key: (4096 bit)
                Modulus:
                    00:ca:59:4a:98:5d:99:79:d8:ea:ed:8c:de:0c:c4:
                    85:b0:6e:78:9e:f5:fa:2e:d5:56:7b:0e:cc:06:da:
                    f0:3e:f3:24:64:81:bd:02:2d:cd:95:f2:c7:c5:5a:
                    c7:05:3c:e5:23:fc:5e:58:37:cd:b9:0a:60:4d:1a:
                    10:10:c1:6e:cc:83:6c:d0:3f:75:be:d8:a2:77:9a:
                    fb:fa:79:03:42:c6:37:83:94:fb:13:bd:d2:4e:05:
                    09:56:0d:0a:8f:02:ce:16:69:b7:26:e8:cb:59:f0:
                    86:2b:af:93:70:cb:9f:10:44:7c:ab:67:8f:ce:a7:
                    3d:96:82:da:35:fb:20:33:28:b2:ea:7f:87:95:30:
                    ab:81:96:20:67:5a:d8:b1:cc:9b:a9:41:fb:90:86:
                    63:fd:ad:fb:16:15:2c:9e:d0:18:d9:57:e5:76:83:
                    32:8a:10:6e:ca:ed:50:ed:0c:02:98:a1:e5:98:9d:
                    c9:fe:1c:61:4d:0a:a1:f4:69:61:7e:e7:12:ce:06:
                    f5:2b:c1:f1:85:7d:cd:88:69:a2:ff:25:fe:e9:06:
                    13:a7:b7:3a:7d:75:1b:69:c8:b8:d3:e8:36:77:0a:
                    5e:c8:05:f0:10:98:e1:f1:fd:7a:cd:aa:c5:78:c4:
                    82:76:96:5a:d5:ec:1d:da:7e:9e:df:e2:b3:d1:88:
                    4c:fd:ad:1d:5e:d4:b8:cd:63:dc:f3:8b:c6:80:31:
                    a6:e6:59:f2:98:9b:61:8a:c9:ae:dd:00:62:bf:b3:
                    2f:cb:2e:b1:1c:04:1b:54:33:0a:ea:87:4e:8c:17:
                    b4:57:4e:71:67:64:a3:95:32:65:84:e2:12:01:90:
                    5e:18:8b:14:3e:21:f8:aa:ab:d0:bc:be:f0:65:dd:
                    40:3d:b3:1c:fa:a6:d1:24:9e:47:3a:5c:2f:44:ff:
                    eb:9f:91:09:12:4d:c8:06:d7:7d:b2:81:18:a3:af:
                    ee:86:e8:f1:04:5f:dd:e0:09:ba:3b:cc:86:19:9d:
                    a5:5e:ca:fe:ea:4e:e5:bf:02:14:3a:2d:54:a1:1b:
                    5e:cc:79:5c:23:de:09:c9:c4:7c:fe:dc:20:c8:4b:
                    48:4b:48:89:14:23:31:5d:5e:25:17:6d:65:27:c9:
                    f6:0d:6c:ae:bc:53:0e:65:ee:53:48:5b:f1:f3:e4:
                    d1:51:41:ca:f0:df:e6:7c:4b:2b:7b:94:82:20:f3:
                    d2:10:07:c9:dc:ce:bf:00:9f:0a:c8:f4:b5:e9:d2:
                    8a:58:fc:18:6f:fa:85:57:fd:55:59:cf:da:a6:f6:
                    74:23:f0:c1:25:4f:5f:d4:f0:1d:c4:57:c0:2a:9a:
                    60:24:4b:d8:17:bb:df:cd:a0:f0:ca:32:9f:e0:a1:
                    84:b8:cf
                Exponent: 65537 (0x10001)
        X509v3 extensions:
            X509v3 Basic Constraints: 
                CA:FALSE
            Netscape Comment: 
                Easy-RSA Generated Certificate
            X509v3 Subject Key Identifier: 
                04:51:AE:FE:FA:0D:45:87:8D:AC:76:CA:51:F3:EF:7F:6F:AB:AF:74
            X509v3 Authority Key Identifier: 
                keyid:EF:38:8D:14:50:58:A7:5B:4D:9C:17:72:FC:DF:B9:AC:A7:51:B0:10
                DirName:/C=US/ST=CA/L=SanFrancisco/O=Pixglo, Inc./OU=VPN-CIE/CN=tunnel.pixglo.com/name=Bala Chandrasekaran/emailAddress=bala@pixglo.com
                serial:A6:DB:C6:83:80:E6:A0:79

            X509v3 Extended Key Usage: 
                TLS Web Client Authentication
            X509v3 Key Usage: 
                Digital Signature
    Signature Algorithm: sha1WithRSAEncryption
         03:99:36:61:90:04:94:f6:b7:6f:59:ad:bf:4e:93:d9:f0:29:
         13:11:39:4c:f4:0d:cf:45:82:82:66:51:ab:42:44:f5:e1:18:
         ac:d0:04:58:06:0e:b8:39:43:a3:8e:23:34:2e:2a:3a:e7:d8:
         93:9b:24:1a:ef:b7:73:a7:79:3f:bd:e4:11:9b:a8:5d:8e:37:
         44:d4:72:6b:d5:80:54:69:3a:9c:4b:af:eb:78:d1:42:96:95:
         a2:e2:b0:42:54:a9:ca:32:36:7f:3d:0b:63:9b:1a:d2:89:49:
         0a:8b:95:c5:20:e5:8b:51:f7:d0:e5:6d:0c:c6:86:33:ae:45:
         b8:4e:31:76:32:9b:09:ca:05:b8:0b:13:9f:91:33:dc:68:3a:
         96:d5:90:83:7a:b7:d1:7c:43:21:87:8f:3d:9d:10:05:d6:69:
         51:d8:fe:15:05:9a:cd:2c:4d:75:7c:25:0a:83:7b:fe:16:fe:
         eb:7a:19:cf:6f:f5:76:78:32:c6:30:60:fd:4b:0a:b3:95:05:
         4b:fc:fe:f3:80:09:56:d0:28:95:7e:2e:69:57:25:5d:f9:8d:
         2b:d1:bd:a4:cf:d5:b5:8f:e5:a5:61:c7:59:04:51:a2:76:42:
         97:bd:1a:39:47:79:7e:fc:f7:8d:90:3c:dc:a0:47:e1:c3:06:
         c9:1d:da:22:33:e6:85:27:68:ba:2a:80:f9:9c:42:8b:88:32:
         5e:ed:bf:17:8d:76:42:1e:af:5f:f0:96:3e:ea:f6:a0:7f:f7:
         8c:ea:90:18:70:f9:67:3d:23:f6:93:1f:0d:66:e6:11:65:bb:
         65:1f:e8:f8:4b:98:4d:64:9c:d9:eb:d0:bd:8a:cf:fe:f4:b2:
         ad:6d:e3:15:9c:80:fa:b3:88:67:66:3b:7b:12:26:0d:ba:66:
         96:d8:23:05:11:ba:ec:3b:62:1c:77:da:6b:bb:c1:72:41:2d:
         85:41:64:c7:36:bd:6f:ad:96:e3:54:99:be:de:65:2e:da:cc:
         9d:86:c1:9f:7b:4f:9a:98:07:c8:ce:fe:e3:ae:50:12:9e:77:
         42:b4:62:16:61:18:f4:cc:ca:c8:fb:2c:b2:22:96:3d:d4:53:
         27:3d:c8:45:36:03:cc:dc:b3:0e:81:a0:b6:e6:79:ef:5b:17:
         a3:11:06:97:7b:4a:61:c1:6d:4f:54:66:d9:4d:04:40:19:89:
         24:a1:3a:c9:04:b9:da:26:f8:09:75:33:47:47:a6:03:8b:6c:
         71:dc:53:07:52:3b:16:e5:74:c1:6d:74:2e:1a:51:3e:0d:50:
         39:7b:0a:39:d9:12:17:34:12:ab:2e:c9:a1:bc:74:b7:26:db:
         41:0d:e2:e0:42:81:e1:74
-----BEGIN CERTIFICATE-----
MIIHSDCCBTCgAwIBAgICAgQwDQYJKoZIhvcNAQEFBQAwgbQxCzAJBgNVBAYTAlVT
MQswCQYDVQQIEwJDQTEVMBMGA1UEBxMMU2FuRnJhbmNpc2NvMRUwEwYDVQQKEwxQ
aXhnbG8sIEluYy4xEDAOBgNVBAsTB1ZQTi1DSUUxGjAYBgNVBAMTEXR1bm5lbC5w
aXhnbG8uY29tMRwwGgYDVQQpExNCYWxhIENoYW5kcmFzZWthcmFuMR4wHAYJKoZI
hvcNAQkBFg9iYWxhQHBpeGdsby5jb20wHhcNMTgwMjE0MDYzNjA0WhcNMjgwMjEy
MDYzNjA0WjCBqTELMAkGA1UEBhMCVVMxCzAJBgNVBAgTAkNBMRUwEwYDVQQHEwxT
YW5GcmFuY2lzY28xFTATBgNVBAoTDFBpeGdsbywgSW5jLjEQMA4GA1UECxMHVlBO
LUNJRTEPMA0GA1UEAxMGY2llNTE1MRwwGgYDVQQpExNCYWxhIENoYW5kcmFzZWth
cmFuMR4wHAYJKoZIhvcNAQkBFg9iYWxhQHBpeGdsby5jb20wggIiMA0GCSqGSIb3
DQEBAQUAA4ICDwAwggIKAoICAQDKWUqYXZl52OrtjN4MxIWwbnie9fou1VZ7DswG
2vA+8yRkgb0CLc2V8sfFWscFPOUj/F5YN825CmBNGhAQwW7Mg2zQP3W+2KJ3mvv6
eQNCxjeDlPsTvdJOBQlWDQqPAs4Wabcm6MtZ8IYrr5Nwy58QRHyrZ4/Opz2Wgto1
+yAzKLLqf4eVMKuBliBnWtixzJupQfuQhmP9rfsWFSye0BjZV+V2gzKKEG7K7VDt
DAKYoeWYncn+HGFNCqH0aWF+5xLOBvUrwfGFfc2IaaL/Jf7pBhOntzp9dRtpyLjT
6DZ3Cl7IBfAQmOHx/XrNqsV4xIJ2llrV7B3afp7f4rPRiEz9rR1e1LjNY9zzi8aA
MabmWfKYm2GKya7dAGK/sy/LLrEcBBtUMwrqh06MF7RXTnFnZKOVMmWE4hIBkF4Y
ixQ+Ifiqq9C8vvBl3UA9sxz6ptEknkc6XC9E/+ufkQkSTcgG132ygRijr+6G6PEE
X93gCbo7zIYZnaVeyv7qTuW/AhQ6LVShG17MeVwj3gnJxHz+3CDIS0hLSIkUIzFd
XiUXbWUnyfYNbK68Uw5l7lNIW/Hz5NFRQcrw3+Z8Syt7lIIg89IQB8nczr8AnwrI
9LXp0opY/Bhv+oVX/VVZz9qm9nQj8MElT1/U8B3EV8AqmmAkS9gXu9/NoPDKMp/g
oYS4zwIDAQABo4IBazCCAWcwCQYDVR0TBAIwADAtBglghkgBhvhCAQ0EIBYeRWFz
eS1SU0EgR2VuZXJhdGVkIENlcnRpZmljYXRlMB0GA1UdDgQWBBQEUa7++g1Fh42s
dspR8+9/b6uvdDCB6QYDVR0jBIHhMIHegBTvOI0UUFinW02cF3L837msp1GwEKGB
uqSBtzCBtDELMAkGA1UEBhMCVVMxCzAJBgNVBAgTAkNBMRUwEwYDVQQHEwxTYW5G
cmFuY2lzY28xFTATBgNVBAoTDFBpeGdsbywgSW5jLjEQMA4GA1UECxMHVlBOLUNJ
RTEaMBgGA1UEAxMRdHVubmVsLnBpeGdsby5jb20xHDAaBgNVBCkTE0JhbGEgQ2hh
bmRyYXNla2FyYW4xHjAcBgkqhkiG9w0BCQEWD2JhbGFAcGl4Z2xvLmNvbYIJAKbb
xoOA5qB5MBMGA1UdJQQMMAoGCCsGAQUFBwMCMAsGA1UdDwQEAwIHgDANBgkqhkiG
9w0BAQUFAAOCAgEAA5k2YZAElPa3b1mtv06T2fApExE5TPQNz0WCgmZRq0JE9eEY
rNAEWAYOuDlDo44jNC4qOufYk5skGu+3c6d5P73kEZuoXY43RNRya9WAVGk6nEuv
63jRQpaVouKwQlSpyjI2fz0LY5sa0olJCouVxSDli1H30OVtDMaGM65FuE4xdjKb
CcoFuAsTn5Ez3Gg6ltWQg3q30XxDIYePPZ0QBdZpUdj+FQWazSxNdXwlCoN7/hb+
63oZz2/1dngyxjBg/UsKs5UFS/z+84AJVtAolX4uaVclXfmNK9G9pM/VtY/lpWHH
WQRRonZCl70aOUd5fvz3jZA83KBH4cMGyR3aIjPmhSdouiqA+ZxCi4gyXu2/F412
Qh6vX/CWPur2oH/3jOqQGHD5Zz0j9pMfDWbmEWW7ZR/o+EuYTWSc2evQvYrP/vSy
rW3jFZyA+rOIZ2Y7exImDbpmltgjBRG67DtiHHfaa7vBckEthUFkxza9b62W41SZ
vt5lLtrMnYbBn3tPmpgHyM7+465QEp53QrRiFmEY9MzKyPsssiKWPdRTJz3IRTYD
zNyzDoGgtuZ571sXoxEGl3tKYcFtT1Rm2U0EQBmJJKE6yQS52ib4CXUzR0emA4ts
cdxTB1I7FuV0wW10LhpRPg1QOXsKOdkSFzQSqy7Jobx0tybbQQ3i4EKB4XQ=
-----END CERTIFICATE-----
