Certificate:
    Data:
        Version: 3 (0x2)
        Serial Number: 550 (0x226)
    Signature Algorithm: sha1WithRSAEncryption
        Issuer: C=US, ST=CA, L=SanFrancisco, O=Pixglo, Inc., OU=VPN-CIE, CN=tunnel.pixglo.com/name=Bala Chandrasekaran/emailAddress=bala@pixglo.com
        Validity
            Not Before: Feb 14 06:36:54 2018 GMT
            Not After : Feb 12 06:36:54 2028 GMT
        Subject: C=US, ST=CA, L=SanFrancisco, O=Pixglo, Inc., OU=VPN-CIE, CN=cie549/name=Bala Chandrasekaran/emailAddress=bala@pixglo.com
        Subject Public Key Info:
            Public Key Algorithm: rsaEncryption
                Public-Key: (4096 bit)
                Modulus:
                    00:ce:c5:79:84:92:f6:10:00:c9:b9:32:fe:11:72:
                    8f:a2:fe:97:b3:74:26:5e:27:b2:35:1d:9f:ce:ec:
                    21:6f:36:45:bb:01:22:90:8e:2e:0d:19:c6:49:7b:
                    96:4a:e7:a8:12:7d:3d:9f:2c:40:5e:22:c7:f7:df:
                    b6:0f:27:d5:6d:37:74:0f:a0:47:ee:21:99:9f:29:
                    31:da:86:f6:de:c5:ca:96:2b:fd:e9:60:dc:56:5a:
                    12:e0:63:84:d0:54:8a:27:17:98:11:88:02:bf:02:
                    84:9b:f7:94:a8:1c:ef:7f:fe:86:8c:df:bf:92:71:
                    12:f9:87:66:85:10:cd:e5:15:e8:5c:4b:16:24:51:
                    24:e0:df:d4:00:e9:67:8b:1d:33:52:fb:f3:c2:16:
                    c1:66:0f:56:02:68:f7:75:35:3b:c1:a8:79:08:29:
                    ea:91:e2:88:4f:2c:1f:cb:aa:0b:f8:c1:ef:f5:10:
                    22:0f:28:2f:66:82:80:f4:fc:b5:8c:72:2a:21:b1:
                    91:91:20:94:cb:aa:f5:55:82:76:c0:ad:20:a8:22:
                    ac:bd:10:48:c4:87:54:dd:02:54:76:91:04:55:10:
                    33:79:63:d5:40:ff:62:92:f2:a0:39:e5:1a:af:86:
                    ce:55:a0:b0:ac:85:48:61:88:c6:11:2a:df:bf:7a:
                    a7:74:fd:ca:a2:4d:e8:11:0c:e7:81:23:62:54:75:
                    3b:a2:2d:0d:0e:5d:f9:56:40:9e:49:2c:82:6a:72:
                    60:3b:1f:ab:59:13:45:c9:5c:21:70:df:ff:c7:bc:
                    d6:36:9a:2f:ac:65:bb:17:a3:3d:96:fb:eb:22:09:
                    f1:82:19:17:9d:ef:38:1f:7f:ce:81:87:e0:1b:ac:
                    ed:b1:7e:24:c3:0a:c7:fe:2d:72:ff:17:21:18:49:
                    3d:c4:02:93:85:6c:f4:28:74:33:73:81:83:14:d6:
                    18:01:79:22:c0:56:59:a6:e9:14:ca:11:db:48:10:
                    19:34:a9:d9:d0:00:54:15:b0:ac:b2:3e:00:cf:51:
                    fc:9d:08:63:24:64:37:7c:b2:cf:46:89:73:e6:21:
                    5b:87:a5:5e:36:a5:11:63:af:2d:fe:09:fc:fb:97:
                    01:1c:ea:2e:ab:be:9b:f6:c6:1d:04:73:e3:9a:dd:
                    0c:7e:6a:ba:84:a2:e9:6c:cb:96:bc:d3:4f:fb:18:
                    61:21:08:d7:39:a3:7d:b0:4c:2e:b4:a2:33:dd:07:
                    96:8a:97:5d:4d:b2:d7:0e:2b:c5:cc:d6:5b:1e:2d:
                    23:11:70:93:04:92:d2:a4:84:0e:aa:64:c3:aa:63:
                    f9:09:e5:5b:18:fe:2e:91:a1:a7:12:13:d8:20:c5:
                    a8:48:c5
                Exponent: 65537 (0x10001)
        X509v3 extensions:
            X509v3 Basic Constraints: 
                CA:FALSE
            Netscape Comment: 
                Easy-RSA Generated Certificate
            X509v3 Subject Key Identifier: 
                05:C8:88:19:37:C3:A9:D3:A5:84:24:EE:98:B0:19:0E:3D:7B:B1:AF
            X509v3 Authority Key Identifier: 
                keyid:EF:38:8D:14:50:58:A7:5B:4D:9C:17:72:FC:DF:B9:AC:A7:51:B0:10
                DirName:/C=US/ST=CA/L=SanFrancisco/O=Pixglo, Inc./OU=VPN-CIE/CN=tunnel.pixglo.com/name=Bala Chandrasekaran/emailAddress=bala@pixglo.com
                serial:A6:DB:C6:83:80:E6:A0:79

            X509v3 Extended Key Usage: 
                TLS Web Client Authentication
            X509v3 Key Usage: 
                Digital Signature
    Signature Algorithm: sha1WithRSAEncryption
         93:c0:7f:cc:9f:b0:2b:94:dc:b2:0b:63:29:24:56:45:e5:ce:
         84:13:6a:04:8f:43:7b:fc:dd:e6:9b:a0:d6:00:6f:3c:ac:e9:
         fd:aa:c4:f9:0d:18:46:1b:54:f3:83:b6:0c:d9:36:4f:b9:63:
         70:ef:f4:3b:91:f8:d8:40:51:cb:69:a7:39:ff:fb:2c:2e:55:
         6f:4e:c4:fe:86:a5:29:a3:0f:34:b4:db:92:04:f1:b4:63:c4:
         68:f7:6b:af:24:30:4a:0e:f2:b8:fa:c0:c8:d8:ba:fc:7f:67:
         a5:a5:55:4e:da:0b:66:d4:5a:02:5b:e9:cd:07:f7:46:0c:75:
         b9:29:f4:78:81:92:2b:5c:d6:02:4e:bb:bf:01:78:9e:49:5b:
         71:b9:6f:45:93:a2:ad:e5:2f:eb:41:e5:7f:99:12:c3:ea:fa:
         0a:bd:c6:85:55:59:b4:9b:c8:05:9e:15:09:d9:a6:d2:88:00:
         6e:41:dc:ab:bd:eb:d7:89:3e:cf:7d:d3:ce:93:44:ed:5c:e4:
         33:68:50:c3:17:9c:bd:6e:d3:61:a3:88:88:36:c8:e5:5f:f8:
         37:10:20:40:37:4a:31:1a:ef:32:cc:32:dc:e8:40:57:35:36:
         05:65:0c:62:2c:dc:8a:a5:bd:a7:b1:84:45:39:4f:59:32:1e:
         6e:db:d2:7f:11:13:0d:a9:9e:37:11:0e:a9:3d:c9:93:50:9c:
         30:59:a4:7c:f9:34:0c:74:26:10:47:42:39:b1:b1:8d:c5:f1:
         84:58:35:bd:da:03:9e:a0:b2:17:e9:2e:23:f5:2a:69:4d:f5:
         ed:9f:98:5a:72:05:92:61:9a:19:3f:99:a3:58:f2:3d:24:ff:
         bd:b7:a6:0e:d6:3f:a8:ec:7e:75:af:e2:20:f4:09:68:d6:b3:
         4f:2c:af:02:1f:97:55:72:70:14:ff:09:91:1d:87:3a:eb:6f:
         a6:f8:c7:a7:eb:f4:e3:9c:88:df:c9:2d:24:3a:0a:f9:b6:35:
         7f:21:1d:54:be:e6:9b:7c:84:ca:59:ab:b7:81:4d:e8:a4:51:
         82:0f:7a:8c:b2:3b:08:46:5b:6c:34:b0:db:28:70:3e:65:2a:
         8b:eb:64:c3:8e:c8:c1:94:b5:c7:64:68:a2:db:39:67:96:d6:
         07:e7:0c:58:3d:85:1d:ef:62:02:dc:92:e8:ac:a7:dc:23:4f:
         8b:aa:77:e4:0a:ff:17:e6:cb:7d:1e:2e:89:19:40:db:2d:2e:
         d8:99:77:fc:4c:db:d9:c0:cd:17:05:81:8e:b3:a8:b2:23:4e:
         00:53:68:68:6c:45:94:6e:30:61:d6:ed:ab:97:0a:f5:28:30:
         87:e2:b6:5c:e3:35:6f:65
-----BEGIN CERTIFICATE-----
MIIHSDCCBTCgAwIBAgICAiYwDQYJKoZIhvcNAQEFBQAwgbQxCzAJBgNVBAYTAlVT
MQswCQYDVQQIEwJDQTEVMBMGA1UEBxMMU2FuRnJhbmNpc2NvMRUwEwYDVQQKEwxQ
aXhnbG8sIEluYy4xEDAOBgNVBAsTB1ZQTi1DSUUxGjAYBgNVBAMTEXR1bm5lbC5w
aXhnbG8uY29tMRwwGgYDVQQpExNCYWxhIENoYW5kcmFzZWthcmFuMR4wHAYJKoZI
hvcNAQkBFg9iYWxhQHBpeGdsby5jb20wHhcNMTgwMjE0MDYzNjU0WhcNMjgwMjEy
MDYzNjU0WjCBqTELMAkGA1UEBhMCVVMxCzAJBgNVBAgTAkNBMRUwEwYDVQQHEwxT
YW5GcmFuY2lzY28xFTATBgNVBAoTDFBpeGdsbywgSW5jLjEQMA4GA1UECxMHVlBO
LUNJRTEPMA0GA1UEAxMGY2llNTQ5MRwwGgYDVQQpExNCYWxhIENoYW5kcmFzZWth
cmFuMR4wHAYJKoZIhvcNAQkBFg9iYWxhQHBpeGdsby5jb20wggIiMA0GCSqGSIb3
DQEBAQUAA4ICDwAwggIKAoICAQDOxXmEkvYQAMm5Mv4Rco+i/pezdCZeJ7I1HZ/O
7CFvNkW7ASKQji4NGcZJe5ZK56gSfT2fLEBeIsf337YPJ9VtN3QPoEfuIZmfKTHa
hvbexcqWK/3pYNxWWhLgY4TQVIonF5gRiAK/AoSb95SoHO9//oaM37+ScRL5h2aF
EM3lFehcSxYkUSTg39QA6WeLHTNS+/PCFsFmD1YCaPd1NTvBqHkIKeqR4ohPLB/L
qgv4we/1ECIPKC9mgoD0/LWMciohsZGRIJTLqvVVgnbArSCoIqy9EEjEh1TdAlR2
kQRVEDN5Y9VA/2KS8qA55Rqvhs5VoLCshUhhiMYRKt+/eqd0/cqiTegRDOeBI2JU
dTuiLQ0OXflWQJ5JLIJqcmA7H6tZE0XJXCFw3//HvNY2mi+sZbsXoz2W++siCfGC
GRed7zgff86Bh+AbrO2xfiTDCsf+LXL/FyEYST3EApOFbPQodDNzgYMU1hgBeSLA
Vlmm6RTKEdtIEBk0qdnQAFQVsKyyPgDPUfydCGMkZDd8ss9GiXPmIVuHpV42pRFj
ry3+Cfz7lwEc6i6rvpv2xh0Ec+Oa3Qx+arqEoulsy5a800/7GGEhCNc5o32wTC60
ojPdB5aKl11NstcOK8XM1lseLSMRcJMEktKkhA6qZMOqY/kJ5VsY/i6RoacSE9gg
xahIxQIDAQABo4IBazCCAWcwCQYDVR0TBAIwADAtBglghkgBhvhCAQ0EIBYeRWFz
eS1SU0EgR2VuZXJhdGVkIENlcnRpZmljYXRlMB0GA1UdDgQWBBQFyIgZN8Op06WE
JO6YsBkOPXuxrzCB6QYDVR0jBIHhMIHegBTvOI0UUFinW02cF3L837msp1GwEKGB
uqSBtzCBtDELMAkGA1UEBhMCVVMxCzAJBgNVBAgTAkNBMRUwEwYDVQQHEwxTYW5G
cmFuY2lzY28xFTATBgNVBAoTDFBpeGdsbywgSW5jLjEQMA4GA1UECxMHVlBOLUNJ
RTEaMBgGA1UEAxMRdHVubmVsLnBpeGdsby5jb20xHDAaBgNVBCkTE0JhbGEgQ2hh
bmRyYXNla2FyYW4xHjAcBgkqhkiG9w0BCQEWD2JhbGFAcGl4Z2xvLmNvbYIJAKbb
xoOA5qB5MBMGA1UdJQQMMAoGCCsGAQUFBwMCMAsGA1UdDwQEAwIHgDANBgkqhkiG
9w0BAQUFAAOCAgEAk8B/zJ+wK5TcsgtjKSRWReXOhBNqBI9De/zd5pug1gBvPKzp
/arE+Q0YRhtU84O2DNk2T7ljcO/0O5H42EBRy2mnOf/7LC5Vb07E/oalKaMPNLTb
kgTxtGPEaPdrryQwSg7yuPrAyNi6/H9npaVVTtoLZtRaAlvpzQf3Rgx1uSn0eIGS
K1zWAk67vwF4nklbcblvRZOireUv60Hlf5kSw+r6Cr3GhVVZtJvIBZ4VCdmm0ogA
bkHcq73r14k+z33TzpNE7VzkM2hQwxecvW7TYaOIiDbI5V/4NxAgQDdKMRrvMswy
3OhAVzU2BWUMYizciqW9p7GERTlPWTIebtvSfxETDameNxEOqT3Jk1CcMFmkfPk0
DHQmEEdCObGxjcXxhFg1vdoDnqCyF+kuI/UqaU317Z+YWnIFkmGaGT+Zo1jyPST/
vbemDtY/qOx+da/iIPQJaNazTyyvAh+XVXJwFP8JkR2HOutvpvjHp+v045yI38kt
JDoK+bY1fyEdVL7mm3yEylmrt4FN6KRRgg96jLI7CEZbbDSw2yhwPmUqi+tkw47I
wZS1x2Roots5Z5bWB+cMWD2FHe9iAtyS6Kyn3CNPi6p35Ar/F+bLfR4uiRlA2y0u
2Jl3/Ezb2cDNFwWBjrOosiNOAFNoaGxFlG4wYdbtq5cK9Sgwh+K2XOM1b2U=
-----END CERTIFICATE-----
