Certificate:
    Data:
        Version: 3 (0x2)
        Serial Number: 564 (0x234)
    Signature Algorithm: sha1WithRSAEncryption
        Issuer: C=US, ST=CA, L=SanFrancisco, O=Pixglo, Inc., OU=VPN-CIE, CN=tunnel.pixglo.com/name=Bala Chandrasekaran/emailAddress=bala@pixglo.com
        Validity
            Not Before: Feb 14 06:37:15 2018 GMT
            Not After : Feb 12 06:37:15 2028 GMT
        Subject: C=US, ST=CA, L=SanFrancisco, O=Pixglo, Inc., OU=VPN-CIE, CN=cie563/name=Bala Chandrasekaran/emailAddress=bala@pixglo.com
        Subject Public Key Info:
            Public Key Algorithm: rsaEncryption
                Public-Key: (4096 bit)
                Modulus:
                    00:af:64:01:9d:13:5b:cc:71:9d:fa:64:a1:42:3b:
                    ca:bf:7d:be:6c:b6:f1:2e:6a:b7:51:9d:74:e4:58:
                    f1:f5:76:69:b7:b1:21:30:ec:c1:1e:83:7b:46:5a:
                    70:08:7a:56:58:80:a6:85:75:5d:6d:a3:89:59:f7:
                    59:8f:66:2a:56:54:c8:f5:98:85:d5:9f:a5:35:3b:
                    46:c4:25:e5:27:ac:66:ac:54:4b:84:97:71:f7:ed:
                    7c:45:e9:bf:d5:24:d8:57:bd:3c:f1:cd:f9:2f:3f:
                    3c:95:70:49:f9:7c:bb:c3:8e:7e:bd:48:57:16:86:
                    48:4b:52:7e:f5:c9:6a:2d:98:65:46:ee:20:b3:80:
                    d2:28:ba:2d:0d:b9:f5:c0:12:d0:d3:78:a5:d0:1b:
                    09:0e:60:ae:11:21:d2:e5:48:74:f4:e5:30:b9:c6:
                    80:ac:2f:73:ea:e9:5e:7c:e0:68:f9:bc:1d:34:96:
                    de:9d:6c:d6:5c:23:7d:7d:92:71:48:b9:6f:1b:a4:
                    06:69:8d:24:0a:6b:0b:03:30:99:ab:15:75:da:f9:
                    aa:c4:fd:a0:99:5d:43:00:95:c5:31:98:16:ec:08:
                    6c:5c:36:c7:e8:f2:84:e9:1b:75:e1:e2:26:99:44:
                    45:9d:23:5e:18:64:49:21:bc:54:7e:08:6f:28:5b:
                    c1:35:89:86:45:d6:37:ce:6e:b2:b0:2f:96:fe:85:
                    8b:fe:91:af:6f:e4:08:02:70:b5:f0:81:1d:e1:16:
                    3a:25:25:aa:d1:dd:6c:d5:0b:f5:48:7a:89:50:26:
                    10:f2:0c:3a:da:d9:72:6e:78:ac:75:ee:91:32:71:
                    89:42:ce:d3:17:a1:1c:a8:21:c6:55:78:8f:71:cd:
                    95:89:63:c7:7c:08:21:22:41:62:89:ad:3c:9a:fd:
                    46:25:2e:a1:9a:1b:fe:fe:5c:03:d3:15:c6:20:4a:
                    80:96:88:93:44:8a:fa:30:b9:b7:e2:58:dc:a5:aa:
                    f5:bd:af:49:34:51:5b:c2:68:c1:b0:85:17:99:a0:
                    98:27:57:a0:ac:e8:6a:73:49:03:51:de:c7:64:9d:
                    7a:f3:a0:94:10:9d:31:7e:37:c8:3a:ec:9f:5d:9a:
                    d8:dd:1c:3d:f4:73:de:c9:72:b6:a2:57:f0:19:23:
                    e5:d1:b0:ff:97:d5:61:00:85:56:a7:58:20:60:41:
                    4b:78:7d:2b:0f:ab:9a:c4:09:2f:6c:16:8d:d9:73:
                    22:de:8a:5c:bd:20:d3:f4:6f:7b:74:f1:0e:e3:85:
                    c9:e6:ff:3e:81:cf:53:99:9e:99:a7:b1:22:7f:10:
                    69:c4:94:e4:83:9a:9b:04:83:25:c2:60:14:24:70:
                    63:4c:0f
                Exponent: 65537 (0x10001)
        X509v3 extensions:
            X509v3 Basic Constraints: 
                CA:FALSE
            Netscape Comment: 
                Easy-RSA Generated Certificate
            X509v3 Subject Key Identifier: 
                76:C0:15:AF:CA:72:D2:AA:85:07:5C:45:35:1E:F3:57:D6:7C:D4:28
            X509v3 Authority Key Identifier: 
                keyid:EF:38:8D:14:50:58:A7:5B:4D:9C:17:72:FC:DF:B9:AC:A7:51:B0:10
                DirName:/C=US/ST=CA/L=SanFrancisco/O=Pixglo, Inc./OU=VPN-CIE/CN=tunnel.pixglo.com/name=Bala Chandrasekaran/emailAddress=bala@pixglo.com
                serial:A6:DB:C6:83:80:E6:A0:79

            X509v3 Extended Key Usage: 
                TLS Web Client Authentication
            X509v3 Key Usage: 
                Digital Signature
    Signature Algorithm: sha1WithRSAEncryption
         73:5c:89:e8:60:09:0c:ee:a2:0f:36:c8:3b:13:ee:03:34:d3:
         05:80:f7:58:71:a3:1b:8e:bd:29:4d:9a:c8:19:be:82:86:75:
         af:48:7b:fd:4e:c1:2c:d7:4e:33:28:79:71:38:a4:1b:16:81:
         81:42:c2:68:7e:f0:b3:13:e2:2b:50:ea:80:8f:01:c4:ac:2f:
         41:4e:09:22:77:7c:aa:af:05:45:08:b1:6b:1f:e6:5b:e7:a9:
         72:72:a7:e3:af:bc:9b:c8:5c:0f:9a:6f:0c:62:d4:f3:4f:83:
         01:06:da:15:ea:83:03:76:af:24:2e:09:18:b7:e5:3c:80:b2:
         e8:51:17:a4:6b:db:b4:b3:29:01:d5:62:70:a0:50:04:a3:89:
         db:c5:cd:be:f4:41:b4:63:ef:eb:1b:c6:99:18:18:98:f9:17:
         cd:d9:59:3b:00:41:a7:b1:9a:40:70:85:2e:aa:8c:36:5b:09:
         20:a8:a7:65:77:10:d9:a9:48:c2:72:6a:84:d8:2a:33:64:60:
         62:43:46:24:53:89:03:a1:7a:ea:80:9d:d4:f6:aa:f5:0a:21:
         42:a7:e7:d5:bf:5e:c1:e6:c7:8f:81:a2:7e:61:7f:b4:9c:36:
         9b:ba:59:03:04:1c:18:c1:ad:a6:ee:ad:90:9d:2d:4a:a3:db:
         31:aa:88:12:73:b7:f2:75:cd:17:f8:a9:1c:71:89:32:92:c7:
         40:e1:f7:fa:6e:fd:f4:5d:56:d9:7d:f0:26:84:23:5f:99:c0:
         63:c5:98:5c:cc:e5:79:70:0d:28:06:a4:60:32:d6:2d:a3:10:
         c9:04:56:e5:53:98:54:f8:94:5e:e0:83:37:2b:89:f8:1e:c0:
         ab:08:d6:40:7b:76:1a:8d:47:ac:ba:c4:9f:32:6b:50:b6:99:
         78:a9:8e:41:8c:b6:f1:13:13:c7:3e:77:d4:5f:16:ab:70:05:
         46:b3:fe:23:64:0f:b7:8a:f5:9f:22:d6:b9:03:44:12:95:6b:
         09:20:30:9e:a9:6c:6b:5d:53:5f:42:1e:4d:29:e4:4b:3e:e2:
         20:00:14:f7:e9:c5:4a:f0:75:31:f7:93:e5:b4:3e:86:b0:b9:
         2a:8c:02:78:7b:5d:1b:c4:23:01:54:ed:f1:28:93:4e:36:be:
         11:4a:43:69:f0:3e:6f:12:c7:4d:1b:c0:86:65:59:25:bc:f9:
         6d:bc:aa:c2:56:eb:b8:17:18:d8:9b:34:2a:dc:52:f1:34:15:
         d5:e1:12:37:3c:5e:2f:03:22:bc:60:d0:c6:bb:56:2e:1f:a3:
         88:52:4f:e6:bf:e6:7b:f7:1b:77:d5:c0:59:4e:6b:47:e7:50:
         46:19:55:5d:9f:42:f0:fc
-----BEGIN CERTIFICATE-----
MIIHSDCCBTCgAwIBAgICAjQwDQYJKoZIhvcNAQEFBQAwgbQxCzAJBgNVBAYTAlVT
MQswCQYDVQQIEwJDQTEVMBMGA1UEBxMMU2FuRnJhbmNpc2NvMRUwEwYDVQQKEwxQ
aXhnbG8sIEluYy4xEDAOBgNVBAsTB1ZQTi1DSUUxGjAYBgNVBAMTEXR1bm5lbC5w
aXhnbG8uY29tMRwwGgYDVQQpExNCYWxhIENoYW5kcmFzZWthcmFuMR4wHAYJKoZI
hvcNAQkBFg9iYWxhQHBpeGdsby5jb20wHhcNMTgwMjE0MDYzNzE1WhcNMjgwMjEy
MDYzNzE1WjCBqTELMAkGA1UEBhMCVVMxCzAJBgNVBAgTAkNBMRUwEwYDVQQHEwxT
YW5GcmFuY2lzY28xFTATBgNVBAoTDFBpeGdsbywgSW5jLjEQMA4GA1UECxMHVlBO
LUNJRTEPMA0GA1UEAxMGY2llNTYzMRwwGgYDVQQpExNCYWxhIENoYW5kcmFzZWth
cmFuMR4wHAYJKoZIhvcNAQkBFg9iYWxhQHBpeGdsby5jb20wggIiMA0GCSqGSIb3
DQEBAQUAA4ICDwAwggIKAoICAQCvZAGdE1vMcZ36ZKFCO8q/fb5stvEuardRnXTk
WPH1dmm3sSEw7MEeg3tGWnAIelZYgKaFdV1to4lZ91mPZipWVMj1mIXVn6U1O0bE
JeUnrGasVEuEl3H37XxF6b/VJNhXvTzxzfkvPzyVcEn5fLvDjn69SFcWhkhLUn71
yWotmGVG7iCzgNIoui0NufXAEtDTeKXQGwkOYK4RIdLlSHT05TC5xoCsL3Pq6V58
4Gj5vB00lt6dbNZcI319knFIuW8bpAZpjSQKawsDMJmrFXXa+arE/aCZXUMAlcUx
mBbsCGxcNsfo8oTpG3Xh4iaZREWdI14YZEkhvFR+CG8oW8E1iYZF1jfObrKwL5b+
hYv+ka9v5AgCcLXwgR3hFjolJarR3WzVC/VIeolQJhDyDDra2XJueKx17pEycYlC
ztMXoRyoIcZVeI9xzZWJY8d8CCEiQWKJrTya/UYlLqGaG/7+XAPTFcYgSoCWiJNE
ivowubfiWNylqvW9r0k0UVvCaMGwhReZoJgnV6Cs6GpzSQNR3sdknXrzoJQQnTF+
N8g67J9dmtjdHD30c97JcraiV/AZI+XRsP+X1WEAhVanWCBgQUt4fSsPq5rECS9s
Fo3ZcyLeily9INP0b3t08Q7jhcnm/z6Bz1OZnpmnsSJ/EGnElOSDmpsEgyXCYBQk
cGNMDwIDAQABo4IBazCCAWcwCQYDVR0TBAIwADAtBglghkgBhvhCAQ0EIBYeRWFz
eS1SU0EgR2VuZXJhdGVkIENlcnRpZmljYXRlMB0GA1UdDgQWBBR2wBWvynLSqoUH
XEU1HvNX1nzUKDCB6QYDVR0jBIHhMIHegBTvOI0UUFinW02cF3L837msp1GwEKGB
uqSBtzCBtDELMAkGA1UEBhMCVVMxCzAJBgNVBAgTAkNBMRUwEwYDVQQHEwxTYW5G
cmFuY2lzY28xFTATBgNVBAoTDFBpeGdsbywgSW5jLjEQMA4GA1UECxMHVlBOLUNJ
RTEaMBgGA1UEAxMRdHVubmVsLnBpeGdsby5jb20xHDAaBgNVBCkTE0JhbGEgQ2hh
bmRyYXNla2FyYW4xHjAcBgkqhkiG9w0BCQEWD2JhbGFAcGl4Z2xvLmNvbYIJAKbb
xoOA5qB5MBMGA1UdJQQMMAoGCCsGAQUFBwMCMAsGA1UdDwQEAwIHgDANBgkqhkiG
9w0BAQUFAAOCAgEAc1yJ6GAJDO6iDzbIOxPuAzTTBYD3WHGjG469KU2ayBm+goZ1
r0h7/U7BLNdOMyh5cTikGxaBgULCaH7wsxPiK1DqgI8BxKwvQU4JInd8qq8FRQix
ax/mW+epcnKn46+8m8hcD5pvDGLU80+DAQbaFeqDA3avJC4JGLflPICy6FEXpGvb
tLMpAdVicKBQBKOJ28XNvvRBtGPv6xvGmRgYmPkXzdlZOwBBp7GaQHCFLqqMNlsJ
IKinZXcQ2alIwnJqhNgqM2RgYkNGJFOJA6F66oCd1Paq9QohQqfn1b9ewebHj4Gi
fmF/tJw2m7pZAwQcGMGtpu6tkJ0tSqPbMaqIEnO38nXNF/ipHHGJMpLHQOH3+m79
9F1W2X3wJoQjX5nAY8WYXMzleXANKAakYDLWLaMQyQRW5VOYVPiUXuCDNyuJ+B7A
qwjWQHt2Go1HrLrEnzJrULaZeKmOQYy28RMTxz531F8Wq3AFRrP+I2QPt4r1nyLW
uQNEEpVrCSAwnqlsa11TX0IeTSnkSz7iIAAU9+nFSvB1MfeT5bQ+hrC5KowCeHtd
G8QjAVTt8SiTTja+EUpDafA+bxLHTRvAhmVZJbz5bbyqwlbruBcY2Js0KtxS8TQV
1eESNzxeLwMivGDQxrtWLh+jiFJP5r/me/cbd9XAWU5rR+dQRhlVXZ9C8Pw=
-----END CERTIFICATE-----
