Certificate:
    Data:
        Version: 3 (0x2)
        Serial Number: 536 (0x218)
    Signature Algorithm: sha1WithRSAEncryption
        Issuer: C=US, ST=CA, L=SanFrancisco, O=Pixglo, Inc., OU=VPN-CIE, CN=tunnel.pixglo.com/name=Bala Chandrasekaran/emailAddress=bala@pixglo.com
        Validity
            Not Before: Feb 14 06:36:32 2018 GMT
            Not After : Feb 12 06:36:32 2028 GMT
        Subject: C=US, ST=CA, L=SanFrancisco, O=Pixglo, Inc., OU=VPN-CIE, CN=cie535/name=Bala Chandrasekaran/emailAddress=bala@pixglo.com
        Subject Public Key Info:
            Public Key Algorithm: rsaEncryption
                Public-Key: (4096 bit)
                Modulus:
                    00:b5:fb:af:1f:d0:96:ec:0c:6c:f0:40:cd:95:24:
                    ff:14:cb:10:48:d7:8e:b7:77:1c:94:43:ed:8c:d3:
                    a3:87:d3:d9:6b:16:d3:35:97:6b:ee:36:50:f1:59:
                    b1:4b:d8:97:7d:72:9e:95:24:27:6b:06:13:2e:38:
                    34:1a:89:6e:c4:a3:70:84:f1:b5:c7:db:20:04:9a:
                    30:ae:ab:45:f5:dd:c5:9a:0e:1b:92:34:da:8f:43:
                    18:3f:84:99:3e:3a:83:35:38:59:2e:4e:c4:6f:16:
                    68:0d:3c:cf:33:eb:8a:5e:7c:3b:2d:c0:ab:54:c4:
                    59:3d:98:5d:35:64:62:9b:d8:2a:a3:ff:e8:cf:0a:
                    9e:6d:9a:4d:13:52:62:d7:09:7d:c2:02:07:b5:5d:
                    d5:6a:dd:8d:30:7b:c4:fb:6f:14:bf:db:59:1f:23:
                    c5:40:29:24:27:56:3e:76:a2:39:d9:e2:c0:34:02:
                    ca:aa:e1:e7:c1:0d:77:8b:7e:0b:9e:2f:31:0c:ee:
                    8a:a2:ce:0b:22:18:06:63:15:0d:fe:d0:b1:e3:43:
                    d4:cd:12:33:dc:a2:9d:db:19:92:5e:d4:1a:07:c5:
                    6e:08:eb:78:a2:ad:7b:0e:6f:e2:5e:0a:1c:d2:e5:
                    8e:dd:1f:df:b6:47:51:11:17:72:73:da:79:88:2d:
                    81:22:f1:71:2d:58:e0:c5:83:e4:8e:f8:4d:b5:14:
                    a3:bd:f5:46:92:61:09:2c:9a:68:77:8e:30:ac:5b:
                    ca:94:4b:b3:a4:ba:53:cb:3f:1c:5a:9a:ba:79:99:
                    45:64:9d:8a:43:c1:cc:e0:fa:3a:46:04:0d:27:32:
                    aa:03:0c:21:a4:ee:ad:1d:23:36:6e:f1:d3:a4:c5:
                    60:49:ca:03:a5:a4:0f:78:5c:e4:9b:df:4e:71:6e:
                    68:78:c6:65:81:f0:af:2b:1d:d5:3e:ee:6d:15:f2:
                    cb:7a:c1:0d:a8:53:f9:f6:f6:15:d4:58:3f:dd:74:
                    cc:0e:f3:2b:e8:39:5b:8e:d0:46:a8:ce:90:37:d0:
                    43:9e:e6:4e:a3:45:41:cb:05:4d:fc:6c:47:83:08:
                    2e:b9:d6:2d:ab:a9:59:1c:41:25:e2:4c:d5:6b:bf:
                    d9:26:fe:d0:8d:12:6f:d1:8d:11:33:5a:c2:8a:3d:
                    2f:63:2f:81:13:15:c9:6a:fb:0e:bf:a8:d3:93:bc:
                    e1:17:44:64:1b:19:6f:d7:70:92:3f:89:1c:aa:e5:
                    f3:6e:ad:a5:89:7f:65:4c:fc:f2:97:84:df:94:f4:
                    8e:d0:a2:ae:88:5c:70:49:23:ff:64:29:cb:04:23:
                    d3:8d:32:70:7a:08:f5:91:94:8e:76:39:2b:fe:23:
                    9f:78:db
                Exponent: 65537 (0x10001)
        X509v3 extensions:
            X509v3 Basic Constraints: 
                CA:FALSE
            Netscape Comment: 
                Easy-RSA Generated Certificate
            X509v3 Subject Key Identifier: 
                74:74:98:64:D1:02:DB:45:23:94:35:44:43:AD:C9:6B:5D:A1:AB:CF
            X509v3 Authority Key Identifier: 
                keyid:EF:38:8D:14:50:58:A7:5B:4D:9C:17:72:FC:DF:B9:AC:A7:51:B0:10
                DirName:/C=US/ST=CA/L=SanFrancisco/O=Pixglo, Inc./OU=VPN-CIE/CN=tunnel.pixglo.com/name=Bala Chandrasekaran/emailAddress=bala@pixglo.com
                serial:A6:DB:C6:83:80:E6:A0:79

            X509v3 Extended Key Usage: 
                TLS Web Client Authentication
            X509v3 Key Usage: 
                Digital Signature
    Signature Algorithm: sha1WithRSAEncryption
         01:bc:5a:37:6e:ee:a1:b8:56:df:a2:1f:e4:31:f6:74:6c:59:
         c8:37:ed:45:e1:0e:3d:fe:9d:cf:c3:77:11:81:1b:2b:c5:a2:
         f2:84:42:9a:fc:93:a3:27:b2:9f:91:4e:04:a0:d5:20:ff:a0:
         df:db:44:e3:cd:eb:b6:7c:e7:30:ea:69:69:36:36:fc:45:81:
         ec:f3:5a:54:04:75:20:37:84:e6:fc:f9:6f:be:f1:75:8b:34:
         76:0d:9d:87:8d:12:57:64:10:c1:c4:9c:99:e9:9d:fa:7c:b0:
         86:fb:06:82:41:09:65:68:bd:fa:b6:cd:ec:fe:27:f5:bb:fc:
         77:56:7a:b0:df:ed:03:b9:04:b4:cb:e9:60:86:5a:0a:77:57:
         63:54:f7:9b:e6:81:27:46:da:19:40:14:1c:5b:06:4d:9e:02:
         90:84:62:ac:6e:df:1d:3b:23:94:1c:c0:ac:01:6e:f5:ce:ef:
         a3:4d:5d:66:86:1a:ca:08:a9:00:b3:85:d7:06:7e:2b:16:c9:
         c5:9d:28:08:fb:60:bc:86:94:ad:bc:94:65:18:a5:3c:99:82:
         53:0c:3e:94:18:38:0b:0d:5a:ae:a9:0f:e4:4c:23:04:e5:ba:
         34:e4:c7:36:eb:58:7e:16:b3:64:96:75:bc:c3:8a:d3:99:84:
         5e:e4:7d:99:dc:4d:9c:3e:6a:fc:34:ba:bf:89:3b:1d:a9:37:
         5c:a0:d0:38:00:fb:65:66:89:89:b7:8e:f7:0a:d0:a6:21:49:
         67:36:22:4b:fd:89:e4:f4:91:13:3d:44:8d:52:c9:8a:a6:af:
         88:10:e5:6f:40:64:e8:bf:43:b7:46:73:96:6c:5f:40:a2:7c:
         6b:eb:ed:8c:f3:84:ac:81:5c:ee:82:4c:10:4c:41:26:8c:a1:
         d5:08:59:48:66:f4:0d:0e:f6:b1:a7:c8:16:d7:59:c5:12:f2:
         49:46:62:c7:24:ee:88:1c:79:f3:29:3d:d9:b7:06:0d:b4:ba:
         14:b0:ec:25:ed:e4:36:fb:21:b4:0d:bd:c6:31:0a:44:e0:a2:
         9a:ff:72:ec:7b:95:d5:7a:5e:91:34:79:35:1b:e4:3b:b2:8b:
         e6:81:6d:c2:80:2f:e8:bc:5c:0a:25:f1:86:f2:4d:8e:73:15:
         c5:00:a6:f6:e4:b8:08:16:6d:ea:c3:20:9b:6a:c7:a6:06:65:
         2e:8b:48:db:5e:ad:6e:14:60:36:41:42:a2:85:a2:a8:2d:b2:
         2c:fe:6e:b7:ff:20:e7:1f:70:c1:b9:25:61:1d:34:f7:da:8d:
         28:67:d5:68:62:d3:cd:fa:50:c9:ce:58:61:52:92:9c:a0:ad:
         dc:a5:d5:42:54:78:5f:b5
-----BEGIN CERTIFICATE-----
MIIHSDCCBTCgAwIBAgICAhgwDQYJKoZIhvcNAQEFBQAwgbQxCzAJBgNVBAYTAlVT
MQswCQYDVQQIEwJDQTEVMBMGA1UEBxMMU2FuRnJhbmNpc2NvMRUwEwYDVQQKEwxQ
aXhnbG8sIEluYy4xEDAOBgNVBAsTB1ZQTi1DSUUxGjAYBgNVBAMTEXR1bm5lbC5w
aXhnbG8uY29tMRwwGgYDVQQpExNCYWxhIENoYW5kcmFzZWthcmFuMR4wHAYJKoZI
hvcNAQkBFg9iYWxhQHBpeGdsby5jb20wHhcNMTgwMjE0MDYzNjMyWhcNMjgwMjEy
MDYzNjMyWjCBqTELMAkGA1UEBhMCVVMxCzAJBgNVBAgTAkNBMRUwEwYDVQQHEwxT
YW5GcmFuY2lzY28xFTATBgNVBAoTDFBpeGdsbywgSW5jLjEQMA4GA1UECxMHVlBO
LUNJRTEPMA0GA1UEAxMGY2llNTM1MRwwGgYDVQQpExNCYWxhIENoYW5kcmFzZWth
cmFuMR4wHAYJKoZIhvcNAQkBFg9iYWxhQHBpeGdsby5jb20wggIiMA0GCSqGSIb3
DQEBAQUAA4ICDwAwggIKAoICAQC1+68f0JbsDGzwQM2VJP8UyxBI1463dxyUQ+2M
06OH09lrFtM1l2vuNlDxWbFL2Jd9cp6VJCdrBhMuODQaiW7Eo3CE8bXH2yAEmjCu
q0X13cWaDhuSNNqPQxg/hJk+OoM1OFkuTsRvFmgNPM8z64pefDstwKtUxFk9mF01
ZGKb2Cqj/+jPCp5tmk0TUmLXCX3CAge1XdVq3Y0we8T7bxS/21kfI8VAKSQnVj52
ojnZ4sA0Asqq4efBDXeLfgueLzEM7oqizgsiGAZjFQ3+0LHjQ9TNEjPcop3bGZJe
1BoHxW4I63iirXsOb+JeChzS5Y7dH9+2R1ERF3Jz2nmILYEi8XEtWODFg+SO+E21
FKO99UaSYQksmmh3jjCsW8qUS7OkulPLPxxamrp5mUVknYpDwczg+jpGBA0nMqoD
DCGk7q0dIzZu8dOkxWBJygOlpA94XOSb305xbmh4xmWB8K8rHdU+7m0V8st6wQ2o
U/n29hXUWD/ddMwO8yvoOVuO0EaozpA30EOe5k6jRUHLBU38bEeDCC651i2rqVkc
QSXiTNVrv9km/tCNEm/RjREzWsKKPS9jL4ETFclq+w6/qNOTvOEXRGQbGW/XcJI/
iRyq5fNuraWJf2VM/PKXhN+U9I7Qoq6IXHBJI/9kKcsEI9ONMnB6CPWRlI52OSv+
I5942wIDAQABo4IBazCCAWcwCQYDVR0TBAIwADAtBglghkgBhvhCAQ0EIBYeRWFz
eS1SU0EgR2VuZXJhdGVkIENlcnRpZmljYXRlMB0GA1UdDgQWBBR0dJhk0QLbRSOU
NURDrclrXaGrzzCB6QYDVR0jBIHhMIHegBTvOI0UUFinW02cF3L837msp1GwEKGB
uqSBtzCBtDELMAkGA1UEBhMCVVMxCzAJBgNVBAgTAkNBMRUwEwYDVQQHEwxTYW5G
cmFuY2lzY28xFTATBgNVBAoTDFBpeGdsbywgSW5jLjEQMA4GA1UECxMHVlBOLUNJ
RTEaMBgGA1UEAxMRdHVubmVsLnBpeGdsby5jb20xHDAaBgNVBCkTE0JhbGEgQ2hh
bmRyYXNla2FyYW4xHjAcBgkqhkiG9w0BCQEWD2JhbGFAcGl4Z2xvLmNvbYIJAKbb
xoOA5qB5MBMGA1UdJQQMMAoGCCsGAQUFBwMCMAsGA1UdDwQEAwIHgDANBgkqhkiG
9w0BAQUFAAOCAgEAAbxaN27uobhW36If5DH2dGxZyDftReEOPf6dz8N3EYEbK8Wi
8oRCmvyToyeyn5FOBKDVIP+g39tE483rtnznMOppaTY2/EWB7PNaVAR1IDeE5vz5
b77xdYs0dg2dh40SV2QQwcScmemd+nywhvsGgkEJZWi9+rbN7P4n9bv8d1Z6sN/t
A7kEtMvpYIZaCndXY1T3m+aBJ0baGUAUHFsGTZ4CkIRirG7fHTsjlBzArAFu9c7v
o01dZoYaygipALOF1wZ+KxbJxZ0oCPtgvIaUrbyUZRilPJmCUww+lBg4Cw1arqkP
5EwjBOW6NOTHNutYfhazZJZ1vMOK05mEXuR9mdxNnD5q/DS6v4k7Hak3XKDQOAD7
ZWaJibeO9wrQpiFJZzYiS/2J5PSREz1EjVLJiqaviBDlb0Bk6L9Dt0ZzlmxfQKJ8
a+vtjPOErIFc7oJMEExBJoyh1QhZSGb0DQ72safIFtdZxRLySUZixyTuiBx58yk9
2bcGDbS6FLDsJe3kNvshtA29xjEKROCimv9y7HuV1XpekTR5NRvkO7KL5oFtwoAv
6LxcCiXxhvJNjnMVxQCm9uS4CBZt6sMgm2rHpgZlLotI216tbhRgNkFCooWiqC2y
LP5ut/8g5x9wwbklYR0099qNKGfVaGLTzfpQyc5YYVKSnKCt3KXVQlR4X7U=
-----END CERTIFICATE-----
