Certificate:
    Data:
        Version: 3 (0x2)
        Serial Number: 52 (0x34)
    Signature Algorithm: sha1WithRSAEncryption
        Issuer: C=US, ST=CA, L=SanFrancisco, O=Pixglo, Inc., OU=VPN-CIE, CN=tunnel.pixglo.com/name=Bala Chandrasekaran/emailAddress=bala@pixglo.com
        Validity
            Not Before: Feb 14 06:24:54 2018 GMT
            Not After : Feb 12 06:24:54 2028 GMT
        Subject: C=US, ST=CA, L=SanFrancisco, O=Pixglo, Inc., OU=VPN-CIE, CN=cie51/name=Bala Chandrasekaran/emailAddress=bala@pixglo.com
        Subject Public Key Info:
            Public Key Algorithm: rsaEncryption
                Public-Key: (4096 bit)
                Modulus:
                    00:ef:4e:a3:bc:5a:59:b9:97:83:45:c0:84:73:d8:
                    15:30:d9:96:fe:9f:85:bb:8a:bc:eb:ab:37:62:a0:
                    ce:8b:02:94:76:2d:3a:01:a5:17:a6:87:39:4f:3b:
                    27:48:60:2b:0f:fa:ed:69:de:47:9b:16:2f:a2:5d:
                    53:a1:ce:c2:3d:17:b0:b4:5e:6b:ce:34:a2:45:bb:
                    7d:82:0b:b1:b3:5c:94:35:ac:ae:07:63:24:ed:e7:
                    94:c9:2e:3c:8a:f0:a0:74:2d:1b:30:9c:96:6c:ab:
                    7d:f3:30:b3:04:ec:81:b5:42:e6:54:44:c4:74:65:
                    28:1c:ac:df:be:47:12:dc:76:4f:b1:c2:3e:a5:e6:
                    bd:1f:82:3d:43:eb:02:4b:bf:b0:db:e7:55:1e:46:
                    cf:a2:74:b1:c5:93:35:2f:f0:c9:99:f6:fc:cb:58:
                    da:a8:04:17:91:ad:27:22:05:d2:61:e9:bb:0e:63:
                    f1:4c:04:e5:b5:24:ba:10:2c:b7:7c:2c:7b:f5:12:
                    24:48:c4:72:61:ce:56:e5:13:23:e3:76:04:88:88:
                    95:5b:a5:cf:80:15:8c:4f:75:c3:45:0c:e7:8e:f8:
                    bd:79:ae:68:bf:21:a4:08:d3:37:d9:36:ca:e2:f5:
                    76:20:a4:c2:b0:ab:cb:b4:ed:28:3f:a7:f9:f2:13:
                    7e:fa:ac:8c:6b:2f:0e:88:de:a5:f9:3e:1e:2b:0c:
                    01:9b:9a:f4:22:d1:a5:d3:16:03:98:15:e1:64:a4:
                    c7:94:8d:34:86:5e:32:44:b3:e3:81:0a:a4:4a:45:
                    af:7a:b9:9c:20:e3:7c:6e:16:9a:d8:53:93:de:0a:
                    43:d1:af:42:d6:28:c2:03:49:37:9a:22:f2:cd:49:
                    30:ea:66:d6:ca:6c:47:4a:1c:d6:44:f2:88:a4:ac:
                    63:38:f2:6e:7e:05:ca:86:e4:79:30:ac:38:bc:0a:
                    88:ed:bc:1f:c7:d4:a2:7a:39:bc:bb:f9:b5:33:26:
                    34:6a:0d:0d:22:ca:09:63:f7:ea:e7:7b:8a:13:a4:
                    46:e7:03:f2:8f:ff:58:90:15:c0:f3:38:39:4b:8c:
                    fe:0c:02:c9:fb:67:e1:9d:f5:12:fa:b7:73:25:33:
                    4a:1b:4a:ac:d4:fe:aa:0a:14:13:80:6c:03:8e:79:
                    8e:dd:01:29:8c:0c:67:16:c7:5f:f4:64:66:ef:65:
                    ac:17:9e:fc:0e:da:53:ef:3d:2a:2a:32:36:5e:ba:
                    45:41:ed:61:96:ec:28:c0:8b:f7:8c:d6:98:6c:c1:
                    bd:c6:c1:97:12:13:03:13:02:6e:4b:c0:5f:c4:f1:
                    0f:26:c6:26:8e:c1:f8:58:aa:26:be:e4:9a:1f:1d:
                    0b:7c:7d
                Exponent: 65537 (0x10001)
        X509v3 extensions:
            X509v3 Basic Constraints: 
                CA:FALSE
            Netscape Comment: 
                Easy-RSA Generated Certificate
            X509v3 Subject Key Identifier: 
                99:11:A3:AB:4F:0E:8E:3D:FE:81:CD:18:C9:DA:4D:02:0D:E2:98:70
            X509v3 Authority Key Identifier: 
                keyid:EF:38:8D:14:50:58:A7:5B:4D:9C:17:72:FC:DF:B9:AC:A7:51:B0:10
                DirName:/C=US/ST=CA/L=SanFrancisco/O=Pixglo, Inc./OU=VPN-CIE/CN=tunnel.pixglo.com/name=Bala Chandrasekaran/emailAddress=bala@pixglo.com
                serial:A6:DB:C6:83:80:E6:A0:79

            X509v3 Extended Key Usage: 
                TLS Web Client Authentication
            X509v3 Key Usage: 
                Digital Signature
    Signature Algorithm: sha1WithRSAEncryption
         a8:5a:9f:fa:02:d8:b4:d8:ef:b4:04:21:67:1e:98:77:64:7e:
         fd:c9:a1:24:43:ee:25:f0:5d:e9:22:35:91:f4:6e:50:fb:81:
         5c:86:c0:3c:b2:3a:8a:6a:68:8a:3b:3a:fa:ba:1c:6e:51:3d:
         ac:d5:24:4d:fb:4c:be:b7:4d:3b:1d:4f:b7:5a:4a:d5:38:4a:
         61:8c:e8:15:38:54:02:73:a2:8b:c9:48:bf:f7:9e:d2:b1:06:
         ba:36:b4:e3:62:25:45:6e:f6:f9:50:0c:39:27:ec:11:44:11:
         a8:aa:51:fd:39:54:e7:70:50:d6:b9:60:01:05:12:13:13:aa:
         fd:03:0d:e0:aa:c5:9c:c6:b1:64:06:8d:d5:14:23:a6:53:cc:
         55:55:05:1f:82:78:4f:d1:50:de:5a:8b:d1:0a:3f:d2:96:e0:
         f0:c9:a5:07:4f:32:ee:00:0a:75:ab:71:5c:2e:43:7d:1a:36:
         25:ed:e2:f9:bf:30:c8:79:b2:db:91:ba:8c:ec:0f:42:d9:e9:
         a1:04:6b:4e:6f:ce:d9:03:8a:bb:f3:7b:d8:9e:3f:e3:77:36:
         44:59:de:dc:1f:4e:82:b2:80:fe:5c:35:b4:28:90:1e:87:69:
         ff:81:9c:3d:85:b0:0a:1a:c7:dd:e4:86:08:51:27:b7:9f:1f:
         b5:eb:1e:f5:d2:9a:07:6d:5c:40:70:28:a3:a6:fe:f9:6a:39:
         d4:da:da:32:85:57:93:6c:a6:92:ab:a0:bd:5a:8b:27:10:a3:
         33:af:96:99:b4:5d:26:95:ca:9e:1e:bd:2a:d7:d1:51:48:f5:
         f1:91:b9:8a:65:a3:37:5e:ea:cd:07:a0:85:b3:58:ac:08:67:
         e5:c0:4e:7b:bd:e0:af:60:2a:46:5d:00:17:17:79:69:65:53:
         6c:70:3b:50:90:58:6e:b3:9a:e4:b1:0d:b1:82:b1:d0:1a:0b:
         c9:16:e6:66:34:2a:d2:c5:f7:c6:2b:d5:c1:98:f0:ee:8d:c7:
         06:8b:a2:9e:61:87:56:39:67:e7:23:26:98:b6:25:ce:ec:b7:
         c7:f6:3f:4c:0d:f5:c8:a6:a6:ef:e5:84:0e:d7:ca:2f:e2:91:
         29:7b:8d:6f:8c:70:8c:a6:9a:05:c3:5c:43:86:6b:39:a1:73:
         ba:64:38:d9:f5:e1:2a:2a:c1:fa:3d:df:c3:0d:3c:17:ae:72:
         ee:bd:9d:fe:5f:b0:b2:66:7b:02:b8:42:b3:3c:fc:59:e9:50:
         5a:9c:d7:6b:3c:8f:b2:b0:a8:65:c0:41:20:ce:cc:55:db:1c:
         2b:2f:50:5d:19:c2:da:ee:82:12:2b:de:ed:10:d9:47:d2:1a:
         3b:69:ea:6c:ff:bd:50:f5
-----BEGIN CERTIFICATE-----
MIIHRjCCBS6gAwIBAgIBNDANBgkqhkiG9w0BAQUFADCBtDELMAkGA1UEBhMCVVMx
CzAJBgNVBAgTAkNBMRUwEwYDVQQHEwxTYW5GcmFuY2lzY28xFTATBgNVBAoTDFBp
eGdsbywgSW5jLjEQMA4GA1UECxMHVlBOLUNJRTEaMBgGA1UEAxMRdHVubmVsLnBp
eGdsby5jb20xHDAaBgNVBCkTE0JhbGEgQ2hhbmRyYXNla2FyYW4xHjAcBgkqhkiG
9w0BCQEWD2JhbGFAcGl4Z2xvLmNvbTAeFw0xODAyMTQwNjI0NTRaFw0yODAyMTIw
NjI0NTRaMIGoMQswCQYDVQQGEwJVUzELMAkGA1UECBMCQ0ExFTATBgNVBAcTDFNh
bkZyYW5jaXNjbzEVMBMGA1UEChMMUGl4Z2xvLCBJbmMuMRAwDgYDVQQLEwdWUE4t
Q0lFMQ4wDAYDVQQDEwVjaWU1MTEcMBoGA1UEKRMTQmFsYSBDaGFuZHJhc2VrYXJh
bjEeMBwGCSqGSIb3DQEJARYPYmFsYUBwaXhnbG8uY29tMIICIjANBgkqhkiG9w0B
AQEFAAOCAg8AMIICCgKCAgEA706jvFpZuZeDRcCEc9gVMNmW/p+Fu4q866s3YqDO
iwKUdi06AaUXpoc5TzsnSGArD/rtad5HmxYvol1Toc7CPRewtF5rzjSiRbt9ggux
s1yUNayuB2Mk7eeUyS48ivCgdC0bMJyWbKt98zCzBOyBtULmVETEdGUoHKzfvkcS
3HZPscI+pea9H4I9Q+sCS7+w2+dVHkbPonSxxZM1L/DJmfb8y1jaqAQXka0nIgXS
Yem7DmPxTATltSS6ECy3fCx79RIkSMRyYc5W5RMj43YEiIiVW6XPgBWMT3XDRQzn
jvi9ea5ovyGkCNM32TbK4vV2IKTCsKvLtO0oP6f58hN++qyMay8OiN6l+T4eKwwB
m5r0ItGl0xYDmBXhZKTHlI00hl4yRLPjgQqkSkWvermcION8bhaa2FOT3gpD0a9C
1ijCA0k3miLyzUkw6mbWymxHShzWRPKIpKxjOPJufgXKhuR5MKw4vAqI7bwfx9Si
ejm8u/m1MyY0ag0NIsoJY/fq53uKE6RG5wPyj/9YkBXA8zg5S4z+DALJ+2fhnfUS
+rdzJTNKG0qs1P6qChQTgGwDjnmO3QEpjAxnFsdf9GRm72WsF578DtpT7z0qKjI2
XrpFQe1hluwowIv3jNaYbMG9xsGXEhMDEwJuS8BfxPEPJsYmjsH4WKomvuSaHx0L
fH0CAwEAAaOCAWswggFnMAkGA1UdEwQCMAAwLQYJYIZIAYb4QgENBCAWHkVhc3kt
UlNBIEdlbmVyYXRlZCBDZXJ0aWZpY2F0ZTAdBgNVHQ4EFgQUmRGjq08Ojj3+gc0Y
ydpNAg3imHAwgekGA1UdIwSB4TCB3oAU7ziNFFBYp1tNnBdy/N+5rKdRsBChgbqk
gbcwgbQxCzAJBgNVBAYTAlVTMQswCQYDVQQIEwJDQTEVMBMGA1UEBxMMU2FuRnJh
bmNpc2NvMRUwEwYDVQQKEwxQaXhnbG8sIEluYy4xEDAOBgNVBAsTB1ZQTi1DSUUx
GjAYBgNVBAMTEXR1bm5lbC5waXhnbG8uY29tMRwwGgYDVQQpExNCYWxhIENoYW5k
cmFzZWthcmFuMR4wHAYJKoZIhvcNAQkBFg9iYWxhQHBpeGdsby5jb22CCQCm28aD
gOageTATBgNVHSUEDDAKBggrBgEFBQcDAjALBgNVHQ8EBAMCB4AwDQYJKoZIhvcN
AQEFBQADggIBAKhan/oC2LTY77QEIWcemHdkfv3JoSRD7iXwXekiNZH0blD7gVyG
wDyyOopqaIo7Ovq6HG5RPazVJE37TL63TTsdT7daStU4SmGM6BU4VAJzoovJSL/3
ntKxBro2tONiJUVu9vlQDDkn7BFEEaiqUf05VOdwUNa5YAEFEhMTqv0DDeCqxZzG
sWQGjdUUI6ZTzFVVBR+CeE/RUN5ai9EKP9KW4PDJpQdPMu4ACnWrcVwuQ30aNiXt
4vm/MMh5stuRuozsD0LZ6aEEa05vztkDirvze9ieP+N3NkRZ3twfToKygP5cNbQo
kB6Haf+BnD2FsAoax93khghRJ7efH7XrHvXSmgdtXEBwKKOm/vlqOdTa2jKFV5Ns
ppKroL1aiycQozOvlpm0XSaVyp4evSrX0VFI9fGRuYplozde6s0HoIWzWKwIZ+XA
Tnu94K9gKkZdABcXeWllU2xwO1CQWG6zmuSxDbGCsdAaC8kW5mY0KtLF98Yr1cGY
8O6NxwaLop5hh1Y5Z+cjJpi2Jc7st8f2P0wN9cimpu/lhA7Xyi/ikSl7jW+McIym
mgXDXEOGazmhc7pkONn14Soqwfo938MNPBeucu69nf5fsLJmewK4QrM8/FnpUFqc
12s8j7KwqGXAQSDOzFXbHCsvUF0ZwtrughIr3u0Q2UfSGjtp6mz/vVD1
-----END CERTIFICATE-----
