Certificate:
    Data:
        Version: 3 (0x2)
        Serial Number: 562 (0x232)
    Signature Algorithm: sha1WithRSAEncryption
        Issuer: C=US, ST=CA, L=SanFrancisco, O=Pixglo, Inc., OU=VPN-CIE, CN=tunnel.pixglo.com/name=Bala Chandrasekaran/emailAddress=bala@pixglo.com
        Validity
            Not Before: Feb 14 06:37:12 2018 GMT
            Not After : Feb 12 06:37:12 2028 GMT
        Subject: C=US, ST=CA, L=SanFrancisco, O=Pixglo, Inc., OU=VPN-CIE, CN=cie561/name=Bala Chandrasekaran/emailAddress=bala@pixglo.com
        Subject Public Key Info:
            Public Key Algorithm: rsaEncryption
                Public-Key: (4096 bit)
                Modulus:
                    00:9d:c1:87:cd:c3:78:b9:24:f6:0c:99:12:f1:de:
                    f6:13:f2:95:82:70:00:0d:76:bf:f7:64:50:48:3b:
                    3d:8e:36:d1:6f:74:0a:64:ab:0f:a4:fa:45:1a:5d:
                    b7:b6:43:47:b0:33:cc:02:dd:a9:55:5f:7d:74:d1:
                    3c:c4:61:90:90:60:07:75:63:81:80:48:d6:e7:d3:
                    8d:fa:06:21:28:19:86:26:b6:f2:99:32:f3:89:6c:
                    5f:6c:f8:aa:58:b9:a2:77:10:22:e9:76:28:68:65:
                    08:50:ef:83:f1:1b:07:73:df:df:15:ac:24:0a:2a:
                    72:8e:bc:36:78:9a:10:f1:7a:fe:4c:77:ba:ed:93:
                    c6:52:19:fe:d6:8e:11:ed:2f:5c:29:82:c1:c6:73:
                    0b:bd:da:df:bf:87:7e:93:cf:7f:a2:bf:05:00:eb:
                    6c:51:1d:65:d9:db:08:93:65:20:e9:c3:55:7e:2e:
                    7f:5a:b3:70:15:ef:0d:8b:74:96:6c:ab:b9:b3:5e:
                    26:43:27:dc:b0:1c:0a:33:4d:95:2e:e3:65:cd:40:
                    a8:f3:8a:96:6f:78:ce:ff:da:bd:e6:f9:d1:00:8b:
                    75:46:5a:1c:d9:68:43:d8:e8:96:e4:20:34:f9:23:
                    2f:be:94:fa:81:7c:4b:da:d5:3e:1b:ee:f7:f6:ea:
                    06:12:ee:32:63:a7:c0:1d:74:9d:b6:ff:53:3a:60:
                    9a:d1:42:e9:14:7c:45:40:bf:a7:1a:60:9c:f4:f6:
                    0c:88:a6:29:f4:48:a9:b8:42:5e:af:21:80:cc:c3:
                    6b:09:82:f2:27:2b:38:e1:c9:66:5c:50:ea:19:c0:
                    e6:43:ce:7d:0d:41:2c:46:96:62:e2:c2:8d:18:81:
                    bc:ad:70:7f:f3:b8:4c:c8:0f:8d:13:e6:9f:c8:ae:
                    c2:4c:9c:47:77:e1:9c:00:19:b4:58:69:7d:45:36:
                    dc:3d:60:1a:61:fe:e9:86:d9:af:25:84:60:21:e2:
                    cb:08:59:25:97:a7:a6:d5:3e:2e:07:57:82:11:5f:
                    1c:bf:59:a8:72:d5:b3:65:ef:be:0c:c8:d8:6b:df:
                    12:9b:12:20:53:fc:7f:4e:70:bf:5d:c3:b8:b7:89:
                    64:08:08:89:ef:8e:28:e7:68:0e:22:de:15:30:23:
                    88:ad:65:30:17:c5:6c:64:8f:20:ee:46:34:f7:c6:
                    a5:cc:2d:37:21:c3:2c:30:d7:26:0d:e2:43:ba:9e:
                    41:e9:b3:09:c3:a3:ca:b7:48:cf:fe:16:90:a7:8e:
                    c1:bc:77:6c:32:c7:e6:a5:80:33:51:53:11:13:30:
                    11:08:8a:8b:c2:3c:ce:91:91:67:82:70:3f:c2:37:
                    33:e4:0b
                Exponent: 65537 (0x10001)
        X509v3 extensions:
            X509v3 Basic Constraints: 
                CA:FALSE
            Netscape Comment: 
                Easy-RSA Generated Certificate
            X509v3 Subject Key Identifier: 
                CC:D9:64:07:D7:72:66:7A:BE:1D:37:04:4A:0E:72:8A:0C:0D:A7:EC
            X509v3 Authority Key Identifier: 
                keyid:EF:38:8D:14:50:58:A7:5B:4D:9C:17:72:FC:DF:B9:AC:A7:51:B0:10
                DirName:/C=US/ST=CA/L=SanFrancisco/O=Pixglo, Inc./OU=VPN-CIE/CN=tunnel.pixglo.com/name=Bala Chandrasekaran/emailAddress=bala@pixglo.com
                serial:A6:DB:C6:83:80:E6:A0:79

            X509v3 Extended Key Usage: 
                TLS Web Client Authentication
            X509v3 Key Usage: 
                Digital Signature
    Signature Algorithm: sha1WithRSAEncryption
         0b:3a:d2:d9:93:50:38:6a:aa:34:c9:7d:92:76:33:e8:3e:56:
         1e:9d:9a:3f:c3:bf:88:39:62:6e:54:a1:87:b8:fe:d5:9d:ca:
         6e:75:73:bf:c2:58:b6:14:cf:33:11:8d:eb:00:05:3c:33:af:
         d9:5f:9f:91:01:11:cc:ac:3c:ed:8e:f1:8f:14:a4:20:cc:97:
         6c:67:60:bf:81:40:c3:ad:cd:75:7d:46:49:db:05:79:de:7a:
         f7:4f:cd:e9:b2:33:3e:cb:17:d2:71:16:f0:5a:4d:79:0a:81:
         ee:97:10:a3:28:cf:fa:2d:e1:7c:0e:a3:fa:6f:da:58:b8:9b:
         2d:dd:a8:05:b9:8d:03:b1:2e:5d:16:aa:e8:9a:27:92:b6:28:
         9d:2e:a2:db:5d:d6:55:a9:16:dd:8c:6e:89:3a:6a:d6:e2:6a:
         9d:4c:ee:a2:37:3b:4d:1a:85:c0:b5:ed:37:40:e7:8a:b3:29:
         1a:73:70:c8:d2:09:f3:4e:97:0d:88:53:28:81:3b:74:89:82:
         9d:d1:fd:38:7d:bd:5a:e4:93:d1:5a:e7:63:8b:bc:70:84:04:
         e3:70:7b:a6:79:0a:b3:d0:82:f6:57:68:8c:c7:d1:2e:11:cd:
         54:45:0e:04:c5:9b:5f:72:de:84:ec:63:88:d3:7c:8f:3a:01:
         8e:ea:a1:f8:06:55:e8:c3:4f:43:22:66:10:7d:1b:19:eb:21:
         bb:37:65:09:3f:97:fd:6b:99:10:9d:71:81:d7:05:a4:27:f6:
         e0:60:49:c4:db:ba:a2:84:c4:aa:1d:0c:79:e1:07:e8:ab:79:
         b2:2e:e7:9c:38:93:19:16:c5:f1:a4:72:c2:05:6e:69:c2:eb:
         64:26:13:a1:21:d3:39:b6:38:b0:2d:1b:13:48:cd:f2:e3:d5:
         d4:cb:c2:b0:30:a6:53:ee:db:ac:9c:0b:50:3e:61:38:bf:1b:
         44:00:86:3a:72:28:56:02:a9:60:21:14:ea:c0:dd:f3:7a:9c:
         c7:c0:fb:f2:fc:70:a5:f2:3e:41:ca:cb:c7:7f:da:bd:44:24:
         e6:cc:94:73:c2:d9:72:1d:59:63:c8:41:85:44:7a:92:05:81:
         f8:83:f3:f6:ee:1e:66:f7:43:2b:74:8b:ac:3a:78:e6:cd:a8:
         3d:2f:fb:2c:cf:45:86:85:c2:91:3f:d0:0a:f0:bb:70:05:c2:
         3b:2e:a1:b5:de:ed:bc:61:d9:cd:81:25:cd:e8:bf:05:22:9c:
         d1:16:00:b5:97:a9:86:a4:50:ee:16:9d:7c:e9:6f:c5:7c:8c:
         24:00:cd:04:0f:80:96:e1:8a:f4:1b:51:4f:f5:77:3d:55:94:
         23:30:35:07:ad:db:a0:46
-----BEGIN CERTIFICATE-----
MIIHSDCCBTCgAwIBAgICAjIwDQYJKoZIhvcNAQEFBQAwgbQxCzAJBgNVBAYTAlVT
MQswCQYDVQQIEwJDQTEVMBMGA1UEBxMMU2FuRnJhbmNpc2NvMRUwEwYDVQQKEwxQ
aXhnbG8sIEluYy4xEDAOBgNVBAsTB1ZQTi1DSUUxGjAYBgNVBAMTEXR1bm5lbC5w
aXhnbG8uY29tMRwwGgYDVQQpExNCYWxhIENoYW5kcmFzZWthcmFuMR4wHAYJKoZI
hvcNAQkBFg9iYWxhQHBpeGdsby5jb20wHhcNMTgwMjE0MDYzNzEyWhcNMjgwMjEy
MDYzNzEyWjCBqTELMAkGA1UEBhMCVVMxCzAJBgNVBAgTAkNBMRUwEwYDVQQHEwxT
YW5GcmFuY2lzY28xFTATBgNVBAoTDFBpeGdsbywgSW5jLjEQMA4GA1UECxMHVlBO
LUNJRTEPMA0GA1UEAxMGY2llNTYxMRwwGgYDVQQpExNCYWxhIENoYW5kcmFzZWth
cmFuMR4wHAYJKoZIhvcNAQkBFg9iYWxhQHBpeGdsby5jb20wggIiMA0GCSqGSIb3
DQEBAQUAA4ICDwAwggIKAoICAQCdwYfNw3i5JPYMmRLx3vYT8pWCcAANdr/3ZFBI
Oz2ONtFvdApkqw+k+kUaXbe2Q0ewM8wC3alVX3100TzEYZCQYAd1Y4GASNbn0436
BiEoGYYmtvKZMvOJbF9s+KpYuaJ3ECLpdihoZQhQ74PxGwdz398VrCQKKnKOvDZ4
mhDxev5Md7rtk8ZSGf7WjhHtL1wpgsHGcwu92t+/h36Tz3+ivwUA62xRHWXZ2wiT
ZSDpw1V+Ln9as3AV7w2LdJZsq7mzXiZDJ9ywHAozTZUu42XNQKjzipZveM7/2r3m
+dEAi3VGWhzZaEPY6JbkIDT5Iy++lPqBfEva1T4b7vf26gYS7jJjp8AddJ22/1M6
YJrRQukUfEVAv6caYJz09gyIpin0SKm4Ql6vIYDMw2sJgvInKzjhyWZcUOoZwOZD
zn0NQSxGlmLiwo0YgbytcH/zuEzID40T5p/IrsJMnEd34ZwAGbRYaX1FNtw9YBph
/umG2a8lhGAh4ssIWSWXp6bVPi4HV4IRXxy/Wahy1bNl774MyNhr3xKbEiBT/H9O
cL9dw7i3iWQICInvjijnaA4i3hUwI4itZTAXxWxkjyDuRjT3xqXMLTchwyww1yYN
4kO6nkHpswnDo8q3SM/+FpCnjsG8d2wyx+algDNRUxETMBEIiovCPM6RkWeCcD/C
NzPkCwIDAQABo4IBazCCAWcwCQYDVR0TBAIwADAtBglghkgBhvhCAQ0EIBYeRWFz
eS1SU0EgR2VuZXJhdGVkIENlcnRpZmljYXRlMB0GA1UdDgQWBBTM2WQH13Jmer4d
NwRKDnKKDA2n7DCB6QYDVR0jBIHhMIHegBTvOI0UUFinW02cF3L837msp1GwEKGB
uqSBtzCBtDELMAkGA1UEBhMCVVMxCzAJBgNVBAgTAkNBMRUwEwYDVQQHEwxTYW5G
cmFuY2lzY28xFTATBgNVBAoTDFBpeGdsbywgSW5jLjEQMA4GA1UECxMHVlBOLUNJ
RTEaMBgGA1UEAxMRdHVubmVsLnBpeGdsby5jb20xHDAaBgNVBCkTE0JhbGEgQ2hh
bmRyYXNla2FyYW4xHjAcBgkqhkiG9w0BCQEWD2JhbGFAcGl4Z2xvLmNvbYIJAKbb
xoOA5qB5MBMGA1UdJQQMMAoGCCsGAQUFBwMCMAsGA1UdDwQEAwIHgDANBgkqhkiG
9w0BAQUFAAOCAgEACzrS2ZNQOGqqNMl9knYz6D5WHp2aP8O/iDliblShh7j+1Z3K
bnVzv8JYthTPMxGN6wAFPDOv2V+fkQERzKw87Y7xjxSkIMyXbGdgv4FAw63NdX1G
SdsFed5690/N6bIzPssX0nEW8FpNeQqB7pcQoyjP+i3hfA6j+m/aWLibLd2oBbmN
A7EuXRaq6JonkrYonS6i213WVakW3YxuiTpq1uJqnUzuojc7TRqFwLXtN0DnirMp
GnNwyNIJ806XDYhTKIE7dImCndH9OH29WuST0VrnY4u8cIQE43B7pnkKs9CC9ldo
jMfRLhHNVEUOBMWbX3LehOxjiNN8jzoBjuqh+AZV6MNPQyJmEH0bGeshuzdlCT+X
/WuZEJ1xgdcFpCf24GBJxNu6ooTEqh0MeeEH6Kt5si7nnDiTGRbF8aRywgVuacLr
ZCYToSHTObY4sC0bE0jN8uPV1MvCsDCmU+7brJwLUD5hOL8bRACGOnIoVgKpYCEU
6sDd83qcx8D78vxwpfI+QcrLx3/avUQk5syUc8LZch1ZY8hBhUR6kgWB+IPz9u4e
ZvdDK3SLrDp45s2oPS/7LM9FhoXCkT/QCvC7cAXCOy6htd7tvGHZzYElzei/BSKc
0RYAtZephqRQ7hadfOlvxXyMJADNBA+AluGK9BtRT/V3PVWUIzA1B63boEY=
-----END CERTIFICATE-----
