Certificate:
    Data:
        Version: 3 (0x2)
        Serial Number: 555 (0x22b)
    Signature Algorithm: sha1WithRSAEncryption
        Issuer: C=US, ST=CA, L=SanFrancisco, O=Pixglo, Inc., OU=VPN-CIE, CN=tunnel.pixglo.com/name=Bala Chandrasekaran/emailAddress=bala@pixglo.com
        Validity
            Not Before: Feb 14 06:37:03 2018 GMT
            Not After : Feb 12 06:37:03 2028 GMT
        Subject: C=US, ST=CA, L=SanFrancisco, O=Pixglo, Inc., OU=VPN-CIE, CN=cie554/name=Bala Chandrasekaran/emailAddress=bala@pixglo.com
        Subject Public Key Info:
            Public Key Algorithm: rsaEncryption
                Public-Key: (4096 bit)
                Modulus:
                    00:b5:c7:e4:70:5f:ae:13:74:73:52:6b:27:16:fe:
                    11:e4:23:e9:99:12:74:a3:d3:cf:eb:c7:53:d3:56:
                    09:e4:00:07:86:cb:06:10:48:34:39:5d:81:65:b7:
                    71:51:ba:68:fb:34:94:66:a8:6c:3c:53:4c:6d:21:
                    8a:1d:1e:df:18:e4:64:3e:19:c8:f4:de:65:81:9e:
                    a4:f5:3f:e6:9c:ac:2e:19:e1:66:37:0e:60:61:dd:
                    06:6a:d4:51:33:90:ed:c3:26:3d:5f:dd:54:fc:c9:
                    12:75:2a:88:d7:2a:2b:99:f3:ae:dc:f1:fb:2a:38:
                    a2:1b:8f:67:39:96:6a:40:51:48:4b:3d:be:e8:05:
                    09:35:fc:a9:aa:19:11:51:51:a4:f1:af:47:72:d3:
                    71:4b:56:e8:c8:20:51:26:45:f7:c6:24:00:18:ed:
                    da:d6:6d:c2:0b:d3:26:4e:37:e1:f5:ef:27:f7:32:
                    99:37:92:fe:6a:6c:6e:7d:e6:a8:a6:63:e6:22:63:
                    52:52:f5:95:cb:d1:b2:6f:45:68:1b:78:be:fb:d1:
                    54:69:30:25:35:60:7a:35:71:fa:76:61:d0:6e:19:
                    5f:c5:ea:72:a6:5c:ad:f6:ad:e6:63:30:28:2e:ba:
                    6e:eb:4f:6f:4e:0c:f5:0c:a0:1b:ab:53:9f:5f:ea:
                    d3:51:0d:5a:fd:c5:de:4b:3c:4e:23:c8:16:ac:75:
                    1d:8c:57:8f:99:61:08:6f:c2:9e:b9:08:7c:5d:e0:
                    64:e5:84:ad:c9:42:71:81:e3:59:67:39:d2:ff:24:
                    7c:34:cb:33:af:8f:38:42:b8:45:bf:7a:e8:14:ca:
                    d2:75:ad:a6:87:33:0c:19:01:23:02:68:c5:49:ac:
                    07:06:63:49:70:2f:de:f7:ea:d7:b2:32:06:62:52:
                    bc:b8:db:21:c2:4a:b8:4b:a1:c1:c1:d2:c6:5d:36:
                    aa:74:b6:e0:5d:40:fc:89:65:5c:9e:6c:b7:73:b9:
                    9b:ea:97:35:4e:d3:60:10:b1:54:56:c7:7f:0d:91:
                    3f:1f:49:19:08:5e:dc:47:8d:99:f5:30:27:de:9b:
                    60:f4:d0:59:56:1f:e6:6c:f4:23:b2:07:6d:26:be:
                    5f:12:2d:ca:27:7c:dc:c4:fb:1c:85:44:b4:17:8d:
                    77:d6:84:be:ec:d8:94:f1:9d:57:c8:6d:f4:ef:b6:
                    20:87:d0:f6:ab:0f:3e:6e:3e:15:45:36:67:d2:5b:
                    7b:6f:61:19:5e:67:ca:5f:b8:35:44:d7:83:7f:f1:
                    d4:61:c8:42:d3:01:c7:26:4a:56:e3:a5:d7:f3:5d:
                    62:6b:d0:3a:4e:f7:31:4c:11:33:d1:28:f4:b2:f9:
                    ab:e7:b1
                Exponent: 65537 (0x10001)
        X509v3 extensions:
            X509v3 Basic Constraints: 
                CA:FALSE
            Netscape Comment: 
                Easy-RSA Generated Certificate
            X509v3 Subject Key Identifier: 
                06:1D:14:64:D1:8F:A8:F1:B2:62:39:EF:7B:85:A4:41:11:B6:B2:CA
            X509v3 Authority Key Identifier: 
                keyid:EF:38:8D:14:50:58:A7:5B:4D:9C:17:72:FC:DF:B9:AC:A7:51:B0:10
                DirName:/C=US/ST=CA/L=SanFrancisco/O=Pixglo, Inc./OU=VPN-CIE/CN=tunnel.pixglo.com/name=Bala Chandrasekaran/emailAddress=bala@pixglo.com
                serial:A6:DB:C6:83:80:E6:A0:79

            X509v3 Extended Key Usage: 
                TLS Web Client Authentication
            X509v3 Key Usage: 
                Digital Signature
    Signature Algorithm: sha1WithRSAEncryption
         67:40:e3:6d:a2:dc:72:45:4d:d6:e7:09:3b:65:00:7b:95:e7:
         51:ad:d9:69:0d:1f:d6:8d:8c:20:89:28:a7:2c:5e:2e:ed:8d:
         30:ff:85:b8:df:f2:4a:de:35:ef:53:0f:ed:7f:31:b8:cb:80:
         92:50:6f:0d:2c:ae:73:22:4f:f8:f7:27:f1:63:65:75:0a:27:
         db:ff:6f:54:46:6a:df:a3:bf:cb:20:c9:30:15:58:12:07:df:
         2f:74:8b:75:1b:e8:e5:d3:10:c9:a1:7b:f2:f0:af:57:3d:d1:
         a0:1b:b6:86:03:73:d7:e6:d6:9e:de:b5:21:15:f6:44:28:df:
         fd:53:70:7d:fb:b8:ca:eb:13:cd:c1:cc:e5:e5:e4:d8:cd:9d:
         58:20:9f:ab:5a:9c:40:73:49:e1:ed:0a:ce:54:ee:aa:5a:17:
         11:1e:59:b1:66:04:95:59:2d:06:a8:d8:7a:4d:d2:3b:75:f8:
         ca:0f:0e:a9:74:30:bb:a5:b7:f8:ba:ef:d5:dc:d8:02:7b:b8:
         d2:5c:b7:c1:e7:c3:53:c6:09:b5:e7:0b:d4:d1:05:2b:f9:e2:
         8a:85:d5:81:dc:ad:61:c2:dc:ae:08:ee:77:23:08:c7:55:5a:
         56:09:e3:17:df:74:7c:21:50:de:b2:84:c0:ac:c5:b6:2e:ad:
         b5:da:e3:89:a3:f7:c9:47:ea:6c:e3:3d:60:4c:0c:da:39:40:
         75:05:ae:92:fa:b5:f2:bb:97:b9:98:75:e6:4d:72:9a:bd:9d:
         ee:d5:c2:fa:27:dd:7d:df:cd:cf:6b:5c:49:c7:13:8b:f0:5f:
         cf:4c:b8:df:42:36:29:10:ac:18:70:e6:6d:d9:f1:1a:ee:d3:
         68:b3:04:6e:73:13:7a:7c:f5:89:4c:92:32:e5:f7:76:0d:7f:
         ce:4e:fa:ee:18:9b:e8:a9:9f:b7:be:6e:b4:39:f5:38:83:44:
         8b:6e:bb:81:a8:2d:06:25:dc:3b:61:e1:70:46:ff:f5:fd:0d:
         9c:e3:e0:15:0d:48:ba:08:af:b1:42:c7:37:c7:e8:d2:10:9e:
         0a:60:e9:31:15:0a:c2:a0:c7:2e:86:d1:92:51:29:a3:8f:be:
         d2:fc:a5:d2:f0:9b:5f:5f:3f:03:9c:e7:20:5f:59:cb:3c:88:
         08:91:49:bf:89:38:fe:fc:ce:79:a8:70:10:50:a1:ba:5b:70:
         5c:b6:51:16:d8:2d:1d:44:19:38:c5:39:84:43:df:72:29:5d:
         58:d8:dd:72:e2:b2:b3:18:e2:2b:e0:53:60:47:fb:ae:a7:2c:
         04:b0:24:41:f4:b6:67:d2:60:75:4f:ec:dd:c1:e7:02:52:15:
         38:2e:60:31:d8:cb:bc:be
-----BEGIN CERTIFICATE-----
MIIHSDCCBTCgAwIBAgICAiswDQYJKoZIhvcNAQEFBQAwgbQxCzAJBgNVBAYTAlVT
MQswCQYDVQQIEwJDQTEVMBMGA1UEBxMMU2FuRnJhbmNpc2NvMRUwEwYDVQQKEwxQ
aXhnbG8sIEluYy4xEDAOBgNVBAsTB1ZQTi1DSUUxGjAYBgNVBAMTEXR1bm5lbC5w
aXhnbG8uY29tMRwwGgYDVQQpExNCYWxhIENoYW5kcmFzZWthcmFuMR4wHAYJKoZI
hvcNAQkBFg9iYWxhQHBpeGdsby5jb20wHhcNMTgwMjE0MDYzNzAzWhcNMjgwMjEy
MDYzNzAzWjCBqTELMAkGA1UEBhMCVVMxCzAJBgNVBAgTAkNBMRUwEwYDVQQHEwxT
YW5GcmFuY2lzY28xFTATBgNVBAoTDFBpeGdsbywgSW5jLjEQMA4GA1UECxMHVlBO
LUNJRTEPMA0GA1UEAxMGY2llNTU0MRwwGgYDVQQpExNCYWxhIENoYW5kcmFzZWth
cmFuMR4wHAYJKoZIhvcNAQkBFg9iYWxhQHBpeGdsby5jb20wggIiMA0GCSqGSIb3
DQEBAQUAA4ICDwAwggIKAoICAQC1x+RwX64TdHNSaycW/hHkI+mZEnSj08/rx1PT
VgnkAAeGywYQSDQ5XYFlt3FRumj7NJRmqGw8U0xtIYodHt8Y5GQ+Gcj03mWBnqT1
P+acrC4Z4WY3DmBh3QZq1FEzkO3DJj1f3VT8yRJ1KojXKiuZ867c8fsqOKIbj2c5
lmpAUUhLPb7oBQk1/KmqGRFRUaTxr0dy03FLVujIIFEmRffGJAAY7drWbcIL0yZO
N+H17yf3Mpk3kv5qbG595qimY+YiY1JS9ZXL0bJvRWgbeL770VRpMCU1YHo1cfp2
YdBuGV/F6nKmXK32reZjMCguum7rT29ODPUMoBurU59f6tNRDVr9xd5LPE4jyBas
dR2MV4+ZYQhvwp65CHxd4GTlhK3JQnGB41lnOdL/JHw0yzOvjzhCuEW/eugUytJ1
raaHMwwZASMCaMVJrAcGY0lwL9736teyMgZiUry42yHCSrhLocHB0sZdNqp0tuBd
QPyJZVyebLdzuZvqlzVO02AQsVRWx38NkT8fSRkIXtxHjZn1MCfem2D00FlWH+Zs
9COyB20mvl8SLconfNzE+xyFRLQXjXfWhL7s2JTxnVfIbfTvtiCH0ParDz5uPhVF
NmfSW3tvYRleZ8pfuDVE14N/8dRhyELTAccmSlbjpdfzXWJr0DpO9zFMETPRKPSy
+avnsQIDAQABo4IBazCCAWcwCQYDVR0TBAIwADAtBglghkgBhvhCAQ0EIBYeRWFz
eS1SU0EgR2VuZXJhdGVkIENlcnRpZmljYXRlMB0GA1UdDgQWBBQGHRRk0Y+o8bJi
Oe97haRBEbayyjCB6QYDVR0jBIHhMIHegBTvOI0UUFinW02cF3L837msp1GwEKGB
uqSBtzCBtDELMAkGA1UEBhMCVVMxCzAJBgNVBAgTAkNBMRUwEwYDVQQHEwxTYW5G
cmFuY2lzY28xFTATBgNVBAoTDFBpeGdsbywgSW5jLjEQMA4GA1UECxMHVlBOLUNJ
RTEaMBgGA1UEAxMRdHVubmVsLnBpeGdsby5jb20xHDAaBgNVBCkTE0JhbGEgQ2hh
bmRyYXNla2FyYW4xHjAcBgkqhkiG9w0BCQEWD2JhbGFAcGl4Z2xvLmNvbYIJAKbb
xoOA5qB5MBMGA1UdJQQMMAoGCCsGAQUFBwMCMAsGA1UdDwQEAwIHgDANBgkqhkiG
9w0BAQUFAAOCAgEAZ0DjbaLcckVN1ucJO2UAe5XnUa3ZaQ0f1o2MIIkopyxeLu2N
MP+FuN/ySt4171MP7X8xuMuAklBvDSyucyJP+Pcn8WNldQon2/9vVEZq36O/yyDJ
MBVYEgffL3SLdRvo5dMQyaF78vCvVz3RoBu2hgNz1+bWnt61IRX2RCjf/VNwffu4
yusTzcHM5eXk2M2dWCCfq1qcQHNJ4e0KzlTuqloXER5ZsWYElVktBqjYek3SO3X4
yg8OqXQwu6W3+Lrv1dzYAnu40ly3wefDU8YJtecL1NEFK/niioXVgdytYcLcrgju
dyMIx1VaVgnjF990fCFQ3rKEwKzFti6ttdrjiaP3yUfqbOM9YEwM2jlAdQWukvq1
8ruXuZh15k1ymr2d7tXC+ifdfd/Nz2tcSccTi/Bfz0y430I2KRCsGHDmbdnxGu7T
aLMEbnMTenz1iUySMuX3dg1/zk767hib6Kmft75utDn1OINEi267gagtBiXcO2Hh
cEb/9f0NnOPgFQ1IugivsULHN8fo0hCeCmDpMRUKwqDHLobRklEpo4++0vyl0vCb
X18/A5znIF9ZyzyICJFJv4k4/vzOeahwEFChultwXLZRFtgtHUQZOMU5hEPfcild
WNjdcuKysxjiK+BTYEf7rqcsBLAkQfS2Z9JgdU/s3cHnAlIVOC5gMdjLvL4=
-----END CERTIFICATE-----
