Certificate:
    Data:
        Version: 3 (0x2)
        Serial Number: 528 (0x210)
    Signature Algorithm: sha1WithRSAEncryption
        Issuer: C=US, ST=CA, L=SanFrancisco, O=Pixglo, Inc., OU=VPN-CIE, CN=tunnel.pixglo.com/name=Bala Chandrasekaran/emailAddress=bala@pixglo.com
        Validity
            Not Before: Feb 14 06:36:23 2018 GMT
            Not After : Feb 12 06:36:23 2028 GMT
        Subject: C=US, ST=CA, L=SanFrancisco, O=Pixglo, Inc., OU=VPN-CIE, CN=cie527/name=Bala Chandrasekaran/emailAddress=bala@pixglo.com
        Subject Public Key Info:
            Public Key Algorithm: rsaEncryption
                Public-Key: (4096 bit)
                Modulus:
                    00:ce:f3:fe:d0:8a:72:5a:d5:57:11:98:77:0d:d4:
                    96:91:e7:b1:61:2a:d2:f5:be:58:60:7f:1f:cc:ae:
                    b6:1c:02:0c:2c:61:53:22:3a:25:a5:b8:49:4b:cf:
                    fc:74:d6:83:87:cc:44:16:fc:0a:7c:a0:63:13:eb:
                    1e:6d:6e:84:41:07:4a:17:71:af:f3:bc:5b:77:4b:
                    1f:b6:f5:79:fd:03:e0:61:5e:89:b1:37:27:ac:49:
                    c3:1e:83:f2:cb:69:85:6a:34:72:66:ca:a7:75:d1:
                    0b:48:51:5e:84:42:7c:5d:7a:c8:ca:1f:cf:93:7f:
                    de:58:18:96:59:fd:ff:e9:b2:62:0b:23:77:b0:54:
                    1d:d4:36:6d:8e:e2:a1:1a:18:0d:ae:69:37:26:f4:
                    5e:d7:f6:2b:77:c5:5e:e3:52:13:e4:e7:49:e8:a1:
                    63:90:79:31:03:9b:37:64:3d:14:9a:ff:03:1b:0f:
                    3a:66:86:df:41:a7:bf:e7:45:93:ad:2b:65:84:66:
                    3c:e1:6d:80:17:95:d2:ab:58:c1:3b:c2:92:08:28:
                    a7:6e:39:2b:ac:37:83:0a:22:5d:c2:be:d5:e5:99:
                    6c:9b:b9:88:34:99:e1:1b:8c:af:76:28:82:bc:cd:
                    3f:04:83:9f:a5:23:46:97:2a:48:3f:ee:6c:4b:61:
                    a7:5d:6c:8f:2c:b4:d1:95:77:8d:f4:78:4e:b9:0e:
                    ec:53:86:36:2c:af:e2:6a:4c:a4:e4:fd:09:e2:12:
                    b3:47:f8:3a:01:7c:3c:57:11:89:ff:07:94:ac:3c:
                    7f:be:48:60:6d:33:1d:f2:bb:f5:ae:77:1e:34:b6:
                    8e:0f:2b:09:2d:80:6b:72:89:ca:82:c3:1c:d0:97:
                    04:b5:cd:e1:c2:f2:07:02:5d:6b:97:23:f1:5b:6b:
                    0a:61:0c:a0:d9:bc:fd:5f:b9:3a:da:4b:b7:f1:dc:
                    d5:ed:09:33:d1:56:49:e7:95:cd:94:66:e4:e2:50:
                    f8:4c:27:d3:ad:d5:e0:e0:95:40:a3:d5:76:0b:98:
                    f4:aa:03:b1:3e:4f:7a:ad:b7:d0:d0:ff:04:a2:2e:
                    3d:a6:05:a4:33:84:5b:55:28:ee:12:86:13:2f:c1:
                    6c:b0:fb:e9:af:ed:30:90:52:05:82:0d:fc:58:97:
                    78:3c:04:4f:38:d4:01:c7:01:f3:a1:83:4f:8c:5c:
                    54:2e:4b:8d:b5:cc:1d:ca:d3:b4:36:d9:7e:eb:49:
                    22:f0:fa:2d:5a:93:93:bf:c1:bb:fb:21:e9:1f:5e:
                    ea:f1:dd:81:1f:d9:d6:94:92:66:9e:f7:8a:4b:cd:
                    56:08:3b:d6:ab:3d:7a:f7:2e:f7:b4:aa:37:0c:c1:
                    56:7a:3d
                Exponent: 65537 (0x10001)
        X509v3 extensions:
            X509v3 Basic Constraints: 
                CA:FALSE
            Netscape Comment: 
                Easy-RSA Generated Certificate
            X509v3 Subject Key Identifier: 
                32:FF:8F:B1:81:DB:06:4C:DF:B4:5E:AB:24:ED:9D:0B:76:D8:19:FF
            X509v3 Authority Key Identifier: 
                keyid:EF:38:8D:14:50:58:A7:5B:4D:9C:17:72:FC:DF:B9:AC:A7:51:B0:10
                DirName:/C=US/ST=CA/L=SanFrancisco/O=Pixglo, Inc./OU=VPN-CIE/CN=tunnel.pixglo.com/name=Bala Chandrasekaran/emailAddress=bala@pixglo.com
                serial:A6:DB:C6:83:80:E6:A0:79

            X509v3 Extended Key Usage: 
                TLS Web Client Authentication
            X509v3 Key Usage: 
                Digital Signature
    Signature Algorithm: sha1WithRSAEncryption
         d4:3a:7d:ec:ab:ba:3a:57:fd:cb:6a:42:78:9a:68:1b:36:99:
         3c:6a:41:9b:45:21:9c:5f:6b:a1:53:47:40:82:da:8d:ea:29:
         b8:f0:4d:03:5f:92:0e:28:68:f1:b6:56:b3:4d:d8:23:f9:7a:
         4f:77:b5:e4:fd:8d:e9:24:10:82:c0:bd:16:92:b1:40:3b:9d:
         e2:14:8f:25:e9:e9:81:9e:38:6d:2b:40:b0:0a:a0:60:4e:37:
         84:64:5f:35:8b:b9:fe:b5:d1:4e:2b:05:db:16:9b:24:9a:87:
         77:97:8b:6c:f1:91:d9:f3:84:0a:93:8e:89:3a:7b:76:27:51:
         1a:36:d7:79:46:b5:93:1b:16:67:f5:d0:ff:be:57:5d:80:87:
         de:48:44:9a:bb:91:62:9b:f7:e1:18:ea:c3:1f:82:71:e7:c8:
         79:df:14:fc:ca:0e:e7:e9:71:21:c0:98:1e:67:54:32:bd:fb:
         d8:65:ec:ae:a4:49:29:9a:c6:7e:7d:55:aa:49:76:15:db:aa:
         3c:29:df:b5:a8:4a:4c:8f:55:7b:cc:10:67:73:01:ad:bc:30:
         66:27:28:42:df:c4:34:0b:af:aa:ac:f0:3a:c2:e3:07:4e:a2:
         4c:5a:90:6a:03:41:9b:85:1a:dc:4c:64:fc:3e:68:37:fc:03:
         d7:07:84:09:fa:ea:63:17:06:61:73:5c:10:04:af:e9:4a:0d:
         a1:c3:6e:47:ed:ec:3e:11:1b:9e:98:0f:b8:bb:15:54:27:aa:
         a5:63:c5:55:bd:9a:b7:21:85:76:3c:61:84:6c:5c:b5:9e:de:
         f8:86:f5:92:ca:7e:ab:e9:57:35:d1:cf:7d:cd:d2:b5:c2:15:
         2d:ca:cb:bc:22:d2:6e:b6:1d:8f:64:5f:c0:05:69:26:ea:71:
         38:14:b9:fa:7d:8c:31:f5:fa:64:87:ad:1b:b7:cb:af:24:9d:
         d9:ec:94:06:40:6d:7d:41:1b:cb:55:70:9b:8d:4f:b6:8d:cd:
         60:22:69:a2:69:fc:b6:a4:ca:49:47:f5:65:fd:d1:65:bc:eb:
         b9:56:1d:47:45:a5:72:f5:06:f8:20:69:93:81:82:4c:84:d0:
         48:0a:8d:eb:e5:50:db:5e:20:c0:b1:47:92:31:0e:fd:20:46:
         df:31:53:b7:26:f1:8c:88:45:1b:bb:da:b6:a0:c1:cf:4a:af:
         b4:47:02:9c:ea:a7:4c:ef:66:0c:c5:3a:71:5f:bb:d3:6f:58:
         f5:1b:d3:5e:4d:c3:47:bc:10:94:bc:55:41:d4:a6:1c:56:c5:
         e5:d2:07:2b:1c:27:a6:ca:b9:4d:63:3e:79:0c:e3:9a:b5:05:
         41:83:3b:23:00:d9:7c:dc
-----BEGIN CERTIFICATE-----
MIIHSDCCBTCgAwIBAgICAhAwDQYJKoZIhvcNAQEFBQAwgbQxCzAJBgNVBAYTAlVT
MQswCQYDVQQIEwJDQTEVMBMGA1UEBxMMU2FuRnJhbmNpc2NvMRUwEwYDVQQKEwxQ
aXhnbG8sIEluYy4xEDAOBgNVBAsTB1ZQTi1DSUUxGjAYBgNVBAMTEXR1bm5lbC5w
aXhnbG8uY29tMRwwGgYDVQQpExNCYWxhIENoYW5kcmFzZWthcmFuMR4wHAYJKoZI
hvcNAQkBFg9iYWxhQHBpeGdsby5jb20wHhcNMTgwMjE0MDYzNjIzWhcNMjgwMjEy
MDYzNjIzWjCBqTELMAkGA1UEBhMCVVMxCzAJBgNVBAgTAkNBMRUwEwYDVQQHEwxT
YW5GcmFuY2lzY28xFTATBgNVBAoTDFBpeGdsbywgSW5jLjEQMA4GA1UECxMHVlBO
LUNJRTEPMA0GA1UEAxMGY2llNTI3MRwwGgYDVQQpExNCYWxhIENoYW5kcmFzZWth
cmFuMR4wHAYJKoZIhvcNAQkBFg9iYWxhQHBpeGdsby5jb20wggIiMA0GCSqGSIb3
DQEBAQUAA4ICDwAwggIKAoICAQDO8/7QinJa1VcRmHcN1JaR57FhKtL1vlhgfx/M
rrYcAgwsYVMiOiWluElLz/x01oOHzEQW/Ap8oGMT6x5tboRBB0oXca/zvFt3Sx+2
9Xn9A+BhXomxNyesScMeg/LLaYVqNHJmyqd10QtIUV6EQnxdesjKH8+Tf95YGJZZ
/f/psmILI3ewVB3UNm2O4qEaGA2uaTcm9F7X9it3xV7jUhPk50nooWOQeTEDmzdk
PRSa/wMbDzpmht9Bp7/nRZOtK2WEZjzhbYAXldKrWME7wpIIKKduOSusN4MKIl3C
vtXlmWybuYg0meEbjK92KIK8zT8Eg5+lI0aXKkg/7mxLYaddbI8stNGVd430eE65
DuxThjYsr+JqTKTk/QniErNH+DoBfDxXEYn/B5SsPH++SGBtMx3yu/Wudx40to4P
KwktgGtyicqCwxzQlwS1zeHC8gcCXWuXI/FbawphDKDZvP1fuTraS7fx3NXtCTPR
Vknnlc2UZuTiUPhMJ9Ot1eDglUCj1XYLmPSqA7E+T3qtt9DQ/wSiLj2mBaQzhFtV
KO4ShhMvwWyw++mv7TCQUgWCDfxYl3g8BE841AHHAfOhg0+MXFQuS421zB3K07Q2
2X7rSSLw+i1ak5O/wbv7IekfXurx3YEf2daUkmae94pLzVYIO9arPXr3Lve0qjcM
wVZ6PQIDAQABo4IBazCCAWcwCQYDVR0TBAIwADAtBglghkgBhvhCAQ0EIBYeRWFz
eS1SU0EgR2VuZXJhdGVkIENlcnRpZmljYXRlMB0GA1UdDgQWBBQy/4+xgdsGTN+0
Xqsk7Z0LdtgZ/zCB6QYDVR0jBIHhMIHegBTvOI0UUFinW02cF3L837msp1GwEKGB
uqSBtzCBtDELMAkGA1UEBhMCVVMxCzAJBgNVBAgTAkNBMRUwEwYDVQQHEwxTYW5G
cmFuY2lzY28xFTATBgNVBAoTDFBpeGdsbywgSW5jLjEQMA4GA1UECxMHVlBOLUNJ
RTEaMBgGA1UEAxMRdHVubmVsLnBpeGdsby5jb20xHDAaBgNVBCkTE0JhbGEgQ2hh
bmRyYXNla2FyYW4xHjAcBgkqhkiG9w0BCQEWD2JhbGFAcGl4Z2xvLmNvbYIJAKbb
xoOA5qB5MBMGA1UdJQQMMAoGCCsGAQUFBwMCMAsGA1UdDwQEAwIHgDANBgkqhkiG
9w0BAQUFAAOCAgEA1Dp97Ku6Olf9y2pCeJpoGzaZPGpBm0UhnF9roVNHQILajeop
uPBNA1+SDiho8bZWs03YI/l6T3e15P2N6SQQgsC9FpKxQDud4hSPJenpgZ44bStA
sAqgYE43hGRfNYu5/rXRTisF2xabJJqHd5eLbPGR2fOECpOOiTp7didRGjbXeUa1
kxsWZ/XQ/75XXYCH3khEmruRYpv34Rjqwx+CcefIed8U/MoO5+lxIcCYHmdUMr37
2GXsrqRJKZrGfn1Vqkl2FduqPCnftahKTI9Ve8wQZ3MBrbwwZicoQt/ENAuvqqzw
OsLjB06iTFqQagNBm4Ua3Exk/D5oN/wD1weECfrqYxcGYXNcEASv6UoNocNuR+3s
PhEbnpgPuLsVVCeqpWPFVb2atyGFdjxhhGxctZ7e+Ib1ksp+q+lXNdHPfc3StcIV
LcrLvCLSbrYdj2RfwAVpJupxOBS5+n2MMfX6ZIetG7fLrySd2eyUBkBtfUEby1Vw
m41Pto3NYCJpomn8tqTKSUf1Zf3RZbzruVYdR0WlcvUG+CBpk4GCTITQSAqN6+VQ
214gwLFHkjEO/SBG3zFTtybxjIhFG7vatqDBz0qvtEcCnOqnTO9mDMU6cV+7029Y
9RvTXk3DR7wQlLxVQdSmHFbF5dIHKxwnpsq5TWM+eQzjmrUFQYM7IwDZfNw=
-----END CERTIFICATE-----
