Certificate:
    Data:
        Version: 3 (0x2)
        Serial Number: 565 (0x235)
    Signature Algorithm: sha1WithRSAEncryption
        Issuer: C=US, ST=CA, L=SanFrancisco, O=Pixglo, Inc., OU=VPN-CIE, CN=tunnel.pixglo.com/name=Bala Chandrasekaran/emailAddress=bala@pixglo.com
        Validity
            Not Before: Feb 14 06:37:16 2018 GMT
            Not After : Feb 12 06:37:16 2028 GMT
        Subject: C=US, ST=CA, L=SanFrancisco, O=Pixglo, Inc., OU=VPN-CIE, CN=cie564/name=Bala Chandrasekaran/emailAddress=bala@pixglo.com
        Subject Public Key Info:
            Public Key Algorithm: rsaEncryption
                Public-Key: (4096 bit)
                Modulus:
                    00:cc:62:10:6d:d1:cb:75:97:43:33:c5:ca:06:f6:
                    c7:2c:c0:97:cd:6c:b6:63:84:e3:d6:d6:b6:ae:3e:
                    1f:77:e6:eb:45:40:3e:37:90:13:60:af:2e:d4:f0:
                    48:05:f4:42:83:ac:0b:98:fc:63:c4:f2:33:74:29:
                    de:7f:d4:fe:d3:2e:0a:e7:f6:46:40:eb:a6:f6:38:
                    3a:5a:ce:34:d9:c0:7c:dd:72:42:af:d0:e4:75:68:
                    e9:2d:ae:5b:8d:0f:80:4b:b8:85:51:f3:9e:3e:24:
                    53:cb:3a:24:3a:d6:85:a7:e7:8a:42:cd:8d:01:f1:
                    c4:90:cc:39:a5:a6:d4:7f:77:be:0d:57:af:a1:c7:
                    e3:81:71:2e:7d:94:e7:6a:9a:5d:ad:7b:33:45:ea:
                    9e:fc:97:67:be:96:eb:fc:0f:91:59:1c:7a:07:ff:
                    38:2f:b8:48:5d:d8:40:69:b6:a8:80:da:b0:2c:d7:
                    82:7d:87:0e:ec:5c:66:6c:08:af:21:9a:7b:3c:39:
                    ba:93:a4:1a:26:86:cf:7a:c6:e1:c3:02:66:71:10:
                    c8:fc:ea:b0:65:e0:e1:6c:c2:e7:95:ef:95:ba:dc:
                    0a:a4:02:23:45:39:e5:ae:45:a4:b1:a8:14:04:8d:
                    b9:f8:60:47:92:4a:da:8d:11:e4:34:83:70:2a:24:
                    5a:37:5e:1c:d3:a6:50:47:56:d0:1f:2b:50:0d:1d:
                    38:88:39:b4:2b:42:bb:c6:9d:70:95:9c:a4:b2:ff:
                    05:64:0b:64:ae:28:8b:e1:5b:16:da:4d:74:be:e2:
                    63:0e:36:84:8e:ef:17:12:30:c9:f6:e9:81:dc:9b:
                    3e:a0:70:13:78:8e:fd:71:6c:36:c3:53:03:8b:e1:
                    ca:5c:f9:b1:f4:d8:29:1e:4b:a2:7c:f3:de:1a:34:
                    36:da:10:80:35:32:5d:c6:b9:30:cf:1b:f7:58:6f:
                    04:3c:4b:4c:06:20:cc:76:64:f3:5f:a7:75:88:c4:
                    31:63:5d:0d:2c:5c:29:d3:d8:ac:99:55:5b:de:b6:
                    0b:27:34:fb:b6:71:3b:7e:69:16:a4:a4:11:c6:e8:
                    dd:52:ec:68:fd:44:f7:cd:03:34:b7:82:e2:1f:6b:
                    60:04:7e:21:e3:da:a7:b8:2e:ec:9f:8f:8f:3e:72:
                    a8:f3:11:c8:32:74:96:75:f0:07:43:2b:13:3a:ef:
                    21:bd:29:13:eb:ce:1c:09:01:e2:ee:34:a9:d5:3c:
                    a9:68:6d:85:5d:a5:d3:59:78:1e:0e:1f:ff:f3:43:
                    05:54:52:c5:4b:f0:03:38:70:7c:61:aa:61:c4:64:
                    4a:2f:6b:ad:61:6c:49:1b:da:fc:5f:50:74:e6:15:
                    3f:e7:55
                Exponent: 65537 (0x10001)
        X509v3 extensions:
            X509v3 Basic Constraints: 
                CA:FALSE
            Netscape Comment: 
                Easy-RSA Generated Certificate
            X509v3 Subject Key Identifier: 
                24:62:4D:B9:43:4A:8C:90:E8:C4:BB:25:EE:9F:4E:20:CF:CF:70:82
            X509v3 Authority Key Identifier: 
                keyid:EF:38:8D:14:50:58:A7:5B:4D:9C:17:72:FC:DF:B9:AC:A7:51:B0:10
                DirName:/C=US/ST=CA/L=SanFrancisco/O=Pixglo, Inc./OU=VPN-CIE/CN=tunnel.pixglo.com/name=Bala Chandrasekaran/emailAddress=bala@pixglo.com
                serial:A6:DB:C6:83:80:E6:A0:79

            X509v3 Extended Key Usage: 
                TLS Web Client Authentication
            X509v3 Key Usage: 
                Digital Signature
    Signature Algorithm: sha1WithRSAEncryption
         5d:b6:8d:40:bb:48:c5:de:19:89:26:70:fb:3b:24:69:2d:95:
         1b:bf:b6:8e:0c:79:05:0f:68:2c:3a:6d:0b:56:92:eb:0c:39:
         44:6f:8c:23:2b:13:bc:c2:f8:15:44:da:46:50:8a:80:dc:2d:
         50:57:f1:e5:23:0b:6e:fe:06:18:f9:96:e7:30:73:be:13:cb:
         72:aa:fd:57:3e:2d:d3:df:78:fc:ae:08:c8:fa:55:88:8f:4d:
         09:69:10:ad:d2:e4:9c:f2:81:97:b6:2f:b2:89:ac:e6:6e:81:
         ec:fe:84:b7:ae:c3:83:97:09:bb:8b:8e:1e:d4:a4:1c:e4:0d:
         a5:94:34:27:c7:ea:a4:9f:f9:88:09:6c:65:a4:4c:43:3b:f0:
         82:bc:c0:07:76:fd:15:fa:45:95:1c:c0:7c:54:7c:b6:0d:49:
         bf:e2:43:7a:e4:78:0d:2d:c7:42:a5:77:4b:78:74:12:53:a4:
         3f:b0:38:c2:c0:e3:66:86:a3:42:fe:dd:6b:54:95:df:2c:da:
         5c:20:e6:92:a5:c8:30:ae:21:c0:41:e8:e9:22:a1:08:5b:28:
         e6:bc:56:9b:28:7f:b7:e9:f6:51:bc:ab:c1:b0:f7:af:0b:dd:
         9a:79:a3:08:b1:1f:b7:76:6f:ae:cf:d3:78:38:28:4a:a6:7d:
         c9:17:0c:f3:f5:a2:18:33:c4:aa:66:46:11:32:64:08:18:f6:
         05:e8:2b:f6:c8:a1:ad:7d:72:c1:7a:cc:91:10:4a:2f:da:fc:
         c7:62:46:52:7a:2c:00:78:3c:af:88:77:ea:c6:40:52:90:b1:
         6d:84:56:be:53:90:7a:7f:92:db:97:97:a5:5d:aa:5e:ac:2a:
         8d:87:6c:3e:f3:76:1d:f9:3e:b0:7c:ee:e0:96:44:99:28:95:
         38:30:91:58:be:8e:fa:f6:41:e0:52:f0:33:6a:a9:71:61:f4:
         ae:ac:ff:95:3a:4b:c7:47:2b:7f:34:5c:af:63:de:7a:7f:d3:
         95:67:61:92:62:46:7a:9a:16:b9:c2:a8:1d:b6:c1:73:ae:df:
         4a:d8:24:74:51:1c:ea:d6:27:91:bc:80:ba:97:10:3d:91:20:
         39:35:c7:23:36:42:1d:ac:18:bc:d1:9b:ce:70:cc:d0:ce:26:
         3f:e4:b6:e7:39:59:28:d2:43:fb:e9:2c:42:e2:39:b7:ae:9d:
         08:5a:31:0f:df:e7:9d:0d:01:6e:d6:c0:0c:ae:bf:b4:f4:bb:
         ac:60:3c:24:c2:ff:67:ba:5e:38:ee:34:a1:1c:d7:0f:62:ee:
         85:f1:95:44:87:b4:8a:20:c1:55:c3:fb:0c:70:ac:48:aa:ad:
         40:e1:d1:c7:6d:20:51:a2
-----BEGIN CERTIFICATE-----
MIIHSDCCBTCgAwIBAgICAjUwDQYJKoZIhvcNAQEFBQAwgbQxCzAJBgNVBAYTAlVT
MQswCQYDVQQIEwJDQTEVMBMGA1UEBxMMU2FuRnJhbmNpc2NvMRUwEwYDVQQKEwxQ
aXhnbG8sIEluYy4xEDAOBgNVBAsTB1ZQTi1DSUUxGjAYBgNVBAMTEXR1bm5lbC5w
aXhnbG8uY29tMRwwGgYDVQQpExNCYWxhIENoYW5kcmFzZWthcmFuMR4wHAYJKoZI
hvcNAQkBFg9iYWxhQHBpeGdsby5jb20wHhcNMTgwMjE0MDYzNzE2WhcNMjgwMjEy
MDYzNzE2WjCBqTELMAkGA1UEBhMCVVMxCzAJBgNVBAgTAkNBMRUwEwYDVQQHEwxT
YW5GcmFuY2lzY28xFTATBgNVBAoTDFBpeGdsbywgSW5jLjEQMA4GA1UECxMHVlBO
LUNJRTEPMA0GA1UEAxMGY2llNTY0MRwwGgYDVQQpExNCYWxhIENoYW5kcmFzZWth
cmFuMR4wHAYJKoZIhvcNAQkBFg9iYWxhQHBpeGdsby5jb20wggIiMA0GCSqGSIb3
DQEBAQUAA4ICDwAwggIKAoICAQDMYhBt0ct1l0MzxcoG9scswJfNbLZjhOPW1rau
Ph935utFQD43kBNgry7U8EgF9EKDrAuY/GPE8jN0Kd5/1P7TLgrn9kZA66b2ODpa
zjTZwHzdckKv0OR1aOktrluND4BLuIVR854+JFPLOiQ61oWn54pCzY0B8cSQzDml
ptR/d74NV6+hx+OBcS59lOdqml2tezNF6p78l2e+luv8D5FZHHoH/zgvuEhd2EBp
tqiA2rAs14J9hw7sXGZsCK8hmns8ObqTpBomhs96xuHDAmZxEMj86rBl4OFswueV
75W63AqkAiNFOeWuRaSxqBQEjbn4YEeSStqNEeQ0g3AqJFo3XhzTplBHVtAfK1AN
HTiIObQrQrvGnXCVnKSy/wVkC2SuKIvhWxbaTXS+4mMONoSO7xcSMMn26YHcmz6g
cBN4jv1xbDbDUwOL4cpc+bH02CkeS6J8894aNDbaEIA1Ml3GuTDPG/dYbwQ8S0wG
IMx2ZPNfp3WIxDFjXQ0sXCnT2KyZVVvetgsnNPu2cTt+aRakpBHG6N1S7Gj9RPfN
AzS3guIfa2AEfiHj2qe4Luyfj48+cqjzEcgydJZ18AdDKxM67yG9KRPrzhwJAeLu
NKnVPKlobYVdpdNZeB4OH//zQwVUUsVL8AM4cHxhqmHEZEova61hbEkb2vxfUHTm
FT/nVQIDAQABo4IBazCCAWcwCQYDVR0TBAIwADAtBglghkgBhvhCAQ0EIBYeRWFz
eS1SU0EgR2VuZXJhdGVkIENlcnRpZmljYXRlMB0GA1UdDgQWBBQkYk25Q0qMkOjE
uyXun04gz89wgjCB6QYDVR0jBIHhMIHegBTvOI0UUFinW02cF3L837msp1GwEKGB
uqSBtzCBtDELMAkGA1UEBhMCVVMxCzAJBgNVBAgTAkNBMRUwEwYDVQQHEwxTYW5G
cmFuY2lzY28xFTATBgNVBAoTDFBpeGdsbywgSW5jLjEQMA4GA1UECxMHVlBOLUNJ
RTEaMBgGA1UEAxMRdHVubmVsLnBpeGdsby5jb20xHDAaBgNVBCkTE0JhbGEgQ2hh
bmRyYXNla2FyYW4xHjAcBgkqhkiG9w0BCQEWD2JhbGFAcGl4Z2xvLmNvbYIJAKbb
xoOA5qB5MBMGA1UdJQQMMAoGCCsGAQUFBwMCMAsGA1UdDwQEAwIHgDANBgkqhkiG
9w0BAQUFAAOCAgEAXbaNQLtIxd4ZiSZw+zskaS2VG7+2jgx5BQ9oLDptC1aS6ww5
RG+MIysTvML4FUTaRlCKgNwtUFfx5SMLbv4GGPmW5zBzvhPLcqr9Vz4t0994/K4I
yPpViI9NCWkQrdLknPKBl7Yvsoms5m6B7P6Et67Dg5cJu4uOHtSkHOQNpZQ0J8fq
pJ/5iAlsZaRMQzvwgrzAB3b9FfpFlRzAfFR8tg1Jv+JDeuR4DS3HQqV3S3h0ElOk
P7A4wsDjZoajQv7da1SV3yzaXCDmkqXIMK4hwEHo6SKhCFso5rxWmyh/t+n2Ubyr
wbD3rwvdmnmjCLEft3Zvrs/TeDgoSqZ9yRcM8/WiGDPEqmZGETJkCBj2Begr9sih
rX1ywXrMkRBKL9r8x2JGUnosAHg8r4h36sZAUpCxbYRWvlOQen+S25eXpV2qXqwq
jYdsPvN2Hfk+sHzu4JZEmSiVODCRWL6O+vZB4FLwM2qpcWH0rqz/lTpLx0crfzRc
r2Peen/TlWdhkmJGepoWucKoHbbBc67fStgkdFEc6tYnkbyAupcQPZEgOTXHIzZC
HawYvNGbznDM0M4mP+S25zlZKNJD++ksQuI5t66dCFoxD9/nnQ0BbtbADK6/tPS7
rGA8JML/Z7peOO40oRzXD2LuhfGVRIe0iiDBVcP7DHCsSKqtQOHRx20gUaI=
-----END CERTIFICATE-----
