Certificate:
    Data:
        Version: 3 (0x2)
        Serial Number: 519 (0x207)
    Signature Algorithm: sha1WithRSAEncryption
        Issuer: C=US, ST=CA, L=SanFrancisco, O=Pixglo, Inc., OU=VPN-CIE, CN=tunnel.pixglo.com/name=Bala Chandrasekaran/emailAddress=bala@pixglo.com
        Validity
            Not Before: Feb 14 06:36:06 2018 GMT
            Not After : Feb 12 06:36:06 2028 GMT
        Subject: C=US, ST=CA, L=SanFrancisco, O=Pixglo, Inc., OU=VPN-CIE, CN=cie518/name=Bala Chandrasekaran/emailAddress=bala@pixglo.com
        Subject Public Key Info:
            Public Key Algorithm: rsaEncryption
                Public-Key: (4096 bit)
                Modulus:
                    00:da:34:92:8d:18:71:3a:2c:7d:35:ef:4b:5e:fd:
                    b2:bb:df:c4:70:62:ec:c6:83:6c:d7:dc:7f:62:52:
                    a2:75:48:20:47:13:8a:b1:0a:e9:c1:48:12:2c:e7:
                    57:20:54:12:3b:2c:ba:83:51:1e:57:38:cf:f0:db:
                    3d:8b:be:bb:e2:62:bf:ab:2a:a4:b5:76:d9:0f:c0:
                    10:51:03:ba:52:e1:6d:d8:61:c5:51:60:f3:57:61:
                    f7:84:18:64:2d:72:ee:bb:8f:8b:a3:57:37:78:ee:
                    58:95:00:68:4b:b8:b3:4b:70:85:63:9c:00:f5:71:
                    b0:8b:a4:8a:9e:21:eb:5a:42:14:0a:1b:d0:0f:57:
                    fe:ea:b8:4b:ea:2d:34:1d:61:7a:65:5e:f8:89:72:
                    6d:d2:20:b8:49:e8:c9:8c:5b:a9:5c:d9:6b:dd:04:
                    61:dc:96:fb:b0:98:bb:cc:b7:25:ff:b5:d2:fb:aa:
                    45:8b:54:8d:50:be:c0:04:ee:32:bd:de:7c:33:07:
                    ef:3d:3b:bf:06:79:69:18:20:1e:fb:f8:b6:0c:6b:
                    3c:b1:c9:65:af:c1:d1:84:99:65:33:e0:60:09:e1:
                    df:2e:67:69:13:79:d7:f4:66:ad:93:46:65:0c:db:
                    da:4c:ef:26:76:30:e3:cf:0e:5b:1f:0f:09:2b:ee:
                    61:4d:d9:99:ba:c2:33:55:09:62:ba:82:3f:67:32:
                    bf:4d:90:9e:7b:a3:77:c0:06:eb:16:23:d8:e9:5e:
                    06:e3:f9:fd:61:81:d0:ff:c1:21:e4:76:a2:6e:e7:
                    e3:37:81:52:06:33:bb:72:c1:f8:9c:c0:72:fe:a6:
                    18:e6:7f:d7:5f:28:8f:4f:a0:fb:54:6f:15:89:ae:
                    86:bc:86:fd:f8:9c:4e:94:12:3e:7b:44:5a:fa:e0:
                    81:58:f7:e3:e5:48:6c:d0:ca:b2:74:55:e0:7f:71:
                    da:fe:c5:8f:bf:a9:ce:5b:3f:2f:bf:36:5a:9c:aa:
                    b6:44:cc:70:d5:9e:0a:2d:dd:0b:58:ff:be:f2:67:
                    b5:96:f1:88:a7:50:eb:81:74:4d:cd:7d:7e:b3:10:
                    25:cb:82:51:dd:d5:06:a2:91:e0:75:d3:0c:9d:af:
                    ce:8f:dd:70:39:ce:1e:72:09:8f:f0:27:14:c9:b1:
                    b8:34:b6:45:e2:c3:65:c8:28:12:e4:b1:76:f5:da:
                    de:b9:37:43:d2:9e:9e:e4:dc:5a:7c:96:40:4b:de:
                    3f:71:ec:c2:55:9c:65:6d:96:6a:ed:d6:18:33:09:
                    e8:74:39:89:43:9c:1f:bc:6f:6e:02:6d:b7:76:ba:
                    b3:ad:a3:1e:5d:6b:29:e6:80:46:0b:e9:b6:db:53:
                    2e:1b:ed
                Exponent: 65537 (0x10001)
        X509v3 extensions:
            X509v3 Basic Constraints: 
                CA:FALSE
            Netscape Comment: 
                Easy-RSA Generated Certificate
            X509v3 Subject Key Identifier: 
                01:97:A3:1A:F1:D3:8F:D1:1D:7A:14:0F:AB:74:0D:8C:78:07:B1:3B
            X509v3 Authority Key Identifier: 
                keyid:EF:38:8D:14:50:58:A7:5B:4D:9C:17:72:FC:DF:B9:AC:A7:51:B0:10
                DirName:/C=US/ST=CA/L=SanFrancisco/O=Pixglo, Inc./OU=VPN-CIE/CN=tunnel.pixglo.com/name=Bala Chandrasekaran/emailAddress=bala@pixglo.com
                serial:A6:DB:C6:83:80:E6:A0:79

            X509v3 Extended Key Usage: 
                TLS Web Client Authentication
            X509v3 Key Usage: 
                Digital Signature
    Signature Algorithm: sha1WithRSAEncryption
         a2:22:0b:cb:10:db:e9:5b:ab:57:22:a5:93:06:1a:49:6a:ac:
         e3:4c:1b:95:ee:da:5f:42:34:39:d4:be:a1:03:0e:56:ef:35:
         ca:f9:45:28:62:6d:9a:ee:36:6e:b3:63:33:f1:5a:39:11:16:
         44:7e:c8:0e:1d:7d:3b:96:06:3e:c2:43:8d:36:79:03:81:23:
         8d:6e:b7:42:3a:5c:de:5b:4a:05:d9:b6:9e:f0:60:d7:19:72:
         32:45:ad:52:dd:4a:95:a6:d2:a8:cc:30:a2:43:a3:74:35:e2:
         46:3e:95:a6:3e:9f:e5:54:37:89:d7:58:6d:d2:81:f2:1a:98:
         62:ab:72:d2:1b:b7:46:87:8a:ad:13:3e:b6:c4:ec:96:87:44:
         39:0b:1a:48:d9:1b:f3:3a:b8:aa:fe:ec:39:8b:68:a5:30:d1:
         ac:45:52:49:18:d8:0d:b4:d0:1d:1c:c8:4c:c1:61:4c:ea:38:
         79:c6:1f:d3:b8:5e:95:51:31:ab:7c:f0:1c:12:86:5e:7a:bd:
         61:3c:ce:2d:8a:db:d5:60:32:21:b2:de:30:3e:18:1f:ad:82:
         c6:f8:63:f1:7b:78:9d:6c:9c:2d:91:62:16:d0:65:f9:dc:e6:
         12:66:58:d4:de:c9:88:10:b2:44:b9:0c:36:7f:c5:eb:fa:18:
         56:09:ce:a7:5f:e4:23:fa:f3:7e:e9:89:65:d3:0d:5b:b4:64:
         d0:eb:8d:03:92:d2:9a:d5:2a:b3:87:6d:12:ae:0c:f3:18:81:
         21:ae:76:61:ec:ab:63:fc:67:80:d6:e7:d3:19:10:7e:14:ff:
         45:f8:fa:d2:05:34:cf:e2:64:7c:18:d4:aa:c6:d0:3a:b9:d7:
         d6:f0:90:ef:3b:4b:b2:52:f9:68:ae:b1:3d:85:a1:e4:13:ae:
         15:03:0d:1a:ac:f5:2d:30:fe:f7:20:21:6d:9d:2d:11:4b:d8:
         80:e4:03:1a:7c:eb:e9:aa:23:0c:ec:01:c8:1f:8b:d1:3a:49:
         b4:31:65:ae:4a:3a:41:9c:a2:f2:a0:d1:29:84:04:24:d3:25:
         cc:74:7f:aa:a8:5e:1d:a9:ea:43:50:23:3b:26:1a:50:41:34:
         d1:b9:ce:9b:06:f8:2e:0a:b9:81:e7:48:a3:fa:6d:d9:80:85:
         e6:c5:f6:cd:f0:37:62:f4:a7:2e:89:60:fa:5f:ee:00:2a:d8:
         77:ba:35:88:33:b0:fc:05:6c:51:48:74:6c:41:42:2b:b4:04:
         ea:e5:a0:67:de:c6:7a:18:bb:9d:9c:1c:49:78:41:e9:b1:59:
         88:7a:fe:06:7e:4d:16:54:ef:10:16:ea:c8:14:d8:f6:c8:15:
         f5:ff:13:de:30:c0:b7:24
-----BEGIN CERTIFICATE-----
MIIHSDCCBTCgAwIBAgICAgcwDQYJKoZIhvcNAQEFBQAwgbQxCzAJBgNVBAYTAlVT
MQswCQYDVQQIEwJDQTEVMBMGA1UEBxMMU2FuRnJhbmNpc2NvMRUwEwYDVQQKEwxQ
aXhnbG8sIEluYy4xEDAOBgNVBAsTB1ZQTi1DSUUxGjAYBgNVBAMTEXR1bm5lbC5w
aXhnbG8uY29tMRwwGgYDVQQpExNCYWxhIENoYW5kcmFzZWthcmFuMR4wHAYJKoZI
hvcNAQkBFg9iYWxhQHBpeGdsby5jb20wHhcNMTgwMjE0MDYzNjA2WhcNMjgwMjEy
MDYzNjA2WjCBqTELMAkGA1UEBhMCVVMxCzAJBgNVBAgTAkNBMRUwEwYDVQQHEwxT
YW5GcmFuY2lzY28xFTATBgNVBAoTDFBpeGdsbywgSW5jLjEQMA4GA1UECxMHVlBO
LUNJRTEPMA0GA1UEAxMGY2llNTE4MRwwGgYDVQQpExNCYWxhIENoYW5kcmFzZWth
cmFuMR4wHAYJKoZIhvcNAQkBFg9iYWxhQHBpeGdsby5jb20wggIiMA0GCSqGSIb3
DQEBAQUAA4ICDwAwggIKAoICAQDaNJKNGHE6LH0170te/bK738RwYuzGg2zX3H9i
UqJ1SCBHE4qxCunBSBIs51cgVBI7LLqDUR5XOM/w2z2LvrviYr+rKqS1dtkPwBBR
A7pS4W3YYcVRYPNXYfeEGGQtcu67j4ujVzd47liVAGhLuLNLcIVjnAD1cbCLpIqe
IetaQhQKG9APV/7quEvqLTQdYXplXviJcm3SILhJ6MmMW6lc2WvdBGHclvuwmLvM
tyX/tdL7qkWLVI1QvsAE7jK93nwzB+89O78GeWkYIB77+LYMazyxyWWvwdGEmWUz
4GAJ4d8uZ2kTedf0Zq2TRmUM29pM7yZ2MOPPDlsfDwkr7mFN2Zm6wjNVCWK6gj9n
Mr9NkJ57o3fABusWI9jpXgbj+f1hgdD/wSHkdqJu5+M3gVIGM7tywficwHL+phjm
f9dfKI9PoPtUbxWJroa8hv34nE6UEj57RFr64IFY9+PlSGzQyrJ0VeB/cdr+xY+/
qc5bPy+/NlqcqrZEzHDVngot3QtY/77yZ7WW8YinUOuBdE3NfX6zECXLglHd1Qai
keB10wydr86P3XA5zh5yCY/wJxTJsbg0tkXiw2XIKBLksXb12t65N0PSnp7k3Fp8
lkBL3j9x7MJVnGVtlmrt1hgzCeh0OYlDnB+8b24Cbbd2urOtox5daynmgEYL6bbb
Uy4b7QIDAQABo4IBazCCAWcwCQYDVR0TBAIwADAtBglghkgBhvhCAQ0EIBYeRWFz
eS1SU0EgR2VuZXJhdGVkIENlcnRpZmljYXRlMB0GA1UdDgQWBBQBl6Ma8dOP0R16
FA+rdA2MeAexOzCB6QYDVR0jBIHhMIHegBTvOI0UUFinW02cF3L837msp1GwEKGB
uqSBtzCBtDELMAkGA1UEBhMCVVMxCzAJBgNVBAgTAkNBMRUwEwYDVQQHEwxTYW5G
cmFuY2lzY28xFTATBgNVBAoTDFBpeGdsbywgSW5jLjEQMA4GA1UECxMHVlBOLUNJ
RTEaMBgGA1UEAxMRdHVubmVsLnBpeGdsby5jb20xHDAaBgNVBCkTE0JhbGEgQ2hh
bmRyYXNla2FyYW4xHjAcBgkqhkiG9w0BCQEWD2JhbGFAcGl4Z2xvLmNvbYIJAKbb
xoOA5qB5MBMGA1UdJQQMMAoGCCsGAQUFBwMCMAsGA1UdDwQEAwIHgDANBgkqhkiG
9w0BAQUFAAOCAgEAoiILyxDb6VurVyKlkwYaSWqs40wble7aX0I0OdS+oQMOVu81
yvlFKGJtmu42brNjM/FaOREWRH7IDh19O5YGPsJDjTZ5A4EjjW63Qjpc3ltKBdm2
nvBg1xlyMkWtUt1KlabSqMwwokOjdDXiRj6Vpj6f5VQ3iddYbdKB8hqYYqty0hu3
RoeKrRM+tsTslodEOQsaSNkb8zq4qv7sOYtopTDRrEVSSRjYDbTQHRzITMFhTOo4
ecYf07helVExq3zwHBKGXnq9YTzOLYrb1WAyIbLeMD4YH62Cxvhj8Xt4nWycLZFi
FtBl+dzmEmZY1N7JiBCyRLkMNn/F6/oYVgnOp1/kI/rzfumJZdMNW7Rk0OuNA5LS
mtUqs4dtEq4M8xiBIa52YeyrY/xngNbn0xkQfhT/Rfj60gU0z+JkfBjUqsbQOrnX
1vCQ7ztLslL5aK6xPYWh5BOuFQMNGqz1LTD+9yAhbZ0tEUvYgOQDGnzr6aojDOwB
yB+L0TpJtDFlrko6QZyi8qDRKYQEJNMlzHR/qqheHanqQ1AjOyYaUEE00bnOmwb4
Lgq5gedIo/pt2YCF5sX2zfA3YvSnLolg+l/uACrYd7o1iDOw/AVsUUh0bEFCK7QE
6uWgZ97Gehi7nZwcSXhB6bFZiHr+Bn5NFlTvEBbqyBTY9sgV9f8T3jDAtyQ=
-----END CERTIFICATE-----
