Certificate:
    Data:
        Version: 3 (0x2)
        Serial Number: 574 (0x23e)
    Signature Algorithm: sha1WithRSAEncryption
        Issuer: C=US, ST=CA, L=SanFrancisco, O=Pixglo, Inc., OU=VPN-CIE, CN=tunnel.pixglo.com/name=Bala Chandrasekaran/emailAddress=bala@pixglo.com
        Validity
            Not Before: Feb 14 06:37:26 2018 GMT
            Not After : Feb 12 06:37:26 2028 GMT
        Subject: C=US, ST=CA, L=SanFrancisco, O=Pixglo, Inc., OU=VPN-CIE, CN=cie573/name=Bala Chandrasekaran/emailAddress=bala@pixglo.com
        Subject Public Key Info:
            Public Key Algorithm: rsaEncryption
                Public-Key: (4096 bit)
                Modulus:
                    00:f4:04:55:f2:d3:e9:38:31:64:bf:f9:f7:83:e6:
                    40:d8:4a:8f:f0:d3:16:ed:ba:7b:1a:b3:5b:aa:c4:
                    fc:64:a2:26:b8:ee:92:b2:55:38:56:90:79:08:5a:
                    3e:04:6c:58:a5:45:c7:60:29:5e:40:a6:c0:68:fe:
                    a8:20:7b:9f:b9:7f:73:69:82:2a:40:fe:25:28:b0:
                    61:67:07:f9:1a:59:e8:b6:34:a3:9a:cd:6e:55:8f:
                    30:47:46:21:52:26:89:05:10:38:f1:5a:03:46:0f:
                    17:38:78:2c:24:02:8f:09:e2:5b:e0:ee:29:65:1c:
                    69:a1:8b:35:ab:60:a0:6c:4e:82:96:ab:58:47:1f:
                    85:59:f3:05:09:bd:cd:bd:29:37:cd:89:e3:91:fd:
                    64:6d:80:f5:f8:5f:a5:e8:19:b7:ef:d0:5b:6f:89:
                    ba:fb:7f:03:c7:2c:ce:b8:6a:44:d1:0f:25:f6:19:
                    e3:d0:ca:14:3f:b6:fa:35:66:99:e3:bf:ee:2d:43:
                    62:f6:f0:0d:52:c7:eb:84:dc:f0:7c:c0:d0:a1:8f:
                    ee:7f:35:34:e7:86:39:e1:26:e9:1a:1b:1e:33:e0:
                    e5:d4:ac:d6:97:57:93:1a:14:d5:a5:ae:aa:4a:6d:
                    d5:bc:82:42:81:f5:8d:c1:d3:5d:fc:62:6c:65:34:
                    cb:1d:0e:2b:d4:ec:2c:64:74:b5:2d:30:55:51:08:
                    af:09:8c:1a:04:e9:b8:d5:36:ab:19:fc:bd:cc:53:
                    ac:67:34:39:f0:ba:5d:31:8c:51:9f:bc:d3:17:23:
                    3d:ae:04:c3:2d:cf:e2:b6:89:c1:e7:72:0c:7f:eb:
                    d0:35:28:a8:68:1f:3b:75:47:3d:4c:e7:8f:89:dd:
                    cd:27:5a:f1:65:f8:f9:79:39:b5:62:2a:3b:65:1a:
                    00:9f:86:41:ad:e7:3d:19:0a:3d:7b:ab:71:5b:9c:
                    0b:1d:78:66:41:63:20:60:03:f7:d9:5d:df:49:76:
                    e1:c7:12:3e:8f:1d:20:68:64:e3:5c:0a:62:41:3d:
                    71:50:f7:c3:46:b7:be:83:09:2f:be:6e:5a:89:29:
                    ed:f4:fd:b5:98:85:54:e1:0d:01:b7:73:a7:6e:64:
                    41:ea:05:ea:a2:ae:28:de:ec:7a:dd:76:36:9c:c3:
                    a3:dd:d9:a3:81:4b:32:46:7e:23:8e:85:86:31:6e:
                    42:a7:81:c4:4b:c2:c9:77:42:a1:15:ae:dc:fb:55:
                    24:15:a0:b7:5b:1a:2f:3f:ef:54:75:93:81:91:e8:
                    f2:73:59:58:25:29:da:67:62:ca:b3:9c:4b:65:7d:
                    f1:ad:fa:c5:89:8b:89:44:d4:81:73:19:0d:5a:81:
                    3d:4e:e9
                Exponent: 65537 (0x10001)
        X509v3 extensions:
            X509v3 Basic Constraints: 
                CA:FALSE
            Netscape Comment: 
                Easy-RSA Generated Certificate
            X509v3 Subject Key Identifier: 
                19:BE:4E:33:4D:67:C2:BA:99:95:96:6A:11:7D:78:CE:54:D9:CE:80
            X509v3 Authority Key Identifier: 
                keyid:EF:38:8D:14:50:58:A7:5B:4D:9C:17:72:FC:DF:B9:AC:A7:51:B0:10
                DirName:/C=US/ST=CA/L=SanFrancisco/O=Pixglo, Inc./OU=VPN-CIE/CN=tunnel.pixglo.com/name=Bala Chandrasekaran/emailAddress=bala@pixglo.com
                serial:A6:DB:C6:83:80:E6:A0:79

            X509v3 Extended Key Usage: 
                TLS Web Client Authentication
            X509v3 Key Usage: 
                Digital Signature
    Signature Algorithm: sha1WithRSAEncryption
         06:8e:42:13:62:12:5d:18:67:62:cf:49:2f:8f:1f:69:a1:79:
         ce:f3:67:42:51:08:47:f5:68:0a:93:42:8f:81:c8:fb:da:47:
         03:55:33:ee:1e:ba:f5:fe:be:9a:9b:d9:77:00:07:a8:4f:0e:
         a7:ba:3f:fd:81:dd:43:2d:ca:fa:11:3f:2a:f7:bc:0c:ee:32:
         46:7c:78:5c:3e:fa:49:dc:8a:e4:1e:60:7a:c8:16:e0:a3:f2:
         0e:d5:26:ad:04:cb:62:35:cf:4c:4e:86:d1:dc:61:87:b4:67:
         7a:78:ef:73:85:8f:50:11:3f:17:24:8b:6c:f6:54:4c:9d:2a:
         1f:1f:46:c4:ce:fd:87:b6:30:e0:af:77:93:22:d1:6a:ab:cd:
         df:3b:2f:c3:12:06:bb:f1:d5:a0:02:6f:5d:3e:e3:73:5f:9f:
         5a:bb:7b:f2:85:71:73:a3:bf:36:86:13:80:7b:61:77:b4:72:
         88:62:c8:2f:da:76:8b:53:80:a7:1b:fd:b5:42:96:09:b4:94:
         bf:f2:3a:ae:0e:e6:91:0f:39:c8:2b:b0:a6:c8:5a:7c:8b:ba:
         d2:e9:c7:fd:36:f9:20:41:e6:b9:3f:5a:19:73:8d:a0:af:82:
         6e:4c:33:bb:7e:5c:3e:aa:9a:67:7b:95:3c:95:43:9b:b8:98:
         c3:bd:9d:58:44:c0:2a:7f:2d:c8:c5:b8:6b:ed:75:9e:c3:86:
         34:aa:80:52:f5:f6:89:11:10:f3:2f:9f:7c:9a:f6:39:4a:b5:
         2b:4e:d0:32:e8:f6:37:b1:85:83:b6:b9:59:ae:10:d5:63:2b:
         ae:06:6f:da:c4:1f:1c:fa:d4:54:55:d2:49:e0:46:9c:25:d0:
         be:35:6b:b7:0d:46:32:0f:e8:8b:b7:ce:ab:4c:f5:e1:10:33:
         df:00:65:35:79:68:ff:fe:44:32:e0:79:17:2b:58:a1:a8:2b:
         45:16:c9:39:12:3f:b2:f4:56:3d:3d:64:96:4c:10:d8:23:40:
         f5:d6:08:04:ce:94:b2:9e:8a:9b:15:b8:68:ed:2c:3c:06:8d:
         a8:b0:d9:0c:e0:a8:2b:6f:3d:23:99:e1:bc:37:6e:d4:22:6b:
         1b:fc:1d:9b:00:98:5c:e7:b3:78:e5:f7:3a:ff:03:81:84:d3:
         93:71:57:55:71:4d:1a:e3:bf:e7:99:82:e1:a5:dc:71:b3:47:
         c8:e3:e9:86:2b:dc:8b:5f:21:db:ad:db:79:c6:20:80:75:b4:
         ff:5f:27:f2:14:36:51:ed:68:b5:3d:4c:68:c5:73:04:22:96:
         8b:e9:8a:cf:46:d8:7a:e9:8e:42:24:88:a2:cb:65:8b:11:46:
         1c:ae:c8:01:a7:2f:96:0f
-----BEGIN CERTIFICATE-----
MIIHSDCCBTCgAwIBAgICAj4wDQYJKoZIhvcNAQEFBQAwgbQxCzAJBgNVBAYTAlVT
MQswCQYDVQQIEwJDQTEVMBMGA1UEBxMMU2FuRnJhbmNpc2NvMRUwEwYDVQQKEwxQ
aXhnbG8sIEluYy4xEDAOBgNVBAsTB1ZQTi1DSUUxGjAYBgNVBAMTEXR1bm5lbC5w
aXhnbG8uY29tMRwwGgYDVQQpExNCYWxhIENoYW5kcmFzZWthcmFuMR4wHAYJKoZI
hvcNAQkBFg9iYWxhQHBpeGdsby5jb20wHhcNMTgwMjE0MDYzNzI2WhcNMjgwMjEy
MDYzNzI2WjCBqTELMAkGA1UEBhMCVVMxCzAJBgNVBAgTAkNBMRUwEwYDVQQHEwxT
YW5GcmFuY2lzY28xFTATBgNVBAoTDFBpeGdsbywgSW5jLjEQMA4GA1UECxMHVlBO
LUNJRTEPMA0GA1UEAxMGY2llNTczMRwwGgYDVQQpExNCYWxhIENoYW5kcmFzZWth
cmFuMR4wHAYJKoZIhvcNAQkBFg9iYWxhQHBpeGdsby5jb20wggIiMA0GCSqGSIb3
DQEBAQUAA4ICDwAwggIKAoICAQD0BFXy0+k4MWS/+feD5kDYSo/w0xbtunsas1uq
xPxkoia47pKyVThWkHkIWj4EbFilRcdgKV5ApsBo/qgge5+5f3NpgipA/iUosGFn
B/kaWei2NKOazW5VjzBHRiFSJokFEDjxWgNGDxc4eCwkAo8J4lvg7illHGmhizWr
YKBsToKWq1hHH4VZ8wUJvc29KTfNieOR/WRtgPX4X6XoGbfv0Ftvibr7fwPHLM64
akTRDyX2GePQyhQ/tvo1Zpnjv+4tQ2L28A1Sx+uE3PB8wNChj+5/NTTnhjnhJuka
Gx4z4OXUrNaXV5MaFNWlrqpKbdW8gkKB9Y3B0138YmxlNMsdDivU7CxkdLUtMFVR
CK8JjBoE6bjVNqsZ/L3MU6xnNDnwul0xjFGfvNMXIz2uBMMtz+K2icHncgx/69A1
KKhoHzt1Rz1M54+J3c0nWvFl+Pl5ObViKjtlGgCfhkGt5z0ZCj17q3FbnAsdeGZB
YyBgA/fZXd9JduHHEj6PHSBoZONcCmJBPXFQ98NGt76DCS++blqJKe30/bWYhVTh
DQG3c6duZEHqBeqirije7Hrddjacw6Pd2aOBSzJGfiOOhYYxbkKngcRLwsl3QqEV
rtz7VSQVoLdbGi8/71R1k4GR6PJzWVglKdpnYsqznEtlffGt+sWJi4lE1IFzGQ1a
gT1O6QIDAQABo4IBazCCAWcwCQYDVR0TBAIwADAtBglghkgBhvhCAQ0EIBYeRWFz
eS1SU0EgR2VuZXJhdGVkIENlcnRpZmljYXRlMB0GA1UdDgQWBBQZvk4zTWfCupmV
lmoRfXjOVNnOgDCB6QYDVR0jBIHhMIHegBTvOI0UUFinW02cF3L837msp1GwEKGB
uqSBtzCBtDELMAkGA1UEBhMCVVMxCzAJBgNVBAgTAkNBMRUwEwYDVQQHEwxTYW5G
cmFuY2lzY28xFTATBgNVBAoTDFBpeGdsbywgSW5jLjEQMA4GA1UECxMHVlBOLUNJ
RTEaMBgGA1UEAxMRdHVubmVsLnBpeGdsby5jb20xHDAaBgNVBCkTE0JhbGEgQ2hh
bmRyYXNla2FyYW4xHjAcBgkqhkiG9w0BCQEWD2JhbGFAcGl4Z2xvLmNvbYIJAKbb
xoOA5qB5MBMGA1UdJQQMMAoGCCsGAQUFBwMCMAsGA1UdDwQEAwIHgDANBgkqhkiG
9w0BAQUFAAOCAgEABo5CE2ISXRhnYs9JL48faaF5zvNnQlEIR/VoCpNCj4HI+9pH
A1Uz7h669f6+mpvZdwAHqE8Op7o//YHdQy3K+hE/Kve8DO4yRnx4XD76SdyK5B5g
esgW4KPyDtUmrQTLYjXPTE6G0dxhh7Rnenjvc4WPUBE/FySLbPZUTJ0qHx9GxM79
h7Yw4K93kyLRaqvN3zsvwxIGu/HVoAJvXT7jc1+fWrt78oVxc6O/NoYTgHthd7Ry
iGLIL9p2i1OApxv9tUKWCbSUv/I6rg7mkQ85yCuwpshafIu60unH/Tb5IEHmuT9a
GXONoK+Cbkwzu35cPqqaZ3uVPJVDm7iYw72dWETAKn8tyMW4a+11nsOGNKqAUvX2
iREQ8y+ffJr2OUq1K07QMuj2N7GFg7a5Wa4Q1WMrrgZv2sQfHPrUVFXSSeBGnCXQ
vjVrtw1GMg/oi7fOq0z14RAz3wBlNXlo//5EMuB5FytYoagrRRbJORI/svRWPT1k
lkwQ2CNA9dYIBM6Usp6KmxW4aO0sPAaNqLDZDOCoK289I5nhvDdu1CJrG/wdmwCY
XOezeOX3Ov8DgYTTk3FXVXFNGuO/55mC4aXccbNHyOPphivci18h263becYggHW0
/18n8hQ2Ue1otT1MaMVzBCKWi+mKz0bYeumOQiSIostlixFGHK7IAacvlg8=
-----END CERTIFICATE-----
