Certificate:
    Data:
        Version: 3 (0x2)
        Serial Number: 56 (0x38)
    Signature Algorithm: sha1WithRSAEncryption
        Issuer: C=US, ST=CA, L=SanFrancisco, O=Pixglo, Inc., OU=VPN-CIE, CN=tunnel.pixglo.com/name=Bala Chandrasekaran/emailAddress=bala@pixglo.com
        Validity
            Not Before: Feb 14 06:24:59 2018 GMT
            Not After : Feb 12 06:24:59 2028 GMT
        Subject: C=US, ST=CA, L=SanFrancisco, O=Pixglo, Inc., OU=VPN-CIE, CN=cie55/name=Bala Chandrasekaran/emailAddress=bala@pixglo.com
        Subject Public Key Info:
            Public Key Algorithm: rsaEncryption
                Public-Key: (4096 bit)
                Modulus:
                    00:ee:72:17:f5:d7:4b:5f:99:ff:7d:10:83:0b:c5:
                    81:9f:fe:ef:f3:ce:fb:6b:a0:2d:38:8e:98:3e:af:
                    dd:ae:17:06:59:a0:10:af:5c:d9:47:ab:89:aa:f4:
                    12:e4:68:6b:a0:14:94:c5:47:c6:2b:47:f2:89:8a:
                    06:69:fe:6a:bb:b6:a0:f9:29:aa:1e:39:dd:9e:54:
                    c7:81:e2:01:d3:03:1b:ce:bc:30:38:36:a0:fe:ee:
                    63:9c:26:9d:82:75:6f:f3:a6:0f:15:1e:01:37:78:
                    52:a6:53:5b:e6:fc:ba:e6:38:ba:87:99:4f:d4:89:
                    8a:c2:d7:0c:68:35:65:b5:47:14:26:a3:8a:bb:b2:
                    0e:98:a5:86:45:09:84:a4:89:79:25:f3:16:b8:3a:
                    cb:2e:5f:8c:28:a2:82:68:02:ee:89:01:0a:ce:84:
                    cf:94:36:81:f3:08:a5:10:bb:83:46:3b:d9:b4:12:
                    cb:0f:e4:90:e2:5a:bc:e8:a1:78:3b:6c:85:74:79:
                    92:e8:86:5b:bc:ec:9b:ef:8c:2a:ba:45:97:6e:4e:
                    8d:09:5c:94:45:3a:85:97:eb:c7:8a:fc:71:f9:fc:
                    6a:6f:00:03:fa:27:f2:ea:84:34:85:fa:67:a6:f7:
                    af:2d:19:ac:4d:b6:35:d3:3f:89:d1:53:e0:84:fe:
                    7a:70:a3:38:18:93:b0:a4:db:c5:58:6b:34:0b:bf:
                    54:86:f2:99:09:29:0e:a2:1b:3f:89:68:47:b8:40:
                    37:ba:fa:af:dd:7f:ff:67:dc:3a:98:bf:1d:9e:71:
                    1d:80:5c:a6:7f:c8:d4:c6:86:8c:2d:7a:c3:f8:aa:
                    34:e8:af:d6:53:86:f7:ad:ce:b6:7f:7d:5b:5e:6d:
                    d7:13:29:51:48:bf:df:60:5a:3e:4b:14:6e:4e:17:
                    94:fb:a8:fe:a5:72:05:90:8f:1d:88:8a:c5:d1:e1:
                    91:f1:83:c4:ac:2a:35:e0:e4:44:e1:7f:3b:19:c1:
                    08:d6:42:ec:29:06:00:44:b7:4d:24:5d:f7:c6:b8:
                    c0:2d:da:97:d3:52:23:31:f4:2a:4e:a4:a2:80:7c:
                    cf:60:8f:dc:bb:0a:48:72:f9:70:51:89:6a:a6:da:
                    e7:27:3c:21:5d:36:4a:a3:d0:c1:84:e2:ae:79:fd:
                    1e:4e:38:43:3c:36:e6:f5:d7:25:12:43:9a:60:e4:
                    55:7e:ee:4c:b5:8b:a9:92:fd:ad:98:00:be:2b:91:
                    7c:10:c0:2b:8e:d6:97:0c:c6:1a:7c:22:d0:dd:cb:
                    f5:a7:84:fa:a8:3f:46:09:93:3d:9b:ab:db:e0:62:
                    c8:66:49:6d:f0:9f:92:d8:ab:29:9c:f7:6e:e1:6b:
                    d2:8a:ed
                Exponent: 65537 (0x10001)
        X509v3 extensions:
            X509v3 Basic Constraints: 
                CA:FALSE
            Netscape Comment: 
                Easy-RSA Generated Certificate
            X509v3 Subject Key Identifier: 
                80:26:51:24:61:54:10:24:13:07:52:58:C6:46:08:D5:F5:3B:FB:19
            X509v3 Authority Key Identifier: 
                keyid:EF:38:8D:14:50:58:A7:5B:4D:9C:17:72:FC:DF:B9:AC:A7:51:B0:10
                DirName:/C=US/ST=CA/L=SanFrancisco/O=Pixglo, Inc./OU=VPN-CIE/CN=tunnel.pixglo.com/name=Bala Chandrasekaran/emailAddress=bala@pixglo.com
                serial:A6:DB:C6:83:80:E6:A0:79

            X509v3 Extended Key Usage: 
                TLS Web Client Authentication
            X509v3 Key Usage: 
                Digital Signature
    Signature Algorithm: sha1WithRSAEncryption
         85:26:e0:5c:45:87:a9:57:5a:64:b2:46:48:05:83:93:a4:86:
         03:b6:41:c7:51:cc:8a:a1:4d:dd:69:cd:84:0c:63:39:5a:a4:
         9c:97:e1:f3:19:ad:d7:ef:cf:64:76:d3:1c:7e:2f:07:81:ec:
         e2:a5:9b:ae:73:3c:86:79:00:93:60:0b:b2:57:db:6d:f0:34:
         c3:d9:3f:fb:88:83:78:2d:f1:ca:59:76:70:c3:e4:7b:6c:f2:
         16:af:de:86:d3:a8:ee:7f:57:cb:71:1a:f7:fe:15:86:4a:6a:
         6b:e8:d8:5d:2a:1f:d5:c8:fa:2f:f3:93:0d:86:3f:da:55:a7:
         09:8c:18:71:7f:80:1a:e4:9f:24:9a:48:47:00:f0:3b:f4:72:
         90:ea:7a:6a:64:52:fd:eb:cd:d7:a0:c6:a0:fd:03:9d:31:eb:
         b0:de:e1:ae:c0:da:22:22:d0:42:2f:56:53:7a:ef:31:df:6a:
         05:9b:1e:fc:fb:44:c3:8b:68:d0:87:b6:25:96:2c:d1:2c:f3:
         1b:80:9b:fa:c2:0f:42:b0:ec:7a:91:23:b2:75:aa:dc:70:2d:
         3d:a6:51:98:15:06:55:54:b6:27:3f:42:84:10:21:b0:23:cf:
         f5:2a:21:8d:68:f9:89:6d:35:1a:bd:4c:d9:56:2a:d9:89:17:
         7b:5f:08:9c:83:12:24:4c:bf:0c:cd:3a:fd:f1:c3:04:76:8f:
         7f:5f:b4:98:8d:4d:81:37:53:fa:bc:ae:ea:2a:9d:c9:e9:e2:
         01:29:ab:02:8c:65:85:6a:cf:9a:61:11:59:37:97:56:af:69:
         07:0d:cf:82:4f:e0:cd:ba:35:6a:9e:f4:a0:b2:2c:72:47:43:
         87:68:8c:66:8c:f5:bd:42:97:ca:32:57:74:e1:2e:eb:b8:3d:
         e1:04:33:bc:99:40:a4:e5:87:31:32:93:24:c3:5f:34:95:d8:
         da:b5:1e:20:8d:d7:95:83:a0:35:c0:06:59:d6:13:80:fc:4a:
         b0:f3:f0:5a:db:0a:a1:8c:af:81:93:a8:6c:2d:89:71:9a:95:
         fb:32:28:8d:0f:f0:be:be:c8:c4:96:ec:52:a0:e1:4a:f4:d9:
         d4:3d:82:de:f3:65:1a:dd:1a:bb:07:72:50:d0:55:3e:62:57:
         51:03:10:24:d2:76:bc:80:72:18:60:50:0d:94:89:77:f9:43:
         4e:06:aa:75:a0:63:70:11:c7:64:0c:f6:ce:7d:48:20:1d:fa:
         d0:6d:bb:81:7e:ee:02:6f:64:ad:0e:05:b8:49:d1:fc:49:95:
         71:48:98:f7:8d:67:7a:f1:90:64:ef:bf:df:03:30:22:f5:94:
         27:40:b6:a4:37:09:a2:32
-----BEGIN CERTIFICATE-----
MIIHRjCCBS6gAwIBAgIBODANBgkqhkiG9w0BAQUFADCBtDELMAkGA1UEBhMCVVMx
CzAJBgNVBAgTAkNBMRUwEwYDVQQHEwxTYW5GcmFuY2lzY28xFTATBgNVBAoTDFBp
eGdsbywgSW5jLjEQMA4GA1UECxMHVlBOLUNJRTEaMBgGA1UEAxMRdHVubmVsLnBp
eGdsby5jb20xHDAaBgNVBCkTE0JhbGEgQ2hhbmRyYXNla2FyYW4xHjAcBgkqhkiG
9w0BCQEWD2JhbGFAcGl4Z2xvLmNvbTAeFw0xODAyMTQwNjI0NTlaFw0yODAyMTIw
NjI0NTlaMIGoMQswCQYDVQQGEwJVUzELMAkGA1UECBMCQ0ExFTATBgNVBAcTDFNh
bkZyYW5jaXNjbzEVMBMGA1UEChMMUGl4Z2xvLCBJbmMuMRAwDgYDVQQLEwdWUE4t
Q0lFMQ4wDAYDVQQDEwVjaWU1NTEcMBoGA1UEKRMTQmFsYSBDaGFuZHJhc2VrYXJh
bjEeMBwGCSqGSIb3DQEJARYPYmFsYUBwaXhnbG8uY29tMIICIjANBgkqhkiG9w0B
AQEFAAOCAg8AMIICCgKCAgEA7nIX9ddLX5n/fRCDC8WBn/7v8877a6AtOI6YPq/d
rhcGWaAQr1zZR6uJqvQS5GhroBSUxUfGK0fyiYoGaf5qu7ag+SmqHjndnlTHgeIB
0wMbzrwwODag/u5jnCadgnVv86YPFR4BN3hSplNb5vy65ji6h5lP1ImKwtcMaDVl
tUcUJqOKu7IOmKWGRQmEpIl5JfMWuDrLLl+MKKKCaALuiQEKzoTPlDaB8wilELuD
RjvZtBLLD+SQ4lq86KF4O2yFdHmS6IZbvOyb74wqukWXbk6NCVyURTqFl+vHivxx
+fxqbwAD+ify6oQ0hfpnpvevLRmsTbY10z+J0VPghP56cKM4GJOwpNvFWGs0C79U
hvKZCSkOohs/iWhHuEA3uvqv3X//Z9w6mL8dnnEdgFymf8jUxoaMLXrD+Ko06K/W
U4b3rc62f31bXm3XEylRSL/fYFo+SxRuTheU+6j+pXIFkI8diIrF0eGR8YPErCo1
4ORE4X87GcEI1kLsKQYARLdNJF33xrjALdqX01IjMfQqTqSigHzPYI/cuwpIcvlw
UYlqptrnJzwhXTZKo9DBhOKuef0eTjhDPDbm9dclEkOaYORVfu5MtYupkv2tmAC+
K5F8EMArjtaXDMYafCLQ3cv1p4T6qD9GCZM9m6vb4GLIZklt8J+S2KspnPdu4WvS
iu0CAwEAAaOCAWswggFnMAkGA1UdEwQCMAAwLQYJYIZIAYb4QgENBCAWHkVhc3kt
UlNBIEdlbmVyYXRlZCBDZXJ0aWZpY2F0ZTAdBgNVHQ4EFgQUgCZRJGFUECQTB1JY
xkYI1fU7+xkwgekGA1UdIwSB4TCB3oAU7ziNFFBYp1tNnBdy/N+5rKdRsBChgbqk
gbcwgbQxCzAJBgNVBAYTAlVTMQswCQYDVQQIEwJDQTEVMBMGA1UEBxMMU2FuRnJh
bmNpc2NvMRUwEwYDVQQKEwxQaXhnbG8sIEluYy4xEDAOBgNVBAsTB1ZQTi1DSUUx
GjAYBgNVBAMTEXR1bm5lbC5waXhnbG8uY29tMRwwGgYDVQQpExNCYWxhIENoYW5k
cmFzZWthcmFuMR4wHAYJKoZIhvcNAQkBFg9iYWxhQHBpeGdsby5jb22CCQCm28aD
gOageTATBgNVHSUEDDAKBggrBgEFBQcDAjALBgNVHQ8EBAMCB4AwDQYJKoZIhvcN
AQEFBQADggIBAIUm4FxFh6lXWmSyRkgFg5OkhgO2QcdRzIqhTd1pzYQMYzlapJyX
4fMZrdfvz2R20xx+LweB7OKlm65zPIZ5AJNgC7JX223wNMPZP/uIg3gt8cpZdnDD
5Hts8hav3obTqO5/V8txGvf+FYZKamvo2F0qH9XI+i/zkw2GP9pVpwmMGHF/gBrk
nySaSEcA8Dv0cpDqempkUv3rzdegxqD9A50x67De4a7A2iIi0EIvVlN67zHfagWb
Hvz7RMOLaNCHtiWWLNEs8xuAm/rCD0Kw7HqRI7J1qtxwLT2mUZgVBlVUtic/QoQQ
IbAjz/UqIY1o+YltNRq9TNlWKtmJF3tfCJyDEiRMvwzNOv3xwwR2j39ftJiNTYE3
U/q8ruoqncnp4gEpqwKMZYVqz5phEVk3l1avaQcNz4JP4M26NWqe9KCyLHJHQ4do
jGaM9b1Cl8oyV3ThLuu4PeEEM7yZQKTlhzEykyTDXzSV2Nq1HiCN15WDoDXABlnW
E4D8SrDz8FrbCqGMr4GTqGwtiXGalfsyKI0P8L6+yMSW7FKg4Ur02dQ9gt7zZRrd
GrsHclDQVT5iV1EDECTSdryAchhgUA2UiXf5Q04GqnWgY3ARx2QM9s59SCAd+tBt
u4F+7gJvZK0OBbhJ0fxJlXFImPeNZ3rxkGTvv98DMCL1lCdAtqQ3CaIy
-----END CERTIFICATE-----
