Certificate:
    Data:
        Version: 3 (0x2)
        Serial Number: 503 (0x1f7)
    Signature Algorithm: sha1WithRSAEncryption
        Issuer: C=US, ST=CA, L=SanFrancisco, O=Pixglo, Inc., OU=VPN-CIE, CN=tunnel.pixglo.com/name=Bala Chandrasekaran/emailAddress=bala@pixglo.com
        Validity
            Not Before: Feb 14 06:35:46 2018 GMT
            Not After : Feb 12 06:35:46 2028 GMT
        Subject: C=US, ST=CA, L=SanFrancisco, O=Pixglo, Inc., OU=VPN-CIE, CN=cie502/name=Bala Chandrasekaran/emailAddress=bala@pixglo.com
        Subject Public Key Info:
            Public Key Algorithm: rsaEncryption
                Public-Key: (4096 bit)
                Modulus:
                    00:b5:0f:5a:19:ab:a7:ac:e4:aa:35:69:bd:93:00:
                    d3:29:74:c8:90:c3:b6:00:12:e4:3e:21:c2:af:40:
                    ff:29:38:44:fd:01:0f:21:d8:b3:65:07:61:a2:45:
                    60:34:08:c9:85:a7:d0:2e:ba:60:9f:34:61:32:36:
                    e6:f1:00:b9:e1:97:98:30:70:05:5b:e0:c7:68:9e:
                    e6:51:a9:21:78:af:de:bd:27:fa:d1:fb:ee:ce:36:
                    76:19:1e:78:dd:46:ca:de:fd:a3:6d:6c:a2:8d:db:
                    52:3a:77:6a:aa:ea:39:fc:af:3d:83:aa:46:29:75:
                    d9:fd:4b:0d:21:a4:43:d3:c4:de:f7:6a:e0:a3:4a:
                    9a:69:97:02:7b:7d:e0:7f:e2:db:db:6a:fa:39:8e:
                    ca:a7:1e:da:62:3e:1c:6f:d2:93:ff:12:e7:ff:33:
                    58:3c:20:79:74:25:87:06:a8:20:27:7c:ce:1f:c5:
                    a7:a2:c2:5c:3c:73:81:c4:a1:6d:b9:13:e6:0b:54:
                    a3:d5:6a:99:98:84:ac:78:56:09:f5:b1:99:90:7d:
                    f4:0e:0b:ae:4c:32:15:55:6d:2f:de:1c:2a:9e:b2:
                    28:21:a8:d9:bb:d5:e8:2d:6f:5a:40:a0:c0:2f:d0:
                    a2:61:a7:36:6c:5b:f7:9a:9f:33:ee:44:eb:16:1e:
                    b3:ae:66:e5:78:47:95:b3:95:58:e0:94:db:71:1f:
                    99:f7:10:c7:cd:e9:9b:76:2b:59:3b:6b:5d:82:be:
                    fd:24:92:9f:9b:91:a3:c2:08:04:a7:c1:a7:f0:6a:
                    8f:ba:8a:3c:b9:bd:d5:7a:fe:f2:04:8f:70:13:c6:
                    7c:d7:1c:31:8a:db:03:9e:29:34:44:d2:ba:2e:d7:
                    ec:f2:52:b9:cc:b9:28:9c:f6:56:f5:dc:48:91:57:
                    7b:68:2f:88:c1:b4:12:2d:89:ca:81:2b:7c:af:e4:
                    85:ea:06:83:2e:ae:f6:04:fd:7c:00:fd:2e:bf:37:
                    b9:a9:f4:d1:8e:db:ae:d7:55:e3:5f:73:a6:ad:78:
                    5a:b9:a9:5e:1b:9f:38:02:a1:e9:80:ad:32:02:a2:
                    e7:41:93:4e:c1:1d:c1:6a:a0:0b:01:0f:f6:40:cb:
                    69:28:ac:d6:b0:3e:c1:16:0f:80:28:fa:34:db:ba:
                    b8:58:fc:3d:bc:45:08:46:17:9e:c4:e9:b4:5a:27:
                    eb:8e:80:9d:a6:8e:6b:de:30:34:86:83:c1:1d:06:
                    d3:e0:13:a5:f8:31:49:b2:ee:cc:2a:5c:d4:30:26:
                    a9:06:3e:e7:5d:7b:53:28:94:55:d8:8a:bf:8c:52:
                    1d:fa:74:3d:cd:85:60:ea:88:12:08:52:34:a2:ad:
                    10:d6:43
                Exponent: 65537 (0x10001)
        X509v3 extensions:
            X509v3 Basic Constraints: 
                CA:FALSE
            Netscape Comment: 
                Easy-RSA Generated Certificate
            X509v3 Subject Key Identifier: 
                DE:23:50:43:16:2B:C2:6F:5C:5D:E8:64:3D:98:13:5A:8B:75:C3:A8
            X509v3 Authority Key Identifier: 
                keyid:EF:38:8D:14:50:58:A7:5B:4D:9C:17:72:FC:DF:B9:AC:A7:51:B0:10
                DirName:/C=US/ST=CA/L=SanFrancisco/O=Pixglo, Inc./OU=VPN-CIE/CN=tunnel.pixglo.com/name=Bala Chandrasekaran/emailAddress=bala@pixglo.com
                serial:A6:DB:C6:83:80:E6:A0:79

            X509v3 Extended Key Usage: 
                TLS Web Client Authentication
            X509v3 Key Usage: 
                Digital Signature
    Signature Algorithm: sha1WithRSAEncryption
         97:a6:a5:55:92:09:2d:37:33:2c:21:e4:10:d7:a5:13:3f:10:
         17:ad:40:1c:c0:12:47:f7:b5:c8:f0:ea:da:6e:97:27:4c:78:
         45:4e:20:b9:f7:cd:49:ed:69:1c:9b:47:62:3c:d5:6e:3f:a8:
         51:84:c9:6b:e5:9a:c9:60:32:19:b4:b2:28:8f:a7:34:1d:cb:
         8a:e1:cc:38:6e:d7:de:13:9d:5d:8e:a5:07:a8:5b:7b:60:18:
         da:82:2c:48:4e:70:c6:74:4d:4c:8b:7c:94:bd:49:ca:f4:fd:
         8a:49:b9:66:dc:e6:e4:23:70:aa:de:d2:c0:52:f3:15:c4:7e:
         cb:49:d6:e3:11:8b:0b:55:9a:27:e8:67:f4:e4:86:bd:4c:53:
         01:24:05:ce:d4:58:6b:80:f5:cf:92:d8:c3:04:51:ac:dc:e9:
         bf:09:04:55:3d:b4:aa:cb:fd:75:d4:d6:54:e0:6e:4f:ec:c1:
         93:69:0d:43:1d:25:84:e3:05:d2:d6:9d:cf:0c:a8:fb:fa:c6:
         fd:f4:1f:51:4a:75:1c:de:b3:00:ce:b5:72:7c:ff:42:de:e0:
         3a:ed:08:c6:b8:3b:8b:94:3a:a4:54:3b:b1:5e:f2:7f:bc:74:
         f4:87:9a:1f:25:a0:ec:54:7c:a0:5b:77:18:9f:51:09:ab:fa:
         ed:7d:f6:49:99:cb:b6:06:a0:d7:54:69:e4:aa:ce:22:a5:f5:
         29:6c:9e:b0:91:5b:13:7b:14:2f:4e:6a:da:45:0c:fb:d1:74:
         3c:2f:7e:4d:5d:9d:97:05:e5:01:df:84:2e:43:e8:ad:52:5a:
         75:b9:52:8e:c4:be:b8:b3:4f:fe:a1:13:70:3b:b0:cb:3c:b7:
         22:be:73:c7:21:b5:5b:8a:20:a1:92:f0:24:02:59:e7:79:e1:
         7b:52:6c:b8:27:f0:89:e8:fa:45:82:3d:9a:2c:86:71:87:d9:
         fc:53:d7:de:b4:e4:6d:9e:c9:26:71:a2:92:89:79:da:48:4e:
         35:5a:3e:38:d8:f3:3d:75:3f:b5:9f:37:52:43:4d:f4:1e:61:
         34:61:92:ee:78:18:58:84:90:38:12:2e:a4:e8:3f:44:77:62:
         cf:d7:db:c6:2e:1d:2b:11:19:c6:c6:d1:aa:b2:62:88:44:e5:
         39:f4:d6:9f:8a:d9:87:cd:e6:bc:db:99:80:f7:51:49:0e:00:
         7d:c2:ff:c6:68:33:1d:0d:bd:09:42:84:0f:59:5d:ac:c1:7a:
         fd:47:88:8d:8d:52:ce:ab:eb:d3:b5:9c:7e:36:5b:e6:95:6f:
         ec:97:5e:50:2b:bf:9f:94:9c:f2:88:39:33:5b:a2:4e:98:f0:
         0f:df:a3:ed:91:33:05:50
-----BEGIN CERTIFICATE-----
MIIHSDCCBTCgAwIBAgICAfcwDQYJKoZIhvcNAQEFBQAwgbQxCzAJBgNVBAYTAlVT
MQswCQYDVQQIEwJDQTEVMBMGA1UEBxMMU2FuRnJhbmNpc2NvMRUwEwYDVQQKEwxQ
aXhnbG8sIEluYy4xEDAOBgNVBAsTB1ZQTi1DSUUxGjAYBgNVBAMTEXR1bm5lbC5w
aXhnbG8uY29tMRwwGgYDVQQpExNCYWxhIENoYW5kcmFzZWthcmFuMR4wHAYJKoZI
hvcNAQkBFg9iYWxhQHBpeGdsby5jb20wHhcNMTgwMjE0MDYzNTQ2WhcNMjgwMjEy
MDYzNTQ2WjCBqTELMAkGA1UEBhMCVVMxCzAJBgNVBAgTAkNBMRUwEwYDVQQHEwxT
YW5GcmFuY2lzY28xFTATBgNVBAoTDFBpeGdsbywgSW5jLjEQMA4GA1UECxMHVlBO
LUNJRTEPMA0GA1UEAxMGY2llNTAyMRwwGgYDVQQpExNCYWxhIENoYW5kcmFzZWth
cmFuMR4wHAYJKoZIhvcNAQkBFg9iYWxhQHBpeGdsby5jb20wggIiMA0GCSqGSIb3
DQEBAQUAA4ICDwAwggIKAoICAQC1D1oZq6es5Ko1ab2TANMpdMiQw7YAEuQ+IcKv
QP8pOET9AQ8h2LNlB2GiRWA0CMmFp9AuumCfNGEyNubxALnhl5gwcAVb4MdonuZR
qSF4r969J/rR++7ONnYZHnjdRsre/aNtbKKN21I6d2qq6jn8rz2DqkYpddn9Sw0h
pEPTxN73auCjSppplwJ7feB/4tvbavo5jsqnHtpiPhxv0pP/Euf/M1g8IHl0JYcG
qCAnfM4fxaeiwlw8c4HEoW25E+YLVKPVapmYhKx4Vgn1sZmQffQOC65MMhVVbS/e
HCqesighqNm71egtb1pAoMAv0KJhpzZsW/eanzPuROsWHrOuZuV4R5WzlVjglNtx
H5n3EMfN6Zt2K1k7a12Cvv0kkp+bkaPCCASnwafwao+6ijy5vdV6/vIEj3ATxnzX
HDGK2wOeKTRE0rou1+zyUrnMuSic9lb13EiRV3toL4jBtBIticqBK3yv5IXqBoMu
rvYE/XwA/S6/N7mp9NGO267XVeNfc6ateFq5qV4bnzgCoemArTICoudBk07BHcFq
oAsBD/ZAy2korNawPsEWD4Ao+jTburhY/D28RQhGF57E6bRaJ+uOgJ2mjmveMDSG
g8EdBtPgE6X4MUmy7swqXNQwJqkGPudde1MolFXYir+MUh36dD3NhWDqiBIIUjSi
rRDWQwIDAQABo4IBazCCAWcwCQYDVR0TBAIwADAtBglghkgBhvhCAQ0EIBYeRWFz
eS1SU0EgR2VuZXJhdGVkIENlcnRpZmljYXRlMB0GA1UdDgQWBBTeI1BDFivCb1xd
6GQ9mBNai3XDqDCB6QYDVR0jBIHhMIHegBTvOI0UUFinW02cF3L837msp1GwEKGB
uqSBtzCBtDELMAkGA1UEBhMCVVMxCzAJBgNVBAgTAkNBMRUwEwYDVQQHEwxTYW5G
cmFuY2lzY28xFTATBgNVBAoTDFBpeGdsbywgSW5jLjEQMA4GA1UECxMHVlBOLUNJ
RTEaMBgGA1UEAxMRdHVubmVsLnBpeGdsby5jb20xHDAaBgNVBCkTE0JhbGEgQ2hh
bmRyYXNla2FyYW4xHjAcBgkqhkiG9w0BCQEWD2JhbGFAcGl4Z2xvLmNvbYIJAKbb
xoOA5qB5MBMGA1UdJQQMMAoGCCsGAQUFBwMCMAsGA1UdDwQEAwIHgDANBgkqhkiG
9w0BAQUFAAOCAgEAl6alVZIJLTczLCHkENelEz8QF61AHMASR/e1yPDq2m6XJ0x4
RU4guffNSe1pHJtHYjzVbj+oUYTJa+WayWAyGbSyKI+nNB3LiuHMOG7X3hOdXY6l
B6hbe2AY2oIsSE5wxnRNTIt8lL1JyvT9ikm5Ztzm5CNwqt7SwFLzFcR+y0nW4xGL
C1WaJ+hn9OSGvUxTASQFztRYa4D1z5LYwwRRrNzpvwkEVT20qsv9ddTWVOBuT+zB
k2kNQx0lhOMF0tadzwyo+/rG/fQfUUp1HN6zAM61cnz/Qt7gOu0Ixrg7i5Q6pFQ7
sV7yf7x09IeaHyWg7FR8oFt3GJ9RCav67X32SZnLtgag11Rp5KrOIqX1KWyesJFb
E3sUL05q2kUM+9F0PC9+TV2dlwXlAd+ELkPorVJadblSjsS+uLNP/qETcDuwyzy3
Ir5zxyG1W4ogoZLwJAJZ53nhe1JsuCfwiej6RYI9miyGcYfZ/FPX3rTkbZ7JJnGi
kol52khONVo+ONjzPXU/tZ83UkNN9B5hNGGS7ngYWISQOBIupOg/RHdiz9fbxi4d
KxEZxsbRqrJiiETlOfTWn4rZh83mvNuZgPdRSQ4AfcL/xmgzHQ29CUKED1ldrMF6
/UeIjY1Szqvr07WcfjZb5pVv7JdeUCu/n5Sc8og5M1uiTpjwD9+j7ZEzBVA=
-----END CERTIFICATE-----
