Certificate:
    Data:
        Version: 3 (0x2)
        Serial Number: 599 (0x257)
    Signature Algorithm: sha1WithRSAEncryption
        Issuer: C=US, ST=CA, L=SanFrancisco, O=Pixglo, Inc., OU=VPN-CIE, CN=tunnel.pixglo.com/name=Bala Chandrasekaran/emailAddress=bala@pixglo.com
        Validity
            Not Before: Feb 14 06:38:03 2018 GMT
            Not After : Feb 12 06:38:03 2028 GMT
        Subject: C=US, ST=CA, L=SanFrancisco, O=Pixglo, Inc., OU=VPN-CIE, CN=cie598/name=Bala Chandrasekaran/emailAddress=bala@pixglo.com
        Subject Public Key Info:
            Public Key Algorithm: rsaEncryption
                Public-Key: (4096 bit)
                Modulus:
                    00:db:99:71:3c:77:79:ea:cf:86:31:cb:01:2c:74:
                    a6:30:bd:7d:dd:fc:72:70:7e:63:37:0e:c1:ae:a6:
                    26:65:01:55:e5:bc:0e:ed:2c:9f:67:6d:ba:5f:53:
                    7d:97:84:97:33:a2:3e:0a:a1:24:42:56:e8:e2:7f:
                    03:71:5c:0f:61:6d:95:ac:13:9a:c1:29:e4:9d:4f:
                    be:19:9d:30:7d:d6:f3:de:0a:43:08:35:fb:06:37:
                    d9:5d:f7:bf:d6:cc:20:54:45:a4:75:aa:b4:63:b8:
                    d1:2c:a8:08:29:dd:bf:d6:68:51:c7:e2:56:37:56:
                    18:dd:f8:77:96:00:6d:7d:1e:3c:4a:3a:fe:e3:b8:
                    61:a5:31:0f:00:61:b7:33:63:48:f3:a0:3b:b2:f6:
                    d9:69:12:66:c3:80:a0:2d:71:a9:8d:2a:2a:3a:44:
                    d1:ad:65:85:ee:4d:95:3b:69:72:a0:bf:ef:b9:56:
                    5a:5e:8c:34:79:02:a2:cb:94:9b:82:ac:e0:9e:47:
                    7d:5a:03:b6:a6:4b:ab:d4:c7:8a:b2:06:e5:d4:4c:
                    49:13:27:d7:07:48:81:d7:86:ea:88:30:e6:be:a3:
                    bf:82:3b:4d:7b:36:fb:2d:44:0a:79:34:e5:06:03:
                    71:91:82:a3:b9:e9:36:d5:65:f9:37:1c:40:c9:5b:
                    f1:c8:b3:a2:86:6a:04:05:41:6d:16:68:d0:65:37:
                    91:d1:62:e8:4b:b9:4c:76:d0:7e:4a:e9:c9:cd:06:
                    86:13:64:2c:09:a4:d9:dd:3d:3a:56:eb:9e:4f:f4:
                    17:68:3c:df:98:8a:02:6c:20:02:4a:24:f8:2c:25:
                    29:7a:5c:9d:3f:5d:ff:fe:b5:56:b8:fd:db:4f:30:
                    20:e7:cb:d8:3b:6b:d3:92:5e:6b:f9:eb:46:ce:ab:
                    ba:f9:30:48:d7:84:f1:66:b4:99:2d:09:36:35:78:
                    ed:59:ea:e4:a3:e2:8e:52:2d:11:14:18:9f:95:6b:
                    cf:61:fc:d2:d4:f0:03:42:a5:a8:5d:e9:06:06:85:
                    0a:ab:8c:96:8c:06:e9:84:43:00:3b:e1:e1:ab:e6:
                    14:17:95:0b:d2:2a:b9:08:be:97:86:d1:94:04:42:
                    f1:f2:73:66:a0:3f:ef:59:32:e4:6f:1d:fa:2c:95:
                    68:21:f8:9f:4c:9f:2e:21:49:f7:7b:07:4a:aa:2f:
                    27:29:7d:14:c2:72:68:13:d0:0b:8f:1f:b7:2a:cf:
                    85:8a:51:65:5e:85:f3:a0:93:46:5c:38:88:e6:b8:
                    2a:a0:79:2d:ef:fc:86:6d:3c:79:76:5e:f3:24:03:
                    54:ed:26:63:67:b3:2a:12:84:dd:40:76:c2:c6:19:
                    6b:02:f1
                Exponent: 65537 (0x10001)
        X509v3 extensions:
            X509v3 Basic Constraints: 
                CA:FALSE
            Netscape Comment: 
                Easy-RSA Generated Certificate
            X509v3 Subject Key Identifier: 
                29:48:37:68:1F:8E:C7:6E:31:49:F0:E2:89:84:C4:76:A3:D3:FC:AF
            X509v3 Authority Key Identifier: 
                keyid:EF:38:8D:14:50:58:A7:5B:4D:9C:17:72:FC:DF:B9:AC:A7:51:B0:10
                DirName:/C=US/ST=CA/L=SanFrancisco/O=Pixglo, Inc./OU=VPN-CIE/CN=tunnel.pixglo.com/name=Bala Chandrasekaran/emailAddress=bala@pixglo.com
                serial:A6:DB:C6:83:80:E6:A0:79

            X509v3 Extended Key Usage: 
                TLS Web Client Authentication
            X509v3 Key Usage: 
                Digital Signature
    Signature Algorithm: sha1WithRSAEncryption
         a3:c7:9f:1e:e7:11:89:40:b8:2a:b5:02:a2:32:74:55:57:27:
         ce:64:1d:7b:b0:5f:8b:52:9e:fc:a4:e9:c9:4d:f7:f9:20:bf:
         aa:03:0c:67:7d:b6:f5:60:b5:0d:98:31:b0:9e:00:11:db:94:
         77:50:7b:bd:2a:bb:42:e3:74:6a:d3:d1:94:18:bf:6d:9b:be:
         a5:19:79:0e:8c:54:4c:3e:65:f7:0e:1e:c7:bb:7d:c9:41:90:
         6d:33:d8:7a:1e:b5:69:f2:b0:eb:1c:20:96:50:78:d7:89:c1:
         09:ed:9c:6e:d9:33:aa:69:22:c8:e8:5a:a0:2e:6d:20:96:be:
         72:58:fc:5e:c9:27:ed:c2:1b:71:f7:3b:f1:2b:1d:12:a0:d3:
         be:7b:b2:50:5c:fc:6c:39:bf:c2:2a:d3:88:6e:bf:98:0f:3a:
         25:bd:8d:22:0f:0a:47:c2:9c:5f:f1:d7:26:1c:6d:8a:4c:b2:
         97:fe:d6:79:de:52:6e:bd:8c:d4:c3:7b:70:51:c2:8e:cb:a5:
         0a:be:1e:d2:d5:62:8d:be:f7:f2:4d:ef:f4:c8:fb:72:6b:64:
         58:b2:d0:fe:3b:da:78:01:8c:4c:a7:d2:4f:2f:4c:d6:94:20:
         f1:21:c8:73:7b:29:c9:0d:19:e8:0b:18:0e:c2:ed:79:46:e9:
         73:eb:ce:f5:06:0f:84:cf:8f:1b:3c:7a:30:08:b1:7a:41:c6:
         71:6a:06:bd:04:0d:cf:eb:d5:cd:0c:74:a3:75:fc:3c:d8:6f:
         77:60:e2:ca:54:5a:1f:d7:f9:09:23:f4:31:12:cc:ad:5d:64:
         76:8a:f6:29:f4:10:96:98:71:86:81:9f:54:4b:03:64:df:bd:
         f2:ca:ed:c9:e7:25:d3:47:4e:93:05:f1:be:33:22:e8:2e:07:
         9a:01:41:7a:d6:fd:07:4f:0b:84:45:21:15:12:bb:45:ba:96:
         ca:58:a9:15:fd:e0:9d:45:03:63:0a:da:2e:4c:a5:f8:9c:42:
         40:54:ff:2e:4d:e8:54:07:4c:3b:b2:d3:51:d4:b6:70:24:ea:
         ea:d2:33:d0:ef:75:b6:9b:a1:2c:2a:bf:3e:24:cb:a2:cb:71:
         c3:31:b4:e9:c1:18:20:92:b6:e4:97:7f:72:5d:3c:68:ec:ff:
         e5:e0:7f:ca:ed:0c:08:4c:4c:e9:41:60:25:c7:29:3b:ad:fa:
         40:d3:6b:b2:24:2d:eb:59:93:a9:3a:24:c8:ba:25:f9:6c:0a:
         c7:e8:f9:c5:29:9d:e7:5c:89:c5:18:69:dc:df:c1:fb:c3:46:
         d7:7d:f5:6f:c8:a2:fb:ad:0f:4d:5d:10:db:9d:f9:7c:7a:58:
         84:3e:54:0f:6c:61:b6:d7
-----BEGIN CERTIFICATE-----
MIIHSDCCBTCgAwIBAgICAlcwDQYJKoZIhvcNAQEFBQAwgbQxCzAJBgNVBAYTAlVT
MQswCQYDVQQIEwJDQTEVMBMGA1UEBxMMU2FuRnJhbmNpc2NvMRUwEwYDVQQKEwxQ
aXhnbG8sIEluYy4xEDAOBgNVBAsTB1ZQTi1DSUUxGjAYBgNVBAMTEXR1bm5lbC5w
aXhnbG8uY29tMRwwGgYDVQQpExNCYWxhIENoYW5kcmFzZWthcmFuMR4wHAYJKoZI
hvcNAQkBFg9iYWxhQHBpeGdsby5jb20wHhcNMTgwMjE0MDYzODAzWhcNMjgwMjEy
MDYzODAzWjCBqTELMAkGA1UEBhMCVVMxCzAJBgNVBAgTAkNBMRUwEwYDVQQHEwxT
YW5GcmFuY2lzY28xFTATBgNVBAoTDFBpeGdsbywgSW5jLjEQMA4GA1UECxMHVlBO
LUNJRTEPMA0GA1UEAxMGY2llNTk4MRwwGgYDVQQpExNCYWxhIENoYW5kcmFzZWth
cmFuMR4wHAYJKoZIhvcNAQkBFg9iYWxhQHBpeGdsby5jb20wggIiMA0GCSqGSIb3
DQEBAQUAA4ICDwAwggIKAoICAQDbmXE8d3nqz4YxywEsdKYwvX3d/HJwfmM3DsGu
piZlAVXlvA7tLJ9nbbpfU32XhJczoj4KoSRCVujifwNxXA9hbZWsE5rBKeSdT74Z
nTB91vPeCkMINfsGN9ld97/WzCBURaR1qrRjuNEsqAgp3b/WaFHH4lY3Vhjd+HeW
AG19HjxKOv7juGGlMQ8AYbczY0jzoDuy9tlpEmbDgKAtcamNKio6RNGtZYXuTZU7
aXKgv++5VlpejDR5AqLLlJuCrOCeR31aA7amS6vUx4qyBuXUTEkTJ9cHSIHXhuqI
MOa+o7+CO017NvstRAp5NOUGA3GRgqO56TbVZfk3HEDJW/HIs6KGagQFQW0WaNBl
N5HRYuhLuUx20H5K6cnNBoYTZCwJpNndPTpW655P9BdoPN+YigJsIAJKJPgsJSl6
XJ0/Xf/+tVa4/dtPMCDny9g7a9OSXmv560bOq7r5MEjXhPFmtJktCTY1eO1Z6uSj
4o5SLREUGJ+Va89h/NLU8ANCpahd6QYGhQqrjJaMBumEQwA74eGr5hQXlQvSKrkI
vpeG0ZQEQvHyc2agP+9ZMuRvHfoslWgh+J9Mny4hSfd7B0qqLycpfRTCcmgT0AuP
H7cqz4WKUWVehfOgk0ZcOIjmuCqgeS3v/IZtPHl2XvMkA1TtJmNnsyoShN1AdsLG
GWsC8QIDAQABo4IBazCCAWcwCQYDVR0TBAIwADAtBglghkgBhvhCAQ0EIBYeRWFz
eS1SU0EgR2VuZXJhdGVkIENlcnRpZmljYXRlMB0GA1UdDgQWBBQpSDdoH47HbjFJ
8OKJhMR2o9P8rzCB6QYDVR0jBIHhMIHegBTvOI0UUFinW02cF3L837msp1GwEKGB
uqSBtzCBtDELMAkGA1UEBhMCVVMxCzAJBgNVBAgTAkNBMRUwEwYDVQQHEwxTYW5G
cmFuY2lzY28xFTATBgNVBAoTDFBpeGdsbywgSW5jLjEQMA4GA1UECxMHVlBOLUNJ
RTEaMBgGA1UEAxMRdHVubmVsLnBpeGdsby5jb20xHDAaBgNVBCkTE0JhbGEgQ2hh
bmRyYXNla2FyYW4xHjAcBgkqhkiG9w0BCQEWD2JhbGFAcGl4Z2xvLmNvbYIJAKbb
xoOA5qB5MBMGA1UdJQQMMAoGCCsGAQUFBwMCMAsGA1UdDwQEAwIHgDANBgkqhkiG
9w0BAQUFAAOCAgEAo8efHucRiUC4KrUCojJ0VVcnzmQde7Bfi1Ke/KTpyU33+SC/
qgMMZ3229WC1DZgxsJ4AEduUd1B7vSq7QuN0atPRlBi/bZu+pRl5DoxUTD5l9w4e
x7t9yUGQbTPYeh61afKw6xwgllB414nBCe2cbtkzqmkiyOhaoC5tIJa+clj8Xskn
7cIbcfc78SsdEqDTvnuyUFz8bDm/wirTiG6/mA86Jb2NIg8KR8KcX/HXJhxtikyy
l/7Wed5Sbr2M1MN7cFHCjsulCr4e0tVijb738k3v9Mj7cmtkWLLQ/jvaeAGMTKfS
Ty9M1pQg8SHIc3spyQ0Z6AsYDsLteUbpc+vO9QYPhM+PGzx6MAixekHGcWoGvQQN
z+vVzQx0o3X8PNhvd2DiylRaH9f5CSP0MRLMrV1kdor2KfQQlphxhoGfVEsDZN+9
8srtyecl00dOkwXxvjMi6C4HmgFBetb9B08LhEUhFRK7RbqWylipFf3gnUUDYwra
Lkyl+JxCQFT/Lk3oVAdMO7LTUdS2cCTq6tIz0O91tpuhLCq/PiTLostxwzG06cEY
IJK25Jd/cl08aOz/5eB/yu0MCExM6UFgJccpO636QNNrsiQt61mTqTokyLol+WwK
x+j5xSmd51yJxRhp3N/B+8NG1331b8ii+60PTV0Q2535fHpYhD5UD2xhttc=
-----END CERTIFICATE-----
