Certificate:
    Data:
        Version: 3 (0x2)
        Serial Number: 573 (0x23d)
    Signature Algorithm: sha1WithRSAEncryption
        Issuer: C=US, ST=CA, L=SanFrancisco, O=Pixglo, Inc., OU=VPN-CIE, CN=tunnel.pixglo.com/name=Bala Chandrasekaran/emailAddress=bala@pixglo.com
        Validity
            Not Before: Feb 14 06:37:25 2018 GMT
            Not After : Feb 12 06:37:25 2028 GMT
        Subject: C=US, ST=CA, L=SanFrancisco, O=Pixglo, Inc., OU=VPN-CIE, CN=cie572/name=Bala Chandrasekaran/emailAddress=bala@pixglo.com
        Subject Public Key Info:
            Public Key Algorithm: rsaEncryption
                Public-Key: (4096 bit)
                Modulus:
                    00:e5:0f:6d:31:df:ad:74:de:d1:7e:26:c2:52:6b:
                    ab:44:60:ff:26:32:8b:cd:ef:5f:18:f8:75:c2:a9:
                    60:4a:67:d4:1f:15:9e:8a:15:3b:17:3b:00:39:25:
                    04:15:af:a0:73:9b:2b:88:63:7c:45:38:0f:f5:43:
                    ab:eb:f6:86:3b:61:9c:57:29:0e:ff:2d:cf:10:71:
                    0d:9d:5b:1e:a2:a5:94:84:a7:fa:f9:b9:bc:7b:cf:
                    9a:c7:51:1d:2d:65:6f:9c:88:18:a1:25:4c:65:6f:
                    d1:7a:96:6d:e1:fe:8b:db:2f:8a:8b:02:6a:5c:e3:
                    38:cb:72:b0:df:66:e8:ff:ca:ad:2e:45:cf:16:3a:
                    d3:2b:85:78:e2:ab:77:34:01:d5:4f:ab:5f:7a:a0:
                    bf:8b:3b:e9:42:80:0c:96:72:5b:3c:f7:03:7d:6a:
                    71:33:b4:cd:d2:7b:cd:21:f7:83:3c:49:e2:f6:d0:
                    29:98:64:8b:1e:4a:6a:5c:2b:86:4b:82:4e:4c:c8:
                    12:1d:aa:e1:5a:a8:d8:54:fe:6d:c7:52:eb:4d:05:
                    de:f7:69:5e:73:ff:ff:77:e7:e9:ac:f4:a5:01:d0:
                    a0:92:31:51:71:3c:45:51:3b:89:62:81:56:2f:d4:
                    7e:0e:f5:1d:7e:d0:87:dd:f0:d1:34:82:37:e7:09:
                    f6:48:f5:09:68:89:29:ee:d7:5f:2e:48:27:a6:09:
                    1f:9e:04:e8:34:8e:ed:94:b1:19:84:ae:90:db:bb:
                    a9:f2:a2:bf:b0:4f:b0:7d:fc:62:85:67:ce:d5:84:
                    ef:ae:6a:8d:ca:1a:6e:ce:b8:9f:66:3d:6b:b0:5b:
                    29:03:21:61:cc:1f:1d:c7:01:7f:27:68:10:e3:e5:
                    96:60:f8:23:7a:ba:41:cd:20:f0:0d:d6:f6:6f:7b:
                    1f:e7:8c:e8:02:18:47:a5:16:0c:7e:f5:ad:19:15:
                    30:60:92:d5:78:62:a8:f8:f7:f6:a7:d9:c7:c4:14:
                    07:f6:64:be:d2:e0:a1:3e:aa:fd:f7:be:e7:56:8f:
                    86:1f:30:e5:a7:33:67:e4:e6:a3:e4:35:75:c7:22:
                    3e:d5:36:21:e6:fd:ba:0c:f5:ff:96:78:20:b1:90:
                    e5:33:8c:24:09:bf:6b:4a:2f:b0:a7:99:ef:cc:12:
                    0c:22:b4:c0:d9:d4:d3:2a:ec:73:4d:7c:08:9c:88:
                    02:ef:01:83:c9:1c:86:7d:af:93:68:0d:51:f3:0b:
                    8e:e6:6d:06:8c:cd:fa:d3:a9:57:51:4f:c9:5f:79:
                    4f:67:51:d2:37:51:a5:79:50:a6:55:69:73:49:bb:
                    be:ae:44:db:10:eb:20:eb:48:49:22:22:a1:a3:c4:
                    eb:6c:8b
                Exponent: 65537 (0x10001)
        X509v3 extensions:
            X509v3 Basic Constraints: 
                CA:FALSE
            Netscape Comment: 
                Easy-RSA Generated Certificate
            X509v3 Subject Key Identifier: 
                B0:51:9E:5E:CD:59:1F:46:CD:41:FB:48:8E:83:CB:2D:4F:07:59:8F
            X509v3 Authority Key Identifier: 
                keyid:EF:38:8D:14:50:58:A7:5B:4D:9C:17:72:FC:DF:B9:AC:A7:51:B0:10
                DirName:/C=US/ST=CA/L=SanFrancisco/O=Pixglo, Inc./OU=VPN-CIE/CN=tunnel.pixglo.com/name=Bala Chandrasekaran/emailAddress=bala@pixglo.com
                serial:A6:DB:C6:83:80:E6:A0:79

            X509v3 Extended Key Usage: 
                TLS Web Client Authentication
            X509v3 Key Usage: 
                Digital Signature
    Signature Algorithm: sha1WithRSAEncryption
         09:f6:a3:dd:bb:42:93:dd:78:f8:77:cc:3a:0e:a9:79:49:6c:
         1c:c2:43:fc:19:4a:75:01:45:e7:5c:b9:2c:7d:f9:17:fd:ef:
         c9:0a:53:ad:84:1a:3c:f4:48:62:bd:4e:5f:e4:d0:cd:73:e8:
         6a:81:aa:12:12:94:87:e8:c8:9a:db:c5:47:a0:b5:fe:37:80:
         f7:7a:fa:47:eb:58:ad:a4:3d:db:d4:42:38:1f:c9:01:44:c1:
         22:78:f4:02:85:c7:79:32:88:7f:12:3b:d1:c2:f5:7d:d5:87:
         de:47:7f:70:86:1d:0c:1a:3f:9d:44:24:ef:02:b4:3e:71:ed:
         27:03:8b:24:6b:50:5c:50:f3:57:0a:a0:77:a5:e4:6e:16:76:
         66:16:01:f5:89:40:f8:18:1d:bc:3f:a2:28:52:ef:07:d3:02:
         8f:c6:91:25:37:12:be:c4:39:a5:bf:6c:81:8b:c6:99:2e:b1:
         0e:31:f5:37:f0:80:7d:88:fa:29:03:e1:6c:c7:77:2c:93:12:
         46:e4:ea:d2:40:0a:92:36:5c:41:7c:4d:e6:ab:30:f9:79:30:
         cd:be:e3:3b:02:66:97:77:95:ca:c3:62:1c:cf:7c:5e:d5:66:
         91:04:ec:ae:eb:3e:2a:ef:47:04:e5:9c:b9:f1:eb:e6:23:6d:
         4d:e0:f5:44:a5:55:dc:1d:76:7d:d7:de:6a:e0:da:ce:7f:bc:
         cc:36:88:c2:62:11:72:46:ae:93:96:7e:4c:6f:e3:80:31:9e:
         fa:0f:b1:33:03:72:0b:00:4a:86:46:17:47:da:49:e5:82:69:
         94:36:a0:37:9d:3f:c4:5d:a3:a6:84:53:d6:f5:e7:2f:39:3d:
         fd:5a:51:84:d5:f9:c3:30:bd:16:23:d8:39:6f:30:fc:f3:32:
         97:05:65:7a:ea:df:c7:d8:ef:d8:39:8d:35:37:65:6f:f3:5c:
         ad:15:af:aa:75:6c:36:98:94:e9:97:06:96:97:17:e8:ff:98:
         c5:df:a3:83:a4:98:2e:e7:16:d6:2e:2a:b4:83:2f:35:99:e0:
         6f:8a:81:cf:94:f8:42:63:f6:24:23:3b:57:46:e2:b9:f0:c6:
         17:55:ca:61:36:e0:4c:11:43:07:4e:2f:a4:04:0b:ea:dc:3a:
         04:ae:3e:8c:99:4d:17:b5:67:8d:04:05:e4:c7:ab:78:cd:5b:
         d3:1e:75:48:19:5b:9e:5a:74:74:5d:f8:df:b7:b7:ab:3c:54:
         8b:a1:bf:7d:d5:93:4e:e1:0b:c1:21:13:08:25:4e:65:8d:ee:
         13:f3:28:29:81:c4:bc:d1:8c:ca:9b:85:b1:ae:b5:e7:83:6d:
         15:96:20:b7:9c:23:ef:af
-----BEGIN CERTIFICATE-----
MIIHSDCCBTCgAwIBAgICAj0wDQYJKoZIhvcNAQEFBQAwgbQxCzAJBgNVBAYTAlVT
MQswCQYDVQQIEwJDQTEVMBMGA1UEBxMMU2FuRnJhbmNpc2NvMRUwEwYDVQQKEwxQ
aXhnbG8sIEluYy4xEDAOBgNVBAsTB1ZQTi1DSUUxGjAYBgNVBAMTEXR1bm5lbC5w
aXhnbG8uY29tMRwwGgYDVQQpExNCYWxhIENoYW5kcmFzZWthcmFuMR4wHAYJKoZI
hvcNAQkBFg9iYWxhQHBpeGdsby5jb20wHhcNMTgwMjE0MDYzNzI1WhcNMjgwMjEy
MDYzNzI1WjCBqTELMAkGA1UEBhMCVVMxCzAJBgNVBAgTAkNBMRUwEwYDVQQHEwxT
YW5GcmFuY2lzY28xFTATBgNVBAoTDFBpeGdsbywgSW5jLjEQMA4GA1UECxMHVlBO
LUNJRTEPMA0GA1UEAxMGY2llNTcyMRwwGgYDVQQpExNCYWxhIENoYW5kcmFzZWth
cmFuMR4wHAYJKoZIhvcNAQkBFg9iYWxhQHBpeGdsby5jb20wggIiMA0GCSqGSIb3
DQEBAQUAA4ICDwAwggIKAoICAQDlD20x36103tF+JsJSa6tEYP8mMovN718Y+HXC
qWBKZ9QfFZ6KFTsXOwA5JQQVr6BzmyuIY3xFOA/1Q6vr9oY7YZxXKQ7/Lc8QcQ2d
Wx6ipZSEp/r5ubx7z5rHUR0tZW+ciBihJUxlb9F6lm3h/ovbL4qLAmpc4zjLcrDf
Zuj/yq0uRc8WOtMrhXjiq3c0AdVPq196oL+LO+lCgAyWcls89wN9anEztM3Se80h
94M8SeL20CmYZIseSmpcK4ZLgk5MyBIdquFaqNhU/m3HUutNBd73aV5z//935+ms
9KUB0KCSMVFxPEVRO4ligVYv1H4O9R1+0Ifd8NE0gjfnCfZI9QloiSnu118uSCem
CR+eBOg0ju2UsRmErpDbu6nyor+wT7B9/GKFZ87VhO+uao3KGm7OuJ9mPWuwWykD
IWHMHx3HAX8naBDj5ZZg+CN6ukHNIPAN1vZvex/njOgCGEelFgx+9a0ZFTBgktV4
Yqj49/an2cfEFAf2ZL7S4KE+qv33vudWj4YfMOWnM2fk5qPkNXXHIj7VNiHm/boM
9f+WeCCxkOUzjCQJv2tKL7Cnme/MEgwitMDZ1NMq7HNNfAiciALvAYPJHIZ9r5No
DVHzC47mbQaMzfrTqVdRT8lfeU9nUdI3UaV5UKZVaXNJu76uRNsQ6yDrSEkiIqGj
xOtsiwIDAQABo4IBazCCAWcwCQYDVR0TBAIwADAtBglghkgBhvhCAQ0EIBYeRWFz
eS1SU0EgR2VuZXJhdGVkIENlcnRpZmljYXRlMB0GA1UdDgQWBBSwUZ5ezVkfRs1B
+0iOg8stTwdZjzCB6QYDVR0jBIHhMIHegBTvOI0UUFinW02cF3L837msp1GwEKGB
uqSBtzCBtDELMAkGA1UEBhMCVVMxCzAJBgNVBAgTAkNBMRUwEwYDVQQHEwxTYW5G
cmFuY2lzY28xFTATBgNVBAoTDFBpeGdsbywgSW5jLjEQMA4GA1UECxMHVlBOLUNJ
RTEaMBgGA1UEAxMRdHVubmVsLnBpeGdsby5jb20xHDAaBgNVBCkTE0JhbGEgQ2hh
bmRyYXNla2FyYW4xHjAcBgkqhkiG9w0BCQEWD2JhbGFAcGl4Z2xvLmNvbYIJAKbb
xoOA5qB5MBMGA1UdJQQMMAoGCCsGAQUFBwMCMAsGA1UdDwQEAwIHgDANBgkqhkiG
9w0BAQUFAAOCAgEACfaj3btCk914+HfMOg6peUlsHMJD/BlKdQFF51y5LH35F/3v
yQpTrYQaPPRIYr1OX+TQzXPoaoGqEhKUh+jImtvFR6C1/jeA93r6R+tYraQ929RC
OB/JAUTBInj0AoXHeTKIfxI70cL1fdWH3kd/cIYdDBo/nUQk7wK0PnHtJwOLJGtQ
XFDzVwqgd6XkbhZ2ZhYB9YlA+BgdvD+iKFLvB9MCj8aRJTcSvsQ5pb9sgYvGmS6x
DjH1N/CAfYj6KQPhbMd3LJMSRuTq0kAKkjZcQXxN5qsw+Xkwzb7jOwJml3eVysNi
HM98XtVmkQTsrus+Ku9HBOWcufHr5iNtTeD1RKVV3B12fdfeauDazn+8zDaIwmIR
ckauk5Z+TG/jgDGe+g+xMwNyCwBKhkYXR9pJ5YJplDagN50/xF2jpoRT1vXnLzk9
/VpRhNX5wzC9FiPYOW8w/PMylwVleurfx9jv2DmNNTdlb/NcrRWvqnVsNpiU6ZcG
lpcX6P+Yxd+jg6SYLucW1i4qtIMvNZngb4qBz5T4QmP2JCM7V0biufDGF1XKYTbg
TBFDB04vpAQL6tw6BK4+jJlNF7VnjQQF5MereM1b0x51SBlbnlp0dF3437e3qzxU
i6G/fdWTTuELwSETCCVOZY3uE/MoKYHEvNGMypuFsa6154NtFZYgt5wj768=
-----END CERTIFICATE-----
