Certificate:
    Data:
        Version: 3 (0x2)
        Serial Number: 641 (0x281)
    Signature Algorithm: sha1WithRSAEncryption
        Issuer: C=US, ST=CA, L=SanFrancisco, O=Pixglo, Inc., OU=VPN-CIE, CN=tunnel.pixglo.com/name=Bala Chandrasekaran/emailAddress=bala@pixglo.com
        Validity
            Not Before: Feb 14 06:39:09 2018 GMT
            Not After : Feb 12 06:39:09 2028 GMT
        Subject: C=US, ST=CA, L=SanFrancisco, O=Pixglo, Inc., OU=VPN-CIE, CN=cie640/name=Bala Chandrasekaran/emailAddress=bala@pixglo.com
        Subject Public Key Info:
            Public Key Algorithm: rsaEncryption
                Public-Key: (4096 bit)
                Modulus:
                    00:d0:3c:3d:66:5d:82:3a:c9:a1:ce:1c:b3:8a:62:
                    20:16:53:5b:a3:ef:6a:52:86:40:ae:9a:6c:a6:f2:
                    52:63:48:ca:cd:f1:86:88:8b:50:42:18:0f:30:9e:
                    a0:89:85:ef:e9:b9:fb:63:15:15:49:88:53:33:07:
                    28:4e:96:53:f2:0f:5b:f3:b9:1b:9d:3b:b5:12:9b:
                    00:f6:eb:22:4f:58:36:31:af:ba:bf:8e:6b:77:8a:
                    67:cd:17:3b:a6:6a:0e:9a:52:5a:a6:d1:93:34:a0:
                    28:bc:aa:ed:8f:c7:5d:6e:d1:25:a4:4d:7b:33:9e:
                    d6:8a:ae:5c:b0:67:74:5f:a1:b7:4c:16:a7:37:a1:
                    b9:88:d5:0f:fb:66:94:a5:4f:3e:12:20:07:ae:84:
                    ce:40:07:4e:27:d9:50:0e:55:a3:f5:64:87:37:21:
                    1f:32:c8:c0:57:9e:e5:07:58:99:1e:2c:89:9f:05:
                    a4:a8:42:70:63:b1:b2:0e:14:ed:ba:54:48:c7:0f:
                    01:d1:0d:92:80:ab:ef:0d:5d:07:3f:b7:cc:65:00:
                    c5:2f:0d:99:5c:c8:74:01:f8:29:72:46:63:c6:e3:
                    27:9c:31:26:2f:ec:dd:36:3a:bd:1d:e2:f0:ce:3e:
                    9d:11:76:fc:9e:24:6c:d7:7b:e8:e1:18:9d:b3:c4:
                    bf:be:63:58:ab:ce:9e:fd:ff:70:23:1c:c2:94:cf:
                    86:e6:da:f0:22:ef:98:0b:ad:cf:7f:eb:15:d3:61:
                    a3:9e:05:01:bc:97:29:ec:82:cd:47:86:15:92:58:
                    74:38:b0:75:53:a9:eb:ea:18:fa:c8:aa:17:72:a0:
                    4b:26:c3:ea:e7:4b:4f:b5:c3:ce:89:66:45:77:1b:
                    4b:e1:a6:42:ef:bd:5e:00:b4:d7:12:9e:bb:ce:f0:
                    4f:09:f5:9e:b2:05:22:e2:77:a2:70:7a:6b:fb:68:
                    f6:77:bc:bf:28:b5:c6:8f:46:40:2f:ec:b0:14:c4:
                    3b:04:a2:86:e0:20:58:27:7e:4f:f1:d3:78:01:0b:
                    d5:a0:56:71:37:d6:d3:d9:f0:cd:e7:71:c9:c4:ac:
                    93:76:13:ae:7a:70:26:31:88:d5:eb:2a:a3:4e:90:
                    ff:ee:46:89:fd:f3:d3:76:fe:d4:a8:92:d8:7b:d6:
                    b9:9d:4d:c8:29:fd:27:4a:41:5e:38:cf:31:95:44:
                    e0:1d:9a:4e:18:07:2a:c5:39:ce:a9:5e:9e:f8:69:
                    57:1b:d3:33:56:11:a8:e6:db:18:1f:56:9c:8e:e8:
                    27:a5:3f:66:f6:23:f4:ab:b0:7c:f8:17:cb:ea:07:
                    e9:54:03:8e:ac:5c:89:ec:bb:16:af:37:9e:09:c4:
                    a5:57:f5
                Exponent: 65537 (0x10001)
        X509v3 extensions:
            X509v3 Basic Constraints: 
                CA:FALSE
            Netscape Comment: 
                Easy-RSA Generated Certificate
            X509v3 Subject Key Identifier: 
                9C:AD:43:F7:5F:E4:94:BD:E4:D8:F1:E4:F8:6A:FB:5B:9C:6F:E5:CA
            X509v3 Authority Key Identifier: 
                keyid:EF:38:8D:14:50:58:A7:5B:4D:9C:17:72:FC:DF:B9:AC:A7:51:B0:10
                DirName:/C=US/ST=CA/L=SanFrancisco/O=Pixglo, Inc./OU=VPN-CIE/CN=tunnel.pixglo.com/name=Bala Chandrasekaran/emailAddress=bala@pixglo.com
                serial:A6:DB:C6:83:80:E6:A0:79

            X509v3 Extended Key Usage: 
                TLS Web Client Authentication
            X509v3 Key Usage: 
                Digital Signature
    Signature Algorithm: sha1WithRSAEncryption
         79:43:16:50:04:5d:47:74:a2:6c:96:81:11:40:3e:76:e4:d6:
         f9:f3:b8:14:ee:94:a2:cd:3c:75:18:1a:ef:30:af:68:60:5c:
         2f:8e:aa:ad:a0:57:64:b8:1d:10:94:da:61:28:86:ef:2a:3b:
         91:42:e4:dc:50:f6:92:22:f8:d1:e5:0f:4d:9e:fd:23:ba:a4:
         a7:cb:cb:78:39:28:98:68:51:3c:ad:f2:47:30:8c:93:ff:a7:
         64:5d:5a:c2:40:14:67:1e:3b:c6:49:92:e0:35:ee:36:33:1d:
         23:c6:1a:c7:eb:68:71:12:00:f0:15:12:e5:21:7c:54:09:b5:
         bf:af:50:e7:f4:cc:9a:bb:90:c0:c7:0e:3e:5e:a1:ce:99:d9:
         03:81:57:e2:10:be:46:a4:70:14:16:06:8e:ee:49:c0:e9:25:
         c0:0b:06:de:69:31:5f:e6:48:f2:a1:98:e1:87:b1:1f:94:2b:
         c6:be:9d:df:c0:b4:76:c3:0d:b4:b0:90:99:55:33:7c:27:f9:
         07:93:2e:ed:3f:9c:9a:37:37:4a:e4:74:3c:d2:bb:1a:58:4f:
         cf:7f:35:8e:bd:3d:56:97:70:bc:c4:99:4d:c1:63:c8:b1:29:
         e5:28:9a:8b:dd:b0:c2:ba:89:45:5c:aa:28:16:1d:48:7b:e2:
         c2:6c:20:5c:53:3a:71:7a:76:13:d8:75:2f:5d:3d:05:63:cf:
         68:0a:42:c9:60:e2:f9:28:0d:d1:8d:8f:10:7d:15:83:75:fd:
         a8:b5:78:d7:02:09:82:2b:52:20:48:77:93:ca:05:e4:44:3a:
         fe:0d:a2:57:07:f6:2c:35:19:2b:8b:ac:ab:fc:76:45:76:13:
         17:0c:77:59:4f:a2:95:71:7c:2d:7c:f6:74:5b:7c:56:1a:2f:
         16:3b:1e:73:49:a9:db:d7:6e:99:c6:68:08:9a:37:6d:b6:6c:
         bb:23:d7:7b:54:46:40:87:60:e9:1d:1d:2b:78:88:64:1b:2a:
         38:fb:e7:97:38:ad:78:14:83:e0:8b:54:89:be:06:20:0e:00:
         04:65:cf:6d:3b:07:04:1c:ce:36:bd:3b:d3:f7:6a:c1:e2:01:
         60:99:ec:64:1c:b9:d0:04:5a:c5:00:10:39:b3:97:e4:ef:57:
         aa:58:3b:61:f1:c4:a2:e7:09:a7:69:30:45:63:e0:6e:b5:51:
         bf:d0:12:e8:53:d1:6c:d4:4b:a3:5f:78:c9:a4:fd:63:c9:dd:
         6f:83:0e:c3:f6:b4:76:6a:50:24:cb:9c:26:20:01:6b:42:af:
         ed:51:8a:e0:b1:c4:78:be:14:c4:2b:ea:1a:47:bf:69:da:21:
         cf:db:e8:cc:b4:41:18:d6
-----BEGIN CERTIFICATE-----
MIIHSDCCBTCgAwIBAgICAoEwDQYJKoZIhvcNAQEFBQAwgbQxCzAJBgNVBAYTAlVT
MQswCQYDVQQIEwJDQTEVMBMGA1UEBxMMU2FuRnJhbmNpc2NvMRUwEwYDVQQKEwxQ
aXhnbG8sIEluYy4xEDAOBgNVBAsTB1ZQTi1DSUUxGjAYBgNVBAMTEXR1bm5lbC5w
aXhnbG8uY29tMRwwGgYDVQQpExNCYWxhIENoYW5kcmFzZWthcmFuMR4wHAYJKoZI
hvcNAQkBFg9iYWxhQHBpeGdsby5jb20wHhcNMTgwMjE0MDYzOTA5WhcNMjgwMjEy
MDYzOTA5WjCBqTELMAkGA1UEBhMCVVMxCzAJBgNVBAgTAkNBMRUwEwYDVQQHEwxT
YW5GcmFuY2lzY28xFTATBgNVBAoTDFBpeGdsbywgSW5jLjEQMA4GA1UECxMHVlBO
LUNJRTEPMA0GA1UEAxMGY2llNjQwMRwwGgYDVQQpExNCYWxhIENoYW5kcmFzZWth
cmFuMR4wHAYJKoZIhvcNAQkBFg9iYWxhQHBpeGdsby5jb20wggIiMA0GCSqGSIb3
DQEBAQUAA4ICDwAwggIKAoICAQDQPD1mXYI6yaHOHLOKYiAWU1uj72pShkCummym
8lJjSMrN8YaIi1BCGA8wnqCJhe/puftjFRVJiFMzByhOllPyD1vzuRudO7USmwD2
6yJPWDYxr7q/jmt3imfNFzumag6aUlqm0ZM0oCi8qu2Px11u0SWkTXszntaKrlyw
Z3RfobdMFqc3obmI1Q/7ZpSlTz4SIAeuhM5AB04n2VAOVaP1ZIc3IR8yyMBXnuUH
WJkeLImfBaSoQnBjsbIOFO26VEjHDwHRDZKAq+8NXQc/t8xlAMUvDZlcyHQB+Cly
RmPG4yecMSYv7N02Or0d4vDOPp0RdvyeJGzXe+jhGJ2zxL++Y1irzp79/3AjHMKU
z4bm2vAi75gLrc9/6xXTYaOeBQG8lynsgs1HhhWSWHQ4sHVTqevqGPrIqhdyoEsm
w+rnS0+1w86JZkV3G0vhpkLvvV4AtNcSnrvO8E8J9Z6yBSLid6Jwemv7aPZ3vL8o
tcaPRkAv7LAUxDsEoobgIFgnfk/x03gBC9WgVnE31tPZ8M3nccnErJN2E656cCYx
iNXrKqNOkP/uRon989N2/tSokth71rmdTcgp/SdKQV44zzGVROAdmk4YByrFOc6p
Xp74aVcb0zNWEajm2xgfVpyO6CelP2b2I/SrsHz4F8vqB+lUA46sXInsuxavN54J
xKVX9QIDAQABo4IBazCCAWcwCQYDVR0TBAIwADAtBglghkgBhvhCAQ0EIBYeRWFz
eS1SU0EgR2VuZXJhdGVkIENlcnRpZmljYXRlMB0GA1UdDgQWBBScrUP3X+SUveTY
8eT4avtbnG/lyjCB6QYDVR0jBIHhMIHegBTvOI0UUFinW02cF3L837msp1GwEKGB
uqSBtzCBtDELMAkGA1UEBhMCVVMxCzAJBgNVBAgTAkNBMRUwEwYDVQQHEwxTYW5G
cmFuY2lzY28xFTATBgNVBAoTDFBpeGdsbywgSW5jLjEQMA4GA1UECxMHVlBOLUNJ
RTEaMBgGA1UEAxMRdHVubmVsLnBpeGdsby5jb20xHDAaBgNVBCkTE0JhbGEgQ2hh
bmRyYXNla2FyYW4xHjAcBgkqhkiG9w0BCQEWD2JhbGFAcGl4Z2xvLmNvbYIJAKbb
xoOA5qB5MBMGA1UdJQQMMAoGCCsGAQUFBwMCMAsGA1UdDwQEAwIHgDANBgkqhkiG
9w0BAQUFAAOCAgEAeUMWUARdR3SibJaBEUA+duTW+fO4FO6Uos08dRga7zCvaGBc
L46qraBXZLgdEJTaYSiG7yo7kULk3FD2kiL40eUPTZ79I7qkp8vLeDkomGhRPK3y
RzCMk/+nZF1awkAUZx47xkmS4DXuNjMdI8Yax+tocRIA8BUS5SF8VAm1v69Q5/TM
mruQwMcOPl6hzpnZA4FX4hC+RqRwFBYGju5JwOklwAsG3mkxX+ZI8qGY4YexH5Qr
xr6d38C0dsMNtLCQmVUzfCf5B5Mu7T+cmjc3SuR0PNK7GlhPz381jr09VpdwvMSZ
TcFjyLEp5Siai92wwrqJRVyqKBYdSHviwmwgXFM6cXp2E9h1L109BWPPaApCyWDi
+SgN0Y2PEH0Vg3X9qLV41wIJgitSIEh3k8oF5EQ6/g2iVwf2LDUZK4usq/x2RXYT
Fwx3WU+ilXF8LXz2dFt8VhovFjsec0mp29dumcZoCJo3bbZsuyPXe1RGQIdg6R0d
K3iIZBsqOPvnlziteBSD4ItUib4GIA4ABGXPbTsHBBzONr070/dqweIBYJnsZBy5
0ARaxQAQObOX5O9Xqlg7YfHEoucJp2kwRWPgbrVRv9AS6FPRbNRLo194yaT9Y8nd
b4MOw/a0dmpQJMucJiABa0Kv7VGK4LHEeL4UxCvqGke/adohz9vozLRBGNY=
-----END CERTIFICATE-----
