Certificate:
    Data:
        Version: 3 (0x2)
        Serial Number: 623 (0x26f)
    Signature Algorithm: sha1WithRSAEncryption
        Issuer: C=US, ST=CA, L=SanFrancisco, O=Pixglo, Inc., OU=VPN-CIE, CN=tunnel.pixglo.com/name=Bala Chandrasekaran/emailAddress=bala@pixglo.com
        Validity
            Not Before: Feb 14 06:38:41 2018 GMT
            Not After : Feb 12 06:38:41 2028 GMT
        Subject: C=US, ST=CA, L=SanFrancisco, O=Pixglo, Inc., OU=VPN-CIE, CN=cie622/name=Bala Chandrasekaran/emailAddress=bala@pixglo.com
        Subject Public Key Info:
            Public Key Algorithm: rsaEncryption
                Public-Key: (4096 bit)
                Modulus:
                    00:c1:fe:1b:f4:53:99:e8:d1:45:62:6a:11:66:30:
                    14:c4:ee:c2:25:5d:e2:37:bc:c2:88:6f:91:69:43:
                    4e:e0:7f:f8:f4:36:d6:6f:e1:11:59:38:31:3a:a8:
                    13:3e:32:95:cf:86:64:c9:c9:5b:5b:51:5e:63:8a:
                    bf:ec:d0:2d:4b:f1:8c:63:39:7d:a7:42:f8:79:87:
                    08:2a:09:c4:7a:4c:84:6f:9b:f4:d9:d5:0f:9a:51:
                    5c:5d:ba:d7:ce:4a:d9:bf:1c:7c:33:eb:34:ab:ed:
                    36:02:5d:bc:22:31:fb:be:7a:e6:bc:22:31:57:f7:
                    dc:8b:d3:a3:d2:93:a8:f0:97:e5:ff:8c:5f:ef:98:
                    8d:0a:a2:e3:65:4b:0e:a6:0e:49:f6:b1:f5:54:f3:
                    44:2f:b8:89:40:1b:c1:8f:55:9b:6b:6f:63:38:0b:
                    e5:23:84:34:9b:b9:92:9b:6e:66:20:8f:23:ac:e0:
                    db:a0:97:a4:d1:5b:20:27:fd:57:3b:bb:94:98:06:
                    6f:80:ac:a2:97:62:1b:56:bc:b3:9d:19:9b:3e:56:
                    e7:dd:c1:f0:f2:37:84:f7:35:79:bb:38:2c:4d:51:
                    fb:22:2b:b5:3a:56:fb:c1:0d:7d:a0:33:85:62:91:
                    9a:7c:cf:75:b9:71:7a:dc:45:c4:79:f8:2f:cf:ed:
                    08:89:e4:9f:c5:43:e3:c5:c8:ea:6f:38:79:3b:9c:
                    86:67:da:7a:c4:93:98:8a:82:7c:c4:e3:e5:94:ac:
                    a7:0d:ab:a2:ce:4b:e7:8e:a3:06:a5:95:f9:80:56:
                    2e:ca:ad:76:52:5e:74:7e:42:f8:80:8a:b9:b2:56:
                    62:9b:e3:fb:af:6a:7f:89:bd:44:46:66:2c:62:e7:
                    b0:8b:c2:27:5c:ab:ea:e6:54:63:70:b8:02:1a:e7:
                    70:2f:97:77:e1:82:2f:f4:e3:b1:8d:b1:7c:ee:30:
                    a2:d6:69:70:f9:58:94:6e:8c:82:38:34:11:dc:40:
                    d4:5c:a5:45:06:b4:a5:0a:00:39:59:5e:51:41:3e:
                    f3:a6:ba:88:ac:a9:94:31:04:89:31:ab:d8:6e:c6:
                    69:93:b6:8a:86:52:59:9b:b2:88:54:2b:54:29:fe:
                    6c:b3:1c:b1:16:44:37:c4:0b:dd:f8:30:47:24:87:
                    c1:80:bf:ab:f9:07:c2:05:62:12:ef:45:e6:2c:28:
                    90:3b:83:ed:58:c4:8d:b7:12:2d:9a:ca:52:ee:22:
                    e5:49:fd:18:3a:43:2b:b4:7b:6b:96:12:78:5e:d4:
                    22:82:68:b5:8d:a3:40:d6:f2:a9:a6:4b:38:a4:9c:
                    90:43:10:5a:26:4f:58:50:e4:cc:29:ad:2d:e1:14:
                    15:53:db
                Exponent: 65537 (0x10001)
        X509v3 extensions:
            X509v3 Basic Constraints: 
                CA:FALSE
            Netscape Comment: 
                Easy-RSA Generated Certificate
            X509v3 Subject Key Identifier: 
                DE:94:8D:7D:72:30:47:69:40:F5:05:4D:87:81:91:5C:F8:FE:A8:55
            X509v3 Authority Key Identifier: 
                keyid:EF:38:8D:14:50:58:A7:5B:4D:9C:17:72:FC:DF:B9:AC:A7:51:B0:10
                DirName:/C=US/ST=CA/L=SanFrancisco/O=Pixglo, Inc./OU=VPN-CIE/CN=tunnel.pixglo.com/name=Bala Chandrasekaran/emailAddress=bala@pixglo.com
                serial:A6:DB:C6:83:80:E6:A0:79

            X509v3 Extended Key Usage: 
                TLS Web Client Authentication
            X509v3 Key Usage: 
                Digital Signature
    Signature Algorithm: sha1WithRSAEncryption
         44:7b:b0:4c:f8:f3:dd:d5:08:40:75:d0:e5:fb:55:1d:28:af:
         c4:59:fc:88:1c:02:56:ad:68:1e:a5:02:ad:c9:e4:a5:db:4e:
         7e:3d:4b:08:5b:98:dc:5f:5b:ce:12:3d:e3:51:6b:d3:6c:2a:
         0c:8e:33:c6:80:3c:81:d1:94:bf:76:6b:61:aa:a8:c9:3f:5a:
         fb:4a:48:89:aa:69:70:b3:d8:4d:1a:73:21:d5:f7:fb:1f:03:
         e2:03:2f:36:09:60:f8:71:7a:2d:01:25:0e:c5:d3:98:b1:1d:
         e5:66:08:09:53:2e:1c:d1:38:be:5d:c7:22:05:f7:dd:e8:c5:
         eb:fe:4e:3c:25:7e:4a:fe:8b:ae:b2:7b:67:c6:5a:b1:dc:8e:
         28:53:20:39:0f:94:57:4a:8d:83:9d:31:4c:cd:f8:38:b6:ef:
         ca:ad:0a:6f:ce:91:7a:80:53:10:94:9a:b8:0c:28:56:bb:8a:
         1b:d8:9b:63:e8:cb:53:5e:5d:6b:d1:71:48:d8:bb:c6:f8:30:
         c0:f3:fc:fa:c7:f9:a4:03:4c:d9:e1:e2:5f:12:8d:e1:26:54:
         09:27:5c:09:5a:97:37:0e:52:93:1d:46:60:2a:e2:a5:aa:91:
         e4:b3:67:9d:76:26:5b:15:45:11:8a:00:1b:bd:7b:3b:7a:4b:
         65:51:3e:a6:4b:36:af:be:c9:b2:bd:55:17:d7:70:e0:98:ca:
         64:14:33:35:1e:c5:ae:01:84:46:f8:84:80:a1:f5:93:19:c1:
         62:e4:01:de:03:bc:01:c9:07:f8:13:d5:c5:cf:2d:98:8e:e5:
         43:80:8a:09:03:5b:d6:e9:76:5d:39:5a:e4:c9:fe:5b:7a:19:
         28:dd:75:38:66:2b:50:5e:22:fe:6e:6e:fa:5f:78:b7:2e:9a:
         73:9f:24:6f:b7:26:14:bd:3f:fe:68:9c:64:0e:4e:b8:ee:5a:
         c5:05:0d:94:4d:12:eb:a3:3a:e4:15:57:79:79:9f:22:69:28:
         65:af:f2:c5:28:0c:9b:93:fd:a3:6d:b0:b1:e5:6d:a5:f2:95:
         dd:5f:31:3b:3f:00:5a:15:10:0e:60:d2:93:d6:70:e7:83:0b:
         cc:64:98:d0:35:2b:61:05:09:dd:02:6d:87:9c:c7:88:7f:a3:
         42:a6:06:ea:8a:42:f1:d9:97:15:e7:01:ef:d7:2b:e6:17:29:
         19:62:e0:47:97:05:68:80:96:3e:f6:d9:d9:a5:aa:23:d0:55:
         12:59:86:c4:d3:2d:22:8c:c2:62:af:3c:a6:2c:54:bf:b2:d3:
         29:6d:bd:a0:6f:ba:4b:fd:7a:73:7e:cf:59:d1:97:56:13:61:
         73:29:bc:b8:99:32:3e:2c
-----BEGIN CERTIFICATE-----
MIIHSDCCBTCgAwIBAgICAm8wDQYJKoZIhvcNAQEFBQAwgbQxCzAJBgNVBAYTAlVT
MQswCQYDVQQIEwJDQTEVMBMGA1UEBxMMU2FuRnJhbmNpc2NvMRUwEwYDVQQKEwxQ
aXhnbG8sIEluYy4xEDAOBgNVBAsTB1ZQTi1DSUUxGjAYBgNVBAMTEXR1bm5lbC5w
aXhnbG8uY29tMRwwGgYDVQQpExNCYWxhIENoYW5kcmFzZWthcmFuMR4wHAYJKoZI
hvcNAQkBFg9iYWxhQHBpeGdsby5jb20wHhcNMTgwMjE0MDYzODQxWhcNMjgwMjEy
MDYzODQxWjCBqTELMAkGA1UEBhMCVVMxCzAJBgNVBAgTAkNBMRUwEwYDVQQHEwxT
YW5GcmFuY2lzY28xFTATBgNVBAoTDFBpeGdsbywgSW5jLjEQMA4GA1UECxMHVlBO
LUNJRTEPMA0GA1UEAxMGY2llNjIyMRwwGgYDVQQpExNCYWxhIENoYW5kcmFzZWth
cmFuMR4wHAYJKoZIhvcNAQkBFg9iYWxhQHBpeGdsby5jb20wggIiMA0GCSqGSIb3
DQEBAQUAA4ICDwAwggIKAoICAQDB/hv0U5no0UViahFmMBTE7sIlXeI3vMKIb5Fp
Q07gf/j0NtZv4RFZODE6qBM+MpXPhmTJyVtbUV5jir/s0C1L8YxjOX2nQvh5hwgq
CcR6TIRvm/TZ1Q+aUVxdutfOStm/HHwz6zSr7TYCXbwiMfu+eua8IjFX99yL06PS
k6jwl+X/jF/vmI0KouNlSw6mDkn2sfVU80QvuIlAG8GPVZtrb2M4C+UjhDSbuZKb
bmYgjyOs4Nugl6TRWyAn/Vc7u5SYBm+ArKKXYhtWvLOdGZs+VufdwfDyN4T3NXm7
OCxNUfsiK7U6VvvBDX2gM4VikZp8z3W5cXrcRcR5+C/P7QiJ5J/FQ+PFyOpvOHk7
nIZn2nrEk5iKgnzE4+WUrKcNq6LOS+eOowallfmAVi7KrXZSXnR+QviAirmyVmKb
4/uvan+JvURGZixi57CLwidcq+rmVGNwuAIa53Avl3fhgi/047GNsXzuMKLWaXD5
WJRujII4NBHcQNRcpUUGtKUKADlZXlFBPvOmuoisqZQxBIkxq9huxmmTtoqGUlmb
sohUK1Qp/myzHLEWRDfEC934MEckh8GAv6v5B8IFYhLvReYsKJA7g+1YxI23Ei2a
ylLuIuVJ/Rg6Qyu0e2uWEnhe1CKCaLWNo0DW8qmmSziknJBDEFomT1hQ5MwprS3h
FBVT2wIDAQABo4IBazCCAWcwCQYDVR0TBAIwADAtBglghkgBhvhCAQ0EIBYeRWFz
eS1SU0EgR2VuZXJhdGVkIENlcnRpZmljYXRlMB0GA1UdDgQWBBTelI19cjBHaUD1
BU2HgZFc+P6oVTCB6QYDVR0jBIHhMIHegBTvOI0UUFinW02cF3L837msp1GwEKGB
uqSBtzCBtDELMAkGA1UEBhMCVVMxCzAJBgNVBAgTAkNBMRUwEwYDVQQHEwxTYW5G
cmFuY2lzY28xFTATBgNVBAoTDFBpeGdsbywgSW5jLjEQMA4GA1UECxMHVlBOLUNJ
RTEaMBgGA1UEAxMRdHVubmVsLnBpeGdsby5jb20xHDAaBgNVBCkTE0JhbGEgQ2hh
bmRyYXNla2FyYW4xHjAcBgkqhkiG9w0BCQEWD2JhbGFAcGl4Z2xvLmNvbYIJAKbb
xoOA5qB5MBMGA1UdJQQMMAoGCCsGAQUFBwMCMAsGA1UdDwQEAwIHgDANBgkqhkiG
9w0BAQUFAAOCAgEARHuwTPjz3dUIQHXQ5ftVHSivxFn8iBwCVq1oHqUCrcnkpdtO
fj1LCFuY3F9bzhI941Fr02wqDI4zxoA8gdGUv3ZrYaqoyT9a+0pIiappcLPYTRpz
IdX3+x8D4gMvNglg+HF6LQElDsXTmLEd5WYICVMuHNE4vl3HIgX33ejF6/5OPCV+
Sv6LrrJ7Z8ZasdyOKFMgOQ+UV0qNg50xTM34OLbvyq0Kb86ReoBTEJSauAwoVruK
G9ibY+jLU15da9FxSNi7xvgwwPP8+sf5pANM2eHiXxKN4SZUCSdcCVqXNw5Skx1G
YCripaqR5LNnnXYmWxVFEYoAG717O3pLZVE+pks2r77Jsr1VF9dw4JjKZBQzNR7F
rgGERviEgKH1kxnBYuQB3gO8AckH+BPVxc8tmI7lQ4CKCQNb1ul2XTla5Mn+W3oZ
KN11OGYrUF4i/m5u+l94ty6ac58kb7cmFL0//micZA5OuO5axQUNlE0S66M65BVX
eXmfImkoZa/yxSgMm5P9o22wseVtpfKV3V8xOz8AWhUQDmDSk9Zw54MLzGSY0DUr
YQUJ3QJth5zHiH+jQqYG6opC8dmXFecB79cr5hcpGWLgR5cFaICWPvbZ2aWqI9BV
ElmGxNMtIozCYq88pixUv7LTKW29oG+6S/16c37PWdGXVhNhcym8uJkyPiw=
-----END CERTIFICATE-----
