Certificate:
    Data:
        Version: 3 (0x2)
        Serial Number: 601 (0x259)
    Signature Algorithm: sha1WithRSAEncryption
        Issuer: C=US, ST=CA, L=SanFrancisco, O=Pixglo, Inc., OU=VPN-CIE, CN=tunnel.pixglo.com/name=Bala Chandrasekaran/emailAddress=bala@pixglo.com
        Validity
            Not Before: Feb 14 06:38:06 2018 GMT
            Not After : Feb 12 06:38:06 2028 GMT
        Subject: C=US, ST=CA, L=SanFrancisco, O=Pixglo, Inc., OU=VPN-CIE, CN=cie600/name=Bala Chandrasekaran/emailAddress=bala@pixglo.com
        Subject Public Key Info:
            Public Key Algorithm: rsaEncryption
                Public-Key: (4096 bit)
                Modulus:
                    00:a5:2d:1d:60:35:96:6b:84:f7:89:f8:70:7c:62:
                    91:6d:a2:8b:00:fe:9c:4d:9b:74:d5:62:6f:75:6a:
                    34:59:e9:03:9c:dc:39:89:fa:35:3d:63:6e:a2:f2:
                    df:0d:ca:eb:fe:65:33:2d:7d:60:b7:a6:53:f6:af:
                    c1:11:d3:89:b3:4a:8a:b0:4a:6e:15:e3:44:7d:75:
                    8f:7c:c7:b2:33:13:47:87:ef:b9:90:8a:bb:34:ce:
                    a3:a6:7a:c5:fb:b9:bc:a5:9c:64:f1:04:a4:3e:57:
                    76:81:13:7d:6f:09:2e:71:64:2e:11:46:58:1c:48:
                    53:69:9f:f2:f4:24:ec:af:1d:ce:34:6c:d2:cf:a5:
                    05:d2:48:31:8a:a7:98:27:37:e2:14:c2:e3:6f:c2:
                    3a:fc:ac:83:0b:ef:2e:e5:2b:f2:aa:4a:23:5b:5e:
                    16:70:65:82:6d:1c:e2:b0:70:22:e0:73:cd:69:27:
                    46:25:e1:27:8c:72:eb:38:2a:f2:da:9d:0e:f1:64:
                    92:78:4e:0a:1f:89:d9:e3:20:2c:c7:dd:e7:36:06:
                    90:85:6e:1e:1b:f8:03:92:02:91:04:20:9d:b1:17:
                    61:f1:11:98:0b:09:fc:5b:23:f7:77:a8:7b:33:ce:
                    4a:77:31:f0:86:42:e7:5a:7f:c7:1e:ea:42:0d:32:
                    e0:2f:28:b0:0d:cb:b2:9e:51:af:e8:d4:90:b1:50:
                    d1:19:fc:ed:0e:e0:5c:96:32:3c:ef:f9:45:41:61:
                    62:49:ae:6d:34:ef:fe:b2:aa:44:7f:21:87:5d:35:
                    e8:f1:83:70:05:67:6e:86:21:e0:14:3f:89:93:4e:
                    c9:c7:86:e7:ba:36:31:d6:23:0d:b2:e9:f9:ac:1f:
                    e3:87:22:27:c8:8d:9b:b5:b4:dd:02:ea:ed:e2:82:
                    79:1d:86:3b:6a:f1:ab:d6:5b:10:55:d7:57:5f:3f:
                    67:6b:f8:8c:92:87:ef:02:66:f9:4f:9b:4a:cd:8e:
                    70:40:02:af:fc:43:74:24:c9:e3:4e:09:15:90:1d:
                    24:9f:94:64:a2:06:33:41:ce:0f:ab:1d:41:e8:6b:
                    4f:de:0a:9a:ad:59:68:2a:7a:13:41:e2:a8:28:05:
                    0a:14:7f:f2:22:58:eb:6d:de:e3:21:d1:7d:d2:9c:
                    f4:a1:67:18:d4:9c:da:fb:4b:93:f9:17:05:58:fe:
                    bf:7e:bd:13:0f:3f:59:8b:a1:c1:c1:86:88:f8:11:
                    b3:cf:a4:c7:4e:a7:1d:98:da:a9:12:f5:dc:ee:d2:
                    b9:ed:b8:2f:a9:b8:d9:89:fa:23:75:30:69:df:26:
                    ea:a3:8b:65:c0:e9:e3:56:6e:8f:7f:46:9a:f5:11:
                    d5:6b:35
                Exponent: 65537 (0x10001)
        X509v3 extensions:
            X509v3 Basic Constraints: 
                CA:FALSE
            Netscape Comment: 
                Easy-RSA Generated Certificate
            X509v3 Subject Key Identifier: 
                E3:6A:EB:BC:0C:A5:8B:56:C0:A9:56:D5:17:72:00:2E:AC:5E:E3:57
            X509v3 Authority Key Identifier: 
                keyid:EF:38:8D:14:50:58:A7:5B:4D:9C:17:72:FC:DF:B9:AC:A7:51:B0:10
                DirName:/C=US/ST=CA/L=SanFrancisco/O=Pixglo, Inc./OU=VPN-CIE/CN=tunnel.pixglo.com/name=Bala Chandrasekaran/emailAddress=bala@pixglo.com
                serial:A6:DB:C6:83:80:E6:A0:79

            X509v3 Extended Key Usage: 
                TLS Web Client Authentication
            X509v3 Key Usage: 
                Digital Signature
    Signature Algorithm: sha1WithRSAEncryption
         88:6b:e3:a0:f9:8f:dc:47:2c:f5:07:0f:95:03:41:4b:b1:08:
         7b:60:90:6d:89:55:9e:d2:1a:34:f5:ca:d7:56:ae:84:f0:9c:
         f9:72:34:33:e2:f0:77:0f:30:0b:0e:92:15:0e:90:80:f7:4b:
         78:b8:6a:f1:1b:f0:1b:69:bb:c5:0e:fe:61:04:17:08:25:6c:
         8d:d6:f9:23:1e:8d:98:00:55:77:ec:a2:ce:2d:5b:8c:fb:03:
         e4:13:d1:67:d4:cd:e0:22:01:b8:24:ca:cf:21:2f:4e:3e:9c:
         be:af:76:ec:e4:7b:39:d7:e1:e4:fd:3a:27:43:3e:1e:b3:d3:
         99:dd:9a:b7:d8:bd:a6:58:bd:dc:9f:c9:8f:bd:cf:23:23:c5:
         b6:ac:36:16:aa:b6:5f:37:b2:32:5e:f8:98:33:12:ad:61:c2:
         11:e0:a9:bc:40:85:65:ca:45:6c:87:f8:d8:63:cb:73:e6:32:
         77:c9:2d:60:6f:af:69:b5:0b:ad:c1:c9:98:e5:af:ca:ab:fd:
         2b:7f:6e:1e:1d:68:7e:79:9b:5a:61:54:b3:ea:22:4a:89:d1:
         13:ea:d1:00:20:c7:19:88:ea:cd:b0:82:b9:ec:e1:c9:e0:59:
         80:1d:9d:60:5b:0e:eb:78:2b:ab:d1:4f:b2:27:d8:0c:1c:9d:
         39:6a:f6:0b:6c:cd:7e:a7:3d:6b:d2:49:a2:bd:25:2a:07:23:
         a0:de:d7:12:28:ef:d0:54:bf:f1:6e:cb:e4:eb:fd:38:75:68:
         49:85:c4:c2:bc:8d:4d:70:fb:28:fe:ce:47:6f:c3:34:bc:17:
         24:59:e1:30:bf:e3:05:38:22:a2:c6:4b:c9:a7:5e:f4:17:ac:
         53:9c:64:f6:b7:37:20:aa:5f:78:25:cc:c8:4e:8a:05:d8:19:
         dd:d8:1d:a7:2d:05:83:02:52:20:de:13:c9:a9:09:32:ac:98:
         a9:95:d9:38:c1:85:57:86:45:a9:c4:97:c4:af:69:a1:60:27:
         c4:2e:f6:dd:ef:2a:d2:03:91:c8:67:47:66:e1:2a:e8:f1:7e:
         56:51:e4:c9:08:10:71:4a:4e:66:45:11:23:56:da:74:0b:f6:
         43:ee:e6:f7:fa:87:7a:52:74:2b:41:b2:75:4b:6a:42:8d:8e:
         bd:ab:3b:5e:7a:bc:61:ad:b7:61:11:ff:e2:b3:14:2b:6b:c9:
         81:fc:db:01:82:d6:0c:6a:82:0a:4d:05:18:42:62:c2:4b:9e:
         0c:f8:f4:ea:fb:6f:67:10:52:05:a8:45:84:2a:c5:90:02:3c:
         0b:ef:af:3c:6e:59:49:1a:96:58:65:a9:c2:7c:33:6c:b1:46:
         26:82:48:e8:97:d9:1e:9e
-----BEGIN CERTIFICATE-----
MIIHSDCCBTCgAwIBAgICAlkwDQYJKoZIhvcNAQEFBQAwgbQxCzAJBgNVBAYTAlVT
MQswCQYDVQQIEwJDQTEVMBMGA1UEBxMMU2FuRnJhbmNpc2NvMRUwEwYDVQQKEwxQ
aXhnbG8sIEluYy4xEDAOBgNVBAsTB1ZQTi1DSUUxGjAYBgNVBAMTEXR1bm5lbC5w
aXhnbG8uY29tMRwwGgYDVQQpExNCYWxhIENoYW5kcmFzZWthcmFuMR4wHAYJKoZI
hvcNAQkBFg9iYWxhQHBpeGdsby5jb20wHhcNMTgwMjE0MDYzODA2WhcNMjgwMjEy
MDYzODA2WjCBqTELMAkGA1UEBhMCVVMxCzAJBgNVBAgTAkNBMRUwEwYDVQQHEwxT
YW5GcmFuY2lzY28xFTATBgNVBAoTDFBpeGdsbywgSW5jLjEQMA4GA1UECxMHVlBO
LUNJRTEPMA0GA1UEAxMGY2llNjAwMRwwGgYDVQQpExNCYWxhIENoYW5kcmFzZWth
cmFuMR4wHAYJKoZIhvcNAQkBFg9iYWxhQHBpeGdsby5jb20wggIiMA0GCSqGSIb3
DQEBAQUAA4ICDwAwggIKAoICAQClLR1gNZZrhPeJ+HB8YpFtoosA/pxNm3TVYm91
ajRZ6QOc3DmJ+jU9Y26i8t8Nyuv+ZTMtfWC3plP2r8ER04mzSoqwSm4V40R9dY98
x7IzE0eH77mQirs0zqOmesX7ubylnGTxBKQ+V3aBE31vCS5xZC4RRlgcSFNpn/L0
JOyvHc40bNLPpQXSSDGKp5gnN+IUwuNvwjr8rIML7y7lK/KqSiNbXhZwZYJtHOKw
cCLgc81pJ0Yl4SeMcus4KvLanQ7xZJJ4TgofidnjICzH3ec2BpCFbh4b+AOSApEE
IJ2xF2HxEZgLCfxbI/d3qHszzkp3MfCGQudaf8ce6kINMuAvKLANy7KeUa/o1JCx
UNEZ/O0O4FyWMjzv+UVBYWJJrm007/6yqkR/IYddNejxg3AFZ26GIeAUP4mTTsnH
hue6NjHWIw2y6fmsH+OHIifIjZu1tN0C6u3ignkdhjtq8avWWxBV11dfP2dr+IyS
h+8CZvlPm0rNjnBAAq/8Q3QkyeNOCRWQHSSflGSiBjNBzg+rHUHoa0/eCpqtWWgq
ehNB4qgoBQoUf/IiWOtt3uMh0X3SnPShZxjUnNr7S5P5FwVY/r9+vRMPP1mLocHB
hoj4EbPPpMdOpx2Y2qkS9dzu0rntuC+puNmJ+iN1MGnfJuqji2XA6eNWbo9/Rpr1
EdVrNQIDAQABo4IBazCCAWcwCQYDVR0TBAIwADAtBglghkgBhvhCAQ0EIBYeRWFz
eS1SU0EgR2VuZXJhdGVkIENlcnRpZmljYXRlMB0GA1UdDgQWBBTjauu8DKWLVsCp
VtUXcgAurF7jVzCB6QYDVR0jBIHhMIHegBTvOI0UUFinW02cF3L837msp1GwEKGB
uqSBtzCBtDELMAkGA1UEBhMCVVMxCzAJBgNVBAgTAkNBMRUwEwYDVQQHEwxTYW5G
cmFuY2lzY28xFTATBgNVBAoTDFBpeGdsbywgSW5jLjEQMA4GA1UECxMHVlBOLUNJ
RTEaMBgGA1UEAxMRdHVubmVsLnBpeGdsby5jb20xHDAaBgNVBCkTE0JhbGEgQ2hh
bmRyYXNla2FyYW4xHjAcBgkqhkiG9w0BCQEWD2JhbGFAcGl4Z2xvLmNvbYIJAKbb
xoOA5qB5MBMGA1UdJQQMMAoGCCsGAQUFBwMCMAsGA1UdDwQEAwIHgDANBgkqhkiG
9w0BAQUFAAOCAgEAiGvjoPmP3Ecs9QcPlQNBS7EIe2CQbYlVntIaNPXK11auhPCc
+XI0M+Lwdw8wCw6SFQ6QgPdLeLhq8RvwG2m7xQ7+YQQXCCVsjdb5Ix6NmABVd+yi
zi1bjPsD5BPRZ9TN4CIBuCTKzyEvTj6cvq927OR7Odfh5P06J0M+HrPTmd2at9i9
pli93J/Jj73PIyPFtqw2Fqq2XzeyMl74mDMSrWHCEeCpvECFZcpFbIf42GPLc+Yy
d8ktYG+vabULrcHJmOWvyqv9K39uHh1ofnmbWmFUs+oiSonRE+rRACDHGYjqzbCC
uezhyeBZgB2dYFsO63grq9FPsifYDBydOWr2C2zNfqc9a9JJor0lKgcjoN7XEijv
0FS/8W7L5Ov9OHVoSYXEwryNTXD7KP7OR2/DNLwXJFnhML/jBTgiosZLyade9Bes
U5xk9rc3IKpfeCXMyE6KBdgZ3dgdpy0FgwJSIN4TyakJMqyYqZXZOMGFV4ZFqcSX
xK9poWAnxC723e8q0gORyGdHZuEq6PF+VlHkyQgQcUpOZkURI1badAv2Q+7m9/qH
elJ0K0GydUtqQo2Ovas7Xnq8Ya23YRH/4rMUK2vJgfzbAYLWDGqCCk0FGEJiwkue
DPj06vtvZxBSBahFhCrFkAI8C++vPG5ZSRqWWGWpwnwzbLFGJoJI6JfZHp4=
-----END CERTIFICATE-----
