Certificate:
    Data:
        Version: 3 (0x2)
        Serial Number: 685 (0x2ad)
    Signature Algorithm: sha1WithRSAEncryption
        Issuer: C=US, ST=CA, L=SanFrancisco, O=Pixglo, Inc., OU=VPN-CIE, CN=tunnel.pixglo.com/name=Bala Chandrasekaran/emailAddress=bala@pixglo.com
        Validity
            Not Before: Feb 14 06:40:17 2018 GMT
            Not After : Feb 12 06:40:17 2028 GMT
        Subject: C=US, ST=CA, L=SanFrancisco, O=Pixglo, Inc., OU=VPN-CIE, CN=cie684/name=Bala Chandrasekaran/emailAddress=bala@pixglo.com
        Subject Public Key Info:
            Public Key Algorithm: rsaEncryption
                Public-Key: (4096 bit)
                Modulus:
                    00:bd:28:66:50:b9:91:ab:4e:07:01:dd:98:d2:49:
                    ce:a2:01:ec:93:95:40:79:7f:f6:d3:43:06:31:25:
                    fe:9b:c9:92:3a:05:7d:0e:16:a7:21:a9:5d:8e:26:
                    1d:43:88:91:aa:44:82:00:c3:02:a6:4d:2a:39:9f:
                    0b:32:58:a7:5a:bc:b1:bd:8a:ce:53:2d:67:5e:4e:
                    e6:56:9e:36:e1:9e:38:03:56:28:6e:36:81:d4:da:
                    75:fa:5f:1b:8d:70:65:c7:2d:9f:0d:4e:c7:2b:61:
                    5e:89:28:43:44:bb:95:8d:b1:02:09:51:af:db:48:
                    f2:9b:7b:fd:72:96:21:b3:6a:6b:2b:91:eb:bf:0a:
                    ce:df:a4:b8:1c:40:e3:1b:6d:27:99:5e:da:cc:d8:
                    6e:5b:cd:0c:f4:9e:2d:0b:0c:d8:48:d6:35:ae:a9:
                    52:c2:2b:23:2d:fb:98:3d:93:1c:f2:72:60:bf:8e:
                    ae:07:7d:29:18:a0:0e:67:b8:e0:8c:85:bf:b7:a1:
                    3a:ff:8a:c3:a7:3c:c6:0e:ae:6c:93:51:28:32:79:
                    07:e9:ef:32:06:fb:90:8d:b9:5e:05:36:c4:93:12:
                    fb:e6:30:31:d4:1c:c4:13:63:f5:01:ca:1d:b9:2d:
                    f5:6a:15:78:5f:22:25:df:36:48:29:8c:67:6c:51:
                    6e:be:10:49:09:72:6b:f8:63:55:7e:51:a4:73:54:
                    eb:29:61:27:2d:af:83:7c:59:78:e7:0e:c3:75:9b:
                    e7:30:16:0c:19:71:fe:c7:b7:40:d9:d5:d1:62:42:
                    72:fd:44:68:d3:5f:d6:dc:3b:e5:ee:45:cc:4f:82:
                    38:c0:f4:1c:6c:16:77:bd:26:ff:72:0c:56:84:f8:
                    ce:a1:40:be:13:a1:b3:8e:c9:0d:3c:70:c8:b6:54:
                    70:85:83:c9:d5:20:c5:7f:85:f8:ea:6e:02:82:a8:
                    9d:fb:84:fe:48:f5:8a:8d:08:3f:36:8f:95:d8:36:
                    de:98:12:4b:bd:1f:db:7f:4a:3b:4a:d1:09:4a:19:
                    42:7c:c9:95:e5:80:28:c1:70:20:51:02:31:fe:48:
                    ea:b7:d2:19:4b:a0:26:20:15:75:62:ad:ab:c0:77:
                    1c:69:7e:5a:15:0b:3b:86:1e:f3:31:a7:30:2f:00:
                    3c:3f:d4:5b:0d:39:d3:18:e1:53:bf:37:3d:bf:f1:
                    a0:33:89:5f:63:a0:09:f9:9f:b6:4b:b4:26:7f:5e:
                    e6:d2:f8:77:2b:57:34:68:87:72:5f:f2:64:8d:49:
                    b1:81:5a:a0:84:78:c3:23:59:3d:a7:71:0f:6f:e3:
                    09:ba:1c:ef:c8:b4:fc:7c:a2:57:6b:c5:c3:45:00:
                    a5:52:77
                Exponent: 65537 (0x10001)
        X509v3 extensions:
            X509v3 Basic Constraints: 
                CA:FALSE
            Netscape Comment: 
                Easy-RSA Generated Certificate
            X509v3 Subject Key Identifier: 
                59:94:37:2D:2F:26:50:EE:86:29:7B:F8:FD:09:06:89:46:85:99:D9
            X509v3 Authority Key Identifier: 
                keyid:EF:38:8D:14:50:58:A7:5B:4D:9C:17:72:FC:DF:B9:AC:A7:51:B0:10
                DirName:/C=US/ST=CA/L=SanFrancisco/O=Pixglo, Inc./OU=VPN-CIE/CN=tunnel.pixglo.com/name=Bala Chandrasekaran/emailAddress=bala@pixglo.com
                serial:A6:DB:C6:83:80:E6:A0:79

            X509v3 Extended Key Usage: 
                TLS Web Client Authentication
            X509v3 Key Usage: 
                Digital Signature
    Signature Algorithm: sha1WithRSAEncryption
         c7:c4:76:67:94:20:c5:20:51:71:b5:a8:7d:2a:6a:2d:44:ec:
         3b:24:15:82:a2:e2:fe:4f:00:a7:c9:0e:e6:95:e2:00:a7:32:
         96:6b:c2:80:f7:0d:4f:29:56:f4:44:c3:04:be:d5:fb:13:5b:
         e5:e1:d0:18:a0:68:12:88:b4:da:e5:33:40:22:a3:b0:51:73:
         d9:7c:e9:dd:db:f4:80:24:24:02:15:41:8f:2c:b7:01:af:5d:
         a0:cb:a0:71:09:f4:5e:cc:09:ed:61:f3:a0:2e:be:c1:6b:26:
         d5:47:e1:ae:3e:13:b3:95:03:a3:55:10:7f:92:ae:db:69:6e:
         7d:12:bf:cb:70:08:cc:5b:20:90:cf:0b:59:fb:32:c8:d5:ea:
         9d:37:c1:6f:64:8a:94:bb:ab:4f:25:96:f2:06:2f:80:d1:fe:
         f2:3f:d9:fa:76:43:19:1b:53:60:f1:3e:84:27:3d:1f:15:c2:
         c9:d7:b1:95:5e:d1:25:0a:2d:7a:c1:66:1b:9b:3b:4b:9f:c0:
         93:f3:aa:bc:8d:40:13:c0:a9:01:52:03:2b:e0:49:c8:6e:40:
         b8:da:9c:32:11:57:84:bc:c2:e0:6f:9d:b4:4a:44:7e:b8:3e:
         79:20:7d:15:ef:20:bb:98:d3:6b:77:5a:ac:ca:29:35:b8:e2:
         bc:c3:dc:fc:78:f8:e6:45:33:fe:46:83:34:1c:7f:68:41:07:
         d5:31:45:a0:e2:9b:92:93:43:08:40:fe:7f:ab:c7:ea:a4:a9:
         49:ff:d9:95:3a:25:c0:55:93:e4:15:50:3f:30:10:84:b0:38:
         34:41:fe:7e:e4:38:fa:f4:27:98:4e:df:e4:5c:73:ac:ed:28:
         b7:ba:4b:4c:15:f1:54:0c:38:47:4d:4c:09:8c:f9:9d:a3:10:
         4e:22:fa:97:f6:bd:f2:d9:fa:12:c0:49:20:fc:50:fd:7b:ab:
         bb:44:2e:62:22:10:68:72:ed:f7:07:bd:10:72:a2:9b:67:0f:
         85:e5:a5:17:c3:ef:46:cf:3c:15:cf:aa:83:06:0c:4d:c3:d8:
         1b:f6:6b:b3:05:e9:78:f4:5d:94:cb:86:bd:04:96:26:cd:a7:
         fa:9e:5f:8d:97:be:23:2f:e0:05:2c:45:10:16:16:7f:65:6b:
         4c:6d:74:33:24:6b:92:96:c1:45:11:e5:82:54:b4:bf:b7:5f:
         57:16:22:43:ea:73:bd:94:e0:19:d3:bd:02:7d:b3:38:25:cb:
         b9:2d:98:ff:93:6f:5f:5a:57:66:25:f9:54:c3:78:aa:23:e5:
         f3:ab:05:3f:f0:9f:e7:03:55:58:45:7b:d9:25:68:dd:3d:89:
         63:b8:ed:b0:dd:16:69:6a
-----BEGIN CERTIFICATE-----
MIIHSDCCBTCgAwIBAgICAq0wDQYJKoZIhvcNAQEFBQAwgbQxCzAJBgNVBAYTAlVT
MQswCQYDVQQIEwJDQTEVMBMGA1UEBxMMU2FuRnJhbmNpc2NvMRUwEwYDVQQKEwxQ
aXhnbG8sIEluYy4xEDAOBgNVBAsTB1ZQTi1DSUUxGjAYBgNVBAMTEXR1bm5lbC5w
aXhnbG8uY29tMRwwGgYDVQQpExNCYWxhIENoYW5kcmFzZWthcmFuMR4wHAYJKoZI
hvcNAQkBFg9iYWxhQHBpeGdsby5jb20wHhcNMTgwMjE0MDY0MDE3WhcNMjgwMjEy
MDY0MDE3WjCBqTELMAkGA1UEBhMCVVMxCzAJBgNVBAgTAkNBMRUwEwYDVQQHEwxT
YW5GcmFuY2lzY28xFTATBgNVBAoTDFBpeGdsbywgSW5jLjEQMA4GA1UECxMHVlBO
LUNJRTEPMA0GA1UEAxMGY2llNjg0MRwwGgYDVQQpExNCYWxhIENoYW5kcmFzZWth
cmFuMR4wHAYJKoZIhvcNAQkBFg9iYWxhQHBpeGdsby5jb20wggIiMA0GCSqGSIb3
DQEBAQUAA4ICDwAwggIKAoICAQC9KGZQuZGrTgcB3ZjSSc6iAeyTlUB5f/bTQwYx
Jf6byZI6BX0OFqchqV2OJh1DiJGqRIIAwwKmTSo5nwsyWKdavLG9is5TLWdeTuZW
njbhnjgDVihuNoHU2nX6XxuNcGXHLZ8NTscrYV6JKENEu5WNsQIJUa/bSPKbe/1y
liGzamsrkeu/Cs7fpLgcQOMbbSeZXtrM2G5bzQz0ni0LDNhI1jWuqVLCKyMt+5g9
kxzycmC/jq4HfSkYoA5nuOCMhb+3oTr/isOnPMYOrmyTUSgyeQfp7zIG+5CNuV4F
NsSTEvvmMDHUHMQTY/UByh25LfVqFXhfIiXfNkgpjGdsUW6+EEkJcmv4Y1V+UaRz
VOspYSctr4N8WXjnDsN1m+cwFgwZcf7Ht0DZ1dFiQnL9RGjTX9bcO+XuRcxPgjjA
9BxsFne9Jv9yDFaE+M6hQL4TobOOyQ08cMi2VHCFg8nVIMV/hfjqbgKCqJ37hP5I
9YqNCD82j5XYNt6YEku9H9t/SjtK0QlKGUJ8yZXlgCjBcCBRAjH+SOq30hlLoCYg
FXViravAdxxpfloVCzuGHvMxpzAvADw/1FsNOdMY4VO/Nz2/8aAziV9joAn5n7ZL
tCZ/XubS+HcrVzRoh3Jf8mSNSbGBWqCEeMMjWT2ncQ9v4wm6HO/ItPx8oldrxcNF
AKVSdwIDAQABo4IBazCCAWcwCQYDVR0TBAIwADAtBglghkgBhvhCAQ0EIBYeRWFz
eS1SU0EgR2VuZXJhdGVkIENlcnRpZmljYXRlMB0GA1UdDgQWBBRZlDctLyZQ7oYp
e/j9CQaJRoWZ2TCB6QYDVR0jBIHhMIHegBTvOI0UUFinW02cF3L837msp1GwEKGB
uqSBtzCBtDELMAkGA1UEBhMCVVMxCzAJBgNVBAgTAkNBMRUwEwYDVQQHEwxTYW5G
cmFuY2lzY28xFTATBgNVBAoTDFBpeGdsbywgSW5jLjEQMA4GA1UECxMHVlBOLUNJ
RTEaMBgGA1UEAxMRdHVubmVsLnBpeGdsby5jb20xHDAaBgNVBCkTE0JhbGEgQ2hh
bmRyYXNla2FyYW4xHjAcBgkqhkiG9w0BCQEWD2JhbGFAcGl4Z2xvLmNvbYIJAKbb
xoOA5qB5MBMGA1UdJQQMMAoGCCsGAQUFBwMCMAsGA1UdDwQEAwIHgDANBgkqhkiG
9w0BAQUFAAOCAgEAx8R2Z5QgxSBRcbWofSpqLUTsOyQVgqLi/k8Ap8kO5pXiAKcy
lmvCgPcNTylW9ETDBL7V+xNb5eHQGKBoEoi02uUzQCKjsFFz2Xzp3dv0gCQkAhVB
jyy3Aa9doMugcQn0XswJ7WHzoC6+wWsm1Ufhrj4Ts5UDo1UQf5Ku22lufRK/y3AI
zFsgkM8LWfsyyNXqnTfBb2SKlLurTyWW8gYvgNH+8j/Z+nZDGRtTYPE+hCc9HxXC
ydexlV7RJQotesFmG5s7S5/Ak/OqvI1AE8CpAVIDK+BJyG5AuNqcMhFXhLzC4G+d
tEpEfrg+eSB9Fe8gu5jTa3darMopNbjivMPc/Hj45kUz/kaDNBx/aEEH1TFFoOKb
kpNDCED+f6vH6qSpSf/ZlTolwFWT5BVQPzAQhLA4NEH+fuQ4+vQnmE7f5FxzrO0o
t7pLTBXxVAw4R01MCYz5naMQTiL6l/a98tn6EsBJIPxQ/Xuru0QuYiIQaHLt9we9
EHKim2cPheWlF8PvRs88Fc+qgwYMTcPYG/ZrswXpePRdlMuGvQSWJs2n+p5fjZe+
Iy/gBSxFEBYWf2VrTG10MyRrkpbBRRHlglS0v7dfVxYiQ+pzvZTgGdO9An2zOCXL
uS2Y/5NvX1pXZiX5VMN4qiPl86sFP/Cf5wNVWEV72SVo3T2JY7jtsN0WaWo=
-----END CERTIFICATE-----
