Certificate:
    Data:
        Version: 3 (0x2)
        Serial Number: 613 (0x265)
    Signature Algorithm: sha1WithRSAEncryption
        Issuer: C=US, ST=CA, L=SanFrancisco, O=Pixglo, Inc., OU=VPN-CIE, CN=tunnel.pixglo.com/name=Bala Chandrasekaran/emailAddress=bala@pixglo.com
        Validity
            Not Before: Feb 14 06:38:27 2018 GMT
            Not After : Feb 12 06:38:27 2028 GMT
        Subject: C=US, ST=CA, L=SanFrancisco, O=Pixglo, Inc., OU=VPN-CIE, CN=cie612/name=Bala Chandrasekaran/emailAddress=bala@pixglo.com
        Subject Public Key Info:
            Public Key Algorithm: rsaEncryption
                Public-Key: (4096 bit)
                Modulus:
                    00:9e:c0:9a:c4:7b:e5:ff:8c:61:b1:c0:74:3b:17:
                    96:60:65:53:25:0b:53:74:6b:7a:07:e1:1e:12:06:
                    6f:78:40:6b:83:49:51:9d:8a:4c:94:af:b8:07:ed:
                    4e:69:fc:62:79:b7:e8:44:50:25:02:5f:7a:87:af:
                    f4:89:76:fe:29:37:f5:31:92:7f:b0:c6:6a:55:f3:
                    bc:9c:3d:0c:9b:68:35:f0:41:b6:43:19:f7:54:30:
                    74:e5:d4:b5:c8:59:da:6d:64:5e:26:d0:4a:b2:b4:
                    38:2a:9f:1e:4a:2b:e0:3c:5d:5a:d1:3d:ba:87:d8:
                    a1:6a:95:3b:3f:67:25:89:91:d0:75:21:8d:1a:03:
                    7f:0b:b1:80:ff:da:1d:af:e3:5a:0d:c8:ca:00:72:
                    af:be:9f:1b:c8:fb:70:01:dd:be:a2:f9:04:d2:49:
                    1d:f3:0f:dd:e9:15:73:87:e2:eb:49:04:56:e2:80:
                    5a:93:c8:9c:54:5b:5d:7d:c7:5a:fd:b7:d0:f5:46:
                    56:21:b9:f6:09:aa:b1:6c:a9:43:e9:63:ca:fd:e4:
                    f5:36:9d:38:ed:e7:08:69:30:ec:4b:6c:db:04:18:
                    77:bf:fb:e0:9f:2d:58:50:d2:78:ea:fa:7a:81:35:
                    99:4c:de:f1:14:56:67:9e:e1:ca:f4:0b:a7:d6:66:
                    36:97:bf:40:be:83:85:d3:42:a7:d9:00:70:c2:26:
                    e9:65:54:d9:2a:19:06:36:aa:49:2b:22:4e:01:0d:
                    16:d7:1e:7b:62:a7:ea:c8:d1:d0:6b:3d:77:4b:d0:
                    b7:bc:d4:50:33:6f:f6:bb:e4:47:e0:ce:78:cd:22:
                    30:e9:c2:dc:5b:05:d3:55:b8:3f:d8:3d:21:7d:77:
                    78:d9:41:1b:65:ca:3a:4b:68:b5:94:24:d9:99:5c:
                    10:96:55:a1:0f:17:c6:4e:2f:a2:e5:78:ee:c5:1e:
                    d8:02:06:2b:9b:59:b9:db:d1:f7:b7:b1:0b:12:d1:
                    e8:ba:3f:d7:8f:b6:83:e0:98:cf:83:39:af:76:a0:
                    53:98:e0:42:1e:ee:0d:c8:39:95:90:28:f6:87:a6:
                    11:69:0b:07:17:10:39:af:f3:ae:e1:b0:f5:92:ef:
                    75:46:0e:99:77:66:de:f7:3e:43:5c:eb:51:0f:83:
                    8d:51:1e:1b:7d:a5:d1:42:df:e1:88:56:e6:ed:59:
                    cf:e4:45:e4:be:ff:bb:c1:bf:34:aa:e1:59:85:cd:
                    4d:42:bd:7e:09:ce:63:9e:64:40:2a:f0:04:50:03:
                    05:13:89:a6:65:c3:8a:3a:56:5b:82:20:d3:e6:eb:
                    9b:ea:51:eb:52:3d:c1:cb:d3:51:ad:2e:eb:b1:11:
                    e1:7c:1d
                Exponent: 65537 (0x10001)
        X509v3 extensions:
            X509v3 Basic Constraints: 
                CA:FALSE
            Netscape Comment: 
                Easy-RSA Generated Certificate
            X509v3 Subject Key Identifier: 
                5C:C2:75:05:FC:CE:92:72:63:5D:16:B5:C0:29:A8:0D:BB:87:80:33
            X509v3 Authority Key Identifier: 
                keyid:EF:38:8D:14:50:58:A7:5B:4D:9C:17:72:FC:DF:B9:AC:A7:51:B0:10
                DirName:/C=US/ST=CA/L=SanFrancisco/O=Pixglo, Inc./OU=VPN-CIE/CN=tunnel.pixglo.com/name=Bala Chandrasekaran/emailAddress=bala@pixglo.com
                serial:A6:DB:C6:83:80:E6:A0:79

            X509v3 Extended Key Usage: 
                TLS Web Client Authentication
            X509v3 Key Usage: 
                Digital Signature
    Signature Algorithm: sha1WithRSAEncryption
         b4:d4:d8:59:cc:3a:6e:3d:f5:01:97:e3:71:fa:51:33:73:88:
         8d:85:ef:22:e7:f0:4d:bc:48:48:57:f7:38:2b:3e:c0:fa:0b:
         d9:c3:e5:dd:fd:f2:b4:32:47:aa:f6:17:f9:a1:70:43:b5:b3:
         e5:cf:06:6e:72:44:55:02:d4:59:67:f5:3c:61:fb:87:0e:e6:
         ae:4d:e6:cd:da:c6:09:e8:29:ab:5b:f3:c6:8a:48:72:38:64:
         e1:f3:35:4d:24:6f:79:cf:d7:ee:0f:e1:1e:f5:19:42:dc:26:
         bf:07:b0:d1:cb:0d:ad:6d:df:c9:5e:67:7e:e4:be:5b:ae:6b:
         99:d5:20:82:ef:d0:1d:7f:c1:9c:71:79:9f:61:63:4b:bc:9e:
         4a:16:4d:db:23:91:64:ad:1c:b2:b3:9f:6c:47:bf:1e:8b:06:
         71:94:c6:b5:68:4d:d0:af:2f:e0:41:92:25:ad:ad:89:30:e1:
         58:bf:65:af:ef:05:c2:57:58:e5:0e:1e:46:71:37:72:fa:42:
         80:d2:30:0a:50:b5:f6:21:45:68:d4:1b:86:d6:a4:89:56:c6:
         7d:0b:53:17:23:b0:7e:c5:32:64:3e:07:58:0b:2a:40:b3:c0:
         9f:a8:6f:7f:87:cf:d5:c6:3e:65:49:da:8c:f1:a1:64:cb:65:
         0e:6c:e1:34:3b:53:a1:c1:08:99:5c:04:59:ea:61:78:3d:d4:
         03:ed:4a:3b:63:6f:64:b0:fa:89:da:10:c1:76:e9:82:95:af:
         54:f6:18:87:93:c8:50:fa:e5:df:7b:87:e5:58:c4:cc:e7:e7:
         93:40:57:29:b5:77:3f:1a:ec:3d:c9:7d:26:19:21:10:6d:08:
         64:b7:62:83:9c:b1:35:6d:86:d4:78:d5:43:e1:73:64:18:c7:
         56:32:bf:fa:ad:3b:3a:03:22:fe:0a:81:b4:42:fd:d1:c0:29:
         e9:69:f7:74:6d:e4:0f:99:45:df:16:64:2d:c9:f5:f2:e6:41:
         d5:d1:a1:5a:0f:64:3a:8c:e9:68:41:6d:7a:ff:70:95:e9:b4:
         6f:75:12:94:d0:62:4c:4f:89:4f:d4:01:cb:79:08:c5:94:c7:
         ea:63:ef:0c:99:6d:bb:0b:12:af:f5:55:cb:c9:61:33:26:76:
         76:d7:fd:e0:2b:d7:ca:14:15:b1:72:ad:f8:56:37:a8:51:98:
         b2:6d:41:89:d9:10:44:9e:1d:0b:74:96:e2:39:d4:a5:00:02:
         a3:ac:bf:45:4e:82:3f:24:6a:59:91:d4:28:9d:72:e9:28:e9:
         48:dd:8d:1e:a8:46:f2:38:05:78:f7:fb:a2:b5:f4:06:c3:af:
         f1:81:92:fa:5b:12:94:a7
-----BEGIN CERTIFICATE-----
MIIHSDCCBTCgAwIBAgICAmUwDQYJKoZIhvcNAQEFBQAwgbQxCzAJBgNVBAYTAlVT
MQswCQYDVQQIEwJDQTEVMBMGA1UEBxMMU2FuRnJhbmNpc2NvMRUwEwYDVQQKEwxQ
aXhnbG8sIEluYy4xEDAOBgNVBAsTB1ZQTi1DSUUxGjAYBgNVBAMTEXR1bm5lbC5w
aXhnbG8uY29tMRwwGgYDVQQpExNCYWxhIENoYW5kcmFzZWthcmFuMR4wHAYJKoZI
hvcNAQkBFg9iYWxhQHBpeGdsby5jb20wHhcNMTgwMjE0MDYzODI3WhcNMjgwMjEy
MDYzODI3WjCBqTELMAkGA1UEBhMCVVMxCzAJBgNVBAgTAkNBMRUwEwYDVQQHEwxT
YW5GcmFuY2lzY28xFTATBgNVBAoTDFBpeGdsbywgSW5jLjEQMA4GA1UECxMHVlBO
LUNJRTEPMA0GA1UEAxMGY2llNjEyMRwwGgYDVQQpExNCYWxhIENoYW5kcmFzZWth
cmFuMR4wHAYJKoZIhvcNAQkBFg9iYWxhQHBpeGdsby5jb20wggIiMA0GCSqGSIb3
DQEBAQUAA4ICDwAwggIKAoICAQCewJrEe+X/jGGxwHQ7F5ZgZVMlC1N0a3oH4R4S
Bm94QGuDSVGdikyUr7gH7U5p/GJ5t+hEUCUCX3qHr/SJdv4pN/Uxkn+wxmpV87yc
PQybaDXwQbZDGfdUMHTl1LXIWdptZF4m0EqytDgqnx5KK+A8XVrRPbqH2KFqlTs/
ZyWJkdB1IY0aA38LsYD/2h2v41oNyMoAcq++nxvI+3AB3b6i+QTSSR3zD93pFXOH
4utJBFbigFqTyJxUW119x1r9t9D1RlYhufYJqrFsqUPpY8r95PU2nTjt5whpMOxL
bNsEGHe/++CfLVhQ0njq+nqBNZlM3vEUVmee4cr0C6fWZjaXv0C+g4XTQqfZAHDC
JullVNkqGQY2qkkrIk4BDRbXHntip+rI0dBrPXdL0Le81FAzb/a75EfgznjNIjDp
wtxbBdNVuD/YPSF9d3jZQRtlyjpLaLWUJNmZXBCWVaEPF8ZOL6LleO7FHtgCBiub
Wbnb0fe3sQsS0ei6P9ePtoPgmM+DOa92oFOY4EIe7g3IOZWQKPaHphFpCwcXEDmv
867hsPWS73VGDpl3Zt73PkNc61EPg41RHht9pdFC3+GIVubtWc/kReS+/7vBvzSq
4VmFzU1CvX4JzmOeZEAq8ARQAwUTiaZlw4o6VluCINPm65vqUetSPcHL01GtLuux
EeF8HQIDAQABo4IBazCCAWcwCQYDVR0TBAIwADAtBglghkgBhvhCAQ0EIBYeRWFz
eS1SU0EgR2VuZXJhdGVkIENlcnRpZmljYXRlMB0GA1UdDgQWBBRcwnUF/M6ScmNd
FrXAKagNu4eAMzCB6QYDVR0jBIHhMIHegBTvOI0UUFinW02cF3L837msp1GwEKGB
uqSBtzCBtDELMAkGA1UEBhMCVVMxCzAJBgNVBAgTAkNBMRUwEwYDVQQHEwxTYW5G
cmFuY2lzY28xFTATBgNVBAoTDFBpeGdsbywgSW5jLjEQMA4GA1UECxMHVlBOLUNJ
RTEaMBgGA1UEAxMRdHVubmVsLnBpeGdsby5jb20xHDAaBgNVBCkTE0JhbGEgQ2hh
bmRyYXNla2FyYW4xHjAcBgkqhkiG9w0BCQEWD2JhbGFAcGl4Z2xvLmNvbYIJAKbb
xoOA5qB5MBMGA1UdJQQMMAoGCCsGAQUFBwMCMAsGA1UdDwQEAwIHgDANBgkqhkiG
9w0BAQUFAAOCAgEAtNTYWcw6bj31AZfjcfpRM3OIjYXvIufwTbxISFf3OCs+wPoL
2cPl3f3ytDJHqvYX+aFwQ7Wz5c8GbnJEVQLUWWf1PGH7hw7mrk3mzdrGCegpq1vz
xopIcjhk4fM1TSRvec/X7g/hHvUZQtwmvwew0csNrW3fyV5nfuS+W65rmdUggu/Q
HX/BnHF5n2FjS7yeShZN2yORZK0csrOfbEe/HosGcZTGtWhN0K8v4EGSJa2tiTDh
WL9lr+8FwldY5Q4eRnE3cvpCgNIwClC19iFFaNQbhtakiVbGfQtTFyOwfsUyZD4H
WAsqQLPAn6hvf4fP1cY+ZUnajPGhZMtlDmzhNDtTocEImVwEWepheD3UA+1KO2Nv
ZLD6idoQwXbpgpWvVPYYh5PIUPrl33uH5VjEzOfnk0BXKbV3PxrsPcl9JhkhEG0I
ZLdig5yxNW2G1HjVQ+FzZBjHVjK/+q07OgMi/gqBtEL90cAp6Wn3dG3kD5lF3xZk
Lcn18uZB1dGhWg9kOozpaEFtev9wlem0b3USlNBiTE+JT9QBy3kIxZTH6mPvDJlt
uwsSr/VVy8lhMyZ2dtf94CvXyhQVsXKt+FY3qFGYsm1BidkQRJ4dC3SW4jnUpQAC
o6y/RU6CPyRqWZHUKJ1y6SjpSN2NHqhG8jgFePf7orX0BsOv8YGS+lsSlKc=
-----END CERTIFICATE-----
