Certificate:
    Data:
        Version: 3 (0x2)
        Serial Number: 684 (0x2ac)
    Signature Algorithm: sha1WithRSAEncryption
        Issuer: C=US, ST=CA, L=SanFrancisco, O=Pixglo, Inc., OU=VPN-CIE, CN=tunnel.pixglo.com/name=Bala Chandrasekaran/emailAddress=bala@pixglo.com
        Validity
            Not Before: Feb 14 06:40:16 2018 GMT
            Not After : Feb 12 06:40:16 2028 GMT
        Subject: C=US, ST=CA, L=SanFrancisco, O=Pixglo, Inc., OU=VPN-CIE, CN=cie683/name=Bala Chandrasekaran/emailAddress=bala@pixglo.com
        Subject Public Key Info:
            Public Key Algorithm: rsaEncryption
                Public-Key: (4096 bit)
                Modulus:
                    00:f1:bc:03:7b:0e:79:46:30:ce:0a:49:4a:c6:3b:
                    bf:0c:c9:c7:29:2b:16:b5:54:71:2c:07:02:b8:f8:
                    e1:6e:a7:92:2c:da:de:7e:ce:5c:c4:46:8e:64:c1:
                    8e:93:d4:df:64:a8:80:27:d3:b0:a5:3f:0b:73:53:
                    2e:26:2f:b3:c7:4b:34:b0:b3:fb:36:68:dd:45:64:
                    58:76:ee:3e:43:4b:6a:32:b7:ab:29:02:15:fd:9b:
                    60:f4:67:13:14:05:d6:67:75:cb:ef:63:19:30:3a:
                    b6:3a:b3:d0:05:86:70:8d:3a:8d:fc:57:a2:c4:7d:
                    12:2c:87:a3:ac:3b:23:7a:73:5b:60:5d:cc:38:6f:
                    41:c1:71:d2:b6:d9:12:e4:46:c1:cd:fd:1f:63:cd:
                    9e:8d:09:c8:55:4b:ed:d3:ca:90:fb:c2:0b:20:e0:
                    05:b0:98:a4:30:78:13:f9:08:ed:55:98:61:bc:b9:
                    25:1a:c9:da:dc:fd:6e:10:cc:e9:e1:7a:dc:d9:cb:
                    42:24:42:53:21:d7:9c:53:7c:ef:66:44:2d:de:1b:
                    27:03:db:9a:19:3d:0c:08:c2:27:48:9b:88:ed:1a:
                    29:fb:b2:d0:79:cf:26:44:c5:99:a4:e5:a5:34:91:
                    13:c4:9a:cf:3a:ab:b9:91:7d:46:4c:43:66:4b:6d:
                    45:7c:e6:6f:cf:e8:d3:d7:fe:ee:ff:5d:6f:c5:8e:
                    37:d1:ae:26:a1:7a:62:0f:67:74:81:91:03:27:d0:
                    ec:16:3b:f9:7c:27:b0:dc:78:40:e6:9b:1d:25:ce:
                    cd:ed:13:b3:04:00:a9:a3:4c:74:01:a6:ca:94:0b:
                    70:a4:24:59:47:35:ca:20:e6:21:c3:1b:25:56:e1:
                    c2:97:c1:a2:e0:12:f3:98:b4:ef:5a:e5:9b:b0:70:
                    28:2a:cc:fe:82:dc:7e:1b:4d:ea:9d:32:1a:9b:1a:
                    26:ce:28:95:96:32:51:7f:7e:e7:71:3a:9b:d3:e4:
                    d2:f0:66:51:9b:b6:a7:d6:88:56:9b:d8:19:25:d0:
                    c8:57:51:c1:fb:f7:82:e8:90:ed:c7:19:87:d8:cc:
                    89:7c:72:74:bd:fd:86:10:a7:1e:5f:7e:ab:45:83:
                    27:da:71:31:46:bb:b3:13:b1:a1:5f:2a:d7:35:0b:
                    36:9f:b4:79:d3:bb:7a:b4:0b:09:24:73:76:d1:6a:
                    15:22:8e:ce:36:85:2d:67:60:cb:70:ce:d1:1f:de:
                    33:e0:6d:e6:f8:64:73:bf:fc:dc:87:03:b7:c8:fc:
                    12:5c:3d:f0:0e:01:8e:ee:18:b3:d1:24:6d:de:68:
                    ed:31:39:97:69:d2:f0:21:ac:d8:ba:e4:ad:ed:98:
                    ca:96:65
                Exponent: 65537 (0x10001)
        X509v3 extensions:
            X509v3 Basic Constraints: 
                CA:FALSE
            Netscape Comment: 
                Easy-RSA Generated Certificate
            X509v3 Subject Key Identifier: 
                AD:5D:61:F0:06:74:96:3C:54:43:17:1B:B4:B0:8B:D3:7D:86:7C:77
            X509v3 Authority Key Identifier: 
                keyid:EF:38:8D:14:50:58:A7:5B:4D:9C:17:72:FC:DF:B9:AC:A7:51:B0:10
                DirName:/C=US/ST=CA/L=SanFrancisco/O=Pixglo, Inc./OU=VPN-CIE/CN=tunnel.pixglo.com/name=Bala Chandrasekaran/emailAddress=bala@pixglo.com
                serial:A6:DB:C6:83:80:E6:A0:79

            X509v3 Extended Key Usage: 
                TLS Web Client Authentication
            X509v3 Key Usage: 
                Digital Signature
    Signature Algorithm: sha1WithRSAEncryption
         11:cb:f1:12:6b:6d:d0:a3:c6:27:e2:fd:3f:79:42:50:6f:9e:
         21:4f:2b:65:5f:49:f6:d2:3d:23:7f:81:b3:4c:fe:38:a0:61:
         47:d0:13:95:31:5a:5b:74:aa:8a:44:77:ef:21:ea:c8:ea:cd:
         b5:2a:55:fe:5b:d7:9b:73:4b:2c:3c:d6:7c:bc:ff:72:36:12:
         44:60:51:21:e6:5a:51:c1:71:8f:83:cd:d6:8d:47:b3:69:b4:
         04:df:c1:71:d2:00:e2:cb:68:bf:21:7d:6a:17:1d:34:e3:10:
         f2:26:83:78:0f:43:98:d5:64:0b:df:a1:71:8e:5c:a0:6a:7d:
         d3:dc:7d:34:b7:8a:0b:6e:0b:64:4c:d1:ca:c0:3a:cb:37:af:
         73:74:8f:14:bf:cc:58:a2:47:8e:af:15:32:47:ce:a4:f3:bc:
         0b:f3:51:8c:5f:f7:31:f0:2a:f5:40:20:bd:d0:37:2f:ea:ae:
         4a:da:66:e3:8c:ec:7c:ea:e0:0b:6c:59:ad:be:d6:7e:6e:aa:
         1e:a0:a5:f2:94:00:60:a6:80:63:a6:52:6f:e9:d4:6c:ce:98:
         32:4b:96:37:e7:9b:82:53:1f:81:aa:16:c6:52:e1:19:40:42:
         dd:fa:de:d2:16:3c:e2:e2:18:62:93:0e:e5:e9:54:f1:27:78:
         ca:42:58:42:d9:85:9b:01:09:ce:4a:e1:bc:8d:e4:ea:0a:a1:
         a7:b8:f2:52:6c:b6:81:00:e1:7d:2e:c6:1d:e4:76:44:3b:4c:
         36:a8:56:d4:53:67:e2:47:d5:c3:04:a0:00:91:13:26:7b:4b:
         d5:ad:82:b8:eb:a2:ef:48:7a:3e:c5:39:06:f1:f2:23:8f:91:
         38:bd:9c:0c:bf:62:01:3b:46:dd:ad:f0:04:db:e1:6a:ea:96:
         19:75:b5:dc:f7:2d:fe:55:f3:5f:cf:fe:e9:98:1b:22:de:49:
         30:7d:74:82:c5:ab:c3:22:d3:6c:31:87:e1:7e:bd:0a:6e:73:
         00:b5:1d:a8:0b:04:14:f2:90:44:d2:09:5a:7c:c2:0c:89:9b:
         1c:19:70:a2:d2:32:c0:a5:88:62:18:97:e5:d8:2d:9a:e8:4d:
         de:0c:cd:0a:55:2a:b6:ba:b3:37:fe:43:19:d7:17:24:10:23:
         07:06:92:0d:b7:55:f5:35:50:db:b7:5e:a2:12:59:a7:ff:e3:
         c1:0b:00:49:6a:7d:30:8b:fd:3c:c5:35:a7:a6:03:b2:08:0b:
         10:e6:70:ef:61:f6:16:74:6c:d2:68:c6:d9:64:a1:06:3e:ea:
         b6:7e:80:7b:17:cd:3b:73:8c:62:bd:01:44:ac:5e:99:2d:34:
         a0:bb:c2:e2:30:00:47:20
-----BEGIN CERTIFICATE-----
MIIHSDCCBTCgAwIBAgICAqwwDQYJKoZIhvcNAQEFBQAwgbQxCzAJBgNVBAYTAlVT
MQswCQYDVQQIEwJDQTEVMBMGA1UEBxMMU2FuRnJhbmNpc2NvMRUwEwYDVQQKEwxQ
aXhnbG8sIEluYy4xEDAOBgNVBAsTB1ZQTi1DSUUxGjAYBgNVBAMTEXR1bm5lbC5w
aXhnbG8uY29tMRwwGgYDVQQpExNCYWxhIENoYW5kcmFzZWthcmFuMR4wHAYJKoZI
hvcNAQkBFg9iYWxhQHBpeGdsby5jb20wHhcNMTgwMjE0MDY0MDE2WhcNMjgwMjEy
MDY0MDE2WjCBqTELMAkGA1UEBhMCVVMxCzAJBgNVBAgTAkNBMRUwEwYDVQQHEwxT
YW5GcmFuY2lzY28xFTATBgNVBAoTDFBpeGdsbywgSW5jLjEQMA4GA1UECxMHVlBO
LUNJRTEPMA0GA1UEAxMGY2llNjgzMRwwGgYDVQQpExNCYWxhIENoYW5kcmFzZWth
cmFuMR4wHAYJKoZIhvcNAQkBFg9iYWxhQHBpeGdsby5jb20wggIiMA0GCSqGSIb3
DQEBAQUAA4ICDwAwggIKAoICAQDxvAN7DnlGMM4KSUrGO78MyccpKxa1VHEsBwK4
+OFup5Is2t5+zlzERo5kwY6T1N9kqIAn07ClPwtzUy4mL7PHSzSws/s2aN1FZFh2
7j5DS2oyt6spAhX9m2D0ZxMUBdZndcvvYxkwOrY6s9AFhnCNOo38V6LEfRIsh6Os
OyN6c1tgXcw4b0HBcdK22RLkRsHN/R9jzZ6NCchVS+3TypD7wgsg4AWwmKQweBP5
CO1VmGG8uSUaydrc/W4QzOnhetzZy0IkQlMh15xTfO9mRC3eGycD25oZPQwIwidI
m4jtGin7stB5zyZExZmk5aU0kRPEms86q7mRfUZMQ2ZLbUV85m/P6NPX/u7/XW/F
jjfRriahemIPZ3SBkQMn0OwWO/l8J7DceEDmmx0lzs3tE7MEAKmjTHQBpsqUC3Ck
JFlHNcog5iHDGyVW4cKXwaLgEvOYtO9a5ZuwcCgqzP6C3H4bTeqdMhqbGibOKJWW
MlF/fudxOpvT5NLwZlGbtqfWiFab2Bkl0MhXUcH794LokO3HGYfYzIl8cnS9/YYQ
px5ffqtFgyfacTFGu7MTsaFfKtc1CzaftHnTu3q0Cwkkc3bRahUijs42hS1nYMtw
ztEf3jPgbeb4ZHO//NyHA7fI/BJcPfAOAY7uGLPRJG3eaO0xOZdp0vAhrNi65K3t
mMqWZQIDAQABo4IBazCCAWcwCQYDVR0TBAIwADAtBglghkgBhvhCAQ0EIBYeRWFz
eS1SU0EgR2VuZXJhdGVkIENlcnRpZmljYXRlMB0GA1UdDgQWBBStXWHwBnSWPFRD
Fxu0sIvTfYZ8dzCB6QYDVR0jBIHhMIHegBTvOI0UUFinW02cF3L837msp1GwEKGB
uqSBtzCBtDELMAkGA1UEBhMCVVMxCzAJBgNVBAgTAkNBMRUwEwYDVQQHEwxTYW5G
cmFuY2lzY28xFTATBgNVBAoTDFBpeGdsbywgSW5jLjEQMA4GA1UECxMHVlBOLUNJ
RTEaMBgGA1UEAxMRdHVubmVsLnBpeGdsby5jb20xHDAaBgNVBCkTE0JhbGEgQ2hh
bmRyYXNla2FyYW4xHjAcBgkqhkiG9w0BCQEWD2JhbGFAcGl4Z2xvLmNvbYIJAKbb
xoOA5qB5MBMGA1UdJQQMMAoGCCsGAQUFBwMCMAsGA1UdDwQEAwIHgDANBgkqhkiG
9w0BAQUFAAOCAgEAEcvxEmtt0KPGJ+L9P3lCUG+eIU8rZV9J9tI9I3+Bs0z+OKBh
R9ATlTFaW3SqikR37yHqyOrNtSpV/lvXm3NLLDzWfLz/cjYSRGBRIeZaUcFxj4PN
1o1Hs2m0BN/BcdIA4stovyF9ahcdNOMQ8iaDeA9DmNVkC9+hcY5coGp909x9NLeK
C24LZEzRysA6yzevc3SPFL/MWKJHjq8VMkfOpPO8C/NRjF/3MfAq9UAgvdA3L+qu
Stpm44zsfOrgC2xZrb7Wfm6qHqCl8pQAYKaAY6ZSb+nUbM6YMkuWN+ebglMfgaoW
xlLhGUBC3fre0hY84uIYYpMO5elU8Sd4ykJYQtmFmwEJzkrhvI3k6gqhp7jyUmy2
gQDhfS7GHeR2RDtMNqhW1FNn4kfVwwSgAJETJntL1a2CuOui70h6PsU5BvHyI4+R
OL2cDL9iATtG3a3wBNvhauqWGXW13Pct/lXzX8/+6ZgbIt5JMH10gsWrwyLTbDGH
4X69Cm5zALUdqAsEFPKQRNIJWnzCDImbHBlwotIywKWIYhiX5dgtmuhN3gzNClUq
trqzN/5DGdcXJBAjBwaSDbdV9TVQ27deohJZp//jwQsASWp9MIv9PMU1p6YDsggL
EOZw72H2FnRs0mjG2WShBj7qtn6AexfNO3OMYr0BRKxemS00oLvC4jAARyA=
-----END CERTIFICATE-----
