Certificate:
    Data:
        Version: 3 (0x2)
        Serial Number: 660 (0x294)
    Signature Algorithm: sha1WithRSAEncryption
        Issuer: C=US, ST=CA, L=SanFrancisco, O=Pixglo, Inc., OU=VPN-CIE, CN=tunnel.pixglo.com/name=Bala Chandrasekaran/emailAddress=bala@pixglo.com
        Validity
            Not Before: Feb 14 06:39:42 2018 GMT
            Not After : Feb 12 06:39:42 2028 GMT
        Subject: C=US, ST=CA, L=SanFrancisco, O=Pixglo, Inc., OU=VPN-CIE, CN=cie659/name=Bala Chandrasekaran/emailAddress=bala@pixglo.com
        Subject Public Key Info:
            Public Key Algorithm: rsaEncryption
                Public-Key: (4096 bit)
                Modulus:
                    00:c9:04:19:02:c6:b2:d7:f5:41:74:c8:3c:75:25:
                    93:ab:3b:4d:42:25:f6:48:74:d5:a7:71:f8:ac:7f:
                    dc:67:ad:0e:12:b2:66:72:1b:6b:bb:ae:a1:a7:2f:
                    df:70:30:43:c1:c1:a4:89:6b:36:18:27:f5:3c:f1:
                    3f:26:2c:ad:02:41:48:56:20:6f:d1:5f:9d:29:33:
                    ed:fe:0d:c1:65:fa:3b:a6:b3:6c:96:d1:93:4a:20:
                    23:3c:c2:d6:4a:d0:0c:b4:5d:89:68:8c:0a:6c:fe:
                    ff:cb:e4:91:30:ad:e5:3f:ac:0c:84:91:1c:e9:ab:
                    10:cd:b8:a7:03:de:85:2d:7d:7b:23:8d:90:a1:5d:
                    7d:e1:4b:ce:03:74:9c:17:86:3b:da:f0:00:ed:8d:
                    f0:8e:d5:59:b4:c0:4a:0a:fd:7d:98:5a:d5:4c:fe:
                    2b:60:36:53:00:a8:39:c7:97:a8:0d:f1:a4:65:93:
                    16:43:40:16:a2:37:5d:9f:b5:1c:52:ad:21:cf:0d:
                    54:b4:65:e2:0f:21:2a:3c:98:be:1f:e9:d6:57:03:
                    44:10:fd:a9:95:25:22:9f:69:0c:bb:35:54:5e:29:
                    bc:fa:67:79:14:da:cd:85:e2:60:e9:a8:b9:0a:b6:
                    6b:7d:10:76:92:93:44:78:4c:84:b0:ae:9d:c6:26:
                    5a:f7:f2:73:d9:9e:2a:45:db:9d:4b:67:b1:82:75:
                    3b:92:aa:b3:a3:cb:23:9f:74:69:23:41:dd:6e:5c:
                    cc:53:52:6e:e9:0b:b7:38:f2:65:42:5f:15:81:df:
                    34:73:25:f7:38:42:94:65:e5:a2:a5:60:5c:e8:9f:
                    8d:4c:e0:84:e3:1c:57:cb:8f:02:dd:16:1f:3d:2c:
                    69:27:4f:f7:6f:ea:a4:41:cb:03:ab:4a:4e:52:ba:
                    f9:bb:3c:9c:db:5f:e7:ba:89:43:89:ab:bb:8e:88:
                    8d:a4:1c:ec:23:0a:e7:47:1f:1c:12:a2:be:75:85:
                    a2:a5:eb:05:6e:56:2a:80:40:77:96:2a:45:7d:7f:
                    51:b5:91:56:c1:a6:d5:00:88:6d:85:6b:ad:60:0a:
                    34:a1:89:13:47:3e:1e:bf:57:16:0d:ee:c6:4f:a7:
                    64:14:e9:f8:7c:e7:f7:4e:1c:d0:83:03:62:93:a8:
                    b6:c4:99:c0:ab:9e:b6:d4:a4:de:c1:9f:15:41:3c:
                    1f:8d:e0:25:67:49:39:fb:74:64:cd:25:57:0e:3e:
                    97:15:85:4d:0f:66:b5:ea:13:36:d0:62:59:73:3a:
                    71:a1:82:e2:4a:5f:8d:8e:4b:2c:c7:39:b0:90:25:
                    c9:05:fa:00:a3:95:d0:8d:b9:22:f3:46:15:98:6b:
                    29:00:27
                Exponent: 65537 (0x10001)
        X509v3 extensions:
            X509v3 Basic Constraints: 
                CA:FALSE
            Netscape Comment: 
                Easy-RSA Generated Certificate
            X509v3 Subject Key Identifier: 
                B0:77:72:0A:52:65:29:70:1F:9C:94:E7:AF:CC:92:4A:95:03:6F:75
            X509v3 Authority Key Identifier: 
                keyid:EF:38:8D:14:50:58:A7:5B:4D:9C:17:72:FC:DF:B9:AC:A7:51:B0:10
                DirName:/C=US/ST=CA/L=SanFrancisco/O=Pixglo, Inc./OU=VPN-CIE/CN=tunnel.pixglo.com/name=Bala Chandrasekaran/emailAddress=bala@pixglo.com
                serial:A6:DB:C6:83:80:E6:A0:79

            X509v3 Extended Key Usage: 
                TLS Web Client Authentication
            X509v3 Key Usage: 
                Digital Signature
    Signature Algorithm: sha1WithRSAEncryption
         16:82:f6:ec:6a:7e:3f:b6:08:22:cd:b1:c6:ae:32:4f:14:1e:
         32:e0:18:77:c8:7e:61:36:73:7d:95:f9:9f:da:11:78:26:46:
         4d:e4:26:92:60:79:c4:d1:ca:53:65:22:1c:55:8c:12:09:22:
         df:c0:52:db:06:cd:c0:19:83:7e:71:b8:78:8b:e9:74:bf:d8:
         be:a4:73:ac:09:4d:ed:de:f0:5a:8c:77:12:66:95:6a:ac:ef:
         11:bc:fd:a2:7e:ae:60:ec:93:4d:96:98:32:10:be:7c:04:bb:
         bc:8e:af:2a:fb:ea:7e:4a:52:33:99:42:79:3f:98:c6:c5:dd:
         11:67:f0:cd:d3:20:c2:ae:44:ae:dd:d0:db:91:f6:be:40:d4:
         b4:ac:50:48:16:d4:4b:6b:a7:cd:6c:0a:b9:a8:2d:48:11:32:
         09:aa:8a:0c:78:5d:f2:e6:8c:7a:9d:53:d3:24:b2:c6:b2:f5:
         fe:81:cd:a4:51:9a:2f:c6:12:82:36:ba:0a:ae:53:ea:b1:c2:
         3a:6e:80:ec:e9:8a:d6:f2:e7:da:b2:a7:2a:6d:f8:09:42:e6:
         dd:80:5b:08:f7:05:31:c9:38:57:3d:b5:7a:c3:31:66:a5:99:
         66:c5:09:66:2a:b5:89:a1:e3:47:f5:39:7a:74:85:ec:ab:f7:
         8e:31:ba:32:87:9e:4b:5b:cb:80:2f:aa:81:0f:05:29:0a:73:
         25:5d:0b:b6:f3:73:5d:29:26:23:cc:aa:13:e4:43:40:5c:2f:
         da:9d:43:ac:a9:36:0b:36:d2:ac:17:a7:25:59:34:36:84:16:
         62:15:40:b8:78:dd:23:64:3e:47:21:14:46:2f:ad:45:bb:ca:
         67:5b:39:ca:a6:5d:78:38:b3:02:10:af:6b:03:94:d7:8d:95:
         b9:96:3b:2f:89:e9:a3:da:2f:a4:db:71:71:15:28:c5:91:cc:
         0e:86:f5:c6:f0:58:c2:70:26:76:95:d5:76:44:f2:a9:2c:10:
         70:01:d2:0b:71:41:dd:05:0e:c4:4c:98:72:e3:ee:c6:1f:6e:
         c7:53:30:a3:e0:dd:c8:40:96:0b:a1:7a:de:2e:dd:9d:0e:7d:
         84:ee:06:9f:4e:5c:39:4e:43:82:e1:a4:cb:84:84:9c:cb:dd:
         b9:de:0a:2f:aa:06:e1:d5:ab:a8:26:55:09:12:62:2b:27:26:
         ed:c3:74:98:14:af:72:86:e1:0d:14:70:9f:b5:45:74:31:17:
         98:0e:eb:7a:61:80:83:e0:ce:a2:43:15:b6:cd:70:2b:27:40:
         0f:ed:82:1d:0e:27:5a:9e:3f:0e:95:d6:e0:e2:0d:4a:d0:47:
         30:3a:e1:68:73:69:8e:b2
-----BEGIN CERTIFICATE-----
MIIHSDCCBTCgAwIBAgICApQwDQYJKoZIhvcNAQEFBQAwgbQxCzAJBgNVBAYTAlVT
MQswCQYDVQQIEwJDQTEVMBMGA1UEBxMMU2FuRnJhbmNpc2NvMRUwEwYDVQQKEwxQ
aXhnbG8sIEluYy4xEDAOBgNVBAsTB1ZQTi1DSUUxGjAYBgNVBAMTEXR1bm5lbC5w
aXhnbG8uY29tMRwwGgYDVQQpExNCYWxhIENoYW5kcmFzZWthcmFuMR4wHAYJKoZI
hvcNAQkBFg9iYWxhQHBpeGdsby5jb20wHhcNMTgwMjE0MDYzOTQyWhcNMjgwMjEy
MDYzOTQyWjCBqTELMAkGA1UEBhMCVVMxCzAJBgNVBAgTAkNBMRUwEwYDVQQHEwxT
YW5GcmFuY2lzY28xFTATBgNVBAoTDFBpeGdsbywgSW5jLjEQMA4GA1UECxMHVlBO
LUNJRTEPMA0GA1UEAxMGY2llNjU5MRwwGgYDVQQpExNCYWxhIENoYW5kcmFzZWth
cmFuMR4wHAYJKoZIhvcNAQkBFg9iYWxhQHBpeGdsby5jb20wggIiMA0GCSqGSIb3
DQEBAQUAA4ICDwAwggIKAoICAQDJBBkCxrLX9UF0yDx1JZOrO01CJfZIdNWncfis
f9xnrQ4SsmZyG2u7rqGnL99wMEPBwaSJazYYJ/U88T8mLK0CQUhWIG/RX50pM+3+
DcFl+jums2yW0ZNKICM8wtZK0Ay0XYlojAps/v/L5JEwreU/rAyEkRzpqxDNuKcD
3oUtfXsjjZChXX3hS84DdJwXhjva8ADtjfCO1Vm0wEoK/X2YWtVM/itgNlMAqDnH
l6gN8aRlkxZDQBaiN12ftRxSrSHPDVS0ZeIPISo8mL4f6dZXA0QQ/amVJSKfaQy7
NVReKbz6Z3kU2s2F4mDpqLkKtmt9EHaSk0R4TISwrp3GJlr38nPZnipF251LZ7GC
dTuSqrOjyyOfdGkjQd1uXMxTUm7pC7c48mVCXxWB3zRzJfc4QpRl5aKlYFzon41M
4ITjHFfLjwLdFh89LGknT/dv6qRBywOrSk5Suvm7PJzbX+e6iUOJq7uOiI2kHOwj
CudHHxwSor51haKl6wVuViqAQHeWKkV9f1G1kVbBptUAiG2Fa61gCjShiRNHPh6/
VxYN7sZPp2QU6fh85/dOHNCDA2KTqLbEmcCrnrbUpN7BnxVBPB+N4CVnSTn7dGTN
JVcOPpcVhU0PZrXqEzbQYllzOnGhguJKX42OSyzHObCQJckF+gCjldCNuSLzRhWY
aykAJwIDAQABo4IBazCCAWcwCQYDVR0TBAIwADAtBglghkgBhvhCAQ0EIBYeRWFz
eS1SU0EgR2VuZXJhdGVkIENlcnRpZmljYXRlMB0GA1UdDgQWBBSwd3IKUmUpcB+c
lOevzJJKlQNvdTCB6QYDVR0jBIHhMIHegBTvOI0UUFinW02cF3L837msp1GwEKGB
uqSBtzCBtDELMAkGA1UEBhMCVVMxCzAJBgNVBAgTAkNBMRUwEwYDVQQHEwxTYW5G
cmFuY2lzY28xFTATBgNVBAoTDFBpeGdsbywgSW5jLjEQMA4GA1UECxMHVlBOLUNJ
RTEaMBgGA1UEAxMRdHVubmVsLnBpeGdsby5jb20xHDAaBgNVBCkTE0JhbGEgQ2hh
bmRyYXNla2FyYW4xHjAcBgkqhkiG9w0BCQEWD2JhbGFAcGl4Z2xvLmNvbYIJAKbb
xoOA5qB5MBMGA1UdJQQMMAoGCCsGAQUFBwMCMAsGA1UdDwQEAwIHgDANBgkqhkiG
9w0BAQUFAAOCAgEAFoL27Gp+P7YIIs2xxq4yTxQeMuAYd8h+YTZzfZX5n9oReCZG
TeQmkmB5xNHKU2UiHFWMEgki38BS2wbNwBmDfnG4eIvpdL/YvqRzrAlN7d7wWox3
EmaVaqzvEbz9on6uYOyTTZaYMhC+fAS7vI6vKvvqfkpSM5lCeT+YxsXdEWfwzdMg
wq5Ert3Q25H2vkDUtKxQSBbUS2unzWwKuagtSBEyCaqKDHhd8uaMep1T0ySyxrL1
/oHNpFGaL8YSgja6Cq5T6rHCOm6A7OmK1vLn2rKnKm34CULm3YBbCPcFMck4Vz21
esMxZqWZZsUJZiq1iaHjR/U5enSF7Kv3jjG6MoeeS1vLgC+qgQ8FKQpzJV0LtvNz
XSkmI8yqE+RDQFwv2p1DrKk2CzbSrBenJVk0NoQWYhVAuHjdI2Q+RyEURi+tRbvK
Z1s5yqZdeDizAhCvawOU142VuZY7L4npo9ovpNtxcRUoxZHMDob1xvBYwnAmdpXV
dkTyqSwQcAHSC3FB3QUOxEyYcuPuxh9ux1Mwo+DdyECWC6F63i7dnQ59hO4Gn05c
OU5DguGky4SEnMvdud4KL6oG4dWrqCZVCRJiKycm7cN0mBSvcobhDRRwn7VFdDEX
mA7remGAg+DOokMVts1wKydAD+2CHQ4nWp4/DpXW4OINStBHMDrhaHNpjrI=
-----END CERTIFICATE-----
