Certificate:
    Data:
        Version: 3 (0x2)
        Serial Number: 608 (0x260)
    Signature Algorithm: sha1WithRSAEncryption
        Issuer: C=US, ST=CA, L=SanFrancisco, O=Pixglo, Inc., OU=VPN-CIE, CN=tunnel.pixglo.com/name=Bala Chandrasekaran/emailAddress=bala@pixglo.com
        Validity
            Not Before: Feb 14 06:38:16 2018 GMT
            Not After : Feb 12 06:38:16 2028 GMT
        Subject: C=US, ST=CA, L=SanFrancisco, O=Pixglo, Inc., OU=VPN-CIE, CN=cie607/name=Bala Chandrasekaran/emailAddress=bala@pixglo.com
        Subject Public Key Info:
            Public Key Algorithm: rsaEncryption
                Public-Key: (4096 bit)
                Modulus:
                    00:a6:30:c2:d5:02:05:89:c7:91:97:54:d6:70:c7:
                    29:15:54:b0:a3:1d:24:d8:78:7d:1b:4a:9f:ea:66:
                    ed:30:de:74:f8:98:e1:c9:a9:d2:01:06:e3:64:bb:
                    0b:99:78:d0:45:4a:5c:8d:f5:f0:c8:dc:e9:71:0c:
                    1d:a7:54:a6:eb:8e:27:cf:cc:7d:01:6f:8c:c7:ee:
                    9a:7e:06:ec:e1:ff:19:4a:0f:84:84:fd:f1:65:95:
                    af:2a:b4:75:1b:9f:f3:fd:5a:b9:96:92:e3:fc:90:
                    06:0b:4e:50:9a:6b:60:22:45:5b:e5:27:2e:65:b7:
                    c5:ad:c3:61:73:b4:f4:d1:dd:5d:79:a9:3b:9d:95:
                    b2:ec:ed:19:68:63:10:fb:06:17:ba:55:a3:cc:7f:
                    66:8d:58:1d:96:e7:70:23:a1:f1:aa:6c:f2:5a:79:
                    5d:aa:93:b3:b7:a1:d1:61:d2:08:a7:72:1d:46:5d:
                    c0:91:03:75:69:7f:28:cf:d9:f4:bc:af:f4:f4:b1:
                    d2:1a:e7:96:da:a4:4c:b3:2f:ba:36:2c:89:0e:9d:
                    99:66:47:58:45:37:6b:8b:7d:f1:e5:48:23:75:0c:
                    da:38:65:75:f0:26:04:e4:37:02:ec:bb:b6:6e:8e:
                    ac:83:16:d6:31:d9:a6:d7:82:d3:72:ab:4c:63:3d:
                    e6:ed:38:69:37:5f:32:60:36:05:dc:48:be:29:20:
                    c5:d5:b9:53:6e:9f:2a:7e:8d:78:2e:45:79:02:d6:
                    1d:2d:81:1a:40:8e:e3:3d:1f:cd:3a:d0:2e:5c:5e:
                    83:af:6f:67:a2:81:73:5b:aa:45:b0:1e:36:1b:7a:
                    af:fc:67:c2:d2:1b:22:41:01:ab:e7:b1:10:f7:c9:
                    df:b1:c6:5d:e6:22:03:d0:80:87:a3:e2:58:8a:2b:
                    d4:7e:38:f0:b1:0e:3b:6f:7a:63:79:0b:e2:9d:6f:
                    8a:1c:80:18:f5:6a:9d:c1:6a:be:38:3c:f0:86:ef:
                    50:f2:91:7a:8f:5c:e2:02:48:01:b9:dc:9e:e0:94:
                    d0:11:06:c7:da:aa:19:58:fb:61:2e:69:38:8e:94:
                    15:f4:dd:9b:00:bd:a4:ce:15:ff:2f:25:b2:65:d3:
                    13:96:c8:a4:31:e3:41:da:97:b8:9f:21:e7:24:fc:
                    d3:d9:94:c1:a6:76:64:0d:d7:e5:84:7c:17:d2:86:
                    4d:3b:44:71:8c:a2:d0:96:9c:fd:8f:c7:c5:98:2e:
                    9b:a2:4a:97:f7:30:d5:d5:76:52:0e:e1:0c:4e:ab:
                    41:dc:89:86:aa:e1:f1:cc:74:d0:1f:51:51:0f:49:
                    45:6a:53:a8:cb:8b:41:95:9b:4f:c3:7f:a1:98:9b:
                    9e:c0:35
                Exponent: 65537 (0x10001)
        X509v3 extensions:
            X509v3 Basic Constraints: 
                CA:FALSE
            Netscape Comment: 
                Easy-RSA Generated Certificate
            X509v3 Subject Key Identifier: 
                4D:A2:81:5D:1C:48:52:F6:AA:84:62:C7:65:F8:E0:9A:B0:E0:D7:3D
            X509v3 Authority Key Identifier: 
                keyid:EF:38:8D:14:50:58:A7:5B:4D:9C:17:72:FC:DF:B9:AC:A7:51:B0:10
                DirName:/C=US/ST=CA/L=SanFrancisco/O=Pixglo, Inc./OU=VPN-CIE/CN=tunnel.pixglo.com/name=Bala Chandrasekaran/emailAddress=bala@pixglo.com
                serial:A6:DB:C6:83:80:E6:A0:79

            X509v3 Extended Key Usage: 
                TLS Web Client Authentication
            X509v3 Key Usage: 
                Digital Signature
    Signature Algorithm: sha1WithRSAEncryption
         ad:2d:4f:a1:ce:2a:ff:e8:6c:3b:51:a0:47:25:d4:52:fd:05:
         e3:35:93:f0:1c:37:98:d9:fc:06:48:c6:de:8e:48:1d:2b:cc:
         e2:34:04:e2:f8:ef:a6:ee:46:56:cc:54:b5:34:41:16:04:d4:
         c0:7c:da:3d:b3:5c:45:81:5f:05:90:c6:c6:37:16:a7:3e:14:
         75:56:9d:fe:27:8e:4f:12:98:71:38:06:1b:5a:23:5a:eb:40:
         d7:3d:f3:d0:23:0e:df:7d:7e:ed:e1:d6:68:ad:84:cf:2f:78:
         40:fe:13:f1:f0:b8:47:15:c9:6f:78:2b:3d:44:f7:7b:12:77:
         3a:08:36:5a:26:ab:9a:49:38:f4:0a:8c:20:f6:d0:b0:1c:bd:
         4c:58:e9:f3:07:ca:07:43:49:5d:de:83:b1:d5:2c:a7:ba:c5:
         8c:b9:f2:dc:44:4c:38:74:40:a1:54:c5:05:3a:e3:cd:57:b3:
         c2:c8:46:df:a5:fd:b0:78:d8:84:f2:57:f9:3c:07:89:71:da:
         bc:52:cc:51:a2:b8:d5:e4:29:57:0c:b8:f5:c7:a8:92:39:fc:
         e0:3a:43:f2:b7:b9:46:f9:88:21:68:d2:11:5d:09:df:9e:4f:
         e5:24:cb:a9:78:0b:df:e7:c7:ea:db:cf:d9:34:8f:bb:1b:e0:
         51:dc:a3:2a:65:9c:6d:82:d6:e0:5b:2c:cc:90:53:a5:cf:74:
         e5:a3:c5:37:ea:8a:ee:24:7b:73:ce:81:e5:41:db:a8:9f:60:
         b0:7f:45:69:d8:8e:af:62:b1:72:3b:18:27:19:a2:8e:38:8e:
         90:5c:76:a7:2d:da:14:33:ec:ca:3c:6e:a2:1f:b3:b5:7d:25:
         1e:86:5b:6f:99:15:53:fd:8a:1b:83:f6:15:df:9b:5a:99:43:
         dd:79:ca:bc:d0:ad:b6:9b:3c:34:99:28:6a:78:44:5b:25:db:
         da:30:67:9d:8c:a5:03:ca:69:01:81:d9:be:05:53:ad:10:b7:
         43:c0:d0:4b:c2:f0:bd:53:04:f8:67:c7:72:23:31:8a:f2:1d:
         27:aa:7e:fd:45:d4:b3:5c:3c:13:b9:b6:fc:17:4a:84:e7:8e:
         35:a5:a1:51:8f:50:88:3d:e3:ec:a6:32:6d:89:d4:ff:eb:4b:
         9e:62:4d:47:2c:de:91:e6:ef:89:e5:b1:ca:11:40:f8:58:bf:
         3a:aa:f2:4b:90:83:b2:ff:2f:7d:88:06:c0:4f:83:d3:36:8c:
         63:d2:4f:13:25:6a:ba:41:f1:d6:af:11:33:76:f1:89:7f:f9:
         3c:f9:4b:be:ff:4b:2b:6e:2f:bc:1d:03:83:6c:a3:89:ba:14:
         98:45:b8:7d:dc:b0:25:e9
-----BEGIN CERTIFICATE-----
MIIHSDCCBTCgAwIBAgICAmAwDQYJKoZIhvcNAQEFBQAwgbQxCzAJBgNVBAYTAlVT
MQswCQYDVQQIEwJDQTEVMBMGA1UEBxMMU2FuRnJhbmNpc2NvMRUwEwYDVQQKEwxQ
aXhnbG8sIEluYy4xEDAOBgNVBAsTB1ZQTi1DSUUxGjAYBgNVBAMTEXR1bm5lbC5w
aXhnbG8uY29tMRwwGgYDVQQpExNCYWxhIENoYW5kcmFzZWthcmFuMR4wHAYJKoZI
hvcNAQkBFg9iYWxhQHBpeGdsby5jb20wHhcNMTgwMjE0MDYzODE2WhcNMjgwMjEy
MDYzODE2WjCBqTELMAkGA1UEBhMCVVMxCzAJBgNVBAgTAkNBMRUwEwYDVQQHEwxT
YW5GcmFuY2lzY28xFTATBgNVBAoTDFBpeGdsbywgSW5jLjEQMA4GA1UECxMHVlBO
LUNJRTEPMA0GA1UEAxMGY2llNjA3MRwwGgYDVQQpExNCYWxhIENoYW5kcmFzZWth
cmFuMR4wHAYJKoZIhvcNAQkBFg9iYWxhQHBpeGdsby5jb20wggIiMA0GCSqGSIb3
DQEBAQUAA4ICDwAwggIKAoICAQCmMMLVAgWJx5GXVNZwxykVVLCjHSTYeH0bSp/q
Zu0w3nT4mOHJqdIBBuNkuwuZeNBFSlyN9fDI3OlxDB2nVKbrjifPzH0Bb4zH7pp+
Buzh/xlKD4SE/fFlla8qtHUbn/P9WrmWkuP8kAYLTlCaa2AiRVvlJy5lt8Wtw2Fz
tPTR3V15qTudlbLs7RloYxD7Bhe6VaPMf2aNWB2W53AjofGqbPJaeV2qk7O3odFh
0ginch1GXcCRA3VpfyjP2fS8r/T0sdIa55bapEyzL7o2LIkOnZlmR1hFN2uLffHl
SCN1DNo4ZXXwJgTkNwLsu7ZujqyDFtYx2abXgtNyq0xjPebtOGk3XzJgNgXcSL4p
IMXVuVNunyp+jXguRXkC1h0tgRpAjuM9H8060C5cXoOvb2eigXNbqkWwHjYbeq/8
Z8LSGyJBAavnsRD3yd+xxl3mIgPQgIej4liKK9R+OPCxDjtvemN5C+Kdb4ocgBj1
ap3Bar44PPCG71DykXqPXOICSAG53J7glNARBsfaqhlY+2EuaTiOlBX03ZsAvaTO
Ff8vJbJl0xOWyKQx40Hal7ifIeck/NPZlMGmdmQN1+WEfBfShk07RHGMotCWnP2P
x8WYLpuiSpf3MNXVdlIO4QxOq0HciYaq4fHMdNAfUVEPSUVqU6jLi0GVm0/Df6GY
m57ANQIDAQABo4IBazCCAWcwCQYDVR0TBAIwADAtBglghkgBhvhCAQ0EIBYeRWFz
eS1SU0EgR2VuZXJhdGVkIENlcnRpZmljYXRlMB0GA1UdDgQWBBRNooFdHEhS9qqE
Ysdl+OCasODXPTCB6QYDVR0jBIHhMIHegBTvOI0UUFinW02cF3L837msp1GwEKGB
uqSBtzCBtDELMAkGA1UEBhMCVVMxCzAJBgNVBAgTAkNBMRUwEwYDVQQHEwxTYW5G
cmFuY2lzY28xFTATBgNVBAoTDFBpeGdsbywgSW5jLjEQMA4GA1UECxMHVlBOLUNJ
RTEaMBgGA1UEAxMRdHVubmVsLnBpeGdsby5jb20xHDAaBgNVBCkTE0JhbGEgQ2hh
bmRyYXNla2FyYW4xHjAcBgkqhkiG9w0BCQEWD2JhbGFAcGl4Z2xvLmNvbYIJAKbb
xoOA5qB5MBMGA1UdJQQMMAoGCCsGAQUFBwMCMAsGA1UdDwQEAwIHgDANBgkqhkiG
9w0BAQUFAAOCAgEArS1Poc4q/+hsO1GgRyXUUv0F4zWT8Bw3mNn8BkjG3o5IHSvM
4jQE4vjvpu5GVsxUtTRBFgTUwHzaPbNcRYFfBZDGxjcWpz4UdVad/ieOTxKYcTgG
G1ojWutA1z3z0CMO331+7eHWaK2Ezy94QP4T8fC4RxXJb3grPUT3exJ3Ogg2Wiar
mkk49AqMIPbQsBy9TFjp8wfKB0NJXd6DsdUsp7rFjLny3ERMOHRAoVTFBTrjzVez
wshG36X9sHjYhPJX+TwHiXHavFLMUaK41eQpVwy49ceokjn84DpD8re5RvmIIWjS
EV0J355P5STLqXgL3+fH6tvP2TSPuxvgUdyjKmWcbYLW4FsszJBTpc905aPFN+qK
7iR7c86B5UHbqJ9gsH9FadiOr2KxcjsYJxmijjiOkFx2py3aFDPsyjxuoh+ztX0l
HoZbb5kVU/2KG4P2Fd+bWplD3XnKvNCttps8NJkoanhEWyXb2jBnnYylA8ppAYHZ
vgVTrRC3Q8DQS8LwvVME+GfHciMxivIdJ6p+/UXUs1w8E7m2/BdKhOeONaWhUY9Q
iD3j7KYybYnU/+tLnmJNRyzekebvieWxyhFA+Fi/OqryS5CDsv8vfYgGwE+D0zaM
Y9JPEyVqukHx1q8RM3bxiX/5PPlLvv9LK24vvB0Dg2yjiboUmEW4fdywJek=
-----END CERTIFICATE-----
