Certificate:
    Data:
        Version: 3 (0x2)
        Serial Number: 66 (0x42)
    Signature Algorithm: sha1WithRSAEncryption
        Issuer: C=US, ST=CA, L=SanFrancisco, O=Pixglo, Inc., OU=VPN-CIE, CN=tunnel.pixglo.com/name=Bala Chandrasekaran/emailAddress=bala@pixglo.com
        Validity
            Not Before: Feb 14 06:25:05 2018 GMT
            Not After : Feb 12 06:25:05 2028 GMT
        Subject: C=US, ST=CA, L=SanFrancisco, O=Pixglo, Inc., OU=VPN-CIE, CN=cie65/name=Bala Chandrasekaran/emailAddress=bala@pixglo.com
        Subject Public Key Info:
            Public Key Algorithm: rsaEncryption
                Public-Key: (4096 bit)
                Modulus:
                    00:aa:a8:4e:93:c2:c3:45:5b:de:d1:02:80:01:56:
                    1c:52:4b:57:e6:ad:52:ba:f6:b6:87:5b:05:2e:0f:
                    79:f0:c8:48:76:10:5a:9a:55:11:77:f8:4a:9a:d3:
                    2c:0c:8a:9e:de:aa:16:f3:8e:55:3b:20:25:57:cc:
                    a6:8c:f0:18:09:c8:0a:31:94:7d:66:f9:5d:1c:ad:
                    64:57:7a:1f:b4:70:6d:f6:15:49:f4:ef:db:d2:0c:
                    69:36:65:1e:20:c7:63:c4:1e:98:4b:cb:5f:1d:a6:
                    9f:04:2b:62:60:57:f7:df:ec:74:da:c3:aa:01:f5:
                    f4:b5:f6:9b:9d:a0:f5:69:64:40:3e:9f:10:c5:32:
                    7b:c0:ae:95:fd:9f:f5:2d:47:fc:17:5b:73:bb:1a:
                    e0:98:1a:4e:4b:86:46:38:36:cd:ad:75:09:18:0d:
                    9a:59:0b:96:8c:8c:00:68:9b:86:1b:af:b8:fc:db:
                    09:15:b7:26:2f:58:df:65:3e:c8:21:56:01:cf:e8:
                    69:60:90:e4:8f:10:0c:9a:50:74:aa:73:8d:12:82:
                    43:d3:d4:57:71:d2:77:04:28:97:70:06:18:46:48:
                    23:a0:da:55:05:f0:a3:16:69:70:e4:5d:19:21:ca:
                    1c:66:1f:f2:d5:a9:44:46:b4:7c:94:d9:47:05:43:
                    4a:fa:1d:6b:6c:7b:3f:7d:8c:2d:04:ad:1c:47:8f:
                    ae:71:d8:62:33:2e:f0:ec:d3:85:2b:0c:f7:e3:22:
                    71:4d:81:03:e4:58:c4:dd:1d:5e:d9:e5:c3:52:43:
                    e1:0b:ea:b9:d8:63:ba:bf:a1:34:88:d2:ac:9a:c1:
                    7e:4b:92:5a:9b:b4:d3:7f:66:c9:db:cd:3c:62:46:
                    17:bd:a9:f6:fb:89:bf:43:31:1e:31:01:5a:27:43:
                    67:4d:71:8d:5c:0a:6e:25:f5:ea:57:9b:56:c7:a5:
                    af:13:1e:54:47:70:82:87:29:b5:d1:58:d6:07:19:
                    74:66:71:82:7e:43:58:05:20:f8:ab:85:96:7e:10:
                    d8:89:d5:76:fb:f0:3a:d2:b5:a4:80:fe:46:b1:6a:
                    53:83:6b:09:bf:44:eb:40:82:17:ae:ba:04:46:f0:
                    65:64:a5:dc:9f:a8:f6:0d:e2:00:8a:bb:14:a1:da:
                    41:a8:4e:23:f8:9a:42:b3:46:94:51:68:2a:ba:9a:
                    19:fd:43:1c:7f:c5:46:91:c3:63:c4:d7:76:ca:c4:
                    8e:67:1f:91:72:43:ec:13:9f:aa:24:70:ff:19:5c:
                    48:85:20:37:f9:b5:51:ab:77:8f:f1:9c:2d:9d:60:
                    9e:86:1e:46:1b:19:e7:c3:1f:c0:0d:b8:b6:52:12:
                    55:29:1b
                Exponent: 65537 (0x10001)
        X509v3 extensions:
            X509v3 Basic Constraints: 
                CA:FALSE
            Netscape Comment: 
                Easy-RSA Generated Certificate
            X509v3 Subject Key Identifier: 
                DE:7E:63:F3:49:A3:95:F9:BB:91:41:A8:62:8B:3D:A8:2E:75:5E:AA
            X509v3 Authority Key Identifier: 
                keyid:EF:38:8D:14:50:58:A7:5B:4D:9C:17:72:FC:DF:B9:AC:A7:51:B0:10
                DirName:/C=US/ST=CA/L=SanFrancisco/O=Pixglo, Inc./OU=VPN-CIE/CN=tunnel.pixglo.com/name=Bala Chandrasekaran/emailAddress=bala@pixglo.com
                serial:A6:DB:C6:83:80:E6:A0:79

            X509v3 Extended Key Usage: 
                TLS Web Client Authentication
            X509v3 Key Usage: 
                Digital Signature
    Signature Algorithm: sha1WithRSAEncryption
         65:8e:cc:a6:d8:55:1d:ad:62:bb:5b:01:52:20:b0:6c:c6:c0:
         e8:94:5d:7b:6d:fc:a3:44:ee:f0:c6:2b:f8:3d:2a:0f:01:b8:
         b0:75:bc:54:96:19:24:bc:b0:a7:af:1a:e4:c9:2e:62:a1:ae:
         56:ef:98:0d:83:94:c7:32:9e:dd:4c:e6:75:0e:26:01:27:dd:
         d6:8b:31:12:ed:39:09:b7:33:ad:ca:b9:d6:24:6d:6e:d5:85:
         0f:8f:8d:04:27:85:a0:dc:ba:d0:28:20:06:41:ff:6f:da:24:
         04:92:52:7d:00:a4:72:de:20:e5:bc:62:d2:09:0f:3e:6f:c7:
         33:6a:22:0d:33:78:44:c8:61:16:4e:e3:7c:6c:a6:4f:eb:41:
         61:a4:0f:49:89:e6:92:b4:6d:58:1d:d7:ba:2a:a6:2c:bb:09:
         56:f1:89:62:22:d0:be:92:e6:a6:1b:b9:e1:89:38:d7:a4:18:
         d2:ff:71:81:85:e4:47:c6:36:86:b7:0f:99:6d:3b:4a:cb:20:
         50:aa:42:ca:4d:01:ba:9c:f2:43:89:0c:23:17:01:9b:a1:28:
         31:a6:f2:f1:af:10:fa:08:9d:3f:c4:5f:6c:2a:e4:6d:b8:b3:
         a5:47:6d:35:b4:82:78:1b:bf:3b:07:60:cf:01:6b:af:d4:60:
         c0:0c:2f:6c:c2:f5:7f:d7:e6:77:0a:19:57:97:23:5e:55:9b:
         19:64:9b:5e:8f:14:0a:db:c1:72:fe:f1:a0:9b:e3:c2:47:a3:
         c0:f8:ba:24:de:0c:76:89:52:49:9a:68:c4:e8:5e:a5:d0:6f:
         3a:8d:1b:46:62:f2:0e:3d:6d:e5:c7:54:fd:97:8a:84:cf:e7:
         8b:d3:e3:b2:af:cb:40:ff:ab:8e:e2:d1:af:b2:d9:2b:62:45:
         12:c8:7a:00:b3:0a:f0:36:dd:9f:3b:0e:5e:54:91:c4:61:6e:
         a3:a4:a2:c0:6f:48:db:df:f9:8f:24:0f:07:ba:49:59:e2:ac:
         db:a6:a7:7f:04:e5:3b:c8:14:ea:b4:06:bb:d0:1c:ae:52:81:
         c1:e9:95:56:79:1a:3d:19:64:6a:92:e7:94:45:07:0e:59:85:
         9a:2f:55:6c:24:28:a2:84:98:d2:05:24:28:f0:59:94:05:7f:
         18:38:1d:5d:58:7a:cd:c8:e3:52:3e:f7:99:86:3c:ab:1f:1c:
         00:2f:06:d4:56:6c:93:90:9d:ed:79:68:63:1e:f2:62:27:bf:
         bb:32:8e:c2:16:ac:b3:92:76:cd:85:7b:2a:5a:a8:4c:72:4b:
         e9:d5:61:8f:76:09:77:b9:10:99:24:26:57:6c:be:2a:33:b3:
         f0:74:40:f7:33:39:2c:1b
-----BEGIN CERTIFICATE-----
MIIHRjCCBS6gAwIBAgIBQjANBgkqhkiG9w0BAQUFADCBtDELMAkGA1UEBhMCVVMx
CzAJBgNVBAgTAkNBMRUwEwYDVQQHEwxTYW5GcmFuY2lzY28xFTATBgNVBAoTDFBp
eGdsbywgSW5jLjEQMA4GA1UECxMHVlBOLUNJRTEaMBgGA1UEAxMRdHVubmVsLnBp
eGdsby5jb20xHDAaBgNVBCkTE0JhbGEgQ2hhbmRyYXNla2FyYW4xHjAcBgkqhkiG
9w0BCQEWD2JhbGFAcGl4Z2xvLmNvbTAeFw0xODAyMTQwNjI1MDVaFw0yODAyMTIw
NjI1MDVaMIGoMQswCQYDVQQGEwJVUzELMAkGA1UECBMCQ0ExFTATBgNVBAcTDFNh
bkZyYW5jaXNjbzEVMBMGA1UEChMMUGl4Z2xvLCBJbmMuMRAwDgYDVQQLEwdWUE4t
Q0lFMQ4wDAYDVQQDEwVjaWU2NTEcMBoGA1UEKRMTQmFsYSBDaGFuZHJhc2VrYXJh
bjEeMBwGCSqGSIb3DQEJARYPYmFsYUBwaXhnbG8uY29tMIICIjANBgkqhkiG9w0B
AQEFAAOCAg8AMIICCgKCAgEAqqhOk8LDRVve0QKAAVYcUktX5q1Suva2h1sFLg95
8MhIdhBamlURd/hKmtMsDIqe3qoW845VOyAlV8ymjPAYCcgKMZR9ZvldHK1kV3of
tHBt9hVJ9O/b0gxpNmUeIMdjxB6YS8tfHaafBCtiYFf33+x02sOqAfX0tfabnaD1
aWRAPp8QxTJ7wK6V/Z/1LUf8F1tzuxrgmBpOS4ZGODbNrXUJGA2aWQuWjIwAaJuG
G6+4/NsJFbcmL1jfZT7IIVYBz+hpYJDkjxAMmlB0qnONEoJD09RXcdJ3BCiXcAYY
RkgjoNpVBfCjFmlw5F0ZIcocZh/y1alERrR8lNlHBUNK+h1rbHs/fYwtBK0cR4+u
cdhiMy7w7NOFKwz34yJxTYED5FjE3R1e2eXDUkPhC+q52GO6v6E0iNKsmsF+S5Ja
m7TTf2bJ2808YkYXvan2+4m/QzEeMQFaJ0NnTXGNXApuJfXqV5tWx6WvEx5UR3CC
hym10VjWBxl0ZnGCfkNYBSD4q4WWfhDYidV2+/A60rWkgP5GsWpTg2sJv0TrQIIX
rroERvBlZKXcn6j2DeIAirsUodpBqE4j+JpCs0aUUWgqupoZ/UMcf8VGkcNjxNd2
ysSOZx+RckPsE5+qJHD/GVxIhSA3+bVRq3eP8ZwtnWCehh5GGxnnwx/ADbi2UhJV
KRsCAwEAAaOCAWswggFnMAkGA1UdEwQCMAAwLQYJYIZIAYb4QgENBCAWHkVhc3kt
UlNBIEdlbmVyYXRlZCBDZXJ0aWZpY2F0ZTAdBgNVHQ4EFgQU3n5j80mjlfm7kUGo
Yos9qC51XqowgekGA1UdIwSB4TCB3oAU7ziNFFBYp1tNnBdy/N+5rKdRsBChgbqk
gbcwgbQxCzAJBgNVBAYTAlVTMQswCQYDVQQIEwJDQTEVMBMGA1UEBxMMU2FuRnJh
bmNpc2NvMRUwEwYDVQQKEwxQaXhnbG8sIEluYy4xEDAOBgNVBAsTB1ZQTi1DSUUx
GjAYBgNVBAMTEXR1bm5lbC5waXhnbG8uY29tMRwwGgYDVQQpExNCYWxhIENoYW5k
cmFzZWthcmFuMR4wHAYJKoZIhvcNAQkBFg9iYWxhQHBpeGdsby5jb22CCQCm28aD
gOageTATBgNVHSUEDDAKBggrBgEFBQcDAjALBgNVHQ8EBAMCB4AwDQYJKoZIhvcN
AQEFBQADggIBAGWOzKbYVR2tYrtbAVIgsGzGwOiUXXtt/KNE7vDGK/g9Kg8BuLB1
vFSWGSS8sKevGuTJLmKhrlbvmA2DlMcynt1M5nUOJgEn3daLMRLtOQm3M63KudYk
bW7VhQ+PjQQnhaDcutAoIAZB/2/aJASSUn0ApHLeIOW8YtIJDz5vxzNqIg0zeETI
YRZO43xspk/rQWGkD0mJ5pK0bVgd17oqpiy7CVbxiWIi0L6S5qYbueGJONekGNL/
cYGF5EfGNoa3D5ltO0rLIFCqQspNAbqc8kOJDCMXAZuhKDGm8vGvEPoInT/EX2wq
5G24s6VHbTW0gngbvzsHYM8Ba6/UYMAML2zC9X/X5ncKGVeXI15Vmxlkm16PFArb
wXL+8aCb48JHo8D4uiTeDHaJUkmaaMToXqXQbzqNG0Zi8g49beXHVP2XioTP54vT
47Kvy0D/q47i0a+y2StiRRLIegCzCvA23Z87Dl5UkcRhbqOkosBvSNvf+Y8kDwe6
SVnirNump38E5TvIFOq0BrvQHK5SgcHplVZ5Gj0ZZGqS55RFBw5ZhZovVWwkKKKE
mNIFJCjwWZQFfxg4HV1Yes3I41I+95mGPKsfHAAvBtRWbJOQne15aGMe8mInv7sy
jsIWrLOSds2FeypaqExyS+nVYY92CXe5EJkkJldsviozs/B0QPczOSwb
-----END CERTIFICATE-----
