Certificate:
    Data:
        Version: 3 (0x2)
        Serial Number: 610 (0x262)
    Signature Algorithm: sha1WithRSAEncryption
        Issuer: C=US, ST=CA, L=SanFrancisco, O=Pixglo, Inc., OU=VPN-CIE, CN=tunnel.pixglo.com/name=Bala Chandrasekaran/emailAddress=bala@pixglo.com
        Validity
            Not Before: Feb 14 06:38:20 2018 GMT
            Not After : Feb 12 06:38:20 2028 GMT
        Subject: C=US, ST=CA, L=SanFrancisco, O=Pixglo, Inc., OU=VPN-CIE, CN=cie609/name=Bala Chandrasekaran/emailAddress=bala@pixglo.com
        Subject Public Key Info:
            Public Key Algorithm: rsaEncryption
                Public-Key: (4096 bit)
                Modulus:
                    00:e0:83:c3:6b:76:d9:20:47:5c:11:ff:50:eb:3c:
                    40:69:fd:4c:50:b0:cb:07:34:aa:11:e8:15:31:b1:
                    ae:c0:eb:09:da:d0:9f:e0:c4:bc:e5:d2:3f:0e:fb:
                    b1:36:9d:fd:61:37:cc:28:f0:25:88:81:75:8f:2a:
                    b4:8d:aa:9e:12:a3:28:57:9d:64:e6:cf:f9:23:25:
                    f8:e1:2a:bc:bd:32:3a:35:d0:b8:ca:19:d8:93:80:
                    97:b7:4e:0e:95:f4:63:08:1a:cb:70:d1:34:fb:2c:
                    b5:d7:64:03:59:92:31:9a:09:35:ad:78:20:97:7e:
                    d2:7a:5f:00:4c:98:66:85:a7:4d:4f:f0:a2:f6:2e:
                    31:4d:63:f2:73:2d:7a:2f:9b:64:c1:b7:86:49:ec:
                    e5:19:ac:ba:b6:77:d2:70:a2:3f:5b:f8:ad:0e:94:
                    81:70:13:dc:0e:a3:55:93:9d:66:a4:d3:2b:f6:31:
                    a0:3a:ef:2c:79:30:a8:1c:9a:fc:1d:37:5d:92:36:
                    26:87:1b:3d:12:0b:06:39:fe:f5:7b:02:a7:2c:2a:
                    57:52:07:c7:ec:d2:2c:37:8f:12:d0:20:37:99:c7:
                    f1:93:10:2e:80:9b:63:08:ea:59:41:79:16:17:d0:
                    46:47:65:26:c3:80:3a:6c:ea:27:5e:49:29:98:d8:
                    05:9b:3e:66:41:66:b1:30:e8:db:5d:20:92:be:10:
                    16:e3:50:d6:38:19:a8:74:04:26:41:5b:a3:18:89:
                    29:ea:d4:e5:e5:a6:20:6d:52:2f:99:29:54:50:da:
                    6d:3d:22:af:0a:87:83:b0:fa:f2:c5:f5:fd:f2:9c:
                    16:06:c0:bf:42:06:9d:c0:4a:9c:67:3c:bf:45:a4:
                    ae:51:a7:81:c7:50:af:b8:fe:dc:bb:a0:ba:04:9a:
                    af:04:b9:92:b6:b2:2e:d6:b7:a6:07:83:84:8b:12:
                    db:2d:b4:3b:41:9c:de:a1:78:0b:00:1a:5a:e2:ac:
                    fa:3b:3e:09:bb:1a:2e:7f:cc:6b:b8:9e:bb:fb:07:
                    69:80:2a:f5:c6:41:a3:58:fb:f8:c6:3c:6f:0a:6c:
                    4a:e4:f8:75:e3:59:9c:19:30:c3:e2:22:ea:13:9d:
                    64:55:0e:b8:e6:b7:21:fe:da:22:f1:e9:12:c6:f7:
                    47:e3:30:3f:b8:a0:94:3f:7a:70:5c:97:47:e0:d4:
                    65:c7:1c:5a:e9:a4:87:d6:1a:0a:bd:cd:c8:42:62:
                    50:c5:dc:6b:d8:8b:f1:26:79:61:93:73:7c:af:05:
                    ee:75:bd:bc:d1:f5:f2:8a:8b:67:be:58:59:6c:61:
                    3b:a3:ed:a7:4e:f4:46:94:a6:17:99:5d:09:ca:9c:
                    a9:62:41
                Exponent: 65537 (0x10001)
        X509v3 extensions:
            X509v3 Basic Constraints: 
                CA:FALSE
            Netscape Comment: 
                Easy-RSA Generated Certificate
            X509v3 Subject Key Identifier: 
                E5:C2:C9:CB:D9:0D:2A:91:9E:2C:C8:4D:CC:B2:AD:70:C2:A6:25:41
            X509v3 Authority Key Identifier: 
                keyid:EF:38:8D:14:50:58:A7:5B:4D:9C:17:72:FC:DF:B9:AC:A7:51:B0:10
                DirName:/C=US/ST=CA/L=SanFrancisco/O=Pixglo, Inc./OU=VPN-CIE/CN=tunnel.pixglo.com/name=Bala Chandrasekaran/emailAddress=bala@pixglo.com
                serial:A6:DB:C6:83:80:E6:A0:79

            X509v3 Extended Key Usage: 
                TLS Web Client Authentication
            X509v3 Key Usage: 
                Digital Signature
    Signature Algorithm: sha1WithRSAEncryption
         6a:07:8d:81:86:2f:dd:04:e0:c4:81:15:34:b5:f8:41:c7:fb:
         67:47:c6:08:42:a6:65:8b:1d:5d:86:0d:9d:6b:0b:b1:3f:2e:
         52:87:ce:f9:6f:2b:d4:f2:9c:e8:3b:9c:6f:81:c1:5a:4d:7d:
         cb:6d:10:82:4d:12:53:33:c2:9e:fc:47:ba:e8:e5:47:64:22:
         35:b4:27:dd:57:68:5b:cc:b8:ca:93:1c:3b:cb:26:25:76:41:
         91:53:7c:ef:b5:6c:db:f3:7c:65:d3:3e:d1:c1:5a:33:e7:25:
         39:a8:4a:a6:f6:ec:5a:28:9a:6f:e9:bc:23:a5:f0:a3:ca:11:
         0f:c3:40:6d:7a:08:94:f9:48:52:05:db:68:fa:a2:a9:11:76:
         e8:06:a9:0d:56:48:16:b0:a0:c3:19:f7:8a:cc:36:c1:a9:c8:
         33:eb:1c:c2:5c:09:e6:de:41:f0:62:62:15:d1:fc:92:77:7b:
         ca:ca:62:28:85:0b:73:dc:e4:a5:95:a5:a4:35:95:66:22:0f:
         79:6a:bd:0e:49:ee:a3:ff:55:7d:1e:6c:24:ee:42:cc:f0:e3:
         dd:a7:87:56:8f:69:fa:da:a5:92:74:87:a8:53:5d:6e:12:cb:
         96:0d:9c:d7:82:a5:6d:a1:c4:a8:2e:9b:75:0e:b1:c7:1e:26:
         2f:78:f7:5e:16:08:a7:11:f3:54:ce:14:11:4f:06:e1:6f:ac:
         8c:94:e5:aa:9b:5d:06:d0:38:0d:7a:5d:c8:ab:08:27:e3:6b:
         04:99:3e:c2:fd:76:d2:97:a7:eb:02:07:51:c8:4e:2a:9f:ad:
         56:15:d6:66:bb:26:7a:58:83:13:5f:37:9b:05:75:93:bc:b4:
         a3:f1:dc:65:20:6b:47:1d:4e:f1:a6:6b:c7:c1:ef:63:7c:8d:
         07:e3:38:f2:68:08:65:03:75:38:ab:d1:e6:68:03:36:db:39:
         ec:aa:d1:d7:03:a1:8b:54:97:52:fd:fc:cc:34:7a:1d:49:19:
         34:b3:2f:95:bf:d7:56:77:de:0e:80:c6:79:9f:e6:74:34:da:
         94:64:62:27:85:8a:f9:5f:10:4e:70:4e:36:ff:87:b6:6b:89:
         63:fd:ee:ac:fb:c0:6c:ee:89:46:7b:36:ba:c3:d6:cc:e4:04:
         b2:3e:48:09:56:5e:b8:3f:0f:76:a9:ba:83:29:c3:c6:d5:e8:
         d8:f9:e3:8a:d3:b8:a8:1c:85:48:3f:8b:1c:0a:be:14:fb:30:
         e9:19:f9:d4:8c:f8:84:3c:0a:61:e1:58:ef:13:30:75:d9:67:
         13:ac:f7:74:17:e1:01:a1:83:1b:7b:da:71:55:32:df:f7:48:
         d5:8a:95:f7:af:6c:98:83
-----BEGIN CERTIFICATE-----
MIIHSDCCBTCgAwIBAgICAmIwDQYJKoZIhvcNAQEFBQAwgbQxCzAJBgNVBAYTAlVT
MQswCQYDVQQIEwJDQTEVMBMGA1UEBxMMU2FuRnJhbmNpc2NvMRUwEwYDVQQKEwxQ
aXhnbG8sIEluYy4xEDAOBgNVBAsTB1ZQTi1DSUUxGjAYBgNVBAMTEXR1bm5lbC5w
aXhnbG8uY29tMRwwGgYDVQQpExNCYWxhIENoYW5kcmFzZWthcmFuMR4wHAYJKoZI
hvcNAQkBFg9iYWxhQHBpeGdsby5jb20wHhcNMTgwMjE0MDYzODIwWhcNMjgwMjEy
MDYzODIwWjCBqTELMAkGA1UEBhMCVVMxCzAJBgNVBAgTAkNBMRUwEwYDVQQHEwxT
YW5GcmFuY2lzY28xFTATBgNVBAoTDFBpeGdsbywgSW5jLjEQMA4GA1UECxMHVlBO
LUNJRTEPMA0GA1UEAxMGY2llNjA5MRwwGgYDVQQpExNCYWxhIENoYW5kcmFzZWth
cmFuMR4wHAYJKoZIhvcNAQkBFg9iYWxhQHBpeGdsby5jb20wggIiMA0GCSqGSIb3
DQEBAQUAA4ICDwAwggIKAoICAQDgg8NrdtkgR1wR/1DrPEBp/UxQsMsHNKoR6BUx
sa7A6wna0J/gxLzl0j8O+7E2nf1hN8wo8CWIgXWPKrSNqp4SoyhXnWTmz/kjJfjh
Kry9Mjo10LjKGdiTgJe3Tg6V9GMIGstw0TT7LLXXZANZkjGaCTWteCCXftJ6XwBM
mGaFp01P8KL2LjFNY/JzLXovm2TBt4ZJ7OUZrLq2d9Jwoj9b+K0OlIFwE9wOo1WT
nWak0yv2MaA67yx5MKgcmvwdN12SNiaHGz0SCwY5/vV7AqcsKldSB8fs0iw3jxLQ
IDeZx/GTEC6Am2MI6llBeRYX0EZHZSbDgDps6ideSSmY2AWbPmZBZrEw6NtdIJK+
EBbjUNY4Gah0BCZBW6MYiSnq1OXlpiBtUi+ZKVRQ2m09Iq8Kh4Ow+vLF9f3ynBYG
wL9CBp3ASpxnPL9FpK5Rp4HHUK+4/ty7oLoEmq8EuZK2si7Wt6YHg4SLEtsttDtB
nN6heAsAGlrirPo7Pgm7Gi5/zGu4nrv7B2mAKvXGQaNY+/jGPG8KbErk+HXjWZwZ
MMPiIuoTnWRVDrjmtyH+2iLx6RLG90fjMD+4oJQ/enBcl0fg1GXHHFrppIfWGgq9
zchCYlDF3GvYi/EmeWGTc3yvBe51vbzR9fKKi2e+WFlsYTuj7adO9EaUpheZXQnK
nKliQQIDAQABo4IBazCCAWcwCQYDVR0TBAIwADAtBglghkgBhvhCAQ0EIBYeRWFz
eS1SU0EgR2VuZXJhdGVkIENlcnRpZmljYXRlMB0GA1UdDgQWBBTlwsnL2Q0qkZ4s
yE3Msq1wwqYlQTCB6QYDVR0jBIHhMIHegBTvOI0UUFinW02cF3L837msp1GwEKGB
uqSBtzCBtDELMAkGA1UEBhMCVVMxCzAJBgNVBAgTAkNBMRUwEwYDVQQHEwxTYW5G
cmFuY2lzY28xFTATBgNVBAoTDFBpeGdsbywgSW5jLjEQMA4GA1UECxMHVlBOLUNJ
RTEaMBgGA1UEAxMRdHVubmVsLnBpeGdsby5jb20xHDAaBgNVBCkTE0JhbGEgQ2hh
bmRyYXNla2FyYW4xHjAcBgkqhkiG9w0BCQEWD2JhbGFAcGl4Z2xvLmNvbYIJAKbb
xoOA5qB5MBMGA1UdJQQMMAoGCCsGAQUFBwMCMAsGA1UdDwQEAwIHgDANBgkqhkiG
9w0BAQUFAAOCAgEAageNgYYv3QTgxIEVNLX4Qcf7Z0fGCEKmZYsdXYYNnWsLsT8u
UofO+W8r1PKc6Ducb4HBWk19y20Qgk0SUzPCnvxHuujlR2QiNbQn3VdoW8y4ypMc
O8smJXZBkVN877Vs2/N8ZdM+0cFaM+clOahKpvbsWiiab+m8I6Xwo8oRD8NAbXoI
lPlIUgXbaPqiqRF26AapDVZIFrCgwxn3isw2wanIM+scwlwJ5t5B8GJiFdH8knd7
yspiKIULc9zkpZWlpDWVZiIPeWq9Dknuo/9VfR5sJO5CzPDj3aeHVo9p+tqlknSH
qFNdbhLLlg2c14KlbaHEqC6bdQ6xxx4mL3j3XhYIpxHzVM4UEU8G4W+sjJTlqptd
BtA4DXpdyKsIJ+NrBJk+wv120pen6wIHUchOKp+tVhXWZrsmeliDE183mwV1k7y0
o/HcZSBrRx1O8aZrx8HvY3yNB+M48mgIZQN1OKvR5mgDNts57KrR1wOhi1SXUv38
zDR6HUkZNLMvlb/XVnfeDoDGeZ/mdDTalGRiJ4WK+V8QTnBONv+HtmuJY/3urPvA
bO6JRns2usPWzOQEsj5ICVZeuD8Pdqm6gynDxtXo2PnjitO4qByFSD+LHAq+FPsw
6Rn51Iz4hDwKYeFY7xMwddlnE6z3dBfhAaGDG3vacVUy3/dI1YqV969smIM=
-----END CERTIFICATE-----
