Certificate:
    Data:
        Version: 3 (0x2)
        Serial Number: 611 (0x263)
    Signature Algorithm: sha1WithRSAEncryption
        Issuer: C=US, ST=CA, L=SanFrancisco, O=Pixglo, Inc., OU=VPN-CIE, CN=tunnel.pixglo.com/name=Bala Chandrasekaran/emailAddress=bala@pixglo.com
        Validity
            Not Before: Feb 14 06:38:22 2018 GMT
            Not After : Feb 12 06:38:22 2028 GMT
        Subject: C=US, ST=CA, L=SanFrancisco, O=Pixglo, Inc., OU=VPN-CIE, CN=cie610/name=Bala Chandrasekaran/emailAddress=bala@pixglo.com
        Subject Public Key Info:
            Public Key Algorithm: rsaEncryption
                Public-Key: (4096 bit)
                Modulus:
                    00:d7:28:e1:35:3b:5a:af:42:5c:fa:cb:2d:f5:34:
                    eb:90:11:4f:55:bd:65:93:2c:b3:64:17:48:c3:b5:
                    b0:84:e1:53:99:d1:a0:13:6a:f8:dd:f6:f8:12:fd:
                    a4:91:d5:5c:3f:01:50:61:52:92:84:d2:3f:40:71:
                    05:ed:a3:d6:df:4b:17:cc:1d:ff:1d:23:a6:80:33:
                    33:ab:5f:35:8c:da:4c:60:22:fb:a8:eb:71:5e:85:
                    ff:2c:12:01:91:b2:86:67:18:76:85:08:1a:57:33:
                    40:2e:60:2a:9e:0c:8b:d9:fb:72:44:20:91:ad:4e:
                    58:ee:66:e3:88:0c:33:16:ac:3e:c6:a7:8e:63:9b:
                    6e:2c:5e:3c:f6:34:da:42:e7:c8:45:53:05:48:4f:
                    3e:a8:2a:c4:1a:f0:a5:43:ed:9b:85:43:8e:c3:c2:
                    cf:f4:3e:63:08:b2:a5:47:cd:86:da:de:30:a5:a4:
                    ba:28:3b:37:4d:06:e2:52:6a:49:f0:ff:8d:01:52:
                    6a:01:a7:02:67:1a:81:9f:95:4c:10:47:c1:34:20:
                    a3:f9:97:da:63:c8:0e:47:2c:ca:bf:81:1b:15:80:
                    41:b4:31:6a:9f:60:24:a4:62:e8:96:b9:53:61:f9:
                    f6:92:42:48:b1:89:08:51:d3:23:5e:cc:f3:47:ef:
                    77:7a:b0:7e:c7:1f:af:4e:95:a9:ff:b5:56:4b:e2:
                    a7:87:85:05:5e:00:5b:ef:bb:e6:76:6b:5a:d5:78:
                    bd:8c:a2:28:5a:02:b3:6b:f2:ea:b2:c2:6e:7a:7b:
                    38:9a:b6:b1:65:54:f7:7e:f6:ce:1c:82:b5:ec:07:
                    55:86:53:e2:a7:2c:5c:2e:63:51:c5:7c:5d:be:70:
                    5e:47:9a:e2:19:92:93:76:e9:44:b9:6b:c3:ab:74:
                    ea:5d:49:9b:8b:d3:9e:c7:83:ac:71:6d:71:7a:5d:
                    51:76:dc:c5:a0:1f:14:2f:39:5c:89:ab:a7:e2:97:
                    0f:28:52:1a:91:38:fe:0c:d0:6f:db:c8:41:23:95:
                    d1:50:2f:54:86:ec:3d:e8:c1:c2:41:0c:56:b4:8e:
                    85:d0:0d:48:77:3f:25:91:64:e1:8a:0c:cd:48:3e:
                    80:4f:f7:e9:8a:37:6b:09:a6:75:bf:55:72:e6:93:
                    f8:20:83:3b:0b:e4:01:02:31:c0:c6:a2:ff:63:8d:
                    af:25:b8:82:2a:76:7a:87:d7:7e:14:2a:d4:a7:fa:
                    12:eb:9d:ae:52:42:f0:52:5c:41:72:02:87:c7:e7:
                    36:15:5a:5c:87:fe:69:3c:4a:ea:b5:08:7d:e9:54:
                    2e:93:96:be:12:8c:e7:4f:0c:69:ad:15:2f:b4:85:
                    b7:8a:87
                Exponent: 65537 (0x10001)
        X509v3 extensions:
            X509v3 Basic Constraints: 
                CA:FALSE
            Netscape Comment: 
                Easy-RSA Generated Certificate
            X509v3 Subject Key Identifier: 
                CC:96:3F:D0:72:33:4C:F3:F9:04:C1:C4:EE:49:99:12:F6:21:6D:37
            X509v3 Authority Key Identifier: 
                keyid:EF:38:8D:14:50:58:A7:5B:4D:9C:17:72:FC:DF:B9:AC:A7:51:B0:10
                DirName:/C=US/ST=CA/L=SanFrancisco/O=Pixglo, Inc./OU=VPN-CIE/CN=tunnel.pixglo.com/name=Bala Chandrasekaran/emailAddress=bala@pixglo.com
                serial:A6:DB:C6:83:80:E6:A0:79

            X509v3 Extended Key Usage: 
                TLS Web Client Authentication
            X509v3 Key Usage: 
                Digital Signature
    Signature Algorithm: sha1WithRSAEncryption
         36:42:1c:1e:2d:99:4f:e8:ad:37:dc:c7:78:6a:7d:56:85:e6:
         52:07:b5:a1:68:2e:45:29:5b:d6:33:07:0b:18:a4:d4:7e:9f:
         7a:c9:da:14:26:b1:74:90:73:d2:07:68:b9:38:c3:d9:18:38:
         31:04:c8:4d:56:17:59:8f:c7:be:a7:1f:fa:11:c2:f0:d3:d1:
         58:72:26:a2:32:3f:51:4e:39:ba:e6:1f:3c:62:1a:bc:cb:50:
         fc:4b:22:7c:7e:75:c9:58:f9:bf:3d:13:c7:8c:72:96:03:3d:
         98:aa:c3:8f:d1:02:8f:7e:7f:0f:a2:18:e9:1d:81:8a:07:cd:
         92:87:19:0c:9a:27:d7:92:fb:9e:63:58:27:55:1a:11:4e:fa:
         82:17:31:6b:c2:cb:28:bd:05:b3:79:55:76:66:08:ce:b5:c8:
         45:db:e6:1b:cd:bf:96:89:aa:a7:0b:8d:f7:12:ae:0e:4b:33:
         de:58:b3:99:8a:7d:09:36:e9:b8:73:79:9c:e4:dd:af:73:79:
         2f:68:ae:43:c1:58:1d:fc:bb:b4:0b:92:48:07:0f:94:8a:fe:
         93:8b:78:63:ec:bf:4d:07:14:a2:1a:67:54:12:55:aa:32:9d:
         c7:64:0e:29:2c:bb:8a:d9:b7:fd:ce:7b:dd:3a:bf:c1:6f:ec:
         76:03:38:fe:23:3e:95:ac:f6:c5:dc:d9:68:24:c3:43:a9:66:
         e6:b6:d5:b3:b0:08:b8:10:7c:d5:45:c1:3e:1b:ca:f3:26:cf:
         98:63:ef:87:8e:39:ec:b1:df:7e:2c:52:ce:fb:1f:a1:cf:2b:
         e4:e6:db:60:ac:0b:51:e0:b8:4d:01:20:03:a0:68:90:27:55:
         9f:2a:4b:a6:a7:8b:9c:67:08:41:cc:7b:a8:2c:cd:2c:ea:ee:
         27:56:9b:5a:aa:4b:d3:c2:1a:dc:db:20:a6:55:2f:e5:aa:3d:
         7d:95:7d:7b:6c:ae:92:11:60:0d:a7:8c:dd:7c:c7:42:ea:6d:
         b1:c7:b2:ef:b2:52:49:c1:f8:35:80:97:ad:74:08:f6:30:be:
         3d:c7:d4:9a:ea:99:81:d2:48:49:be:4c:24:e1:e1:a6:ba:1c:
         ab:ed:67:e9:7f:6d:0f:47:d1:c4:64:b6:66:b4:09:7d:bf:8d:
         24:4a:88:4b:f2:ad:e3:08:45:47:0f:92:c6:01:2f:b8:ed:55:
         67:a4:d6:8d:4d:78:e9:6f:ba:83:9e:56:1b:7b:40:f5:fa:2c:
         1a:b0:77:86:48:bf:5d:15:70:f7:44:c5:5c:b9:0b:2f:70:da:
         83:79:21:65:33:f5:bd:26:43:d0:a7:f5:6a:f2:5b:35:51:42:
         11:8b:f2:e0:70:40:15:06
-----BEGIN CERTIFICATE-----
MIIHSDCCBTCgAwIBAgICAmMwDQYJKoZIhvcNAQEFBQAwgbQxCzAJBgNVBAYTAlVT
MQswCQYDVQQIEwJDQTEVMBMGA1UEBxMMU2FuRnJhbmNpc2NvMRUwEwYDVQQKEwxQ
aXhnbG8sIEluYy4xEDAOBgNVBAsTB1ZQTi1DSUUxGjAYBgNVBAMTEXR1bm5lbC5w
aXhnbG8uY29tMRwwGgYDVQQpExNCYWxhIENoYW5kcmFzZWthcmFuMR4wHAYJKoZI
hvcNAQkBFg9iYWxhQHBpeGdsby5jb20wHhcNMTgwMjE0MDYzODIyWhcNMjgwMjEy
MDYzODIyWjCBqTELMAkGA1UEBhMCVVMxCzAJBgNVBAgTAkNBMRUwEwYDVQQHEwxT
YW5GcmFuY2lzY28xFTATBgNVBAoTDFBpeGdsbywgSW5jLjEQMA4GA1UECxMHVlBO
LUNJRTEPMA0GA1UEAxMGY2llNjEwMRwwGgYDVQQpExNCYWxhIENoYW5kcmFzZWth
cmFuMR4wHAYJKoZIhvcNAQkBFg9iYWxhQHBpeGdsby5jb20wggIiMA0GCSqGSIb3
DQEBAQUAA4ICDwAwggIKAoICAQDXKOE1O1qvQlz6yy31NOuQEU9VvWWTLLNkF0jD
tbCE4VOZ0aATavjd9vgS/aSR1Vw/AVBhUpKE0j9AcQXto9bfSxfMHf8dI6aAMzOr
XzWM2kxgIvuo63Fehf8sEgGRsoZnGHaFCBpXM0AuYCqeDIvZ+3JEIJGtTljuZuOI
DDMWrD7Gp45jm24sXjz2NNpC58hFUwVITz6oKsQa8KVD7ZuFQ47Dws/0PmMIsqVH
zYba3jClpLooOzdNBuJSaknw/40BUmoBpwJnGoGflUwQR8E0IKP5l9pjyA5HLMq/
gRsVgEG0MWqfYCSkYuiWuVNh+faSQkixiQhR0yNezPNH73d6sH7HH69Olan/tVZL
4qeHhQVeAFvvu+Z2a1rVeL2MoihaArNr8uqywm56eziatrFlVPd+9s4cgrXsB1WG
U+KnLFwuY1HFfF2+cF5HmuIZkpN26US5a8OrdOpdSZuL057Hg6xxbXF6XVF23MWg
HxQvOVyJq6filw8oUhqROP4M0G/byEEjldFQL1SG7D3owcJBDFa0joXQDUh3PyWR
ZOGKDM1IPoBP9+mKN2sJpnW/VXLmk/gggzsL5AECMcDGov9jja8luIIqdnqH134U
KtSn+hLrna5SQvBSXEFyAofH5zYVWlyH/mk8Suq1CH3pVC6Tlr4SjOdPDGmtFS+0
hbeKhwIDAQABo4IBazCCAWcwCQYDVR0TBAIwADAtBglghkgBhvhCAQ0EIBYeRWFz
eS1SU0EgR2VuZXJhdGVkIENlcnRpZmljYXRlMB0GA1UdDgQWBBTMlj/QcjNM8/kE
wcTuSZkS9iFtNzCB6QYDVR0jBIHhMIHegBTvOI0UUFinW02cF3L837msp1GwEKGB
uqSBtzCBtDELMAkGA1UEBhMCVVMxCzAJBgNVBAgTAkNBMRUwEwYDVQQHEwxTYW5G
cmFuY2lzY28xFTATBgNVBAoTDFBpeGdsbywgSW5jLjEQMA4GA1UECxMHVlBOLUNJ
RTEaMBgGA1UEAxMRdHVubmVsLnBpeGdsby5jb20xHDAaBgNVBCkTE0JhbGEgQ2hh
bmRyYXNla2FyYW4xHjAcBgkqhkiG9w0BCQEWD2JhbGFAcGl4Z2xvLmNvbYIJAKbb
xoOA5qB5MBMGA1UdJQQMMAoGCCsGAQUFBwMCMAsGA1UdDwQEAwIHgDANBgkqhkiG
9w0BAQUFAAOCAgEANkIcHi2ZT+itN9zHeGp9VoXmUge1oWguRSlb1jMHCxik1H6f
esnaFCaxdJBz0gdouTjD2Rg4MQTITVYXWY/Hvqcf+hHC8NPRWHImojI/UU45uuYf
PGIavMtQ/EsifH51yVj5vz0Tx4xylgM9mKrDj9ECj35/D6IY6R2BigfNkocZDJon
15L7nmNYJ1UaEU76ghcxa8LLKL0Fs3lVdmYIzrXIRdvmG82/lomqpwuN9xKuDksz
3lizmYp9CTbpuHN5nOTdr3N5L2iuQ8FYHfy7tAuSSAcPlIr+k4t4Y+y/TQcUohpn
VBJVqjKdx2QOKSy7itm3/c573Tq/wW/sdgM4/iM+laz2xdzZaCTDQ6lm5rbVs7AI
uBB81UXBPhvK8ybPmGPvh4457LHffixSzvsfoc8r5ObbYKwLUeC4TQEgA6BokCdV
nypLpqeLnGcIQcx7qCzNLOruJ1abWqpL08Ia3NsgplUv5ao9fZV9e2yukhFgDaeM
3XzHQuptscey77JSScH4NYCXrXQI9jC+PcfUmuqZgdJISb5MJOHhprocq+1n6X9t
D0fRxGS2ZrQJfb+NJEqIS/Kt4whFRw+SxgEvuO1VZ6TWjU146W+6g55WG3tA9fos
GrB3hki/XRVw90TFXLkLL3Dag3khZTP1vSZD0Kf1avJbNVFCEYvy4HBAFQY=
-----END CERTIFICATE-----
