Certificate:
    Data:
        Version: 3 (0x2)
        Serial Number: 645 (0x285)
    Signature Algorithm: sha1WithRSAEncryption
        Issuer: C=US, ST=CA, L=SanFrancisco, O=Pixglo, Inc., OU=VPN-CIE, CN=tunnel.pixglo.com/name=Bala Chandrasekaran/emailAddress=bala@pixglo.com
        Validity
            Not Before: Feb 14 06:39:15 2018 GMT
            Not After : Feb 12 06:39:15 2028 GMT
        Subject: C=US, ST=CA, L=SanFrancisco, O=Pixglo, Inc., OU=VPN-CIE, CN=cie644/name=Bala Chandrasekaran/emailAddress=bala@pixglo.com
        Subject Public Key Info:
            Public Key Algorithm: rsaEncryption
                Public-Key: (4096 bit)
                Modulus:
                    00:fb:2d:94:ac:eb:5e:ad:70:1d:e4:2b:2b:4d:00:
                    84:0d:a9:26:b8:69:6b:6b:34:00:7d:d7:e6:f1:1e:
                    69:93:d6:23:e9:03:ae:4d:35:7e:1e:46:19:26:23:
                    7a:e9:40:8c:93:0a:b4:d7:b8:1a:06:80:08:de:ca:
                    21:a4:ab:e7:e8:ae:dd:69:84:60:ca:a6:81:75:37:
                    a2:ff:f3:eb:ad:5d:1f:39:a0:43:c3:a6:5a:e0:28:
                    56:d7:db:61:9c:ca:4c:53:2c:56:d2:76:af:3c:1e:
                    31:91:42:ad:1d:93:e6:91:f4:d8:07:5c:02:e0:e4:
                    2a:b9:6b:5b:04:26:29:8c:55:95:15:f4:4f:9b:71:
                    8b:86:04:68:c9:40:1b:f6:0f:db:d0:15:ad:1d:f0:
                    b0:a7:27:28:c9:8e:87:9a:dc:cb:52:af:db:7b:84:
                    1f:de:4d:12:63:4b:66:2f:7d:32:70:b9:0f:be:89:
                    c9:4c:0d:ab:b0:30:b1:ca:40:96:d7:8d:73:62:76:
                    90:f4:36:de:8b:96:4c:05:37:4d:85:cb:83:21:2b:
                    61:cf:4a:6f:71:15:57:bd:87:b2:14:71:51:f8:3b:
                    c6:68:84:0c:af:dc:de:7a:d5:70:9f:2b:6c:c9:da:
                    ab:4d:13:d2:35:77:7f:0c:a0:82:33:f3:98:e1:00:
                    9f:da:06:7c:8d:87:2b:c1:c3:0d:ca:14:67:de:1b:
                    31:cf:67:e4:2a:04:5f:fc:e8:01:3d:42:fd:3b:de:
                    18:ea:05:65:51:5c:2b:88:b6:8c:2a:2e:6c:64:fb:
                    8f:86:e0:2a:c2:07:ee:3b:6a:98:76:18:79:50:0c:
                    b6:e8:d6:cd:a0:a9:39:be:48:31:da:20:a1:3a:da:
                    f9:cc:f6:50:40:67:ae:eb:2d:fd:6b:ab:8d:33:ab:
                    e7:d6:47:a3:cc:65:25:87:ea:58:5b:1c:1e:04:f7:
                    80:63:dc:ad:25:d7:bc:5d:ab:a4:a8:e1:3e:37:b1:
                    4a:7d:4f:cb:a8:64:26:62:7a:09:19:0c:e6:04:5c:
                    0a:92:e3:e9:cb:a0:4f:40:d3:52:d5:17:f1:4e:75:
                    27:41:aa:52:58:94:02:72:47:64:d8:bc:b9:d2:b4:
                    a9:db:86:ac:82:1b:62:81:23:28:f2:6c:11:46:48:
                    a9:c8:5c:d8:94:fb:29:44:64:a8:35:f8:88:96:bc:
                    51:e6:79:bb:ef:de:90:f4:1f:51:48:06:00:fd:d3:
                    ad:4c:19:90:00:c6:6c:4f:f1:e4:3d:2d:6b:fa:b7:
                    eb:3a:d4:28:08:89:2e:64:bd:5d:b8:0c:bf:d2:c3:
                    a6:8d:1b:cb:d9:7b:f6:e1:79:e5:98:b6:24:fc:62:
                    77:78:95
                Exponent: 65537 (0x10001)
        X509v3 extensions:
            X509v3 Basic Constraints: 
                CA:FALSE
            Netscape Comment: 
                Easy-RSA Generated Certificate
            X509v3 Subject Key Identifier: 
                A0:62:7D:89:00:7F:11:52:94:4D:BB:5B:5A:96:69:FB:E2:B3:A7:2B
            X509v3 Authority Key Identifier: 
                keyid:EF:38:8D:14:50:58:A7:5B:4D:9C:17:72:FC:DF:B9:AC:A7:51:B0:10
                DirName:/C=US/ST=CA/L=SanFrancisco/O=Pixglo, Inc./OU=VPN-CIE/CN=tunnel.pixglo.com/name=Bala Chandrasekaran/emailAddress=bala@pixglo.com
                serial:A6:DB:C6:83:80:E6:A0:79

            X509v3 Extended Key Usage: 
                TLS Web Client Authentication
            X509v3 Key Usage: 
                Digital Signature
    Signature Algorithm: sha1WithRSAEncryption
         6e:b0:0b:ba:9f:30:59:e2:d4:ad:c3:3b:29:5d:f4:ca:5c:6f:
         34:42:d4:64:10:8b:25:86:ad:cf:8a:36:24:a2:18:03:be:5a:
         ac:0e:40:cf:b8:30:77:06:43:61:dc:04:09:fc:dd:a8:7e:c1:
         67:33:ba:7c:6b:06:42:bc:a7:9c:e0:58:c4:6e:1f:a4:08:40:
         7c:e6:19:97:44:f5:2b:e0:eb:51:b2:e4:e7:3d:90:f1:b9:3b:
         ab:99:57:6d:9c:67:90:70:3c:49:df:1e:4c:f8:94:de:c6:72:
         4a:47:4f:30:3f:d3:28:31:98:12:20:4e:5d:d9:e0:97:e8:82:
         6e:d3:38:00:08:70:e5:77:0f:16:6c:0e:e5:b4:e0:cf:28:dd:
         22:fc:fb:99:9b:8d:5c:68:94:a1:2b:16:9b:18:fa:81:c2:1b:
         4e:ec:9d:eb:a3:f2:23:a2:de:ba:34:97:4f:66:16:44:a5:c3:
         e8:c0:70:84:48:44:66:d1:eb:42:5a:b3:48:6f:8d:c3:34:13:
         78:4f:08:f3:c1:3b:9f:4c:3a:1c:74:1d:45:48:f6:35:03:59:
         aa:1c:66:82:ae:10:01:20:a5:38:41:e0:3c:5e:ae:4a:11:88:
         71:c0:1e:55:e2:78:3b:6b:50:f9:8c:3a:b2:2f:d0:f5:c4:4e:
         e7:e6:32:65:9b:86:cc:44:38:15:5b:77:2e:88:0d:5a:12:01:
         e7:f9:3d:4f:7f:c3:fe:5a:c1:44:0b:c2:9c:49:f5:9a:c4:29:
         53:6a:09:9b:11:25:91:97:e5:c4:67:b7:8c:82:c0:44:65:63:
         89:86:a1:fe:a1:ef:a8:b4:c6:b4:4d:ce:ad:37:33:1d:f1:20:
         b4:96:2f:88:d1:28:7f:51:75:43:de:74:d3:fd:b4:86:56:f3:
         47:20:12:6d:24:35:c5:7e:f6:86:bc:e3:89:c5:2e:8d:83:30:
         43:a0:e6:c4:39:d9:ce:8a:42:43:b6:b1:c1:ca:df:df:ca:c9:
         d1:6c:f8:ec:dd:7b:c2:eb:8b:2a:15:64:89:f7:3e:3d:50:07:
         58:1c:05:a2:31:57:78:d4:62:c7:d6:08:90:60:74:16:eb:3b:
         63:91:f2:1b:97:7e:37:13:d5:dd:d5:6c:d6:6a:83:38:eb:dd:
         fb:de:17:a6:64:27:34:a0:b8:71:69:17:2c:3e:67:fc:f4:47:
         4b:c0:56:16:26:14:8b:df:89:13:fb:14:f9:95:d1:05:74:33:
         04:f5:3d:dd:41:2f:1d:2e:45:31:8b:5d:90:6d:95:25:d8:03:
         cf:70:1c:4e:00:26:ee:01:f5:db:ed:08:27:9e:d8:6d:63:cc:
         36:df:55:ef:02:53:bd:1f
-----BEGIN CERTIFICATE-----
MIIHSDCCBTCgAwIBAgICAoUwDQYJKoZIhvcNAQEFBQAwgbQxCzAJBgNVBAYTAlVT
MQswCQYDVQQIEwJDQTEVMBMGA1UEBxMMU2FuRnJhbmNpc2NvMRUwEwYDVQQKEwxQ
aXhnbG8sIEluYy4xEDAOBgNVBAsTB1ZQTi1DSUUxGjAYBgNVBAMTEXR1bm5lbC5w
aXhnbG8uY29tMRwwGgYDVQQpExNCYWxhIENoYW5kcmFzZWthcmFuMR4wHAYJKoZI
hvcNAQkBFg9iYWxhQHBpeGdsby5jb20wHhcNMTgwMjE0MDYzOTE1WhcNMjgwMjEy
MDYzOTE1WjCBqTELMAkGA1UEBhMCVVMxCzAJBgNVBAgTAkNBMRUwEwYDVQQHEwxT
YW5GcmFuY2lzY28xFTATBgNVBAoTDFBpeGdsbywgSW5jLjEQMA4GA1UECxMHVlBO
LUNJRTEPMA0GA1UEAxMGY2llNjQ0MRwwGgYDVQQpExNCYWxhIENoYW5kcmFzZWth
cmFuMR4wHAYJKoZIhvcNAQkBFg9iYWxhQHBpeGdsby5jb20wggIiMA0GCSqGSIb3
DQEBAQUAA4ICDwAwggIKAoICAQD7LZSs616tcB3kKytNAIQNqSa4aWtrNAB91+bx
HmmT1iPpA65NNX4eRhkmI3rpQIyTCrTXuBoGgAjeyiGkq+fort1phGDKpoF1N6L/
8+utXR85oEPDplrgKFbX22GcykxTLFbSdq88HjGRQq0dk+aR9NgHXALg5Cq5a1sE
JimMVZUV9E+bcYuGBGjJQBv2D9vQFa0d8LCnJyjJjoea3MtSr9t7hB/eTRJjS2Yv
fTJwuQ++iclMDauwMLHKQJbXjXNidpD0Nt6LlkwFN02Fy4MhK2HPSm9xFVe9h7IU
cVH4O8ZohAyv3N561XCfK2zJ2qtNE9I1d38MoIIz85jhAJ/aBnyNhyvBww3KFGfe
GzHPZ+QqBF/86AE9Qv073hjqBWVRXCuItowqLmxk+4+G4CrCB+47aph2GHlQDLbo
1s2gqTm+SDHaIKE62vnM9lBAZ67rLf1rq40zq+fWR6PMZSWH6lhbHB4E94Bj3K0l
17xdq6So4T43sUp9T8uoZCZiegkZDOYEXAqS4+nLoE9A01LVF/FOdSdBqlJYlAJy
R2TYvLnStKnbhqyCG2KBIyjybBFGSKnIXNiU+ylEZKg1+IiWvFHmebvv3pD0H1FI
BgD9061MGZAAxmxP8eQ9LWv6t+s61CgIiS5kvV24DL/Sw6aNG8vZe/bheeWYtiT8
Ynd4lQIDAQABo4IBazCCAWcwCQYDVR0TBAIwADAtBglghkgBhvhCAQ0EIBYeRWFz
eS1SU0EgR2VuZXJhdGVkIENlcnRpZmljYXRlMB0GA1UdDgQWBBSgYn2JAH8RUpRN
u1talmn74rOnKzCB6QYDVR0jBIHhMIHegBTvOI0UUFinW02cF3L837msp1GwEKGB
uqSBtzCBtDELMAkGA1UEBhMCVVMxCzAJBgNVBAgTAkNBMRUwEwYDVQQHEwxTYW5G
cmFuY2lzY28xFTATBgNVBAoTDFBpeGdsbywgSW5jLjEQMA4GA1UECxMHVlBOLUNJ
RTEaMBgGA1UEAxMRdHVubmVsLnBpeGdsby5jb20xHDAaBgNVBCkTE0JhbGEgQ2hh
bmRyYXNla2FyYW4xHjAcBgkqhkiG9w0BCQEWD2JhbGFAcGl4Z2xvLmNvbYIJAKbb
xoOA5qB5MBMGA1UdJQQMMAoGCCsGAQUFBwMCMAsGA1UdDwQEAwIHgDANBgkqhkiG
9w0BAQUFAAOCAgEAbrALup8wWeLUrcM7KV30ylxvNELUZBCLJYatz4o2JKIYA75a
rA5Az7gwdwZDYdwECfzdqH7BZzO6fGsGQrynnOBYxG4fpAhAfOYZl0T1K+DrUbLk
5z2Q8bk7q5lXbZxnkHA8Sd8eTPiU3sZySkdPMD/TKDGYEiBOXdngl+iCbtM4AAhw
5XcPFmwO5bTgzyjdIvz7mZuNXGiUoSsWmxj6gcIbTuyd66PyI6LeujSXT2YWRKXD
6MBwhEhEZtHrQlqzSG+NwzQTeE8I88E7n0w6HHQdRUj2NQNZqhxmgq4QASClOEHg
PF6uShGIccAeVeJ4O2tQ+Yw6si/Q9cRO5+YyZZuGzEQ4FVt3LogNWhIB5/k9T3/D
/lrBRAvCnEn1msQpU2oJmxElkZflxGe3jILARGVjiYah/qHvqLTGtE3OrTczHfEg
tJYviNEof1F1Q9500/20hlbzRyASbSQ1xX72hrzjicUujYMwQ6DmxDnZzopCQ7ax
wcrf38rJ0Wz47N17wuuLKhVkifc+PVAHWBwFojFXeNRix9YIkGB0Fus7Y5HyG5d+
NxPV3dVs1mqDOOvd+94XpmQnNKC4cWkXLD5n/PRHS8BWFiYUi9+JE/sU+ZXRBXQz
BPU93UEvHS5FMYtdkG2VJdgDz3AcTgAm7gH12+0IJ57YbWPMNt9V7wJTvR8=
-----END CERTIFICATE-----
