Certificate:
    Data:
        Version: 3 (0x2)
        Serial Number: 674 (0x2a2)
    Signature Algorithm: sha1WithRSAEncryption
        Issuer: C=US, ST=CA, L=SanFrancisco, O=Pixglo, Inc., OU=VPN-CIE, CN=tunnel.pixglo.com/name=Bala Chandrasekaran/emailAddress=bala@pixglo.com
        Validity
            Not Before: Feb 14 06:40:01 2018 GMT
            Not After : Feb 12 06:40:01 2028 GMT
        Subject: C=US, ST=CA, L=SanFrancisco, O=Pixglo, Inc., OU=VPN-CIE, CN=cie673/name=Bala Chandrasekaran/emailAddress=bala@pixglo.com
        Subject Public Key Info:
            Public Key Algorithm: rsaEncryption
                Public-Key: (4096 bit)
                Modulus:
                    00:a5:42:7c:bc:eb:e9:01:2d:ac:99:1b:84:27:91:
                    b9:44:63:17:fd:e4:87:8a:a3:0a:87:e1:1c:d6:cd:
                    84:03:0a:7f:19:f1:1d:bd:bb:88:98:e6:f7:b2:6a:
                    59:32:e5:ae:ba:d2:85:70:29:7b:32:79:63:d0:6a:
                    ba:97:1c:df:c4:92:9f:c0:cf:6d:f7:f8:62:d0:c2:
                    05:f6:38:fd:e3:9d:0e:b4:eb:04:a6:a3:7b:ab:b3:
                    f5:8d:e8:39:aa:25:2b:00:ec:ea:27:54:ae:5c:12:
                    2a:d0:e3:62:a0:6e:e4:f1:64:1d:ba:ab:15:73:3c:
                    7d:e2:d5:ca:a9:d3:ce:2e:12:51:ca:79:e0:05:32:
                    85:12:2b:7b:fb:a7:41:89:3d:4c:7a:d8:cd:1a:e3:
                    2d:fe:a9:ec:f6:80:34:43:cb:81:a2:07:c8:1c:c7:
                    20:ee:24:69:a6:fd:d5:f1:8f:97:44:e2:0d:20:36:
                    c4:ac:d4:fb:66:ee:0e:8f:d9:39:53:e6:f5:85:5b:
                    b9:60:6f:36:3e:f2:6c:29:f5:5d:9a:29:f3:c8:14:
                    05:d4:df:d7:1e:8e:1d:79:2a:71:e2:3b:bd:ff:61:
                    26:00:bf:16:3d:e0:8b:f5:7b:c5:4b:66:07:b1:ef:
                    29:f8:3d:9b:84:0e:fa:e0:7a:9a:1a:2a:de:eb:6e:
                    8a:aa:c9:c9:a3:d2:07:69:e8:6a:5d:f9:db:90:43:
                    ba:27:0f:fb:58:eb:7f:8b:16:d2:8b:9b:be:3b:7f:
                    53:5d:cf:e0:7a:03:af:3f:3b:21:9d:93:50:57:42:
                    2f:ee:da:fd:5d:e3:c5:d2:0c:65:cc:b7:76:de:f4:
                    a8:3f:41:a3:55:2f:11:e1:d2:94:4a:c9:ab:f3:fb:
                    86:ad:d6:ee:55:4f:f1:45:33:b0:ac:4b:a4:7b:e3:
                    b8:56:fa:6d:6e:2c:fa:24:e1:f7:5b:b5:2e:25:06:
                    94:b6:7e:0d:c2:70:4b:21:0e:8d:fe:77:a9:04:00:
                    84:2d:86:51:50:0d:0d:69:56:c1:94:1c:23:55:9e:
                    40:66:c8:bb:14:35:7d:a1:99:d7:ee:3f:89:4b:cf:
                    05:a3:9d:01:f6:03:d0:37:2b:d5:95:c3:76:1b:28:
                    b2:48:38:16:90:16:20:6d:93:d1:31:c6:f7:4e:2e:
                    f0:d5:ee:d5:63:c7:94:53:2a:39:e7:cf:f6:0c:df:
                    5a:62:6f:36:b9:ff:69:f2:31:75:cb:38:db:01:8e:
                    72:d0:0e:dc:71:85:0f:d2:c0:5b:91:6c:c1:95:4d:
                    ea:2a:81:6e:93:02:77:af:92:f8:2c:cd:cd:02:4a:
                    01:78:2e:5e:5a:b5:df:73:d6:6b:fb:22:10:f7:36:
                    26:8d:5f
                Exponent: 65537 (0x10001)
        X509v3 extensions:
            X509v3 Basic Constraints: 
                CA:FALSE
            Netscape Comment: 
                Easy-RSA Generated Certificate
            X509v3 Subject Key Identifier: 
                3B:9C:4A:9A:61:70:B8:F1:08:CE:DC:9E:72:BD:08:1D:5B:F1:C8:9E
            X509v3 Authority Key Identifier: 
                keyid:EF:38:8D:14:50:58:A7:5B:4D:9C:17:72:FC:DF:B9:AC:A7:51:B0:10
                DirName:/C=US/ST=CA/L=SanFrancisco/O=Pixglo, Inc./OU=VPN-CIE/CN=tunnel.pixglo.com/name=Bala Chandrasekaran/emailAddress=bala@pixglo.com
                serial:A6:DB:C6:83:80:E6:A0:79

            X509v3 Extended Key Usage: 
                TLS Web Client Authentication
            X509v3 Key Usage: 
                Digital Signature
    Signature Algorithm: sha1WithRSAEncryption
         75:c7:ba:70:3d:b9:83:26:e5:54:08:9e:51:2a:f1:1d:87:1f:
         e3:a5:b0:a6:7a:88:d7:1f:e3:1d:96:6e:07:48:e3:4d:cd:42:
         91:72:ce:57:9b:9f:ab:4b:a0:a7:af:22:11:44:38:45:24:2e:
         4a:79:2f:91:06:c2:44:cc:7f:3d:2e:fa:17:82:3b:e2:61:39:
         3a:93:2e:74:7f:09:cf:de:98:7a:fb:be:69:e1:27:96:f1:1a:
         8f:3e:c0:75:01:21:c3:54:4e:2a:09:5f:64:41:d6:24:70:36:
         29:18:09:5a:41:42:5e:a4:1e:16:71:97:50:18:9d:d4:9d:cf:
         e6:24:2a:6d:b8:ab:d6:34:bc:40:09:99:e8:e5:6f:9e:a6:bc:
         0d:b1:2e:0a:b2:35:d7:ab:a6:d0:b7:c3:e4:0a:7e:8e:19:50:
         61:6b:d3:fe:5d:99:7d:a3:a6:e3:b4:7e:f6:e8:91:d2:ef:74:
         55:4c:df:80:7d:9b:12:03:b5:0b:7f:5a:cf:6a:ee:f2:14:76:
         8a:9a:92:48:78:63:f6:d2:6c:08:57:85:38:61:00:84:7d:88:
         79:68:01:cc:7f:e2:3a:ca:4e:ba:a6:b4:bd:4e:24:90:71:0c:
         51:51:d2:ae:19:68:a0:e2:1f:21:d0:ad:a4:70:50:59:45:8f:
         c1:b1:aa:c3:ad:32:be:98:78:52:f6:58:70:d2:6b:0c:da:1c:
         db:5b:5c:62:93:8b:76:97:4d:fd:e9:01:80:2b:c2:97:b1:86:
         68:72:79:40:07:8a:10:7a:9e:26:9b:6b:38:8f:54:66:9c:46:
         4c:61:36:66:b5:9b:31:32:97:ed:2e:56:a8:a9:2b:de:3e:69:
         af:f8:f3:a9:06:60:42:40:06:40:3b:97:16:cf:cb:f0:28:a0:
         9b:6b:15:44:a2:83:ee:0d:84:e6:9d:87:c5:ed:4b:34:64:f1:
         b8:51:ec:5b:d1:d4:71:d4:3a:2c:0c:21:67:65:48:f3:3b:9b:
         ef:80:41:60:68:f0:00:69:a0:de:89:ef:c6:ef:77:79:4b:9d:
         36:92:a3:62:a1:0d:04:15:10:76:97:20:fc:a3:dd:38:05:42:
         b6:07:c7:04:e3:f9:b6:53:04:43:7a:a4:95:fb:87:ef:c0:0a:
         f6:83:d9:7e:57:00:ba:49:79:79:f0:4a:4b:21:6c:40:40:23:
         aa:3d:af:1d:3a:b9:b0:13:5e:67:d8:cf:30:d8:99:c9:42:18:
         aa:b1:4c:55:d2:33:13:50:a5:fd:a3:e5:e3:1b:3b:66:6e:ad:
         a1:cc:00:cc:2d:75:b6:0a:29:87:bf:96:d9:eb:90:c1:45:cf:
         5c:c5:49:fe:1e:d2:53:2a
-----BEGIN CERTIFICATE-----
MIIHSDCCBTCgAwIBAgICAqIwDQYJKoZIhvcNAQEFBQAwgbQxCzAJBgNVBAYTAlVT
MQswCQYDVQQIEwJDQTEVMBMGA1UEBxMMU2FuRnJhbmNpc2NvMRUwEwYDVQQKEwxQ
aXhnbG8sIEluYy4xEDAOBgNVBAsTB1ZQTi1DSUUxGjAYBgNVBAMTEXR1bm5lbC5w
aXhnbG8uY29tMRwwGgYDVQQpExNCYWxhIENoYW5kcmFzZWthcmFuMR4wHAYJKoZI
hvcNAQkBFg9iYWxhQHBpeGdsby5jb20wHhcNMTgwMjE0MDY0MDAxWhcNMjgwMjEy
MDY0MDAxWjCBqTELMAkGA1UEBhMCVVMxCzAJBgNVBAgTAkNBMRUwEwYDVQQHEwxT
YW5GcmFuY2lzY28xFTATBgNVBAoTDFBpeGdsbywgSW5jLjEQMA4GA1UECxMHVlBO
LUNJRTEPMA0GA1UEAxMGY2llNjczMRwwGgYDVQQpExNCYWxhIENoYW5kcmFzZWth
cmFuMR4wHAYJKoZIhvcNAQkBFg9iYWxhQHBpeGdsby5jb20wggIiMA0GCSqGSIb3
DQEBAQUAA4ICDwAwggIKAoICAQClQny86+kBLayZG4QnkblEYxf95IeKowqH4RzW
zYQDCn8Z8R29u4iY5veyalky5a660oVwKXsyeWPQarqXHN/Ekp/Az233+GLQwgX2
OP3jnQ606wSmo3urs/WN6DmqJSsA7OonVK5cEirQ42KgbuTxZB26qxVzPH3i1cqp
084uElHKeeAFMoUSK3v7p0GJPUx62M0a4y3+qez2gDRDy4GiB8gcxyDuJGmm/dXx
j5dE4g0gNsSs1Ptm7g6P2TlT5vWFW7lgbzY+8mwp9V2aKfPIFAXU39cejh15KnHi
O73/YSYAvxY94Iv1e8VLZgex7yn4PZuEDvrgepoaKt7rboqqycmj0gdp6Gpd+duQ
Q7onD/tY63+LFtKLm747f1Ndz+B6A68/OyGdk1BXQi/u2v1d48XSDGXMt3be9Kg/
QaNVLxHh0pRKyavz+4at1u5VT/FFM7CsS6R747hW+m1uLPok4fdbtS4lBpS2fg3C
cEshDo3+d6kEAIQthlFQDQ1pVsGUHCNVnkBmyLsUNX2hmdfuP4lLzwWjnQH2A9A3
K9WVw3YbKLJIOBaQFiBtk9ExxvdOLvDV7tVjx5RTKjnnz/YM31pibza5/2nyMXXL
ONsBjnLQDtxxhQ/SwFuRbMGVTeoqgW6TAnevkvgszc0CSgF4Ll5atd9z1mv7IhD3
NiaNXwIDAQABo4IBazCCAWcwCQYDVR0TBAIwADAtBglghkgBhvhCAQ0EIBYeRWFz
eS1SU0EgR2VuZXJhdGVkIENlcnRpZmljYXRlMB0GA1UdDgQWBBQ7nEqaYXC48QjO
3J5yvQgdW/HInjCB6QYDVR0jBIHhMIHegBTvOI0UUFinW02cF3L837msp1GwEKGB
uqSBtzCBtDELMAkGA1UEBhMCVVMxCzAJBgNVBAgTAkNBMRUwEwYDVQQHEwxTYW5G
cmFuY2lzY28xFTATBgNVBAoTDFBpeGdsbywgSW5jLjEQMA4GA1UECxMHVlBOLUNJ
RTEaMBgGA1UEAxMRdHVubmVsLnBpeGdsby5jb20xHDAaBgNVBCkTE0JhbGEgQ2hh
bmRyYXNla2FyYW4xHjAcBgkqhkiG9w0BCQEWD2JhbGFAcGl4Z2xvLmNvbYIJAKbb
xoOA5qB5MBMGA1UdJQQMMAoGCCsGAQUFBwMCMAsGA1UdDwQEAwIHgDANBgkqhkiG
9w0BAQUFAAOCAgEAdce6cD25gyblVAieUSrxHYcf46WwpnqI1x/jHZZuB0jjTc1C
kXLOV5ufq0ugp68iEUQ4RSQuSnkvkQbCRMx/PS76F4I74mE5OpMudH8Jz96Yevu+
aeEnlvEajz7AdQEhw1ROKglfZEHWJHA2KRgJWkFCXqQeFnGXUBid1J3P5iQqbbir
1jS8QAmZ6OVvnqa8DbEuCrI116um0LfD5Ap+jhlQYWvT/l2ZfaOm47R+9uiR0u90
VUzfgH2bEgO1C39az2ru8hR2ipqSSHhj9tJsCFeFOGEAhH2IeWgBzH/iOspOuqa0
vU4kkHEMUVHSrhlooOIfIdCtpHBQWUWPwbGqw60yvph4UvZYcNJrDNoc21tcYpOL
dpdN/ekBgCvCl7GGaHJ5QAeKEHqeJptrOI9UZpxGTGE2ZrWbMTKX7S5WqKkr3j5p
r/jzqQZgQkAGQDuXFs/L8Cigm2sVRKKD7g2E5p2Hxe1LNGTxuFHsW9HUcdQ6LAwh
Z2VI8zub74BBYGjwAGmg3onvxu93eUudNpKjYqENBBUQdpcg/KPdOAVCtgfHBOP5
tlMEQ3qklfuH78AK9oPZflcAukl5efBKSyFsQEAjqj2vHTq5sBNeZ9jPMNiZyUIY
qrFMVdIzE1Cl/aPl4xs7Zm6tocwAzC11tgoph7+W2euQwUXPXMVJ/h7SUyo=
-----END CERTIFICATE-----
