Certificate:
    Data:
        Version: 3 (0x2)
        Serial Number: 680 (0x2a8)
    Signature Algorithm: sha1WithRSAEncryption
        Issuer: C=US, ST=CA, L=SanFrancisco, O=Pixglo, Inc., OU=VPN-CIE, CN=tunnel.pixglo.com/name=Bala Chandrasekaran/emailAddress=bala@pixglo.com
        Validity
            Not Before: Feb 14 06:40:10 2018 GMT
            Not After : Feb 12 06:40:10 2028 GMT
        Subject: C=US, ST=CA, L=SanFrancisco, O=Pixglo, Inc., OU=VPN-CIE, CN=cie679/name=Bala Chandrasekaran/emailAddress=bala@pixglo.com
        Subject Public Key Info:
            Public Key Algorithm: rsaEncryption
                Public-Key: (4096 bit)
                Modulus:
                    00:e6:e7:63:48:46:e2:ae:e3:ac:54:6d:0d:7c:68:
                    da:25:e3:da:35:35:f7:24:9d:62:10:69:5b:e1:99:
                    d1:8b:69:e3:18:d2:d6:76:32:75:d8:d8:dd:7a:8f:
                    c3:cd:e3:65:21:19:f6:58:5d:33:f2:63:95:6b:d2:
                    e3:12:72:29:94:81:b0:07:ee:a1:c4:ec:0e:ff:11:
                    27:77:7e:6c:9d:3b:90:1b:d9:e2:be:a7:a2:a1:0e:
                    60:81:a5:06:1c:e4:aa:45:f7:53:67:11:05:37:a2:
                    b7:bc:4e:1f:99:f0:d7:89:ce:9b:e0:e5:88:a2:d9:
                    e9:30:11:39:0c:b0:2e:27:64:9c:b3:ee:28:05:4e:
                    6c:fc:cd:78:76:9f:e0:3b:73:0c:1c:62:d2:bc:e5:
                    97:26:1c:31:fe:c8:30:c6:6e:0d:73:fb:a2:3e:6e:
                    65:2c:d5:77:3f:2f:94:fd:e5:92:05:c9:80:33:28:
                    86:71:45:2d:8f:3c:8f:e1:45:f9:62:47:1b:35:9e:
                    d0:c8:d5:f6:a4:34:3e:e1:37:0c:e1:6b:6b:09:bf:
                    29:eb:30:2d:b3:95:5d:d7:e6:8e:0f:d9:1b:ab:6c:
                    b2:22:5a:68:8e:16:c5:89:c3:b7:f3:f2:2e:a9:5e:
                    8e:86:8d:5d:c3:90:a0:4b:0c:c2:41:b1:81:7e:5d:
                    d9:d8:82:8b:cd:df:d8:b3:c6:f2:33:d7:f0:ca:3c:
                    43:bb:ef:6c:3a:be:9d:17:bd:8d:c0:ca:04:0e:5a:
                    91:4d:60:84:d8:4c:90:7b:98:e5:0b:f4:f5:2d:cd:
                    90:e4:b3:c5:76:e9:da:61:7b:07:2e:25:31:ac:5f:
                    85:bd:8d:7b:9d:f5:ac:98:a8:f1:f3:7d:6d:83:4b:
                    17:3c:d6:32:a3:44:50:1f:e1:bd:8e:a2:c9:48:8a:
                    bc:3f:9a:88:b2:52:03:aa:41:91:0e:95:36:31:d2:
                    40:52:f2:ec:62:2e:20:c1:da:75:c9:2a:88:ca:30:
                    9b:e4:c6:99:31:17:02:6c:46:4e:4d:76:eb:ee:10:
                    15:a3:df:d8:ef:07:b8:b5:26:3f:6e:42:90:b5:49:
                    19:4d:e6:78:84:17:54:9b:e4:f5:54:cd:33:77:32:
                    02:1e:64:b3:e1:d5:15:b4:37:20:79:b8:c1:a9:13:
                    ac:9d:72:28:4b:df:68:39:02:e1:83:3b:92:77:ce:
                    39:7d:54:5f:cf:02:bd:b2:e2:57:d0:ce:5d:a4:d4:
                    8e:a4:18:d7:f4:38:32:52:1e:de:fe:5c:cf:ff:35:
                    9e:ba:f7:96:4e:f6:5e:dd:40:ba:ef:52:8f:91:db:
                    3a:9d:49:fd:7a:f4:b9:45:f8:da:e0:c4:0c:7a:9e:
                    83:06:13
                Exponent: 65537 (0x10001)
        X509v3 extensions:
            X509v3 Basic Constraints: 
                CA:FALSE
            Netscape Comment: 
                Easy-RSA Generated Certificate
            X509v3 Subject Key Identifier: 
                A2:BC:DA:76:0C:99:CE:7C:33:A7:2C:9D:7A:E9:7F:9C:A4:43:68:7E
            X509v3 Authority Key Identifier: 
                keyid:EF:38:8D:14:50:58:A7:5B:4D:9C:17:72:FC:DF:B9:AC:A7:51:B0:10
                DirName:/C=US/ST=CA/L=SanFrancisco/O=Pixglo, Inc./OU=VPN-CIE/CN=tunnel.pixglo.com/name=Bala Chandrasekaran/emailAddress=bala@pixglo.com
                serial:A6:DB:C6:83:80:E6:A0:79

            X509v3 Extended Key Usage: 
                TLS Web Client Authentication
            X509v3 Key Usage: 
                Digital Signature
    Signature Algorithm: sha1WithRSAEncryption
         88:44:e6:76:4a:b5:50:71:2c:96:c1:16:c2:26:22:95:a1:44:
         c2:43:82:53:61:5b:88:82:0f:af:b8:4d:3c:45:14:3b:51:e4:
         c2:6f:38:8c:d7:24:7a:3d:2b:97:fa:95:c8:31:b0:d0:8d:05:
         cc:77:4e:36:8b:e3:ef:f5:ff:bb:ef:b2:0e:16:0e:65:a8:87:
         94:e6:f8:27:61:51:fe:c4:a2:13:e9:e9:a3:cf:4b:0f:ae:34:
         8b:3c:fa:b8:75:10:3e:b2:34:6d:5a:6c:86:d0:03:b5:1c:48:
         fe:e7:8e:34:1b:a5:e0:ff:fc:ae:08:03:32:99:08:9f:15:46:
         7d:97:54:b1:3f:76:8e:54:97:b5:26:44:b4:da:9a:b6:f8:39:
         a5:87:e3:26:08:a4:9c:5d:c5:1b:de:38:e7:d0:3e:ac:56:68:
         87:31:40:c3:64:d5:ca:5b:1e:dc:f0:e7:d7:7c:54:cc:0d:38:
         4a:cc:cd:a7:d3:a6:4f:76:4b:73:88:83:9b:86:17:90:b9:17:
         c7:d2:c3:29:3b:d2:82:a2:58:b4:77:f4:6c:85:42:62:ef:45:
         6e:eb:e6:28:3c:55:66:44:aa:de:57:23:6e:03:fb:77:92:5b:
         70:6e:cc:73:8c:44:b6:7d:5e:96:38:83:1d:29:2e:ca:6f:83:
         40:19:a7:2e:c5:44:77:cc:1d:cc:ae:22:f8:6b:f5:65:a4:bc:
         be:56:09:0d:3d:7f:19:15:31:ee:60:96:9c:6c:c1:87:08:84:
         f9:cd:04:be:f7:83:7d:7f:cb:d0:98:6f:86:d5:30:1b:56:7a:
         de:62:ed:04:d6:f5:4a:8d:c1:8f:78:7d:4a:02:31:3a:cf:0e:
         85:36:55:95:28:ea:57:2f:51:dd:00:48:64:14:3c:6a:b7:6a:
         87:54:82:b7:45:39:d3:1f:56:b5:3f:ed:1e:a4:f0:37:3c:bd:
         99:04:16:82:b9:b5:3c:50:82:16:cd:a9:ea:75:c4:83:b3:10:
         ba:32:80:cb:31:00:5d:50:1c:05:42:67:1c:50:1e:23:a4:87:
         75:76:d7:e8:5e:cd:87:9f:fe:92:4c:50:6c:78:3a:d9:f4:34:
         0b:9f:65:0f:6b:46:2a:04:f2:f5:9c:ca:0a:0a:73:02:a1:6e:
         b9:da:54:03:81:5a:79:58:88:24:ca:a1:1b:df:fa:2d:28:6c:
         27:e0:a1:0f:2e:4c:6f:0f:f3:d8:a9:2a:50:5c:64:21:69:5e:
         94:41:6d:8e:fc:fb:4d:dd:72:30:a6:26:39:d2:bf:f7:94:b3:
         96:67:25:12:c2:22:aa:18:12:81:ee:6c:d1:2e:7f:da:0d:74:
         60:9c:a2:bc:2a:62:a8:e3
-----BEGIN CERTIFICATE-----
MIIHSDCCBTCgAwIBAgICAqgwDQYJKoZIhvcNAQEFBQAwgbQxCzAJBgNVBAYTAlVT
MQswCQYDVQQIEwJDQTEVMBMGA1UEBxMMU2FuRnJhbmNpc2NvMRUwEwYDVQQKEwxQ
aXhnbG8sIEluYy4xEDAOBgNVBAsTB1ZQTi1DSUUxGjAYBgNVBAMTEXR1bm5lbC5w
aXhnbG8uY29tMRwwGgYDVQQpExNCYWxhIENoYW5kcmFzZWthcmFuMR4wHAYJKoZI
hvcNAQkBFg9iYWxhQHBpeGdsby5jb20wHhcNMTgwMjE0MDY0MDEwWhcNMjgwMjEy
MDY0MDEwWjCBqTELMAkGA1UEBhMCVVMxCzAJBgNVBAgTAkNBMRUwEwYDVQQHEwxT
YW5GcmFuY2lzY28xFTATBgNVBAoTDFBpeGdsbywgSW5jLjEQMA4GA1UECxMHVlBO
LUNJRTEPMA0GA1UEAxMGY2llNjc5MRwwGgYDVQQpExNCYWxhIENoYW5kcmFzZWth
cmFuMR4wHAYJKoZIhvcNAQkBFg9iYWxhQHBpeGdsby5jb20wggIiMA0GCSqGSIb3
DQEBAQUAA4ICDwAwggIKAoICAQDm52NIRuKu46xUbQ18aNol49o1NfcknWIQaVvh
mdGLaeMY0tZ2MnXY2N16j8PN42UhGfZYXTPyY5Vr0uMScimUgbAH7qHE7A7/ESd3
fmydO5Ab2eK+p6KhDmCBpQYc5KpF91NnEQU3ore8Th+Z8NeJzpvg5Yii2ekwETkM
sC4nZJyz7igFTmz8zXh2n+A7cwwcYtK85ZcmHDH+yDDGbg1z+6I+bmUs1Xc/L5T9
5ZIFyYAzKIZxRS2PPI/hRfliRxs1ntDI1fakND7hNwzha2sJvynrMC2zlV3X5o4P
2RurbLIiWmiOFsWJw7fz8i6pXo6GjV3DkKBLDMJBsYF+XdnYgovN39izxvIz1/DK
PEO772w6vp0XvY3AygQOWpFNYITYTJB7mOUL9PUtzZDks8V26dphewcuJTGsX4W9
jXud9ayYqPHzfW2DSxc81jKjRFAf4b2OoslIirw/moiyUgOqQZEOlTYx0kBS8uxi
LiDB2nXJKojKMJvkxpkxFwJsRk5NduvuEBWj39jvB7i1Jj9uQpC1SRlN5niEF1Sb
5PVUzTN3MgIeZLPh1RW0NyB5uMGpE6ydcihL32g5AuGDO5J3zjl9VF/PAr2y4lfQ
zl2k1I6kGNf0ODJSHt7+XM//NZ6695ZO9l7dQLrvUo+R2zqdSf169LlF+NrgxAx6
noMGEwIDAQABo4IBazCCAWcwCQYDVR0TBAIwADAtBglghkgBhvhCAQ0EIBYeRWFz
eS1SU0EgR2VuZXJhdGVkIENlcnRpZmljYXRlMB0GA1UdDgQWBBSivNp2DJnOfDOn
LJ166X+cpENofjCB6QYDVR0jBIHhMIHegBTvOI0UUFinW02cF3L837msp1GwEKGB
uqSBtzCBtDELMAkGA1UEBhMCVVMxCzAJBgNVBAgTAkNBMRUwEwYDVQQHEwxTYW5G
cmFuY2lzY28xFTATBgNVBAoTDFBpeGdsbywgSW5jLjEQMA4GA1UECxMHVlBOLUNJ
RTEaMBgGA1UEAxMRdHVubmVsLnBpeGdsby5jb20xHDAaBgNVBCkTE0JhbGEgQ2hh
bmRyYXNla2FyYW4xHjAcBgkqhkiG9w0BCQEWD2JhbGFAcGl4Z2xvLmNvbYIJAKbb
xoOA5qB5MBMGA1UdJQQMMAoGCCsGAQUFBwMCMAsGA1UdDwQEAwIHgDANBgkqhkiG
9w0BAQUFAAOCAgEAiETmdkq1UHEslsEWwiYilaFEwkOCU2FbiIIPr7hNPEUUO1Hk
wm84jNckej0rl/qVyDGw0I0FzHdONovj7/X/u++yDhYOZaiHlOb4J2FR/sSiE+np
o89LD640izz6uHUQPrI0bVpshtADtRxI/ueONBul4P/8rggDMpkInxVGfZdUsT92
jlSXtSZEtNqatvg5pYfjJgiknF3FG94459A+rFZohzFAw2TVylse3PDn13xUzA04
SszNp9OmT3ZLc4iDm4YXkLkXx9LDKTvSgqJYtHf0bIVCYu9FbuvmKDxVZkSq3lcj
bgP7d5JbcG7Mc4xEtn1eljiDHSkuym+DQBmnLsVEd8wdzK4i+Gv1ZaS8vlYJDT1/
GRUx7mCWnGzBhwiE+c0EvveDfX/L0JhvhtUwG1Z63mLtBNb1So3Bj3h9SgIxOs8O
hTZVlSjqVy9R3QBIZBQ8ardqh1SCt0U50x9WtT/tHqTwNzy9mQQWgrm1PFCCFs2p
6nXEg7MQujKAyzEAXVAcBUJnHFAeI6SHdXbX6F7Nh5/+kkxQbHg62fQ0C59lD2tG
KgTy9ZzKCgpzAqFuudpUA4FaeViIJMqhG9/6LShsJ+ChDy5Mbw/z2KkqUFxkIWle
lEFtjvz7Td1yMKYmOdK/95SzlmclEsIiqhgSge5s0S5/2g10YJyivCpiqOM=
-----END CERTIFICATE-----
