Certificate:
    Data:
        Version: 3 (0x2)
        Serial Number: 649 (0x289)
    Signature Algorithm: sha1WithRSAEncryption
        Issuer: C=US, ST=CA, L=SanFrancisco, O=Pixglo, Inc., OU=VPN-CIE, CN=tunnel.pixglo.com/name=Bala Chandrasekaran/emailAddress=bala@pixglo.com
        Validity
            Not Before: Feb 14 06:39:25 2018 GMT
            Not After : Feb 12 06:39:25 2028 GMT
        Subject: C=US, ST=CA, L=SanFrancisco, O=Pixglo, Inc., OU=VPN-CIE, CN=cie648/name=Bala Chandrasekaran/emailAddress=bala@pixglo.com
        Subject Public Key Info:
            Public Key Algorithm: rsaEncryption
                Public-Key: (4096 bit)
                Modulus:
                    00:c5:a4:0e:5f:0c:34:cb:72:cc:e7:54:be:01:be:
                    cd:6e:74:bd:88:af:67:e0:f3:4c:09:e0:1b:f4:dd:
                    4e:1e:19:34:e3:ac:f8:49:46:c9:a5:7f:f8:2c:3b:
                    ff:1a:b8:b8:1b:78:84:db:5f:bb:cf:a2:af:f5:4e:
                    01:63:82:34:9b:29:b7:f7:c3:52:ea:7c:8f:af:2b:
                    6a:bb:ab:d2:26:b5:38:c9:85:a5:b0:d8:1e:83:98:
                    84:c4:54:49:dd:04:fd:a9:73:9e:f4:81:09:e6:03:
                    ae:28:cb:b6:04:d6:28:6b:19:20:e8:16:50:71:79:
                    5b:48:d9:7a:80:72:ef:f3:f5:94:f5:64:0a:97:2c:
                    9c:83:c9:97:da:7f:2c:87:02:4e:d2:1a:7b:cb:96:
                    66:81:78:28:f6:03:16:ef:fd:8a:d7:ac:8a:e6:70:
                    58:4b:c0:33:36:e3:63:97:12:85:02:7a:ae:37:69:
                    b1:47:ba:7b:ab:3f:3c:1f:08:d0:b8:0c:42:61:30:
                    01:a0:e1:c3:d6:04:3f:37:df:2a:88:1b:e8:64:8b:
                    05:e1:45:2d:42:be:74:6b:61:cf:05:21:df:c0:d7:
                    b9:c7:6a:78:69:70:d0:d1:af:76:7e:50:b3:11:91:
                    1a:40:d3:6f:c2:78:d5:ac:ba:6f:83:51:22:5f:1b:
                    17:a0:05:2c:e4:93:f1:e6:6b:36:53:35:de:a1:1c:
                    66:f6:86:5e:9d:d1:7a:87:74:78:89:52:9e:c7:da:
                    c9:16:26:75:0f:ee:44:55:73:ea:dc:cf:ec:56:65:
                    bf:81:4b:3a:57:d6:61:00:40:13:d7:dd:ef:ff:1c:
                    82:2d:8e:b4:76:7e:c2:61:50:24:dd:97:d4:56:3c:
                    38:83:d4:5b:1e:82:56:c5:b1:4e:7c:9b:4e:a6:0c:
                    dc:b5:7d:bf:b3:21:f4:34:8b:59:5b:ef:72:36:6b:
                    a6:fa:df:fe:5e:9c:5b:75:41:3a:2a:97:d8:a3:3f:
                    0d:b4:54:2b:0a:b9:ea:5f:f4:6c:fd:93:17:e9:0e:
                    c0:71:39:c0:c4:78:fd:7c:b0:5d:b9:f4:1f:2e:22:
                    3c:c6:2c:a7:81:10:42:55:6a:90:8f:df:07:c0:5a:
                    38:1d:18:28:25:64:41:09:d5:67:14:fc:71:56:cf:
                    fa:26:29:07:7d:bd:fe:46:19:c9:78:37:6b:aa:d4:
                    ec:5f:63:55:f7:fa:73:6e:71:6a:a5:75:99:eb:64:
                    1e:64:33:4d:eb:87:1f:b0:6b:a1:d0:61:1b:2e:da:
                    f6:ed:58:12:a6:6e:48:4b:55:f1:8e:5c:0f:04:e2:
                    db:00:0b:35:98:16:d9:54:09:7a:30:98:fc:f7:4a:
                    5b:13:57
                Exponent: 65537 (0x10001)
        X509v3 extensions:
            X509v3 Basic Constraints: 
                CA:FALSE
            Netscape Comment: 
                Easy-RSA Generated Certificate
            X509v3 Subject Key Identifier: 
                95:A2:17:F6:30:8F:EC:B6:C1:3B:3A:7C:FC:01:FD:FE:DC:10:4C:5F
            X509v3 Authority Key Identifier: 
                keyid:EF:38:8D:14:50:58:A7:5B:4D:9C:17:72:FC:DF:B9:AC:A7:51:B0:10
                DirName:/C=US/ST=CA/L=SanFrancisco/O=Pixglo, Inc./OU=VPN-CIE/CN=tunnel.pixglo.com/name=Bala Chandrasekaran/emailAddress=bala@pixglo.com
                serial:A6:DB:C6:83:80:E6:A0:79

            X509v3 Extended Key Usage: 
                TLS Web Client Authentication
            X509v3 Key Usage: 
                Digital Signature
    Signature Algorithm: sha1WithRSAEncryption
         46:d5:81:d0:ed:95:b7:82:70:5a:95:ff:00:7c:e7:a4:40:99:
         fc:9a:1a:dd:97:ee:50:96:42:e8:17:dc:12:87:15:a6:11:25:
         b7:50:66:04:63:7f:3a:ce:ff:6c:46:d1:ff:af:86:50:05:9c:
         10:c3:db:a2:07:34:3a:a8:e9:42:47:70:b8:1d:49:4c:af:77:
         70:e4:fd:05:e4:e0:04:a7:43:58:d2:81:96:23:2b:56:fa:4c:
         59:88:50:c0:12:d1:78:a2:b6:c0:6b:27:88:47:67:b9:3b:22:
         a4:42:97:69:1f:61:9e:4d:fb:bf:b9:ff:b7:29:5b:62:f1:ad:
         b8:20:f4:85:42:86:38:39:fe:0c:7c:2c:9b:e4:70:20:37:3c:
         10:a9:6e:ec:92:f9:cf:9a:9c:87:9b:fa:25:9b:ba:58:2e:99:
         eb:44:b3:2b:39:27:8a:7e:f4:8a:2e:b2:94:88:af:37:fb:c9:
         5c:8d:e9:0c:75:da:d9:6c:21:17:b4:86:e3:57:c5:7e:0f:56:
         c3:9d:32:85:9a:6c:0a:1a:13:71:58:a6:7f:d5:51:ad:03:6a:
         d1:7d:04:8c:ca:f1:b4:a0:a3:2f:d0:94:f9:c8:a0:00:f0:13:
         75:cd:41:b3:1f:4e:32:47:fe:fe:3b:94:51:a8:64:51:02:21:
         db:c4:8b:c5:07:a8:e3:2d:c6:fc:b9:83:f1:1f:2b:96:6c:0c:
         84:de:93:75:8c:74:56:b2:1e:59:41:ce:fd:ae:23:c2:9a:f8:
         d4:37:1a:c6:47:d0:12:2f:87:3d:e9:5b:fc:10:0f:5f:86:fe:
         68:86:b9:08:76:f4:20:29:cb:89:ca:9c:e1:57:2b:83:ed:59:
         83:d6:fc:d2:6b:4c:15:44:ac:56:89:06:da:c7:93:d9:be:d5:
         63:b3:88:6f:22:e5:36:52:8b:bc:a9:db:f3:5d:8e:75:d4:c8:
         bf:5f:db:5c:a5:88:31:de:1f:d2:55:83:59:c4:75:0e:54:a4:
         67:56:50:8a:33:c0:06:29:17:ed:16:e5:0d:bc:c5:29:14:ad:
         44:ad:e1:58:97:c9:ca:f3:8e:1f:4c:c6:dd:ac:1a:fa:05:fc:
         b5:77:70:70:85:64:f0:8c:94:e6:4a:2e:0c:a3:45:c6:4e:4e:
         83:11:33:8b:68:e0:cc:b1:a0:8f:08:11:b7:38:7b:a6:df:a5:
         f1:ce:21:36:45:6a:19:ec:f7:98:2e:5e:b3:94:c2:89:8d:1f:
         3d:60:50:ae:aa:23:2b:3f:bb:d2:e9:1a:36:ff:c0:4f:60:8e:
         06:9b:32:87:23:ff:e1:49:39:41:7e:82:02:ab:e6:1e:c3:60:
         2b:cb:59:0d:91:53:9e:d9
-----BEGIN CERTIFICATE-----
MIIHSDCCBTCgAwIBAgICAokwDQYJKoZIhvcNAQEFBQAwgbQxCzAJBgNVBAYTAlVT
MQswCQYDVQQIEwJDQTEVMBMGA1UEBxMMU2FuRnJhbmNpc2NvMRUwEwYDVQQKEwxQ
aXhnbG8sIEluYy4xEDAOBgNVBAsTB1ZQTi1DSUUxGjAYBgNVBAMTEXR1bm5lbC5w
aXhnbG8uY29tMRwwGgYDVQQpExNCYWxhIENoYW5kcmFzZWthcmFuMR4wHAYJKoZI
hvcNAQkBFg9iYWxhQHBpeGdsby5jb20wHhcNMTgwMjE0MDYzOTI1WhcNMjgwMjEy
MDYzOTI1WjCBqTELMAkGA1UEBhMCVVMxCzAJBgNVBAgTAkNBMRUwEwYDVQQHEwxT
YW5GcmFuY2lzY28xFTATBgNVBAoTDFBpeGdsbywgSW5jLjEQMA4GA1UECxMHVlBO
LUNJRTEPMA0GA1UEAxMGY2llNjQ4MRwwGgYDVQQpExNCYWxhIENoYW5kcmFzZWth
cmFuMR4wHAYJKoZIhvcNAQkBFg9iYWxhQHBpeGdsby5jb20wggIiMA0GCSqGSIb3
DQEBAQUAA4ICDwAwggIKAoICAQDFpA5fDDTLcsznVL4Bvs1udL2Ir2fg80wJ4Bv0
3U4eGTTjrPhJRsmlf/gsO/8auLgbeITbX7vPoq/1TgFjgjSbKbf3w1LqfI+vK2q7
q9ImtTjJhaWw2B6DmITEVEndBP2pc570gQnmA64oy7YE1ihrGSDoFlBxeVtI2XqA
cu/z9ZT1ZAqXLJyDyZfafyyHAk7SGnvLlmaBeCj2Axbv/YrXrIrmcFhLwDM242OX
EoUCeq43abFHunurPzwfCNC4DEJhMAGg4cPWBD833yqIG+hkiwXhRS1CvnRrYc8F
Id/A17nHanhpcNDRr3Z+ULMRkRpA02/CeNWsum+DUSJfGxegBSzkk/HmazZTNd6h
HGb2hl6d0XqHdHiJUp7H2skWJnUP7kRVc+rcz+xWZb+BSzpX1mEAQBPX3e//HIIt
jrR2fsJhUCTdl9RWPDiD1FseglbFsU58m06mDNy1fb+zIfQ0i1lb73I2a6b63/5e
nFt1QToql9ijPw20VCsKuepf9Gz9kxfpDsBxOcDEeP18sF259B8uIjzGLKeBEEJV
apCP3wfAWjgdGCglZEEJ1WcU/HFWz/omKQd9vf5GGcl4N2uq1OxfY1X3+nNucWql
dZnrZB5kM03rhx+wa6HQYRsu2vbtWBKmbkhLVfGOXA8E4tsACzWYFtlUCXowmPz3
SlsTVwIDAQABo4IBazCCAWcwCQYDVR0TBAIwADAtBglghkgBhvhCAQ0EIBYeRWFz
eS1SU0EgR2VuZXJhdGVkIENlcnRpZmljYXRlMB0GA1UdDgQWBBSVohf2MI/stsE7
Onz8Af3+3BBMXzCB6QYDVR0jBIHhMIHegBTvOI0UUFinW02cF3L837msp1GwEKGB
uqSBtzCBtDELMAkGA1UEBhMCVVMxCzAJBgNVBAgTAkNBMRUwEwYDVQQHEwxTYW5G
cmFuY2lzY28xFTATBgNVBAoTDFBpeGdsbywgSW5jLjEQMA4GA1UECxMHVlBOLUNJ
RTEaMBgGA1UEAxMRdHVubmVsLnBpeGdsby5jb20xHDAaBgNVBCkTE0JhbGEgQ2hh
bmRyYXNla2FyYW4xHjAcBgkqhkiG9w0BCQEWD2JhbGFAcGl4Z2xvLmNvbYIJAKbb
xoOA5qB5MBMGA1UdJQQMMAoGCCsGAQUFBwMCMAsGA1UdDwQEAwIHgDANBgkqhkiG
9w0BAQUFAAOCAgEARtWB0O2Vt4JwWpX/AHznpECZ/Joa3ZfuUJZC6BfcEocVphEl
t1BmBGN/Os7/bEbR/6+GUAWcEMPbogc0OqjpQkdwuB1JTK93cOT9BeTgBKdDWNKB
liMrVvpMWYhQwBLReKK2wGsniEdnuTsipEKXaR9hnk37v7n/tylbYvGtuCD0hUKG
ODn+DHwsm+RwIDc8EKlu7JL5z5qch5v6JZu6WC6Z60SzKzknin70ii6ylIivN/vJ
XI3pDHXa2WwhF7SG41fFfg9Ww50yhZpsChoTcVimf9VRrQNq0X0EjMrxtKCjL9CU
+cigAPATdc1Bsx9OMkf+/juUUahkUQIh28SLxQeo4y3G/LmD8R8rlmwMhN6TdYx0
VrIeWUHO/a4jwpr41DcaxkfQEi+HPelb/BAPX4b+aIa5CHb0ICnLicqc4Vcrg+1Z
g9b80mtMFUSsVokG2seT2b7VY7OIbyLlNlKLvKnb812OddTIv1/bXKWIMd4f0lWD
WcR1DlSkZ1ZQijPABikX7RblDbzFKRStRK3hWJfJyvOOH0zG3awa+gX8tXdwcIVk
8IyU5kouDKNFxk5OgxEzi2jgzLGgjwgRtzh7pt+l8c4hNkVqGez3mC5es5TCiY0f
PWBQrqojKz+70ukaNv/AT2COBpsyhyP/4Uk5QX6CAqvmHsNgK8tZDZFTntk=
-----END CERTIFICATE-----
