Certificate:
    Data:
        Version: 3 (0x2)
        Serial Number: 634 (0x27a)
    Signature Algorithm: sha1WithRSAEncryption
        Issuer: C=US, ST=CA, L=SanFrancisco, O=Pixglo, Inc., OU=VPN-CIE, CN=tunnel.pixglo.com/name=Bala Chandrasekaran/emailAddress=bala@pixglo.com
        Validity
            Not Before: Feb 14 06:38:55 2018 GMT
            Not After : Feb 12 06:38:55 2028 GMT
        Subject: C=US, ST=CA, L=SanFrancisco, O=Pixglo, Inc., OU=VPN-CIE, CN=cie633/name=Bala Chandrasekaran/emailAddress=bala@pixglo.com
        Subject Public Key Info:
            Public Key Algorithm: rsaEncryption
                Public-Key: (4096 bit)
                Modulus:
                    00:dd:5f:8d:c6:a4:ac:ca:19:44:87:f0:d6:fb:af:
                    2a:6c:df:fa:ef:ed:83:e8:7c:69:4e:b0:f0:85:9c:
                    2e:37:69:a1:c9:1a:4e:bc:3e:c5:70:c3:ad:98:5c:
                    a4:50:55:fd:c7:15:ce:ca:7e:b3:ab:1f:7b:37:43:
                    1f:92:cb:0c:b6:a0:56:20:1c:b7:9e:d1:9b:85:15:
                    5f:77:8c:f0:cf:90:69:48:21:b8:e1:fd:3d:62:61:
                    03:51:9a:7a:10:54:cf:ea:fd:f7:a4:b0:5f:5d:cb:
                    33:f5:0d:fc:69:a0:cc:9f:76:23:aa:20:1d:17:b9:
                    6e:bf:d4:d6:81:49:55:79:88:35:53:e4:f9:94:d3:
                    57:62:27:b1:e4:3a:97:7f:0c:fc:6b:03:da:e0:d7:
                    10:eb:56:98:a6:a3:9a:23:8f:8d:79:90:ad:ac:d8:
                    7b:72:e2:b4:cc:f6:a9:55:3b:c8:c4:b7:2f:77:53:
                    91:32:4a:14:05:51:3a:9a:98:b7:ba:1f:98:8e:d3:
                    ad:9d:3a:8f:e3:00:cc:9a:94:99:16:7a:4a:55:e9:
                    36:47:a6:5c:92:c8:5b:4c:26:9a:a6:71:74:77:24:
                    94:6f:35:8f:f9:96:1a:00:d3:52:00:30:26:87:84:
                    ed:a6:8f:bb:3e:60:48:61:0b:93:b9:75:e7:a0:91:
                    1b:f9:76:2f:be:29:20:ae:f5:33:8d:bf:13:94:6d:
                    65:62:99:b9:dc:e8:3d:2d:79:f8:34:08:83:9f:c8:
                    71:1d:25:f4:b1:21:a0:f6:1d:b4:18:5f:75:2a:28:
                    71:05:e8:93:48:3e:74:c2:ba:7f:e6:37:25:ee:44:
                    94:05:62:e2:bd:91:0b:a5:42:54:66:90:8d:2b:65:
                    42:64:17:cf:28:51:59:81:44:30:d3:c2:9e:04:c3:
                    33:29:41:37:e8:4b:b3:8f:a5:69:1d:09:94:6b:b2:
                    d8:58:c9:72:80:31:7b:0c:2b:af:01:08:f3:0b:63:
                    16:25:08:9c:8d:be:e9:20:34:e9:81:bd:57:c9:d5:
                    a7:20:f2:0c:fa:3f:55:94:75:6a:ef:d1:b3:fa:6c:
                    c8:15:11:40:3f:e3:e2:22:a1:07:63:c4:86:1a:83:
                    ae:19:00:d5:2a:36:63:c5:ec:3b:0a:41:b4:58:aa:
                    d6:e8:0f:f5:13:24:c7:79:c2:e5:a7:4b:51:84:a9:
                    b3:82:6e:59:8a:bd:eb:fa:92:13:1f:f2:44:24:92:
                    23:86:6d:58:31:b4:fe:94:d9:9c:e1:68:f3:af:3e:
                    25:4c:59:7d:03:a0:a5:ad:7e:14:e4:8b:ac:c9:d6:
                    0a:b4:d5:e7:ce:1b:d3:2b:d2:8a:c7:6e:c0:08:b7:
                    8a:1f:6f
                Exponent: 65537 (0x10001)
        X509v3 extensions:
            X509v3 Basic Constraints: 
                CA:FALSE
            Netscape Comment: 
                Easy-RSA Generated Certificate
            X509v3 Subject Key Identifier: 
                A8:AE:BB:4A:3B:A6:95:28:30:A7:8E:CE:C5:0E:5E:69:48:36:7F:61
            X509v3 Authority Key Identifier: 
                keyid:EF:38:8D:14:50:58:A7:5B:4D:9C:17:72:FC:DF:B9:AC:A7:51:B0:10
                DirName:/C=US/ST=CA/L=SanFrancisco/O=Pixglo, Inc./OU=VPN-CIE/CN=tunnel.pixglo.com/name=Bala Chandrasekaran/emailAddress=bala@pixglo.com
                serial:A6:DB:C6:83:80:E6:A0:79

            X509v3 Extended Key Usage: 
                TLS Web Client Authentication
            X509v3 Key Usage: 
                Digital Signature
    Signature Algorithm: sha1WithRSAEncryption
         61:6a:69:ad:9f:e5:49:fe:b8:65:be:69:9b:1b:a8:1d:ed:24:
         be:6d:bc:68:ef:0c:10:9a:83:10:4b:6d:7a:b9:87:2a:b4:99:
         d8:1b:e7:21:d0:2a:70:83:d0:64:df:67:18:da:7b:d8:b9:3f:
         23:96:99:c7:32:e0:5b:36:6c:33:33:84:a7:28:c0:49:c7:43:
         4e:91:7f:b0:5f:fc:e9:22:2f:7c:fe:7b:a6:a1:18:6b:36:0e:
         35:b8:f3:40:7e:60:ba:e1:9e:75:7e:d8:4b:6d:24:02:02:87:
         f7:ad:0f:8d:32:db:87:af:96:97:d4:9c:90:a0:5b:10:9f:f7:
         32:26:65:8f:03:05:5c:d1:61:52:65:a4:d2:8b:f2:d9:e8:84:
         ba:f3:62:7e:8f:1b:67:c8:80:23:b4:7c:c7:b8:5d:50:65:ae:
         74:1e:46:5e:6e:7e:40:d0:ff:7a:3b:6f:ff:b4:b4:cd:22:d6:
         40:78:1c:37:73:8b:5c:0f:ed:a5:90:a0:31:4b:ff:eb:e2:ef:
         93:e9:6b:9f:aa:e2:84:c0:a1:12:a4:24:6a:e6:f5:f2:63:f6:
         0b:84:56:d4:26:87:20:03:38:24:32:6d:42:35:ce:3c:da:1a:
         87:01:6b:49:7b:25:e6:82:6d:51:9f:36:5d:fd:1e:8b:bc:06:
         9d:ad:9d:5d:aa:57:e2:16:d6:46:aa:80:3b:e5:1e:58:30:3f:
         03:2f:3f:95:0b:3b:98:ad:dd:c3:72:b8:83:4a:c6:c4:ab:e8:
         36:78:c8:84:44:e7:82:9e:b3:94:e1:73:a1:69:0f:05:f7:78:
         68:59:f9:00:ff:34:a4:4e:a4:59:a9:23:c6:ba:91:43:d7:ff:
         18:3b:77:33:41:85:ff:a9:78:ee:c7:b5:6a:61:4b:2c:57:c2:
         6c:75:34:e7:55:2d:4e:24:24:31:62:4f:2a:5e:34:78:07:ad:
         60:b5:3f:c3:b9:9a:34:51:a3:6b:d2:4d:46:78:50:ac:38:11:
         09:b1:2a:68:bf:06:6b:fe:dd:d5:d2:5d:97:e6:0e:18:fb:cf:
         5e:a8:10:6d:13:11:a0:af:8d:9e:e1:55:0d:1e:c0:fc:e7:77:
         36:e7:8c:4f:55:ca:3e:f5:9b:9a:6f:c0:28:58:2b:8c:f6:25:
         1a:1f:25:0e:47:09:cb:94:45:f6:7d:50:e4:a0:f8:70:e5:cb:
         04:9c:0b:2b:50:76:bb:10:2b:22:47:59:a8:ce:e7:a5:00:a6:
         63:f4:91:72:f0:d8:57:d1:d8:d7:f6:e8:dd:25:14:d4:a5:5f:
         36:b8:b4:20:d0:24:0d:c9:a6:3b:17:21:8f:ff:21:47:ca:91:
         d9:69:dc:3b:67:4c:e5:6d
-----BEGIN CERTIFICATE-----
MIIHSDCCBTCgAwIBAgICAnowDQYJKoZIhvcNAQEFBQAwgbQxCzAJBgNVBAYTAlVT
MQswCQYDVQQIEwJDQTEVMBMGA1UEBxMMU2FuRnJhbmNpc2NvMRUwEwYDVQQKEwxQ
aXhnbG8sIEluYy4xEDAOBgNVBAsTB1ZQTi1DSUUxGjAYBgNVBAMTEXR1bm5lbC5w
aXhnbG8uY29tMRwwGgYDVQQpExNCYWxhIENoYW5kcmFzZWthcmFuMR4wHAYJKoZI
hvcNAQkBFg9iYWxhQHBpeGdsby5jb20wHhcNMTgwMjE0MDYzODU1WhcNMjgwMjEy
MDYzODU1WjCBqTELMAkGA1UEBhMCVVMxCzAJBgNVBAgTAkNBMRUwEwYDVQQHEwxT
YW5GcmFuY2lzY28xFTATBgNVBAoTDFBpeGdsbywgSW5jLjEQMA4GA1UECxMHVlBO
LUNJRTEPMA0GA1UEAxMGY2llNjMzMRwwGgYDVQQpExNCYWxhIENoYW5kcmFzZWth
cmFuMR4wHAYJKoZIhvcNAQkBFg9iYWxhQHBpeGdsby5jb20wggIiMA0GCSqGSIb3
DQEBAQUAA4ICDwAwggIKAoICAQDdX43GpKzKGUSH8Nb7ryps3/rv7YPofGlOsPCF
nC43aaHJGk68PsVww62YXKRQVf3HFc7KfrOrH3s3Qx+Sywy2oFYgHLee0ZuFFV93
jPDPkGlIIbjh/T1iYQNRmnoQVM/q/feksF9dyzP1DfxpoMyfdiOqIB0XuW6/1NaB
SVV5iDVT5PmU01diJ7HkOpd/DPxrA9rg1xDrVpimo5ojj415kK2s2Hty4rTM9qlV
O8jEty93U5EyShQFUTqamLe6H5iO062dOo/jAMyalJkWekpV6TZHplySyFtMJpqm
cXR3JJRvNY/5lhoA01IAMCaHhO2mj7s+YEhhC5O5deegkRv5di++KSCu9TONvxOU
bWVimbnc6D0tefg0CIOfyHEdJfSxIaD2HbQYX3UqKHEF6JNIPnTCun/mNyXuRJQF
YuK9kQulQlRmkI0rZUJkF88oUVmBRDDTwp4EwzMpQTfoS7OPpWkdCZRrsthYyXKA
MXsMK68BCPMLYxYlCJyNvukgNOmBvVfJ1acg8gz6P1WUdWrv0bP6bMgVEUA/4+Ii
oQdjxIYag64ZANUqNmPF7DsKQbRYqtboD/UTJMd5wuWnS1GEqbOCblmKvev6khMf
8kQkkiOGbVgxtP6U2ZzhaPOvPiVMWX0DoKWtfhTki6zJ1gq01efOG9Mr0orHbsAI
t4ofbwIDAQABo4IBazCCAWcwCQYDVR0TBAIwADAtBglghkgBhvhCAQ0EIBYeRWFz
eS1SU0EgR2VuZXJhdGVkIENlcnRpZmljYXRlMB0GA1UdDgQWBBSorrtKO6aVKDCn
js7FDl5pSDZ/YTCB6QYDVR0jBIHhMIHegBTvOI0UUFinW02cF3L837msp1GwEKGB
uqSBtzCBtDELMAkGA1UEBhMCVVMxCzAJBgNVBAgTAkNBMRUwEwYDVQQHEwxTYW5G
cmFuY2lzY28xFTATBgNVBAoTDFBpeGdsbywgSW5jLjEQMA4GA1UECxMHVlBOLUNJ
RTEaMBgGA1UEAxMRdHVubmVsLnBpeGdsby5jb20xHDAaBgNVBCkTE0JhbGEgQ2hh
bmRyYXNla2FyYW4xHjAcBgkqhkiG9w0BCQEWD2JhbGFAcGl4Z2xvLmNvbYIJAKbb
xoOA5qB5MBMGA1UdJQQMMAoGCCsGAQUFBwMCMAsGA1UdDwQEAwIHgDANBgkqhkiG
9w0BAQUFAAOCAgEAYWpprZ/lSf64Zb5pmxuoHe0kvm28aO8MEJqDEEttermHKrSZ
2BvnIdAqcIPQZN9nGNp72Lk/I5aZxzLgWzZsMzOEpyjAScdDTpF/sF/86SIvfP57
pqEYazYONbjzQH5guuGedX7YS20kAgKH960PjTLbh6+Wl9SckKBbEJ/3MiZljwMF
XNFhUmWk0ovy2eiEuvNifo8bZ8iAI7R8x7hdUGWudB5GXm5+QND/ejtv/7S0zSLW
QHgcN3OLXA/tpZCgMUv/6+Lvk+lrn6rihMChEqQkaub18mP2C4RW1CaHIAM4JDJt
QjXOPNoahwFrSXsl5oJtUZ82Xf0ei7wGna2dXapX4hbWRqqAO+UeWDA/Ay8/lQs7
mK3dw3K4g0rGxKvoNnjIhETngp6zlOFzoWkPBfd4aFn5AP80pE6kWakjxrqRQ9f/
GDt3M0GF/6l47se1amFLLFfCbHU051UtTiQkMWJPKl40eAetYLU/w7maNFGja9JN
RnhQrDgRCbEqaL8Ga/7d1dJdl+YOGPvPXqgQbRMRoK+NnuFVDR7A/Od3NueMT1XK
PvWbmm/AKFgrjPYlGh8lDkcJy5RF9n1Q5KD4cOXLBJwLK1B2uxArIkdZqM7npQCm
Y/SRcvDYV9HY1/bo3SUU1KVfNri0INAkDcmmOxchj/8hR8qR2WncO2dM5W0=
-----END CERTIFICATE-----
