Certificate:
    Data:
        Version: 3 (0x2)
        Serial Number: 686 (0x2ae)
    Signature Algorithm: sha1WithRSAEncryption
        Issuer: C=US, ST=CA, L=SanFrancisco, O=Pixglo, Inc., OU=VPN-CIE, CN=tunnel.pixglo.com/name=Bala Chandrasekaran/emailAddress=bala@pixglo.com
        Validity
            Not Before: Feb 14 06:40:18 2018 GMT
            Not After : Feb 12 06:40:18 2028 GMT
        Subject: C=US, ST=CA, L=SanFrancisco, O=Pixglo, Inc., OU=VPN-CIE, CN=cie685/name=Bala Chandrasekaran/emailAddress=bala@pixglo.com
        Subject Public Key Info:
            Public Key Algorithm: rsaEncryption
                Public-Key: (4096 bit)
                Modulus:
                    00:c5:3b:e6:29:be:48:5b:18:55:1a:00:4d:56:6b:
                    58:de:3a:4c:05:20:31:22:c3:6f:c9:e5:54:9a:8e:
                    cb:40:87:93:d6:26:a5:da:70:dc:82:99:e0:37:93:
                    68:1f:59:a4:df:d4:fe:01:d8:0b:b4:ec:38:5a:9f:
                    17:83:69:bd:3b:d5:6a:98:8e:e2:5f:41:d9:91:63:
                    1a:6f:82:db:f1:eb:db:51:e0:d9:c1:b6:e8:cb:42:
                    bc:86:4c:77:8e:40:3b:62:75:67:96:ca:e2:a6:e3:
                    f2:2b:81:30:4d:e6:c4:b1:90:0a:e5:83:a0:18:9a:
                    b4:c0:99:ac:84:94:54:91:bf:fd:02:25:13:96:e4:
                    79:0f:dd:08:91:e7:95:68:9b:b7:cd:87:4c:e7:45:
                    36:07:9e:a4:92:6d:a4:c3:2e:9a:da:81:4c:38:22:
                    4a:6c:69:be:be:81:58:08:a8:01:d1:ab:d5:c2:ad:
                    f5:9d:c1:2e:5a:fc:71:60:10:c8:c2:59:61:90:7f:
                    50:ad:48:65:0d:8a:e9:f8:bb:97:73:50:15:1c:fd:
                    8d:d1:02:e2:13:55:31:d1:be:ca:bf:fc:ea:ad:a9:
                    13:51:c2:de:35:e8:69:9e:46:13:46:9c:70:04:d9:
                    ca:4b:b0:13:c6:1c:20:fd:bb:4e:82:96:f4:1d:35:
                    88:2f:ca:10:99:6e:25:2f:dd:7f:b5:80:0c:12:59:
                    3a:94:59:cd:5a:d3:91:76:62:2a:6c:ae:f7:13:88:
                    77:03:0d:c3:96:5a:33:4b:50:27:7f:0c:3c:eb:50:
                    5f:4c:e7:8e:03:49:00:24:69:00:74:2b:8b:fd:a0:
                    3d:ff:98:a5:85:8c:aa:d9:c2:13:ba:b3:64:07:f2:
                    0a:a5:25:0c:c3:aa:99:16:7e:d4:08:47:6a:21:27:
                    e8:91:d1:fc:29:ed:26:ef:77:3d:47:fa:5d:e4:01:
                    36:7d:04:57:a6:30:9c:2d:be:c3:d5:18:7c:e8:de:
                    8a:a4:a6:0d:df:e9:6e:d6:87:67:7e:68:6e:aa:f0:
                    b7:8f:d6:8c:60:d6:e7:ad:70:98:50:1b:29:85:f9:
                    56:46:1b:f9:b9:34:d4:1b:33:58:c8:2b:b3:68:d9:
                    aa:bb:f1:df:05:e4:2d:24:8e:8d:af:9d:a2:06:84:
                    03:db:f7:1b:48:e1:e7:48:ba:58:2d:3c:d4:70:f4:
                    22:1d:a7:15:39:48:ee:b5:db:1c:c4:9f:c4:d2:ae:
                    dd:f1:46:5c:c0:af:ac:c8:73:7c:c9:20:67:57:72:
                    1b:f7:37:53:30:88:a4:77:34:86:12:9e:26:8c:7a:
                    f2:e4:e1:fc:b8:46:4a:a5:59:b4:f7:ec:99:5c:24:
                    a0:a3:79
                Exponent: 65537 (0x10001)
        X509v3 extensions:
            X509v3 Basic Constraints: 
                CA:FALSE
            Netscape Comment: 
                Easy-RSA Generated Certificate
            X509v3 Subject Key Identifier: 
                08:C2:F5:80:18:E1:6B:FE:F9:1C:11:71:28:84:F0:A0:F4:62:C5:A0
            X509v3 Authority Key Identifier: 
                keyid:EF:38:8D:14:50:58:A7:5B:4D:9C:17:72:FC:DF:B9:AC:A7:51:B0:10
                DirName:/C=US/ST=CA/L=SanFrancisco/O=Pixglo, Inc./OU=VPN-CIE/CN=tunnel.pixglo.com/name=Bala Chandrasekaran/emailAddress=bala@pixglo.com
                serial:A6:DB:C6:83:80:E6:A0:79

            X509v3 Extended Key Usage: 
                TLS Web Client Authentication
            X509v3 Key Usage: 
                Digital Signature
    Signature Algorithm: sha1WithRSAEncryption
         34:70:04:76:f8:b5:43:e0:bd:54:6c:6e:ea:c2:20:f0:0a:16:
         fd:b5:f7:36:86:a9:05:c7:87:e3:cf:16:df:40:f9:39:b6:fc:
         dc:60:22:a8:0e:39:f8:6c:39:d5:ef:b9:11:96:45:58:8c:13:
         34:25:dd:e7:39:1e:ee:20:cf:22:a3:ed:23:6e:97:db:9c:c6:
         a2:e3:ce:af:a2:9a:66:6e:b1:6e:5e:71:31:59:81:e5:a3:c2:
         8b:2e:83:c3:40:48:0a:9a:8b:32:77:99:0c:3b:20:62:1c:55:
         43:36:4c:b2:d7:26:dc:5c:34:ff:80:05:83:4a:1c:31:a9:c8:
         29:2d:4a:32:76:6f:88:8c:76:4f:98:95:30:c3:a4:8a:b4:78:
         14:50:cb:36:45:02:cf:36:3e:0d:ba:56:b1:43:42:5d:dd:7f:
         ac:63:9e:94:61:87:98:1f:1f:f0:03:db:07:33:c5:7c:6b:ec:
         43:76:12:f7:04:bd:a3:37:6c:93:f0:21:7b:73:7d:fc:c1:3d:
         05:22:9c:2c:b3:81:87:b4:c3:a9:a0:1c:fe:aa:34:1e:ae:fd:
         c5:35:0d:89:93:e6:dd:9c:9f:43:15:ff:73:51:2d:53:01:ce:
         ea:0f:23:7a:ba:9a:17:33:88:73:65:35:97:b4:21:e9:95:33:
         89:7c:2b:1b:f3:0f:b8:7b:25:f9:86:d1:a2:0b:4b:92:c4:79:
         25:0a:cf:74:0a:90:22:53:8d:68:05:65:81:a7:5d:03:99:ed:
         5c:a9:40:c9:47:d6:14:4e:72:fa:96:b0:9d:be:f7:bd:4a:e9:
         e2:46:6f:23:19:cc:08:db:82:ba:45:8c:11:a7:cd:41:96:10:
         07:53:80:e8:4f:15:7f:ef:4e:f3:a5:96:56:b7:4c:7f:17:1a:
         6e:33:d4:f3:37:42:0f:ff:00:06:41:d8:04:4c:89:bd:0b:6d:
         8d:0e:72:10:f8:bc:90:ab:15:4b:64:e2:94:33:28:66:98:c4:
         44:95:60:e6:43:17:42:9a:0f:df:4e:ef:34:e1:bb:1f:58:34:
         6e:98:12:c7:ff:5e:b3:07:bc:e0:90:5f:53:4d:69:41:60:ff:
         41:48:00:1a:76:11:93:1d:cc:fd:10:bc:11:a9:a5:f8:8b:54:
         a9:43:f9:33:c9:13:95:b3:8b:3c:1b:7c:01:db:46:1b:dc:91:
         05:75:88:19:f0:16:7a:9b:10:cc:30:3a:69:06:b1:dd:63:66:
         23:ac:1a:49:b4:9a:7f:13:51:0f:55:d0:a8:79:e6:86:4b:7b:
         cb:07:4e:29:1d:c7:8a:fa:a2:42:39:75:dc:95:5d:9d:ae:12:
         80:2c:b9:03:83:a2:48:92
-----BEGIN CERTIFICATE-----
MIIHSDCCBTCgAwIBAgICAq4wDQYJKoZIhvcNAQEFBQAwgbQxCzAJBgNVBAYTAlVT
MQswCQYDVQQIEwJDQTEVMBMGA1UEBxMMU2FuRnJhbmNpc2NvMRUwEwYDVQQKEwxQ
aXhnbG8sIEluYy4xEDAOBgNVBAsTB1ZQTi1DSUUxGjAYBgNVBAMTEXR1bm5lbC5w
aXhnbG8uY29tMRwwGgYDVQQpExNCYWxhIENoYW5kcmFzZWthcmFuMR4wHAYJKoZI
hvcNAQkBFg9iYWxhQHBpeGdsby5jb20wHhcNMTgwMjE0MDY0MDE4WhcNMjgwMjEy
MDY0MDE4WjCBqTELMAkGA1UEBhMCVVMxCzAJBgNVBAgTAkNBMRUwEwYDVQQHEwxT
YW5GcmFuY2lzY28xFTATBgNVBAoTDFBpeGdsbywgSW5jLjEQMA4GA1UECxMHVlBO
LUNJRTEPMA0GA1UEAxMGY2llNjg1MRwwGgYDVQQpExNCYWxhIENoYW5kcmFzZWth
cmFuMR4wHAYJKoZIhvcNAQkBFg9iYWxhQHBpeGdsby5jb20wggIiMA0GCSqGSIb3
DQEBAQUAA4ICDwAwggIKAoICAQDFO+YpvkhbGFUaAE1Wa1jeOkwFIDEiw2/J5VSa
jstAh5PWJqXacNyCmeA3k2gfWaTf1P4B2Au07DhanxeDab071WqYjuJfQdmRYxpv
gtvx69tR4NnBtujLQryGTHeOQDtidWeWyuKm4/IrgTBN5sSxkArlg6AYmrTAmayE
lFSRv/0CJROW5HkP3QiR55Vom7fNh0znRTYHnqSSbaTDLpragUw4Ikpsab6+gVgI
qAHRq9XCrfWdwS5a/HFgEMjCWWGQf1CtSGUNiun4u5dzUBUc/Y3RAuITVTHRvsq/
/OqtqRNRwt416GmeRhNGnHAE2cpLsBPGHCD9u06ClvQdNYgvyhCZbiUv3X+1gAwS
WTqUWc1a05F2YipsrvcTiHcDDcOWWjNLUCd/DDzrUF9M544DSQAkaQB0K4v9oD3/
mKWFjKrZwhO6s2QH8gqlJQzDqpkWftQIR2ohJ+iR0fwp7Sbvdz1H+l3kATZ9BFem
MJwtvsPVGHzo3oqkpg3f6W7Wh2d+aG6q8LeP1oxg1uetcJhQGymF+VZGG/m5NNQb
M1jIK7No2aq78d8F5C0kjo2vnaIGhAPb9xtI4edIulgtPNRw9CIdpxU5SO612xzE
n8TSrt3xRlzAr6zIc3zJIGdXchv3N1MwiKR3NIYSniaMevLk4fy4RkqlWbT37Jlc
JKCjeQIDAQABo4IBazCCAWcwCQYDVR0TBAIwADAtBglghkgBhvhCAQ0EIBYeRWFz
eS1SU0EgR2VuZXJhdGVkIENlcnRpZmljYXRlMB0GA1UdDgQWBBQIwvWAGOFr/vkc
EXEohPCg9GLFoDCB6QYDVR0jBIHhMIHegBTvOI0UUFinW02cF3L837msp1GwEKGB
uqSBtzCBtDELMAkGA1UEBhMCVVMxCzAJBgNVBAgTAkNBMRUwEwYDVQQHEwxTYW5G
cmFuY2lzY28xFTATBgNVBAoTDFBpeGdsbywgSW5jLjEQMA4GA1UECxMHVlBOLUNJ
RTEaMBgGA1UEAxMRdHVubmVsLnBpeGdsby5jb20xHDAaBgNVBCkTE0JhbGEgQ2hh
bmRyYXNla2FyYW4xHjAcBgkqhkiG9w0BCQEWD2JhbGFAcGl4Z2xvLmNvbYIJAKbb
xoOA5qB5MBMGA1UdJQQMMAoGCCsGAQUFBwMCMAsGA1UdDwQEAwIHgDANBgkqhkiG
9w0BAQUFAAOCAgEANHAEdvi1Q+C9VGxu6sIg8AoW/bX3NoapBceH488W30D5Obb8
3GAiqA45+Gw51e+5EZZFWIwTNCXd5zke7iDPIqPtI26X25zGouPOr6KaZm6xbl5x
MVmB5aPCiy6Dw0BICpqLMneZDDsgYhxVQzZMstcm3Fw0/4AFg0ocManIKS1KMnZv
iIx2T5iVMMOkirR4FFDLNkUCzzY+DbpWsUNCXd1/rGOelGGHmB8f8APbBzPFfGvs
Q3YS9wS9ozdsk/Ahe3N9/ME9BSKcLLOBh7TDqaAc/qo0Hq79xTUNiZPm3ZyfQxX/
c1EtUwHO6g8jerqaFzOIc2U1l7Qh6ZUziXwrG/MPuHsl+YbRogtLksR5JQrPdAqQ
IlONaAVlgaddA5ntXKlAyUfWFE5y+pawnb73vUrp4kZvIxnMCNuCukWMEafNQZYQ
B1OA6E8Vf+9O86WWVrdMfxcabjPU8zdCD/8ABkHYBEyJvQttjQ5yEPi8kKsVS2Ti
lDMoZpjERJVg5kMXQpoP307vNOG7H1g0bpgSx/9eswe84JBfU01pQWD/QUgAGnYR
kx3M/RC8Eaml+ItUqUP5M8kTlbOLPBt8AdtGG9yRBXWIGfAWepsQzDA6aQax3WNm
I6waSbSafxNRD1XQqHnmhkt7ywdOKR3HivqiQjl13JVdna4SgCy5A4OiSJI=
-----END CERTIFICATE-----
