Certificate:
    Data:
        Version: 3 (0x2)
        Serial Number: 667 (0x29b)
    Signature Algorithm: sha1WithRSAEncryption
        Issuer: C=US, ST=CA, L=SanFrancisco, O=Pixglo, Inc., OU=VPN-CIE, CN=tunnel.pixglo.com/name=Bala Chandrasekaran/emailAddress=bala@pixglo.com
        Validity
            Not Before: Feb 14 06:39:50 2018 GMT
            Not After : Feb 12 06:39:50 2028 GMT
        Subject: C=US, ST=CA, L=SanFrancisco, O=Pixglo, Inc., OU=VPN-CIE, CN=cie666/name=Bala Chandrasekaran/emailAddress=bala@pixglo.com
        Subject Public Key Info:
            Public Key Algorithm: rsaEncryption
                Public-Key: (4096 bit)
                Modulus:
                    00:b4:3b:e4:62:f3:07:08:31:fc:df:23:a3:99:59:
                    62:66:fb:fb:5d:e2:46:bd:8b:6b:c0:86:31:40:15:
                    03:6e:45:31:8a:22:2a:af:c7:ba:50:2e:23:6a:e5:
                    e4:92:d0:0a:29:25:96:3a:79:4c:85:c6:4d:9e:59:
                    c2:ed:3c:d6:97:0d:6a:0b:c7:f0:70:fa:91:55:4a:
                    73:8f:60:26:de:a8:34:7a:6b:4d:1a:92:ce:c7:a6:
                    a3:82:f4:97:90:75:46:9d:18:58:12:42:5b:bc:08:
                    5f:c0:71:74:69:da:5b:0d:ee:79:bb:3c:6f:d4:76:
                    2b:cf:3a:f6:10:d8:b9:b2:3e:2e:1e:7c:22:78:00:
                    6e:c9:74:91:97:fd:1c:39:b1:0f:8e:97:42:0c:47:
                    c3:7a:7c:93:d6:7a:8f:65:61:29:b3:ee:c5:a0:8c:
                    d8:a7:3a:17:52:0c:7f:eb:ce:2f:01:cc:7e:0b:35:
                    f4:45:3f:f3:24:2a:04:a2:5b:a1:92:7d:33:ba:b1:
                    4e:85:5d:32:39:53:45:a7:07:b0:cd:d5:06:51:e3:
                    e5:7b:c8:5f:3f:9c:5b:bd:4a:0a:a8:a0:f9:f4:58:
                    6a:20:b3:98:ed:0a:7c:b4:c9:40:9d:7b:1e:07:c7:
                    ea:4a:83:2d:43:f3:ff:02:2d:ad:de:49:7b:99:85:
                    79:84:5a:cd:67:d9:c4:1e:63:22:a1:f4:63:fc:2a:
                    87:b7:9d:c0:ee:25:c9:66:ab:be:64:d1:a9:f1:2a:
                    8f:29:09:21:ee:92:92:15:2b:87:f7:b7:e3:10:27:
                    54:fd:62:72:54:1b:51:e2:b5:e6:1d:5d:fe:bc:b7:
                    b1:2a:6a:39:25:14:bc:8b:ea:fd:0d:53:36:5d:d6:
                    6e:67:c5:3c:04:ab:d5:8f:0c:80:ae:8e:79:56:e7:
                    af:51:8f:c2:f5:97:a8:a4:ec:11:a2:8a:08:96:9c:
                    af:fe:62:24:1e:15:cb:f2:96:ef:72:54:50:01:17:
                    d6:7f:97:b6:ac:d7:48:09:a3:c3:08:eb:ae:42:1d:
                    45:72:00:d9:df:4b:e8:c3:11:21:fa:a3:b2:94:28:
                    fe:20:d0:f2:e5:11:f6:0f:91:56:a7:52:c7:45:9a:
                    32:f9:e4:50:dc:8b:14:af:1c:19:08:3f:74:a2:17:
                    bf:06:9b:16:39:8e:b4:80:f5:be:9b:66:e4:98:5c:
                    50:93:e1:e5:be:89:1b:27:5e:b6:91:0c:4f:ff:0b:
                    9c:40:6f:7d:ad:b4:b6:a4:cf:7b:61:1c:79:ab:a1:
                    cd:20:bd:4a:62:a0:4d:bc:66:86:62:2c:03:99:dd:
                    c9:6f:01:d7:21:29:e4:97:1c:95:1f:0c:0b:c6:73:
                    13:cf:e1
                Exponent: 65537 (0x10001)
        X509v3 extensions:
            X509v3 Basic Constraints: 
                CA:FALSE
            Netscape Comment: 
                Easy-RSA Generated Certificate
            X509v3 Subject Key Identifier: 
                04:4C:4E:22:81:FC:24:A9:63:20:EB:F4:1B:76:A2:E3:97:1F:28:D0
            X509v3 Authority Key Identifier: 
                keyid:EF:38:8D:14:50:58:A7:5B:4D:9C:17:72:FC:DF:B9:AC:A7:51:B0:10
                DirName:/C=US/ST=CA/L=SanFrancisco/O=Pixglo, Inc./OU=VPN-CIE/CN=tunnel.pixglo.com/name=Bala Chandrasekaran/emailAddress=bala@pixglo.com
                serial:A6:DB:C6:83:80:E6:A0:79

            X509v3 Extended Key Usage: 
                TLS Web Client Authentication
            X509v3 Key Usage: 
                Digital Signature
    Signature Algorithm: sha1WithRSAEncryption
         b1:f9:3b:d3:ff:2f:9b:a9:43:39:cf:4a:10:8e:ce:e1:8c:3e:
         c8:d7:53:fe:76:b0:ad:f5:e4:70:c3:c4:39:6d:cd:b3:32:37:
         93:4f:b1:45:da:97:94:50:91:85:c3:dd:5c:1b:b3:9b:7f:16:
         4e:83:62:f0:48:e0:07:77:76:3f:52:b9:56:8e:ff:4c:18:87:
         de:bf:ad:ac:0b:6e:cd:33:37:62:e0:98:10:1b:50:50:03:06:
         f6:cc:aa:ea:25:a1:ef:ff:31:18:30:87:04:84:e3:f0:14:d1:
         47:3a:97:8e:5b:be:61:43:90:a2:69:20:86:69:4b:16:02:38:
         d1:8a:5b:78:0e:94:06:38:bd:e7:20:61:b0:cb:b2:dc:c9:70:
         9a:3f:72:90:84:7b:4a:6a:fd:4d:e1:b1:fe:70:0c:bd:ef:56:
         74:69:5d:85:76:2a:1e:e3:42:41:d5:73:1d:cc:7f:f9:ab:e3:
         eb:45:6f:10:d5:99:b5:c0:fa:75:63:68:2f:5e:eb:c3:46:22:
         4d:c2:75:ac:fc:8f:ab:0b:60:11:be:b6:e9:b1:86:43:a4:a6:
         68:2a:94:f2:20:38:84:ba:52:b6:17:e3:79:18:75:2d:95:b2:
         04:5b:3b:b0:19:67:6f:13:88:b6:31:70:76:6a:fd:2d:58:18:
         7e:a7:1b:0b:d4:56:66:9a:0e:35:0f:9f:96:82:15:42:5c:82:
         71:12:3b:17:c2:18:3b:8a:84:22:4d:13:61:b4:f2:d5:3f:0c:
         31:06:54:1f:b5:a2:1e:bb:de:90:95:b3:60:5c:8a:a3:50:63:
         ad:4e:84:74:e6:53:66:9e:3e:88:21:4b:96:c4:7e:74:72:5f:
         3c:f3:9a:2d:df:ef:98:25:1b:04:37:48:51:ec:b8:d8:b0:5d:
         c9:0a:04:fc:fa:a3:d7:59:a1:6a:81:d0:22:36:1b:0f:f4:be:
         0c:c3:8b:e4:08:e9:d4:2c:83:bf:21:88:58:82:61:43:89:b5:
         ad:5c:00:8b:86:0e:f9:d5:0d:26:f7:d8:38:16:b7:56:68:97:
         5a:29:97:97:cd:5e:ae:c7:13:5e:c7:91:d6:ac:7c:22:c9:40:
         0d:2f:d9:fa:7c:b9:ef:ea:b4:8b:21:a3:0a:96:5a:9b:85:8c:
         9e:e3:15:d8:a2:d4:4e:45:40:67:3f:d9:84:db:88:54:b3:60:
         6d:16:26:05:61:cd:6b:c7:f7:5d:92:b4:0a:cc:51:46:1b:34:
         9f:05:fb:68:64:36:34:ea:ae:4f:d0:74:0a:e6:fd:15:f0:0c:
         fa:ee:1f:31:70:93:05:bc:f3:d2:4c:90:ce:d6:0b:60:89:14:
         cd:57:fc:b4:26:ac:4e:33
-----BEGIN CERTIFICATE-----
MIIHSDCCBTCgAwIBAgICApswDQYJKoZIhvcNAQEFBQAwgbQxCzAJBgNVBAYTAlVT
MQswCQYDVQQIEwJDQTEVMBMGA1UEBxMMU2FuRnJhbmNpc2NvMRUwEwYDVQQKEwxQ
aXhnbG8sIEluYy4xEDAOBgNVBAsTB1ZQTi1DSUUxGjAYBgNVBAMTEXR1bm5lbC5w
aXhnbG8uY29tMRwwGgYDVQQpExNCYWxhIENoYW5kcmFzZWthcmFuMR4wHAYJKoZI
hvcNAQkBFg9iYWxhQHBpeGdsby5jb20wHhcNMTgwMjE0MDYzOTUwWhcNMjgwMjEy
MDYzOTUwWjCBqTELMAkGA1UEBhMCVVMxCzAJBgNVBAgTAkNBMRUwEwYDVQQHEwxT
YW5GcmFuY2lzY28xFTATBgNVBAoTDFBpeGdsbywgSW5jLjEQMA4GA1UECxMHVlBO
LUNJRTEPMA0GA1UEAxMGY2llNjY2MRwwGgYDVQQpExNCYWxhIENoYW5kcmFzZWth
cmFuMR4wHAYJKoZIhvcNAQkBFg9iYWxhQHBpeGdsby5jb20wggIiMA0GCSqGSIb3
DQEBAQUAA4ICDwAwggIKAoICAQC0O+Ri8wcIMfzfI6OZWWJm+/td4ka9i2vAhjFA
FQNuRTGKIiqvx7pQLiNq5eSS0AopJZY6eUyFxk2eWcLtPNaXDWoLx/Bw+pFVSnOP
YCbeqDR6a00aks7HpqOC9JeQdUadGFgSQlu8CF/AcXRp2lsN7nm7PG/UdivPOvYQ
2LmyPi4efCJ4AG7JdJGX/Rw5sQ+Ol0IMR8N6fJPWeo9lYSmz7sWgjNinOhdSDH/r
zi8BzH4LNfRFP/MkKgSiW6GSfTO6sU6FXTI5U0WnB7DN1QZR4+V7yF8/nFu9Sgqo
oPn0WGogs5jtCny0yUCdex4Hx+pKgy1D8/8CLa3eSXuZhXmEWs1n2cQeYyKh9GP8
Koe3ncDuJclmq75k0anxKo8pCSHukpIVK4f3t+MQJ1T9YnJUG1HiteYdXf68t7Eq
ajklFLyL6v0NUzZd1m5nxTwEq9WPDICujnlW569Rj8L1l6ik7BGiigiWnK/+YiQe
Fcvylu9yVFABF9Z/l7as10gJo8MI665CHUVyANnfS+jDESH6o7KUKP4g0PLlEfYP
kVanUsdFmjL55FDcixSvHBkIP3SiF78GmxY5jrSA9b6bZuSYXFCT4eW+iRsnXraR
DE//C5xAb32ttLakz3thHHmroc0gvUpioE28ZoZiLAOZ3clvAdchKeSXHJUfDAvG
cxPP4QIDAQABo4IBazCCAWcwCQYDVR0TBAIwADAtBglghkgBhvhCAQ0EIBYeRWFz
eS1SU0EgR2VuZXJhdGVkIENlcnRpZmljYXRlMB0GA1UdDgQWBBQETE4igfwkqWMg
6/QbdqLjlx8o0DCB6QYDVR0jBIHhMIHegBTvOI0UUFinW02cF3L837msp1GwEKGB
uqSBtzCBtDELMAkGA1UEBhMCVVMxCzAJBgNVBAgTAkNBMRUwEwYDVQQHEwxTYW5G
cmFuY2lzY28xFTATBgNVBAoTDFBpeGdsbywgSW5jLjEQMA4GA1UECxMHVlBOLUNJ
RTEaMBgGA1UEAxMRdHVubmVsLnBpeGdsby5jb20xHDAaBgNVBCkTE0JhbGEgQ2hh
bmRyYXNla2FyYW4xHjAcBgkqhkiG9w0BCQEWD2JhbGFAcGl4Z2xvLmNvbYIJAKbb
xoOA5qB5MBMGA1UdJQQMMAoGCCsGAQUFBwMCMAsGA1UdDwQEAwIHgDANBgkqhkiG
9w0BAQUFAAOCAgEAsfk70/8vm6lDOc9KEI7O4Yw+yNdT/nawrfXkcMPEOW3NszI3
k0+xRdqXlFCRhcPdXBuzm38WToNi8EjgB3d2P1K5Vo7/TBiH3r+trAtuzTM3YuCY
EBtQUAMG9syq6iWh7/8xGDCHBITj8BTRRzqXjlu+YUOQomkghmlLFgI40YpbeA6U
Bji95yBhsMuy3Mlwmj9ykIR7Smr9TeGx/nAMve9WdGldhXYqHuNCQdVzHcx/+avj
60VvENWZtcD6dWNoL17rw0YiTcJ1rPyPqwtgEb626bGGQ6SmaCqU8iA4hLpSthfj
eRh1LZWyBFs7sBlnbxOItjFwdmr9LVgYfqcbC9RWZpoONQ+floIVQlyCcRI7F8IY
O4qEIk0TYbTy1T8MMQZUH7WiHrvekJWzYFyKo1BjrU6EdOZTZp4+iCFLlsR+dHJf
PPOaLd/vmCUbBDdIUey42LBdyQoE/Pqj11mhaoHQIjYbD/S+DMOL5Ajp1CyDvyGI
WIJhQ4m1rVwAi4YO+dUNJvfYOBa3VmiXWimXl81erscTXseR1qx8IslADS/Z+ny5
7+q0iyGjCpZam4WMnuMV2KLUTkVAZz/ZhNuIVLNgbRYmBWHNa8f3XZK0CsxRRhs0
nwX7aGQ2NOquT9B0Cub9FfAM+u4fMXCTBbzz0kyQztYLYIkUzVf8tCasTjM=
-----END CERTIFICATE-----
