Certificate:
    Data:
        Version: 3 (0x2)
        Serial Number: 666 (0x29a)
    Signature Algorithm: sha1WithRSAEncryption
        Issuer: C=US, ST=CA, L=SanFrancisco, O=Pixglo, Inc., OU=VPN-CIE, CN=tunnel.pixglo.com/name=Bala Chandrasekaran/emailAddress=bala@pixglo.com
        Validity
            Not Before: Feb 14 06:39:49 2018 GMT
            Not After : Feb 12 06:39:49 2028 GMT
        Subject: C=US, ST=CA, L=SanFrancisco, O=Pixglo, Inc., OU=VPN-CIE, CN=cie665/name=Bala Chandrasekaran/emailAddress=bala@pixglo.com
        Subject Public Key Info:
            Public Key Algorithm: rsaEncryption
                Public-Key: (4096 bit)
                Modulus:
                    00:cb:ad:ea:2f:3d:e6:d0:bb:70:8d:ae:03:59:4b:
                    ef:f3:f4:8d:34:0f:81:71:0c:38:e0:86:c7:f5:e6:
                    60:45:e6:b2:8c:0a:2b:f7:6e:c9:74:30:9f:0e:15:
                    0a:0f:90:b3:85:cf:7a:a0:da:de:ed:4e:81:86:a0:
                    dc:b9:52:9e:a6:9f:4b:c6:0c:97:33:f1:ef:de:b5:
                    ea:63:e2:9d:7b:62:8c:72:81:27:33:76:cb:c7:92:
                    75:33:cd:f2:86:bf:20:97:7b:3f:de:5e:f6:d2:75:
                    16:3d:9e:cf:a0:1d:dc:09:3b:48:4b:18:14:b4:47:
                    48:9c:0d:b3:d6:74:ad:9b:94:a9:6b:b6:1f:51:25:
                    c3:5d:23:22:f3:33:40:01:dc:1f:4b:a8:4d:9a:f2:
                    0b:c6:bd:27:31:c7:19:25:5c:59:06:81:11:ca:89:
                    5a:6f:c1:1c:9c:11:34:8e:10:2c:f5:67:20:94:a1:
                    96:97:d3:e9:6b:0d:72:43:13:c6:41:dd:2b:31:44:
                    45:04:40:1b:c2:19:47:73:6a:20:b8:3b:c2:95:a0:
                    11:a2:89:80:57:66:f2:ec:6f:a9:1b:e7:c8:9e:6c:
                    2f:57:4b:3a:a9:d8:ef:1f:c2:3b:38:2d:98:07:01:
                    fc:3e:64:56:38:79:df:07:f3:49:42:97:f1:87:e5:
                    71:dd:23:28:e1:2d:3f:48:3f:4c:5b:35:0c:ec:16:
                    5c:51:68:6f:24:9b:e5:ef:0b:e2:fd:d1:a7:57:55:
                    09:0e:e4:cf:48:ad:9e:f4:03:bd:fe:72:1e:53:e8:
                    0d:30:ec:2d:3d:79:ae:bd:54:92:6f:b0:07:c5:ed:
                    fd:fd:0e:df:57:dd:1f:6d:2c:21:19:c7:e0:cb:0a:
                    6e:ca:51:d1:06:8f:b7:c1:33:3d:12:2a:8e:e5:0d:
                    56:9a:39:ca:6d:8e:45:70:8a:27:60:ec:c0:ed:02:
                    61:a2:23:4f:ca:a9:c0:39:ae:78:c7:5d:76:24:8d:
                    71:33:97:1f:4f:45:6e:83:15:7a:ce:a7:62:33:f8:
                    68:b6:dd:31:76:75:2e:34:0b:84:77:47:46:94:00:
                    05:fe:60:dd:06:bf:77:96:18:a2:7f:52:d3:9b:89:
                    58:15:b4:98:68:af:7e:dd:99:5d:24:47:f1:fb:eb:
                    37:cf:bc:8a:e4:2e:fc:a2:74:57:bc:6f:ec:c2:22:
                    ee:99:bd:75:19:c3:4f:e5:ce:9c:b6:65:a1:5a:3c:
                    d8:26:fe:97:f3:38:ec:4e:90:fb:97:91:5b:e5:3b:
                    f7:45:6e:53:be:a5:e5:7f:99:87:19:db:88:94:a0:
                    e0:4c:f7:f3:fb:c8:f8:1e:d1:2f:4b:0c:fb:e3:48:
                    70:59:91
                Exponent: 65537 (0x10001)
        X509v3 extensions:
            X509v3 Basic Constraints: 
                CA:FALSE
            Netscape Comment: 
                Easy-RSA Generated Certificate
            X509v3 Subject Key Identifier: 
                E7:0E:DA:04:59:1C:5D:4C:44:9F:A4:77:F7:03:1B:48:E6:EC:5D:7B
            X509v3 Authority Key Identifier: 
                keyid:EF:38:8D:14:50:58:A7:5B:4D:9C:17:72:FC:DF:B9:AC:A7:51:B0:10
                DirName:/C=US/ST=CA/L=SanFrancisco/O=Pixglo, Inc./OU=VPN-CIE/CN=tunnel.pixglo.com/name=Bala Chandrasekaran/emailAddress=bala@pixglo.com
                serial:A6:DB:C6:83:80:E6:A0:79

            X509v3 Extended Key Usage: 
                TLS Web Client Authentication
            X509v3 Key Usage: 
                Digital Signature
    Signature Algorithm: sha1WithRSAEncryption
         8c:f2:fd:f9:61:42:06:62:3f:5e:eb:b1:92:6f:4a:a3:4b:b9:
         0f:e6:5f:2e:86:5b:b5:d7:2a:59:ff:3a:99:b6:bd:2d:42:ef:
         25:95:32:0a:b9:a9:13:50:45:6c:e8:30:47:e3:5f:f0:f1:1d:
         d3:8e:75:c1:6b:a8:11:06:c2:0b:1b:ee:6a:9a:c5:d1:5a:8a:
         f0:2c:0a:99:fe:74:98:fc:2e:39:70:7f:78:a0:aa:61:2f:5a:
         7d:45:3b:67:65:06:cd:73:c7:5e:d5:96:08:d5:e1:30:93:ef:
         a1:71:10:95:6e:44:c7:99:7d:9f:18:92:fe:b6:53:51:c3:ad:
         4e:c0:37:2b:f7:0b:fe:ed:5e:63:2d:6c:fd:0a:a1:50:39:ba:
         8f:c7:a0:12:5b:d4:60:83:e3:e9:a9:ac:ab:14:6f:39:60:c6:
         ff:72:74:d5:3e:b9:4a:85:aa:56:c0:7d:c3:1a:36:5d:54:1b:
         56:12:8a:77:ce:c0:d1:06:79:0a:54:02:27:eb:d9:59:9d:68:
         36:fc:51:05:4a:a5:b9:01:c9:98:37:a6:b2:ef:8b:c6:82:91:
         f7:79:b8:61:f1:79:57:fd:ae:49:4e:a5:66:b3:67:8a:d3:be:
         7e:2a:ae:0a:ef:40:04:7c:fa:47:1a:76:a8:24:f8:14:24:ca:
         84:a9:c7:75:73:76:1b:db:d4:7e:f3:7e:9e:46:08:48:6b:26:
         33:09:27:64:e6:42:ed:e4:f2:de:e1:39:53:64:89:3f:cc:41:
         a8:9a:60:fc:a7:39:c7:cc:b3:3b:70:dc:ba:01:37:f4:34:5b:
         ab:88:37:a4:45:1c:7c:32:65:eb:44:60:2d:f2:16:89:a6:b0:
         22:ba:2b:2d:d4:37:ee:61:ea:be:f5:a8:1f:20:3a:0a:f2:92:
         d6:88:6a:c5:2f:86:6b:d1:6f:43:0b:9b:75:48:0b:5f:40:9d:
         63:54:ef:60:fe:10:22:1b:3a:37:19:d2:0f:18:b9:1e:78:c1:
         2b:fe:d2:85:5d:b4:55:57:71:57:a5:a9:08:6d:7c:0a:e6:68:
         a6:c6:c3:5a:a5:d9:26:84:91:99:62:a4:bf:52:27:1d:c3:c4:
         f2:a7:41:43:83:f3:66:c9:5c:73:79:eb:3b:ea:f2:54:23:73:
         40:a7:d7:f4:bf:c7:55:7c:fb:90:dd:b0:92:37:6c:38:ca:64:
         11:71:76:70:7c:a2:11:7c:d1:be:50:e9:cd:73:90:7b:e8:bd:
         5d:a6:7d:e2:bc:d9:da:d6:b9:fc:80:af:c4:b1:73:5e:41:9b:
         71:0a:3d:59:8a:4e:6b:7b:69:b5:d1:92:49:f0:86:93:86:32:
         7c:8b:49:54:47:e5:af:e6
-----BEGIN CERTIFICATE-----
MIIHSDCCBTCgAwIBAgICApowDQYJKoZIhvcNAQEFBQAwgbQxCzAJBgNVBAYTAlVT
MQswCQYDVQQIEwJDQTEVMBMGA1UEBxMMU2FuRnJhbmNpc2NvMRUwEwYDVQQKEwxQ
aXhnbG8sIEluYy4xEDAOBgNVBAsTB1ZQTi1DSUUxGjAYBgNVBAMTEXR1bm5lbC5w
aXhnbG8uY29tMRwwGgYDVQQpExNCYWxhIENoYW5kcmFzZWthcmFuMR4wHAYJKoZI
hvcNAQkBFg9iYWxhQHBpeGdsby5jb20wHhcNMTgwMjE0MDYzOTQ5WhcNMjgwMjEy
MDYzOTQ5WjCBqTELMAkGA1UEBhMCVVMxCzAJBgNVBAgTAkNBMRUwEwYDVQQHEwxT
YW5GcmFuY2lzY28xFTATBgNVBAoTDFBpeGdsbywgSW5jLjEQMA4GA1UECxMHVlBO
LUNJRTEPMA0GA1UEAxMGY2llNjY1MRwwGgYDVQQpExNCYWxhIENoYW5kcmFzZWth
cmFuMR4wHAYJKoZIhvcNAQkBFg9iYWxhQHBpeGdsby5jb20wggIiMA0GCSqGSIb3
DQEBAQUAA4ICDwAwggIKAoICAQDLreovPebQu3CNrgNZS+/z9I00D4FxDDjghsf1
5mBF5rKMCiv3bsl0MJ8OFQoPkLOFz3qg2t7tToGGoNy5Up6mn0vGDJcz8e/etepj
4p17YoxygSczdsvHknUzzfKGvyCXez/eXvbSdRY9ns+gHdwJO0hLGBS0R0icDbPW
dK2blKlrth9RJcNdIyLzM0AB3B9LqE2a8gvGvScxxxklXFkGgRHKiVpvwRycETSO
ECz1ZyCUoZaX0+lrDXJDE8ZB3SsxREUEQBvCGUdzaiC4O8KVoBGiiYBXZvLsb6kb
58iebC9XSzqp2O8fwjs4LZgHAfw+ZFY4ed8H80lCl/GH5XHdIyjhLT9IP0xbNQzs
FlxRaG8km+XvC+L90adXVQkO5M9IrZ70A73+ch5T6A0w7C09ea69VJJvsAfF7f39
Dt9X3R9tLCEZx+DLCm7KUdEGj7fBMz0SKo7lDVaaOcptjkVwiidg7MDtAmGiI0/K
qcA5rnjHXXYkjXEzlx9PRW6DFXrOp2Iz+Gi23TF2dS40C4R3R0aUAAX+YN0Gv3eW
GKJ/UtObiVgVtJhor37dmV0kR/H76zfPvIrkLvyidFe8b+zCIu6ZvXUZw0/lzpy2
ZaFaPNgm/pfzOOxOkPuXkVvlO/dFblO+peV/mYcZ24iUoOBM9/P7yPge0S9LDPvj
SHBZkQIDAQABo4IBazCCAWcwCQYDVR0TBAIwADAtBglghkgBhvhCAQ0EIBYeRWFz
eS1SU0EgR2VuZXJhdGVkIENlcnRpZmljYXRlMB0GA1UdDgQWBBTnDtoEWRxdTESf
pHf3AxtI5uxdezCB6QYDVR0jBIHhMIHegBTvOI0UUFinW02cF3L837msp1GwEKGB
uqSBtzCBtDELMAkGA1UEBhMCVVMxCzAJBgNVBAgTAkNBMRUwEwYDVQQHEwxTYW5G
cmFuY2lzY28xFTATBgNVBAoTDFBpeGdsbywgSW5jLjEQMA4GA1UECxMHVlBOLUNJ
RTEaMBgGA1UEAxMRdHVubmVsLnBpeGdsby5jb20xHDAaBgNVBCkTE0JhbGEgQ2hh
bmRyYXNla2FyYW4xHjAcBgkqhkiG9w0BCQEWD2JhbGFAcGl4Z2xvLmNvbYIJAKbb
xoOA5qB5MBMGA1UdJQQMMAoGCCsGAQUFBwMCMAsGA1UdDwQEAwIHgDANBgkqhkiG
9w0BAQUFAAOCAgEAjPL9+WFCBmI/Xuuxkm9Ko0u5D+ZfLoZbtdcqWf86mba9LULv
JZUyCrmpE1BFbOgwR+Nf8PEd0451wWuoEQbCCxvuaprF0VqK8CwKmf50mPwuOXB/
eKCqYS9afUU7Z2UGzXPHXtWWCNXhMJPvoXEQlW5Ex5l9nxiS/rZTUcOtTsA3K/cL
/u1eYy1s/QqhUDm6j8egElvUYIPj6amsqxRvOWDG/3J01T65SoWqVsB9wxo2XVQb
VhKKd87A0QZ5ClQCJ+vZWZ1oNvxRBUqluQHJmDemsu+LxoKR93m4YfF5V/2uSU6l
ZrNnitO+fiquCu9ABHz6Rxp2qCT4FCTKhKnHdXN2G9vUfvN+nkYISGsmMwknZOZC
7eTy3uE5U2SJP8xBqJpg/Kc5x8yzO3DcugE39DRbq4g3pEUcfDJl60RgLfIWiaaw
IrorLdQ37mHqvvWoHyA6CvKS1ohqxS+Ga9FvQwubdUgLX0CdY1TvYP4QIhs6NxnS
Dxi5HnjBK/7ShV20VVdxV6WpCG18CuZopsbDWqXZJoSRmWKkv1InHcPE8qdBQ4Pz
Zslcc3nrO+ryVCNzQKfX9L/HVXz7kN2wkjdsOMpkEXF2cHyiEXzRvlDpzXOQe+i9
XaZ94rzZ2ta5/ICvxLFzXkGbcQo9WYpOa3tptdGSSfCGk4YyfItJVEflr+Y=
-----END CERTIFICATE-----
