Certificate:
    Data:
        Version: 3 (0x2)
        Serial Number: 615 (0x267)
    Signature Algorithm: sha1WithRSAEncryption
        Issuer: C=US, ST=CA, L=SanFrancisco, O=Pixglo, Inc., OU=VPN-CIE, CN=tunnel.pixglo.com/name=Bala Chandrasekaran/emailAddress=bala@pixglo.com
        Validity
            Not Before: Feb 14 06:38:29 2018 GMT
            Not After : Feb 12 06:38:29 2028 GMT
        Subject: C=US, ST=CA, L=SanFrancisco, O=Pixglo, Inc., OU=VPN-CIE, CN=cie614/name=Bala Chandrasekaran/emailAddress=bala@pixglo.com
        Subject Public Key Info:
            Public Key Algorithm: rsaEncryption
                Public-Key: (4096 bit)
                Modulus:
                    00:f1:99:d1:bb:cf:4f:25:30:47:52:77:61:ee:b5:
                    e0:d3:7c:34:45:a8:22:48:32:67:93:0d:69:74:1b:
                    42:17:bf:4e:a9:f3:b6:0c:ef:b7:f7:c3:e0:23:cf:
                    df:16:85:48:26:fe:7c:93:63:28:80:91:56:06:e0:
                    92:ac:83:bf:01:40:88:53:bf:69:1c:6e:8b:8d:9f:
                    77:a0:fc:cd:f6:92:30:ae:7d:2e:4d:5a:90:5d:a0:
                    e4:95:4d:be:73:b5:84:0c:c2:b1:a2:88:6a:bd:72:
                    81:21:1d:18:80:e8:92:9f:7a:71:e8:26:e7:6d:f2:
                    73:b5:17:b7:12:db:a6:0b:7c:76:1b:19:c9:f4:20:
                    a9:b3:54:86:24:07:61:94:ac:a5:b8:57:f2:e3:1f:
                    de:c0:fc:82:09:e0:d6:8c:fc:1c:d2:d0:a7:b0:de:
                    30:6b:e0:20:60:4d:75:1e:7c:b1:0f:a0:37:7b:f8:
                    5a:80:af:7a:d1:67:02:0f:8f:ca:2c:1b:8d:74:6d:
                    c5:9b:ba:c5:81:40:d7:64:56:bf:6d:95:26:14:8c:
                    e1:ac:50:d1:90:c7:6b:c8:07:3b:c0:59:b6:b3:f1:
                    a8:44:1d:de:a2:7c:46:1a:f2:fd:39:d1:ed:c3:9e:
                    86:44:5b:5c:27:94:8d:60:8f:c9:3e:f0:1a:b7:89:
                    89:8c:22:9b:aa:ea:54:fd:c7:2e:de:4f:80:12:71:
                    23:38:2d:95:3d:7b:f9:e8:95:37:9a:77:71:e5:8e:
                    a3:45:bf:57:4e:83:a7:fe:8b:62:5d:90:ec:aa:9f:
                    cf:78:54:0e:5a:ca:9c:61:26:cc:23:92:5f:be:86:
                    e2:8b:67:26:d0:de:b6:e0:8b:e2:04:5d:cd:b9:c8:
                    40:ca:ea:7a:2f:31:5c:ee:71:d6:66:69:f1:e5:1e:
                    32:bf:fa:ff:16:43:9a:b1:17:aa:f7:c4:6f:7e:39:
                    4a:90:5d:49:b0:2f:c7:58:cd:e5:4f:56:b0:6d:dc:
                    d0:f1:63:ed:11:c8:54:f5:bc:01:cf:fc:b5:dd:cf:
                    89:e7:c1:f5:d9:b5:c5:88:86:55:25:f4:77:eb:a9:
                    a2:59:c1:43:ad:85:b6:05:22:1b:47:20:86:70:5f:
                    3e:0c:f7:4d:ac:18:8f:f2:8c:9b:c0:cf:e1:4a:ea:
                    fd:16:94:d4:1f:97:2c:82:35:52:27:e9:d6:fd:ae:
                    0c:3c:f6:44:73:27:63:6e:05:84:b7:7a:29:eb:71:
                    00:ff:26:9d:4d:2d:53:ef:e3:74:32:31:af:df:3a:
                    a7:21:05:4f:aa:6a:2a:3c:dd:be:b5:bc:1d:7f:d6:
                    f6:61:39:bb:63:00:e7:8b:ce:38:4a:28:94:c9:99:
                    f6:c4:25
                Exponent: 65537 (0x10001)
        X509v3 extensions:
            X509v3 Basic Constraints: 
                CA:FALSE
            Netscape Comment: 
                Easy-RSA Generated Certificate
            X509v3 Subject Key Identifier: 
                CF:B9:C6:9F:95:45:2B:5E:BA:39:62:5B:3B:67:2B:9A:AE:C1:D2:D1
            X509v3 Authority Key Identifier: 
                keyid:EF:38:8D:14:50:58:A7:5B:4D:9C:17:72:FC:DF:B9:AC:A7:51:B0:10
                DirName:/C=US/ST=CA/L=SanFrancisco/O=Pixglo, Inc./OU=VPN-CIE/CN=tunnel.pixglo.com/name=Bala Chandrasekaran/emailAddress=bala@pixglo.com
                serial:A6:DB:C6:83:80:E6:A0:79

            X509v3 Extended Key Usage: 
                TLS Web Client Authentication
            X509v3 Key Usage: 
                Digital Signature
    Signature Algorithm: sha1WithRSAEncryption
         bb:02:f0:77:79:f5:2d:3e:45:bb:2f:57:fb:7b:98:1b:c5:fd:
         a1:a4:24:aa:2f:99:10:64:af:80:b9:4e:ad:67:d4:bb:b9:0c:
         30:10:d5:03:48:16:62:ed:d5:c4:0a:48:ed:fe:2c:98:d3:d2:
         82:8e:b7:5f:46:39:2e:4c:f4:1a:f2:d6:e8:f3:35:db:15:6b:
         dc:a3:25:71:3e:39:a5:86:88:c1:16:3f:4c:46:29:77:a2:a9:
         57:3f:9c:39:89:0b:df:bd:b8:55:e8:a7:61:1a:74:8d:57:19:
         eb:7e:4d:42:82:e9:4c:b8:88:02:8d:92:20:6b:4d:57:3a:d2:
         20:9f:e5:7e:67:d7:42:3f:e6:db:61:18:2a:f5:a9:a9:82:7c:
         15:e9:96:e1:c0:72:2a:90:69:32:6f:f0:06:75:c1:1f:85:2d:
         fb:bf:d2:68:2b:4e:d3:11:35:ea:bf:88:6c:bc:3e:44:10:cf:
         29:a9:0d:24:68:65:56:0e:96:c0:22:42:0e:09:85:ad:76:33:
         a4:7d:85:ce:8d:c2:e7:93:03:e9:4a:a9:2e:82:0c:dd:33:19:
         50:18:d1:98:f1:ba:c1:d1:18:f1:bf:7b:5e:5d:5d:24:79:ae:
         05:b8:5f:f1:cc:10:99:ca:53:46:da:85:db:8a:af:91:e1:9f:
         e9:c1:e3:00:cd:27:6e:f1:47:9e:37:b4:6d:45:e3:7e:fe:87:
         d7:53:fd:3e:f9:0c:9e:b7:18:98:8b:af:12:3c:53:e1:9b:b5:
         d3:b4:85:b7:a6:f6:34:23:b3:f4:57:85:06:53:97:4f:87:ff:
         6d:ac:02:a3:bc:30:9b:e9:e2:9e:8e:cc:30:fe:29:aa:fd:ca:
         32:d7:53:5b:7d:69:a6:0a:65:fa:63:7c:a7:49:17:5a:ed:84:
         5e:74:36:4e:3f:36:45:3c:a7:0e:5b:1f:69:8b:6d:18:0c:2a:
         3d:b2:3b:3d:98:a6:e2:81:03:65:46:11:94:44:c8:8f:06:52:
         9d:09:24:3c:8e:62:0a:a6:0f:ce:86:c9:1e:ae:08:29:7c:b9:
         21:3c:34:b0:54:42:05:86:38:29:50:6d:37:c5:bd:ae:e1:f4:
         60:93:04:c1:b8:44:e7:f2:de:a8:af:e6:94:9b:13:fe:fa:10:
         0a:cf:b1:91:f0:13:e3:70:23:9d:6f:f2:08:30:61:be:36:2b:
         86:ec:b4:05:3b:ea:6d:40:c5:69:64:29:be:4a:83:94:64:e7:
         8a:99:85:9e:d0:88:0b:47:95:54:20:5c:90:19:eb:d8:bd:52:
         37:e9:0c:d7:2a:15:db:83:77:d3:ec:e7:5f:ed:c1:e8:b1:13:
         6d:7b:c9:3b:8b:ab:1d:27
-----BEGIN CERTIFICATE-----
MIIHSDCCBTCgAwIBAgICAmcwDQYJKoZIhvcNAQEFBQAwgbQxCzAJBgNVBAYTAlVT
MQswCQYDVQQIEwJDQTEVMBMGA1UEBxMMU2FuRnJhbmNpc2NvMRUwEwYDVQQKEwxQ
aXhnbG8sIEluYy4xEDAOBgNVBAsTB1ZQTi1DSUUxGjAYBgNVBAMTEXR1bm5lbC5w
aXhnbG8uY29tMRwwGgYDVQQpExNCYWxhIENoYW5kcmFzZWthcmFuMR4wHAYJKoZI
hvcNAQkBFg9iYWxhQHBpeGdsby5jb20wHhcNMTgwMjE0MDYzODI5WhcNMjgwMjEy
MDYzODI5WjCBqTELMAkGA1UEBhMCVVMxCzAJBgNVBAgTAkNBMRUwEwYDVQQHEwxT
YW5GcmFuY2lzY28xFTATBgNVBAoTDFBpeGdsbywgSW5jLjEQMA4GA1UECxMHVlBO
LUNJRTEPMA0GA1UEAxMGY2llNjE0MRwwGgYDVQQpExNCYWxhIENoYW5kcmFzZWth
cmFuMR4wHAYJKoZIhvcNAQkBFg9iYWxhQHBpeGdsby5jb20wggIiMA0GCSqGSIb3
DQEBAQUAA4ICDwAwggIKAoICAQDxmdG7z08lMEdSd2HuteDTfDRFqCJIMmeTDWl0
G0IXv06p87YM77f3w+Ajz98WhUgm/nyTYyiAkVYG4JKsg78BQIhTv2kcbouNn3eg
/M32kjCufS5NWpBdoOSVTb5ztYQMwrGiiGq9coEhHRiA6JKfenHoJudt8nO1F7cS
26YLfHYbGcn0IKmzVIYkB2GUrKW4V/LjH97A/IIJ4NaM/BzS0Kew3jBr4CBgTXUe
fLEPoDd7+FqAr3rRZwIPj8osG410bcWbusWBQNdkVr9tlSYUjOGsUNGQx2vIBzvA
Wbaz8ahEHd6ifEYa8v050e3DnoZEW1wnlI1gj8k+8Bq3iYmMIpuq6lT9xy7eT4AS
cSM4LZU9e/nolTead3HljqNFv1dOg6f+i2JdkOyqn894VA5aypxhJswjkl++huKL
ZybQ3rbgi+IEXc25yEDK6novMVzucdZmafHlHjK/+v8WQ5qxF6r3xG9+OUqQXUmw
L8dYzeVPVrBt3NDxY+0RyFT1vAHP/LXdz4nnwfXZtcWIhlUl9HfrqaJZwUOthbYF
IhtHIIZwXz4M902sGI/yjJvAz+FK6v0WlNQflyyCNVIn6db9rgw89kRzJ2NuBYS3
einrcQD/Jp1NLVPv43QyMa/fOqchBU+qaio83b61vB1/1vZhObtjAOeLzjhKKJTJ
mfbEJQIDAQABo4IBazCCAWcwCQYDVR0TBAIwADAtBglghkgBhvhCAQ0EIBYeRWFz
eS1SU0EgR2VuZXJhdGVkIENlcnRpZmljYXRlMB0GA1UdDgQWBBTPucaflUUrXro5
Yls7ZyuarsHS0TCB6QYDVR0jBIHhMIHegBTvOI0UUFinW02cF3L837msp1GwEKGB
uqSBtzCBtDELMAkGA1UEBhMCVVMxCzAJBgNVBAgTAkNBMRUwEwYDVQQHEwxTYW5G
cmFuY2lzY28xFTATBgNVBAoTDFBpeGdsbywgSW5jLjEQMA4GA1UECxMHVlBOLUNJ
RTEaMBgGA1UEAxMRdHVubmVsLnBpeGdsby5jb20xHDAaBgNVBCkTE0JhbGEgQ2hh
bmRyYXNla2FyYW4xHjAcBgkqhkiG9w0BCQEWD2JhbGFAcGl4Z2xvLmNvbYIJAKbb
xoOA5qB5MBMGA1UdJQQMMAoGCCsGAQUFBwMCMAsGA1UdDwQEAwIHgDANBgkqhkiG
9w0BAQUFAAOCAgEAuwLwd3n1LT5Fuy9X+3uYG8X9oaQkqi+ZEGSvgLlOrWfUu7kM
MBDVA0gWYu3VxApI7f4smNPSgo63X0Y5Lkz0GvLW6PM12xVr3KMlcT45pYaIwRY/
TEYpd6KpVz+cOYkL3724VeinYRp0jVcZ635NQoLpTLiIAo2SIGtNVzrSIJ/lfmfX
Qj/m22EYKvWpqYJ8FemW4cByKpBpMm/wBnXBH4Ut+7/SaCtO0xE16r+IbLw+RBDP
KakNJGhlVg6WwCJCDgmFrXYzpH2Fzo3C55MD6UqpLoIM3TMZUBjRmPG6wdEY8b97
Xl1dJHmuBbhf8cwQmcpTRtqF24qvkeGf6cHjAM0nbvFHnje0bUXjfv6H11P9PvkM
nrcYmIuvEjxT4Zu107SFt6b2NCOz9FeFBlOXT4f/bawCo7wwm+nino7MMP4pqv3K
MtdTW31ppgpl+mN8p0kXWu2EXnQ2Tj82RTynDlsfaYttGAwqPbI7PZim4oEDZUYR
lETIjwZSnQkkPI5iCqYPzobJHq4IKXy5ITw0sFRCBYY4KVBtN8W9ruH0YJMEwbhE
5/LeqK/mlJsT/voQCs+xkfAT43AjnW/yCDBhvjYrhuy0BTvqbUDFaWQpvkqDlGTn
ipmFntCIC0eVVCBckBnr2L1SN+kM1yoV24N30+znX+3B6LETbXvJO4urHSc=
-----END CERTIFICATE-----
