Certificate:
    Data:
        Version: 3 (0x2)
        Serial Number: 640 (0x280)
    Signature Algorithm: sha1WithRSAEncryption
        Issuer: C=US, ST=CA, L=SanFrancisco, O=Pixglo, Inc., OU=VPN-CIE, CN=tunnel.pixglo.com/name=Bala Chandrasekaran/emailAddress=bala@pixglo.com
        Validity
            Not Before: Feb 14 06:39:08 2018 GMT
            Not After : Feb 12 06:39:08 2028 GMT
        Subject: C=US, ST=CA, L=SanFrancisco, O=Pixglo, Inc., OU=VPN-CIE, CN=cie639/name=Bala Chandrasekaran/emailAddress=bala@pixglo.com
        Subject Public Key Info:
            Public Key Algorithm: rsaEncryption
                Public-Key: (4096 bit)
                Modulus:
                    00:bd:be:4f:3f:25:97:a1:23:a2:2b:9f:95:2c:9f:
                    8e:fe:0e:31:a3:82:63:d0:d5:fc:7f:ac:82:bf:dc:
                    15:45:3a:d9:a2:7d:fd:64:c3:be:15:83:e8:a9:e8:
                    7e:a7:67:0c:a1:cc:c6:b1:84:e8:c3:6d:db:0e:ef:
                    55:ab:47:a4:3f:1f:29:9d:da:87:88:d7:3b:26:1e:
                    c0:5b:f2:fd:b5:83:3d:21:54:e7:2f:af:f7:ed:ef:
                    c1:42:2f:8b:20:4a:db:b6:a7:69:f5:91:04:aa:ce:
                    d0:71:84:9c:9e:47:4a:71:62:3c:11:da:c8:4b:41:
                    31:82:cd:75:d4:33:34:5d:af:60:5c:46:9c:80:c1:
                    85:67:19:ff:47:9c:5a:03:47:fc:a6:42:93:da:37:
                    56:a9:dc:b1:db:90:ca:f7:a5:f1:9c:e1:6f:df:a7:
                    22:c1:ef:6b:93:b6:2f:94:05:2c:ef:2d:af:44:d2:
                    bc:42:9b:3a:44:f8:f4:37:91:79:38:99:cb:4e:ed:
                    12:58:5d:32:e1:38:a3:f5:92:56:48:39:cd:5c:f1:
                    fe:54:34:d0:62:43:74:17:37:2d:19:9d:b2:13:d9:
                    81:8c:fb:18:70:33:fa:1e:65:b3:f0:2e:84:5b:cb:
                    97:70:ed:f0:7d:b3:5a:bf:0f:98:ef:da:96:ee:ca:
                    21:a5:69:40:01:24:b3:75:28:23:da:e8:dc:0e:67:
                    e1:94:6b:6e:02:54:55:c6:15:1c:81:57:65:25:05:
                    e5:02:73:4d:4e:ad:71:93:0a:81:c7:0a:09:e2:c3:
                    fd:00:7f:ea:52:7c:46:0d:39:be:79:b6:e8:ae:74:
                    1f:b8:b3:fd:da:b2:bd:6e:d1:08:7b:7d:92:42:b5:
                    93:93:8a:a0:1d:7b:b6:3f:cb:bc:ab:70:65:48:e8:
                    53:0e:14:fc:cf:ae:a9:e6:81:ec:b0:71:88:33:15:
                    0b:7e:e9:30:43:04:0b:2f:74:aa:7c:71:00:3b:21:
                    21:6b:44:d3:da:de:2e:53:f8:93:ba:01:d5:01:f9:
                    01:50:0a:96:ba:56:57:14:77:e1:fb:ba:ce:af:27:
                    31:d7:ee:17:c9:44:3f:e7:1b:49:6f:99:36:15:6d:
                    c7:ff:5c:81:f5:6c:2a:45:cc:0c:0b:1d:3e:16:05:
                    c1:42:c8:15:9e:be:ba:9d:ee:ac:98:f5:15:b0:bd:
                    03:b5:9c:13:03:38:9a:fa:07:50:81:63:fc:53:e7:
                    79:be:03:6d:96:68:65:a5:3e:0f:9c:df:5d:26:63:
                    5f:9a:8a:84:6e:f0:10:3b:40:1c:63:0e:5a:67:32:
                    47:96:9a:95:25:22:97:ab:e6:5b:3d:0b:0e:e8:8b:
                    e2:00:ab
                Exponent: 65537 (0x10001)
        X509v3 extensions:
            X509v3 Basic Constraints: 
                CA:FALSE
            Netscape Comment: 
                Easy-RSA Generated Certificate
            X509v3 Subject Key Identifier: 
                71:73:A1:D8:26:75:2F:64:F7:85:7C:E8:3E:59:2F:62:DF:1C:A3:3E
            X509v3 Authority Key Identifier: 
                keyid:EF:38:8D:14:50:58:A7:5B:4D:9C:17:72:FC:DF:B9:AC:A7:51:B0:10
                DirName:/C=US/ST=CA/L=SanFrancisco/O=Pixglo, Inc./OU=VPN-CIE/CN=tunnel.pixglo.com/name=Bala Chandrasekaran/emailAddress=bala@pixglo.com
                serial:A6:DB:C6:83:80:E6:A0:79

            X509v3 Extended Key Usage: 
                TLS Web Client Authentication
            X509v3 Key Usage: 
                Digital Signature
    Signature Algorithm: sha1WithRSAEncryption
         30:d4:03:1d:04:9a:80:a0:b8:12:98:95:3d:28:18:df:71:50:
         15:8b:45:d2:13:81:0e:16:64:1c:32:95:c9:44:c0:4e:66:39:
         b4:1f:ca:58:69:af:53:3a:66:bc:ea:5d:f0:cd:6f:28:80:5f:
         26:7b:f2:fa:81:5e:c9:5b:61:f4:f2:61:71:59:9d:a3:0e:d6:
         ac:24:c5:8f:21:ca:44:3e:ec:ee:bc:75:6a:42:54:c1:14:a4:
         61:74:51:ff:dc:24:dc:ed:80:85:2f:c3:27:11:49:08:b8:8d:
         71:cc:ad:8a:ac:4d:18:a7:de:67:33:6a:dd:36:9c:21:0e:80:
         b4:5f:56:7d:ed:aa:59:47:5d:b1:ef:5f:c0:7c:71:01:1c:5f:
         4b:b2:d5:65:e9:4a:b9:2c:bc:56:bc:8c:02:ad:45:e6:37:58:
         1d:40:4e:8d:4b:dd:7c:4e:b2:a0:1a:f9:61:96:25:d1:71:c4:
         35:d3:26:82:0a:35:cc:ff:2e:d1:22:f5:28:61:38:59:1f:77:
         f0:b9:5b:28:e1:34:b1:0d:82:a3:91:11:5a:2a:ad:d6:57:56:
         36:7f:97:c9:5c:62:b0:d2:3e:ee:ee:1b:97:4a:f5:c4:2a:c7:
         41:e9:d2:a4:28:13:7f:d7:f4:05:55:f3:a1:71:0a:b7:0f:70:
         a7:02:58:69:8d:c5:c3:58:c1:80:1b:01:55:58:1d:8b:5e:ee:
         3f:da:af:d8:86:b6:1d:b2:f7:5f:8e:da:e4:c0:27:37:d6:85:
         e5:eb:e7:2d:d6:ff:a7:08:07:d4:9e:71:39:57:09:ce:2f:2d:
         a1:83:8f:53:98:4e:7e:3a:7c:8c:c2:67:43:9f:1f:07:ad:d4:
         58:59:90:4a:6f:6d:56:d5:c6:19:36:1f:42:aa:30:3a:f7:89:
         5a:79:3e:00:12:19:91:4f:c7:e2:cd:a6:88:a0:ff:01:aa:0f:
         8a:ee:5b:fc:3b:88:c9:e4:66:4f:9a:53:80:c9:e9:4b:3f:02:
         17:1b:31:d6:4f:ec:95:b2:07:83:41:8f:20:e1:8e:c4:56:50:
         7f:d2:94:e8:2a:50:6c:27:e3:ae:7d:5d:a7:09:05:83:03:86:
         fc:e2:d4:36:bf:fa:f4:40:6f:56:30:a6:7c:d0:49:61:07:93:
         a7:80:7d:62:44:b9:a4:e6:7f:a6:78:ae:1c:33:70:36:6b:de:
         65:0d:d6:0a:11:39:13:39:ca:25:5a:c9:59:b3:47:ce:60:11:
         1e:1a:6f:cb:f2:4d:0c:d1:49:38:bc:be:c8:47:c9:91:0b:3f:
         4b:21:82:cb:cd:e1:3e:b1:94:d9:33:7e:44:b7:c5:6d:77:34:
         95:31:0c:08:a6:3f:10:21
-----BEGIN CERTIFICATE-----
MIIHSDCCBTCgAwIBAgICAoAwDQYJKoZIhvcNAQEFBQAwgbQxCzAJBgNVBAYTAlVT
MQswCQYDVQQIEwJDQTEVMBMGA1UEBxMMU2FuRnJhbmNpc2NvMRUwEwYDVQQKEwxQ
aXhnbG8sIEluYy4xEDAOBgNVBAsTB1ZQTi1DSUUxGjAYBgNVBAMTEXR1bm5lbC5w
aXhnbG8uY29tMRwwGgYDVQQpExNCYWxhIENoYW5kcmFzZWthcmFuMR4wHAYJKoZI
hvcNAQkBFg9iYWxhQHBpeGdsby5jb20wHhcNMTgwMjE0MDYzOTA4WhcNMjgwMjEy
MDYzOTA4WjCBqTELMAkGA1UEBhMCVVMxCzAJBgNVBAgTAkNBMRUwEwYDVQQHEwxT
YW5GcmFuY2lzY28xFTATBgNVBAoTDFBpeGdsbywgSW5jLjEQMA4GA1UECxMHVlBO
LUNJRTEPMA0GA1UEAxMGY2llNjM5MRwwGgYDVQQpExNCYWxhIENoYW5kcmFzZWth
cmFuMR4wHAYJKoZIhvcNAQkBFg9iYWxhQHBpeGdsby5jb20wggIiMA0GCSqGSIb3
DQEBAQUAA4ICDwAwggIKAoICAQC9vk8/JZehI6Irn5Usn47+DjGjgmPQ1fx/rIK/
3BVFOtmiff1kw74Vg+ip6H6nZwyhzMaxhOjDbdsO71WrR6Q/Hymd2oeI1zsmHsBb
8v21gz0hVOcvr/ft78FCL4sgStu2p2n1kQSqztBxhJyeR0pxYjwR2shLQTGCzXXU
MzRdr2BcRpyAwYVnGf9HnFoDR/ymQpPaN1ap3LHbkMr3pfGc4W/fpyLB72uTti+U
BSzvLa9E0rxCmzpE+PQ3kXk4mctO7RJYXTLhOKP1klZIOc1c8f5UNNBiQ3QXNy0Z
nbIT2YGM+xhwM/oeZbPwLoRby5dw7fB9s1q/D5jv2pbuyiGlaUABJLN1KCPa6NwO
Z+GUa24CVFXGFRyBV2UlBeUCc01OrXGTCoHHCgniw/0Af+pSfEYNOb55tuiudB+4
s/3asr1u0Qh7fZJCtZOTiqAde7Y/y7yrcGVI6FMOFPzPrqnmgeywcYgzFQt+6TBD
BAsvdKp8cQA7ISFrRNPa3i5T+JO6AdUB+QFQCpa6VlcUd+H7us6vJzHX7hfJRD/n
G0lvmTYVbcf/XIH1bCpFzAwLHT4WBcFCyBWevrqd7qyY9RWwvQO1nBMDOJr6B1CB
Y/xT53m+A22WaGWlPg+c310mY1+aioRu8BA7QBxjDlpnMkeWmpUlIper5ls9Cw7o
i+IAqwIDAQABo4IBazCCAWcwCQYDVR0TBAIwADAtBglghkgBhvhCAQ0EIBYeRWFz
eS1SU0EgR2VuZXJhdGVkIENlcnRpZmljYXRlMB0GA1UdDgQWBBRxc6HYJnUvZPeF
fOg+WS9i3xyjPjCB6QYDVR0jBIHhMIHegBTvOI0UUFinW02cF3L837msp1GwEKGB
uqSBtzCBtDELMAkGA1UEBhMCVVMxCzAJBgNVBAgTAkNBMRUwEwYDVQQHEwxTYW5G
cmFuY2lzY28xFTATBgNVBAoTDFBpeGdsbywgSW5jLjEQMA4GA1UECxMHVlBOLUNJ
RTEaMBgGA1UEAxMRdHVubmVsLnBpeGdsby5jb20xHDAaBgNVBCkTE0JhbGEgQ2hh
bmRyYXNla2FyYW4xHjAcBgkqhkiG9w0BCQEWD2JhbGFAcGl4Z2xvLmNvbYIJAKbb
xoOA5qB5MBMGA1UdJQQMMAoGCCsGAQUFBwMCMAsGA1UdDwQEAwIHgDANBgkqhkiG
9w0BAQUFAAOCAgEAMNQDHQSagKC4EpiVPSgY33FQFYtF0hOBDhZkHDKVyUTATmY5
tB/KWGmvUzpmvOpd8M1vKIBfJnvy+oFeyVth9PJhcVmdow7WrCTFjyHKRD7s7rx1
akJUwRSkYXRR/9wk3O2AhS/DJxFJCLiNccytiqxNGKfeZzNq3TacIQ6AtF9Wfe2q
WUddse9fwHxxARxfS7LVZelKuSy8VryMAq1F5jdYHUBOjUvdfE6yoBr5YZYl0XHE
NdMmggo1zP8u0SL1KGE4WR938LlbKOE0sQ2Co5ERWiqt1ldWNn+XyVxisNI+7u4b
l0r1xCrHQenSpCgTf9f0BVXzoXEKtw9wpwJYaY3Fw1jBgBsBVVgdi17uP9qv2Ia2
HbL3X47a5MAnN9aF5evnLdb/pwgH1J5xOVcJzi8toYOPU5hOfjp8jMJnQ58fB63U
WFmQSm9tVtXGGTYfQqowOveJWnk+ABIZkU/H4s2miKD/AaoPiu5b/DuIyeRmT5pT
gMnpSz8CFxsx1k/slbIHg0GPIOGOxFZQf9KU6CpQbCfjrn1dpwkFgwOG/OLUNr/6
9EBvVjCmfNBJYQeTp4B9YkS5pOZ/pniuHDNwNmveZQ3WChE5EznKJVrJWbNHzmAR
Hhpvy/JNDNFJOLy+yEfJkQs/SyGCy83hPrGU2TN+RLfFbXc0lTEMCKY/ECE=
-----END CERTIFICATE-----
