Certificate:
    Data:
        Version: 3 (0x2)
        Serial Number: 70 (0x46)
    Signature Algorithm: sha1WithRSAEncryption
        Issuer: C=US, ST=CA, L=SanFrancisco, O=Pixglo, Inc., OU=VPN-CIE, CN=tunnel.pixglo.com/name=Bala Chandrasekaran/emailAddress=bala@pixglo.com
        Validity
            Not Before: Feb 14 06:25:08 2018 GMT
            Not After : Feb 12 06:25:08 2028 GMT
        Subject: C=US, ST=CA, L=SanFrancisco, O=Pixglo, Inc., OU=VPN-CIE, CN=cie69/name=Bala Chandrasekaran/emailAddress=bala@pixglo.com
        Subject Public Key Info:
            Public Key Algorithm: rsaEncryption
                Public-Key: (4096 bit)
                Modulus:
                    00:9a:05:c6:71:93:27:da:4d:b2:c8:2f:2b:a7:93:
                    fd:4c:0c:af:06:8d:b6:44:d9:79:88:19:df:10:1e:
                    93:3c:ed:45:f7:d7:ed:88:5b:d0:79:a3:de:b5:1d:
                    01:57:e2:1c:a1:35:f6:24:8e:5f:9f:64:f1:28:ac:
                    ba:6c:c7:47:f8:18:be:e0:e3:41:73:61:51:b1:06:
                    cb:4c:79:ef:41:4e:99:98:63:51:26:9e:d9:bd:3b:
                    dc:04:8c:6a:74:65:d9:60:ae:7a:2a:4a:5b:32:27:
                    7c:5e:f9:af:7e:bc:81:a4:eb:c5:4b:e3:16:60:de:
                    d5:ed:0f:68:20:ac:6a:23:41:33:81:a2:a5:4f:1b:
                    02:15:2b:98:dc:40:3b:b0:e2:bf:64:e9:ff:3b:d5:
                    4d:83:ce:b0:4b:89:d2:64:bc:48:93:8f:00:c1:e9:
                    4f:09:c2:fe:d7:39:b7:3e:a9:31:d6:6e:8d:2a:62:
                    49:a7:4d:c1:bb:8d:da:34:66:03:9d:01:85:d3:fe:
                    dc:79:09:e8:8e:37:9b:94:2f:73:62:35:d7:a1:c8:
                    d8:10:74:27:d6:01:36:c3:7f:b0:f9:9a:6e:8e:72:
                    45:bb:e8:ad:ef:f7:86:bf:b2:e7:2f:5b:88:49:96:
                    51:53:2c:07:04:7e:91:ca:c7:9d:8b:29:0a:15:1c:
                    3a:d1:86:4b:91:58:09:76:b8:e3:e0:14:74:ae:cf:
                    ae:d7:90:73:76:6e:1b:86:a0:90:af:50:68:ef:e6:
                    fa:f5:01:ca:d4:24:80:fb:6d:a6:e6:78:8a:8c:db:
                    8a:00:f8:94:0f:e5:5a:57:9e:bc:82:5b:4e:5b:54:
                    8d:79:63:07:d1:f7:27:f3:9d:9c:4a:b7:ec:4a:73:
                    8a:07:be:64:cb:41:39:bd:8e:79:82:b4:23:5f:ce:
                    1a:a0:f9:8a:9e:82:37:b1:0d:ce:9f:05:c3:16:7e:
                    1e:32:b6:cd:58:e2:68:22:ca:61:96:33:46:b9:01:
                    e6:4a:08:0e:1f:16:83:f1:8e:46:c4:8c:67:be:e4:
                    d7:88:7e:e8:0c:b1:2b:09:b3:cb:5b:bf:b4:f4:5d:
                    fa:e9:9b:23:99:3b:f0:10:a8:28:36:b6:23:5a:70:
                    47:63:04:5d:e7:ee:7e:b8:1f:80:38:9c:a2:0a:b2:
                    7e:ad:88:ef:84:3d:00:45:bd:2b:2e:aa:08:45:3a:
                    fc:53:f2:25:09:45:4e:63:1f:4a:2d:da:d7:3d:4b:
                    2f:8d:e8:4d:65:35:90:86:f9:f4:57:5d:61:d9:7f:
                    37:ac:58:13:ea:3d:d5:be:eb:f5:81:bf:06:4a:c7:
                    fb:26:e6:e1:d7:1d:d3:6a:b0:81:74:94:20:09:61:
                    6f:58:af
                Exponent: 65537 (0x10001)
        X509v3 extensions:
            X509v3 Basic Constraints: 
                CA:FALSE
            Netscape Comment: 
                Easy-RSA Generated Certificate
            X509v3 Subject Key Identifier: 
                4F:83:44:E1:47:6D:50:3E:5D:AF:69:84:A8:34:09:7F:38:94:A6:4D
            X509v3 Authority Key Identifier: 
                keyid:EF:38:8D:14:50:58:A7:5B:4D:9C:17:72:FC:DF:B9:AC:A7:51:B0:10
                DirName:/C=US/ST=CA/L=SanFrancisco/O=Pixglo, Inc./OU=VPN-CIE/CN=tunnel.pixglo.com/name=Bala Chandrasekaran/emailAddress=bala@pixglo.com
                serial:A6:DB:C6:83:80:E6:A0:79

            X509v3 Extended Key Usage: 
                TLS Web Client Authentication
            X509v3 Key Usage: 
                Digital Signature
    Signature Algorithm: sha1WithRSAEncryption
         74:4c:be:29:21:e6:95:ab:18:c1:7c:34:23:0c:e7:8f:29:ec:
         d9:e6:52:06:d3:10:c3:0a:57:36:0b:f0:be:ef:bb:92:3a:90:
         7d:a8:b5:36:bf:c6:01:4a:74:9a:34:2c:95:19:47:eb:4e:4a:
         b7:9a:34:1b:fb:03:d8:f7:ca:ef:18:aa:0a:d2:36:c7:d3:50:
         4d:76:42:77:54:5b:dd:5f:c1:df:fd:f2:b3:9c:d3:cf:11:6f:
         bb:a0:c7:2b:86:f2:ae:99:12:d5:f1:76:d3:11:3b:3a:11:9f:
         fe:1d:7d:2a:f1:ea:f0:1e:f6:7f:1b:a7:ca:0d:ec:db:4d:06:
         50:1d:52:47:58:22:39:56:96:0e:48:e6:ee:d6:82:f0:d6:eb:
         39:05:58:a2:8e:11:46:21:8e:4d:0c:c7:72:5a:50:18:af:f5:
         e0:3d:dc:3c:1c:08:35:e8:5a:bf:4b:90:5b:02:65:33:b1:16:
         be:c6:1e:a4:dc:21:3a:37:38:be:ea:5e:cf:35:a8:ab:7e:ea:
         a3:16:f5:bc:e3:a2:e9:a0:09:ab:b7:48:35:0d:07:dd:39:b6:
         75:fa:67:24:6f:d2:38:ca:31:05:80:80:3d:83:aa:e8:ad:70:
         6c:90:ab:1a:8f:f9:c2:66:2b:ab:80:16:76:2d:a2:70:06:53:
         75:eb:45:23:4e:67:7a:da:9b:5c:42:56:1a:5f:45:0d:7f:60:
         49:b5:58:35:9d:c3:4e:b9:f3:4c:bf:eb:71:aa:75:9d:ea:63:
         90:e9:3d:67:0c:19:07:58:5e:4c:91:fe:d4:48:66:a7:ef:a3:
         23:51:c4:f2:17:15:75:54:a5:d4:ea:c1:65:a0:f6:90:d2:49:
         02:9f:af:73:ed:32:69:54:f0:28:5b:27:50:cb:0a:47:87:d2:
         2d:37:62:8a:5d:4d:18:ae:0b:dc:4e:9e:7d:d5:1c:5a:3f:c8:
         64:90:9e:0a:00:a5:3a:87:5c:84:14:92:fc:13:3b:25:0d:ba:
         d6:bc:40:0f:9c:28:eb:6e:50:ce:72:55:af:a0:9a:c4:96:19:
         bc:93:af:ce:c3:65:1c:73:35:76:3e:15:91:40:6c:ee:a4:5f:
         56:34:68:6d:b3:d1:f7:63:99:16:ea:d0:46:31:eb:5e:50:cd:
         a0:25:bf:94:ad:05:43:bb:e0:78:3f:b7:28:de:23:8b:2c:42:
         7f:68:79:08:42:71:e3:d3:ad:3f:67:c0:2d:d1:2a:8f:80:e2:
         66:f0:af:f1:5f:c7:cb:ee:30:c2:3e:0f:ae:df:1a:d7:2f:27:
         b9:e0:77:5c:f2:32:1b:a8:29:58:57:5c:22:1b:95:94:de:b5:
         7d:a4:42:b2:33:e6:36:d9
-----BEGIN CERTIFICATE-----
MIIHRjCCBS6gAwIBAgIBRjANBgkqhkiG9w0BAQUFADCBtDELMAkGA1UEBhMCVVMx
CzAJBgNVBAgTAkNBMRUwEwYDVQQHEwxTYW5GcmFuY2lzY28xFTATBgNVBAoTDFBp
eGdsbywgSW5jLjEQMA4GA1UECxMHVlBOLUNJRTEaMBgGA1UEAxMRdHVubmVsLnBp
eGdsby5jb20xHDAaBgNVBCkTE0JhbGEgQ2hhbmRyYXNla2FyYW4xHjAcBgkqhkiG
9w0BCQEWD2JhbGFAcGl4Z2xvLmNvbTAeFw0xODAyMTQwNjI1MDhaFw0yODAyMTIw
NjI1MDhaMIGoMQswCQYDVQQGEwJVUzELMAkGA1UECBMCQ0ExFTATBgNVBAcTDFNh
bkZyYW5jaXNjbzEVMBMGA1UEChMMUGl4Z2xvLCBJbmMuMRAwDgYDVQQLEwdWUE4t
Q0lFMQ4wDAYDVQQDEwVjaWU2OTEcMBoGA1UEKRMTQmFsYSBDaGFuZHJhc2VrYXJh
bjEeMBwGCSqGSIb3DQEJARYPYmFsYUBwaXhnbG8uY29tMIICIjANBgkqhkiG9w0B
AQEFAAOCAg8AMIICCgKCAgEAmgXGcZMn2k2yyC8rp5P9TAyvBo22RNl5iBnfEB6T
PO1F99ftiFvQeaPetR0BV+IcoTX2JI5fn2TxKKy6bMdH+Bi+4ONBc2FRsQbLTHnv
QU6ZmGNRJp7ZvTvcBIxqdGXZYK56KkpbMid8XvmvfryBpOvFS+MWYN7V7Q9oIKxq
I0EzgaKlTxsCFSuY3EA7sOK/ZOn/O9VNg86wS4nSZLxIk48AwelPCcL+1zm3Pqkx
1m6NKmJJp03Bu43aNGYDnQGF0/7ceQnojjeblC9zYjXXocjYEHQn1gE2w3+w+Zpu
jnJFu+it7/eGv7LnL1uISZZRUywHBH6RysediykKFRw60YZLkVgJdrjj4BR0rs+u
15Bzdm4bhqCQr1Bo7+b69QHK1CSA+22m5niKjNuKAPiUD+VaV568gltOW1SNeWMH
0fcn852cSrfsSnOKB75ky0E5vY55grQjX84aoPmKnoI3sQ3OnwXDFn4eMrbNWOJo
IsphljNGuQHmSggOHxaD8Y5GxIxnvuTXiH7oDLErCbPLW7+09F366ZsjmTvwEKgo
NrYjWnBHYwRd5+5+uB+AOJyiCrJ+rYjvhD0ARb0rLqoIRTr8U/IlCUVOYx9KLdrX
PUsvjehNZTWQhvn0V11h2X83rFgT6j3Vvuv1gb8GSsf7Jubh1x3TarCBdJQgCWFv
WK8CAwEAAaOCAWswggFnMAkGA1UdEwQCMAAwLQYJYIZIAYb4QgENBCAWHkVhc3kt
UlNBIEdlbmVyYXRlZCBDZXJ0aWZpY2F0ZTAdBgNVHQ4EFgQUT4NE4UdtUD5dr2mE
qDQJfziUpk0wgekGA1UdIwSB4TCB3oAU7ziNFFBYp1tNnBdy/N+5rKdRsBChgbqk
gbcwgbQxCzAJBgNVBAYTAlVTMQswCQYDVQQIEwJDQTEVMBMGA1UEBxMMU2FuRnJh
bmNpc2NvMRUwEwYDVQQKEwxQaXhnbG8sIEluYy4xEDAOBgNVBAsTB1ZQTi1DSUUx
GjAYBgNVBAMTEXR1bm5lbC5waXhnbG8uY29tMRwwGgYDVQQpExNCYWxhIENoYW5k
cmFzZWthcmFuMR4wHAYJKoZIhvcNAQkBFg9iYWxhQHBpeGdsby5jb22CCQCm28aD
gOageTATBgNVHSUEDDAKBggrBgEFBQcDAjALBgNVHQ8EBAMCB4AwDQYJKoZIhvcN
AQEFBQADggIBAHRMvikh5pWrGMF8NCMM548p7NnmUgbTEMMKVzYL8L7vu5I6kH2o
tTa/xgFKdJo0LJUZR+tOSreaNBv7A9j3yu8YqgrSNsfTUE12QndUW91fwd/98rOc
088Rb7ugxyuG8q6ZEtXxdtMROzoRn/4dfSrx6vAe9n8bp8oN7NtNBlAdUkdYIjlW
lg5I5u7WgvDW6zkFWKKOEUYhjk0Mx3JaUBiv9eA93DwcCDXoWr9LkFsCZTOxFr7G
HqTcITo3OL7qXs81qKt+6qMW9bzjoumgCau3SDUNB905tnX6ZyRv0jjKMQWAgD2D
quitcGyQqxqP+cJmK6uAFnYtonAGU3XrRSNOZ3ram1xCVhpfRQ1/YEm1WDWdw065
80y/63GqdZ3qY5DpPWcMGQdYXkyR/tRIZqfvoyNRxPIXFXVUpdTqwWWg9pDSSQKf
r3PtMmlU8ChbJ1DLCkeH0i03YopdTRiuC9xOnn3VHFo/yGSQngoApTqHXIQUkvwT
OyUNuta8QA+cKOtuUM5yVa+gmsSWGbyTr87DZRxzNXY+FZFAbO6kX1Y0aG2z0fdj
mRbq0EYx615QzaAlv5StBUO74Hg/tyjeI4ssQn9oeQhCcePTrT9nwC3RKo+A4mbw
r/Ffx8vuMMI+D67fGtcvJ7ngd1zyMhuoKVhXXCIblZTetX2kQrIz5jbZ
-----END CERTIFICATE-----
