Certificate:
    Data:
        Version: 3 (0x2)
        Serial Number: 687 (0x2af)
    Signature Algorithm: sha1WithRSAEncryption
        Issuer: C=US, ST=CA, L=SanFrancisco, O=Pixglo, Inc., OU=VPN-CIE, CN=tunnel.pixglo.com/name=Bala Chandrasekaran/emailAddress=bala@pixglo.com
        Validity
            Not Before: Feb 14 06:40:22 2018 GMT
            Not After : Feb 12 06:40:22 2028 GMT
        Subject: C=US, ST=CA, L=SanFrancisco, O=Pixglo, Inc., OU=VPN-CIE, CN=cie686/name=Bala Chandrasekaran/emailAddress=bala@pixglo.com
        Subject Public Key Info:
            Public Key Algorithm: rsaEncryption
                Public-Key: (4096 bit)
                Modulus:
                    00:c3:be:81:e3:d2:69:ab:55:99:f3:04:62:81:5a:
                    f7:00:f7:51:53:f6:90:eb:ed:f0:47:6f:0a:a6:c8:
                    1a:83:30:85:d6:ab:b9:bc:d5:c9:ba:fa:97:84:b9:
                    d2:b7:cb:0a:6a:21:d1:ad:31:52:d0:7b:ec:96:3f:
                    7c:a3:cd:d0:98:ff:a9:cf:0d:d2:42:27:5b:eb:7d:
                    9a:fa:04:cc:0a:45:40:d9:35:54:2d:a6:75:92:da:
                    e9:d8:c1:96:1e:1a:ed:36:43:aa:93:81:6d:c4:10:
                    9b:09:3f:00:01:bc:00:b8:1b:7d:6c:af:c0:df:0c:
                    38:ab:3f:0b:e9:b7:ec:e3:c6:7e:05:d2:62:99:71:
                    62:1c:de:80:7b:23:d5:86:f0:36:95:b4:8b:ea:0c:
                    bf:41:63:4c:f4:a4:a6:c4:47:06:1c:64:12:ca:f6:
                    b1:3c:68:23:01:5f:81:cd:f8:55:af:3b:2d:fd:34:
                    0b:22:ce:ac:0b:c4:92:f0:bd:25:cf:c7:37:ed:e4:
                    df:34:9f:f2:13:1b:67:44:12:16:9d:d5:6a:59:91:
                    dd:b9:c5:d9:00:c9:2e:06:4d:35:b8:a7:ea:7f:08:
                    d1:75:51:d2:82:c0:7e:72:b8:89:a1:23:11:e2:5c:
                    10:37:76:e3:be:88:01:40:19:9b:d1:fa:e8:4f:c6:
                    03:61:7b:7a:77:9e:2a:2e:af:33:99:13:9d:73:b7:
                    a1:3d:b9:27:31:f2:fa:ec:e3:52:b9:a9:ec:8c:ef:
                    fe:fa:38:47:dc:2d:44:0a:b8:4c:c8:1a:ed:91:64:
                    b8:58:78:9d:b1:66:8d:ad:86:ee:18:18:84:78:f4:
                    3b:14:1e:41:44:46:fa:bc:85:f2:12:ed:e7:9d:28:
                    ad:91:2a:f7:4a:07:c6:d5:73:a8:9b:eb:3c:cb:00:
                    e4:ce:42:39:66:92:14:01:0b:f1:f7:02:6b:14:72:
                    81:ef:f6:b9:b4:5f:f6:01:12:5c:ea:0c:e0:7f:54:
                    12:50:21:98:d5:d3:67:08:59:a4:bf:17:1e:ca:37:
                    30:08:47:84:ab:38:2a:cc:aa:ce:ca:f9:a0:f0:cc:
                    4d:3f:23:9a:d5:ae:11:cf:51:bc:ad:42:a7:70:76:
                    02:16:32:24:44:c1:ef:f1:10:1d:10:ab:43:40:da:
                    a2:70:6c:75:29:fd:5e:2c:49:0d:d1:a5:bf:e8:2e:
                    9c:34:d3:fe:79:74:d6:3a:f3:fc:18:22:d6:21:40:
                    89:53:e7:38:5f:8f:79:15:52:51:09:56:69:0a:74:
                    6d:d7:4c:de:09:d9:57:5e:e8:ab:de:2f:47:c8:f7:
                    c7:59:6b:70:a1:8e:f1:90:b3:72:cc:c2:2d:42:3a:
                    1a:4e:a3
                Exponent: 65537 (0x10001)
        X509v3 extensions:
            X509v3 Basic Constraints: 
                CA:FALSE
            Netscape Comment: 
                Easy-RSA Generated Certificate
            X509v3 Subject Key Identifier: 
                58:7D:C0:87:02:FC:D8:AE:9F:1B:FB:90:BA:1C:30:21:03:66:20:B4
            X509v3 Authority Key Identifier: 
                keyid:EF:38:8D:14:50:58:A7:5B:4D:9C:17:72:FC:DF:B9:AC:A7:51:B0:10
                DirName:/C=US/ST=CA/L=SanFrancisco/O=Pixglo, Inc./OU=VPN-CIE/CN=tunnel.pixglo.com/name=Bala Chandrasekaran/emailAddress=bala@pixglo.com
                serial:A6:DB:C6:83:80:E6:A0:79

            X509v3 Extended Key Usage: 
                TLS Web Client Authentication
            X509v3 Key Usage: 
                Digital Signature
    Signature Algorithm: sha1WithRSAEncryption
         2d:bc:21:0a:94:41:3c:30:37:fd:bc:c5:0e:46:99:fe:a6:a8:
         9e:04:76:55:04:7e:d5:e6:59:10:7e:b8:bd:ff:b5:db:5e:f8:
         03:d1:1e:88:a2:25:3d:f2:9b:7f:cd:a2:56:2b:27:71:2f:bc:
         ab:27:e6:62:83:06:46:52:64:f5:04:c1:5b:85:5b:d1:a9:f2:
         d9:96:7d:44:9d:e2:66:2a:75:6b:a0:8c:62:02:f5:30:bd:9c:
         7c:54:c0:86:45:d1:5e:33:32:4b:73:ae:ab:53:7c:c8:df:29:
         e6:a5:c5:1b:3a:73:e7:d5:b1:73:46:ba:09:fb:cc:c2:af:33:
         4e:15:26:a6:aa:ba:c7:76:ac:3f:88:70:9d:e7:50:44:26:13:
         19:d4:f4:63:40:27:26:88:4d:2a:1b:37:63:b9:b3:03:34:ac:
         ce:82:dc:a5:56:a4:35:97:f8:e5:e2:03:96:0b:15:0e:a2:5d:
         2f:54:7f:9c:f4:35:53:e2:8c:af:01:ab:d7:37:5c:82:04:ae:
         ab:a8:5b:9f:70:1e:4f:72:50:bc:22:d9:4f:a9:3b:e3:1f:36:
         1c:cb:6d:c7:69:18:a4:d6:e6:f5:1c:5e:cf:98:91:32:67:c8:
         f1:3f:fb:87:56:ce:29:84:3b:d6:8e:1a:ec:95:f2:8d:84:7b:
         a8:22:c6:d7:c2:da:32:90:c9:b6:67:ed:da:09:34:27:a2:76:
         e7:cf:90:81:45:05:25:82:aa:6e:9b:3c:a0:f6:72:61:8b:d0:
         8d:1e:3f:ef:7f:e6:37:fe:39:4e:54:e4:40:42:2e:35:5d:e4:
         b9:55:75:ae:ba:4a:05:99:fb:df:75:49:c9:3a:3e:64:21:75:
         52:00:88:8e:94:3a:26:ed:2f:31:22:65:e5:a4:aa:45:d3:d4:
         17:ee:77:01:59:08:64:c6:d8:04:83:f8:50:f6:96:34:5e:fd:
         15:2b:22:fc:91:8d:e8:7d:34:8e:8a:15:97:fd:57:84:74:fd:
         b3:c7:a1:b4:74:5a:f2:18:b3:ac:c5:2f:3d:10:bb:c4:12:fb:
         c4:39:d8:a1:22:0f:15:9f:6e:9b:cf:6c:6a:28:50:48:2c:30:
         27:6c:93:9f:31:c0:1f:9a:94:23:90:5a:07:b1:f6:58:5a:db:
         7c:a4:16:bf:b4:ed:33:00:e1:5e:db:ed:57:8f:30:0c:f0:5a:
         cf:77:e3:b0:85:a1:bc:72:73:b2:f7:11:31:02:e5:00:69:77:
         3b:16:dc:9f:06:ad:12:fb:b6:59:16:bc:81:ad:2f:12:92:9b:
         cf:3c:fd:92:da:08:1e:53:49:93:21:2a:ee:57:ef:dd:81:4a:
         35:4f:a9:ac:4e:17:be:d5
-----BEGIN CERTIFICATE-----
MIIHSDCCBTCgAwIBAgICAq8wDQYJKoZIhvcNAQEFBQAwgbQxCzAJBgNVBAYTAlVT
MQswCQYDVQQIEwJDQTEVMBMGA1UEBxMMU2FuRnJhbmNpc2NvMRUwEwYDVQQKEwxQ
aXhnbG8sIEluYy4xEDAOBgNVBAsTB1ZQTi1DSUUxGjAYBgNVBAMTEXR1bm5lbC5w
aXhnbG8uY29tMRwwGgYDVQQpExNCYWxhIENoYW5kcmFzZWthcmFuMR4wHAYJKoZI
hvcNAQkBFg9iYWxhQHBpeGdsby5jb20wHhcNMTgwMjE0MDY0MDIyWhcNMjgwMjEy
MDY0MDIyWjCBqTELMAkGA1UEBhMCVVMxCzAJBgNVBAgTAkNBMRUwEwYDVQQHEwxT
YW5GcmFuY2lzY28xFTATBgNVBAoTDFBpeGdsbywgSW5jLjEQMA4GA1UECxMHVlBO
LUNJRTEPMA0GA1UEAxMGY2llNjg2MRwwGgYDVQQpExNCYWxhIENoYW5kcmFzZWth
cmFuMR4wHAYJKoZIhvcNAQkBFg9iYWxhQHBpeGdsby5jb20wggIiMA0GCSqGSIb3
DQEBAQUAA4ICDwAwggIKAoICAQDDvoHj0mmrVZnzBGKBWvcA91FT9pDr7fBHbwqm
yBqDMIXWq7m81cm6+peEudK3ywpqIdGtMVLQe+yWP3yjzdCY/6nPDdJCJ1vrfZr6
BMwKRUDZNVQtpnWS2unYwZYeGu02Q6qTgW3EEJsJPwABvAC4G31sr8DfDDirPwvp
t+zjxn4F0mKZcWIc3oB7I9WG8DaVtIvqDL9BY0z0pKbERwYcZBLK9rE8aCMBX4HN
+FWvOy39NAsizqwLxJLwvSXPxzft5N80n/ITG2dEEhad1WpZkd25xdkAyS4GTTW4
p+p/CNF1UdKCwH5yuImhIxHiXBA3duO+iAFAGZvR+uhPxgNhe3p3niourzOZE51z
t6E9uScx8vrs41K5qeyM7/76OEfcLUQKuEzIGu2RZLhYeJ2xZo2thu4YGIR49DsU
HkFERvq8hfIS7eedKK2RKvdKB8bVc6ib6zzLAOTOQjlmkhQBC/H3AmsUcoHv9rm0
X/YBElzqDOB/VBJQIZjV02cIWaS/Fx7KNzAIR4SrOCrMqs7K+aDwzE0/I5rVrhHP
UbytQqdwdgIWMiREwe/xEB0Qq0NA2qJwbHUp/V4sSQ3Rpb/oLpw00/55dNY68/wY
ItYhQIlT5zhfj3kVUlEJVmkKdG3XTN4J2Vde6KveL0fI98dZa3ChjvGQs3LMwi1C
OhpOowIDAQABo4IBazCCAWcwCQYDVR0TBAIwADAtBglghkgBhvhCAQ0EIBYeRWFz
eS1SU0EgR2VuZXJhdGVkIENlcnRpZmljYXRlMB0GA1UdDgQWBBRYfcCHAvzYrp8b
+5C6HDAhA2YgtDCB6QYDVR0jBIHhMIHegBTvOI0UUFinW02cF3L837msp1GwEKGB
uqSBtzCBtDELMAkGA1UEBhMCVVMxCzAJBgNVBAgTAkNBMRUwEwYDVQQHEwxTYW5G
cmFuY2lzY28xFTATBgNVBAoTDFBpeGdsbywgSW5jLjEQMA4GA1UECxMHVlBOLUNJ
RTEaMBgGA1UEAxMRdHVubmVsLnBpeGdsby5jb20xHDAaBgNVBCkTE0JhbGEgQ2hh
bmRyYXNla2FyYW4xHjAcBgkqhkiG9w0BCQEWD2JhbGFAcGl4Z2xvLmNvbYIJAKbb
xoOA5qB5MBMGA1UdJQQMMAoGCCsGAQUFBwMCMAsGA1UdDwQEAwIHgDANBgkqhkiG
9w0BAQUFAAOCAgEALbwhCpRBPDA3/bzFDkaZ/qaongR2VQR+1eZZEH64vf+12174
A9EeiKIlPfKbf82iVisncS+8qyfmYoMGRlJk9QTBW4Vb0any2ZZ9RJ3iZip1a6CM
YgL1ML2cfFTAhkXRXjMyS3Ouq1N8yN8p5qXFGzpz59Wxc0a6CfvMwq8zThUmpqq6
x3asP4hwnedQRCYTGdT0Y0AnJohNKhs3Y7mzAzSszoLcpVakNZf45eIDlgsVDqJd
L1R/nPQ1U+KMrwGr1zdcggSuq6hbn3AeT3JQvCLZT6k74x82HMttx2kYpNbm9Rxe
z5iRMmfI8T/7h1bOKYQ71o4a7JXyjYR7qCLG18LaMpDJtmft2gk0J6J258+QgUUF
JYKqbps8oPZyYYvQjR4/73/mN/45TlTkQEIuNV3kuVV1rrpKBZn733VJyTo+ZCF1
UgCIjpQ6Ju0vMSJl5aSqRdPUF+53AVkIZMbYBIP4UPaWNF79FSsi/JGN6H00jooV
l/1XhHT9s8ehtHRa8hizrMUvPRC7xBL7xDnYoSIPFZ9um89saihQSCwwJ2yTnzHA
H5qUI5BaB7H2WFrbfKQWv7TtMwDhXtvtV48wDPBaz3fjsIWhvHJzsvcRMQLlAGl3
OxbcnwatEvu2WRa8ga0vEpKbzzz9ktoIHlNJkyEq7lfv3YFKNU+prE4XvtU=
-----END CERTIFICATE-----
