Certificate:
    Data:
        Version: 3 (0x2)
        Serial Number: 629 (0x275)
    Signature Algorithm: sha1WithRSAEncryption
        Issuer: C=US, ST=CA, L=SanFrancisco, O=Pixglo, Inc., OU=VPN-CIE, CN=tunnel.pixglo.com/name=Bala Chandrasekaran/emailAddress=bala@pixglo.com
        Validity
            Not Before: Feb 14 06:38:49 2018 GMT
            Not After : Feb 12 06:38:49 2028 GMT
        Subject: C=US, ST=CA, L=SanFrancisco, O=Pixglo, Inc., OU=VPN-CIE, CN=cie628/name=Bala Chandrasekaran/emailAddress=bala@pixglo.com
        Subject Public Key Info:
            Public Key Algorithm: rsaEncryption
                Public-Key: (4096 bit)
                Modulus:
                    00:a6:f3:2a:e1:77:96:2e:a3:67:3d:49:b1:74:d4:
                    89:34:60:4f:22:74:f4:63:95:cd:84:81:32:20:03:
                    11:29:20:92:29:0c:19:23:76:3d:e9:b4:25:24:b4:
                    95:35:2a:67:94:de:87:0f:88:76:c0:d1:26:92:42:
                    46:69:29:8b:63:e5:7a:b4:21:dd:55:39:7e:bf:b9:
                    96:41:aa:d5:a8:d0:c5:29:ee:4d:4a:68:85:b9:89:
                    00:ac:52:0e:d3:10:92:6d:f6:86:c1:28:7c:68:3a:
                    2e:44:a3:bf:8d:6f:dd:a1:68:c1:f0:bc:7d:02:02:
                    d8:ec:64:26:83:ed:b2:86:32:0f:cd:e7:2c:ff:bc:
                    8c:c1:df:5c:c1:22:93:38:4c:4b:19:47:61:5b:88:
                    b9:ef:cc:c9:8d:36:f5:15:82:29:8b:17:d1:5c:2f:
                    7a:22:5e:d5:31:92:e4:6b:c9:fa:f8:8c:a6:d6:17:
                    7d:71:73:22:25:b3:bf:30:35:02:7b:2e:4c:fd:03:
                    04:7b:b4:86:98:60:d6:dd:47:5a:c9:f3:b1:f9:78:
                    21:ad:82:dc:e0:c5:a6:23:ad:56:42:9e:3d:a2:62:
                    7b:46:b3:57:56:62:c5:1d:03:56:f9:e7:3f:b7:e4:
                    5e:5e:0b:bb:ca:9c:c1:c5:ca:43:0c:ed:96:64:01:
                    30:84:06:48:8b:b1:88:d2:e4:12:8f:d7:75:2e:d2:
                    d1:03:57:fc:a2:c3:2b:dc:ae:78:dd:bc:5a:9c:c9:
                    70:55:d5:89:9c:51:00:68:0d:56:6f:3c:5c:de:9a:
                    64:31:b4:9d:35:b1:02:c4:12:83:ee:d1:0d:b3:aa:
                    5f:6e:fc:18:af:99:a1:a7:4f:8c:39:cf:c6:94:15:
                    c1:51:df:32:6d:67:3d:51:49:b5:ed:e2:8f:09:31:
                    02:d6:d3:bf:2a:63:e6:5a:ef:fa:b6:4b:fb:26:33:
                    cd:ca:64:53:c9:9c:d2:f6:57:c7:3c:77:41:62:3f:
                    99:ac:ee:72:bd:7f:2a:58:16:4b:33:a4:7a:1f:4e:
                    37:86:1c:c5:26:77:b1:6d:81:72:78:70:26:37:8b:
                    1d:aa:4b:80:a1:0f:8f:d8:f9:4e:c6:da:38:d4:30:
                    bf:f1:8b:0f:da:77:90:f0:e0:7a:16:db:85:c9:93:
                    4c:ac:cf:4f:c4:71:74:c7:01:a0:bb:4a:ab:df:3a:
                    a6:92:36:6c:7a:7f:c6:2d:4a:1f:fa:84:4d:d8:b0:
                    7d:45:cb:56:18:3c:46:cf:67:db:38:c8:92:68:a2:
                    58:c0:60:39:bc:ee:35:4b:eb:d8:25:45:56:e6:ce:
                    8d:da:15:e4:99:96:b2:4e:c3:69:2d:0f:19:33:5d:
                    0a:1f:97
                Exponent: 65537 (0x10001)
        X509v3 extensions:
            X509v3 Basic Constraints: 
                CA:FALSE
            Netscape Comment: 
                Easy-RSA Generated Certificate
            X509v3 Subject Key Identifier: 
                94:80:17:93:20:C5:15:1E:8E:3D:66:BE:5F:50:A6:18:B8:E0:39:CE
            X509v3 Authority Key Identifier: 
                keyid:EF:38:8D:14:50:58:A7:5B:4D:9C:17:72:FC:DF:B9:AC:A7:51:B0:10
                DirName:/C=US/ST=CA/L=SanFrancisco/O=Pixglo, Inc./OU=VPN-CIE/CN=tunnel.pixglo.com/name=Bala Chandrasekaran/emailAddress=bala@pixglo.com
                serial:A6:DB:C6:83:80:E6:A0:79

            X509v3 Extended Key Usage: 
                TLS Web Client Authentication
            X509v3 Key Usage: 
                Digital Signature
    Signature Algorithm: sha1WithRSAEncryption
         59:37:98:3a:8b:b7:7c:88:aa:da:3f:00:96:fe:d9:a3:2c:4f:
         25:6a:7d:39:d9:a4:1c:42:80:f4:61:82:a3:a7:3e:e1:9b:9a:
         a5:ac:16:02:bf:82:85:e5:92:87:74:93:16:27:8e:c8:ec:17:
         83:b3:47:e2:58:f1:00:db:1d:8b:00:55:8d:e2:0e:ea:6a:39:
         a5:5a:26:d7:c2:4c:05:8f:95:cc:98:90:ed:ee:01:ee:e1:3d:
         47:fc:23:f3:23:86:ab:4d:db:68:e1:8c:cb:94:15:ec:9f:c7:
         84:27:f2:29:6f:5c:4b:04:c0:a1:df:5b:07:bb:3f:06:be:82:
         45:d3:fa:1d:e7:ba:57:cf:40:6c:85:c9:03:ad:42:14:ba:af:
         a2:f2:e0:16:3e:fc:92:68:19:dd:f9:11:5d:7c:fe:19:ad:86:
         bf:97:c8:c7:1e:4d:b0:f0:a5:1b:f7:04:92:b3:9e:34:9c:65:
         df:d7:e8:0d:94:db:51:cd:a0:0e:3f:71:fe:ba:3b:8b:f2:7b:
         70:a7:ab:c9:47:61:9f:ea:89:38:bb:ff:7c:65:82:e5:a1:fe:
         10:1e:2f:96:29:eb:30:cc:ad:5f:dd:e0:b1:04:77:51:8c:41:
         72:3c:1e:87:c0:10:7c:12:76:2c:38:a1:17:40:08:d6:28:b9:
         eb:e1:f1:9d:62:4b:7c:01:41:6f:3b:fb:3f:ea:8b:66:53:8f:
         dc:91:86:dc:e3:48:33:34:ee:1e:a4:85:ce:ef:ee:1e:65:58:
         dc:cc:2f:c3:8a:56:c2:af:a7:33:f0:9c:fd:71:de:c2:7d:e8:
         b7:b9:9c:97:fc:65:7a:6b:e5:09:dd:21:32:c4:71:00:5b:7b:
         f6:b0:8c:be:f9:5c:e6:dc:49:06:c4:3c:78:a0:df:c7:42:9a:
         08:a8:39:f8:bd:7b:37:29:e5:15:d5:99:00:5f:05:9d:e5:81:
         32:25:33:a1:74:c8:5b:db:ae:83:af:3f:a4:0c:43:83:43:f7:
         2c:0c:ae:83:ca:f6:36:6b:d3:01:46:01:4c:de:a4:af:c7:d6:
         a6:0b:2e:3f:d4:b6:ec:a2:87:d4:de:98:8b:49:ca:50:29:5c:
         66:b3:87:bb:74:31:c9:1a:74:75:e5:9b:89:71:8f:9a:2b:3b:
         25:4f:4a:8b:2a:3c:f1:91:74:d8:2a:4c:81:ab:08:aa:30:9f:
         cf:e6:f7:ae:7b:b9:0b:8c:32:08:34:01:4e:d8:95:89:cd:bc:
         a8:20:75:bb:4a:03:8c:88:8c:c1:fa:d7:61:73:ff:ef:7c:b6:
         e2:ad:1b:b6:76:2b:d1:00:91:94:6f:21:d7:79:84:4a:c8:dc:
         78:49:53:9b:c0:10:03:a8
-----BEGIN CERTIFICATE-----
MIIHSDCCBTCgAwIBAgICAnUwDQYJKoZIhvcNAQEFBQAwgbQxCzAJBgNVBAYTAlVT
MQswCQYDVQQIEwJDQTEVMBMGA1UEBxMMU2FuRnJhbmNpc2NvMRUwEwYDVQQKEwxQ
aXhnbG8sIEluYy4xEDAOBgNVBAsTB1ZQTi1DSUUxGjAYBgNVBAMTEXR1bm5lbC5w
aXhnbG8uY29tMRwwGgYDVQQpExNCYWxhIENoYW5kcmFzZWthcmFuMR4wHAYJKoZI
hvcNAQkBFg9iYWxhQHBpeGdsby5jb20wHhcNMTgwMjE0MDYzODQ5WhcNMjgwMjEy
MDYzODQ5WjCBqTELMAkGA1UEBhMCVVMxCzAJBgNVBAgTAkNBMRUwEwYDVQQHEwxT
YW5GcmFuY2lzY28xFTATBgNVBAoTDFBpeGdsbywgSW5jLjEQMA4GA1UECxMHVlBO
LUNJRTEPMA0GA1UEAxMGY2llNjI4MRwwGgYDVQQpExNCYWxhIENoYW5kcmFzZWth
cmFuMR4wHAYJKoZIhvcNAQkBFg9iYWxhQHBpeGdsby5jb20wggIiMA0GCSqGSIb3
DQEBAQUAA4ICDwAwggIKAoICAQCm8yrhd5Yuo2c9SbF01Ik0YE8idPRjlc2EgTIg
AxEpIJIpDBkjdj3ptCUktJU1KmeU3ocPiHbA0SaSQkZpKYtj5Xq0Id1VOX6/uZZB
qtWo0MUp7k1KaIW5iQCsUg7TEJJt9obBKHxoOi5Eo7+Nb92haMHwvH0CAtjsZCaD
7bKGMg/N5yz/vIzB31zBIpM4TEsZR2FbiLnvzMmNNvUVgimLF9FcL3oiXtUxkuRr
yfr4jKbWF31xcyIls78wNQJ7Lkz9AwR7tIaYYNbdR1rJ87H5eCGtgtzgxaYjrVZC
nj2iYntGs1dWYsUdA1b55z+35F5eC7vKnMHFykMM7ZZkATCEBkiLsYjS5BKP13Uu
0tEDV/yiwyvcrnjdvFqcyXBV1YmcUQBoDVZvPFzemmQxtJ01sQLEEoPu0Q2zql9u
/BivmaGnT4w5z8aUFcFR3zJtZz1RSbXt4o8JMQLW078qY+Za7/q2S/smM83KZFPJ
nNL2V8c8d0FiP5ms7nK9fypYFkszpHofTjeGHMUmd7FtgXJ4cCY3ix2qS4ChD4/Y
+U7G2jjUML/xiw/ad5Dw4HoW24XJk0ysz0/EcXTHAaC7SqvfOqaSNmx6f8YtSh/6
hE3YsH1Fy1YYPEbPZ9s4yJJooljAYDm87jVL69glRVbmzo3aFeSZlrJOw2ktDxkz
XQoflwIDAQABo4IBazCCAWcwCQYDVR0TBAIwADAtBglghkgBhvhCAQ0EIBYeRWFz
eS1SU0EgR2VuZXJhdGVkIENlcnRpZmljYXRlMB0GA1UdDgQWBBSUgBeTIMUVHo49
Zr5fUKYYuOA5zjCB6QYDVR0jBIHhMIHegBTvOI0UUFinW02cF3L837msp1GwEKGB
uqSBtzCBtDELMAkGA1UEBhMCVVMxCzAJBgNVBAgTAkNBMRUwEwYDVQQHEwxTYW5G
cmFuY2lzY28xFTATBgNVBAoTDFBpeGdsbywgSW5jLjEQMA4GA1UECxMHVlBOLUNJ
RTEaMBgGA1UEAxMRdHVubmVsLnBpeGdsby5jb20xHDAaBgNVBCkTE0JhbGEgQ2hh
bmRyYXNla2FyYW4xHjAcBgkqhkiG9w0BCQEWD2JhbGFAcGl4Z2xvLmNvbYIJAKbb
xoOA5qB5MBMGA1UdJQQMMAoGCCsGAQUFBwMCMAsGA1UdDwQEAwIHgDANBgkqhkiG
9w0BAQUFAAOCAgEAWTeYOou3fIiq2j8Alv7ZoyxPJWp9OdmkHEKA9GGCo6c+4Zua
pawWAr+CheWSh3STFieOyOwXg7NH4ljxANsdiwBVjeIO6mo5pVom18JMBY+VzJiQ
7e4B7uE9R/wj8yOGq03baOGMy5QV7J/HhCfyKW9cSwTAod9bB7s/Br6CRdP6Hee6
V89AbIXJA61CFLqvovLgFj78kmgZ3fkRXXz+Ga2Gv5fIxx5NsPClG/cEkrOeNJxl
39foDZTbUc2gDj9x/ro7i/J7cKeryUdhn+qJOLv/fGWC5aH+EB4vlinrMMytX93g
sQR3UYxBcjweh8AQfBJ2LDihF0AI1ii56+HxnWJLfAFBbzv7P+qLZlOP3JGG3ONI
MzTuHqSFzu/uHmVY3Mwvw4pWwq+nM/Cc/XHewn3ot7mcl/xlemvlCd0hMsRxAFt7
9rCMvvlc5txJBsQ8eKDfx0KaCKg5+L17NynlFdWZAF8FneWBMiUzoXTIW9uug68/
pAxDg0P3LAyug8r2NmvTAUYBTN6kr8fWpgsuP9S27KKH1N6Yi0nKUClcZrOHu3Qx
yRp0deWbiXGPmis7JU9Kiyo88ZF02CpMgasIqjCfz+b3rnu5C4wyCDQBTtiVic28
qCB1u0oDjIiMwfrXYXP/73y24q0btnYr0QCRlG8h13mESsjceElTm8AQA6g=
-----END CERTIFICATE-----
