Certificate:
    Data:
        Version: 3 (0x2)
        Serial Number: 679 (0x2a7)
    Signature Algorithm: sha1WithRSAEncryption
        Issuer: C=US, ST=CA, L=SanFrancisco, O=Pixglo, Inc., OU=VPN-CIE, CN=tunnel.pixglo.com/name=Bala Chandrasekaran/emailAddress=bala@pixglo.com
        Validity
            Not Before: Feb 14 06:40:09 2018 GMT
            Not After : Feb 12 06:40:09 2028 GMT
        Subject: C=US, ST=CA, L=SanFrancisco, O=Pixglo, Inc., OU=VPN-CIE, CN=cie678/name=Bala Chandrasekaran/emailAddress=bala@pixglo.com
        Subject Public Key Info:
            Public Key Algorithm: rsaEncryption
                Public-Key: (4096 bit)
                Modulus:
                    00:d8:0f:c4:69:c1:ec:43:88:95:fd:43:56:66:ca:
                    c3:aa:9d:67:90:ce:70:8d:b4:b7:4a:eb:28:fb:7e:
                    55:be:48:1b:cd:d1:90:bc:a8:41:a1:77:01:5f:e9:
                    a1:a8:2d:21:4c:79:a1:84:f9:4d:14:e0:26:32:2b:
                    99:9c:a9:e2:c8:d0:2a:7d:ac:40:c9:8d:53:06:4f:
                    df:f9:cf:71:e5:f2:58:1c:63:f1:c6:05:3c:a8:49:
                    70:39:b7:2a:65:41:10:05:1a:a0:38:8b:81:3f:46:
                    43:3b:c6:53:11:0c:22:f7:48:f6:f4:42:48:28:ba:
                    07:26:c8:29:b2:06:fd:85:65:bd:d6:86:e7:9e:77:
                    2a:98:51:12:bd:8b:5a:1c:cf:eb:6b:27:02:f0:4d:
                    ed:04:8d:36:b6:08:c3:54:78:ca:16:e2:11:c0:75:
                    02:4d:46:b2:30:f6:48:06:3f:1a:0a:1a:7b:81:ba:
                    de:5e:2d:90:7f:8f:c3:ca:dd:b3:83:a8:4c:ad:9e:
                    bf:18:1e:e2:ae:7f:06:a0:53:7d:0c:ee:b2:f2:ad:
                    60:ec:5c:55:ba:30:13:78:5d:f0:e7:a6:a7:fe:6f:
                    3a:a3:c5:04:5e:80:b2:bd:a4:49:36:87:48:06:9d:
                    1d:64:25:8e:0c:f9:fd:45:1f:d5:39:5a:38:1c:bb:
                    19:01:66:c8:57:e2:f5:99:4f:70:39:99:e7:dd:14:
                    c3:47:7d:26:2e:1b:02:fe:b6:00:09:54:8a:1a:fe:
                    e4:3e:d2:60:7b:e2:ae:b5:37:6d:ad:b9:7c:4d:b5:
                    17:49:85:ae:4a:89:f7:ac:8a:65:f8:06:78:5a:fa:
                    44:94:88:dc:8e:55:18:81:28:fa:d3:c4:23:1e:6a:
                    92:10:9c:cc:88:d5:91:d0:8d:a3:c2:c8:40:22:92:
                    c5:83:62:0b:c9:9c:89:d0:29:22:59:4c:39:8c:91:
                    37:81:51:1e:2f:ec:1f:a6:5d:fc:11:c8:6d:8c:af:
                    cf:17:2b:30:73:b9:dc:8a:b7:dc:cb:23:5f:ec:6c:
                    76:61:48:5d:c5:f8:dc:ec:ca:a2:63:4b:82:e9:a5:
                    8f:01:48:e3:47:c5:18:a2:17:b7:8e:b0:44:81:88:
                    87:10:97:18:83:5d:19:e0:46:0a:ed:83:78:dc:71:
                    ab:1d:31:85:1f:7a:13:27:ae:f5:51:01:48:5a:5e:
                    48:2e:41:82:83:0e:8d:86:45:b7:5f:69:90:5d:3d:
                    e9:57:1a:5b:fb:94:8a:94:22:d5:fd:24:be:19:df:
                    24:24:b6:88:46:8d:0c:60:38:c7:ca:d4:5c:ee:ac:
                    65:cb:63:02:4b:d5:70:f9:4b:13:15:79:f8:f5:89:
                    b6:7d:eb
                Exponent: 65537 (0x10001)
        X509v3 extensions:
            X509v3 Basic Constraints: 
                CA:FALSE
            Netscape Comment: 
                Easy-RSA Generated Certificate
            X509v3 Subject Key Identifier: 
                A3:90:38:CA:E5:9A:39:E3:B2:C6:D4:1F:FE:A3:43:3A:E3:F6:61:F5
            X509v3 Authority Key Identifier: 
                keyid:EF:38:8D:14:50:58:A7:5B:4D:9C:17:72:FC:DF:B9:AC:A7:51:B0:10
                DirName:/C=US/ST=CA/L=SanFrancisco/O=Pixglo, Inc./OU=VPN-CIE/CN=tunnel.pixglo.com/name=Bala Chandrasekaran/emailAddress=bala@pixglo.com
                serial:A6:DB:C6:83:80:E6:A0:79

            X509v3 Extended Key Usage: 
                TLS Web Client Authentication
            X509v3 Key Usage: 
                Digital Signature
    Signature Algorithm: sha1WithRSAEncryption
         cb:6e:3e:f8:cd:52:56:73:c5:0d:5b:a2:66:1c:03:b3:64:25:
         52:9f:da:a3:f9:f3:6b:3a:96:bb:3d:a1:c7:a7:8e:90:b0:58:
         0c:76:47:74:da:a8:52:a4:e8:5b:05:04:43:17:7c:6c:70:9e:
         20:3e:2f:e0:4e:79:58:6a:d8:b9:cc:1a:14:be:31:61:ba:d9:
         b7:0e:b4:d3:a8:24:28:66:e3:cb:2a:cc:0b:a6:cd:ef:b1:16:
         83:ac:89:bb:99:c8:0a:7e:32:ba:26:19:41:13:7a:3c:b9:49:
         ac:9e:b9:3c:e5:94:63:c6:8a:f4:b0:6c:e5:7f:8b:38:02:a0:
         87:fa:e0:ae:b4:6f:31:04:9f:03:b9:f5:cf:0f:a1:7a:8c:f3:
         5a:b9:09:87:80:ce:90:e3:a0:9c:04:b0:e4:2b:ef:69:e5:5d:
         fb:07:e8:0a:b0:26:f8:7d:b6:78:0f:99:1f:a9:9a:05:64:fe:
         a7:49:fd:8c:02:6f:e8:b8:74:fa:7e:50:a8:0f:76:7a:8f:90:
         2e:d9:c0:01:e6:a4:9e:fd:25:97:34:38:b8:70:3e:5b:9e:56:
         5c:86:9f:84:ca:cc:ee:99:6b:d5:16:fd:90:4e:8f:0e:68:59:
         e1:f1:6a:1f:74:1e:86:7f:5c:fa:56:b6:e8:a3:87:54:1b:63:
         5f:82:20:0b:e4:a3:ad:03:03:77:55:3f:f6:0f:d8:bc:5c:c2:
         0b:c6:08:f3:67:fa:9f:9f:0c:a2:89:27:20:10:60:a4:44:9c:
         db:ef:d6:b7:1c:96:76:15:9d:81:b0:84:75:12:54:71:9b:3a:
         9b:4c:0f:d8:93:d7:dd:58:b0:74:c4:eb:13:91:cf:0a:e1:1b:
         0e:92:1b:e5:c9:8a:89:84:28:54:65:35:54:b9:a0:8f:97:17:
         c7:79:a5:be:9c:99:e7:6c:ea:71:c9:16:ab:ce:3f:f1:f7:e3:
         9f:db:3f:32:a3:26:2f:f9:6f:c6:8a:57:cc:56:6f:8e:c7:f4:
         5d:45:10:4a:3e:a8:c8:94:d8:9e:b8:5d:5f:f1:a2:08:65:34:
         31:26:42:57:b2:b9:57:a2:47:02:ed:17:57:b7:7c:20:16:46:
         e2:11:8e:7e:81:16:a2:c8:72:6c:4b:c6:6f:1f:63:eb:d9:e5:
         af:41:c1:d2:46:37:01:ce:74:0e:8c:e0:25:1b:68:b4:4c:56:
         6b:a9:a2:16:00:ec:3d:4b:67:66:6d:a1:32:71:85:f5:35:1c:
         19:b5:f9:17:b6:ca:f0:7d:fc:a7:de:c4:0b:51:89:b6:c6:b2:
         1f:01:4a:02:36:00:ba:b8:b4:89:19:74:56:11:8c:1e:78:13:
         71:12:65:73:e0:13:24:d3
-----BEGIN CERTIFICATE-----
MIIHSDCCBTCgAwIBAgICAqcwDQYJKoZIhvcNAQEFBQAwgbQxCzAJBgNVBAYTAlVT
MQswCQYDVQQIEwJDQTEVMBMGA1UEBxMMU2FuRnJhbmNpc2NvMRUwEwYDVQQKEwxQ
aXhnbG8sIEluYy4xEDAOBgNVBAsTB1ZQTi1DSUUxGjAYBgNVBAMTEXR1bm5lbC5w
aXhnbG8uY29tMRwwGgYDVQQpExNCYWxhIENoYW5kcmFzZWthcmFuMR4wHAYJKoZI
hvcNAQkBFg9iYWxhQHBpeGdsby5jb20wHhcNMTgwMjE0MDY0MDA5WhcNMjgwMjEy
MDY0MDA5WjCBqTELMAkGA1UEBhMCVVMxCzAJBgNVBAgTAkNBMRUwEwYDVQQHEwxT
YW5GcmFuY2lzY28xFTATBgNVBAoTDFBpeGdsbywgSW5jLjEQMA4GA1UECxMHVlBO
LUNJRTEPMA0GA1UEAxMGY2llNjc4MRwwGgYDVQQpExNCYWxhIENoYW5kcmFzZWth
cmFuMR4wHAYJKoZIhvcNAQkBFg9iYWxhQHBpeGdsby5jb20wggIiMA0GCSqGSIb3
DQEBAQUAA4ICDwAwggIKAoICAQDYD8RpwexDiJX9Q1ZmysOqnWeQznCNtLdK6yj7
flW+SBvN0ZC8qEGhdwFf6aGoLSFMeaGE+U0U4CYyK5mcqeLI0Cp9rEDJjVMGT9/5
z3Hl8lgcY/HGBTyoSXA5typlQRAFGqA4i4E/RkM7xlMRDCL3SPb0QkgougcmyCmy
Bv2FZb3WhueedyqYURK9i1ocz+trJwLwTe0EjTa2CMNUeMoW4hHAdQJNRrIw9kgG
PxoKGnuBut5eLZB/j8PK3bODqEytnr8YHuKufwagU30M7rLyrWDsXFW6MBN4XfDn
pqf+bzqjxQRegLK9pEk2h0gGnR1kJY4M+f1FH9U5WjgcuxkBZshX4vWZT3A5mefd
FMNHfSYuGwL+tgAJVIoa/uQ+0mB74q61N22tuXxNtRdJha5KifesimX4Bnha+kSU
iNyOVRiBKPrTxCMeapIQnMyI1ZHQjaPCyEAiksWDYgvJnInQKSJZTDmMkTeBUR4v
7B+mXfwRyG2Mr88XKzBzudyKt9zLI1/sbHZhSF3F+NzsyqJjS4LppY8BSONHxRii
F7eOsESBiIcQlxiDXRngRgrtg3jccasdMYUfehMnrvVRAUhaXkguQYKDDo2GRbdf
aZBdPelXGlv7lIqUItX9JL4Z3yQktohGjQxgOMfK1FzurGXLYwJL1XD5SxMVefj1
ibZ96wIDAQABo4IBazCCAWcwCQYDVR0TBAIwADAtBglghkgBhvhCAQ0EIBYeRWFz
eS1SU0EgR2VuZXJhdGVkIENlcnRpZmljYXRlMB0GA1UdDgQWBBSjkDjK5Zo547LG
1B/+o0M64/Zh9TCB6QYDVR0jBIHhMIHegBTvOI0UUFinW02cF3L837msp1GwEKGB
uqSBtzCBtDELMAkGA1UEBhMCVVMxCzAJBgNVBAgTAkNBMRUwEwYDVQQHEwxTYW5G
cmFuY2lzY28xFTATBgNVBAoTDFBpeGdsbywgSW5jLjEQMA4GA1UECxMHVlBOLUNJ
RTEaMBgGA1UEAxMRdHVubmVsLnBpeGdsby5jb20xHDAaBgNVBCkTE0JhbGEgQ2hh
bmRyYXNla2FyYW4xHjAcBgkqhkiG9w0BCQEWD2JhbGFAcGl4Z2xvLmNvbYIJAKbb
xoOA5qB5MBMGA1UdJQQMMAoGCCsGAQUFBwMCMAsGA1UdDwQEAwIHgDANBgkqhkiG
9w0BAQUFAAOCAgEAy24++M1SVnPFDVuiZhwDs2QlUp/ao/nzazqWuz2hx6eOkLBY
DHZHdNqoUqToWwUEQxd8bHCeID4v4E55WGrYucwaFL4xYbrZtw6006gkKGbjyyrM
C6bN77EWg6yJu5nICn4yuiYZQRN6PLlJrJ65POWUY8aK9LBs5X+LOAKgh/rgrrRv
MQSfA7n1zw+heozzWrkJh4DOkOOgnASw5CvvaeVd+wfoCrAm+H22eA+ZH6maBWT+
p0n9jAJv6Lh0+n5QqA92eo+QLtnAAeaknv0llzQ4uHA+W55WXIafhMrM7plr1Rb9
kE6PDmhZ4fFqH3Qehn9c+la26KOHVBtjX4IgC+SjrQMDd1U/9g/YvFzCC8YI82f6
n58MooknIBBgpESc2+/WtxyWdhWdgbCEdRJUcZs6m0wP2JPX3ViwdMTrE5HPCuEb
DpIb5cmKiYQoVGU1VLmgj5cXx3mlvpyZ52zqcckWq84/8ffjn9s/MqMmL/lvxopX
zFZvjsf0XUUQSj6oyJTYnrhdX/GiCGU0MSZCV7K5V6JHAu0XV7d8IBZG4hGOfoEW
oshybEvGbx9j69nlr0HB0kY3Ac50DozgJRtotExWa6miFgDsPUtnZm2hMnGF9TUc
GbX5F7bK8H38p97EC1GJtsayHwFKAjYAuri0iRl0VhGMHngTcRJlc+ATJNM=
-----END CERTIFICATE-----
