Certificate:
    Data:
        Version: 3 (0x2)
        Serial Number: 651 (0x28b)
    Signature Algorithm: sha1WithRSAEncryption
        Issuer: C=US, ST=CA, L=SanFrancisco, O=Pixglo, Inc., OU=VPN-CIE, CN=tunnel.pixglo.com/name=Bala Chandrasekaran/emailAddress=bala@pixglo.com
        Validity
            Not Before: Feb 14 06:39:28 2018 GMT
            Not After : Feb 12 06:39:28 2028 GMT
        Subject: C=US, ST=CA, L=SanFrancisco, O=Pixglo, Inc., OU=VPN-CIE, CN=cie650/name=Bala Chandrasekaran/emailAddress=bala@pixglo.com
        Subject Public Key Info:
            Public Key Algorithm: rsaEncryption
                Public-Key: (4096 bit)
                Modulus:
                    00:c1:00:1a:a9:92:8c:60:3f:94:28:76:29:f7:88:
                    ff:e5:5a:7b:51:80:17:fc:d4:ce:55:f6:e0:21:d5:
                    9e:61:6a:b4:f3:f9:d0:92:dc:15:5c:ec:9d:5c:68:
                    9c:07:76:e2:3b:e4:c1:d5:17:8b:db:06:34:35:f5:
                    0f:88:ae:fc:eb:05:31:b0:49:58:0a:87:85:27:e3:
                    14:12:ad:47:43:83:f3:39:13:da:00:db:01:72:fd:
                    1a:e8:26:71:d5:56:62:66:ea:ba:cd:9d:66:7e:a8:
                    11:75:bf:40:90:d8:ae:02:07:19:36:86:ac:c0:12:
                    ef:3c:10:90:94:bf:53:e7:1b:9c:0a:5c:69:42:a7:
                    46:9c:32:04:9e:40:68:88:92:6f:8a:1c:d6:91:45:
                    3d:bb:3b:06:19:05:90:c1:c4:fa:fe:b4:b3:77:21:
                    62:f1:70:12:49:69:4b:2f:07:bd:be:56:0b:53:01:
                    53:b6:f9:61:ba:ba:0c:d9:6a:71:60:3d:06:15:ac:
                    24:1f:4a:2e:2c:2d:47:be:1c:8b:b7:78:39:ff:c8:
                    b2:df:4c:5f:71:29:f5:c8:51:c8:b8:f1:fa:8a:62:
                    d2:6c:0e:bf:92:0b:55:a3:c5:dc:24:35:3f:37:11:
                    d3:13:fe:9d:87:a9:cd:82:43:c3:15:bc:9d:1c:62:
                    2a:ec:c0:05:1c:64:72:0f:ee:7a:51:ed:32:33:00:
                    7d:c0:a2:8d:49:33:f5:15:8f:23:bd:50:75:f8:be:
                    96:6c:08:c4:39:7a:7d:47:9e:03:a4:e3:db:a9:ad:
                    11:63:58:5f:ed:80:dc:c3:d5:93:94:ee:01:49:94:
                    74:4a:a7:96:fb:f6:09:87:72:8b:09:b6:b6:87:59:
                    7b:aa:60:38:09:fe:51:e6:b0:9c:3d:84:2e:f7:02:
                    d2:b5:c0:b2:79:af:6b:14:17:6a:85:45:9c:92:cb:
                    e0:b9:ff:2d:ed:d2:80:a8:87:16:6c:14:c3:52:1f:
                    40:e5:bc:7e:84:86:ac:53:96:a8:e5:49:84:28:d7:
                    52:ad:f8:61:2a:85:04:60:ca:86:fd:75:77:77:28:
                    d9:8a:db:da:14:37:82:80:2b:75:3d:02:b5:89:e4:
                    b3:52:0a:7c:aa:f9:81:6d:4e:5a:3c:f6:c5:53:b8:
                    30:7e:a5:43:7b:35:74:70:a6:b4:ea:db:89:6b:83:
                    c9:a9:11:a2:78:5c:13:a8:54:94:19:64:17:00:9f:
                    74:33:d3:92:da:46:7f:b6:73:ab:25:e7:1a:9f:4e:
                    91:a2:26:ce:b0:ae:cc:09:56:3d:2f:47:3c:9a:81:
                    4c:f3:14:e7:98:57:5f:b9:bc:2c:49:40:ba:7e:bd:
                    84:73:09
                Exponent: 65537 (0x10001)
        X509v3 extensions:
            X509v3 Basic Constraints: 
                CA:FALSE
            Netscape Comment: 
                Easy-RSA Generated Certificate
            X509v3 Subject Key Identifier: 
                6B:72:FB:41:11:20:3D:98:51:D4:DE:96:BB:92:5F:BE:57:63:3D:F3
            X509v3 Authority Key Identifier: 
                keyid:EF:38:8D:14:50:58:A7:5B:4D:9C:17:72:FC:DF:B9:AC:A7:51:B0:10
                DirName:/C=US/ST=CA/L=SanFrancisco/O=Pixglo, Inc./OU=VPN-CIE/CN=tunnel.pixglo.com/name=Bala Chandrasekaran/emailAddress=bala@pixglo.com
                serial:A6:DB:C6:83:80:E6:A0:79

            X509v3 Extended Key Usage: 
                TLS Web Client Authentication
            X509v3 Key Usage: 
                Digital Signature
    Signature Algorithm: sha1WithRSAEncryption
         50:a3:8d:cd:ec:3c:10:73:41:7a:76:0e:31:25:fd:b1:de:ac:
         c6:8b:10:0e:89:1a:2a:fd:63:57:c8:64:cc:31:f0:fc:ca:47:
         0b:51:ac:03:2e:df:15:cb:4b:8e:77:1f:00:f3:99:ea:11:16:
         90:1d:35:0a:95:17:8c:15:12:b5:90:96:e7:7e:dc:14:af:54:
         0a:a8:e0:f6:7f:d3:b7:b6:35:7f:a1:82:73:88:82:e7:bc:04:
         26:a6:d7:df:a5:f5:18:d0:1a:e6:9d:6e:f7:fc:b3:19:45:e9:
         d7:72:6d:4e:c8:b3:8d:05:cb:4b:c4:3a:1b:0b:48:03:dc:66:
         5f:1f:87:b7:a1:1c:f4:48:ed:75:cc:2d:c7:38:70:84:98:e0:
         61:84:b9:8e:89:9e:ae:a6:7c:d1:b7:97:9c:de:64:61:e5:ef:
         a1:2f:83:f8:69:28:91:d0:92:15:4e:42:d2:32:70:92:40:5e:
         aa:ec:c3:a7:6e:66:33:7d:2f:04:85:1b:58:ea:4c:a2:c6:fa:
         32:d8:02:b4:c2:7d:c5:ad:95:5b:a9:06:89:0e:ad:93:8b:d1:
         68:83:4f:a5:86:97:5d:fc:b7:53:68:5b:a4:14:a2:70:2f:7c:
         f0:6c:38:5e:73:bf:b1:3a:d2:78:b5:5d:d0:ca:b4:54:30:fe:
         b1:2b:ce:37:56:00:39:c5:95:78:46:59:f8:d3:8a:81:c7:d5:
         83:86:b8:51:d1:20:cb:66:40:4c:54:c6:23:5d:0d:5a:ab:d3:
         3d:d5:fa:0c:f0:4c:ef:63:7a:a9:74:37:04:e8:09:29:85:61:
         b1:72:31:94:33:df:92:46:8d:96:41:a9:5a:6e:ad:5e:e3:92:
         e1:56:15:b2:7e:6d:80:e4:9d:4b:ba:27:51:eb:95:e7:63:23:
         55:6b:bd:9e:80:7b:61:bf:8e:67:24:23:d9:b0:78:30:c8:85:
         f0:f4:60:62:b2:72:2d:4d:e4:7b:95:d8:61:62:77:eb:5e:e8:
         1f:ff:c3:93:e3:d4:71:ee:72:a7:d7:ea:a7:15:93:15:34:e0:
         8e:a6:40:fe:1c:b7:50:50:bc:d5:16:46:14:99:32:bf:cb:de:
         c8:7a:fa:ff:ac:c1:06:af:22:70:75:4f:38:dc:e0:97:df:2e:
         3d:df:de:1c:b9:43:ad:6b:fb:81:30:f6:bb:26:a4:be:79:a9:
         61:59:c7:ff:0a:d1:4a:1e:0d:ac:ba:8f:9e:e1:52:ec:0a:d7:
         9f:ac:8f:67:79:5f:a3:bf:7d:16:84:37:fe:95:dd:52:20:49:
         80:e0:4b:58:2c:f9:ac:60:06:bf:13:10:0b:b6:05:f9:5a:74:
         b6:41:18:52:03:00:08:72
-----BEGIN CERTIFICATE-----
MIIHSDCCBTCgAwIBAgICAoswDQYJKoZIhvcNAQEFBQAwgbQxCzAJBgNVBAYTAlVT
MQswCQYDVQQIEwJDQTEVMBMGA1UEBxMMU2FuRnJhbmNpc2NvMRUwEwYDVQQKEwxQ
aXhnbG8sIEluYy4xEDAOBgNVBAsTB1ZQTi1DSUUxGjAYBgNVBAMTEXR1bm5lbC5w
aXhnbG8uY29tMRwwGgYDVQQpExNCYWxhIENoYW5kcmFzZWthcmFuMR4wHAYJKoZI
hvcNAQkBFg9iYWxhQHBpeGdsby5jb20wHhcNMTgwMjE0MDYzOTI4WhcNMjgwMjEy
MDYzOTI4WjCBqTELMAkGA1UEBhMCVVMxCzAJBgNVBAgTAkNBMRUwEwYDVQQHEwxT
YW5GcmFuY2lzY28xFTATBgNVBAoTDFBpeGdsbywgSW5jLjEQMA4GA1UECxMHVlBO
LUNJRTEPMA0GA1UEAxMGY2llNjUwMRwwGgYDVQQpExNCYWxhIENoYW5kcmFzZWth
cmFuMR4wHAYJKoZIhvcNAQkBFg9iYWxhQHBpeGdsby5jb20wggIiMA0GCSqGSIb3
DQEBAQUAA4ICDwAwggIKAoICAQDBABqpkoxgP5Qodin3iP/lWntRgBf81M5V9uAh
1Z5harTz+dCS3BVc7J1caJwHduI75MHVF4vbBjQ19Q+IrvzrBTGwSVgKh4Un4xQS
rUdDg/M5E9oA2wFy/RroJnHVVmJm6rrNnWZ+qBF1v0CQ2K4CBxk2hqzAEu88EJCU
v1PnG5wKXGlCp0acMgSeQGiIkm+KHNaRRT27OwYZBZDBxPr+tLN3IWLxcBJJaUsv
B72+VgtTAVO2+WG6ugzZanFgPQYVrCQfSi4sLUe+HIu3eDn/yLLfTF9xKfXIUci4
8fqKYtJsDr+SC1WjxdwkNT83EdMT/p2Hqc2CQ8MVvJ0cYirswAUcZHIP7npR7TIz
AH3Aoo1JM/UVjyO9UHX4vpZsCMQ5en1HngOk49uprRFjWF/tgNzD1ZOU7gFJlHRK
p5b79gmHcosJtraHWXuqYDgJ/lHmsJw9hC73AtK1wLJ5r2sUF2qFRZySy+C5/y3t
0oCohxZsFMNSH0DlvH6EhqxTlqjlSYQo11Kt+GEqhQRgyob9dXd3KNmK29oUN4KA
K3U9ArWJ5LNSCnyq+YFtTlo89sVTuDB+pUN7NXRwprTq24lrg8mpEaJ4XBOoVJQZ
ZBcAn3Qz05LaRn+2c6sl5xqfTpGiJs6wrswJVj0vRzyagUzzFOeYV1+5vCxJQLp+
vYRzCQIDAQABo4IBazCCAWcwCQYDVR0TBAIwADAtBglghkgBhvhCAQ0EIBYeRWFz
eS1SU0EgR2VuZXJhdGVkIENlcnRpZmljYXRlMB0GA1UdDgQWBBRrcvtBESA9mFHU
3pa7kl++V2M98zCB6QYDVR0jBIHhMIHegBTvOI0UUFinW02cF3L837msp1GwEKGB
uqSBtzCBtDELMAkGA1UEBhMCVVMxCzAJBgNVBAgTAkNBMRUwEwYDVQQHEwxTYW5G
cmFuY2lzY28xFTATBgNVBAoTDFBpeGdsbywgSW5jLjEQMA4GA1UECxMHVlBOLUNJ
RTEaMBgGA1UEAxMRdHVubmVsLnBpeGdsby5jb20xHDAaBgNVBCkTE0JhbGEgQ2hh
bmRyYXNla2FyYW4xHjAcBgkqhkiG9w0BCQEWD2JhbGFAcGl4Z2xvLmNvbYIJAKbb
xoOA5qB5MBMGA1UdJQQMMAoGCCsGAQUFBwMCMAsGA1UdDwQEAwIHgDANBgkqhkiG
9w0BAQUFAAOCAgEAUKONzew8EHNBenYOMSX9sd6sxosQDokaKv1jV8hkzDHw/MpH
C1GsAy7fFctLjncfAPOZ6hEWkB01CpUXjBUStZCW537cFK9UCqjg9n/Tt7Y1f6GC
c4iC57wEJqbX36X1GNAa5p1u9/yzGUXp13JtTsizjQXLS8Q6GwtIA9xmXx+Ht6Ec
9EjtdcwtxzhwhJjgYYS5jomerqZ80beXnN5kYeXvoS+D+GkokdCSFU5C0jJwkkBe
quzDp25mM30vBIUbWOpMosb6MtgCtMJ9xa2VW6kGiQ6tk4vRaINPpYaXXfy3U2hb
pBSicC988Gw4XnO/sTrSeLVd0Mq0VDD+sSvON1YAOcWVeEZZ+NOKgcfVg4a4UdEg
y2ZATFTGI10NWqvTPdX6DPBM72N6qXQ3BOgJKYVhsXIxlDPfkkaNlkGpWm6tXuOS
4VYVsn5tgOSdS7onUeuV52MjVWu9noB7Yb+OZyQj2bB4MMiF8PRgYrJyLU3ke5XY
YWJ3617oH//Dk+PUce5yp9fqpxWTFTTgjqZA/hy3UFC81RZGFJkyv8veyHr6/6zB
Bq8icHVPONzgl98uPd/eHLlDrWv7gTD2uyakvnmpYVnH/wrRSh4NrLqPnuFS7ArX
n6yPZ3lfo799FoQ3/pXdUiBJgOBLWCz5rGAGvxMQC7YF+Vp0tkEYUgMACHI=
-----END CERTIFICATE-----
