Certificate:
    Data:
        Version: 3 (0x2)
        Serial Number: 65 (0x41)
    Signature Algorithm: sha1WithRSAEncryption
        Issuer: C=US, ST=CA, L=SanFrancisco, O=Pixglo, Inc., OU=VPN-CIE, CN=tunnel.pixglo.com/name=Bala Chandrasekaran/emailAddress=bala@pixglo.com
        Validity
            Not Before: Feb 14 06:25:04 2018 GMT
            Not After : Feb 12 06:25:04 2028 GMT
        Subject: C=US, ST=CA, L=SanFrancisco, O=Pixglo, Inc., OU=VPN-CIE, CN=cie64/name=Bala Chandrasekaran/emailAddress=bala@pixglo.com
        Subject Public Key Info:
            Public Key Algorithm: rsaEncryption
                Public-Key: (4096 bit)
                Modulus:
                    00:d4:53:8a:2e:b3:fb:7d:6f:74:7d:63:aa:47:0e:
                    42:17:c0:a2:1c:77:91:9a:09:1d:1c:e3:e4:67:c7:
                    d7:1f:2f:f6:c8:8d:e6:5b:43:ad:b0:0e:04:4b:79:
                    e3:f4:66:9f:a5:88:79:c5:09:00:5e:fb:3a:bd:f5:
                    3f:b0:66:31:82:64:b4:32:2e:ae:29:83:8b:0e:4d:
                    f1:bc:8a:93:21:5d:85:33:10:86:f7:3a:42:53:4b:
                    76:cf:57:e8:3a:66:54:ec:be:b5:a2:f6:8d:ea:82:
                    a4:f6:20:33:b6:71:e3:e6:92:cb:66:e2:47:7e:bc:
                    e1:3f:e5:4f:f6:5d:99:69:71:c4:1b:2b:f4:f1:c6:
                    21:45:ca:68:02:ed:1d:28:8b:61:37:7b:29:f8:33:
                    80:54:37:c3:8c:33:88:58:ac:59:65:0b:d0:1a:db:
                    a2:84:bd:dc:a6:07:39:4c:31:22:ea:6d:ab:d7:24:
                    b7:d6:74:11:8e:2d:6d:2a:46:1b:03:4a:ff:7a:34:
                    39:68:cf:f8:6b:93:4a:6d:18:c3:bf:08:ef:e2:9e:
                    de:62:cc:e2:4d:d7:00:f5:ad:c4:d5:a7:69:b7:13:
                    3d:09:95:5e:f3:51:d1:16:63:df:07:e1:0b:30:e1:
                    4f:3d:35:86:b4:c9:55:ef:6c:70:4c:19:2f:15:c8:
                    81:07:e5:1f:94:6a:d5:ab:91:98:eb:83:e9:e7:2a:
                    e2:df:5f:37:29:fe:5c:24:39:8b:f0:ea:d2:8b:37:
                    fa:06:b4:53:a4:97:50:fb:5f:b9:a1:9b:5e:44:7e:
                    b4:b3:ee:46:d5:2e:16:8c:f9:41:2d:53:30:4b:31:
                    3d:15:49:e9:83:75:85:6d:50:9a:bc:55:20:de:4d:
                    8d:4a:7a:90:c7:57:6f:a6:9f:b8:f8:d0:5c:62:ec:
                    1b:5d:d1:9d:0c:6d:60:9b:22:a0:78:d7:5d:fc:60:
                    bb:c3:63:ca:39:ff:fd:90:43:b7:a1:66:85:60:51:
                    a7:a6:1f:1c:fb:af:60:57:6c:77:aa:68:e5:2b:68:
                    ba:1a:54:08:35:96:c2:12:d8:a0:a4:c4:2f:7c:2b:
                    27:66:94:1f:5f:9f:b8:7a:40:73:53:ca:7a:c9:5c:
                    d3:b4:b4:57:b3:46:14:b3:eb:4e:1d:9c:90:94:97:
                    d2:04:66:81:a0:22:46:22:69:7b:97:38:6a:2e:05:
                    f6:ca:5e:42:db:37:d2:04:8d:63:de:6b:99:5b:31:
                    8b:31:1e:c7:80:72:95:25:0a:93:4e:a1:20:66:5c:
                    40:f6:11:a7:fb:44:f1:f3:e8:a3:f4:df:58:69:0f:
                    17:91:55:a8:b6:88:63:f7:f8:06:e8:25:c4:17:42:
                    79:85:59
                Exponent: 65537 (0x10001)
        X509v3 extensions:
            X509v3 Basic Constraints: 
                CA:FALSE
            Netscape Comment: 
                Easy-RSA Generated Certificate
            X509v3 Subject Key Identifier: 
                50:17:9C:E4:DA:B7:37:AA:78:45:76:05:B4:A9:1C:4A:F4:5A:68:FB
            X509v3 Authority Key Identifier: 
                keyid:EF:38:8D:14:50:58:A7:5B:4D:9C:17:72:FC:DF:B9:AC:A7:51:B0:10
                DirName:/C=US/ST=CA/L=SanFrancisco/O=Pixglo, Inc./OU=VPN-CIE/CN=tunnel.pixglo.com/name=Bala Chandrasekaran/emailAddress=bala@pixglo.com
                serial:A6:DB:C6:83:80:E6:A0:79

            X509v3 Extended Key Usage: 
                TLS Web Client Authentication
            X509v3 Key Usage: 
                Digital Signature
    Signature Algorithm: sha1WithRSAEncryption
         bf:d1:29:08:7e:59:8a:1e:6d:22:5f:ef:7b:7d:3a:d5:f0:2e:
         3e:b6:7a:1b:ec:f0:cf:01:50:dc:eb:41:c8:28:27:49:43:38:
         2c:99:ab:83:18:59:64:31:62:9a:e9:94:a2:15:8b:c7:a9:d3:
         f1:a2:5b:b8:b9:33:ae:fc:12:1e:1b:ac:c0:58:2d:61:1c:8b:
         10:01:ba:e9:54:53:d0:f5:51:ea:09:7f:c5:8c:fe:cb:44:3e:
         37:ae:67:cc:b1:74:01:c9:58:a8:86:77:03:2d:aa:a5:35:7d:
         c0:55:be:aa:bd:f9:7b:15:c4:b3:29:da:94:b6:72:9f:ae:23:
         f4:3d:dd:ab:06:d5:2b:0f:33:91:ab:c8:ce:1b:7f:06:ff:32:
         60:bb:0f:84:ef:0f:2d:98:d7:8d:35:32:85:c1:79:bd:77:d9:
         7c:b0:1b:30:b8:de:1e:15:da:ab:9a:86:52:1a:aa:f7:3a:0a:
         36:01:43:64:90:21:f3:2d:b9:a3:a9:f8:cc:ce:3e:59:aa:bf:
         1d:d7:f6:ee:74:9f:41:0e:77:89:dd:40:95:7f:dd:38:02:9b:
         cb:ae:19:be:82:30:26:43:fd:92:66:98:b8:ee:39:92:26:64:
         35:63:56:be:e7:e1:f6:42:96:0c:0e:a3:50:67:31:6a:2c:29:
         48:37:52:40:2f:ea:8c:bd:98:be:fa:e5:3f:bc:af:f3:44:c9:
         05:23:ad:a5:66:07:9a:a5:67:fc:8a:78:dd:ca:ec:6b:c6:b5:
         7d:cf:05:c9:a5:4d:2e:75:ed:46:88:f8:6d:c7:ee:67:33:5a:
         70:39:38:73:5b:3b:57:7b:3f:54:9a:4c:b9:f0:a3:71:ad:2e:
         9b:85:dd:83:ed:0d:42:81:1d:e6:ae:da:5f:9b:2d:ca:b2:48:
         d9:02:5a:7d:98:f1:d1:98:d3:e6:41:f6:c4:fc:d3:6d:d2:77:
         84:66:c3:08:b9:f7:f0:d7:9a:fb:35:10:b1:b9:93:ab:66:1e:
         75:35:5c:0a:2c:5b:68:b3:a6:12:78:73:38:ee:01:68:50:e9:
         18:9f:9e:16:71:d7:2d:ec:a6:90:ed:8e:2a:da:97:a1:f1:cd:
         66:17:ac:0d:00:29:b1:bf:ec:b7:c5:08:ca:a2:1a:58:5d:10:
         02:da:a0:3d:e4:3f:86:9c:24:b3:91:02:6b:75:81:0e:a4:9b:
         ae:eb:46:1f:37:b8:72:59:a7:a4:f3:21:2d:84:8c:72:e2:54:
         86:dc:ee:93:57:27:20:d6:e8:4a:ab:6a:42:17:04:08:ef:4a:
         d6:6b:8b:da:d1:aa:14:ae:a0:69:70:06:0b:7c:45:d4:a6:37:
         cd:bf:b5:19:2b:17:b0:45
-----BEGIN CERTIFICATE-----
MIIHRjCCBS6gAwIBAgIBQTANBgkqhkiG9w0BAQUFADCBtDELMAkGA1UEBhMCVVMx
CzAJBgNVBAgTAkNBMRUwEwYDVQQHEwxTYW5GcmFuY2lzY28xFTATBgNVBAoTDFBp
eGdsbywgSW5jLjEQMA4GA1UECxMHVlBOLUNJRTEaMBgGA1UEAxMRdHVubmVsLnBp
eGdsby5jb20xHDAaBgNVBCkTE0JhbGEgQ2hhbmRyYXNla2FyYW4xHjAcBgkqhkiG
9w0BCQEWD2JhbGFAcGl4Z2xvLmNvbTAeFw0xODAyMTQwNjI1MDRaFw0yODAyMTIw
NjI1MDRaMIGoMQswCQYDVQQGEwJVUzELMAkGA1UECBMCQ0ExFTATBgNVBAcTDFNh
bkZyYW5jaXNjbzEVMBMGA1UEChMMUGl4Z2xvLCBJbmMuMRAwDgYDVQQLEwdWUE4t
Q0lFMQ4wDAYDVQQDEwVjaWU2NDEcMBoGA1UEKRMTQmFsYSBDaGFuZHJhc2VrYXJh
bjEeMBwGCSqGSIb3DQEJARYPYmFsYUBwaXhnbG8uY29tMIICIjANBgkqhkiG9w0B
AQEFAAOCAg8AMIICCgKCAgEA1FOKLrP7fW90fWOqRw5CF8CiHHeRmgkdHOPkZ8fX
Hy/2yI3mW0OtsA4ES3nj9GafpYh5xQkAXvs6vfU/sGYxgmS0Mi6uKYOLDk3xvIqT
IV2FMxCG9zpCU0t2z1foOmZU7L61ovaN6oKk9iAztnHj5pLLZuJHfrzhP+VP9l2Z
aXHEGyv08cYhRcpoAu0dKIthN3sp+DOAVDfDjDOIWKxZZQvQGtuihL3cpgc5TDEi
6m2r1yS31nQRji1tKkYbA0r/ejQ5aM/4a5NKbRjDvwjv4p7eYsziTdcA9a3E1adp
txM9CZVe81HRFmPfB+ELMOFPPTWGtMlV72xwTBkvFciBB+UflGrVq5GY64Pp5yri
3183Kf5cJDmL8OrSizf6BrRTpJdQ+1+5oZteRH60s+5G1S4WjPlBLVMwSzE9FUnp
g3WFbVCavFUg3k2NSnqQx1dvpp+4+NBcYuwbXdGdDG1gmyKgeNdd/GC7w2PKOf/9
kEO3oWaFYFGnph8c+69gV2x3qmjlK2i6GlQINZbCEtigpMQvfCsnZpQfX5+4ekBz
U8p6yVzTtLRXs0YUs+tOHZyQlJfSBGaBoCJGIml7lzhqLgX2yl5C2zfSBI1j3muZ
WzGLMR7HgHKVJQqTTqEgZlxA9hGn+0Tx8+ij9N9YaQ8XkVWotohj9/gG6CXEF0J5
hVkCAwEAAaOCAWswggFnMAkGA1UdEwQCMAAwLQYJYIZIAYb4QgENBCAWHkVhc3kt
UlNBIEdlbmVyYXRlZCBDZXJ0aWZpY2F0ZTAdBgNVHQ4EFgQUUBec5Nq3N6p4RXYF
tKkcSvRaaPswgekGA1UdIwSB4TCB3oAU7ziNFFBYp1tNnBdy/N+5rKdRsBChgbqk
gbcwgbQxCzAJBgNVBAYTAlVTMQswCQYDVQQIEwJDQTEVMBMGA1UEBxMMU2FuRnJh
bmNpc2NvMRUwEwYDVQQKEwxQaXhnbG8sIEluYy4xEDAOBgNVBAsTB1ZQTi1DSUUx
GjAYBgNVBAMTEXR1bm5lbC5waXhnbG8uY29tMRwwGgYDVQQpExNCYWxhIENoYW5k
cmFzZWthcmFuMR4wHAYJKoZIhvcNAQkBFg9iYWxhQHBpeGdsby5jb22CCQCm28aD
gOageTATBgNVHSUEDDAKBggrBgEFBQcDAjALBgNVHQ8EBAMCB4AwDQYJKoZIhvcN
AQEFBQADggIBAL/RKQh+WYoebSJf73t9OtXwLj62ehvs8M8BUNzrQcgoJ0lDOCyZ
q4MYWWQxYprplKIVi8ep0/GiW7i5M678Eh4brMBYLWEcixABuulUU9D1UeoJf8WM
/stEPjeuZ8yxdAHJWKiGdwMtqqU1fcBVvqq9+XsVxLMp2pS2cp+uI/Q93asG1SsP
M5GryM4bfwb/MmC7D4TvDy2Y1401MoXBeb132XywGzC43h4V2quahlIaqvc6CjYB
Q2SQIfMtuaOp+MzOPlmqvx3X9u50n0EOd4ndQJV/3TgCm8uuGb6CMCZD/ZJmmLju
OZImZDVjVr7n4fZClgwOo1BnMWosKUg3UkAv6oy9mL765T+8r/NEyQUjraVmB5ql
Z/yKeN3K7GvGtX3PBcmlTS517UaI+G3H7mczWnA5OHNbO1d7P1SaTLnwo3GtLpuF
3YPtDUKBHeau2l+bLcqySNkCWn2Y8dGY0+ZB9sT8023Sd4Rmwwi59/DXmvs1ELG5
k6tmHnU1XAosW2izphJ4czjuAWhQ6RifnhZx1y3sppDtjiral6HxzWYXrA0AKbG/
7LfFCMqiGlhdEALaoD3kP4acJLORAmt1gQ6km67rRh83uHJZp6TzIS2EjHLiVIbc
7pNXJyDW6EqrakIXBAjvStZri9rRqhSuoGlwBgt8RdSmN82/tRkrF7BF
-----END CERTIFICATE-----
