Certificate:
    Data:
        Version: 3 (0x2)
        Serial Number: 775 (0x307)
    Signature Algorithm: sha1WithRSAEncryption
        Issuer: C=US, ST=CA, L=SanFrancisco, O=Pixglo, Inc., OU=VPN-CIE, CN=tunnel.pixglo.com/name=Bala Chandrasekaran/emailAddress=bala@pixglo.com
        Validity
            Not Before: Feb 14 06:43:15 2018 GMT
            Not After : Feb 12 06:43:15 2028 GMT
        Subject: C=US, ST=CA, L=SanFrancisco, O=Pixglo, Inc., OU=VPN-CIE, CN=cie774/name=Bala Chandrasekaran/emailAddress=bala@pixglo.com
        Subject Public Key Info:
            Public Key Algorithm: rsaEncryption
                Public-Key: (4096 bit)
                Modulus:
                    00:a6:02:af:1b:b6:e6:cb:c3:3c:19:d7:ad:44:d5:
                    77:ae:75:e0:d7:cc:b0:94:a7:79:a9:ef:43:c8:99:
                    f3:dc:2b:a2:0f:30:d6:3c:17:6e:42:c0:21:4b:3a:
                    6e:6e:fc:a4:fd:3f:a7:3c:b9:6f:9d:10:6c:4e:88:
                    5b:a3:80:c2:62:a6:f9:8f:3b:7f:c8:01:e2:36:fa:
                    2b:71:39:45:30:c4:85:ef:7b:5f:03:6d:b6:f8:ec:
                    38:b1:84:8b:95:bd:b2:f5:ac:90:85:c8:2a:f3:a3:
                    fc:0d:13:6d:ef:b2:b7:ce:ec:3f:ce:c4:ea:d3:da:
                    a8:4e:4f:4d:f8:e8:c0:ec:89:af:22:ed:9d:a5:d9:
                    69:aa:b5:03:09:2d:fa:e7:9d:38:02:cd:b3:66:af:
                    e1:dd:77:b5:73:19:e3:df:41:25:6b:23:af:db:f2:
                    95:32:4d:2d:3b:08:8e:1a:ca:fc:69:c1:5e:d9:19:
                    1b:53:13:4e:bb:7b:b8:9d:77:f0:9f:3e:b5:7f:76:
                    4d:f7:6a:72:ac:df:e5:1d:95:b0:da:da:8b:17:21:
                    c0:de:01:af:a8:3b:b5:af:12:8c:1b:dc:68:5a:87:
                    4f:7a:52:9c:35:59:47:5f:74:24:52:30:11:50:30:
                    ee:ec:ca:2b:3f:bc:9f:c5:31:7e:71:08:42:7a:7f:
                    4f:6b:0c:28:62:17:82:13:9a:07:e0:90:55:dc:ce:
                    42:5a:56:37:0d:4c:39:e9:da:4d:a4:00:85:d7:46:
                    05:d0:c5:c4:f0:1f:56:db:53:88:24:4b:7b:e2:42:
                    0a:80:e2:d6:4c:52:29:8e:2d:32:a6:59:1f:dd:90:
                    3c:81:43:52:d4:4d:96:e2:82:31:a2:74:67:47:b0:
                    bf:b2:6c:85:7e:d1:57:83:3c:ad:9a:a0:11:92:1d:
                    d0:bb:47:ac:b9:d1:6b:98:0d:98:24:d1:eb:07:2e:
                    5a:b8:61:6e:b0:1d:39:a9:0d:10:b9:bd:91:f8:b1:
                    7e:3d:9c:ac:b8:97:09:6e:ec:35:42:f1:47:83:21:
                    29:ef:f5:65:7d:5e:64:03:2c:f4:cf:5b:0d:cb:b6:
                    c7:ff:50:b2:11:5e:12:3c:3b:2d:48:98:74:99:96:
                    6f:fd:ad:1b:67:f3:16:d6:41:cf:a4:44:a9:05:46:
                    e3:0f:e5:be:c5:1e:b5:5a:76:93:23:24:bc:9d:21:
                    51:5c:e3:35:cf:99:1c:cd:b0:e5:1e:15:a6:33:4f:
                    9c:fb:6f:63:a0:08:c8:09:1b:25:62:e9:14:cb:1d:
                    0b:54:06:55:ad:f1:83:54:e4:05:09:10:a9:5b:f2:
                    ec:bd:fa:e7:05:28:57:b9:ea:35:ed:0c:67:12:41:
                    f1:32:d3
                Exponent: 65537 (0x10001)
        X509v3 extensions:
            X509v3 Basic Constraints: 
                CA:FALSE
            Netscape Comment: 
                Easy-RSA Generated Certificate
            X509v3 Subject Key Identifier: 
                E0:86:84:D1:F9:03:2D:5E:45:4B:91:44:05:E9:09:5C:E0:ED:C3:2E
            X509v3 Authority Key Identifier: 
                keyid:EF:38:8D:14:50:58:A7:5B:4D:9C:17:72:FC:DF:B9:AC:A7:51:B0:10
                DirName:/C=US/ST=CA/L=SanFrancisco/O=Pixglo, Inc./OU=VPN-CIE/CN=tunnel.pixglo.com/name=Bala Chandrasekaran/emailAddress=bala@pixglo.com
                serial:A6:DB:C6:83:80:E6:A0:79

            X509v3 Extended Key Usage: 
                TLS Web Client Authentication
            X509v3 Key Usage: 
                Digital Signature
    Signature Algorithm: sha1WithRSAEncryption
         0a:8f:9b:1c:35:d9:05:33:ef:c4:1c:9d:8c:9d:95:85:86:58:
         7b:aa:f9:54:9d:42:cf:eb:dd:59:ff:c8:cd:91:80:49:b2:33:
         a1:21:59:a9:2d:76:dd:42:74:a1:bc:43:75:7e:9e:44:78:0a:
         65:cf:a4:83:57:4d:0a:10:4b:cf:9f:0b:24:20:3c:c4:41:af:
         f7:bc:75:b0:77:dd:eb:04:35:57:22:e4:a3:9e:ee:6c:00:bc:
         88:20:b2:67:1c:0c:df:df:1f:ec:36:98:61:38:62:dd:e8:81:
         e6:31:af:ee:e8:ef:e1:dd:dd:8a:20:7d:c8:3c:2c:42:e2:26:
         01:ba:e6:53:95:2f:29:85:70:86:73:36:1a:6c:5a:29:55:13:
         b2:db:65:22:62:cc:14:1f:13:65:b7:77:c2:aa:52:94:89:f7:
         f8:f8:da:4d:9e:ae:dc:bf:ee:a4:38:62:d2:f8:7e:6b:4c:53:
         ac:bf:89:bd:1a:41:09:80:99:f5:22:a5:c3:48:c7:bd:dd:1f:
         e3:1e:01:2b:9f:96:e9:ed:5f:2b:57:94:8b:07:7a:4c:a4:4f:
         f9:42:50:b1:fc:7a:51:a1:6c:6c:4a:79:f7:29:f3:af:01:1a:
         d4:54:83:05:32:2a:6e:71:8e:44:49:75:c1:c3:33:58:1c:dd:
         5b:95:f3:67:54:71:c7:74:1b:c4:48:c8:ea:44:af:5f:28:27:
         f3:a2:84:26:be:6b:82:da:9a:92:a7:82:8d:24:64:52:2c:57:
         1e:8d:75:24:d4:ba:72:b7:34:62:e6:ff:dd:d5:6e:29:fd:a5:
         9c:a6:0c:a4:c0:98:e9:ab:9c:c7:b2:cd:30:ea:db:ee:66:04:
         59:a9:45:b6:19:32:c0:c9:88:14:3c:91:0a:6d:b1:1c:96:0d:
         07:c9:65:a0:de:12:0d:84:d6:b1:20:db:91:91:9e:0c:40:bc:
         3f:ed:83:8f:53:c4:7b:fe:1f:08:cc:3d:db:da:0f:89:51:86:
         e5:49:56:cc:2b:b2:d3:42:02:72:de:02:fb:ce:56:6f:87:41:
         07:1e:22:dd:24:49:16:fd:50:47:d1:2e:b6:74:28:c1:da:49:
         78:ec:ba:7e:1e:45:6e:66:95:7d:0c:e8:00:a3:92:76:0c:2e:
         2f:21:aa:d7:33:43:83:b8:3e:a3:23:22:36:d1:32:3f:9b:31:
         b7:8c:19:fc:0b:29:3c:c5:2b:92:0e:ec:4a:b3:a1:8c:43:80:
         82:9f:35:1e:18:fa:f1:d4:6b:22:f7:59:61:c2:1c:b6:6d:1a:
         4d:c5:f7:f5:dc:12:3f:c8:55:dc:c5:45:92:df:68:d1:20:02:
         ae:94:10:5a:01:fd:e2:64
-----BEGIN CERTIFICATE-----
MIIHSDCCBTCgAwIBAgICAwcwDQYJKoZIhvcNAQEFBQAwgbQxCzAJBgNVBAYTAlVT
MQswCQYDVQQIEwJDQTEVMBMGA1UEBxMMU2FuRnJhbmNpc2NvMRUwEwYDVQQKEwxQ
aXhnbG8sIEluYy4xEDAOBgNVBAsTB1ZQTi1DSUUxGjAYBgNVBAMTEXR1bm5lbC5w
aXhnbG8uY29tMRwwGgYDVQQpExNCYWxhIENoYW5kcmFzZWthcmFuMR4wHAYJKoZI
hvcNAQkBFg9iYWxhQHBpeGdsby5jb20wHhcNMTgwMjE0MDY0MzE1WhcNMjgwMjEy
MDY0MzE1WjCBqTELMAkGA1UEBhMCVVMxCzAJBgNVBAgTAkNBMRUwEwYDVQQHEwxT
YW5GcmFuY2lzY28xFTATBgNVBAoTDFBpeGdsbywgSW5jLjEQMA4GA1UECxMHVlBO
LUNJRTEPMA0GA1UEAxMGY2llNzc0MRwwGgYDVQQpExNCYWxhIENoYW5kcmFzZWth
cmFuMR4wHAYJKoZIhvcNAQkBFg9iYWxhQHBpeGdsby5jb20wggIiMA0GCSqGSIb3
DQEBAQUAA4ICDwAwggIKAoICAQCmAq8btubLwzwZ161E1XeudeDXzLCUp3mp70PI
mfPcK6IPMNY8F25CwCFLOm5u/KT9P6c8uW+dEGxOiFujgMJipvmPO3/IAeI2+itx
OUUwxIXve18Dbbb47DixhIuVvbL1rJCFyCrzo/wNE23vsrfO7D/OxOrT2qhOT034
6MDsia8i7Z2l2WmqtQMJLfrnnTgCzbNmr+Hdd7VzGePfQSVrI6/b8pUyTS07CI4a
yvxpwV7ZGRtTE067e7idd/CfPrV/dk33anKs3+UdlbDa2osXIcDeAa+oO7WvEowb
3Ghah096Upw1WUdfdCRSMBFQMO7syis/vJ/FMX5xCEJ6f09rDChiF4ITmgfgkFXc
zkJaVjcNTDnp2k2kAIXXRgXQxcTwH1bbU4gkS3viQgqA4tZMUimOLTKmWR/dkDyB
Q1LUTZbigjGidGdHsL+ybIV+0VeDPK2aoBGSHdC7R6y50WuYDZgk0esHLlq4YW6w
HTmpDRC5vZH4sX49nKy4lwlu7DVC8UeDISnv9WV9XmQDLPTPWw3Ltsf/ULIRXhI8
Oy1ImHSZlm/9rRtn8xbWQc+kRKkFRuMP5b7FHrVadpMjJLydIVFc4zXPmRzNsOUe
FaYzT5z7b2OgCMgJGyVi6RTLHQtUBlWt8YNU5AUJEKlb8uy9+ucFKFe56jXtDGcS
QfEy0wIDAQABo4IBazCCAWcwCQYDVR0TBAIwADAtBglghkgBhvhCAQ0EIBYeRWFz
eS1SU0EgR2VuZXJhdGVkIENlcnRpZmljYXRlMB0GA1UdDgQWBBTghoTR+QMtXkVL
kUQF6Qlc4O3DLjCB6QYDVR0jBIHhMIHegBTvOI0UUFinW02cF3L837msp1GwEKGB
uqSBtzCBtDELMAkGA1UEBhMCVVMxCzAJBgNVBAgTAkNBMRUwEwYDVQQHEwxTYW5G
cmFuY2lzY28xFTATBgNVBAoTDFBpeGdsbywgSW5jLjEQMA4GA1UECxMHVlBOLUNJ
RTEaMBgGA1UEAxMRdHVubmVsLnBpeGdsby5jb20xHDAaBgNVBCkTE0JhbGEgQ2hh
bmRyYXNla2FyYW4xHjAcBgkqhkiG9w0BCQEWD2JhbGFAcGl4Z2xvLmNvbYIJAKbb
xoOA5qB5MBMGA1UdJQQMMAoGCCsGAQUFBwMCMAsGA1UdDwQEAwIHgDANBgkqhkiG
9w0BAQUFAAOCAgEACo+bHDXZBTPvxBydjJ2VhYZYe6r5VJ1Cz+vdWf/IzZGASbIz
oSFZqS123UJ0obxDdX6eRHgKZc+kg1dNChBLz58LJCA8xEGv97x1sHfd6wQ1VyLk
o57ubAC8iCCyZxwM398f7DaYYThi3eiB5jGv7ujv4d3diiB9yDwsQuImAbrmU5Uv
KYVwhnM2GmxaKVUTsttlImLMFB8TZbd3wqpSlIn3+PjaTZ6u3L/upDhi0vh+a0xT
rL+JvRpBCYCZ9SKlw0jHvd0f4x4BK5+W6e1fK1eUiwd6TKRP+UJQsfx6UaFsbEp5
9ynzrwEa1FSDBTIqbnGOREl1wcMzWBzdW5XzZ1Rxx3QbxEjI6kSvXygn86KEJr5r
gtqakqeCjSRkUixXHo11JNS6crc0Yub/3dVuKf2lnKYMpMCY6aucx7LNMOrb7mYE
WalFthkywMmIFDyRCm2xHJYNB8lloN4SDYTWsSDbkZGeDEC8P+2Dj1PEe/4fCMw9
29oPiVGG5UlWzCuy00ICct4C+85Wb4dBBx4i3SRJFv1QR9EutnQowdpJeOy6fh5F
bmaVfQzoAKOSdgwuLyGq1zNDg7g+oyMiNtEyP5sxt4wZ/AspPMUrkg7sSrOhjEOA
gp81Hhj68dRrIvdZYcIctm0aTcX39dwSP8hV3MVFkt9o0SACrpQQWgH94mQ=
-----END CERTIFICATE-----
