Certificate:
    Data:
        Version: 3 (0x2)
        Serial Number: 784 (0x310)
    Signature Algorithm: sha1WithRSAEncryption
        Issuer: C=US, ST=CA, L=SanFrancisco, O=Pixglo, Inc., OU=VPN-CIE, CN=tunnel.pixglo.com/name=Bala Chandrasekaran/emailAddress=bala@pixglo.com
        Validity
            Not Before: Feb 14 06:43:30 2018 GMT
            Not After : Feb 12 06:43:30 2028 GMT
        Subject: C=US, ST=CA, L=SanFrancisco, O=Pixglo, Inc., OU=VPN-CIE, CN=cie783/name=Bala Chandrasekaran/emailAddress=bala@pixglo.com
        Subject Public Key Info:
            Public Key Algorithm: rsaEncryption
                Public-Key: (4096 bit)
                Modulus:
                    00:e5:0e:76:e4:b3:14:e8:43:e2:9e:9e:30:e1:59:
                    45:93:71:6e:39:e4:4c:1d:2e:34:53:e8:d0:e1:61:
                    a6:8c:1f:d2:bd:79:e0:09:0a:9e:dc:95:c8:88:23:
                    e1:37:fd:1f:52:cf:78:aa:e5:1b:97:f6:10:3d:7f:
                    20:e8:ad:b7:4e:e3:4b:2a:01:b5:56:64:9e:e8:09:
                    ba:3f:ad:fb:ec:de:7c:d5:16:8c:e2:d7:e3:ef:80:
                    f3:27:de:13:5a:36:f0:64:76:43:da:5e:48:fc:b3:
                    fc:bb:ec:a6:68:e2:d2:9d:e8:2a:5e:d9:f1:d8:e0:
                    44:c6:ad:7f:64:bd:00:8b:b0:ba:7a:c6:70:e4:46:
                    3b:8b:5b:3c:45:35:42:e5:12:25:9b:7e:eb:7f:12:
                    35:30:10:75:6d:be:5c:cb:3c:f9:bb:02:37:39:a0:
                    91:57:e5:df:54:29:f6:e9:17:a1:14:49:ad:df:8c:
                    a3:65:4d:65:7e:a8:cb:57:a9:3c:11:e0:41:23:d5:
                    e7:26:97:22:df:cf:91:11:09:2c:6e:2f:1d:4f:6c:
                    fb:c4:b1:3a:85:c9:16:9b:d3:16:fb:47:8e:4f:25:
                    a0:0c:43:7d:1b:e7:fc:d7:16:9d:e6:b1:9c:ff:5b:
                    6d:7d:4a:11:b8:2d:6a:0b:11:c9:de:fa:d4:d0:b0:
                    3e:f8:7b:57:a2:e2:00:60:99:64:0a:3f:12:64:34:
                    e4:da:d8:ae:44:cd:05:a7:9d:aa:99:b2:3b:40:f1:
                    0d:d7:dc:ab:14:1a:fb:ec:bd:48:8b:14:d2:5f:84:
                    17:8b:88:e0:2c:52:4b:9b:75:21:65:2f:97:ca:f5:
                    d0:5c:cf:d7:8b:37:23:eb:c0:38:d4:86:ac:01:21:
                    46:49:c2:77:29:8a:4f:48:12:fe:e8:e3:d4:c6:eb:
                    1a:d9:4f:da:31:5f:cd:0b:4a:f5:db:ac:f8:0b:87:
                    8e:30:9a:fe:d9:2b:97:cf:9c:4c:ce:21:23:1c:84:
                    23:ba:74:f5:f3:b3:dc:b8:36:ac:4c:6c:9c:58:4d:
                    a0:67:9b:cf:0b:eb:d4:42:43:d8:cf:96:93:4b:3d:
                    f3:57:67:d9:16:2f:de:a0:81:69:b4:21:54:ab:44:
                    5a:c9:95:55:46:a3:d3:eb:5c:0c:ea:33:eb:fe:d2:
                    58:ba:ec:7b:79:31:08:00:77:c9:2f:94:f5:a0:78:
                    6f:c6:0e:38:a0:2e:b5:71:30:e9:25:79:26:60:19:
                    77:c9:fe:57:99:aa:c8:64:1c:42:15:f8:60:5e:60:
                    8f:63:d4:8c:34:22:91:9c:ab:d0:36:ed:76:a4:53:
                    e4:66:a6:47:7e:ad:57:c3:b4:69:2f:09:fc:be:24:
                    43:d3:47
                Exponent: 65537 (0x10001)
        X509v3 extensions:
            X509v3 Basic Constraints: 
                CA:FALSE
            Netscape Comment: 
                Easy-RSA Generated Certificate
            X509v3 Subject Key Identifier: 
                5F:17:01:60:8A:D4:90:05:38:50:34:C0:79:EC:F0:C6:D6:CA:43:84
            X509v3 Authority Key Identifier: 
                keyid:EF:38:8D:14:50:58:A7:5B:4D:9C:17:72:FC:DF:B9:AC:A7:51:B0:10
                DirName:/C=US/ST=CA/L=SanFrancisco/O=Pixglo, Inc./OU=VPN-CIE/CN=tunnel.pixglo.com/name=Bala Chandrasekaran/emailAddress=bala@pixglo.com
                serial:A6:DB:C6:83:80:E6:A0:79

            X509v3 Extended Key Usage: 
                TLS Web Client Authentication
            X509v3 Key Usage: 
                Digital Signature
    Signature Algorithm: sha1WithRSAEncryption
         b6:a7:c7:11:0c:a6:4d:1d:a2:32:e2:7e:a5:0f:10:ea:1e:59:
         e0:b3:75:9e:2c:12:94:ea:c4:05:d8:0d:08:89:05:b8:98:e2:
         ab:9f:7e:a4:bf:56:e6:85:3a:87:30:f7:c3:1d:48:60:3f:df:
         6f:c9:ab:09:db:0e:97:1c:17:86:79:c9:8d:24:3e:f1:ec:b3:
         31:f5:14:43:7c:4e:30:01:93:39:1e:fa:21:e7:4e:a5:5e:1d:
         47:6e:94:dc:6d:c0:df:b3:c8:30:c9:be:06:02:30:5a:f8:8c:
         6b:3b:79:70:96:5f:31:28:5c:63:c6:71:7e:6d:c8:fe:44:12:
         99:22:0b:44:8a:d2:9b:fb:e6:30:61:bf:c8:bb:0c:ce:9e:f3:
         9b:65:2e:51:b2:9b:2f:af:ef:09:d4:9d:b4:b8:9f:17:ff:df:
         56:78:d6:c9:4e:6c:8a:d0:74:96:bc:88:02:df:8e:0e:95:59:
         be:95:93:ca:3a:10:b5:a4:94:42:de:a7:4c:a4:7d:a3:7e:b4:
         5d:03:f0:01:4f:97:5d:9f:0a:61:50:54:97:b7:c0:6c:a6:31:
         eb:ee:e2:60:ae:87:6d:47:3e:1d:7f:0f:8a:f0:63:30:db:fd:
         da:6d:c6:c7:9a:96:fe:dc:bb:bb:02:40:2e:f2:6d:00:dc:e9:
         07:06:ae:79:ea:1e:5e:c5:a2:ea:5e:95:0d:37:06:f0:75:d5:
         af:3c:72:7f:d7:f2:97:98:50:17:30:9c:fc:13:b2:87:8e:67:
         b9:0f:d7:a5:60:a5:4c:8f:83:72:83:6d:be:b1:30:79:d3:cc:
         9c:b3:c5:c6:25:e7:8e:26:39:f3:ed:10:cc:72:51:89:2f:66:
         1c:67:7f:75:39:d1:67:3e:55:f0:23:b5:2d:1c:72:a4:04:f3:
         a1:d8:d4:c7:4e:bf:1b:f4:99:f8:fb:52:ba:bd:04:a1:33:5c:
         fe:fc:3d:81:31:11:47:f1:3e:03:f4:31:4c:26:96:3f:2c:44:
         e2:01:2e:ba:c3:e7:25:a8:f9:95:49:9e:5e:7a:89:0d:15:45:
         92:35:4f:26:86:75:66:c1:2a:87:cb:33:37:eb:0a:fd:ea:9c:
         3d:99:80:c2:44:86:31:c8:41:2f:ef:f6:52:6b:72:b1:cd:5a:
         40:54:d0:89:9f:32:27:5d:20:5f:9a:92:43:6d:c9:62:a4:fc:
         de:51:0e:c1:2e:4e:03:a6:6d:56:6a:40:82:47:0a:1d:84:60:
         fe:a3:14:cd:15:5a:6e:fc:1a:43:4f:42:5d:dd:92:c0:82:61:
         3b:e7:db:8e:7c:cc:80:39:64:fb:9b:ef:52:83:5c:8e:fb:3b:
         ad:5e:cb:57:67:46:24:0d
-----BEGIN CERTIFICATE-----
MIIHSDCCBTCgAwIBAgICAxAwDQYJKoZIhvcNAQEFBQAwgbQxCzAJBgNVBAYTAlVT
MQswCQYDVQQIEwJDQTEVMBMGA1UEBxMMU2FuRnJhbmNpc2NvMRUwEwYDVQQKEwxQ
aXhnbG8sIEluYy4xEDAOBgNVBAsTB1ZQTi1DSUUxGjAYBgNVBAMTEXR1bm5lbC5w
aXhnbG8uY29tMRwwGgYDVQQpExNCYWxhIENoYW5kcmFzZWthcmFuMR4wHAYJKoZI
hvcNAQkBFg9iYWxhQHBpeGdsby5jb20wHhcNMTgwMjE0MDY0MzMwWhcNMjgwMjEy
MDY0MzMwWjCBqTELMAkGA1UEBhMCVVMxCzAJBgNVBAgTAkNBMRUwEwYDVQQHEwxT
YW5GcmFuY2lzY28xFTATBgNVBAoTDFBpeGdsbywgSW5jLjEQMA4GA1UECxMHVlBO
LUNJRTEPMA0GA1UEAxMGY2llNzgzMRwwGgYDVQQpExNCYWxhIENoYW5kcmFzZWth
cmFuMR4wHAYJKoZIhvcNAQkBFg9iYWxhQHBpeGdsby5jb20wggIiMA0GCSqGSIb3
DQEBAQUAA4ICDwAwggIKAoICAQDlDnbksxToQ+KenjDhWUWTcW455EwdLjRT6NDh
YaaMH9K9eeAJCp7clciII+E3/R9Sz3iq5RuX9hA9fyDorbdO40sqAbVWZJ7oCbo/
rfvs3nzVFozi1+PvgPMn3hNaNvBkdkPaXkj8s/y77KZo4tKd6Cpe2fHY4ETGrX9k
vQCLsLp6xnDkRjuLWzxFNULlEiWbfut/EjUwEHVtvlzLPPm7Ajc5oJFX5d9UKfbp
F6EUSa3fjKNlTWV+qMtXqTwR4EEj1ecmlyLfz5ERCSxuLx1PbPvEsTqFyRab0xb7
R45PJaAMQ30b5/zXFp3msZz/W219ShG4LWoLEcne+tTQsD74e1ei4gBgmWQKPxJk
NOTa2K5EzQWnnaqZsjtA8Q3X3KsUGvvsvUiLFNJfhBeLiOAsUkubdSFlL5fK9dBc
z9eLNyPrwDjUhqwBIUZJwncpik9IEv7o49TG6xrZT9oxX80LSvXbrPgLh44wmv7Z
K5fPnEzOISMchCO6dPXzs9y4NqxMbJxYTaBnm88L69RCQ9jPlpNLPfNXZ9kWL96g
gWm0IVSrRFrJlVVGo9PrXAzqM+v+0li67Ht5MQgAd8kvlPWgeG/GDjigLrVxMOkl
eSZgGXfJ/leZqshkHEIV+GBeYI9j1Iw0IpGcq9A27XakU+Rmpkd+rVfDtGkvCfy+
JEPTRwIDAQABo4IBazCCAWcwCQYDVR0TBAIwADAtBglghkgBhvhCAQ0EIBYeRWFz
eS1SU0EgR2VuZXJhdGVkIENlcnRpZmljYXRlMB0GA1UdDgQWBBRfFwFgitSQBThQ
NMB57PDG1spDhDCB6QYDVR0jBIHhMIHegBTvOI0UUFinW02cF3L837msp1GwEKGB
uqSBtzCBtDELMAkGA1UEBhMCVVMxCzAJBgNVBAgTAkNBMRUwEwYDVQQHEwxTYW5G
cmFuY2lzY28xFTATBgNVBAoTDFBpeGdsbywgSW5jLjEQMA4GA1UECxMHVlBOLUNJ
RTEaMBgGA1UEAxMRdHVubmVsLnBpeGdsby5jb20xHDAaBgNVBCkTE0JhbGEgQ2hh
bmRyYXNla2FyYW4xHjAcBgkqhkiG9w0BCQEWD2JhbGFAcGl4Z2xvLmNvbYIJAKbb
xoOA5qB5MBMGA1UdJQQMMAoGCCsGAQUFBwMCMAsGA1UdDwQEAwIHgDANBgkqhkiG
9w0BAQUFAAOCAgEAtqfHEQymTR2iMuJ+pQ8Q6h5Z4LN1niwSlOrEBdgNCIkFuJji
q59+pL9W5oU6hzD3wx1IYD/fb8mrCdsOlxwXhnnJjSQ+8eyzMfUUQ3xOMAGTOR76
IedOpV4dR26U3G3A37PIMMm+BgIwWviMazt5cJZfMShcY8Zxfm3I/kQSmSILRIrS
m/vmMGG/yLsMzp7zm2UuUbKbL6/vCdSdtLifF//fVnjWyU5sitB0lryIAt+ODpVZ
vpWTyjoQtaSUQt6nTKR9o360XQPwAU+XXZ8KYVBUl7fAbKYx6+7iYK6HbUc+HX8P
ivBjMNv92m3Gx5qW/ty7uwJALvJtANzpBwaueeoeXsWi6l6VDTcG8HXVrzxyf9fy
l5hQFzCc/BOyh45nuQ/XpWClTI+DcoNtvrEwedPMnLPFxiXnjiY58+0QzHJRiS9m
HGd/dTnRZz5V8CO1LRxypATzodjUx06/G/SZ+PtSur0EoTNc/vw9gTERR/E+A/Qx
TCaWPyxE4gEuusPnJaj5lUmeXnqJDRVFkjVPJoZ1ZsEqh8szN+sK/eqcPZmAwkSG
MchBL+/2Umtysc1aQFTQiZ8yJ10gX5qSQ23JYqT83lEOwS5OA6ZtVmpAgkcKHYRg
/qMUzRVabvwaQ09CXd2SwIJhO+fbjnzMgDlk+5vvUoNcjvs7rV7LV2dGJA0=
-----END CERTIFICATE-----
