Certificate:
    Data:
        Version: 3 (0x2)
        Serial Number: 722 (0x2d2)
    Signature Algorithm: sha1WithRSAEncryption
        Issuer: C=US, ST=CA, L=SanFrancisco, O=Pixglo, Inc., OU=VPN-CIE, CN=tunnel.pixglo.com/name=Bala Chandrasekaran/emailAddress=bala@pixglo.com
        Validity
            Not Before: Feb 14 06:41:31 2018 GMT
            Not After : Feb 12 06:41:31 2028 GMT
        Subject: C=US, ST=CA, L=SanFrancisco, O=Pixglo, Inc., OU=VPN-CIE, CN=cie721/name=Bala Chandrasekaran/emailAddress=bala@pixglo.com
        Subject Public Key Info:
            Public Key Algorithm: rsaEncryption
                Public-Key: (4096 bit)
                Modulus:
                    00:ee:b5:f6:f3:c2:07:0b:4a:59:62:12:d8:f3:f5:
                    90:0e:cd:1c:6c:41:b5:50:4d:1e:0c:01:92:36:9e:
                    8f:63:e8:ec:4e:18:a3:b2:31:ce:b2:e6:0b:e2:cc:
                    be:44:04:9c:17:5e:24:3c:f9:db:ec:cd:fb:15:5d:
                    e4:5c:e0:84:d6:f7:bb:77:59:e8:d1:01:2b:cb:e0:
                    ff:c2:18:60:82:6a:6a:89:88:f3:7c:c4:e9:6f:e9:
                    68:f5:b1:04:8d:e8:d9:1b:74:af:3c:55:8d:01:34:
                    88:6a:91:f7:0e:ef:a9:15:8b:cc:5e:34:14:15:0f:
                    cf:ed:e1:2e:de:41:01:b4:ff:62:31:03:8f:53:03:
                    48:14:6a:c8:4f:cc:5b:58:d6:12:cc:d0:44:b5:19:
                    04:54:49:3f:59:2a:15:3d:2d:11:0d:4e:32:57:e3:
                    d8:60:57:fc:2b:ad:2b:1a:1e:03:99:54:77:ca:da:
                    01:7b:08:12:bd:a0:95:d9:91:8b:96:95:b6:e6:9c:
                    0d:27:2e:7b:5f:ba:6d:9d:a9:17:f9:9a:c2:67:b0:
                    15:cc:7b:1a:ce:cb:82:36:08:a5:31:46:dd:0f:14:
                    4c:28:8b:35:5e:a7:68:90:10:40:e1:98:23:06:a0:
                    32:9b:d4:d2:0c:8e:b5:3a:e6:8b:a3:79:cb:08:6d:
                    16:cb:be:93:3c:03:fa:f6:74:62:59:8b:2c:6c:0f:
                    91:92:9b:f5:ef:f2:fd:ff:45:32:b0:43:ec:7a:68:
                    10:68:04:a2:88:7c:4d:b4:7e:7c:89:a2:3c:38:85:
                    a5:e6:c9:16:f9:f5:82:81:14:50:a3:41:f9:72:cd:
                    65:9f:d4:ae:39:37:40:43:4c:3f:ca:cd:21:2c:2b:
                    80:d9:71:81:ef:0f:bf:a9:f2:d8:d9:ad:f5:0b:ae:
                    c3:22:fc:5a:c1:17:cd:92:77:db:07:d9:22:c8:1c:
                    05:fe:f1:c2:c7:9e:ea:f4:e6:75:b4:3f:e1:65:4d:
                    99:f2:71:97:73:82:12:17:8b:b4:db:f2:55:c6:a0:
                    e9:ec:e8:85:4e:22:0d:5a:d4:93:13:51:95:e5:d2:
                    99:18:6d:e7:54:d4:62:e9:b8:e6:7d:85:43:c4:30:
                    0a:a3:a6:35:ca:c8:e8:e5:46:69:1a:31:07:28:77:
                    a1:f4:07:ea:45:78:7c:30:e6:40:dc:44:1b:e5:dd:
                    4a:fe:8a:34:3d:3f:96:ad:6d:6e:ac:8a:1d:60:a1:
                    86:5e:6b:5f:8c:df:91:2f:17:79:5c:ee:2a:38:b8:
                    d6:44:8d:27:2f:20:8e:af:ea:90:0f:fd:1b:7b:ab:
                    83:42:b1:41:02:61:f5:09:09:9d:be:77:2e:f1:03:
                    0d:7d:91
                Exponent: 65537 (0x10001)
        X509v3 extensions:
            X509v3 Basic Constraints: 
                CA:FALSE
            Netscape Comment: 
                Easy-RSA Generated Certificate
            X509v3 Subject Key Identifier: 
                24:B2:9C:CC:9F:F5:66:E2:1E:D6:20:D6:3E:2F:A5:55:EA:95:29:89
            X509v3 Authority Key Identifier: 
                keyid:EF:38:8D:14:50:58:A7:5B:4D:9C:17:72:FC:DF:B9:AC:A7:51:B0:10
                DirName:/C=US/ST=CA/L=SanFrancisco/O=Pixglo, Inc./OU=VPN-CIE/CN=tunnel.pixglo.com/name=Bala Chandrasekaran/emailAddress=bala@pixglo.com
                serial:A6:DB:C6:83:80:E6:A0:79

            X509v3 Extended Key Usage: 
                TLS Web Client Authentication
            X509v3 Key Usage: 
                Digital Signature
    Signature Algorithm: sha1WithRSAEncryption
         8a:0f:8a:b6:2b:6b:67:49:09:85:ca:a7:8b:55:af:f7:e1:5a:
         75:ea:f3:95:1d:7d:e9:08:23:46:7d:7a:38:0a:f8:e6:cb:f1:
         e6:86:67:3e:91:2d:84:c4:6f:f1:7a:fc:85:70:75:cf:7e:98:
         14:3d:96:ce:3b:63:50:50:23:46:39:04:38:7e:2a:a9:37:88:
         18:1f:30:33:87:d1:12:3b:7c:5d:7f:db:5b:9b:d3:f9:6a:0d:
         df:f5:db:eb:2b:c1:b3:5a:60:92:59:f7:8a:af:10:2c:2b:01:
         14:b2:06:33:7f:46:78:31:ab:a7:30:b5:78:43:04:11:d4:81:
         e4:fd:17:79:19:f4:7c:27:fd:5f:42:b5:c3:48:c6:3a:a5:38:
         dd:af:d3:69:76:a7:6d:bc:80:66:2f:62:07:13:8f:c2:00:82:
         07:c7:66:08:92:38:7a:05:65:df:ec:21:c5:32:a6:8c:06:66:
         26:20:9e:29:0d:dd:91:9b:ea:4f:73:be:4a:a1:53:24:30:a2:
         f6:91:00:2e:83:34:11:5c:92:1f:b2:41:fd:e6:2f:dc:fe:a2:
         bb:c2:2a:75:00:3c:82:92:0d:d3:b1:76:00:bd:2a:97:df:d4:
         cb:23:ff:9d:a5:39:76:80:35:e3:eb:18:5e:bb:a8:08:d3:70:
         54:e1:33:2e:43:09:1b:ac:a8:f5:ec:d2:8f:d0:b2:b0:ae:10:
         99:38:2a:35:dc:75:ec:59:ba:9c:a8:85:c6:dd:08:7e:89:8e:
         13:f4:0f:9e:77:88:cf:a1:55:4e:d9:7a:b7:96:f8:84:e5:c4:
         7e:e2:79:88:71:0d:98:85:6a:ae:fd:dd:21:f6:df:af:e0:8d:
         cc:97:1e:73:a7:12:6f:35:af:2f:0c:1f:d6:49:39:c0:b0:14:
         50:4c:31:96:db:b0:32:10:29:8c:a2:75:53:77:44:c4:7e:b4:
         69:5c:fa:9f:9c:0f:43:b1:7f:25:99:9c:fb:5a:07:68:0c:85:
         05:3d:9a:2a:e1:84:7b:29:50:cd:02:1b:39:bb:31:46:d5:c9:
         e1:5d:4a:54:7e:63:3e:ec:63:d3:b8:10:29:41:5d:0a:cf:68:
         ef:60:c9:80:63:d2:6e:e9:c0:18:44:62:1c:d5:89:ee:75:fb:
         b3:0c:90:3e:ed:03:11:69:88:4e:eb:90:2b:cb:15:ed:38:e7:
         10:a2:bb:19:15:64:df:15:8e:c9:4f:ef:71:94:4c:52:1c:50:
         a8:17:41:f3:a0:ee:9b:f3:47:bc:37:f4:6f:dd:f1:7a:33:20:
         5a:68:98:b9:6e:67:8b:c6:7c:b1:26:5e:f5:c4:5d:5e:d4:56:
         b2:e9:dc:3b:18:9e:50:40
-----BEGIN CERTIFICATE-----
MIIHSDCCBTCgAwIBAgICAtIwDQYJKoZIhvcNAQEFBQAwgbQxCzAJBgNVBAYTAlVT
MQswCQYDVQQIEwJDQTEVMBMGA1UEBxMMU2FuRnJhbmNpc2NvMRUwEwYDVQQKEwxQ
aXhnbG8sIEluYy4xEDAOBgNVBAsTB1ZQTi1DSUUxGjAYBgNVBAMTEXR1bm5lbC5w
aXhnbG8uY29tMRwwGgYDVQQpExNCYWxhIENoYW5kcmFzZWthcmFuMR4wHAYJKoZI
hvcNAQkBFg9iYWxhQHBpeGdsby5jb20wHhcNMTgwMjE0MDY0MTMxWhcNMjgwMjEy
MDY0MTMxWjCBqTELMAkGA1UEBhMCVVMxCzAJBgNVBAgTAkNBMRUwEwYDVQQHEwxT
YW5GcmFuY2lzY28xFTATBgNVBAoTDFBpeGdsbywgSW5jLjEQMA4GA1UECxMHVlBO
LUNJRTEPMA0GA1UEAxMGY2llNzIxMRwwGgYDVQQpExNCYWxhIENoYW5kcmFzZWth
cmFuMR4wHAYJKoZIhvcNAQkBFg9iYWxhQHBpeGdsby5jb20wggIiMA0GCSqGSIb3
DQEBAQUAA4ICDwAwggIKAoICAQDutfbzwgcLSlliEtjz9ZAOzRxsQbVQTR4MAZI2
no9j6OxOGKOyMc6y5gvizL5EBJwXXiQ8+dvszfsVXeRc4ITW97t3WejRASvL4P/C
GGCCamqJiPN8xOlv6Wj1sQSN6NkbdK88VY0BNIhqkfcO76kVi8xeNBQVD8/t4S7e
QQG0/2IxA49TA0gUashPzFtY1hLM0ES1GQRUST9ZKhU9LRENTjJX49hgV/wrrSsa
HgOZVHfK2gF7CBK9oJXZkYuWlbbmnA0nLntfum2dqRf5msJnsBXMexrOy4I2CKUx
Rt0PFEwoizVep2iQEEDhmCMGoDKb1NIMjrU65oujecsIbRbLvpM8A/r2dGJZiyxs
D5GSm/Xv8v3/RTKwQ+x6aBBoBKKIfE20fnyJojw4haXmyRb59YKBFFCjQflyzWWf
1K45N0BDTD/KzSEsK4DZcYHvD7+p8tjZrfULrsMi/FrBF82Sd9sH2SLIHAX+8cLH
nur05nW0P+FlTZnycZdzghIXi7Tb8lXGoOns6IVOIg1a1JMTUZXl0pkYbedU1GLp
uOZ9hUPEMAqjpjXKyOjlRmkaMQcod6H0B+pFeHww5kDcRBvl3Ur+ijQ9P5atbW6s
ih1goYZea1+M35EvF3lc7io4uNZEjScvII6v6pAP/Rt7q4NCsUECYfUJCZ2+dy7x
Aw19kQIDAQABo4IBazCCAWcwCQYDVR0TBAIwADAtBglghkgBhvhCAQ0EIBYeRWFz
eS1SU0EgR2VuZXJhdGVkIENlcnRpZmljYXRlMB0GA1UdDgQWBBQkspzMn/Vm4h7W
INY+L6VV6pUpiTCB6QYDVR0jBIHhMIHegBTvOI0UUFinW02cF3L837msp1GwEKGB
uqSBtzCBtDELMAkGA1UEBhMCVVMxCzAJBgNVBAgTAkNBMRUwEwYDVQQHEwxTYW5G
cmFuY2lzY28xFTATBgNVBAoTDFBpeGdsbywgSW5jLjEQMA4GA1UECxMHVlBOLUNJ
RTEaMBgGA1UEAxMRdHVubmVsLnBpeGdsby5jb20xHDAaBgNVBCkTE0JhbGEgQ2hh
bmRyYXNla2FyYW4xHjAcBgkqhkiG9w0BCQEWD2JhbGFAcGl4Z2xvLmNvbYIJAKbb
xoOA5qB5MBMGA1UdJQQMMAoGCCsGAQUFBwMCMAsGA1UdDwQEAwIHgDANBgkqhkiG
9w0BAQUFAAOCAgEAig+KtitrZ0kJhcqni1Wv9+FaderzlR196QgjRn16OAr45svx
5oZnPpEthMRv8Xr8hXB1z36YFD2WzjtjUFAjRjkEOH4qqTeIGB8wM4fREjt8XX/b
W5vT+WoN3/Xb6yvBs1pgkln3iq8QLCsBFLIGM39GeDGrpzC1eEMEEdSB5P0XeRn0
fCf9X0K1w0jGOqU43a/TaXanbbyAZi9iBxOPwgCCB8dmCJI4egVl3+whxTKmjAZm
JiCeKQ3dkZvqT3O+SqFTJDCi9pEALoM0EVySH7JB/eYv3P6iu8IqdQA8gpIN07F2
AL0ql9/UyyP/naU5doA14+sYXruoCNNwVOEzLkMJG6yo9ezSj9CysK4QmTgqNdx1
7Fm6nKiFxt0IfomOE/QPnneIz6FVTtl6t5b4hOXEfuJ5iHENmIVqrv3dIfbfr+CN
zJcec6cSbzWvLwwf1kk5wLAUUEwxltuwMhApjKJ1U3dExH60aVz6n5wPQ7F/JZmc
+1oHaAyFBT2aKuGEeylQzQIbObsxRtXJ4V1KVH5jPuxj07gQKUFdCs9o72DJgGPS
bunAGERiHNWJ7nX7swyQPu0DEWmITuuQK8sV7TjnEKK7GRVk3xWOyU/vcZRMUhxQ
qBdB86Dum/NHvDf0b93xejMgWmiYuW5ni8Z8sSZe9cRdXtRWsuncOxieUEA=
-----END CERTIFICATE-----
