Certificate:
    Data:
        Version: 3 (0x2)
        Serial Number: 707 (0x2c3)
    Signature Algorithm: sha1WithRSAEncryption
        Issuer: C=US, ST=CA, L=SanFrancisco, O=Pixglo, Inc., OU=VPN-CIE, CN=tunnel.pixglo.com/name=Bala Chandrasekaran/emailAddress=bala@pixglo.com
        Validity
            Not Before: Feb 14 06:41:07 2018 GMT
            Not After : Feb 12 06:41:07 2028 GMT
        Subject: C=US, ST=CA, L=SanFrancisco, O=Pixglo, Inc., OU=VPN-CIE, CN=cie706/name=Bala Chandrasekaran/emailAddress=bala@pixglo.com
        Subject Public Key Info:
            Public Key Algorithm: rsaEncryption
                Public-Key: (4096 bit)
                Modulus:
                    00:ad:7b:5f:63:ad:30:38:22:55:ab:45:d8:fc:84:
                    ce:fb:2b:56:33:52:f7:5e:29:a9:d0:52:01:3e:dc:
                    91:85:25:89:ee:44:7a:30:15:55:2e:d5:92:a2:e8:
                    8d:75:41:e6:9e:8a:ed:c6:0f:29:0b:fd:d0:ec:0c:
                    a9:0b:07:39:b9:06:29:11:b5:af:da:ff:e4:eb:c0:
                    84:05:8c:dd:9c:da:86:d3:6a:76:af:4c:1c:c2:39:
                    b4:dc:b0:5f:bf:ef:b3:72:4f:c7:de:5e:0c:90:c6:
                    8b:82:41:91:f9:e4:e4:f4:02:47:93:3c:76:1f:ab:
                    86:df:ff:8b:d9:aa:9b:73:ef:01:93:98:07:3f:44:
                    70:9f:fc:96:15:c2:42:78:ad:0c:a6:67:0e:2f:58:
                    46:91:25:bd:86:a8:04:e0:91:ea:35:3b:15:02:eb:
                    2b:e9:73:77:b9:19:0d:4b:3f:e5:08:ee:4b:32:54:
                    e0:11:dc:93:f6:b7:70:59:3c:81:a1:18:bd:0a:27:
                    8b:d3:d3:16:c7:d5:19:5d:46:31:14:66:45:3f:c3:
                    9d:c6:b9:b7:d8:3b:8e:11:3a:f4:02:81:dc:5e:68:
                    ea:5e:6b:58:ac:2c:2b:5d:2e:b3:f9:42:54:91:e6:
                    c6:1d:d6:0f:1c:e7:de:d0:82:58:e7:2a:cb:c1:19:
                    d5:21:8a:2e:87:ef:a4:8a:42:f4:e5:eb:e9:49:47:
                    30:58:95:fc:dc:b2:ff:2c:21:b2:a4:0e:28:24:b6:
                    ad:94:c8:6f:03:8c:6d:ed:de:dd:2b:2e:23:70:52:
                    8e:4d:17:52:43:0c:a0:10:a0:c7:a8:a6:16:04:2e:
                    30:5b:c1:e1:b3:d1:9c:f2:83:59:7d:24:97:2e:15:
                    49:05:7d:47:98:16:89:d7:62:de:9a:11:81:40:ab:
                    4c:e4:46:b7:18:12:f4:66:60:91:08:be:3f:f4:26:
                    d1:91:62:b7:35:56:c8:21:83:1f:c0:f7:ca:76:ef:
                    70:74:4c:02:f9:4e:fe:36:ce:28:9f:dc:7f:67:6d:
                    71:0a:2b:88:b1:dd:96:b5:89:b9:7c:fd:19:50:c2:
                    5f:f4:db:2a:fa:40:95:36:d2:eb:1b:cf:83:d3:7c:
                    c6:54:b7:1b:6f:e8:1f:2a:f1:08:b4:1f:7a:4a:46:
                    b1:4b:9d:81:2e:36:c4:82:07:25:2d:3b:e7:f0:02:
                    8d:c4:04:4c:cd:b7:29:11:fa:2e:4e:ff:df:c4:0a:
                    35:8b:b4:f1:c6:9e:dc:29:61:2e:3c:af:33:65:ec:
                    5b:24:e8:04:e8:db:68:de:a4:52:87:e0:24:e6:c1:
                    0e:51:7e:ec:3a:66:55:74:05:ca:8c:5d:f9:56:9b:
                    67:70:fb
                Exponent: 65537 (0x10001)
        X509v3 extensions:
            X509v3 Basic Constraints: 
                CA:FALSE
            Netscape Comment: 
                Easy-RSA Generated Certificate
            X509v3 Subject Key Identifier: 
                99:9E:D1:DB:3E:F3:2F:66:E8:29:F7:46:42:AC:C0:98:9A:5D:02:B7
            X509v3 Authority Key Identifier: 
                keyid:EF:38:8D:14:50:58:A7:5B:4D:9C:17:72:FC:DF:B9:AC:A7:51:B0:10
                DirName:/C=US/ST=CA/L=SanFrancisco/O=Pixglo, Inc./OU=VPN-CIE/CN=tunnel.pixglo.com/name=Bala Chandrasekaran/emailAddress=bala@pixglo.com
                serial:A6:DB:C6:83:80:E6:A0:79

            X509v3 Extended Key Usage: 
                TLS Web Client Authentication
            X509v3 Key Usage: 
                Digital Signature
    Signature Algorithm: sha1WithRSAEncryption
         a2:bd:43:8b:8a:4b:b5:ea:14:a5:5d:11:39:f8:9b:5d:bb:9b:
         c2:93:57:7d:a4:84:a5:0f:95:4b:07:74:f7:5c:c6:fe:86:5d:
         4f:4f:cf:71:c8:a4:95:4b:bf:b3:65:69:50:f6:0a:26:54:85:
         c9:0c:d6:b9:ee:d6:75:f2:e4:aa:76:39:e7:99:7c:65:41:9f:
         8d:21:07:6d:ae:5c:74:d2:ba:1a:c6:6f:61:80:58:d0:8f:ee:
         88:10:ab:19:fd:18:64:6e:40:42:02:01:06:92:59:f9:67:c9:
         47:19:35:4a:4d:b9:61:e2:06:71:85:26:a3:ed:69:03:08:ef:
         bd:40:db:4b:5b:17:39:c0:73:43:cf:14:7c:a5:5a:ee:2d:e0:
         0a:9a:5f:87:90:35:77:d1:b0:2f:00:95:58:17:28:b8:9e:e0:
         29:29:0d:14:25:b3:94:4b:fd:0f:eb:e1:6d:c8:d7:36:a7:89:
         79:81:12:18:ca:a1:6e:da:a9:b2:c3:40:6b:b8:4a:4e:83:27:
         3d:7f:b8:9c:28:0e:a9:9e:c3:94:97:08:92:73:d2:9d:8f:88:
         7b:30:40:dd:1e:2d:26:02:f1:6f:28:1e:30:b8:b4:87:ed:76:
         7f:63:80:6d:cb:8b:54:6d:51:4e:f9:6a:2f:41:1c:ea:4f:04:
         6e:d9:dc:ef:06:af:4e:36:a6:eb:6e:bb:e6:cf:d2:6e:8a:7f:
         ee:72:92:d9:4c:62:dc:a5:0b:74:6b:1b:d6:2f:c5:bb:ec:2c:
         5f:7c:56:39:d8:5a:9b:ce:b2:10:4b:a9:cb:98:58:0e:12:27:
         ee:6a:79:ad:44:41:29:55:36:bb:47:8e:c6:6b:14:4a:4f:7b:
         6c:4a:30:e0:1c:1f:d3:5d:8c:22:06:61:d1:37:21:8b:8a:9a:
         15:12:0a:99:95:09:a3:28:c7:bd:22:bd:82:1e:dd:2a:09:57:
         2a:96:11:0d:f6:a8:ea:32:8b:97:98:ce:4f:02:4f:69:59:79:
         08:91:4c:d1:05:ed:b0:ad:8f:09:9e:33:a3:b2:62:01:da:f7:
         a6:e2:34:7b:39:69:cf:b4:b8:ed:75:fb:5f:17:cb:22:ce:c5:
         25:d9:b5:b3:12:ce:8f:e1:d4:68:52:05:cc:0f:a1:eb:e7:cb:
         b0:62:78:0d:d4:e1:80:a9:ed:24:18:bc:50:24:79:9a:12:a4:
         89:4b:99:5e:3e:b4:8d:61:50:1e:b1:ef:04:9e:5c:96:eb:7e:
         01:95:d5:bf:4d:65:f7:d6:07:e8:97:33:b0:3c:98:06:49:46:
         9b:bf:f1:9f:14:6c:41:cc:0d:54:e3:b2:16:34:df:d1:24:dd:
         f2:c1:a1:c0:62:91:bd:9d
-----BEGIN CERTIFICATE-----
MIIHSDCCBTCgAwIBAgICAsMwDQYJKoZIhvcNAQEFBQAwgbQxCzAJBgNVBAYTAlVT
MQswCQYDVQQIEwJDQTEVMBMGA1UEBxMMU2FuRnJhbmNpc2NvMRUwEwYDVQQKEwxQ
aXhnbG8sIEluYy4xEDAOBgNVBAsTB1ZQTi1DSUUxGjAYBgNVBAMTEXR1bm5lbC5w
aXhnbG8uY29tMRwwGgYDVQQpExNCYWxhIENoYW5kcmFzZWthcmFuMR4wHAYJKoZI
hvcNAQkBFg9iYWxhQHBpeGdsby5jb20wHhcNMTgwMjE0MDY0MTA3WhcNMjgwMjEy
MDY0MTA3WjCBqTELMAkGA1UEBhMCVVMxCzAJBgNVBAgTAkNBMRUwEwYDVQQHEwxT
YW5GcmFuY2lzY28xFTATBgNVBAoTDFBpeGdsbywgSW5jLjEQMA4GA1UECxMHVlBO
LUNJRTEPMA0GA1UEAxMGY2llNzA2MRwwGgYDVQQpExNCYWxhIENoYW5kcmFzZWth
cmFuMR4wHAYJKoZIhvcNAQkBFg9iYWxhQHBpeGdsby5jb20wggIiMA0GCSqGSIb3
DQEBAQUAA4ICDwAwggIKAoICAQCte19jrTA4IlWrRdj8hM77K1YzUvdeKanQUgE+
3JGFJYnuRHowFVUu1ZKi6I11Qeaeiu3GDykL/dDsDKkLBzm5BikRta/a/+TrwIQF
jN2c2obTanavTBzCObTcsF+/77NyT8feXgyQxouCQZH55OT0AkeTPHYfq4bf/4vZ
qptz7wGTmAc/RHCf/JYVwkJ4rQymZw4vWEaRJb2GqATgkeo1OxUC6yvpc3e5GQ1L
P+UI7ksyVOAR3JP2t3BZPIGhGL0KJ4vT0xbH1RldRjEUZkU/w53GubfYO44ROvQC
gdxeaOpea1isLCtdLrP5QlSR5sYd1g8c597QgljnKsvBGdUhii6H76SKQvTl6+lJ
RzBYlfzcsv8sIbKkDigktq2UyG8DjG3t3t0rLiNwUo5NF1JDDKAQoMeophYELjBb
weGz0Zzyg1l9JJcuFUkFfUeYFonXYt6aEYFAq0zkRrcYEvRmYJEIvj/0JtGRYrc1
Vsghgx/A98p273B0TAL5Tv42ziif3H9nbXEKK4ix3Za1ibl8/RlQwl/02yr6QJU2
0usbz4PTfMZUtxtv6B8q8Qi0H3pKRrFLnYEuNsSCByUtO+fwAo3EBEzNtykR+i5O
/9/ECjWLtPHGntwpYS48rzNl7Fsk6ATo22jepFKH4CTmwQ5Rfuw6ZlV0BcqMXflW
m2dw+wIDAQABo4IBazCCAWcwCQYDVR0TBAIwADAtBglghkgBhvhCAQ0EIBYeRWFz
eS1SU0EgR2VuZXJhdGVkIENlcnRpZmljYXRlMB0GA1UdDgQWBBSZntHbPvMvZugp
90ZCrMCYml0CtzCB6QYDVR0jBIHhMIHegBTvOI0UUFinW02cF3L837msp1GwEKGB
uqSBtzCBtDELMAkGA1UEBhMCVVMxCzAJBgNVBAgTAkNBMRUwEwYDVQQHEwxTYW5G
cmFuY2lzY28xFTATBgNVBAoTDFBpeGdsbywgSW5jLjEQMA4GA1UECxMHVlBOLUNJ
RTEaMBgGA1UEAxMRdHVubmVsLnBpeGdsby5jb20xHDAaBgNVBCkTE0JhbGEgQ2hh
bmRyYXNla2FyYW4xHjAcBgkqhkiG9w0BCQEWD2JhbGFAcGl4Z2xvLmNvbYIJAKbb
xoOA5qB5MBMGA1UdJQQMMAoGCCsGAQUFBwMCMAsGA1UdDwQEAwIHgDANBgkqhkiG
9w0BAQUFAAOCAgEAor1Di4pLteoUpV0ROfibXbubwpNXfaSEpQ+VSwd091zG/oZd
T0/PcciklUu/s2VpUPYKJlSFyQzWue7WdfLkqnY555l8ZUGfjSEHba5cdNK6GsZv
YYBY0I/uiBCrGf0YZG5AQgIBBpJZ+WfJRxk1Sk25YeIGcYUmo+1pAwjvvUDbS1sX
OcBzQ88UfKVa7i3gCppfh5A1d9GwLwCVWBcouJ7gKSkNFCWzlEv9D+vhbcjXNqeJ
eYESGMqhbtqpssNAa7hKToMnPX+4nCgOqZ7DlJcIknPSnY+IezBA3R4tJgLxbyge
MLi0h+12f2OAbcuLVG1RTvlqL0Ec6k8Ebtnc7wavTjam62675s/Sbop/7nKS2Uxi
3KULdGsb1i/Fu+wsX3xWOdham86yEEupy5hYDhIn7mp5rURBKVU2u0eOxmsUSk97
bEow4Bwf012MIgZh0Tchi4qaFRIKmZUJoyjHvSK9gh7dKglXKpYRDfao6jKLl5jO
TwJPaVl5CJFM0QXtsK2PCZ4zo7JiAdr3puI0ezlpz7S47XX7XxfLIs7FJdm1sxLO
j+HUaFIFzA+h6+fLsGJ4DdThgKntJBi8UCR5mhKkiUuZXj60jWFQHrHvBJ5clut+
AZXVv01l99YH6JczsDyYBklGm7/xnxRsQcwNVOOyFjTf0STd8sGhwGKRvZ0=
-----END CERTIFICATE-----
