Certificate:
    Data:
        Version: 3 (0x2)
        Serial Number: 716 (0x2cc)
    Signature Algorithm: sha1WithRSAEncryption
        Issuer: C=US, ST=CA, L=SanFrancisco, O=Pixglo, Inc., OU=VPN-CIE, CN=tunnel.pixglo.com/name=Bala Chandrasekaran/emailAddress=bala@pixglo.com
        Validity
            Not Before: Feb 14 06:41:20 2018 GMT
            Not After : Feb 12 06:41:20 2028 GMT
        Subject: C=US, ST=CA, L=SanFrancisco, O=Pixglo, Inc., OU=VPN-CIE, CN=cie715/name=Bala Chandrasekaran/emailAddress=bala@pixglo.com
        Subject Public Key Info:
            Public Key Algorithm: rsaEncryption
                Public-Key: (4096 bit)
                Modulus:
                    00:ad:2f:c9:1a:53:94:6e:b1:7e:a1:64:12:35:f8:
                    4b:2d:a5:6e:9f:cc:58:f4:6f:1c:3c:63:f2:d3:f2:
                    54:d8:f6:7c:4b:c9:18:db:14:f2:d5:ac:df:76:ea:
                    d4:a9:f9:4e:2e:c4:0c:35:73:9e:65:3a:2f:c3:d9:
                    cc:5a:e9:a6:f5:3f:bc:62:a2:40:79:9d:36:97:87:
                    1b:fa:bf:6e:70:9e:23:6c:d1:f9:29:3c:6c:69:aa:
                    23:08:d3:f4:30:1e:63:a7:b7:be:50:ed:1f:ff:b8:
                    39:5c:b4:29:48:36:ee:e1:4c:11:15:5e:e0:6b:e1:
                    76:55:78:34:90:e1:04:1c:1b:ec:c8:ba:27:13:24:
                    01:51:fb:a6:6f:31:50:7b:d4:4e:d1:23:4a:0e:60:
                    05:b0:60:4e:fe:7c:72:86:9a:db:b7:f0:fb:7c:6b:
                    4e:7c:bc:02:43:07:b0:6b:86:78:bb:3f:d3:7b:7f:
                    ea:6c:45:4d:6b:f2:27:a2:94:42:cf:80:ff:2b:4f:
                    21:2f:41:c2:76:96:f9:7d:21:c6:e1:b8:21:7c:87:
                    34:63:87:3b:6d:f8:0a:5b:38:e4:cb:69:ab:68:0b:
                    bf:24:98:5c:d8:f5:06:f2:24:85:b2:d3:ce:0f:ac:
                    56:f7:92:80:14:56:e1:c0:85:c0:09:9b:67:66:5e:
                    dd:d1:d7:bd:8b:d9:79:ee:ca:b2:e6:91:99:78:07:
                    ca:cf:ab:11:ae:45:b7:d8:13:2a:75:4a:14:39:06:
                    1d:23:9a:db:ce:a2:66:b2:36:10:99:61:c8:2b:3b:
                    81:1c:4c:77:f3:02:f9:a2:02:4f:95:20:4a:c7:04:
                    ef:91:19:df:88:84:ae:8a:e2:33:c1:e5:6d:6c:4f:
                    41:44:51:e6:5c:ee:5a:5d:d4:fb:89:0f:4e:5c:88:
                    00:4d:17:b2:e1:bc:ac:49:98:14:55:f5:85:90:cf:
                    a4:61:a2:d5:21:be:55:bb:b9:45:5f:19:2c:99:4c:
                    ab:52:2e:06:6f:c9:02:00:29:b3:7a:03:04:52:e2:
                    2d:76:c3:20:70:09:40:c3:c9:bc:72:23:e8:aa:d1:
                    d3:d1:7d:64:d1:c0:87:03:eb:3b:40:9e:bb:f2:39:
                    56:6d:be:1c:80:39:fe:5b:d2:1e:e6:64:1a:18:19:
                    9a:52:2e:b0:a3:3d:9d:0f:4e:33:05:5f:20:56:bd:
                    15:a7:fd:3a:e1:34:ce:98:0e:bf:af:8f:92:74:5a:
                    31:01:58:ca:9b:4d:80:ab:2c:3d:56:8f:11:95:58:
                    7d:59:fd:90:d9:68:cf:4a:52:9e:2a:03:e1:b4:37:
                    5c:06:9b:1d:98:91:95:3f:74:32:6f:e8:96:25:c2:
                    60:e3:61
                Exponent: 65537 (0x10001)
        X509v3 extensions:
            X509v3 Basic Constraints: 
                CA:FALSE
            Netscape Comment: 
                Easy-RSA Generated Certificate
            X509v3 Subject Key Identifier: 
                B9:94:1E:59:31:E7:C6:3D:1F:1C:3D:CF:5C:CC:AE:4B:0E:52:37:A0
            X509v3 Authority Key Identifier: 
                keyid:EF:38:8D:14:50:58:A7:5B:4D:9C:17:72:FC:DF:B9:AC:A7:51:B0:10
                DirName:/C=US/ST=CA/L=SanFrancisco/O=Pixglo, Inc./OU=VPN-CIE/CN=tunnel.pixglo.com/name=Bala Chandrasekaran/emailAddress=bala@pixglo.com
                serial:A6:DB:C6:83:80:E6:A0:79

            X509v3 Extended Key Usage: 
                TLS Web Client Authentication
            X509v3 Key Usage: 
                Digital Signature
    Signature Algorithm: sha1WithRSAEncryption
         46:6d:67:6b:af:20:5c:d7:e6:99:d8:98:82:38:e5:0e:6c:33:
         66:6f:d2:2e:6c:cc:7f:0f:c0:32:42:f0:21:d8:51:2d:42:05:
         6b:84:aa:43:71:9c:eb:67:40:7f:ab:48:ef:e4:2e:34:ea:40:
         e8:d8:66:14:ec:b1:72:92:16:20:14:32:40:6c:0d:c3:83:05:
         15:6d:32:97:17:f2:ea:7e:07:2a:bd:bb:db:df:27:af:37:74:
         60:0d:0c:5f:a1:30:32:d3:95:3e:59:63:28:20:c5:1c:36:fa:
         99:0a:36:9a:d0:5d:da:96:40:9d:82:e5:24:a3:76:b3:ce:54:
         5e:a4:1c:04:29:e1:28:5d:14:b1:e3:16:6a:fe:20:84:53:b3:
         67:a8:99:2e:fc:b1:e6:68:13:cf:f1:fb:61:35:3f:3b:ac:4a:
         6d:44:eb:ef:a1:81:aa:14:9a:a7:70:c1:0e:2c:f0:89:a5:79:
         af:dc:1d:bf:01:28:54:41:17:b8:41:e4:3f:b9:7c:1e:c5:76:
         11:4d:20:07:6b:27:f3:2c:d5:14:75:b7:d8:4e:33:37:23:ba:
         7b:15:54:ac:ae:d1:45:41:8d:ec:c8:68:d9:e0:cd:b8:9d:0f:
         84:9d:c3:f8:ad:25:df:fb:52:a1:96:a6:1b:a7:ed:50:42:02:
         85:98:18:0d:66:c7:1e:46:80:e4:3c:af:11:6e:43:fd:a8:85:
         2c:a8:e2:27:aa:8e:b9:dd:6e:49:2f:3c:4f:12:7b:b8:a1:49:
         d0:50:7d:7d:d0:ba:12:89:9b:5c:2b:14:67:db:95:dd:f9:9f:
         2e:ca:fc:a9:8f:fb:ef:7a:58:aa:46:d3:94:eb:e3:c8:53:c8:
         f4:30:25:00:fb:65:76:b6:e8:a8:09:32:db:27:ab:4a:79:4b:
         66:9e:7a:76:3a:d4:ca:1d:cc:f9:b3:ba:2a:68:aa:32:1b:23:
         d7:a8:96:0c:70:d0:a1:79:b8:9a:43:ab:71:3e:cd:26:26:d9:
         64:b9:3d:2d:6f:0e:8f:98:e1:d5:21:ad:01:b1:16:98:20:56:
         89:e0:a2:6a:a9:81:0a:67:2d:5e:37:01:eb:8b:86:18:d9:57:
         13:7d:96:66:9e:98:86:73:f9:10:5b:c6:df:b4:ef:f4:91:7b:
         2a:f3:19:2b:22:32:56:1f:79:9e:23:04:fd:2e:d3:22:b0:e6:
         03:1c:16:ec:b0:55:99:fc:9d:07:60:95:f4:ec:e3:ab:ae:ef:
         39:d2:61:6f:7c:cf:6e:18:2a:f9:e0:9d:f0:0b:a7:ef:be:20:
         27:86:12:90:ac:53:3c:a1:4b:04:79:66:c7:c7:23:8f:2d:c8:
         ba:67:35:f4:b4:5d:b3:a5
-----BEGIN CERTIFICATE-----
MIIHSDCCBTCgAwIBAgICAswwDQYJKoZIhvcNAQEFBQAwgbQxCzAJBgNVBAYTAlVT
MQswCQYDVQQIEwJDQTEVMBMGA1UEBxMMU2FuRnJhbmNpc2NvMRUwEwYDVQQKEwxQ
aXhnbG8sIEluYy4xEDAOBgNVBAsTB1ZQTi1DSUUxGjAYBgNVBAMTEXR1bm5lbC5w
aXhnbG8uY29tMRwwGgYDVQQpExNCYWxhIENoYW5kcmFzZWthcmFuMR4wHAYJKoZI
hvcNAQkBFg9iYWxhQHBpeGdsby5jb20wHhcNMTgwMjE0MDY0MTIwWhcNMjgwMjEy
MDY0MTIwWjCBqTELMAkGA1UEBhMCVVMxCzAJBgNVBAgTAkNBMRUwEwYDVQQHEwxT
YW5GcmFuY2lzY28xFTATBgNVBAoTDFBpeGdsbywgSW5jLjEQMA4GA1UECxMHVlBO
LUNJRTEPMA0GA1UEAxMGY2llNzE1MRwwGgYDVQQpExNCYWxhIENoYW5kcmFzZWth
cmFuMR4wHAYJKoZIhvcNAQkBFg9iYWxhQHBpeGdsby5jb20wggIiMA0GCSqGSIb3
DQEBAQUAA4ICDwAwggIKAoICAQCtL8kaU5RusX6hZBI1+EstpW6fzFj0bxw8Y/LT
8lTY9nxLyRjbFPLVrN926tSp+U4uxAw1c55lOi/D2cxa6ab1P7xiokB5nTaXhxv6
v25wniNs0fkpPGxpqiMI0/QwHmOnt75Q7R//uDlctClINu7hTBEVXuBr4XZVeDSQ
4QQcG+zIuicTJAFR+6ZvMVB71E7RI0oOYAWwYE7+fHKGmtu38Pt8a058vAJDB7Br
hni7P9N7f+psRU1r8ieilELPgP8rTyEvQcJ2lvl9IcbhuCF8hzRjhztt+ApbOOTL
aatoC78kmFzY9QbyJIWy084PrFb3koAUVuHAhcAJm2dmXt3R172L2XnuyrLmkZl4
B8rPqxGuRbfYEyp1ShQ5Bh0jmtvOomayNhCZYcgrO4EcTHfzAvmiAk+VIErHBO+R
Gd+IhK6K4jPB5W1sT0FEUeZc7lpd1PuJD05ciABNF7LhvKxJmBRV9YWQz6RhotUh
vlW7uUVfGSyZTKtSLgZvyQIAKbN6AwRS4i12wyBwCUDDybxyI+iq0dPRfWTRwIcD
6ztAnrvyOVZtvhyAOf5b0h7mZBoYGZpSLrCjPZ0PTjMFXyBWvRWn/TrhNM6YDr+v
j5J0WjEBWMqbTYCrLD1WjxGVWH1Z/ZDZaM9KUp4qA+G0N1wGmx2YkZU/dDJv6JYl
wmDjYQIDAQABo4IBazCCAWcwCQYDVR0TBAIwADAtBglghkgBhvhCAQ0EIBYeRWFz
eS1SU0EgR2VuZXJhdGVkIENlcnRpZmljYXRlMB0GA1UdDgQWBBS5lB5ZMefGPR8c
Pc9czK5LDlI3oDCB6QYDVR0jBIHhMIHegBTvOI0UUFinW02cF3L837msp1GwEKGB
uqSBtzCBtDELMAkGA1UEBhMCVVMxCzAJBgNVBAgTAkNBMRUwEwYDVQQHEwxTYW5G
cmFuY2lzY28xFTATBgNVBAoTDFBpeGdsbywgSW5jLjEQMA4GA1UECxMHVlBOLUNJ
RTEaMBgGA1UEAxMRdHVubmVsLnBpeGdsby5jb20xHDAaBgNVBCkTE0JhbGEgQ2hh
bmRyYXNla2FyYW4xHjAcBgkqhkiG9w0BCQEWD2JhbGFAcGl4Z2xvLmNvbYIJAKbb
xoOA5qB5MBMGA1UdJQQMMAoGCCsGAQUFBwMCMAsGA1UdDwQEAwIHgDANBgkqhkiG
9w0BAQUFAAOCAgEARm1na68gXNfmmdiYgjjlDmwzZm/SLmzMfw/AMkLwIdhRLUIF
a4SqQ3Gc62dAf6tI7+QuNOpA6NhmFOyxcpIWIBQyQGwNw4MFFW0ylxfy6n4HKr27
298nrzd0YA0MX6EwMtOVPlljKCDFHDb6mQo2mtBd2pZAnYLlJKN2s85UXqQcBCnh
KF0UseMWav4ghFOzZ6iZLvyx5mgTz/H7YTU/O6xKbUTr76GBqhSap3DBDizwiaV5
r9wdvwEoVEEXuEHkP7l8HsV2EU0gB2sn8yzVFHW32E4zNyO6exVUrK7RRUGN7Mho
2eDNuJ0PhJ3D+K0l3/tSoZamG6ftUEIChZgYDWbHHkaA5DyvEW5D/aiFLKjiJ6qO
ud1uSS88TxJ7uKFJ0FB9fdC6EombXCsUZ9uV3fmfLsr8qY/773pYqkbTlOvjyFPI
9DAlAPtldrboqAky2yerSnlLZp56djrUyh3M+bO6KmiqMhsj16iWDHDQoXm4mkOr
cT7NJibZZLk9LW8Oj5jh1SGtAbEWmCBWieCiaqmBCmctXjcB64uGGNlXE32WZp6Y
hnP5EFvG37Tv9JF7KvMZKyIyVh95niME/S7TIrDmAxwW7LBVmfydB2CV9Ozjq67v
OdJhb3zPbhgq+eCd8Aun774gJ4YSkKxTPKFLBHlmx8cjjy3Iumc19LRds6U=
-----END CERTIFICATE-----
