Certificate:
    Data:
        Version: 3 (0x2)
        Serial Number: 724 (0x2d4)
    Signature Algorithm: sha1WithRSAEncryption
        Issuer: C=US, ST=CA, L=SanFrancisco, O=Pixglo, Inc., OU=VPN-CIE, CN=tunnel.pixglo.com/name=Bala Chandrasekaran/emailAddress=bala@pixglo.com
        Validity
            Not Before: Feb 14 06:41:33 2018 GMT
            Not After : Feb 12 06:41:33 2028 GMT
        Subject: C=US, ST=CA, L=SanFrancisco, O=Pixglo, Inc., OU=VPN-CIE, CN=cie723/name=Bala Chandrasekaran/emailAddress=bala@pixglo.com
        Subject Public Key Info:
            Public Key Algorithm: rsaEncryption
                Public-Key: (4096 bit)
                Modulus:
                    00:f9:2a:5d:49:5e:bb:11:45:01:fa:80:4c:5c:78:
                    64:b3:13:75:f5:da:37:cc:be:0d:94:4c:6f:64:8c:
                    e8:45:6e:64:14:67:c1:46:85:e3:03:52:02:de:58:
                    32:00:97:93:9c:d9:ad:f3:09:43:d2:7d:ce:d4:14:
                    a4:aa:80:84:5c:c5:df:0d:87:e8:a4:f8:66:51:60:
                    e0:62:f3:c4:8a:17:a3:f1:e0:2c:61:08:7c:bc:d5:
                    32:46:0b:f7:ed:fa:a0:cf:f6:7b:58:b1:19:94:bc:
                    75:c5:af:49:6b:de:1c:f5:e1:d5:4d:69:8d:c8:c0:
                    ba:7c:7e:a6:17:01:64:8e:11:bb:24:8a:f5:48:4e:
                    18:73:fb:bb:71:38:0d:e6:d8:70:1b:7d:97:c7:59:
                    f4:77:0d:45:8f:c7:0e:72:f4:f2:b7:71:77:c4:41:
                    ab:df:18:2e:32:93:7c:d5:ec:7e:6d:e2:1b:e9:f7:
                    1d:bd:ef:aa:ad:59:25:28:67:bc:2a:18:8e:f7:0e:
                    bb:d4:ac:a5:d6:1e:35:12:ae:43:58:c8:9e:73:ab:
                    9c:6b:ab:f4:98:27:f9:e2:11:bb:a7:3a:a9:4c:a8:
                    28:f5:11:3b:69:f2:67:3b:20:48:fb:cd:3c:93:77:
                    6a:31:d2:d3:7a:63:5a:74:90:9f:5b:df:c4:b4:86:
                    02:26:89:be:a3:c8:1d:82:bc:76:94:c0:a0:eb:70:
                    74:a4:5e:0b:c0:64:7d:99:7f:f3:5d:f5:f0:5a:c0:
                    0e:1d:f4:ff:2a:37:af:e7:0a:94:1b:78:a5:ce:1b:
                    da:3b:2d:81:be:d7:9b:59:f3:ca:71:28:88:83:ca:
                    21:04:8c:96:d8:0b:fe:49:8d:c4:ca:c1:af:cb:df:
                    df:19:19:d3:7d:36:76:4e:7b:2a:17:d0:78:bd:2a:
                    6b:47:fc:69:02:9d:4e:59:b4:69:a6:20:6f:48:1a:
                    1e:ed:e7:39:ac:7b:f3:b5:0c:75:c7:20:4c:91:18:
                    6c:81:7b:99:f5:9c:d8:02:e7:08:72:41:e7:ff:69:
                    78:34:69:99:f3:f8:95:ac:a7:2a:6a:00:8d:86:07:
                    59:df:b9:b7:62:0f:ca:3d:b1:5f:7a:fd:87:7c:55:
                    54:58:34:e0:2b:d0:92:7b:63:94:e3:68:89:ff:6e:
                    2d:d0:50:9c:b7:3b:fe:df:0a:2e:af:b4:20:8b:3f:
                    c9:da:78:19:f5:c8:aa:fb:2d:73:b1:8b:99:bb:a2:
                    ed:fd:e2:e2:5f:f8:87:6d:17:f0:1b:d4:cd:1c:38:
                    1c:f6:72:f1:6a:60:65:c1:13:ff:69:92:59:fd:75:
                    7a:fa:83:7f:96:34:d7:94:c7:ec:dc:97:a8:17:78:
                    0b:59:e7
                Exponent: 65537 (0x10001)
        X509v3 extensions:
            X509v3 Basic Constraints: 
                CA:FALSE
            Netscape Comment: 
                Easy-RSA Generated Certificate
            X509v3 Subject Key Identifier: 
                FD:0D:9C:F2:A9:B8:49:31:4B:03:02:6B:7E:FF:5B:80:43:40:A5:9D
            X509v3 Authority Key Identifier: 
                keyid:EF:38:8D:14:50:58:A7:5B:4D:9C:17:72:FC:DF:B9:AC:A7:51:B0:10
                DirName:/C=US/ST=CA/L=SanFrancisco/O=Pixglo, Inc./OU=VPN-CIE/CN=tunnel.pixglo.com/name=Bala Chandrasekaran/emailAddress=bala@pixglo.com
                serial:A6:DB:C6:83:80:E6:A0:79

            X509v3 Extended Key Usage: 
                TLS Web Client Authentication
            X509v3 Key Usage: 
                Digital Signature
    Signature Algorithm: sha1WithRSAEncryption
         82:dc:f6:50:4e:41:52:aa:06:37:81:1d:0d:50:77:52:e7:db:
         c3:51:8a:69:a7:c0:22:ea:92:61:74:ea:4e:6c:d1:26:21:8a:
         e9:9f:41:86:dc:77:8c:32:eb:78:64:39:4c:91:80:2d:cb:02:
         99:d4:b4:6f:a1:4f:c6:7f:e4:2b:6c:df:a2:76:4c:3e:5a:ae:
         f6:d8:ac:6f:f8:cd:c3:ca:4e:5d:a5:2a:14:2e:8f:de:3d:81:
         c6:b4:31:ea:f3:12:a9:85:0c:a2:f5:fc:c5:ff:ba:9c:16:44:
         50:43:73:28:11:d8:e2:18:9c:91:2c:99:72:1b:29:c1:7c:23:
         82:a3:aa:47:cb:62:72:f7:a6:2f:cf:cb:5f:ba:fe:b6:a5:c5:
         c4:16:92:3f:06:1b:b9:80:af:7c:32:99:59:e9:6b:14:15:49:
         25:67:16:77:6f:d0:fc:31:2c:18:9d:4c:70:23:a9:6c:2c:f8:
         6c:c5:ed:dc:5f:a5:11:38:b2:98:9d:6f:04:a9:07:81:73:d4:
         8d:13:83:26:3a:d9:c1:5b:67:9d:86:a9:63:e9:f7:ea:17:ec:
         70:6b:50:13:54:63:2b:11:34:f4:47:41:b6:d3:e4:0a:67:63:
         82:2f:11:6f:ee:0b:2b:71:a5:96:7a:6e:61:29:32:d3:30:40:
         9e:05:cc:58:2d:70:3e:50:db:bc:0f:ec:ae:e0:3d:4e:69:5b:
         d3:11:86:c4:db:2a:af:95:a7:86:30:e3:a8:47:f7:d5:a9:69:
         84:2d:3f:f0:07:43:d9:22:da:2b:58:98:eb:d2:ab:7c:31:15:
         9a:29:33:a3:6d:40:09:d2:84:54:c9:38:7a:65:a3:58:01:12:
         66:f0:a7:80:8c:f6:4e:ce:77:58:4b:c6:e6:de:59:1f:74:51:
         53:9d:21:a0:7a:c6:cf:62:5c:49:06:46:d1:4f:01:d9:84:5f:
         92:20:6a:c4:59:c5:fe:04:46:8d:ee:88:e6:b7:93:f4:cc:70:
         85:74:b9:1d:95:e0:4c:08:23:9e:f7:03:fe:b7:e2:ff:d4:3e:
         3a:87:ef:ac:eb:38:54:5b:2b:22:b1:98:32:d2:8d:0b:98:01:
         ec:6c:d6:97:e7:84:60:95:64:de:b6:55:5d:05:ca:cc:c4:8f:
         fb:c7:16:b4:ef:7c:8e:d9:86:df:93:f4:8f:6b:77:6f:d5:59:
         27:5b:85:f8:e0:cd:49:97:a4:a5:60:d6:8f:20:24:44:28:d2:
         d4:5e:a5:21:75:ff:fd:b0:1a:d2:ad:cc:6c:4c:00:0d:a4:5f:
         41:b8:a3:68:33:bd:d6:e7:de:6f:96:5f:81:ed:a8:6e:f2:2d:
         6f:9c:a3:4b:9c:03:17:73
-----BEGIN CERTIFICATE-----
MIIHSDCCBTCgAwIBAgICAtQwDQYJKoZIhvcNAQEFBQAwgbQxCzAJBgNVBAYTAlVT
MQswCQYDVQQIEwJDQTEVMBMGA1UEBxMMU2FuRnJhbmNpc2NvMRUwEwYDVQQKEwxQ
aXhnbG8sIEluYy4xEDAOBgNVBAsTB1ZQTi1DSUUxGjAYBgNVBAMTEXR1bm5lbC5w
aXhnbG8uY29tMRwwGgYDVQQpExNCYWxhIENoYW5kcmFzZWthcmFuMR4wHAYJKoZI
hvcNAQkBFg9iYWxhQHBpeGdsby5jb20wHhcNMTgwMjE0MDY0MTMzWhcNMjgwMjEy
MDY0MTMzWjCBqTELMAkGA1UEBhMCVVMxCzAJBgNVBAgTAkNBMRUwEwYDVQQHEwxT
YW5GcmFuY2lzY28xFTATBgNVBAoTDFBpeGdsbywgSW5jLjEQMA4GA1UECxMHVlBO
LUNJRTEPMA0GA1UEAxMGY2llNzIzMRwwGgYDVQQpExNCYWxhIENoYW5kcmFzZWth
cmFuMR4wHAYJKoZIhvcNAQkBFg9iYWxhQHBpeGdsby5jb20wggIiMA0GCSqGSIb3
DQEBAQUAA4ICDwAwggIKAoICAQD5Kl1JXrsRRQH6gExceGSzE3X12jfMvg2UTG9k
jOhFbmQUZ8FGheMDUgLeWDIAl5Oc2a3zCUPSfc7UFKSqgIRcxd8Nh+ik+GZRYOBi
88SKF6Px4CxhCHy81TJGC/ft+qDP9ntYsRmUvHXFr0lr3hz14dVNaY3IwLp8fqYX
AWSOEbskivVIThhz+7txOA3m2HAbfZfHWfR3DUWPxw5y9PK3cXfEQavfGC4yk3zV
7H5t4hvp9x2976qtWSUoZ7wqGI73DrvUrKXWHjUSrkNYyJ5zq5xrq/SYJ/niEbun
OqlMqCj1ETtp8mc7IEj7zTyTd2ox0tN6Y1p0kJ9b38S0hgImib6jyB2CvHaUwKDr
cHSkXgvAZH2Zf/Nd9fBawA4d9P8qN6/nCpQbeKXOG9o7LYG+15tZ88pxKIiDyiEE
jJbYC/5JjcTKwa/L398ZGdN9NnZOeyoX0Hi9KmtH/GkCnU5ZtGmmIG9IGh7t5zms
e/O1DHXHIEyRGGyBe5n1nNgC5whyQef/aXg0aZnz+JWspypqAI2GB1nfubdiD8o9
sV96/Yd8VVRYNOAr0JJ7Y5TjaIn/bi3QUJy3O/7fCi6vtCCLP8naeBn1yKr7LXOx
i5m7ou394uJf+IdtF/Ab1M0cOBz2cvFqYGXBE/9pkln9dXr6g3+WNNeUx+zcl6gX
eAtZ5wIDAQABo4IBazCCAWcwCQYDVR0TBAIwADAtBglghkgBhvhCAQ0EIBYeRWFz
eS1SU0EgR2VuZXJhdGVkIENlcnRpZmljYXRlMB0GA1UdDgQWBBT9DZzyqbhJMUsD
Amt+/1uAQ0ClnTCB6QYDVR0jBIHhMIHegBTvOI0UUFinW02cF3L837msp1GwEKGB
uqSBtzCBtDELMAkGA1UEBhMCVVMxCzAJBgNVBAgTAkNBMRUwEwYDVQQHEwxTYW5G
cmFuY2lzY28xFTATBgNVBAoTDFBpeGdsbywgSW5jLjEQMA4GA1UECxMHVlBOLUNJ
RTEaMBgGA1UEAxMRdHVubmVsLnBpeGdsby5jb20xHDAaBgNVBCkTE0JhbGEgQ2hh
bmRyYXNla2FyYW4xHjAcBgkqhkiG9w0BCQEWD2JhbGFAcGl4Z2xvLmNvbYIJAKbb
xoOA5qB5MBMGA1UdJQQMMAoGCCsGAQUFBwMCMAsGA1UdDwQEAwIHgDANBgkqhkiG
9w0BAQUFAAOCAgEAgtz2UE5BUqoGN4EdDVB3Uufbw1GKaafAIuqSYXTqTmzRJiGK
6Z9Bhtx3jDLreGQ5TJGALcsCmdS0b6FPxn/kK2zfonZMPlqu9tisb/jNw8pOXaUq
FC6P3j2BxrQx6vMSqYUMovX8xf+6nBZEUENzKBHY4hickSyZchspwXwjgqOqR8ti
cvemL8/LX7r+tqXFxBaSPwYbuYCvfDKZWelrFBVJJWcWd2/Q/DEsGJ1McCOpbCz4
bMXt3F+lETiymJ1vBKkHgXPUjRODJjrZwVtnnYapY+n36hfscGtQE1RjKxE09EdB
ttPkCmdjgi8Rb+4LK3GllnpuYSky0zBAngXMWC1wPlDbvA/sruA9Tmlb0xGGxNsq
r5WnhjDjqEf31alphC0/8AdD2SLaK1iY69KrfDEVmikzo21ACdKEVMk4emWjWAES
ZvCngIz2Ts53WEvG5t5ZH3RRU50hoHrGz2JcSQZG0U8B2YRfkiBqxFnF/gRGje6I
5reT9MxwhXS5HZXgTAgjnvcD/rfi/9Q+OofvrOs4VFsrIrGYMtKNC5gB7GzWl+eE
YJVk3rZVXQXKzMSP+8cWtO98jtmG35P0j2t3b9VZJ1uF+ODNSZekpWDWjyAkRCjS
1F6lIXX//bAa0q3MbEwADaRfQbijaDO91ufeb5Zfge2obvItb5yjS5wDF3M=
-----END CERTIFICATE-----
