Certificate:
    Data:
        Version: 3 (0x2)
        Serial Number: 789 (0x315)
    Signature Algorithm: sha1WithRSAEncryption
        Issuer: C=US, ST=CA, L=SanFrancisco, O=Pixglo, Inc., OU=VPN-CIE, CN=tunnel.pixglo.com/name=Bala Chandrasekaran/emailAddress=bala@pixglo.com
        Validity
            Not Before: Feb 14 06:43:39 2018 GMT
            Not After : Feb 12 06:43:39 2028 GMT
        Subject: C=US, ST=CA, L=SanFrancisco, O=Pixglo, Inc., OU=VPN-CIE, CN=cie788/name=Bala Chandrasekaran/emailAddress=bala@pixglo.com
        Subject Public Key Info:
            Public Key Algorithm: rsaEncryption
                Public-Key: (4096 bit)
                Modulus:
                    00:d4:d0:c5:bc:9f:3e:e8:1c:ac:60:45:9a:3c:25:
                    30:f5:09:a4:e6:cd:25:ef:c2:cf:e5:5a:2b:8c:c4:
                    ef:41:47:0a:0f:5e:c8:52:42:da:c0:ec:be:2d:19:
                    76:01:11:74:23:13:00:41:72:10:46:79:df:a8:27:
                    9d:72:25:b9:cb:c8:d2:0b:2f:69:5e:cc:14:6e:0e:
                    e2:89:c7:d0:47:e5:01:a9:55:23:ef:a1:9b:3b:ff:
                    ba:83:68:99:3d:9d:af:52:ba:5e:ab:22:ab:5d:7e:
                    c9:ce:23:66:7f:0d:42:b0:59:53:10:18:a4:2c:a4:
                    d8:d0:b9:83:6f:12:bf:d1:fd:9d:91:87:82:df:d3:
                    09:8a:a6:51:d1:60:91:87:43:7c:10:bb:4e:2b:a0:
                    07:58:cf:2c:da:ff:e6:77:9b:fc:1e:d2:fc:d3:98:
                    26:b3:cb:41:3e:d3:a0:1f:8c:89:df:b2:3f:45:b8:
                    87:34:b6:d3:cf:1f:ce:73:17:e0:9b:2f:53:dc:6c:
                    8a:29:0b:13:82:2b:d2:82:a0:45:f0:8b:40:5b:f9:
                    29:e7:a1:2b:04:39:ca:92:ec:2e:3f:31:64:61:70:
                    c8:16:c4:4b:1b:f8:2e:51:c2:3c:e1:1e:fc:cf:ba:
                    b5:96:39:e6:f2:49:d6:ab:16:ae:9c:8e:3e:46:f7:
                    ac:3e:73:f3:cb:03:58:a5:39:5a:70:15:bf:27:68:
                    80:54:e4:5c:6f:bc:a7:21:59:e4:9e:a9:b8:2a:44:
                    de:3e:f9:25:ac:a3:b6:79:a6:19:06:95:52:dd:78:
                    f7:cb:69:70:36:99:bb:f4:10:01:24:9f:f1:74:25:
                    8f:75:7c:68:f1:a8:c6:e2:f0:ab:22:4d:87:e3:26:
                    af:b4:3a:00:6c:68:fa:b5:5c:62:c4:50:14:e2:ee:
                    85:c0:cc:4a:8c:4f:fe:84:be:6b:6d:fe:ff:fe:9c:
                    c9:f4:5a:6c:87:56:1b:1c:9d:1b:51:d7:5b:d5:d6:
                    23:2b:10:c4:67:8a:2d:e1:03:42:bb:25:d2:4a:55:
                    b2:f7:45:e8:a4:75:6d:32:8d:9c:9a:b4:0d:97:f5:
                    92:1e:ac:c2:10:13:25:80:2a:74:ee:6e:12:c7:6c:
                    3f:7f:42:97:d1:b7:d7:85:42:85:7e:bb:79:fd:8c:
                    7e:02:34:0e:4b:9e:3b:7d:80:d6:36:a3:86:d3:e5:
                    9b:57:1d:1a:a1:f9:7d:db:b7:6f:ed:46:0a:af:1d:
                    a5:90:cb:46:42:f9:cf:18:69:15:e1:4a:4f:da:c1:
                    2b:fe:90:f8:11:26:1a:df:89:4d:3e:8b:13:ee:0b:
                    ff:60:2e:4f:1e:c0:20:15:99:69:ea:dc:6f:21:d0:
                    97:6b:a1
                Exponent: 65537 (0x10001)
        X509v3 extensions:
            X509v3 Basic Constraints: 
                CA:FALSE
            Netscape Comment: 
                Easy-RSA Generated Certificate
            X509v3 Subject Key Identifier: 
                E5:6E:A8:56:2F:D2:E7:12:32:39:B5:BE:CB:33:8B:6B:89:8E:CC:62
            X509v3 Authority Key Identifier: 
                keyid:EF:38:8D:14:50:58:A7:5B:4D:9C:17:72:FC:DF:B9:AC:A7:51:B0:10
                DirName:/C=US/ST=CA/L=SanFrancisco/O=Pixglo, Inc./OU=VPN-CIE/CN=tunnel.pixglo.com/name=Bala Chandrasekaran/emailAddress=bala@pixglo.com
                serial:A6:DB:C6:83:80:E6:A0:79

            X509v3 Extended Key Usage: 
                TLS Web Client Authentication
            X509v3 Key Usage: 
                Digital Signature
    Signature Algorithm: sha1WithRSAEncryption
         1b:cc:a5:81:4d:b7:0f:fb:17:11:00:d1:09:cb:4f:aa:31:08:
         e2:7c:a0:a1:a3:d6:0e:5f:49:b9:7f:b9:c6:df:8d:13:cb:2a:
         08:30:73:43:8c:51:bb:86:31:93:90:ae:32:3e:cf:02:d6:96:
         a7:d2:0f:5f:f2:3f:5f:f2:77:ed:16:89:ca:06:bb:c2:07:fb:
         66:99:70:60:50:63:08:97:9d:5f:83:e9:67:35:af:9e:2a:5f:
         48:79:7c:ae:0e:79:ed:1b:7a:d0:df:eb:a8:7b:a1:df:2f:21:
         97:95:8b:22:e3:28:c3:a6:8b:f6:7d:52:7f:93:a1:6b:75:c5:
         74:ad:ef:92:a2:fa:db:63:aa:ff:df:4a:3d:4b:aa:89:9e:59:
         d9:93:12:10:38:fd:16:63:1d:68:6a:80:ea:38:1c:8f:73:00:
         ef:c3:a1:21:52:7f:f8:61:b4:3e:06:7f:1c:ec:a3:19:13:65:
         81:27:83:6f:48:70:51:91:6e:e4:5c:bf:72:cd:54:d5:ed:80:
         57:39:59:39:cd:f2:0b:2a:6e:0d:fb:6d:5a:f5:b1:87:3a:1c:
         28:9b:33:93:09:3c:d1:70:9c:ac:2b:50:5f:02:32:95:e0:bf:
         07:78:c2:fa:c9:5a:bd:78:c6:8d:30:0f:90:e6:0f:34:75:64:
         e2:74:46:8a:67:f1:4a:19:d7:95:3c:41:d9:46:85:7e:5d:bd:
         00:0a:1a:8d:3b:7b:5e:81:c7:45:f8:2d:05:64:c9:2c:c5:7d:
         3d:a6:0e:ea:a4:d7:0a:4b:e9:6a:d3:18:82:7f:e4:a0:fa:52:
         61:7d:98:89:9d:30:84:ac:4d:e3:7d:76:d0:42:15:c0:22:17:
         bf:d9:cf:20:d9:76:69:69:96:cc:cc:58:69:0f:6b:4e:86:a6:
         1a:bf:e0:85:75:5a:59:42:34:ae:f1:fb:cf:da:dd:ef:4b:3d:
         10:b1:ae:78:53:3c:55:51:e9:07:95:a3:aa:3e:72:f6:ea:37:
         92:bb:c3:a8:f0:0d:d9:af:db:52:45:ab:b1:19:fd:35:e4:b4:
         0f:d1:df:da:3c:40:6a:f3:c5:be:47:31:ed:a1:6e:16:46:2a:
         e4:7c:26:dd:0c:24:05:d9:52:c6:ec:bf:b5:77:ac:a1:a0:b1:
         0e:5c:29:13:eb:8a:25:f6:4f:4c:97:31:a6:c7:8a:cd:3e:78:
         bb:56:90:7d:2d:cc:fc:93:86:a5:6e:b5:b3:6d:d0:38:0a:16:
         0f:57:3d:9f:aa:f6:af:43:e1:53:67:63:bb:cd:82:22:b4:80:
         84:52:97:b2:f7:2d:ed:68:48:e8:0b:8c:28:2f:05:61:ce:cf:
         0a:04:c2:df:3a:9d:80:14
-----BEGIN CERTIFICATE-----
MIIHSDCCBTCgAwIBAgICAxUwDQYJKoZIhvcNAQEFBQAwgbQxCzAJBgNVBAYTAlVT
MQswCQYDVQQIEwJDQTEVMBMGA1UEBxMMU2FuRnJhbmNpc2NvMRUwEwYDVQQKEwxQ
aXhnbG8sIEluYy4xEDAOBgNVBAsTB1ZQTi1DSUUxGjAYBgNVBAMTEXR1bm5lbC5w
aXhnbG8uY29tMRwwGgYDVQQpExNCYWxhIENoYW5kcmFzZWthcmFuMR4wHAYJKoZI
hvcNAQkBFg9iYWxhQHBpeGdsby5jb20wHhcNMTgwMjE0MDY0MzM5WhcNMjgwMjEy
MDY0MzM5WjCBqTELMAkGA1UEBhMCVVMxCzAJBgNVBAgTAkNBMRUwEwYDVQQHEwxT
YW5GcmFuY2lzY28xFTATBgNVBAoTDFBpeGdsbywgSW5jLjEQMA4GA1UECxMHVlBO
LUNJRTEPMA0GA1UEAxMGY2llNzg4MRwwGgYDVQQpExNCYWxhIENoYW5kcmFzZWth
cmFuMR4wHAYJKoZIhvcNAQkBFg9iYWxhQHBpeGdsby5jb20wggIiMA0GCSqGSIb3
DQEBAQUAA4ICDwAwggIKAoICAQDU0MW8nz7oHKxgRZo8JTD1CaTmzSXvws/lWiuM
xO9BRwoPXshSQtrA7L4tGXYBEXQjEwBBchBGed+oJ51yJbnLyNILL2lezBRuDuKJ
x9BH5QGpVSPvoZs7/7qDaJk9na9Sul6rIqtdfsnOI2Z/DUKwWVMQGKQspNjQuYNv
Er/R/Z2Rh4Lf0wmKplHRYJGHQ3wQu04roAdYzyza/+Z3m/we0vzTmCazy0E+06Af
jInfsj9FuIc0ttPPH85zF+CbL1PcbIopCxOCK9KCoEXwi0Bb+SnnoSsEOcqS7C4/
MWRhcMgWxEsb+C5RwjzhHvzPurWWOebySdarFq6cjj5G96w+c/PLA1ilOVpwFb8n
aIBU5FxvvKchWeSeqbgqRN4++SWso7Z5phkGlVLdePfLaXA2mbv0EAEkn/F0JY91
fGjxqMbi8KsiTYfjJq+0OgBsaPq1XGLEUBTi7oXAzEqMT/6Evmtt/v/+nMn0WmyH
VhscnRtR11vV1iMrEMRnii3hA0K7JdJKVbL3ReikdW0yjZyatA2X9ZIerMIQEyWA
KnTubhLHbD9/QpfRt9eFQoV+u3n9jH4CNA5Lnjt9gNY2o4bT5ZtXHRqh+X3bt2/t
RgqvHaWQy0ZC+c8YaRXhSk/awSv+kPgRJhrfiU0+ixPuC/9gLk8ewCAVmWnq3G8h
0JdroQIDAQABo4IBazCCAWcwCQYDVR0TBAIwADAtBglghkgBhvhCAQ0EIBYeRWFz
eS1SU0EgR2VuZXJhdGVkIENlcnRpZmljYXRlMB0GA1UdDgQWBBTlbqhWL9LnEjI5
tb7LM4triY7MYjCB6QYDVR0jBIHhMIHegBTvOI0UUFinW02cF3L837msp1GwEKGB
uqSBtzCBtDELMAkGA1UEBhMCVVMxCzAJBgNVBAgTAkNBMRUwEwYDVQQHEwxTYW5G
cmFuY2lzY28xFTATBgNVBAoTDFBpeGdsbywgSW5jLjEQMA4GA1UECxMHVlBOLUNJ
RTEaMBgGA1UEAxMRdHVubmVsLnBpeGdsby5jb20xHDAaBgNVBCkTE0JhbGEgQ2hh
bmRyYXNla2FyYW4xHjAcBgkqhkiG9w0BCQEWD2JhbGFAcGl4Z2xvLmNvbYIJAKbb
xoOA5qB5MBMGA1UdJQQMMAoGCCsGAQUFBwMCMAsGA1UdDwQEAwIHgDANBgkqhkiG
9w0BAQUFAAOCAgEAG8ylgU23D/sXEQDRCctPqjEI4nygoaPWDl9JuX+5xt+NE8sq
CDBzQ4xRu4Yxk5CuMj7PAtaWp9IPX/I/X/J37RaJyga7wgf7ZplwYFBjCJedX4Pp
ZzWvnipfSHl8rg557Rt60N/rqHuh3y8hl5WLIuMow6aL9n1Sf5Oha3XFdK3vkqL6
22Oq/99KPUuqiZ5Z2ZMSEDj9FmMdaGqA6jgcj3MA78OhIVJ/+GG0PgZ/HOyjGRNl
gSeDb0hwUZFu5Fy/cs1U1e2AVzlZOc3yCypuDfttWvWxhzocKJszkwk80XCcrCtQ
XwIyleC/B3jC+slavXjGjTAPkOYPNHVk4nRGimfxShnXlTxB2UaFfl29AAoajTt7
XoHHRfgtBWTJLMV9PaYO6qTXCkvpatMYgn/koPpSYX2YiZ0whKxN43120EIVwCIX
v9nPINl2aWmWzMxYaQ9rToamGr/ghXVaWUI0rvH7z9rd70s9ELGueFM8VVHpB5Wj
qj5y9uo3krvDqPAN2a/bUkWrsRn9NeS0D9Hf2jxAavPFvkcx7aFuFkYq5Hwm3Qwk
BdlSxuy/tXesoaCxDlwpE+uKJfZPTJcxpseKzT54u1aQfS3M/JOGpW61s23QOAoW
D1c9n6r2r0PhU2dju82CIrSAhFKXsvct7WhI6AuMKC8FYc7PCgTC3zqdgBQ=
-----END CERTIFICATE-----
