Certificate:
    Data:
        Version: 3 (0x2)
        Serial Number: 794 (0x31a)
    Signature Algorithm: sha1WithRSAEncryption
        Issuer: C=US, ST=CA, L=SanFrancisco, O=Pixglo, Inc., OU=VPN-CIE, CN=tunnel.pixglo.com/name=Bala Chandrasekaran/emailAddress=bala@pixglo.com
        Validity
            Not Before: Feb 14 06:43:47 2018 GMT
            Not After : Feb 12 06:43:47 2028 GMT
        Subject: C=US, ST=CA, L=SanFrancisco, O=Pixglo, Inc., OU=VPN-CIE, CN=cie793/name=Bala Chandrasekaran/emailAddress=bala@pixglo.com
        Subject Public Key Info:
            Public Key Algorithm: rsaEncryption
                Public-Key: (4096 bit)
                Modulus:
                    00:af:71:85:da:b1:c3:9a:8c:7c:91:c2:d4:d7:18:
                    20:d2:a5:47:14:23:d8:af:09:45:b6:41:8f:f4:76:
                    9c:0c:9a:95:63:d1:b3:75:9a:42:8a:71:de:10:7a:
                    0c:bc:ff:c5:e1:28:64:ba:1d:15:a1:d6:32:22:db:
                    6b:54:52:a5:4a:04:4a:5f:77:b2:07:69:3a:69:40:
                    0a:99:af:f0:77:12:bd:78:77:6f:f2:43:f1:d2:93:
                    fc:3a:a7:39:1d:b7:16:f8:8a:3a:29:67:d4:a7:7b:
                    62:87:75:b2:21:f5:e5:7c:16:49:09:00:82:9b:08:
                    44:52:72:cf:ad:d1:4a:fe:b5:e7:5b:05:55:6c:76:
                    05:58:02:ce:83:a1:59:7b:66:47:cc:1d:fc:97:81:
                    b7:be:7b:52:d0:e1:3e:c4:93:0c:65:98:98:ad:cc:
                    68:8a:82:8f:af:3b:d5:ff:e2:f1:5f:1b:65:9e:0e:
                    96:ed:e9:c9:1f:e2:99:20:5f:7a:87:20:66:a0:0a:
                    68:b9:d5:68:a2:f1:d7:5d:52:4f:45:2e:f7:da:60:
                    12:e4:e7:3c:1c:24:8f:db:93:68:c4:65:84:67:30:
                    fe:77:c3:9f:b5:46:48:cd:ed:e0:8d:ba:8a:34:fb:
                    a2:47:ac:9b:0a:58:84:72:78:6a:71:e4:9f:30:39:
                    60:4c:63:0c:41:b2:07:c7:d6:69:55:f6:db:ef:74:
                    4b:2e:90:0d:dc:b6:01:90:a8:78:83:10:55:30:6e:
                    3f:1e:5b:c9:1b:bb:a0:4c:f5:ec:52:ea:c4:ee:39:
                    76:8a:1f:19:44:ce:1b:67:0d:52:6f:b5:13:a1:6b:
                    32:79:1c:71:a4:03:08:d3:ee:50:55:b3:2e:d5:a3:
                    32:51:80:c2:d1:c2:c9:ab:d6:be:3c:97:92:91:15:
                    1c:f7:c4:4e:7e:69:b3:d1:89:b2:9e:e5:fd:75:b4:
                    58:98:7d:25:f2:b4:d4:76:39:d3:17:b1:de:23:1f:
                    15:fd:cc:15:4f:ff:85:c4:8f:10:67:6f:0b:c4:f5:
                    50:60:7f:a4:55:2e:da:d2:52:ee:c0:59:41:3c:cc:
                    8d:4e:46:81:cf:9e:3b:64:cf:02:02:9d:c9:50:1d:
                    e1:e0:ef:b1:b6:f0:24:a5:2d:99:94:88:2b:b5:32:
                    8b:ff:88:c6:9c:ad:b0:0c:11:13:eb:6a:fc:6c:f0:
                    db:97:14:78:2b:ef:8e:3b:a2:8a:17:92:39:78:b0:
                    a1:56:9a:42:0c:9c:d6:a5:c0:d4:e9:f6:f9:bb:fa:
                    01:ff:dc:ab:40:b4:f8:fa:c4:2e:ef:af:ee:a2:a3:
                    1c:d7:f2:2b:db:66:f0:f1:20:34:37:c3:d9:b3:93:
                    5b:04:61
                Exponent: 65537 (0x10001)
        X509v3 extensions:
            X509v3 Basic Constraints: 
                CA:FALSE
            Netscape Comment: 
                Easy-RSA Generated Certificate
            X509v3 Subject Key Identifier: 
                99:0F:73:36:EF:23:61:B0:04:17:89:C6:A4:33:90:46:9D:77:B2:03
            X509v3 Authority Key Identifier: 
                keyid:EF:38:8D:14:50:58:A7:5B:4D:9C:17:72:FC:DF:B9:AC:A7:51:B0:10
                DirName:/C=US/ST=CA/L=SanFrancisco/O=Pixglo, Inc./OU=VPN-CIE/CN=tunnel.pixglo.com/name=Bala Chandrasekaran/emailAddress=bala@pixglo.com
                serial:A6:DB:C6:83:80:E6:A0:79

            X509v3 Extended Key Usage: 
                TLS Web Client Authentication
            X509v3 Key Usage: 
                Digital Signature
    Signature Algorithm: sha1WithRSAEncryption
         3f:7c:38:e8:7f:5b:0a:6e:9e:d2:bf:7c:ea:eb:dc:f8:20:82:
         55:e9:c7:de:0b:d8:27:92:ed:84:3a:ce:4d:76:c7:44:a9:40:
         fc:30:ef:fd:5b:e8:a7:34:d1:e8:f4:b0:7f:17:79:9d:c6:36:
         86:1e:bd:9e:7c:64:11:c5:5f:df:91:c0:52:01:88:03:2e:2b:
         27:be:1b:cc:7a:66:00:41:21:95:63:36:37:c5:fc:c6:bc:0b:
         f6:e3:13:60:fb:ca:b5:d6:a4:75:ca:c9:ef:c5:cd:02:a3:1e:
         f4:03:d0:0b:90:20:de:ed:5a:8b:65:6b:a1:8d:72:22:89:53:
         47:ed:b0:d0:6b:c4:76:5f:9a:1d:1b:b8:61:c9:c9:50:bb:cd:
         04:c0:33:6c:93:20:e8:59:d7:2d:c9:42:35:b8:24:e1:c9:72:
         03:7b:92:28:74:a4:f4:d0:ce:5b:4c:80:45:5b:56:72:6d:46:
         8c:3f:3f:81:bb:a2:00:0d:a9:33:ec:17:d2:9d:2c:34:e0:40:
         39:6e:28:49:b0:29:f4:4d:51:0a:c9:7a:7d:00:07:de:9b:35:
         f7:c1:cc:bd:5b:51:9d:5a:f5:76:73:70:b7:a1:26:30:f3:12:
         27:c0:40:81:2f:53:e1:d8:47:9b:15:ef:43:45:0a:89:b3:59:
         7e:6e:bd:3e:be:ef:65:51:29:29:8f:9a:fa:95:20:ae:02:e9:
         92:f6:56:56:c0:15:5d:25:3f:ef:94:b0:1c:6d:ac:d4:d8:47:
         35:91:1e:f9:a9:f9:cd:c9:59:27:0d:1f:8c:63:b4:07:4e:18:
         d2:34:f0:0f:c5:0e:3d:97:b0:a1:3b:24:ec:fc:79:53:fa:3a:
         47:b7:42:91:f1:6a:59:3b:cf:89:04:34:8c:9c:0b:80:99:27:
         03:dc:c9:c4:3e:65:1a:a7:1a:9b:72:ac:ea:3a:23:cb:39:c8:
         24:30:a5:1e:a9:71:09:ca:7a:1f:9d:1c:7f:b6:92:09:61:6a:
         00:5b:cc:eb:7d:a3:5e:fc:5b:5b:59:95:16:6f:b4:a7:8e:7b:
         6e:db:06:33:24:6c:cb:3a:51:7b:32:b9:fc:2e:49:cf:0c:c0:
         53:6e:f1:dd:c4:6e:5f:19:51:bc:2b:c8:0c:02:47:fa:2c:09:
         e9:d9:5d:9f:88:c7:b7:4a:9f:c1:c7:79:f0:6d:7e:23:0f:13:
         39:0c:bc:82:b6:09:a2:c8:bf:17:ad:48:f4:71:56:64:d3:de:
         85:f7:59:19:c6:c4:b7:9f:c1:8d:51:a1:9d:dc:09:4b:50:db:
         3c:37:38:9c:26:8b:fb:34:1d:d6:5b:cb:cc:4c:71:0e:45:91:
         f5:44:13:de:44:fd:88:99
-----BEGIN CERTIFICATE-----
MIIHSDCCBTCgAwIBAgICAxowDQYJKoZIhvcNAQEFBQAwgbQxCzAJBgNVBAYTAlVT
MQswCQYDVQQIEwJDQTEVMBMGA1UEBxMMU2FuRnJhbmNpc2NvMRUwEwYDVQQKEwxQ
aXhnbG8sIEluYy4xEDAOBgNVBAsTB1ZQTi1DSUUxGjAYBgNVBAMTEXR1bm5lbC5w
aXhnbG8uY29tMRwwGgYDVQQpExNCYWxhIENoYW5kcmFzZWthcmFuMR4wHAYJKoZI
hvcNAQkBFg9iYWxhQHBpeGdsby5jb20wHhcNMTgwMjE0MDY0MzQ3WhcNMjgwMjEy
MDY0MzQ3WjCBqTELMAkGA1UEBhMCVVMxCzAJBgNVBAgTAkNBMRUwEwYDVQQHEwxT
YW5GcmFuY2lzY28xFTATBgNVBAoTDFBpeGdsbywgSW5jLjEQMA4GA1UECxMHVlBO
LUNJRTEPMA0GA1UEAxMGY2llNzkzMRwwGgYDVQQpExNCYWxhIENoYW5kcmFzZWth
cmFuMR4wHAYJKoZIhvcNAQkBFg9iYWxhQHBpeGdsby5jb20wggIiMA0GCSqGSIb3
DQEBAQUAA4ICDwAwggIKAoICAQCvcYXascOajHyRwtTXGCDSpUcUI9ivCUW2QY/0
dpwMmpVj0bN1mkKKcd4Qegy8/8XhKGS6HRWh1jIi22tUUqVKBEpfd7IHaTppQAqZ
r/B3Er14d2/yQ/HSk/w6pzkdtxb4ijopZ9Sne2KHdbIh9eV8FkkJAIKbCERScs+t
0Ur+tedbBVVsdgVYAs6DoVl7ZkfMHfyXgbe+e1LQ4T7EkwxlmJitzGiKgo+vO9X/
4vFfG2WeDpbt6ckf4pkgX3qHIGagCmi51Wii8dddUk9FLvfaYBLk5zwcJI/bk2jE
ZYRnMP53w5+1RkjN7eCNuoo0+6JHrJsKWIRyeGpx5J8wOWBMYwxBsgfH1mlV9tvv
dEsukA3ctgGQqHiDEFUwbj8eW8kbu6BM9exS6sTuOXaKHxlEzhtnDVJvtROhazJ5
HHGkAwjT7lBVsy7VozJRgMLRwsmr1r48l5KRFRz3xE5+abPRibKe5f11tFiYfSXy
tNR2OdMXsd4jHxX9zBVP/4XEjxBnbwvE9VBgf6RVLtrSUu7AWUE8zI1ORoHPnjtk
zwICnclQHeHg77G28CSlLZmUiCu1Mov/iMacrbAMERPravxs8NuXFHgr7447oooX
kjl4sKFWmkIMnNalwNTp9vm7+gH/3KtAtPj6xC7vr+6ioxzX8ivbZvDxIDQ3w9mz
k1sEYQIDAQABo4IBazCCAWcwCQYDVR0TBAIwADAtBglghkgBhvhCAQ0EIBYeRWFz
eS1SU0EgR2VuZXJhdGVkIENlcnRpZmljYXRlMB0GA1UdDgQWBBSZD3M27yNhsAQX
icakM5BGnXeyAzCB6QYDVR0jBIHhMIHegBTvOI0UUFinW02cF3L837msp1GwEKGB
uqSBtzCBtDELMAkGA1UEBhMCVVMxCzAJBgNVBAgTAkNBMRUwEwYDVQQHEwxTYW5G
cmFuY2lzY28xFTATBgNVBAoTDFBpeGdsbywgSW5jLjEQMA4GA1UECxMHVlBOLUNJ
RTEaMBgGA1UEAxMRdHVubmVsLnBpeGdsby5jb20xHDAaBgNVBCkTE0JhbGEgQ2hh
bmRyYXNla2FyYW4xHjAcBgkqhkiG9w0BCQEWD2JhbGFAcGl4Z2xvLmNvbYIJAKbb
xoOA5qB5MBMGA1UdJQQMMAoGCCsGAQUFBwMCMAsGA1UdDwQEAwIHgDANBgkqhkiG
9w0BAQUFAAOCAgEAP3w46H9bCm6e0r986uvc+CCCVenH3gvYJ5LthDrOTXbHRKlA
/DDv/VvopzTR6PSwfxd5ncY2hh69nnxkEcVf35HAUgGIAy4rJ74bzHpmAEEhlWM2
N8X8xrwL9uMTYPvKtdakdcrJ78XNAqMe9APQC5Ag3u1ai2VroY1yIolTR+2w0GvE
dl+aHRu4YcnJULvNBMAzbJMg6FnXLclCNbgk4clyA3uSKHSk9NDOW0yARVtWcm1G
jD8/gbuiAA2pM+wX0p0sNOBAOW4oSbAp9E1RCsl6fQAH3ps198HMvVtRnVr1dnNw
t6EmMPMSJ8BAgS9T4dhHmxXvQ0UKibNZfm69Pr7vZVEpKY+a+pUgrgLpkvZWVsAV
XSU/75SwHG2s1NhHNZEe+an5zclZJw0fjGO0B04Y0jTwD8UOPZewoTsk7Px5U/o6
R7dCkfFqWTvPiQQ0jJwLgJknA9zJxD5lGqcam3Ks6jojyznIJDClHqlxCcp6H50c
f7aSCWFqAFvM632jXvxbW1mVFm+0p457btsGMyRsyzpRezK5/C5JzwzAU27x3cRu
XxlRvCvIDAJH+iwJ6dldn4jHt0qfwcd58G1+Iw8TOQy8grYJosi/F61I9HFWZNPe
hfdZGcbEt5/BjVGhndwJS1DbPDc4nCaL+zQd1lvLzExxDkWR9UQT3kT9iJk=
-----END CERTIFICATE-----
