Certificate:
    Data:
        Version: 3 (0x2)
        Serial Number: 798 (0x31e)
    Signature Algorithm: sha1WithRSAEncryption
        Issuer: C=US, ST=CA, L=SanFrancisco, O=Pixglo, Inc., OU=VPN-CIE, CN=tunnel.pixglo.com/name=Bala Chandrasekaran/emailAddress=bala@pixglo.com
        Validity
            Not Before: Feb 14 06:43:52 2018 GMT
            Not After : Feb 12 06:43:52 2028 GMT
        Subject: C=US, ST=CA, L=SanFrancisco, O=Pixglo, Inc., OU=VPN-CIE, CN=cie797/name=Bala Chandrasekaran/emailAddress=bala@pixglo.com
        Subject Public Key Info:
            Public Key Algorithm: rsaEncryption
                Public-Key: (4096 bit)
                Modulus:
                    00:d3:5a:2b:90:71:ba:ab:16:42:ef:f3:2e:34:b4:
                    00:e1:2a:ae:65:fa:57:06:ba:c5:93:ad:42:2e:ff:
                    b1:d0:dc:6c:1e:1e:bb:b3:76:1e:63:1e:6b:3e:17:
                    76:e9:a9:ec:0d:c1:fd:41:88:bf:10:47:a9:de:fe:
                    8b:63:fc:c2:1f:f4:f5:13:6e:43:a3:fb:88:59:37:
                    a1:2f:4c:da:cc:a9:d2:3a:06:63:9f:0d:11:a5:9f:
                    d8:ba:c0:ef:3d:15:ac:5f:c9:e0:86:ce:05:52:b6:
                    c8:4d:61:bb:90:7d:3c:6b:cb:23:39:1c:74:35:6b:
                    9d:0b:b1:36:16:6f:f5:4b:3d:a0:a3:54:35:14:c4:
                    38:0e:c6:59:00:73:f2:14:f6:e5:a9:93:e4:d7:13:
                    0a:d7:41:53:15:8d:74:f6:be:d8:ed:cb:d1:b4:30:
                    74:6e:0e:40:07:5a:d1:c0:cc:35:70:b9:eb:84:af:
                    c5:ae:4e:77:e2:da:4c:73:c8:26:39:1f:9e:1c:91:
                    37:73:69:a0:31:92:ac:ee:58:0e:91:0e:dc:7e:bf:
                    1a:fd:91:86:0c:0d:71:5b:d9:54:4a:3c:7f:1e:35:
                    4e:4e:5b:b5:f6:7d:d9:27:98:9f:1d:d9:6d:8f:5a:
                    de:0c:15:88:d0:24:2b:2c:2a:6e:e8:d0:1d:d8:60:
                    b9:15:cf:20:cd:6a:4c:08:31:37:ff:69:c4:d1:7f:
                    af:4e:6c:37:63:c0:c1:24:1a:9a:2d:36:64:27:05:
                    53:70:53:6b:52:37:24:69:f1:07:bf:8d:b1:e3:52:
                    22:fa:df:2f:e9:f3:e4:41:b9:c4:22:f4:eb:e1:6f:
                    94:10:43:60:2e:5a:67:30:8a:19:1e:ec:3c:77:09:
                    f6:c1:43:55:4a:05:0b:15:3c:62:c0:ae:2b:ce:6d:
                    53:a6:90:7b:2f:55:21:cb:68:eb:d3:f5:87:f1:d1:
                    2b:5c:1c:26:eb:4c:f5:47:ca:54:63:51:af:a6:30:
                    af:b9:97:c8:15:1b:92:dc:9e:2f:89:23:4b:a8:cc:
                    6e:0e:e3:21:bd:57:cc:3b:f0:2a:71:7e:cc:c0:42:
                    eb:bf:15:93:9f:3b:5a:b1:9c:7d:02:cd:bc:98:17:
                    da:09:08:c2:a5:f1:33:7e:95:c8:b2:5f:e6:13:4f:
                    0f:69:ba:29:3b:1e:30:8c:4d:86:8a:f5:7b:31:57:
                    33:33:31:50:b7:a9:c7:f2:fe:31:0e:06:06:ea:8c:
                    74:25:83:d0:89:cb:e6:63:d4:b6:5b:6e:16:ce:f0:
                    dd:77:ff:79:d4:c7:56:e7:79:d2:db:60:0d:83:9b:
                    b2:7d:c5:5f:8a:67:76:ae:c8:4a:3a:dd:d2:f7:a7:
                    3b:d2:0b
                Exponent: 65537 (0x10001)
        X509v3 extensions:
            X509v3 Basic Constraints: 
                CA:FALSE
            Netscape Comment: 
                Easy-RSA Generated Certificate
            X509v3 Subject Key Identifier: 
                F1:D7:18:A8:D9:3F:B9:DC:5D:70:42:29:31:25:87:DF:AD:54:D0:9D
            X509v3 Authority Key Identifier: 
                keyid:EF:38:8D:14:50:58:A7:5B:4D:9C:17:72:FC:DF:B9:AC:A7:51:B0:10
                DirName:/C=US/ST=CA/L=SanFrancisco/O=Pixglo, Inc./OU=VPN-CIE/CN=tunnel.pixglo.com/name=Bala Chandrasekaran/emailAddress=bala@pixglo.com
                serial:A6:DB:C6:83:80:E6:A0:79

            X509v3 Extended Key Usage: 
                TLS Web Client Authentication
            X509v3 Key Usage: 
                Digital Signature
    Signature Algorithm: sha1WithRSAEncryption
         3d:e9:d5:57:eb:42:4e:ff:65:38:2c:cc:9b:e9:ab:f3:98:15:
         1a:26:68:65:6b:8b:e4:fe:d0:01:82:95:57:2d:be:0a:3d:0e:
         4d:6c:e0:87:c4:f1:45:4c:b4:55:b2:42:2e:01:54:d0:e2:27:
         76:35:4d:e2:ac:a6:43:e9:24:66:6a:6b:e2:40:6d:96:a8:48:
         9d:25:e2:96:45:1c:57:66:fb:2b:15:fe:af:a0:54:16:f1:5a:
         04:ac:d3:4f:62:c2:2b:ad:3b:62:cd:8e:cb:18:ae:d2:d4:39:
         a7:81:6c:0a:bb:7e:71:d2:16:b5:47:89:13:eb:43:a3:0e:aa:
         c2:2f:4a:4c:e3:41:b7:71:09:5e:e2:0d:0c:da:57:55:7b:bd:
         16:2e:4a:ef:38:3c:ad:a0:1e:66:8a:46:48:e5:58:58:5d:14:
         1e:91:d7:83:b6:25:5c:87:05:61:ad:26:81:fd:8e:31:51:55:
         3c:51:7c:3a:24:46:71:b0:43:0d:b2:de:f9:ac:b7:17:d8:23:
         d4:2a:57:5e:30:be:ad:a0:78:99:2a:88:86:6f:c6:67:65:c9:
         f8:85:86:32:24:67:3f:18:32:aa:42:24:8a:30:16:5b:cc:a4:
         2b:39:e4:f7:5f:d2:53:e1:9d:43:81:04:61:df:d6:f0:4e:65:
         7b:b1:9a:03:4d:75:fc:7f:f7:37:a9:c3:fb:f6:51:3e:24:3a:
         bd:7c:05:54:5a:85:df:67:80:a6:e8:ce:e1:7c:b0:92:60:d0:
         43:1f:d9:94:b6:a8:47:27:28:91:f3:3e:39:e5:43:5a:9c:41:
         e6:8f:4c:6a:9a:ed:77:4d:9a:5f:d8:b7:fe:95:79:04:a5:b2:
         89:56:be:74:ec:b8:f1:e3:9f:06:17:3e:c2:94:00:67:cf:91:
         af:ac:86:1f:9a:5d:78:f3:4f:5b:77:56:10:3f:13:46:b1:87:
         06:da:e2:9d:af:e5:a9:36:5b:42:f3:b6:a9:4d:58:f7:eb:7c:
         d2:7d:2f:07:3e:cd:60:c7:23:fb:1a:d6:ef:d6:58:08:84:a1:
         25:42:86:f3:b7:16:01:2d:18:d8:04:95:84:ff:97:03:8e:d7:
         0e:7f:d7:67:c0:eb:0d:36:51:91:07:dc:d5:59:99:57:b8:af:
         fe:b9:cd:ee:1e:a5:b7:c4:63:b0:a3:5d:e9:32:08:43:1b:8d:
         8b:13:83:af:fc:d1:35:86:73:8b:f3:ca:93:b0:d1:57:e9:32:
         50:c5:46:8e:3c:f9:46:5e:b9:ba:22:5b:4c:8c:45:b0:70:cc:
         ac:bf:7b:2b:f2:1c:de:e4:3b:9c:19:f9:b0:b1:2e:9e:c7:ad:
         ab:87:1d:f6:5c:d9:38:d7
-----BEGIN CERTIFICATE-----
MIIHSDCCBTCgAwIBAgICAx4wDQYJKoZIhvcNAQEFBQAwgbQxCzAJBgNVBAYTAlVT
MQswCQYDVQQIEwJDQTEVMBMGA1UEBxMMU2FuRnJhbmNpc2NvMRUwEwYDVQQKEwxQ
aXhnbG8sIEluYy4xEDAOBgNVBAsTB1ZQTi1DSUUxGjAYBgNVBAMTEXR1bm5lbC5w
aXhnbG8uY29tMRwwGgYDVQQpExNCYWxhIENoYW5kcmFzZWthcmFuMR4wHAYJKoZI
hvcNAQkBFg9iYWxhQHBpeGdsby5jb20wHhcNMTgwMjE0MDY0MzUyWhcNMjgwMjEy
MDY0MzUyWjCBqTELMAkGA1UEBhMCVVMxCzAJBgNVBAgTAkNBMRUwEwYDVQQHEwxT
YW5GcmFuY2lzY28xFTATBgNVBAoTDFBpeGdsbywgSW5jLjEQMA4GA1UECxMHVlBO
LUNJRTEPMA0GA1UEAxMGY2llNzk3MRwwGgYDVQQpExNCYWxhIENoYW5kcmFzZWth
cmFuMR4wHAYJKoZIhvcNAQkBFg9iYWxhQHBpeGdsby5jb20wggIiMA0GCSqGSIb3
DQEBAQUAA4ICDwAwggIKAoICAQDTWiuQcbqrFkLv8y40tADhKq5l+lcGusWTrUIu
/7HQ3GweHruzdh5jHms+F3bpqewNwf1BiL8QR6ne/otj/MIf9PUTbkOj+4hZN6Ev
TNrMqdI6BmOfDRGln9i6wO89FaxfyeCGzgVStshNYbuQfTxryyM5HHQ1a50LsTYW
b/VLPaCjVDUUxDgOxlkAc/IU9uWpk+TXEwrXQVMVjXT2vtjty9G0MHRuDkAHWtHA
zDVwueuEr8WuTnfi2kxzyCY5H54ckTdzaaAxkqzuWA6RDtx+vxr9kYYMDXFb2VRK
PH8eNU5OW7X2fdknmJ8d2W2PWt4MFYjQJCssKm7o0B3YYLkVzyDNakwIMTf/acTR
f69ObDdjwMEkGpotNmQnBVNwU2tSNyRp8Qe/jbHjUiL63y/p8+RBucQi9Ovhb5QQ
Q2AuWmcwihke7Dx3CfbBQ1VKBQsVPGLArivObVOmkHsvVSHLaOvT9Yfx0StcHCbr
TPVHylRjUa+mMK+5l8gVG5Lcni+JI0uozG4O4yG9V8w78CpxfszAQuu/FZOfO1qx
nH0CzbyYF9oJCMKl8TN+lciyX+YTTw9puik7HjCMTYaK9XsxVzMzMVC3qcfy/jEO
BgbqjHQlg9CJy+Zj1LZbbhbO8N13/3nUx1bnedLbYA2Dm7J9xV+KZ3auyEo63dL3
pzvSCwIDAQABo4IBazCCAWcwCQYDVR0TBAIwADAtBglghkgBhvhCAQ0EIBYeRWFz
eS1SU0EgR2VuZXJhdGVkIENlcnRpZmljYXRlMB0GA1UdDgQWBBTx1xio2T+53F1w
QikxJYffrVTQnTCB6QYDVR0jBIHhMIHegBTvOI0UUFinW02cF3L837msp1GwEKGB
uqSBtzCBtDELMAkGA1UEBhMCVVMxCzAJBgNVBAgTAkNBMRUwEwYDVQQHEwxTYW5G
cmFuY2lzY28xFTATBgNVBAoTDFBpeGdsbywgSW5jLjEQMA4GA1UECxMHVlBOLUNJ
RTEaMBgGA1UEAxMRdHVubmVsLnBpeGdsby5jb20xHDAaBgNVBCkTE0JhbGEgQ2hh
bmRyYXNla2FyYW4xHjAcBgkqhkiG9w0BCQEWD2JhbGFAcGl4Z2xvLmNvbYIJAKbb
xoOA5qB5MBMGA1UdJQQMMAoGCCsGAQUFBwMCMAsGA1UdDwQEAwIHgDANBgkqhkiG
9w0BAQUFAAOCAgEAPenVV+tCTv9lOCzMm+mr85gVGiZoZWuL5P7QAYKVVy2+Cj0O
TWzgh8TxRUy0VbJCLgFU0OIndjVN4qymQ+kkZmpr4kBtlqhInSXilkUcV2b7KxX+
r6BUFvFaBKzTT2LCK607Ys2Oyxiu0tQ5p4FsCrt+cdIWtUeJE+tDow6qwi9KTONB
t3EJXuINDNpXVXu9Fi5K7zg8raAeZopGSOVYWF0UHpHXg7YlXIcFYa0mgf2OMVFV
PFF8OiRGcbBDDbLe+ay3F9gj1CpXXjC+raB4mSqIhm/GZ2XJ+IWGMiRnPxgyqkIk
ijAWW8ykKznk91/SU+GdQ4EEYd/W8E5le7GaA011/H/3N6nD+/ZRPiQ6vXwFVFqF
32eApujO4XywkmDQQx/ZlLaoRycokfM+OeVDWpxB5o9Maprtd02aX9i3/pV5BKWy
iVa+dOy48eOfBhc+wpQAZ8+Rr6yGH5pdePNPW3dWED8TRrGHBtrina/lqTZbQvO2
qU1Y9+t80n0vBz7NYMcj+xrW79ZYCIShJUKG87cWAS0Y2ASVhP+XA47XDn/XZ8Dr
DTZRkQfc1VmZV7iv/rnN7h6lt8RjsKNd6TIIQxuNixODr/zRNYZzi/PKk7DRV+ky
UMVGjjz5Rl65uiJbTIxFsHDMrL97K/Ic3uQ7nBn5sLEunsetq4cd9lzZONc=
-----END CERTIFICATE-----
