Certificate:
    Data:
        Version: 3 (0x2)
        Serial Number: 737 (0x2e1)
    Signature Algorithm: sha1WithRSAEncryption
        Issuer: C=US, ST=CA, L=SanFrancisco, O=Pixglo, Inc., OU=VPN-CIE, CN=tunnel.pixglo.com/name=Bala Chandrasekaran/emailAddress=bala@pixglo.com
        Validity
            Not Before: Feb 14 06:41:54 2018 GMT
            Not After : Feb 12 06:41:54 2028 GMT
        Subject: C=US, ST=CA, L=SanFrancisco, O=Pixglo, Inc., OU=VPN-CIE, CN=cie736/name=Bala Chandrasekaran/emailAddress=bala@pixglo.com
        Subject Public Key Info:
            Public Key Algorithm: rsaEncryption
                Public-Key: (4096 bit)
                Modulus:
                    00:ba:0b:76:ec:ed:4e:ba:ed:7b:c2:71:2e:7d:25:
                    6d:5e:f8:8a:a4:d8:57:2b:d0:c4:8a:4d:af:6c:6a:
                    e4:07:b6:b4:13:41:50:ef:c5:ce:5b:ca:7e:f0:be:
                    39:dc:a1:5a:df:da:77:46:e7:12:d1:e8:b1:63:af:
                    69:13:f8:0d:98:99:b9:cb:c0:2b:59:5e:a6:9a:ec:
                    28:ca:69:f8:1b:84:58:9f:25:69:cb:d6:96:ee:da:
                    95:53:95:1d:35:f7:e8:fa:dd:03:01:8e:b7:04:ed:
                    20:c3:fe:ac:e6:83:3d:1b:1a:72:fa:9a:d4:34:f0:
                    96:0d:85:3d:0c:20:5c:3f:51:df:01:db:c3:64:9a:
                    68:cc:ee:aa:23:ac:7e:81:2e:01:20:c9:dc:b2:7d:
                    2a:c6:91:24:38:73:29:47:05:87:16:6b:2c:79:e6:
                    94:2f:ca:0e:15:04:d1:82:7f:6a:73:0b:c9:45:45:
                    80:73:c8:3c:ad:0e:04:c2:d4:dc:dd:10:f8:90:d8:
                    99:77:de:84:e5:57:cb:f6:31:75:93:02:3b:ff:ed:
                    5d:42:f3:9c:ec:09:99:e8:87:ec:13:07:9c:9d:dd:
                    d0:2b:ec:32:5f:fc:2f:a8:63:63:3f:ed:99:23:34:
                    a2:6e:99:6e:b0:c3:4c:cf:aa:fc:79:bc:31:aa:28:
                    cb:f8:a1:0d:3c:61:3d:4d:b4:44:95:4a:5d:07:20:
                    ef:17:d9:f0:4d:1d:e0:89:71:8b:73:42:52:77:2a:
                    80:cb:03:48:3d:34:a7:30:ea:35:c0:ca:e6:58:6f:
                    29:27:6e:c7:9f:f7:1a:c5:f9:61:d7:0b:47:f6:d3:
                    0c:ee:9e:26:1a:83:11:4e:7a:2b:c5:12:08:1f:4a:
                    8c:0e:ef:ed:00:13:9d:30:b9:9a:1c:ff:d9:e6:1e:
                    a7:a3:b2:f4:64:b2:15:24:9b:7e:61:b8:37:d0:f8:
                    c9:e7:57:ac:c1:49:fe:bf:c8:bf:ba:2b:d5:3b:23:
                    62:da:88:f5:f2:83:34:29:1e:a1:b8:cc:c6:65:8a:
                    82:28:8f:e6:85:6b:35:41:8d:29:2f:ae:f9:66:ad:
                    be:d5:97:10:f4:0f:6e:4a:5d:c4:6b:8e:f7:15:a8:
                    5f:8a:a1:42:ea:d9:8f:c9:19:81:bf:4d:0b:4d:00:
                    9c:18:c3:1b:e1:68:3b:69:5c:b7:5f:14:d3:17:43:
                    62:f4:01:2d:fb:bc:04:64:1f:e1:45:6b:ee:f7:b4:
                    0f:a1:8e:89:5c:b5:75:b9:a0:76:50:c8:1c:e9:52:
                    92:5f:57:ae:05:14:f5:a5:c2:7e:a2:93:9f:43:52:
                    4a:7f:0b:6b:54:64:40:15:c8:0a:25:cb:01:07:71:
                    63:74:d9
                Exponent: 65537 (0x10001)
        X509v3 extensions:
            X509v3 Basic Constraints: 
                CA:FALSE
            Netscape Comment: 
                Easy-RSA Generated Certificate
            X509v3 Subject Key Identifier: 
                5E:7E:D6:F3:42:15:29:03:A7:DB:CC:49:82:81:9F:E9:BC:54:F9:F4
            X509v3 Authority Key Identifier: 
                keyid:EF:38:8D:14:50:58:A7:5B:4D:9C:17:72:FC:DF:B9:AC:A7:51:B0:10
                DirName:/C=US/ST=CA/L=SanFrancisco/O=Pixglo, Inc./OU=VPN-CIE/CN=tunnel.pixglo.com/name=Bala Chandrasekaran/emailAddress=bala@pixglo.com
                serial:A6:DB:C6:83:80:E6:A0:79

            X509v3 Extended Key Usage: 
                TLS Web Client Authentication
            X509v3 Key Usage: 
                Digital Signature
    Signature Algorithm: sha1WithRSAEncryption
         c2:c4:e8:df:99:b9:23:2f:f6:9c:60:b3:25:7a:35:e3:ca:6a:
         bc:2f:73:2c:2a:e2:0c:92:7e:af:8b:5f:94:8c:5a:30:0d:ea:
         7e:e0:19:05:6c:db:38:06:85:7f:8d:95:99:ca:05:e0:fd:76:
         2c:ec:5e:75:40:f7:8d:41:c2:71:97:76:1f:8d:40:31:d0:56:
         97:99:47:50:cd:b1:71:c3:9b:74:ad:29:0a:8a:88:d1:03:2e:
         9f:db:4f:19:1b:74:93:16:bc:bc:bf:3b:de:04:cd:c0:9b:bf:
         dd:cd:09:08:b7:bd:2c:75:b1:41:3e:cc:74:15:45:4d:4e:b4:
         cf:63:05:4e:77:9e:75:0b:2d:1b:e4:0d:d7:ee:ec:80:71:93:
         72:df:1c:1d:99:51:a2:3a:3a:b8:63:27:02:b1:9e:d5:08:8d:
         19:f8:a6:27:b7:e0:37:51:6d:93:ec:09:73:6d:de:91:77:b6:
         9d:6a:e6:c9:75:cb:42:2f:b8:89:c9:6a:95:3a:02:bb:c6:56:
         73:bc:47:6c:de:42:fd:a4:72:23:cc:03:85:7f:52:03:5d:3e:
         4e:07:66:92:2b:ad:70:ec:48:f2:5e:79:a5:cd:90:e8:82:e6:
         34:11:33:3b:66:3f:17:e3:c6:7d:42:83:fd:ed:4c:09:74:de:
         9d:af:62:a9:ec:be:89:0a:a8:0b:4d:f5:9d:1e:14:23:16:3d:
         4b:bc:1b:d1:12:17:97:96:61:3f:b5:64:f3:ec:94:19:9a:0e:
         dd:52:d5:76:62:c3:04:da:04:f3:d6:ff:5b:89:0e:74:7a:c8:
         e4:3d:71:8e:b6:88:44:c1:20:81:99:1f:3a:9d:10:96:5a:6c:
         ae:55:7d:c7:04:59:7b:f7:c5:e6:5e:74:f9:13:82:46:84:5c:
         3e:ae:14:19:cd:8d:5c:df:98:09:e3:10:31:cd:06:1d:5a:53:
         bd:3e:bf:6f:91:ef:a8:c6:1c:d9:16:34:79:7d:55:e0:04:20:
         26:e7:3b:ff:c7:67:c4:59:bf:df:55:4d:a8:d2:08:7b:80:be:
         5c:93:91:fe:ad:d8:f4:b7:b6:6d:27:6e:12:bd:f6:2e:a6:c3:
         90:be:cb:9c:80:ad:e1:8a:7f:e1:b8:6d:93:99:e6:fb:ff:fc:
         3d:a6:0f:2f:42:f4:de:ee:2a:78:b8:df:0e:d4:70:50:55:d2:
         68:12:4a:1c:21:c3:2e:bb:7c:99:aa:3f:4d:2d:40:ae:15:b0:
         b1:fe:09:39:e6:5a:b2:be:d3:98:ef:2c:2e:5d:14:94:3d:1d:
         26:64:c6:96:24:40:d8:cd:54:fc:51:ac:0d:46:54:24:f1:71:
         d1:14:57:c2:ee:84:64:cd
-----BEGIN CERTIFICATE-----
MIIHSDCCBTCgAwIBAgICAuEwDQYJKoZIhvcNAQEFBQAwgbQxCzAJBgNVBAYTAlVT
MQswCQYDVQQIEwJDQTEVMBMGA1UEBxMMU2FuRnJhbmNpc2NvMRUwEwYDVQQKEwxQ
aXhnbG8sIEluYy4xEDAOBgNVBAsTB1ZQTi1DSUUxGjAYBgNVBAMTEXR1bm5lbC5w
aXhnbG8uY29tMRwwGgYDVQQpExNCYWxhIENoYW5kcmFzZWthcmFuMR4wHAYJKoZI
hvcNAQkBFg9iYWxhQHBpeGdsby5jb20wHhcNMTgwMjE0MDY0MTU0WhcNMjgwMjEy
MDY0MTU0WjCBqTELMAkGA1UEBhMCVVMxCzAJBgNVBAgTAkNBMRUwEwYDVQQHEwxT
YW5GcmFuY2lzY28xFTATBgNVBAoTDFBpeGdsbywgSW5jLjEQMA4GA1UECxMHVlBO
LUNJRTEPMA0GA1UEAxMGY2llNzM2MRwwGgYDVQQpExNCYWxhIENoYW5kcmFzZWth
cmFuMR4wHAYJKoZIhvcNAQkBFg9iYWxhQHBpeGdsby5jb20wggIiMA0GCSqGSIb3
DQEBAQUAA4ICDwAwggIKAoICAQC6C3bs7U667XvCcS59JW1e+Iqk2Fcr0MSKTa9s
auQHtrQTQVDvxc5byn7wvjncoVrf2ndG5xLR6LFjr2kT+A2YmbnLwCtZXqaa7CjK
afgbhFifJWnL1pbu2pVTlR019+j63QMBjrcE7SDD/qzmgz0bGnL6mtQ08JYNhT0M
IFw/Ud8B28NkmmjM7qojrH6BLgEgydyyfSrGkSQ4cylHBYcWayx55pQvyg4VBNGC
f2pzC8lFRYBzyDytDgTC1NzdEPiQ2Jl33oTlV8v2MXWTAjv/7V1C85zsCZnoh+wT
B5yd3dAr7DJf/C+oY2M/7ZkjNKJumW6ww0zPqvx5vDGqKMv4oQ08YT1NtESVSl0H
IO8X2fBNHeCJcYtzQlJ3KoDLA0g9NKcw6jXAyuZYbyknbsef9xrF+WHXC0f20wzu
niYagxFOeivFEggfSowO7+0AE50wuZoc/9nmHqejsvRkshUkm35huDfQ+MnnV6zB
Sf6/yL+6K9U7I2LaiPXygzQpHqG4zMZlioIoj+aFazVBjSkvrvlmrb7VlxD0D25K
XcRrjvcVqF+KoULq2Y/JGYG/TQtNAJwYwxvhaDtpXLdfFNMXQ2L0AS37vARkH+FF
a+73tA+hjolctXW5oHZQyBzpUpJfV64FFPWlwn6ik59DUkp/C2tUZEAVyAolywEH
cWN02QIDAQABo4IBazCCAWcwCQYDVR0TBAIwADAtBglghkgBhvhCAQ0EIBYeRWFz
eS1SU0EgR2VuZXJhdGVkIENlcnRpZmljYXRlMB0GA1UdDgQWBBReftbzQhUpA6fb
zEmCgZ/pvFT59DCB6QYDVR0jBIHhMIHegBTvOI0UUFinW02cF3L837msp1GwEKGB
uqSBtzCBtDELMAkGA1UEBhMCVVMxCzAJBgNVBAgTAkNBMRUwEwYDVQQHEwxTYW5G
cmFuY2lzY28xFTATBgNVBAoTDFBpeGdsbywgSW5jLjEQMA4GA1UECxMHVlBOLUNJ
RTEaMBgGA1UEAxMRdHVubmVsLnBpeGdsby5jb20xHDAaBgNVBCkTE0JhbGEgQ2hh
bmRyYXNla2FyYW4xHjAcBgkqhkiG9w0BCQEWD2JhbGFAcGl4Z2xvLmNvbYIJAKbb
xoOA5qB5MBMGA1UdJQQMMAoGCCsGAQUFBwMCMAsGA1UdDwQEAwIHgDANBgkqhkiG
9w0BAQUFAAOCAgEAwsTo35m5Iy/2nGCzJXo148pqvC9zLCriDJJ+r4tflIxaMA3q
fuAZBWzbOAaFf42VmcoF4P12LOxedUD3jUHCcZd2H41AMdBWl5lHUM2xccObdK0p
CoqI0QMun9tPGRt0kxa8vL873gTNwJu/3c0JCLe9LHWxQT7MdBVFTU60z2MFTnee
dQstG+QN1+7sgHGTct8cHZlRojo6uGMnArGe1QiNGfimJ7fgN1Ftk+wJc23ekXe2
nWrmyXXLQi+4iclqlToCu8ZWc7xHbN5C/aRyI8wDhX9SA10+TgdmkiutcOxI8l55
pc2Q6ILmNBEzO2Y/F+PGfUKD/e1MCXTena9iqey+iQqoC031nR4UIxY9S7wb0RIX
l5ZhP7Vk8+yUGZoO3VLVdmLDBNoE89b/W4kOdHrI5D1xjraIRMEggZkfOp0Qllps
rlV9xwRZe/fF5l50+ROCRoRcPq4UGc2NXN+YCeMQMc0GHVpTvT6/b5HvqMYc2RY0
eX1V4AQgJuc7/8dnxFm/31VNqNIIe4C+XJOR/q3Y9Le2bSduEr32LqbDkL7LnICt
4Yp/4bhtk5nm+//8PaYPL0L03u4qeLjfDtRwUFXSaBJKHCHDLrt8mao/TS1ArhWw
sf4JOeZasr7TmO8sLl0UlD0dJmTGliRA2M1U/FGsDUZUJPFx0RRXwu6EZM0=
-----END CERTIFICATE-----
