Certificate:
    Data:
        Version: 3 (0x2)
        Serial Number: 787 (0x313)
    Signature Algorithm: sha1WithRSAEncryption
        Issuer: C=US, ST=CA, L=SanFrancisco, O=Pixglo, Inc., OU=VPN-CIE, CN=tunnel.pixglo.com/name=Bala Chandrasekaran/emailAddress=bala@pixglo.com
        Validity
            Not Before: Feb 14 06:43:35 2018 GMT
            Not After : Feb 12 06:43:35 2028 GMT
        Subject: C=US, ST=CA, L=SanFrancisco, O=Pixglo, Inc., OU=VPN-CIE, CN=cie786/name=Bala Chandrasekaran/emailAddress=bala@pixglo.com
        Subject Public Key Info:
            Public Key Algorithm: rsaEncryption
                Public-Key: (4096 bit)
                Modulus:
                    00:c0:de:c3:8b:ba:cd:c0:83:52:18:ca:fd:a1:96:
                    17:20:8a:92:27:25:cb:c3:02:25:1b:68:90:24:5b:
                    13:7b:26:f9:d1:95:c6:d7:30:b9:7d:81:09:9f:b5:
                    1f:5e:74:25:74:11:7c:81:d8:20:4d:27:a0:d2:54:
                    c9:33:15:ea:f7:e5:33:a0:64:d7:2f:4e:eb:23:fb:
                    38:e5:75:89:b7:4d:b5:9c:68:f0:78:ff:45:60:5c:
                    f9:71:ee:7a:d5:fd:17:6c:2c:6b:56:5b:51:a8:ad:
                    b3:29:27:45:ac:04:16:65:bf:b7:10:c7:3d:d4:40:
                    fe:41:95:fd:39:fe:98:a4:6d:be:19:f7:37:d3:d1:
                    36:df:84:de:e1:87:7a:f5:44:81:c8:65:a4:e5:6b:
                    64:6c:25:76:0d:da:9c:87:d4:df:ab:f2:4e:bb:a5:
                    e2:80:20:df:a3:ef:46:ad:c1:28:d6:3a:c2:bb:fc:
                    4e:fd:c8:5f:05:bd:26:df:be:79:cd:03:a2:fc:59:
                    4e:7d:3d:aa:37:7d:72:89:ba:ff:3b:31:9d:76:a3:
                    04:64:3a:b1:d1:c6:d3:0d:0c:40:c8:c8:b7:eb:cb:
                    da:78:0f:f3:6b:8c:db:5b:77:2a:7e:43:18:82:35:
                    33:7e:86:18:48:37:95:68:91:b4:0e:bf:97:49:9c:
                    3d:31:44:40:50:32:b3:2b:3b:51:be:02:26:b1:68:
                    a9:66:2d:a9:a0:42:cb:49:cb:c6:03:29:89:58:bd:
                    69:8f:68:c9:5c:14:fb:f4:64:a4:93:b5:ee:09:34:
                    e6:a3:dc:81:7e:8f:7b:16:b7:e4:ac:2d:cd:35:8f:
                    b5:a1:58:f4:9b:32:e8:02:e8:f9:0e:66:69:d8:b2:
                    e1:56:69:a1:a1:94:5c:be:74:b0:64:ba:08:48:43:
                    1b:49:fe:d0:1a:1a:16:3a:6c:06:4a:d4:16:f9:09:
                    ef:d5:1a:6c:0f:a0:e7:2a:cc:db:1f:37:03:c4:19:
                    a0:13:20:fd:0a:cf:c4:50:52:9e:c9:5c:e0:16:20:
                    d7:91:b4:50:f8:db:9f:b6:29:56:9c:89:88:1b:f2:
                    54:ba:13:b4:6a:b2:4d:88:8a:d5:fd:06:b4:2f:92:
                    18:79:e0:3b:ba:01:db:02:3f:d8:c9:c5:fc:95:a7:
                    19:cc:28:58:3f:b1:2d:a0:e4:15:c2:79:df:7d:0d:
                    79:16:0a:df:0e:e8:18:92:ba:3f:de:99:bb:43:a7:
                    e4:7d:99:f7:1d:c5:d9:07:96:d2:ec:a7:f5:e3:47:
                    9b:e6:2f:b1:cb:53:98:96:1d:de:50:26:da:39:ee:
                    90:2d:7e:8f:37:e9:5e:d5:79:73:14:de:6d:ce:52:
                    77:4d:6d
                Exponent: 65537 (0x10001)
        X509v3 extensions:
            X509v3 Basic Constraints: 
                CA:FALSE
            Netscape Comment: 
                Easy-RSA Generated Certificate
            X509v3 Subject Key Identifier: 
                7A:82:32:AB:A4:F0:3F:00:3B:EB:E1:50:27:A6:04:FC:E9:C1:3A:8A
            X509v3 Authority Key Identifier: 
                keyid:EF:38:8D:14:50:58:A7:5B:4D:9C:17:72:FC:DF:B9:AC:A7:51:B0:10
                DirName:/C=US/ST=CA/L=SanFrancisco/O=Pixglo, Inc./OU=VPN-CIE/CN=tunnel.pixglo.com/name=Bala Chandrasekaran/emailAddress=bala@pixglo.com
                serial:A6:DB:C6:83:80:E6:A0:79

            X509v3 Extended Key Usage: 
                TLS Web Client Authentication
            X509v3 Key Usage: 
                Digital Signature
    Signature Algorithm: sha1WithRSAEncryption
         3b:cd:6d:98:b9:ad:73:9b:95:cf:50:65:0d:90:71:23:e6:f3:
         ac:57:91:29:fd:0a:f0:c2:36:db:b9:1d:9a:65:a0:ce:78:a9:
         74:64:8e:fc:eb:34:cd:43:dc:a2:89:e0:b5:30:8b:49:e4:e7:
         de:58:90:00:0c:65:45:5c:d4:8c:15:0a:64:23:50:9f:a4:11:
         10:78:fb:7f:41:f9:1c:19:e5:f5:f2:5b:bd:cf:cc:fa:88:ce:
         03:09:3c:eb:f8:b7:e7:a7:67:f1:73:41:ce:4e:0d:f3:28:d9:
         21:a0:bf:d0:34:ef:7f:49:e1:da:15:e4:f4:a4:93:44:f7:42:
         d6:32:ac:13:0c:a1:07:c8:d9:64:ef:ce:a9:a0:fa:23:dd:0b:
         f8:5f:8a:a4:88:af:4a:5c:d5:33:cd:5c:95:b0:e8:f4:a0:ea:
         fe:6e:81:ac:3f:e2:2d:41:bb:da:06:2d:19:b1:85:8f:38:2a:
         5b:69:7e:3c:80:70:2a:b7:f7:e3:fc:08:36:73:ae:e6:19:36:
         e6:58:71:ef:f6:94:e3:fe:d3:e0:0a:ca:a3:a8:bb:2d:44:85:
         c6:ff:8d:7c:01:41:da:ba:de:3f:9f:96:14:73:67:0e:e5:d8:
         f0:ae:7b:bd:1f:44:1b:40:62:6b:9f:36:be:8a:d3:57:ab:ad:
         71:1b:c1:36:3f:a8:35:96:7d:e3:c6:5f:2c:8e:5a:77:36:e3:
         dd:1b:9c:17:3b:eb:d6:a9:00:aa:ed:cc:b4:db:82:b1:9e:16:
         ba:06:89:d4:54:4d:4d:9a:e1:ec:56:86:90:65:23:68:2f:38:
         4e:b8:e5:d9:9c:ab:84:6d:99:d9:62:0f:45:06:ba:38:0b:46:
         70:c4:29:5f:9e:fc:2e:a1:35:32:00:97:40:e2:d6:ab:59:4e:
         ea:98:ab:67:0b:37:3d:5c:2f:d0:46:50:d5:dd:03:f5:35:4b:
         a9:c5:ec:db:34:12:4f:65:b3:53:fa:9c:ec:3e:9f:1c:d0:c6:
         b4:2c:43:48:94:44:99:8e:a9:82:a5:0d:c1:c8:cb:f5:2f:59:
         a4:5b:d7:bf:6b:0c:66:d9:69:56:09:99:46:5f:c6:bb:ca:89:
         7d:5b:82:0f:bd:e9:c4:ff:31:97:f6:87:0d:93:6c:6d:ce:f6:
         e8:3a:70:e1:b8:cf:28:03:79:1c:51:ab:a9:65:4a:3d:e9:e3:
         9c:71:42:7e:d5:de:60:51:2d:cf:27:48:82:2d:99:9f:43:50:
         fc:10:a2:5f:f6:1d:cc:80:1a:94:88:84:c3:85:28:61:a1:67:
         1e:de:9b:eb:4f:e8:87:ae:66:30:ff:7c:f5:a3:88:e7:9c:2d:
         65:98:03:61:77:77:81:95
-----BEGIN CERTIFICATE-----
MIIHSDCCBTCgAwIBAgICAxMwDQYJKoZIhvcNAQEFBQAwgbQxCzAJBgNVBAYTAlVT
MQswCQYDVQQIEwJDQTEVMBMGA1UEBxMMU2FuRnJhbmNpc2NvMRUwEwYDVQQKEwxQ
aXhnbG8sIEluYy4xEDAOBgNVBAsTB1ZQTi1DSUUxGjAYBgNVBAMTEXR1bm5lbC5w
aXhnbG8uY29tMRwwGgYDVQQpExNCYWxhIENoYW5kcmFzZWthcmFuMR4wHAYJKoZI
hvcNAQkBFg9iYWxhQHBpeGdsby5jb20wHhcNMTgwMjE0MDY0MzM1WhcNMjgwMjEy
MDY0MzM1WjCBqTELMAkGA1UEBhMCVVMxCzAJBgNVBAgTAkNBMRUwEwYDVQQHEwxT
YW5GcmFuY2lzY28xFTATBgNVBAoTDFBpeGdsbywgSW5jLjEQMA4GA1UECxMHVlBO
LUNJRTEPMA0GA1UEAxMGY2llNzg2MRwwGgYDVQQpExNCYWxhIENoYW5kcmFzZWth
cmFuMR4wHAYJKoZIhvcNAQkBFg9iYWxhQHBpeGdsby5jb20wggIiMA0GCSqGSIb3
DQEBAQUAA4ICDwAwggIKAoICAQDA3sOLus3Ag1IYyv2hlhcgipInJcvDAiUbaJAk
WxN7JvnRlcbXMLl9gQmftR9edCV0EXyB2CBNJ6DSVMkzFer35TOgZNcvTusj+zjl
dYm3TbWcaPB4/0VgXPlx7nrV/RdsLGtWW1GorbMpJ0WsBBZlv7cQxz3UQP5Blf05
/pikbb4Z9zfT0TbfhN7hh3r1RIHIZaTla2RsJXYN2pyH1N+r8k67peKAIN+j70at
wSjWOsK7/E79yF8FvSbfvnnNA6L8WU59Pao3fXKJuv87MZ12owRkOrHRxtMNDEDI
yLfry9p4D/NrjNtbdyp+QxiCNTN+hhhIN5VokbQOv5dJnD0xREBQMrMrO1G+Aiax
aKlmLamgQstJy8YDKYlYvWmPaMlcFPv0ZKSTte4JNOaj3IF+j3sWt+SsLc01j7Wh
WPSbMugC6PkOZmnYsuFWaaGhlFy+dLBkughIQxtJ/tAaGhY6bAZK1Bb5Ce/VGmwP
oOcqzNsfNwPEGaATIP0Kz8RQUp7JXOAWINeRtFD425+2KVaciYgb8lS6E7Rqsk2I
itX9BrQvkhh54Du6AdsCP9jJxfyVpxnMKFg/sS2g5BXCed99DXkWCt8O6BiSuj/e
mbtDp+R9mfcdxdkHltLsp/XjR5vmL7HLU5iWHd5QJto57pAtfo836V7VeXMU3m3O
UndNbQIDAQABo4IBazCCAWcwCQYDVR0TBAIwADAtBglghkgBhvhCAQ0EIBYeRWFz
eS1SU0EgR2VuZXJhdGVkIENlcnRpZmljYXRlMB0GA1UdDgQWBBR6gjKrpPA/ADvr
4VAnpgT86cE6ijCB6QYDVR0jBIHhMIHegBTvOI0UUFinW02cF3L837msp1GwEKGB
uqSBtzCBtDELMAkGA1UEBhMCVVMxCzAJBgNVBAgTAkNBMRUwEwYDVQQHEwxTYW5G
cmFuY2lzY28xFTATBgNVBAoTDFBpeGdsbywgSW5jLjEQMA4GA1UECxMHVlBOLUNJ
RTEaMBgGA1UEAxMRdHVubmVsLnBpeGdsby5jb20xHDAaBgNVBCkTE0JhbGEgQ2hh
bmRyYXNla2FyYW4xHjAcBgkqhkiG9w0BCQEWD2JhbGFAcGl4Z2xvLmNvbYIJAKbb
xoOA5qB5MBMGA1UdJQQMMAoGCCsGAQUFBwMCMAsGA1UdDwQEAwIHgDANBgkqhkiG
9w0BAQUFAAOCAgEAO81tmLmtc5uVz1BlDZBxI+bzrFeRKf0K8MI227kdmmWgznip
dGSO/Os0zUPcoongtTCLSeTn3liQAAxlRVzUjBUKZCNQn6QREHj7f0H5HBnl9fJb
vc/M+ojOAwk86/i356dn8XNBzk4N8yjZIaC/0DTvf0nh2hXk9KSTRPdC1jKsEwyh
B8jZZO/OqaD6I90L+F+KpIivSlzVM81clbDo9KDq/m6BrD/iLUG72gYtGbGFjzgq
W2l+PIBwKrf34/wINnOu5hk25lhx7/aU4/7T4ArKo6i7LUSFxv+NfAFB2rreP5+W
FHNnDuXY8K57vR9EG0Bia582vorTV6utcRvBNj+oNZZ948ZfLI5adzbj3RucFzvr
1qkAqu3MtNuCsZ4WugaJ1FRNTZrh7FaGkGUjaC84Trjl2ZyrhG2Z2WIPRQa6OAtG
cMQpX578LqE1MgCXQOLWq1lO6pirZws3PVwv0EZQ1d0D9TVLqcXs2zQST2WzU/qc
7D6fHNDGtCxDSJREmY6pgqUNwcjL9S9ZpFvXv2sMZtlpVgmZRl/Gu8qJfVuCD73p
xP8xl/aHDZNsbc726Dpw4bjPKAN5HFGrqWVKPenjnHFCftXeYFEtzydIgi2Zn0NQ
/BCiX/YdzIAalIiEw4UoYaFnHt6b60/oh65mMP989aOI55wtZZgDYXd3gZU=
-----END CERTIFICATE-----
