Certificate:
    Data:
        Version: 3 (0x2)
        Serial Number: 728 (0x2d8)
    Signature Algorithm: sha1WithRSAEncryption
        Issuer: C=US, ST=CA, L=SanFrancisco, O=Pixglo, Inc., OU=VPN-CIE, CN=tunnel.pixglo.com/name=Bala Chandrasekaran/emailAddress=bala@pixglo.com
        Validity
            Not Before: Feb 14 06:41:37 2018 GMT
            Not After : Feb 12 06:41:37 2028 GMT
        Subject: C=US, ST=CA, L=SanFrancisco, O=Pixglo, Inc., OU=VPN-CIE, CN=cie727/name=Bala Chandrasekaran/emailAddress=bala@pixglo.com
        Subject Public Key Info:
            Public Key Algorithm: rsaEncryption
                Public-Key: (4096 bit)
                Modulus:
                    00:b5:4c:d6:86:bf:27:15:1d:bb:69:63:d2:5a:36:
                    86:97:50:fd:40:6a:06:36:b3:38:40:49:00:b2:2f:
                    16:ec:04:fc:3b:48:fc:25:7b:fa:b6:01:46:c4:0e:
                    9b:77:16:04:41:6a:9f:b1:10:a7:0b:7c:28:fc:98:
                    f3:1f:4e:c9:57:40:21:56:77:97:bd:60:f2:86:fe:
                    e0:90:52:44:58:4a:fb:d3:81:e5:d0:fe:1e:1d:4e:
                    6e:2e:ad:3e:f7:c0:f3:cd:d4:8e:a6:b3:90:80:2c:
                    0d:88:57:96:fe:7e:b9:f9:b6:f8:42:65:ff:93:15:
                    96:cb:ad:82:ac:e1:e2:61:2c:c9:11:33:28:f6:bf:
                    b3:23:cf:12:bb:41:fc:bb:5f:bd:e2:00:6d:59:03:
                    f0:82:bd:d5:15:80:58:a9:f8:2e:76:eb:8a:13:e8:
                    0f:d8:0d:4b:f2:59:1f:f9:8d:aa:cb:94:d1:67:a5:
                    a7:ac:25:68:f5:89:8d:23:dd:0f:b0:30:5c:a9:90:
                    3b:4b:83:0e:21:5a:63:78:92:44:19:e4:43:0b:09:
                    c2:dc:ea:e6:05:82:b9:f5:81:51:13:d2:19:f9:3b:
                    4c:2e:cc:b3:f8:b0:8f:44:51:72:a3:7e:3f:be:35:
                    8b:ce:f3:b5:3c:3b:53:b5:77:25:49:e5:b5:f8:64:
                    e5:bf:24:e8:8f:7b:26:65:87:49:2b:81:c0:d4:85:
                    a4:13:07:09:2b:8a:cc:fc:f5:22:92:10:92:83:b6:
                    e5:f4:96:55:f8:d2:81:c1:b9:80:89:f9:43:73:57:
                    3e:2b:72:3c:aa:2d:77:80:81:e4:0e:06:6a:48:16:
                    6e:fe:da:9a:57:67:92:b4:7f:ed:32:b2:a8:2b:1a:
                    fa:eb:4c:44:0f:7d:93:9e:c3:6b:70:45:c7:06:ae:
                    1b:0a:c6:c3:b8:4d:5b:a9:4c:47:11:04:03:c5:ff:
                    b4:c7:e6:87:2c:22:5d:30:7e:58:2e:f4:ac:21:a4:
                    4a:b7:8f:f3:c1:17:1b:76:80:11:d6:10:0f:cb:91:
                    00:16:f1:2d:9c:38:bd:cb:44:37:57:e1:45:10:fb:
                    0a:05:a3:56:b1:46:35:86:02:06:2b:ea:6e:92:00:
                    7f:57:3b:84:6f:d9:f9:25:83:94:fe:9f:d0:fb:1c:
                    be:14:0b:02:f7:9c:16:e8:2a:e3:3e:10:d3:bb:25:
                    8d:ea:f6:17:85:6f:2c:0e:22:b4:4b:4f:f0:58:e0:
                    59:c6:09:43:af:5e:fb:f1:ee:43:26:ba:2f:43:c1:
                    45:05:53:c7:29:2f:f6:da:b7:2f:d7:7a:6d:ac:e7:
                    0d:f9:28:88:11:2c:e0:7b:80:87:dc:05:de:70:d7:
                    d2:d2:f9
                Exponent: 65537 (0x10001)
        X509v3 extensions:
            X509v3 Basic Constraints: 
                CA:FALSE
            Netscape Comment: 
                Easy-RSA Generated Certificate
            X509v3 Subject Key Identifier: 
                68:EC:F9:4F:C0:EC:0E:BB:7A:17:0B:9C:91:C8:99:D9:CA:C0:B7:29
            X509v3 Authority Key Identifier: 
                keyid:EF:38:8D:14:50:58:A7:5B:4D:9C:17:72:FC:DF:B9:AC:A7:51:B0:10
                DirName:/C=US/ST=CA/L=SanFrancisco/O=Pixglo, Inc./OU=VPN-CIE/CN=tunnel.pixglo.com/name=Bala Chandrasekaran/emailAddress=bala@pixglo.com
                serial:A6:DB:C6:83:80:E6:A0:79

            X509v3 Extended Key Usage: 
                TLS Web Client Authentication
            X509v3 Key Usage: 
                Digital Signature
    Signature Algorithm: sha1WithRSAEncryption
         37:8b:43:78:ba:b0:66:18:ef:b9:8b:88:e9:9b:5d:eb:64:7c:
         b3:27:d2:aa:8d:db:20:e5:57:1d:39:0b:5f:95:08:4f:fa:bc:
         7c:ed:db:29:84:6a:5c:33:6c:4e:1e:ea:20:ae:1a:df:8c:67:
         29:d3:a5:3b:70:7c:ac:f0:96:25:3d:08:76:ce:0b:8d:d9:47:
         67:b4:e9:19:3d:2f:01:2e:57:e3:dd:76:82:c1:c8:b8:0b:9a:
         cc:23:99:71:32:28:55:fd:14:f2:90:15:ec:88:dc:e7:68:09:
         d9:1b:18:e7:cd:27:7b:6e:83:b0:95:22:9e:1e:aa:a6:de:37:
         7f:44:3c:16:4b:1b:86:0b:83:64:fe:c3:5c:65:53:03:3c:da:
         45:08:09:f8:a8:da:73:ca:ef:e8:46:56:59:77:04:23:fb:a5:
         d2:35:7c:4c:d4:90:c3:cb:81:17:03:37:32:70:0a:0f:35:74:
         7f:57:5a:15:6b:98:eb:8c:ca:7c:24:e9:c2:02:5f:c7:af:20:
         b9:de:47:02:67:6b:5f:5a:f6:07:4f:9e:8a:ed:8b:30:f1:cb:
         8f:61:33:01:41:03:a9:d9:5a:14:d9:96:c3:89:17:58:0d:cc:
         72:75:8e:de:4f:82:53:36:8c:b9:6d:9f:88:5c:85:92:75:68:
         80:f2:d8:28:20:21:42:a2:1c:c7:d2:da:38:b5:f8:21:87:36:
         2c:dd:5e:0b:94:62:b2:0f:11:df:07:6e:2f:a0:38:5f:7b:f7:
         f1:ab:8a:d6:65:c6:84:32:6e:ca:ed:94:4e:98:70:bb:f7:54:
         a7:16:ee:69:0a:14:66:a1:f2:c4:2b:2e:ae:ff:5c:b1:07:84:
         21:a4:7b:37:8a:6e:98:ab:34:58:8a:65:13:88:d3:03:e5:3f:
         9c:00:26:1e:5b:05:0a:b6:4b:66:53:e5:71:fa:6e:c1:a8:3a:
         1f:c3:f5:fd:73:1d:fe:b5:66:9c:8c:18:1d:d7:4e:23:33:b1:
         f1:b3:ec:91:f1:c6:84:ca:24:c5:ed:f5:6d:11:0f:0e:ad:3f:
         d4:93:81:0e:95:c0:cc:d7:b8:b4:0b:a9:b3:53:26:05:f6:ed:
         97:a8:9d:3e:c2:5b:80:9f:57:78:42:34:51:37:8a:09:1b:b1:
         ed:fd:ad:4b:2d:85:5b:42:3d:ef:a7:e1:08:65:04:ed:a8:12:
         f9:46:3f:90:cf:9b:16:26:72:18:20:06:10:74:6d:08:3c:06:
         b7:d5:54:0c:0d:49:86:26:9b:ba:19:ec:64:ad:ac:b1:61:c1:
         b6:d0:44:4c:f5:d4:a4:54:09:70:21:e6:49:28:3a:a5:9c:07:
         a5:7c:94:b4:8f:32:6d:0d
-----BEGIN CERTIFICATE-----
MIIHSDCCBTCgAwIBAgICAtgwDQYJKoZIhvcNAQEFBQAwgbQxCzAJBgNVBAYTAlVT
MQswCQYDVQQIEwJDQTEVMBMGA1UEBxMMU2FuRnJhbmNpc2NvMRUwEwYDVQQKEwxQ
aXhnbG8sIEluYy4xEDAOBgNVBAsTB1ZQTi1DSUUxGjAYBgNVBAMTEXR1bm5lbC5w
aXhnbG8uY29tMRwwGgYDVQQpExNCYWxhIENoYW5kcmFzZWthcmFuMR4wHAYJKoZI
hvcNAQkBFg9iYWxhQHBpeGdsby5jb20wHhcNMTgwMjE0MDY0MTM3WhcNMjgwMjEy
MDY0MTM3WjCBqTELMAkGA1UEBhMCVVMxCzAJBgNVBAgTAkNBMRUwEwYDVQQHEwxT
YW5GcmFuY2lzY28xFTATBgNVBAoTDFBpeGdsbywgSW5jLjEQMA4GA1UECxMHVlBO
LUNJRTEPMA0GA1UEAxMGY2llNzI3MRwwGgYDVQQpExNCYWxhIENoYW5kcmFzZWth
cmFuMR4wHAYJKoZIhvcNAQkBFg9iYWxhQHBpeGdsby5jb20wggIiMA0GCSqGSIb3
DQEBAQUAA4ICDwAwggIKAoICAQC1TNaGvycVHbtpY9JaNoaXUP1AagY2szhASQCy
LxbsBPw7SPwle/q2AUbEDpt3FgRBap+xEKcLfCj8mPMfTslXQCFWd5e9YPKG/uCQ
UkRYSvvTgeXQ/h4dTm4urT73wPPN1I6ms5CALA2IV5b+frn5tvhCZf+TFZbLrYKs
4eJhLMkRMyj2v7MjzxK7Qfy7X73iAG1ZA/CCvdUVgFip+C5264oT6A/YDUvyWR/5
jarLlNFnpaesJWj1iY0j3Q+wMFypkDtLgw4hWmN4kkQZ5EMLCcLc6uYFgrn1gVET
0hn5O0wuzLP4sI9EUXKjfj++NYvO87U8O1O1dyVJ5bX4ZOW/JOiPeyZlh0krgcDU
haQTBwkrisz89SKSEJKDtuX0llX40oHBuYCJ+UNzVz4rcjyqLXeAgeQOBmpIFm7+
2ppXZ5K0f+0ysqgrGvrrTEQPfZOew2twRccGrhsKxsO4TVupTEcRBAPF/7TH5ocs
Il0wflgu9KwhpEq3j/PBFxt2gBHWEA/LkQAW8S2cOL3LRDdX4UUQ+woFo1axRjWG
AgYr6m6SAH9XO4Rv2fklg5T+n9D7HL4UCwL3nBboKuM+ENO7JY3q9heFbywOIrRL
T/BY4FnGCUOvXvvx7kMmui9DwUUFU8cpL/baty/Xem2s5w35KIgRLOB7gIfcBd5w
19LS+QIDAQABo4IBazCCAWcwCQYDVR0TBAIwADAtBglghkgBhvhCAQ0EIBYeRWFz
eS1SU0EgR2VuZXJhdGVkIENlcnRpZmljYXRlMB0GA1UdDgQWBBRo7PlPwOwOu3oX
C5yRyJnZysC3KTCB6QYDVR0jBIHhMIHegBTvOI0UUFinW02cF3L837msp1GwEKGB
uqSBtzCBtDELMAkGA1UEBhMCVVMxCzAJBgNVBAgTAkNBMRUwEwYDVQQHEwxTYW5G
cmFuY2lzY28xFTATBgNVBAoTDFBpeGdsbywgSW5jLjEQMA4GA1UECxMHVlBOLUNJ
RTEaMBgGA1UEAxMRdHVubmVsLnBpeGdsby5jb20xHDAaBgNVBCkTE0JhbGEgQ2hh
bmRyYXNla2FyYW4xHjAcBgkqhkiG9w0BCQEWD2JhbGFAcGl4Z2xvLmNvbYIJAKbb
xoOA5qB5MBMGA1UdJQQMMAoGCCsGAQUFBwMCMAsGA1UdDwQEAwIHgDANBgkqhkiG
9w0BAQUFAAOCAgEAN4tDeLqwZhjvuYuI6Ztd62R8syfSqo3bIOVXHTkLX5UIT/q8
fO3bKYRqXDNsTh7qIK4a34xnKdOlO3B8rPCWJT0Ids4LjdlHZ7TpGT0vAS5X4912
gsHIuAuazCOZcTIoVf0U8pAV7Ijc52gJ2RsY580ne26DsJUinh6qpt43f0Q8Fksb
hguDZP7DXGVTAzzaRQgJ+Kjac8rv6EZWWXcEI/ul0jV8TNSQw8uBFwM3MnAKDzV0
f1daFWuY64zKfCTpwgJfx68gud5HAmdrX1r2B0+eiu2LMPHLj2EzAUEDqdlaFNmW
w4kXWA3McnWO3k+CUzaMuW2fiFyFknVogPLYKCAhQqIcx9LaOLX4IYc2LN1eC5Ri
sg8R3wduL6A4X3v38auK1mXGhDJuyu2UTphwu/dUpxbuaQoUZqHyxCsurv9csQeE
IaR7N4pumKs0WIplE4jTA+U/nAAmHlsFCrZLZlPlcfpuwag6H8P1/XMd/rVmnIwY
HddOIzOx8bPskfHGhMokxe31bREPDq0/1JOBDpXAzNe4tAups1MmBfbtl6idPsJb
gJ9XeEI0UTeKCRux7f2tSy2FW0I976fhCGUE7agS+UY/kM+bFiZyGCAGEHRtCDwG
t9VUDA1JhiabuhnsZK2ssWHBttBETPXUpFQJcCHmSSg6pZwHpXyUtI8ybQ0=
-----END CERTIFICATE-----
