Certificate:
    Data:
        Version: 3 (0x2)
        Serial Number: 708 (0x2c4)
    Signature Algorithm: sha1WithRSAEncryption
        Issuer: C=US, ST=CA, L=SanFrancisco, O=Pixglo, Inc., OU=VPN-CIE, CN=tunnel.pixglo.com/name=Bala Chandrasekaran/emailAddress=bala@pixglo.com
        Validity
            Not Before: Feb 14 06:41:08 2018 GMT
            Not After : Feb 12 06:41:08 2028 GMT
        Subject: C=US, ST=CA, L=SanFrancisco, O=Pixglo, Inc., OU=VPN-CIE, CN=cie707/name=Bala Chandrasekaran/emailAddress=bala@pixglo.com
        Subject Public Key Info:
            Public Key Algorithm: rsaEncryption
                Public-Key: (4096 bit)
                Modulus:
                    00:d3:be:ca:dd:5e:cf:b8:ab:c0:b8:1d:af:13:38:
                    db:32:eb:24:2f:ef:9b:3a:74:b5:4e:21:cc:56:06:
                    82:1c:5f:c7:fd:55:b5:c2:d2:b1:40:40:69:5d:37:
                    04:d5:d6:30:04:a6:92:c5:83:e5:4c:21:06:9f:21:
                    d0:2b:a8:36:2e:53:eb:d8:e8:bd:7a:9c:9d:ee:93:
                    e2:d4:c0:df:dc:e0:0c:2a:51:9d:13:7a:01:2a:5f:
                    df:66:61:b8:61:b6:a7:6b:ea:ec:62:53:3a:ef:78:
                    14:37:f3:93:51:8a:ba:d8:23:dd:08:44:fc:c9:2f:
                    1e:a7:60:1b:de:93:73:b1:a4:5a:b0:f1:f4:fa:3f:
                    7b:a8:f7:78:bc:d5:69:08:a0:e2:4c:a9:19:f4:69:
                    ed:62:ce:f4:bf:18:aa:ed:c9:a3:fd:da:fa:70:94:
                    19:5d:05:0c:3f:41:32:8a:84:2b:4d:bc:4d:04:5d:
                    2c:76:b2:1a:04:d2:49:6a:80:2e:92:e3:61:03:14:
                    08:c1:5c:30:7c:73:b3:4a:2f:9a:ea:c6:f5:a0:b2:
                    63:47:f1:19:7c:60:87:14:88:92:bf:be:c4:f7:b3:
                    e3:08:27:24:2a:c7:03:5f:8e:5a:a4:06:1c:79:e5:
                    51:26:8a:1c:e2:30:fd:c8:46:ad:e6:aa:67:14:b8:
                    ab:25:3b:67:41:ed:d7:a6:78:5c:56:1c:77:c4:75:
                    ca:cc:15:da:1b:87:bf:cc:b2:b4:d7:5e:03:f9:6f:
                    ad:b3:35:49:7e:2f:92:08:a3:c0:ec:5d:33:41:2c:
                    90:d3:86:bb:36:6d:47:e8:eb:c3:d8:79:ac:ad:af:
                    44:b0:21:56:f5:58:75:9c:6e:c5:33:b4:88:0e:5d:
                    9a:62:3a:ac:06:22:c4:ba:2b:d6:a7:e5:c3:4d:33:
                    a4:82:ff:d7:c4:87:1d:8d:bb:68:0b:9f:f3:43:27:
                    64:58:0d:9b:17:98:1f:bc:4c:29:c7:63:ab:33:37:
                    21:4a:ce:63:fc:26:18:d3:bf:88:1f:13:98:13:f0:
                    98:80:af:73:51:f7:40:7f:33:ea:cc:5c:3c:4d:03:
                    0c:e6:68:70:4e:ba:4d:12:18:a7:1c:85:b6:66:b0:
                    54:3d:e5:7f:90:88:e0:d8:79:61:d7:fe:8f:d6:21:
                    35:61:e7:81:10:30:e4:99:2d:f6:e2:95:f4:9f:a4:
                    76:0e:0f:96:d4:fc:37:6b:8c:11:d5:10:ec:34:04:
                    40:b2:66:bc:ad:e0:75:61:f4:06:6f:1d:5c:c5:e5:
                    a0:64:37:4d:6e:2e:c9:34:d9:f9:f2:19:69:20:87:
                    cf:d8:cd:d8:80:c7:6f:1d:b3:1c:0b:80:50:f7:22:
                    21:f0:05
                Exponent: 65537 (0x10001)
        X509v3 extensions:
            X509v3 Basic Constraints: 
                CA:FALSE
            Netscape Comment: 
                Easy-RSA Generated Certificate
            X509v3 Subject Key Identifier: 
                D4:78:51:4B:E0:C9:40:2F:95:3A:FD:CE:FE:B1:F9:CF:43:E6:9B:77
            X509v3 Authority Key Identifier: 
                keyid:EF:38:8D:14:50:58:A7:5B:4D:9C:17:72:FC:DF:B9:AC:A7:51:B0:10
                DirName:/C=US/ST=CA/L=SanFrancisco/O=Pixglo, Inc./OU=VPN-CIE/CN=tunnel.pixglo.com/name=Bala Chandrasekaran/emailAddress=bala@pixglo.com
                serial:A6:DB:C6:83:80:E6:A0:79

            X509v3 Extended Key Usage: 
                TLS Web Client Authentication
            X509v3 Key Usage: 
                Digital Signature
    Signature Algorithm: sha1WithRSAEncryption
         1d:23:9c:43:3b:eb:7d:73:30:c0:9c:40:20:8c:7b:a3:94:bb:
         a9:5c:79:00:92:03:d0:e9:7e:93:6b:0c:ca:51:65:6d:96:22:
         8f:19:d5:44:0b:b8:db:4e:70:08:34:90:b5:f9:f8:72:49:3f:
         bb:b8:38:d3:02:12:aa:7c:af:56:3f:ae:69:38:18:07:08:8b:
         45:1c:19:d0:1f:d7:c9:b3:01:47:c4:80:19:28:76:9f:4f:34:
         e6:2b:02:f2:aa:29:97:69:ba:6d:4c:b8:e9:e9:4f:c7:fc:ed:
         7a:f9:63:ca:97:90:3a:2c:2b:95:e0:1a:fe:01:f8:03:b3:88:
         81:63:9f:26:ad:f1:b4:c4:cc:a0:7a:9f:f7:40:1b:e8:ee:29:
         30:32:7e:0f:7c:8c:88:15:43:9f:5d:0d:bc:94:01:c9:3f:71:
         c8:69:fc:80:16:3d:8d:17:cd:da:36:6e:6f:c2:c1:c3:8e:4d:
         e7:1b:f9:c8:60:e3:80:06:b2:18:be:3c:02:d0:7c:7f:d3:6b:
         a3:0f:f3:ea:e5:a2:07:7b:90:b2:31:20:4d:ae:e8:d1:cf:64:
         10:f8:a3:c7:19:94:6d:cc:e4:8c:66:58:10:8b:f0:67:51:be:
         90:18:d2:a2:07:b2:1c:4a:ff:d2:8e:8d:15:06:d4:58:6b:ab:
         db:70:d3:26:17:83:c4:26:9b:85:d6:d3:47:91:b2:b3:6c:88:
         d0:07:e7:b8:81:a8:7c:52:e7:92:2b:b8:96:96:d0:b8:8b:2d:
         00:03:62:f6:b6:8b:86:ab:e7:6b:1b:ca:79:bf:10:0e:2f:18:
         81:e2:cf:09:0c:40:4d:8f:45:4c:91:9d:4b:56:ef:b5:1f:a4:
         36:97:38:a8:c3:ae:6c:8f:98:72:de:79:1d:be:fa:e9:f5:67:
         17:99:51:ca:ff:34:0f:da:c7:53:a0:e1:d2:fa:be:53:47:f7:
         6e:04:db:d2:4b:af:89:32:54:2c:ac:c8:f1:41:d0:e9:04:03:
         1c:ba:d8:ad:2c:75:53:b0:7c:68:a5:6e:75:d1:87:e8:1b:47:
         4a:df:f7:5a:28:b5:f0:36:88:fc:e9:14:ee:e5:a1:ab:5a:cd:
         38:79:17:b8:92:dc:11:a5:d3:ff:38:4e:91:b9:91:13:d3:47:
         5d:ff:fa:e7:a3:4d:35:75:c9:7b:b5:1c:50:5f:55:71:02:30:
         40:97:b4:95:1f:42:c5:9e:39:cf:bd:d5:f9:d6:b3:41:eb:9f:
         30:a5:d4:7f:f4:bb:5a:4d:b9:43:06:45:37:df:4c:56:78:bb:
         96:d7:1c:78:c8:65:22:03:cb:25:da:09:15:15:dc:3e:ae:f7:
         16:31:47:2e:95:2e:5b:7b
-----BEGIN CERTIFICATE-----
MIIHSDCCBTCgAwIBAgICAsQwDQYJKoZIhvcNAQEFBQAwgbQxCzAJBgNVBAYTAlVT
MQswCQYDVQQIEwJDQTEVMBMGA1UEBxMMU2FuRnJhbmNpc2NvMRUwEwYDVQQKEwxQ
aXhnbG8sIEluYy4xEDAOBgNVBAsTB1ZQTi1DSUUxGjAYBgNVBAMTEXR1bm5lbC5w
aXhnbG8uY29tMRwwGgYDVQQpExNCYWxhIENoYW5kcmFzZWthcmFuMR4wHAYJKoZI
hvcNAQkBFg9iYWxhQHBpeGdsby5jb20wHhcNMTgwMjE0MDY0MTA4WhcNMjgwMjEy
MDY0MTA4WjCBqTELMAkGA1UEBhMCVVMxCzAJBgNVBAgTAkNBMRUwEwYDVQQHEwxT
YW5GcmFuY2lzY28xFTATBgNVBAoTDFBpeGdsbywgSW5jLjEQMA4GA1UECxMHVlBO
LUNJRTEPMA0GA1UEAxMGY2llNzA3MRwwGgYDVQQpExNCYWxhIENoYW5kcmFzZWth
cmFuMR4wHAYJKoZIhvcNAQkBFg9iYWxhQHBpeGdsby5jb20wggIiMA0GCSqGSIb3
DQEBAQUAA4ICDwAwggIKAoICAQDTvsrdXs+4q8C4Ha8TONsy6yQv75s6dLVOIcxW
BoIcX8f9VbXC0rFAQGldNwTV1jAEppLFg+VMIQafIdArqDYuU+vY6L16nJ3uk+LU
wN/c4AwqUZ0TegEqX99mYbhhtqdr6uxiUzrveBQ385NRirrYI90IRPzJLx6nYBve
k3OxpFqw8fT6P3uo93i81WkIoOJMqRn0ae1izvS/GKrtyaP92vpwlBldBQw/QTKK
hCtNvE0EXSx2shoE0klqgC6S42EDFAjBXDB8c7NKL5rqxvWgsmNH8Rl8YIcUiJK/
vsT3s+MIJyQqxwNfjlqkBhx55VEmihziMP3IRq3mqmcUuKslO2dB7demeFxWHHfE
dcrMFdobh7/MsrTXXgP5b62zNUl+L5IIo8DsXTNBLJDThrs2bUfo68PYeaytr0Sw
IVb1WHWcbsUztIgOXZpiOqwGIsS6K9an5cNNM6SC/9fEhx2Nu2gLn/NDJ2RYDZsX
mB+8TCnHY6szNyFKzmP8JhjTv4gfE5gT8JiAr3NR90B/M+rMXDxNAwzmaHBOuk0S
GKcchbZmsFQ95X+QiODYeWHX/o/WITVh54EQMOSZLfbilfSfpHYOD5bU/DdrjBHV
EOw0BECyZryt4HVh9AZvHVzF5aBkN01uLsk02fnyGWkgh8/YzdiAx28dsxwLgFD3
IiHwBQIDAQABo4IBazCCAWcwCQYDVR0TBAIwADAtBglghkgBhvhCAQ0EIBYeRWFz
eS1SU0EgR2VuZXJhdGVkIENlcnRpZmljYXRlMB0GA1UdDgQWBBTUeFFL4MlAL5U6
/c7+sfnPQ+abdzCB6QYDVR0jBIHhMIHegBTvOI0UUFinW02cF3L837msp1GwEKGB
uqSBtzCBtDELMAkGA1UEBhMCVVMxCzAJBgNVBAgTAkNBMRUwEwYDVQQHEwxTYW5G
cmFuY2lzY28xFTATBgNVBAoTDFBpeGdsbywgSW5jLjEQMA4GA1UECxMHVlBOLUNJ
RTEaMBgGA1UEAxMRdHVubmVsLnBpeGdsby5jb20xHDAaBgNVBCkTE0JhbGEgQ2hh
bmRyYXNla2FyYW4xHjAcBgkqhkiG9w0BCQEWD2JhbGFAcGl4Z2xvLmNvbYIJAKbb
xoOA5qB5MBMGA1UdJQQMMAoGCCsGAQUFBwMCMAsGA1UdDwQEAwIHgDANBgkqhkiG
9w0BAQUFAAOCAgEAHSOcQzvrfXMwwJxAIIx7o5S7qVx5AJID0Ol+k2sMylFlbZYi
jxnVRAu4205wCDSQtfn4ckk/u7g40wISqnyvVj+uaTgYBwiLRRwZ0B/XybMBR8SA
GSh2n0805isC8qopl2m6bUy46elPx/ztevljypeQOiwrleAa/gH4A7OIgWOfJq3x
tMTMoHqf90Ab6O4pMDJ+D3yMiBVDn10NvJQByT9xyGn8gBY9jRfN2jZub8LBw45N
5xv5yGDjgAayGL48AtB8f9Nrow/z6uWiB3uQsjEgTa7o0c9kEPijxxmUbczkjGZY
EIvwZ1G+kBjSogeyHEr/0o6NFQbUWGur23DTJheDxCabhdbTR5Gys2yI0AfnuIGo
fFLnkiu4lpbQuIstAANi9raLhqvnaxvKeb8QDi8YgeLPCQxATY9FTJGdS1bvtR+k
Npc4qMOubI+Yct55Hb766fVnF5lRyv80D9rHU6Dh0vq+U0f3bgTb0kuviTJULKzI
8UHQ6QQDHLrYrSx1U7B8aKVuddGH6BtHSt/3Wii18DaI/OkU7uWhq1rNOHkXuJLc
EaXT/zhOkbmRE9NHXf/656NNNXXJe7UcUF9VcQIwQJe0lR9CxZ45z73V+dazQeuf
MKXUf/S7Wk25QwZFN99MVni7ltcceMhlIgPLJdoJFRXcPq73FjFHLpUuW3s=
-----END CERTIFICATE-----
