Certificate:
    Data:
        Version: 3 (0x2)
        Serial Number: 800 (0x320)
    Signature Algorithm: sha1WithRSAEncryption
        Issuer: C=US, ST=CA, L=SanFrancisco, O=Pixglo, Inc., OU=VPN-CIE, CN=tunnel.pixglo.com/name=Bala Chandrasekaran/emailAddress=bala@pixglo.com
        Validity
            Not Before: Feb 14 06:43:54 2018 GMT
            Not After : Feb 12 06:43:54 2028 GMT
        Subject: C=US, ST=CA, L=SanFrancisco, O=Pixglo, Inc., OU=VPN-CIE, CN=cie799/name=Bala Chandrasekaran/emailAddress=bala@pixglo.com
        Subject Public Key Info:
            Public Key Algorithm: rsaEncryption
                Public-Key: (4096 bit)
                Modulus:
                    00:e0:d1:82:b2:a7:6e:af:94:cf:7a:ec:83:dd:83:
                    b9:26:e7:e9:46:d2:ae:85:cb:42:24:0e:f5:8d:42:
                    8a:cf:22:70:38:76:82:a9:c0:57:cb:42:50:a6:70:
                    8a:08:fe:00:84:d3:da:3c:c9:ac:9d:f4:48:72:2b:
                    5b:e1:b5:3a:e5:43:fc:2d:57:ba:35:15:93:b9:10:
                    e1:c4:8f:8c:87:42:1a:1e:c0:0b:5b:50:5d:1e:07:
                    a6:5a:3f:72:9f:6a:3d:78:a8:24:a7:f1:78:7c:ee:
                    35:ea:7a:f6:06:a2:fd:50:67:4c:e8:91:35:6a:80:
                    6a:cd:14:f1:5e:de:fb:20:ac:ef:7e:6d:3c:8d:de:
                    d3:18:30:d5:cb:61:4e:52:b7:02:38:36:16:f3:e5:
                    33:ec:c1:fb:55:97:7b:44:b7:d7:77:69:fa:16:9e:
                    12:56:1b:d8:98:fd:ea:4c:13:16:95:d8:18:58:cd:
                    c4:4e:73:08:95:e9:b9:8f:f0:f8:da:14:af:b9:6b:
                    42:f8:38:5b:1a:33:3c:8e:61:e3:8c:29:35:ca:15:
                    ec:3b:27:a4:57:b0:7c:99:ac:ea:53:22:1b:e0:9e:
                    fd:7e:8f:73:46:bf:84:be:15:52:f8:d2:23:c2:b4:
                    c8:a7:48:15:c9:44:90:9a:e3:6a:0d:d1:ff:59:91:
                    06:2c:49:6d:ed:09:d7:26:48:a6:60:a8:59:47:0e:
                    53:18:cf:47:e2:a2:fe:e2:d6:ca:ca:2d:f5:1b:8b:
                    4e:ea:cd:32:aa:ad:9d:ca:7e:e8:5a:66:e8:3a:b5:
                    f7:d9:69:58:46:2a:43:db:b5:2c:62:8a:b9:5f:a1:
                    c6:c3:8c:25:0e:85:00:e8:6b:a3:1d:57:1a:59:e4:
                    0e:b7:0d:c2:ec:43:d3:7b:68:8a:cc:a5:fb:28:5a:
                    57:b3:a4:0f:fd:01:fd:b2:4d:f6:6e:6d:f5:cc:7b:
                    81:91:38:63:68:22:a2:bd:04:60:70:45:76:e4:68:
                    cd:a9:9f:b3:2e:56:9f:af:86:df:fd:19:b4:c5:a3:
                    1f:7a:a2:03:84:a0:a3:07:4c:2c:b2:ba:71:ce:98:
                    1b:00:bd:69:a3:c1:2b:9f:68:94:1a:5b:74:24:04:
                    9a:10:f5:4c:74:29:df:bf:55:6a:4b:d4:2d:a3:17:
                    80:c7:2f:9f:76:84:7f:13:e6:ae:80:17:6f:3b:48:
                    1b:2b:bf:ba:13:e3:dc:0e:30:34:78:5b:e4:c4:ef:
                    bf:c7:ee:cb:53:fc:e4:b8:f6:d9:77:19:d7:a8:8f:
                    9a:fd:d9:d5:af:49:a0:7a:a0:c2:3d:30:52:65:20:
                    2c:36:bc:c3:e6:e8:92:32:82:c1:89:5a:f2:f3:a6:
                    20:72:2d
                Exponent: 65537 (0x10001)
        X509v3 extensions:
            X509v3 Basic Constraints: 
                CA:FALSE
            Netscape Comment: 
                Easy-RSA Generated Certificate
            X509v3 Subject Key Identifier: 
                44:B8:77:6A:65:83:60:46:ED:35:15:30:99:C8:FA:30:0F:7B:0A:C2
            X509v3 Authority Key Identifier: 
                keyid:EF:38:8D:14:50:58:A7:5B:4D:9C:17:72:FC:DF:B9:AC:A7:51:B0:10
                DirName:/C=US/ST=CA/L=SanFrancisco/O=Pixglo, Inc./OU=VPN-CIE/CN=tunnel.pixglo.com/name=Bala Chandrasekaran/emailAddress=bala@pixglo.com
                serial:A6:DB:C6:83:80:E6:A0:79

            X509v3 Extended Key Usage: 
                TLS Web Client Authentication
            X509v3 Key Usage: 
                Digital Signature
    Signature Algorithm: sha1WithRSAEncryption
         30:32:b0:e3:b0:77:e5:ff:01:5d:39:0b:cd:20:12:b3:59:a2:
         23:79:a2:bc:84:27:f5:ce:96:60:70:4c:c0:dc:72:e8:a0:49:
         f6:b1:78:6d:90:62:e2:de:53:ed:af:19:d0:0d:04:7e:96:7e:
         fd:27:07:6c:2d:b7:bf:ba:31:c7:88:41:46:38:ee:b8:c7:9e:
         4f:e8:66:13:32:f5:38:8f:2f:55:ca:be:16:d4:76:11:59:1e:
         1c:44:83:d9:2b:f5:32:fc:83:f2:a8:fe:a1:40:25:b5:2d:74:
         cb:e2:41:4a:59:3e:bc:ac:0d:f1:d9:ca:d6:41:c3:72:33:4a:
         40:7e:d7:a9:17:3c:1c:d0:ee:d3:e5:d0:b3:8c:0d:9f:95:e1:
         83:6b:82:67:69:53:85:5a:8f:f3:a5:c7:33:28:c5:57:cd:4a:
         0d:4b:4b:a6:9f:ac:c4:2d:12:09:52:4c:2a:e1:b6:c8:1e:53:
         5b:3f:59:34:9b:3d:45:3b:77:ea:e3:6a:10:9f:1c:c3:a5:55:
         c0:31:d3:59:91:33:9c:91:37:2f:51:2a:7e:28:b5:32:5c:37:
         c0:d6:82:6f:58:54:bb:a9:1e:2b:56:26:1b:0e:20:1c:24:21:
         d7:06:5a:93:82:46:4f:26:d7:85:c5:0e:40:6f:38:7f:8b:38:
         15:3e:5e:f5:84:da:c1:95:8b:48:0e:20:2e:25:da:10:67:45:
         9e:ea:b7:bc:5a:5a:c9:2e:ab:2c:d4:db:68:9d:eb:5d:d0:65:
         ba:67:aa:03:03:6e:d4:92:d0:e0:ab:db:ab:f9:a6:a5:56:94:
         cf:a6:9c:44:42:80:1d:47:92:98:42:59:a2:ac:08:c0:a8:85:
         80:5e:87:1f:88:a5:c2:06:c6:df:67:a9:1f:7f:86:a5:01:5b:
         f9:d1:ad:5b:0a:98:49:d8:bf:e7:4b:0a:96:3b:6f:cc:96:cf:
         40:27:f0:93:03:ee:ad:07:32:25:b5:eb:4c:31:57:c6:51:38:
         15:15:b2:8d:07:64:0a:96:59:f3:d4:3b:f1:7b:c9:e2:53:f9:
         83:82:d2:49:74:38:81:0a:a9:a7:55:8a:e7:fd:2f:56:a7:e4:
         a2:bb:b8:1c:cf:b2:81:95:94:4a:df:b4:4b:c8:e3:38:e0:9e:
         60:fe:47:18:28:fb:f9:04:16:6b:29:15:ad:e6:2d:fe:6f:0b:
         15:4f:a9:4b:5f:3e:29:d4:bb:6f:6d:ff:89:10:1d:7b:46:22:
         9f:12:8b:18:68:60:96:f9:f9:95:7c:6e:60:0a:ab:d0:c5:5f:
         56:84:9a:56:7c:c0:51:a0:37:d1:9e:7e:3c:00:c8:75:5d:3a:
         60:4a:fb:b6:d0:a0:fe:4a
-----BEGIN CERTIFICATE-----
MIIHSDCCBTCgAwIBAgICAyAwDQYJKoZIhvcNAQEFBQAwgbQxCzAJBgNVBAYTAlVT
MQswCQYDVQQIEwJDQTEVMBMGA1UEBxMMU2FuRnJhbmNpc2NvMRUwEwYDVQQKEwxQ
aXhnbG8sIEluYy4xEDAOBgNVBAsTB1ZQTi1DSUUxGjAYBgNVBAMTEXR1bm5lbC5w
aXhnbG8uY29tMRwwGgYDVQQpExNCYWxhIENoYW5kcmFzZWthcmFuMR4wHAYJKoZI
hvcNAQkBFg9iYWxhQHBpeGdsby5jb20wHhcNMTgwMjE0MDY0MzU0WhcNMjgwMjEy
MDY0MzU0WjCBqTELMAkGA1UEBhMCVVMxCzAJBgNVBAgTAkNBMRUwEwYDVQQHEwxT
YW5GcmFuY2lzY28xFTATBgNVBAoTDFBpeGdsbywgSW5jLjEQMA4GA1UECxMHVlBO
LUNJRTEPMA0GA1UEAxMGY2llNzk5MRwwGgYDVQQpExNCYWxhIENoYW5kcmFzZWth
cmFuMR4wHAYJKoZIhvcNAQkBFg9iYWxhQHBpeGdsby5jb20wggIiMA0GCSqGSIb3
DQEBAQUAA4ICDwAwggIKAoICAQDg0YKyp26vlM967IPdg7km5+lG0q6Fy0IkDvWN
QorPInA4doKpwFfLQlCmcIoI/gCE09o8yayd9EhyK1vhtTrlQ/wtV7o1FZO5EOHE
j4yHQhoewAtbUF0eB6ZaP3Kfaj14qCSn8Xh87jXqevYGov1QZ0zokTVqgGrNFPFe
3vsgrO9+bTyN3tMYMNXLYU5StwI4Nhbz5TPswftVl3tEt9d3afoWnhJWG9iY/epM
ExaV2BhYzcROcwiV6bmP8PjaFK+5a0L4OFsaMzyOYeOMKTXKFew7J6RXsHyZrOpT
Ihvgnv1+j3NGv4S+FVL40iPCtMinSBXJRJCa42oN0f9ZkQYsSW3tCdcmSKZgqFlH
DlMYz0fiov7i1srKLfUbi07qzTKqrZ3KfuhaZug6tffZaVhGKkPbtSxiirlfocbD
jCUOhQDoa6MdVxpZ5A63DcLsQ9N7aIrMpfsoWlezpA/9Af2yTfZubfXMe4GROGNo
IqK9BGBwRXbkaM2pn7MuVp+vht/9GbTFox96ogOEoKMHTCyyunHOmBsAvWmjwSuf
aJQaW3QkBJoQ9Ux0Kd+/VWpL1C2jF4DHL592hH8T5q6AF287SBsrv7oT49wOMDR4
W+TE77/H7stT/OS49tl3Gdeoj5r92dWvSaB6oMI9MFJlICw2vMPm6JIygsGJWvLz
piByLQIDAQABo4IBazCCAWcwCQYDVR0TBAIwADAtBglghkgBhvhCAQ0EIBYeRWFz
eS1SU0EgR2VuZXJhdGVkIENlcnRpZmljYXRlMB0GA1UdDgQWBBREuHdqZYNgRu01
FTCZyPowD3sKwjCB6QYDVR0jBIHhMIHegBTvOI0UUFinW02cF3L837msp1GwEKGB
uqSBtzCBtDELMAkGA1UEBhMCVVMxCzAJBgNVBAgTAkNBMRUwEwYDVQQHEwxTYW5G
cmFuY2lzY28xFTATBgNVBAoTDFBpeGdsbywgSW5jLjEQMA4GA1UECxMHVlBOLUNJ
RTEaMBgGA1UEAxMRdHVubmVsLnBpeGdsby5jb20xHDAaBgNVBCkTE0JhbGEgQ2hh
bmRyYXNla2FyYW4xHjAcBgkqhkiG9w0BCQEWD2JhbGFAcGl4Z2xvLmNvbYIJAKbb
xoOA5qB5MBMGA1UdJQQMMAoGCCsGAQUFBwMCMAsGA1UdDwQEAwIHgDANBgkqhkiG
9w0BAQUFAAOCAgEAMDKw47B35f8BXTkLzSASs1miI3mivIQn9c6WYHBMwNxy6KBJ
9rF4bZBi4t5T7a8Z0A0EfpZ+/ScHbC23v7oxx4hBRjjuuMeeT+hmEzL1OI8vVcq+
FtR2EVkeHESD2Sv1MvyD8qj+oUAltS10y+JBSlk+vKwN8dnK1kHDcjNKQH7XqRc8
HNDu0+XQs4wNn5Xhg2uCZ2lThVqP86XHMyjFV81KDUtLpp+sxC0SCVJMKuG2yB5T
Wz9ZNJs9RTt36uNqEJ8cw6VVwDHTWZEznJE3L1Eqfii1Mlw3wNaCb1hUu6keK1Ym
Gw4gHCQh1wZak4JGTybXhcUOQG84f4s4FT5e9YTawZWLSA4gLiXaEGdFnuq3vFpa
yS6rLNTbaJ3rXdBlumeqAwNu1JLQ4Kvbq/mmpVaUz6acREKAHUeSmEJZoqwIwKiF
gF6HH4ilwgbG32epH3+GpQFb+dGtWwqYSdi/50sKljtvzJbPQCfwkwPurQcyJbXr
TDFXxlE4FRWyjQdkCpZZ89Q78XvJ4lP5g4LSSXQ4gQqpp1WK5/0vVqfkoru4HM+y
gZWUSt+0S8jjOOCeYP5HGCj7+QQWaykVreYt/m8LFU+pS18+KdS7b23/iRAde0Yi
nxKLGGhglvn5lXxuYAqr0MVfVoSaVnzAUaA30Z5+PADIdV06YEr7ttCg/ko=
-----END CERTIFICATE-----
