Certificate:
    Data:
        Version: 3 (0x2)
        Serial Number: 725 (0x2d5)
    Signature Algorithm: sha1WithRSAEncryption
        Issuer: C=US, ST=CA, L=SanFrancisco, O=Pixglo, Inc., OU=VPN-CIE, CN=tunnel.pixglo.com/name=Bala Chandrasekaran/emailAddress=bala@pixglo.com
        Validity
            Not Before: Feb 14 06:41:34 2018 GMT
            Not After : Feb 12 06:41:34 2028 GMT
        Subject: C=US, ST=CA, L=SanFrancisco, O=Pixglo, Inc., OU=VPN-CIE, CN=cie724/name=Bala Chandrasekaran/emailAddress=bala@pixglo.com
        Subject Public Key Info:
            Public Key Algorithm: rsaEncryption
                Public-Key: (4096 bit)
                Modulus:
                    00:da:2a:0a:88:04:b7:16:60:dd:e3:e3:a4:c0:09:
                    fb:fc:ff:54:e8:53:1b:6c:05:ce:b2:d8:8b:85:b1:
                    d3:49:9b:c0:27:12:77:61:86:1e:3d:93:a5:15:3c:
                    ca:6a:9f:e2:2d:a4:dd:99:e7:92:37:d7:5b:c7:4d:
                    84:96:08:52:66:a4:9e:26:f9:7d:ce:2e:2c:96:cb:
                    08:4b:53:da:f6:7c:00:d8:43:c9:c0:6d:88:53:bf:
                    f0:b3:a2:b8:90:9e:86:30:81:c8:3d:62:22:e4:e2:
                    0e:28:f2:73:8c:8b:65:f5:e9:2e:36:94:ed:80:e4:
                    02:93:75:4e:b7:f6:1b:8d:7f:bf:93:92:f9:30:94:
                    a1:39:78:30:02:ef:03:ba:07:ca:0f:e5:31:de:b2:
                    a9:6e:70:c1:6e:65:39:93:d4:87:81:2f:d4:68:7b:
                    fb:ac:c4:86:e0:fe:af:e4:63:37:b2:99:7d:9c:ab:
                    8c:d5:f7:ca:d2:da:a9:27:56:80:11:cc:0e:67:28:
                    ee:37:fb:9a:2c:98:8c:fa:60:07:fd:71:2b:da:7f:
                    72:10:d1:c3:47:80:24:ab:fd:35:7f:99:4d:34:04:
                    6e:27:dc:51:c4:f6:51:6d:19:7e:1a:2e:83:c8:0c:
                    2b:ed:51:15:0a:44:a7:15:da:ff:36:54:04:12:6a:
                    fb:d1:7e:37:3f:39:fc:c6:58:8a:5e:f1:f9:1c:71:
                    3e:a5:57:4c:de:f7:5e:92:61:ff:a2:99:e4:76:fa:
                    41:5e:0a:08:b5:42:7c:9d:02:79:03:cd:5f:44:02:
                    05:05:9c:09:83:0b:e4:a6:c6:f0:a7:d0:6e:c4:62:
                    40:ee:75:17:65:57:e5:c2:f7:7d:16:65:cd:f9:fb:
                    26:41:26:b2:a0:ae:a6:fb:8b:3d:74:0b:af:2f:ec:
                    e4:05:24:5d:6d:7d:43:57:5f:f2:92:bd:b1:07:63:
                    60:e3:3f:b0:de:93:2d:a4:26:3f:ff:62:ed:77:ad:
                    65:9a:c7:77:a6:58:e2:51:2f:f9:c4:01:d1:07:10:
                    d8:63:a1:be:24:b5:cf:8f:a9:6e:84:86:4b:74:2c:
                    c1:bc:9d:2d:77:0e:48:f1:cc:64:e0:d2:ad:0b:13:
                    33:09:8f:d1:4c:4c:9a:82:e2:1e:3f:30:43:69:3d:
                    18:40:04:19:e7:bb:9c:38:0b:9c:b3:cb:cc:bd:c0:
                    c2:ef:1a:70:cd:89:c8:48:96:67:78:d5:e6:db:a5:
                    68:ab:c3:d0:4e:e5:bc:c9:eb:d4:0b:b8:af:36:3e:
                    3a:13:d7:07:ab:06:36:23:c4:d1:fb:a0:95:d3:d6:
                    ff:a5:a7:bf:57:c0:86:c0:bb:e0:46:e4:4f:d2:a2:
                    f7:64:45
                Exponent: 65537 (0x10001)
        X509v3 extensions:
            X509v3 Basic Constraints: 
                CA:FALSE
            Netscape Comment: 
                Easy-RSA Generated Certificate
            X509v3 Subject Key Identifier: 
                B7:BC:07:20:6F:C9:62:15:70:3F:82:B5:18:39:8C:7A:EB:5E:E8:9B
            X509v3 Authority Key Identifier: 
                keyid:EF:38:8D:14:50:58:A7:5B:4D:9C:17:72:FC:DF:B9:AC:A7:51:B0:10
                DirName:/C=US/ST=CA/L=SanFrancisco/O=Pixglo, Inc./OU=VPN-CIE/CN=tunnel.pixglo.com/name=Bala Chandrasekaran/emailAddress=bala@pixglo.com
                serial:A6:DB:C6:83:80:E6:A0:79

            X509v3 Extended Key Usage: 
                TLS Web Client Authentication
            X509v3 Key Usage: 
                Digital Signature
    Signature Algorithm: sha1WithRSAEncryption
         0d:37:56:1a:a8:b1:5c:7f:cb:8c:57:29:2a:27:47:dc:c2:67:
         8a:eb:41:93:03:87:6b:71:a8:2f:37:ff:b7:24:e0:28:78:0a:
         01:ac:d0:9c:7d:fb:01:de:d7:de:1f:ff:ff:8c:db:2b:28:5d:
         4e:80:91:2e:e2:43:1f:29:5b:da:6c:7a:02:39:30:ef:c5:a3:
         11:c6:2e:c3:ca:49:88:96:8d:8f:17:79:e9:6c:21:12:e3:52:
         f0:0e:61:fb:fe:24:50:9d:4b:13:77:89:01:ee:bd:cf:06:74:
         c3:ba:43:8b:66:db:41:5a:13:d7:29:d1:d0:a0:0d:b5:c2:64:
         a9:a2:16:75:3c:89:7a:2d:d0:76:66:1a:c9:f2:93:f2:14:c3:
         70:41:de:18:79:f6:44:d8:43:13:f1:29:f5:bf:ef:36:18:a7:
         1f:77:22:a1:d4:16:c4:1a:4c:cb:91:f0:1b:99:c4:35:87:e6:
         09:5e:fc:ee:1f:30:19:f7:61:b4:a8:42:4b:fe:82:e9:49:91:
         b8:f2:db:88:5e:a1:33:42:36:e0:ff:fa:f4:1c:30:5e:49:a3:
         b6:d2:74:df:a7:9a:c2:66:d8:c5:83:d4:a3:df:08:58:cc:9a:
         ad:3a:8e:9b:46:5a:66:fb:eb:ca:fe:c7:b0:cf:e2:94:1d:f7:
         39:94:5f:65:0c:93:06:21:09:6f:82:10:7e:d9:9e:4e:76:99:
         ae:77:09:e2:1f:e9:cf:b4:16:a2:85:90:51:8b:98:35:e4:e7:
         1f:35:ff:1c:a1:a3:41:a5:4a:fd:1d:c3:5f:b9:7c:87:6f:9b:
         db:8d:a8:2d:bf:0f:0d:13:7d:5e:fb:18:c4:42:bb:af:4c:7e:
         50:47:45:3a:24:c3:b8:d6:fe:0a:ed:c3:81:40:81:a6:90:0d:
         6c:9e:9c:21:2c:04:99:21:4d:53:07:71:a2:bb:aa:4c:49:83:
         a5:6e:0c:99:29:72:96:d9:ff:f1:7b:b8:d1:c5:79:a5:85:b2:
         f3:45:9f:47:1c:53:22:b7:aa:5c:fc:52:9d:47:53:61:db:b0:
         d6:35:63:71:90:b6:72:d1:3e:18:47:f8:f6:07:11:96:93:9c:
         15:7d:15:53:6c:73:52:7b:0e:2b:6c:e7:09:39:73:c9:2e:69:
         c5:86:87:ff:2a:95:2a:1f:38:9e:e3:c6:94:31:80:34:07:94:
         cb:e4:41:a9:91:86:a7:cc:da:a1:90:2b:05:6e:fc:99:dd:ff:
         ca:d7:7a:88:27:96:fe:61:4f:4a:0f:e4:d3:88:82:36:d5:ea:
         69:ad:19:a5:1c:53:71:f4:57:29:5b:fe:22:28:b0:f6:8a:31:
         23:cc:9b:93:54:2c:59:f4
-----BEGIN CERTIFICATE-----
MIIHSDCCBTCgAwIBAgICAtUwDQYJKoZIhvcNAQEFBQAwgbQxCzAJBgNVBAYTAlVT
MQswCQYDVQQIEwJDQTEVMBMGA1UEBxMMU2FuRnJhbmNpc2NvMRUwEwYDVQQKEwxQ
aXhnbG8sIEluYy4xEDAOBgNVBAsTB1ZQTi1DSUUxGjAYBgNVBAMTEXR1bm5lbC5w
aXhnbG8uY29tMRwwGgYDVQQpExNCYWxhIENoYW5kcmFzZWthcmFuMR4wHAYJKoZI
hvcNAQkBFg9iYWxhQHBpeGdsby5jb20wHhcNMTgwMjE0MDY0MTM0WhcNMjgwMjEy
MDY0MTM0WjCBqTELMAkGA1UEBhMCVVMxCzAJBgNVBAgTAkNBMRUwEwYDVQQHEwxT
YW5GcmFuY2lzY28xFTATBgNVBAoTDFBpeGdsbywgSW5jLjEQMA4GA1UECxMHVlBO
LUNJRTEPMA0GA1UEAxMGY2llNzI0MRwwGgYDVQQpExNCYWxhIENoYW5kcmFzZWth
cmFuMR4wHAYJKoZIhvcNAQkBFg9iYWxhQHBpeGdsby5jb20wggIiMA0GCSqGSIb3
DQEBAQUAA4ICDwAwggIKAoICAQDaKgqIBLcWYN3j46TACfv8/1ToUxtsBc6y2IuF
sdNJm8AnEndhhh49k6UVPMpqn+ItpN2Z55I311vHTYSWCFJmpJ4m+X3OLiyWywhL
U9r2fADYQ8nAbYhTv/CzoriQnoYwgcg9YiLk4g4o8nOMi2X16S42lO2A5AKTdU63
9huNf7+TkvkwlKE5eDAC7wO6B8oP5THesqlucMFuZTmT1IeBL9Roe/usxIbg/q/k
YzeymX2cq4zV98rS2qknVoARzA5nKO43+5osmIz6YAf9cSvaf3IQ0cNHgCSr/TV/
mU00BG4n3FHE9lFtGX4aLoPIDCvtURUKRKcV2v82VAQSavvRfjc/OfzGWIpe8fkc
cT6lV0ze916SYf+imeR2+kFeCgi1QnydAnkDzV9EAgUFnAmDC+SmxvCn0G7EYkDu
dRdlV+XC930WZc35+yZBJrKgrqb7iz10C68v7OQFJF1tfUNXX/KSvbEHY2DjP7De
ky2kJj//Yu13rWWax3emWOJRL/nEAdEHENhjob4ktc+PqW6Ehkt0LMG8nS13Dkjx
zGTg0q0LEzMJj9FMTJqC4h4/MENpPRhABBnnu5w4C5yzy8y9wMLvGnDNichIlmd4
1ebbpWirw9BO5bzJ69QLuK82PjoT1werBjYjxNH7oJXT1v+lp79XwIbAu+BG5E/S
ovdkRQIDAQABo4IBazCCAWcwCQYDVR0TBAIwADAtBglghkgBhvhCAQ0EIBYeRWFz
eS1SU0EgR2VuZXJhdGVkIENlcnRpZmljYXRlMB0GA1UdDgQWBBS3vAcgb8liFXA/
grUYOYx6617omzCB6QYDVR0jBIHhMIHegBTvOI0UUFinW02cF3L837msp1GwEKGB
uqSBtzCBtDELMAkGA1UEBhMCVVMxCzAJBgNVBAgTAkNBMRUwEwYDVQQHEwxTYW5G
cmFuY2lzY28xFTATBgNVBAoTDFBpeGdsbywgSW5jLjEQMA4GA1UECxMHVlBOLUNJ
RTEaMBgGA1UEAxMRdHVubmVsLnBpeGdsby5jb20xHDAaBgNVBCkTE0JhbGEgQ2hh
bmRyYXNla2FyYW4xHjAcBgkqhkiG9w0BCQEWD2JhbGFAcGl4Z2xvLmNvbYIJAKbb
xoOA5qB5MBMGA1UdJQQMMAoGCCsGAQUFBwMCMAsGA1UdDwQEAwIHgDANBgkqhkiG
9w0BAQUFAAOCAgEADTdWGqixXH/LjFcpKidH3MJniutBkwOHa3GoLzf/tyTgKHgK
AazQnH37Ad7X3h///4zbKyhdToCRLuJDHylb2mx6Ajkw78WjEcYuw8pJiJaNjxd5
6WwhEuNS8A5h+/4kUJ1LE3eJAe69zwZ0w7pDi2bbQVoT1ynR0KANtcJkqaIWdTyJ
ei3QdmYayfKT8hTDcEHeGHn2RNhDE/Ep9b/vNhinH3ciodQWxBpMy5HwG5nENYfm
CV787h8wGfdhtKhCS/6C6UmRuPLbiF6hM0I24P/69BwwXkmjttJ036eawmbYxYPU
o98IWMyarTqOm0ZaZvvryv7HsM/ilB33OZRfZQyTBiEJb4IQftmeTnaZrncJ4h/p
z7QWooWQUYuYNeTnHzX/HKGjQaVK/R3DX7l8h2+b242oLb8PDRN9XvsYxEK7r0x+
UEdFOiTDuNb+Cu3DgUCBppANbJ6cISwEmSFNUwdxoruqTEmDpW4MmSlyltn/8Xu4
0cV5pYWy80WfRxxTIreqXPxSnUdTYduw1jVjcZC2ctE+GEf49gcRlpOcFX0VU2xz
UnsOK2znCTlzyS5pxYaH/yqVKh84nuPGlDGANAeUy+RBqZGGp8zaoZArBW78md3/
ytd6iCeW/mFPSg/k04iCNtXqaa0ZpRxTcfRXKVv+Iiiw9ooxI8ybk1QsWfQ=
-----END CERTIFICATE-----
