Certificate:
    Data:
        Version: 3 (0x2)
        Serial Number: 778 (0x30a)
    Signature Algorithm: sha1WithRSAEncryption
        Issuer: C=US, ST=CA, L=SanFrancisco, O=Pixglo, Inc., OU=VPN-CIE, CN=tunnel.pixglo.com/name=Bala Chandrasekaran/emailAddress=bala@pixglo.com
        Validity
            Not Before: Feb 14 06:43:18 2018 GMT
            Not After : Feb 12 06:43:18 2028 GMT
        Subject: C=US, ST=CA, L=SanFrancisco, O=Pixglo, Inc., OU=VPN-CIE, CN=cie777/name=Bala Chandrasekaran/emailAddress=bala@pixglo.com
        Subject Public Key Info:
            Public Key Algorithm: rsaEncryption
                Public-Key: (4096 bit)
                Modulus:
                    00:b4:ea:50:6d:ea:c2:dc:37:9a:73:d3:d9:a4:6f:
                    11:f8:47:6a:82:3b:ac:f5:3c:1e:ab:ac:f0:dd:94:
                    26:26:4a:4d:bb:68:96:81:ff:52:9d:f9:83:c2:c4:
                    8a:bc:74:d2:10:b4:c6:c4:68:48:fc:09:c8:98:c5:
                    72:64:e2:2f:7c:0f:a5:29:65:fd:c3:65:26:42:f7:
                    0d:d6:2b:f9:b0:27:6b:90:ee:c8:fb:f7:2a:1a:2f:
                    65:df:79:41:2d:90:0b:ad:b7:56:4d:3b:f1:e4:b5:
                    36:81:a0:8f:ef:9e:06:f4:68:ae:3a:c9:94:14:89:
                    41:5e:d9:38:12:da:cb:fb:57:5e:ef:08:a4:52:19:
                    b5:76:fb:60:1b:9f:c1:87:7a:51:d3:7e:9f:2c:86:
                    9a:a1:c0:36:67:67:b5:b7:24:90:25:3e:9d:2e:25:
                    16:ab:80:42:e2:20:4e:85:e4:72:7a:91:1b:37:28:
                    3b:56:e6:91:ad:71:e5:a3:ed:ed:1b:e3:56:ab:1d:
                    8f:75:79:41:e7:b7:2d:a4:33:03:8a:8d:1e:e1:a6:
                    4d:df:bf:e5:a8:89:f4:c9:5a:97:a5:6f:17:64:31:
                    37:19:5c:a7:98:0f:a5:f5:0d:98:d9:2e:42:fc:f2:
                    5a:1c:a1:a3:09:34:36:fb:6f:6f:b9:90:01:6f:43:
                    a9:7f:d0:f0:b3:e6:0f:10:c2:f0:98:8c:e9:fc:1e:
                    64:95:64:f0:69:d3:2d:0f:99:50:1b:bc:b9:7d:d8:
                    7b:d8:ba:ca:cd:d2:8f:d8:f1:85:ba:06:1d:7e:99:
                    41:83:37:f3:b2:f4:5f:7e:b2:b0:70:68:32:d9:5a:
                    0d:02:c6:55:84:e1:b9:10:dc:ef:25:7f:5a:ea:5c:
                    0b:f9:47:58:14:dc:b6:c7:9a:ba:e6:0f:74:2d:1d:
                    7c:f4:ab:d8:50:b8:03:62:ba:b5:14:e1:ab:35:7b:
                    16:cd:58:cf:ab:0b:2d:f3:67:30:21:95:30:11:3b:
                    89:d5:c7:fb:34:ce:88:cc:54:52:67:ab:03:91:71:
                    dd:94:94:20:fb:81:ae:44:85:fb:e4:c5:85:73:ad:
                    c2:76:fe:66:81:19:af:62:c5:c5:3f:13:57:2e:cd:
                    9f:bf:52:66:f4:1f:f2:ff:0b:2e:f9:bd:bd:2a:c5:
                    2b:4b:f0:b5:38:0c:3b:bb:7b:b9:4d:04:45:ac:61:
                    9a:40:f8:c0:63:65:09:ca:ac:e9:55:95:b3:a6:67:
                    9e:aa:ef:68:e1:3a:f8:1d:a8:31:92:21:89:43:b3:
                    8d:76:ea:6e:82:ce:e9:74:31:73:6a:53:b6:e2:c5:
                    f8:5f:5f:b8:f9:cd:13:27:79:e2:41:30:1c:b6:64:
                    19:9c:bb
                Exponent: 65537 (0x10001)
        X509v3 extensions:
            X509v3 Basic Constraints: 
                CA:FALSE
            Netscape Comment: 
                Easy-RSA Generated Certificate
            X509v3 Subject Key Identifier: 
                FB:CC:EC:7C:19:FC:F6:38:C2:BE:EA:66:2C:AD:EF:46:9F:DF:22:CD
            X509v3 Authority Key Identifier: 
                keyid:EF:38:8D:14:50:58:A7:5B:4D:9C:17:72:FC:DF:B9:AC:A7:51:B0:10
                DirName:/C=US/ST=CA/L=SanFrancisco/O=Pixglo, Inc./OU=VPN-CIE/CN=tunnel.pixglo.com/name=Bala Chandrasekaran/emailAddress=bala@pixglo.com
                serial:A6:DB:C6:83:80:E6:A0:79

            X509v3 Extended Key Usage: 
                TLS Web Client Authentication
            X509v3 Key Usage: 
                Digital Signature
    Signature Algorithm: sha1WithRSAEncryption
         a7:51:72:b9:8f:f5:94:f9:61:01:2e:a0:1c:cd:5a:b1:fc:b3:
         a4:13:37:23:e4:62:cc:1b:7e:8a:15:cb:b0:a3:b7:9e:af:fb:
         f4:a1:c5:a8:2e:a7:c6:12:57:aa:00:bc:ee:ad:b5:62:9f:bf:
         22:ac:1c:24:67:3d:9d:0b:8e:a2:e0:1a:6a:64:4a:cc:27:31:
         56:56:be:0d:44:41:07:3b:97:7e:e7:c6:ab:fe:01:93:b8:a3:
         f8:8b:89:be:97:b6:0a:4f:3b:6a:9a:b9:3c:bb:25:cc:b1:2a:
         10:01:b4:29:95:0f:50:0f:18:f5:97:9d:a6:a0:02:fa:61:65:
         42:97:91:1e:6e:4e:7e:46:fb:d8:61:1e:0e:e2:cd:ec:fd:67:
         9e:ad:e6:83:bc:04:df:73:8d:84:0e:b5:f5:db:76:40:3f:69:
         66:22:11:61:0a:18:a4:b8:a3:7f:4c:48:97:3d:e8:36:27:84:
         fc:dd:cf:f6:5d:e3:94:d7:44:be:85:6e:08:38:1a:c7:19:ab:
         2a:32:76:50:68:a1:b9:c9:f9:62:45:e3:90:0f:0f:ab:11:29:
         f2:7f:97:17:6c:f9:d7:dd:2f:a8:d0:d1:8c:76:e7:38:80:43:
         66:02:50:db:ce:19:b2:05:30:de:eb:d0:80:96:af:73:75:a8:
         7a:ab:1e:3c:07:13:04:e9:8d:f7:3c:9d:fa:62:fa:b5:09:50:
         3d:ad:7a:6c:cc:57:17:2e:98:68:7a:34:06:ec:00:60:fe:c7:
         3d:28:5e:54:d1:f9:a8:d8:55:eb:41:30:c6:cf:0a:21:77:76:
         e2:99:d4:a3:e5:b7:16:70:c6:ac:91:98:b8:25:60:a9:e5:2a:
         73:35:a9:93:02:88:2d:d0:9d:6b:f6:2e:70:c8:ea:20:d3:30:
         1a:45:9f:c2:ea:de:f1:16:9b:16:32:1a:e1:dd:89:1d:49:2a:
         1b:ee:18:9a:d8:e8:57:57:e9:1c:8b:cd:3c:7a:ad:06:b5:45:
         31:16:a8:cf:02:7f:b6:7f:90:39:5b:34:76:b5:d0:4c:17:9f:
         bf:a8:94:0c:c2:50:97:20:0e:c0:9b:11:ed:1e:3d:02:6d:5f:
         bc:f3:2c:bd:17:21:f9:2d:27:f2:5d:99:5e:57:16:76:c3:6f:
         3c:45:f2:08:72:4d:fa:5f:c7:f6:1a:10:74:11:ea:ab:74:50:
         3b:4c:87:47:1b:7e:f2:74:22:7b:84:ab:d2:03:ab:4d:7d:68:
         84:1d:f2:51:9c:6a:1c:8c:3f:b4:34:2f:52:31:df:4b:6b:d1:
         55:42:2c:78:e0:0a:71:34:8b:c5:65:8e:81:45:ba:d4:d9:f9:
         fa:7c:ec:e4:12:b4:58:db
-----BEGIN CERTIFICATE-----
MIIHSDCCBTCgAwIBAgICAwowDQYJKoZIhvcNAQEFBQAwgbQxCzAJBgNVBAYTAlVT
MQswCQYDVQQIEwJDQTEVMBMGA1UEBxMMU2FuRnJhbmNpc2NvMRUwEwYDVQQKEwxQ
aXhnbG8sIEluYy4xEDAOBgNVBAsTB1ZQTi1DSUUxGjAYBgNVBAMTEXR1bm5lbC5w
aXhnbG8uY29tMRwwGgYDVQQpExNCYWxhIENoYW5kcmFzZWthcmFuMR4wHAYJKoZI
hvcNAQkBFg9iYWxhQHBpeGdsby5jb20wHhcNMTgwMjE0MDY0MzE4WhcNMjgwMjEy
MDY0MzE4WjCBqTELMAkGA1UEBhMCVVMxCzAJBgNVBAgTAkNBMRUwEwYDVQQHEwxT
YW5GcmFuY2lzY28xFTATBgNVBAoTDFBpeGdsbywgSW5jLjEQMA4GA1UECxMHVlBO
LUNJRTEPMA0GA1UEAxMGY2llNzc3MRwwGgYDVQQpExNCYWxhIENoYW5kcmFzZWth
cmFuMR4wHAYJKoZIhvcNAQkBFg9iYWxhQHBpeGdsby5jb20wggIiMA0GCSqGSIb3
DQEBAQUAA4ICDwAwggIKAoICAQC06lBt6sLcN5pz09mkbxH4R2qCO6z1PB6rrPDd
lCYmSk27aJaB/1Kd+YPCxIq8dNIQtMbEaEj8CciYxXJk4i98D6UpZf3DZSZC9w3W
K/mwJ2uQ7sj79yoaL2XfeUEtkAutt1ZNO/HktTaBoI/vngb0aK46yZQUiUFe2TgS
2sv7V17vCKRSGbV2+2Abn8GHelHTfp8shpqhwDZnZ7W3JJAlPp0uJRargELiIE6F
5HJ6kRs3KDtW5pGtceWj7e0b41arHY91eUHnty2kMwOKjR7hpk3fv+WoifTJWpel
bxdkMTcZXKeYD6X1DZjZLkL88locoaMJNDb7b2+5kAFvQ6l/0PCz5g8QwvCYjOn8
HmSVZPBp0y0PmVAbvLl92HvYusrN0o/Y8YW6Bh1+mUGDN/Oy9F9+srBwaDLZWg0C
xlWE4bkQ3O8lf1rqXAv5R1gU3LbHmrrmD3QtHXz0q9hQuANiurUU4as1exbNWM+r
Cy3zZzAhlTARO4nVx/s0zojMVFJnqwORcd2UlCD7ga5EhfvkxYVzrcJ2/maBGa9i
xcU/E1cuzZ+/Umb0H/L/Cy75vb0qxStL8LU4DDu7e7lNBEWsYZpA+MBjZQnKrOlV
lbOmZ56q72jhOvgdqDGSIYlDs4126m6Czul0MXNqU7bixfhfX7j5zRMneeJBMBy2
ZBmcuwIDAQABo4IBazCCAWcwCQYDVR0TBAIwADAtBglghkgBhvhCAQ0EIBYeRWFz
eS1SU0EgR2VuZXJhdGVkIENlcnRpZmljYXRlMB0GA1UdDgQWBBT7zOx8Gfz2OMK+
6mYsre9Gn98izTCB6QYDVR0jBIHhMIHegBTvOI0UUFinW02cF3L837msp1GwEKGB
uqSBtzCBtDELMAkGA1UEBhMCVVMxCzAJBgNVBAgTAkNBMRUwEwYDVQQHEwxTYW5G
cmFuY2lzY28xFTATBgNVBAoTDFBpeGdsbywgSW5jLjEQMA4GA1UECxMHVlBOLUNJ
RTEaMBgGA1UEAxMRdHVubmVsLnBpeGdsby5jb20xHDAaBgNVBCkTE0JhbGEgQ2hh
bmRyYXNla2FyYW4xHjAcBgkqhkiG9w0BCQEWD2JhbGFAcGl4Z2xvLmNvbYIJAKbb
xoOA5qB5MBMGA1UdJQQMMAoGCCsGAQUFBwMCMAsGA1UdDwQEAwIHgDANBgkqhkiG
9w0BAQUFAAOCAgEAp1FyuY/1lPlhAS6gHM1asfyzpBM3I+RizBt+ihXLsKO3nq/7
9KHFqC6nxhJXqgC87q21Yp+/IqwcJGc9nQuOouAaamRKzCcxVla+DURBBzuXfufG
q/4Bk7ij+IuJvpe2Ck87apq5PLslzLEqEAG0KZUPUA8Y9ZedpqAC+mFlQpeRHm5O
fkb72GEeDuLN7P1nnq3mg7wE33ONhA619dt2QD9pZiIRYQoYpLijf0xIlz3oNieE
/N3P9l3jlNdEvoVuCDgaxxmrKjJ2UGihucn5YkXjkA8PqxEp8n+XF2z5190vqNDR
jHbnOIBDZgJQ284ZsgUw3uvQgJavc3WoeqsePAcTBOmN9zyd+mL6tQlQPa16bMxX
Fy6YaHo0BuwAYP7HPSheVNH5qNhV60Ewxs8KIXd24pnUo+W3FnDGrJGYuCVgqeUq
czWpkwKILdCda/YucMjqINMwGkWfwure8RabFjIa4d2JHUkqG+4YmtjoV1fpHIvN
PHqtBrVFMRaozwJ/tn+QOVs0drXQTBefv6iUDMJQlyAOwJsR7R49Am1fvPMsvRch
+S0n8l2ZXlcWdsNvPEXyCHJN+l/H9hoQdBHqq3RQO0yHRxt+8nQie4Sr0gOrTX1o
hB3yUZxqHIw/tDQvUjHfS2vRVUIseOAKcTSLxWWOgUW61Nn5+nzs5BK0WNs=
-----END CERTIFICATE-----
