Certificate:
    Data:
        Version: 3 (0x2)
        Serial Number: 721 (0x2d1)
    Signature Algorithm: sha1WithRSAEncryption
        Issuer: C=US, ST=CA, L=SanFrancisco, O=Pixglo, Inc., OU=VPN-CIE, CN=tunnel.pixglo.com/name=Bala Chandrasekaran/emailAddress=bala@pixglo.com
        Validity
            Not Before: Feb 14 06:41:29 2018 GMT
            Not After : Feb 12 06:41:29 2028 GMT
        Subject: C=US, ST=CA, L=SanFrancisco, O=Pixglo, Inc., OU=VPN-CIE, CN=cie720/name=Bala Chandrasekaran/emailAddress=bala@pixglo.com
        Subject Public Key Info:
            Public Key Algorithm: rsaEncryption
                Public-Key: (4096 bit)
                Modulus:
                    00:b1:55:ab:ff:81:77:85:c0:c3:b9:d6:b0:28:89:
                    3e:7e:27:e7:80:1c:9e:15:16:e8:d8:97:db:39:57:
                    0f:f9:02:00:43:78:84:42:56:2b:3e:74:a6:ab:37:
                    73:92:a2:4b:79:10:f2:92:47:7c:08:70:1d:f6:a0:
                    1d:87:cf:21:bb:66:37:2f:ee:df:c1:1a:99:c5:3f:
                    66:bd:95:c4:bf:31:94:c8:2b:a1:ad:a2:bc:d3:de:
                    a9:26:b8:83:c5:34:e6:2e:b7:4c:6e:9c:48:fa:57:
                    d6:5d:1a:5c:5a:a6:1d:21:de:47:c2:7e:4a:48:96:
                    08:61:49:95:16:86:51:83:56:73:39:68:ae:71:ad:
                    c7:1b:55:3f:72:5e:36:c9:ce:fb:6e:cd:da:3a:4c:
                    ba:90:6b:f3:c1:0f:df:ac:f4:c1:18:54:63:48:a0:
                    56:66:a9:cd:7a:fd:56:81:75:1f:ca:0d:d0:63:57:
                    5f:1e:b4:7a:36:9a:c9:3a:74:e4:46:26:d2:a5:3f:
                    9a:1c:cf:37:3c:8d:f0:fa:88:74:cd:3b:c4:cb:20:
                    08:0e:74:ed:c2:0d:73:a9:69:81:a8:f3:40:69:72:
                    c3:b1:88:c2:a3:21:f4:27:e1:fe:24:12:8d:f2:66:
                    93:d6:cb:e1:fa:21:da:b6:e5:00:ac:b1:10:7a:23:
                    68:78:37:82:be:4f:3b:c5:29:af:6a:a9:42:c0:59:
                    99:f9:52:f0:e4:29:2b:e9:f5:a3:72:2a:56:d6:8a:
                    2c:fa:1b:86:25:c5:de:72:fc:c7:5b:a3:0c:40:ca:
                    60:d0:21:13:29:46:fd:b7:8f:90:f7:bf:df:58:6e:
                    94:b2:58:8e:24:64:22:a3:77:57:ba:4f:51:ec:68:
                    8a:52:40:f1:b3:21:d2:fe:4a:12:50:9a:c5:e0:38:
                    b0:1f:13:14:b8:f4:fa:09:6d:ee:96:46:39:ff:ad:
                    c6:46:82:36:b2:13:f1:36:5f:d9:b3:b5:ca:b0:78:
                    82:e5:51:28:a7:d5:be:b7:cb:4c:04:c6:9e:9c:92:
                    ca:63:8b:5c:97:f1:12:f4:26:a7:48:05:2d:f4:f1:
                    65:f2:5e:60:d3:c6:c8:72:3f:1e:12:24:fa:e0:ef:
                    cd:a7:69:dd:c3:8d:94:f7:c1:cc:b0:0a:9a:6b:5b:
                    cd:3e:f4:e0:e1:11:80:b0:1f:7e:7d:9b:ca:bb:31:
                    6f:81:e6:68:14:c9:a6:47:3a:31:fd:f2:ac:67:82:
                    e9:d9:5e:86:c0:32:16:06:6d:48:74:e9:51:78:60:
                    ad:3e:45:b3:8c:98:f0:47:d3:92:24:1e:a9:35:d6:
                    fc:9a:67:55:0d:1b:51:9b:dd:37:32:1f:a7:ec:75:
                    b8:b6:1f
                Exponent: 65537 (0x10001)
        X509v3 extensions:
            X509v3 Basic Constraints: 
                CA:FALSE
            Netscape Comment: 
                Easy-RSA Generated Certificate
            X509v3 Subject Key Identifier: 
                27:73:0A:0D:0C:85:39:0A:EC:44:8E:CD:7C:C8:77:E9:58:92:01:45
            X509v3 Authority Key Identifier: 
                keyid:EF:38:8D:14:50:58:A7:5B:4D:9C:17:72:FC:DF:B9:AC:A7:51:B0:10
                DirName:/C=US/ST=CA/L=SanFrancisco/O=Pixglo, Inc./OU=VPN-CIE/CN=tunnel.pixglo.com/name=Bala Chandrasekaran/emailAddress=bala@pixglo.com
                serial:A6:DB:C6:83:80:E6:A0:79

            X509v3 Extended Key Usage: 
                TLS Web Client Authentication
            X509v3 Key Usage: 
                Digital Signature
    Signature Algorithm: sha1WithRSAEncryption
         71:b4:20:bb:3f:b5:61:4b:11:9a:d2:54:4d:58:69:2b:27:27:
         88:6b:60:d5:95:1e:57:a8:45:87:f2:37:8e:fd:3e:73:67:f5:
         df:01:8f:25:8e:a1:19:1a:37:12:cb:fd:27:09:da:f8:5f:9b:
         0e:cc:26:da:e2:51:04:bf:02:31:e3:c7:01:ff:48:f0:47:40:
         e1:e8:fb:7e:55:82:d9:ce:98:17:25:4b:94:60:28:62:b6:e8:
         3a:7c:f2:37:36:a9:21:0f:6a:f6:26:2f:0a:c4:48:05:22:05:
         cd:0e:f7:c9:71:3c:5a:fd:97:30:b7:e1:c5:db:e6:b7:bc:57:
         48:c1:6a:12:dc:46:58:57:29:1a:82:c9:1d:72:ae:a0:b6:59:
         c5:6c:87:61:d1:55:57:17:16:1a:c4:54:4c:a7:9b:99:60:e9:
         f7:81:d6:5e:26:24:85:4d:ec:dd:8b:35:8e:3e:c8:cb:d4:71:
         23:37:76:f1:1a:96:c8:cc:ea:0e:d8:3d:2c:b8:b8:65:58:94:
         e1:0a:fb:57:ab:40:5e:d0:76:a1:7e:f8:9c:da:03:be:82:1d:
         ad:c8:55:4d:ab:cf:00:89:d3:91:e8:7b:8a:3d:eb:70:36:87:
         4b:a4:2b:4d:11:9f:77:ba:de:89:1c:41:7e:bf:5b:99:4c:40:
         64:be:b6:98:cd:c5:04:bc:8e:a7:8b:ca:b5:ca:16:1f:18:9d:
         b3:ac:09:8a:f7:7b:a8:ea:37:b5:0d:7c:bb:5b:ef:07:12:09:
         e1:66:db:ca:8b:9c:37:7e:e0:e9:00:a0:1d:f6:72:b2:c8:00:
         41:81:0d:74:93:e6:6c:7c:88:e8:47:6f:b9:3c:b6:ab:25:ac:
         8a:d7:2f:93:c0:5e:d5:2e:67:7c:ed:21:f7:02:2b:b1:ed:a9:
         f6:11:b0:b1:f3:60:dc:04:5d:56:e5:e1:a3:bc:fa:a5:52:90:
         ed:6f:db:fb:55:bc:0b:5c:e1:49:4d:bd:9e:e9:b6:64:20:99:
         05:57:bc:df:4d:97:dc:4b:fc:58:57:65:c3:27:c9:2f:09:9b:
         26:93:92:d2:44:e2:8e:f6:ed:c1:12:d9:66:69:df:39:0c:49:
         a1:e1:17:8f:b7:06:f6:fa:c5:91:a3:8a:db:34:df:8f:dd:f6:
         c5:4f:9b:c8:7f:ac:44:3f:6f:a9:98:3e:97:8a:a8:30:4e:1c:
         8e:64:a5:b8:5f:b2:95:fa:68:02:e2:5d:a4:e7:e3:15:80:7f:
         12:6e:80:ea:d0:c4:b2:19:18:7e:7f:be:88:db:81:77:2f:90:
         40:20:cd:f8:80:94:7d:32:f1:6c:b2:01:98:85:42:f4:95:62:
         e9:97:a0:70:97:9d:c7:0e
-----BEGIN CERTIFICATE-----
MIIHSDCCBTCgAwIBAgICAtEwDQYJKoZIhvcNAQEFBQAwgbQxCzAJBgNVBAYTAlVT
MQswCQYDVQQIEwJDQTEVMBMGA1UEBxMMU2FuRnJhbmNpc2NvMRUwEwYDVQQKEwxQ
aXhnbG8sIEluYy4xEDAOBgNVBAsTB1ZQTi1DSUUxGjAYBgNVBAMTEXR1bm5lbC5w
aXhnbG8uY29tMRwwGgYDVQQpExNCYWxhIENoYW5kcmFzZWthcmFuMR4wHAYJKoZI
hvcNAQkBFg9iYWxhQHBpeGdsby5jb20wHhcNMTgwMjE0MDY0MTI5WhcNMjgwMjEy
MDY0MTI5WjCBqTELMAkGA1UEBhMCVVMxCzAJBgNVBAgTAkNBMRUwEwYDVQQHEwxT
YW5GcmFuY2lzY28xFTATBgNVBAoTDFBpeGdsbywgSW5jLjEQMA4GA1UECxMHVlBO
LUNJRTEPMA0GA1UEAxMGY2llNzIwMRwwGgYDVQQpExNCYWxhIENoYW5kcmFzZWth
cmFuMR4wHAYJKoZIhvcNAQkBFg9iYWxhQHBpeGdsby5jb20wggIiMA0GCSqGSIb3
DQEBAQUAA4ICDwAwggIKAoICAQCxVav/gXeFwMO51rAoiT5+J+eAHJ4VFujYl9s5
Vw/5AgBDeIRCVis+dKarN3OSokt5EPKSR3wIcB32oB2HzyG7Zjcv7t/BGpnFP2a9
lcS/MZTIK6GtorzT3qkmuIPFNOYut0xunEj6V9ZdGlxaph0h3kfCfkpIlghhSZUW
hlGDVnM5aK5xrccbVT9yXjbJzvtuzdo6TLqQa/PBD9+s9MEYVGNIoFZmqc16/VaB
dR/KDdBjV18etHo2msk6dORGJtKlP5oczzc8jfD6iHTNO8TLIAgOdO3CDXOpaYGo
80BpcsOxiMKjIfQn4f4kEo3yZpPWy+H6Idq25QCssRB6I2h4N4K+TzvFKa9qqULA
WZn5UvDkKSvp9aNyKlbWiiz6G4Ylxd5y/MdbowxAymDQIRMpRv23j5D3v99YbpSy
WI4kZCKjd1e6T1HsaIpSQPGzIdL+ShJQmsXgOLAfExS49PoJbe6WRjn/rcZGgjay
E/E2X9mztcqweILlUSin1b63y0wExp6ckspji1yX8RL0JqdIBS308WXyXmDTxshy
Px4SJPrg782nad3DjZT3wcywCpprW80+9ODhEYCwH359m8q7MW+B5mgUyaZHOjH9
8qxngunZXobAMhYGbUh06VF4YK0+RbOMmPBH05IkHqk11vyaZ1UNG1Gb3TcyH6fs
dbi2HwIDAQABo4IBazCCAWcwCQYDVR0TBAIwADAtBglghkgBhvhCAQ0EIBYeRWFz
eS1SU0EgR2VuZXJhdGVkIENlcnRpZmljYXRlMB0GA1UdDgQWBBQncwoNDIU5CuxE
js18yHfpWJIBRTCB6QYDVR0jBIHhMIHegBTvOI0UUFinW02cF3L837msp1GwEKGB
uqSBtzCBtDELMAkGA1UEBhMCVVMxCzAJBgNVBAgTAkNBMRUwEwYDVQQHEwxTYW5G
cmFuY2lzY28xFTATBgNVBAoTDFBpeGdsbywgSW5jLjEQMA4GA1UECxMHVlBOLUNJ
RTEaMBgGA1UEAxMRdHVubmVsLnBpeGdsby5jb20xHDAaBgNVBCkTE0JhbGEgQ2hh
bmRyYXNla2FyYW4xHjAcBgkqhkiG9w0BCQEWD2JhbGFAcGl4Z2xvLmNvbYIJAKbb
xoOA5qB5MBMGA1UdJQQMMAoGCCsGAQUFBwMCMAsGA1UdDwQEAwIHgDANBgkqhkiG
9w0BAQUFAAOCAgEAcbQguz+1YUsRmtJUTVhpKycniGtg1ZUeV6hFh/I3jv0+c2f1
3wGPJY6hGRo3Esv9Jwna+F+bDswm2uJRBL8CMePHAf9I8EdA4ej7flWC2c6YFyVL
lGAoYrboOnzyNzapIQ9q9iYvCsRIBSIFzQ73yXE8Wv2XMLfhxdvmt7xXSMFqEtxG
WFcpGoLJHXKuoLZZxWyHYdFVVxcWGsRUTKebmWDp94HWXiYkhU3s3Ys1jj7Iy9Rx
Izd28RqWyMzqDtg9LLi4ZViU4Qr7V6tAXtB2oX74nNoDvoIdrchVTavPAInTkeh7
ij3rcDaHS6QrTRGfd7reiRxBfr9bmUxAZL62mM3FBLyOp4vKtcoWHxids6wJivd7
qOo3tQ18u1vvBxIJ4WbbyoucN37g6QCgHfZyssgAQYENdJPmbHyI6EdvuTy2qyWs
itcvk8Be1S5nfO0h9wIrse2p9hGwsfNg3ARdVuXho7z6pVKQ7W/b+1W8C1zhSU29
num2ZCCZBVe8302X3Ev8WFdlwyfJLwmbJpOS0kTijvbtwRLZZmnfOQxJoeEXj7cG
9vrFkaOK2zTfj932xU+byH+sRD9vqZg+l4qoME4cjmSluF+ylfpoAuJdpOfjFYB/
Em6A6tDEshkYfn++iNuBdy+QQCDN+ICUfTLxbLIBmIVC9JVi6ZegcJedxw4=
-----END CERTIFICATE-----
