Certificate:
    Data:
        Version: 3 (0x2)
        Serial Number: 788 (0x314)
    Signature Algorithm: sha1WithRSAEncryption
        Issuer: C=US, ST=CA, L=SanFrancisco, O=Pixglo, Inc., OU=VPN-CIE, CN=tunnel.pixglo.com/name=Bala Chandrasekaran/emailAddress=bala@pixglo.com
        Validity
            Not Before: Feb 14 06:43:38 2018 GMT
            Not After : Feb 12 06:43:38 2028 GMT
        Subject: C=US, ST=CA, L=SanFrancisco, O=Pixglo, Inc., OU=VPN-CIE, CN=cie787/name=Bala Chandrasekaran/emailAddress=bala@pixglo.com
        Subject Public Key Info:
            Public Key Algorithm: rsaEncryption
                Public-Key: (4096 bit)
                Modulus:
                    00:d5:4c:09:52:95:0f:15:75:ff:a0:9e:a0:36:f5:
                    cf:1c:85:24:b6:65:ca:38:94:37:dc:73:2a:a7:d5:
                    61:e4:26:40:23:63:09:22:fe:8c:6e:f4:12:64:63:
                    b4:56:e9:b0:9f:64:4b:b4:a4:da:10:31:b8:2c:86:
                    0d:3d:50:19:f9:d9:e5:cb:c4:8a:db:19:b8:df:9b:
                    52:11:12:d7:04:bf:73:27:44:f6:8a:40:9d:e2:2f:
                    f4:eb:cd:60:21:8b:9a:07:ee:69:e2:03:6d:83:d0:
                    24:3b:41:54:f5:b0:03:1e:4c:bb:8b:3a:64:2c:c8:
                    52:a8:13:7c:05:76:44:d3:43:6f:06:b3:04:57:99:
                    07:08:e5:a2:b4:c2:d9:67:c9:8a:32:ee:c9:34:a0:
                    ab:b8:fd:86:ad:b4:76:21:4e:47:a3:40:2c:11:8a:
                    64:4d:01:66:1c:64:ee:63:c4:68:58:65:1b:28:39:
                    37:ab:04:36:8e:a2:f6:41:2d:78:98:f1:8b:29:65:
                    29:a5:0b:e5:8b:c8:a4:1c:5c:33:a7:db:e7:1e:c7:
                    f9:85:e7:ee:61:23:3e:85:8e:0e:49:50:17:8b:f9:
                    a5:a8:be:e2:1c:46:bf:6d:6b:f6:77:8d:81:37:1a:
                    6a:7b:e4:2a:6a:77:b3:d4:b5:c4:21:27:d6:a6:57:
                    e8:29:d6:58:03:fc:8f:fb:7e:2c:c3:f8:45:4f:83:
                    ef:dd:5d:28:db:34:34:cd:2e:0b:76:99:2c:c0:20:
                    70:3b:5c:ae:60:89:fa:33:3f:8c:3d:1b:7f:00:60:
                    c7:cc:dc:64:59:dd:dc:19:be:f6:38:6d:12:67:df:
                    5d:0f:09:4e:82:b0:a1:da:22:c9:f8:1a:8c:6c:7a:
                    2f:6b:4a:3b:bf:b2:80:cb:a6:7e:86:3b:56:de:7c:
                    c7:c0:65:27:ff:ea:d4:b8:a9:84:96:4b:54:05:c6:
                    9c:e3:ef:ac:86:06:81:2d:b8:e0:c2:71:c0:cf:74:
                    11:ab:c4:ed:60:73:bb:82:b0:0b:68:1a:63:fc:88:
                    f2:28:95:fb:f4:0d:1a:2b:27:ef:23:43:26:6e:6a:
                    88:e8:08:7c:01:05:98:b6:2f:56:4e:1f:75:2c:3b:
                    69:87:0f:d1:25:61:3d:b7:35:f3:5b:40:44:f6:42:
                    20:00:21:15:2b:99:3c:63:a8:e5:10:60:90:9f:8b:
                    6b:2a:5f:e1:e8:1e:5b:2c:f0:ed:f4:2c:83:be:3d:
                    cd:ef:45:44:3c:e2:dd:92:ec:c9:6c:21:a9:e5:8f:
                    fb:9d:e4:36:ee:d2:7e:de:dc:b7:01:19:fd:d5:95:
                    77:f6:8b:0f:14:04:63:fa:82:6d:5e:46:42:30:45:
                    82:36:51
                Exponent: 65537 (0x10001)
        X509v3 extensions:
            X509v3 Basic Constraints: 
                CA:FALSE
            Netscape Comment: 
                Easy-RSA Generated Certificate
            X509v3 Subject Key Identifier: 
                75:F8:28:B1:62:91:B3:F8:7C:44:13:63:81:FD:8B:E7:39:1E:5A:F8
            X509v3 Authority Key Identifier: 
                keyid:EF:38:8D:14:50:58:A7:5B:4D:9C:17:72:FC:DF:B9:AC:A7:51:B0:10
                DirName:/C=US/ST=CA/L=SanFrancisco/O=Pixglo, Inc./OU=VPN-CIE/CN=tunnel.pixglo.com/name=Bala Chandrasekaran/emailAddress=bala@pixglo.com
                serial:A6:DB:C6:83:80:E6:A0:79

            X509v3 Extended Key Usage: 
                TLS Web Client Authentication
            X509v3 Key Usage: 
                Digital Signature
    Signature Algorithm: sha1WithRSAEncryption
         1b:e9:e9:8f:84:7d:77:11:12:56:3f:f9:cb:97:ef:7b:0d:1c:
         54:a1:2a:f3:5a:9f:db:e2:c4:1c:6f:68:6d:27:74:da:51:5c:
         ba:8c:10:85:7c:3f:af:e7:33:03:99:49:d0:c2:9c:68:21:e7:
         6f:cd:d9:eb:ef:46:eb:13:83:02:ae:93:cb:9c:19:3b:a8:b0:
         f1:34:7a:b6:7d:f7:1e:27:b0:cd:79:b2:df:4c:d4:2c:a8:23:
         32:8b:cb:61:5c:8b:65:80:ad:09:67:37:b2:d9:82:62:0d:55:
         d8:10:93:c2:73:66:07:8f:2e:b7:79:c0:39:1d:de:27:23:06:
         6c:9d:40:4f:16:32:86:8e:c3:07:18:da:5d:c8:c7:7c:84:28:
         3b:40:90:73:33:97:93:aa:bf:67:3e:76:aa:d3:a7:f0:9b:53:
         84:b6:a7:b7:c6:7c:7b:ff:d0:10:8d:dc:aa:51:be:f1:0e:f8:
         94:b5:d2:92:24:c0:3f:c5:09:fd:38:6d:b5:07:cc:8d:8d:f7:
         04:56:5d:c2:e2:b8:a8:cf:8b:86:a5:7d:23:57:fa:2a:9a:77:
         52:5c:cf:90:8c:70:54:fd:04:5b:11:a9:46:d3:13:75:08:26:
         29:c4:74:f3:9e:a2:32:2a:f8:18:d9:e5:83:41:8b:ec:5d:65:
         15:e9:33:9a:5c:c7:8a:31:69:cd:40:d0:64:3a:cc:5a:11:5f:
         9d:0c:b3:05:f7:3b:32:54:1f:86:c0:96:9c:18:07:d5:4e:e4:
         55:6c:d3:37:26:36:9c:14:eb:1c:7d:02:46:c1:ed:d8:33:a2:
         e8:58:2d:42:b1:83:2f:f2:7b:cf:2a:e6:f1:fc:d3:d6:cf:2e:
         c2:c4:1f:b2:27:06:dc:08:ca:e3:f8:bc:e9:8c:70:5d:f0:8e:
         0b:2b:3c:97:b4:23:4c:49:49:1d:dc:1f:fe:64:85:a7:71:75:
         c6:53:20:f6:b6:e4:2a:f2:d2:b4:c3:0f:99:65:5d:f6:75:52:
         da:40:44:47:86:62:12:a9:34:18:4e:05:45:f3:b7:09:17:25:
         d6:c9:84:01:39:ec:e3:35:85:39:c0:04:e6:6d:01:f2:6c:a9:
         72:58:44:2a:b3:a1:ef:27:74:a0:f4:46:a5:45:27:57:91:cd:
         23:62:23:e6:87:d0:0d:97:60:79:8b:ca:9b:17:2d:e6:bc:79:
         06:55:d8:b2:5a:b9:de:4b:2f:9f:a8:26:ab:f8:31:0e:6c:28:
         54:7a:ff:60:ba:3c:79:67:96:f4:53:d9:53:6d:0a:27:7f:f4:
         73:3d:54:91:15:78:ed:51:cd:27:b1:bc:7d:2b:06:34:a6:9b:
         ee:4d:02:f2:b4:98:da:53
-----BEGIN CERTIFICATE-----
MIIHSDCCBTCgAwIBAgICAxQwDQYJKoZIhvcNAQEFBQAwgbQxCzAJBgNVBAYTAlVT
MQswCQYDVQQIEwJDQTEVMBMGA1UEBxMMU2FuRnJhbmNpc2NvMRUwEwYDVQQKEwxQ
aXhnbG8sIEluYy4xEDAOBgNVBAsTB1ZQTi1DSUUxGjAYBgNVBAMTEXR1bm5lbC5w
aXhnbG8uY29tMRwwGgYDVQQpExNCYWxhIENoYW5kcmFzZWthcmFuMR4wHAYJKoZI
hvcNAQkBFg9iYWxhQHBpeGdsby5jb20wHhcNMTgwMjE0MDY0MzM4WhcNMjgwMjEy
MDY0MzM4WjCBqTELMAkGA1UEBhMCVVMxCzAJBgNVBAgTAkNBMRUwEwYDVQQHEwxT
YW5GcmFuY2lzY28xFTATBgNVBAoTDFBpeGdsbywgSW5jLjEQMA4GA1UECxMHVlBO
LUNJRTEPMA0GA1UEAxMGY2llNzg3MRwwGgYDVQQpExNCYWxhIENoYW5kcmFzZWth
cmFuMR4wHAYJKoZIhvcNAQkBFg9iYWxhQHBpeGdsby5jb20wggIiMA0GCSqGSIb3
DQEBAQUAA4ICDwAwggIKAoICAQDVTAlSlQ8Vdf+gnqA29c8chSS2Zco4lDfccyqn
1WHkJkAjYwki/oxu9BJkY7RW6bCfZEu0pNoQMbgshg09UBn52eXLxIrbGbjfm1IR
EtcEv3MnRPaKQJ3iL/TrzWAhi5oH7mniA22D0CQ7QVT1sAMeTLuLOmQsyFKoE3wF
dkTTQ28GswRXmQcI5aK0wtlnyYoy7sk0oKu4/YattHYhTkejQCwRimRNAWYcZO5j
xGhYZRsoOTerBDaOovZBLXiY8YspZSmlC+WLyKQcXDOn2+cex/mF5+5hIz6Fjg5J
UBeL+aWovuIcRr9ta/Z3jYE3Gmp75Cpqd7PUtcQhJ9amV+gp1lgD/I/7fizD+EVP
g+/dXSjbNDTNLgt2mSzAIHA7XK5gifozP4w9G38AYMfM3GRZ3dwZvvY4bRJn310P
CU6CsKHaIsn4Goxsei9rSju/soDLpn6GO1befMfAZSf/6tS4qYSWS1QFxpzj76yG
BoEtuODCccDPdBGrxO1gc7uCsAtoGmP8iPIolfv0DRorJ+8jQyZuaojoCHwBBZi2
L1ZOH3UsO2mHD9ElYT23NfNbQET2QiAAIRUrmTxjqOUQYJCfi2sqX+HoHlss8O30
LIO+Pc3vRUQ84t2S7MlsIanlj/ud5Dbu0n7e3LcBGf3VlXf2iw8UBGP6gm1eRkIw
RYI2UQIDAQABo4IBazCCAWcwCQYDVR0TBAIwADAtBglghkgBhvhCAQ0EIBYeRWFz
eS1SU0EgR2VuZXJhdGVkIENlcnRpZmljYXRlMB0GA1UdDgQWBBR1+CixYpGz+HxE
E2OB/YvnOR5a+DCB6QYDVR0jBIHhMIHegBTvOI0UUFinW02cF3L837msp1GwEKGB
uqSBtzCBtDELMAkGA1UEBhMCVVMxCzAJBgNVBAgTAkNBMRUwEwYDVQQHEwxTYW5G
cmFuY2lzY28xFTATBgNVBAoTDFBpeGdsbywgSW5jLjEQMA4GA1UECxMHVlBOLUNJ
RTEaMBgGA1UEAxMRdHVubmVsLnBpeGdsby5jb20xHDAaBgNVBCkTE0JhbGEgQ2hh
bmRyYXNla2FyYW4xHjAcBgkqhkiG9w0BCQEWD2JhbGFAcGl4Z2xvLmNvbYIJAKbb
xoOA5qB5MBMGA1UdJQQMMAoGCCsGAQUFBwMCMAsGA1UdDwQEAwIHgDANBgkqhkiG
9w0BAQUFAAOCAgEAG+npj4R9dxESVj/5y5fvew0cVKEq81qf2+LEHG9obSd02lFc
uowQhXw/r+czA5lJ0MKcaCHnb83Z6+9G6xODAq6Ty5wZO6iw8TR6tn33HiewzXmy
30zULKgjMovLYVyLZYCtCWc3stmCYg1V2BCTwnNmB48ut3nAOR3eJyMGbJ1ATxYy
ho7DBxjaXcjHfIQoO0CQczOXk6q/Zz52qtOn8JtThLant8Z8e//QEI3cqlG+8Q74
lLXSkiTAP8UJ/ThttQfMjY33BFZdwuK4qM+LhqV9I1f6Kpp3UlzPkIxwVP0EWxGp
RtMTdQgmKcR0856iMir4GNnlg0GL7F1lFekzmlzHijFpzUDQZDrMWhFfnQyzBfc7
MlQfhsCWnBgH1U7kVWzTNyY2nBTrHH0CRsHt2DOi6FgtQrGDL/J7zyrm8fzT1s8u
wsQfsicG3AjK4/i86YxwXfCOCys8l7QjTElJHdwf/mSFp3F1xlMg9rbkKvLStMMP
mWVd9nVS2kBER4ZiEqk0GE4FRfO3CRcl1smEATns4zWFOcAE5m0B8mypclhEKrOh
7yd0oPRGpUUnV5HNI2Ij5ofQDZdgeYvKmxct5rx5BlXYslq53ksvn6gmq/gxDmwo
VHr/YLo8eWeW9FPZU20KJ3/0cz1UkRV47VHNJ7G8fSsGNKab7k0C8rSY2lM=
-----END CERTIFICATE-----
