Certificate:
    Data:
        Version: 3 (0x2)
        Serial Number: 772 (0x304)
    Signature Algorithm: sha1WithRSAEncryption
        Issuer: C=US, ST=CA, L=SanFrancisco, O=Pixglo, Inc., OU=VPN-CIE, CN=tunnel.pixglo.com/name=Bala Chandrasekaran/emailAddress=bala@pixglo.com
        Validity
            Not Before: Feb 14 06:43:10 2018 GMT
            Not After : Feb 12 06:43:10 2028 GMT
        Subject: C=US, ST=CA, L=SanFrancisco, O=Pixglo, Inc., OU=VPN-CIE, CN=cie771/name=Bala Chandrasekaran/emailAddress=bala@pixglo.com
        Subject Public Key Info:
            Public Key Algorithm: rsaEncryption
                Public-Key: (4096 bit)
                Modulus:
                    00:b4:48:fe:ef:ea:85:19:db:87:c9:17:d8:ff:12:
                    b5:14:3b:9c:ba:4a:76:72:31:6b:81:a9:06:a3:09:
                    8b:ae:1d:6e:86:b9:c4:e9:24:a1:81:9b:33:36:c5:
                    fa:67:05:89:ff:df:37:5f:86:11:0a:66:c5:ac:d6:
                    da:ae:fb:34:ec:94:bd:a7:aa:ca:c2:91:e1:55:7e:
                    b3:3f:4e:89:ec:23:20:6c:7d:1b:25:51:ee:c9:fa:
                    41:22:b6:d9:1f:78:8b:ee:21:d5:cb:4a:99:91:2c:
                    76:2d:a6:91:ef:86:2e:53:55:98:29:20:85:34:c8:
                    ad:5a:9a:8d:98:c1:84:ca:b6:e7:9f:31:92:87:90:
                    d9:71:0f:63:50:0f:c4:83:c0:29:7a:74:0b:dd:b6:
                    d1:a5:d6:9c:b5:02:15:b2:94:aa:82:e8:9b:b9:46:
                    90:d5:0c:df:91:ba:80:56:d4:b9:80:7e:ea:ed:b9:
                    e8:dd:8b:43:98:95:71:2c:7b:82:5d:f2:f1:84:b4:
                    7b:f8:50:c2:96:0d:57:c3:93:93:f2:a3:3a:a5:95:
                    34:b8:2c:2d:ea:7e:19:72:4e:9c:fd:b0:43:98:67:
                    5a:f1:9c:b3:7f:59:f2:32:51:cd:64:4e:c0:eb:80:
                    5f:3f:a6:a6:41:b6:ba:fb:62:4d:1b:54:df:b1:3f:
                    9f:cc:93:dd:e6:a0:0a:1c:5e:f4:0e:71:13:88:83:
                    dc:90:61:58:c2:86:52:d5:21:f1:7c:69:f2:19:0a:
                    c5:cb:e7:8d:3c:08:eb:e3:9c:1d:ba:75:09:e6:a8:
                    d3:44:27:74:cb:cc:5a:17:c9:e3:b8:aa:1b:19:87:
                    27:55:e2:c5:01:28:6f:88:0c:95:11:c5:0c:f7:4c:
                    71:d3:67:8f:6a:db:8c:4d:3c:fe:b3:a5:4f:2e:51:
                    7b:fa:a9:4b:2e:84:64:07:0f:fa:d7:76:4a:b5:e9:
                    03:38:de:30:0f:78:e7:c7:82:b4:12:66:fa:15:6d:
                    70:a1:7e:b3:da:22:33:d2:2f:fb:b9:a2:08:b2:4b:
                    1f:85:de:44:3d:05:ad:06:56:6c:26:9e:ac:ec:35:
                    a2:0a:c4:ba:3e:0a:1b:90:02:bf:18:68:dc:b7:b8:
                    fa:37:19:51:09:8c:f6:ba:31:19:72:a0:40:c8:d1:
                    0d:c1:ab:13:d3:dc:8e:01:82:c0:38:ed:6b:ad:27:
                    34:1f:11:ad:37:15:2a:a0:63:5c:bb:52:da:67:03:
                    71:96:6b:16:93:40:95:98:af:46:0f:9e:77:e8:d6:
                    61:ac:0f:ad:be:61:d1:02:9b:cd:d2:e6:31:f8:bd:
                    e0:9d:15:72:35:23:08:b7:41:01:ef:6c:4d:e0:23:
                    a9:0b:83
                Exponent: 65537 (0x10001)
        X509v3 extensions:
            X509v3 Basic Constraints: 
                CA:FALSE
            Netscape Comment: 
                Easy-RSA Generated Certificate
            X509v3 Subject Key Identifier: 
                7B:CE:F5:E7:DF:40:1F:59:F4:FE:04:1C:29:9F:F4:61:9B:0F:0B:7C
            X509v3 Authority Key Identifier: 
                keyid:EF:38:8D:14:50:58:A7:5B:4D:9C:17:72:FC:DF:B9:AC:A7:51:B0:10
                DirName:/C=US/ST=CA/L=SanFrancisco/O=Pixglo, Inc./OU=VPN-CIE/CN=tunnel.pixglo.com/name=Bala Chandrasekaran/emailAddress=bala@pixglo.com
                serial:A6:DB:C6:83:80:E6:A0:79

            X509v3 Extended Key Usage: 
                TLS Web Client Authentication
            X509v3 Key Usage: 
                Digital Signature
    Signature Algorithm: sha1WithRSAEncryption
         ad:7e:a1:39:3d:5f:7f:36:2c:7a:6e:e2:8e:58:57:79:af:51:
         88:ec:51:af:2a:68:e4:f3:15:9e:89:21:8f:df:4f:b9:d3:6a:
         67:8e:13:84:12:0d:21:37:ea:cf:4f:19:12:44:b1:8a:96:cc:
         47:4b:3b:80:74:d3:23:93:bc:37:73:f8:af:4e:10:5a:19:0e:
         70:28:90:a0:f3:ab:8f:f9:38:f6:48:ba:83:cb:49:7d:78:20:
         87:18:18:e1:c0:9d:1a:4d:6b:c5:02:d3:f5:88:fe:13:4b:8e:
         4b:05:48:1f:66:e3:88:f2:3d:bd:50:23:56:b2:cd:f6:08:b2:
         d7:40:6f:f1:48:10:79:4e:1a:51:ce:f8:b7:13:34:31:fe:c2:
         12:50:2d:2d:13:31:c8:f5:f8:42:de:39:63:5d:84:63:2c:a8:
         6e:e6:64:16:c1:22:e1:f9:af:37:ae:2b:ec:06:7c:cd:46:c8:
         f4:c1:b2:4d:6f:38:28:5f:60:fe:51:b2:85:14:bc:2b:84:83:
         1b:2b:9e:01:7d:77:5f:46:cc:e7:20:f2:12:d5:fc:b2:2c:8c:
         71:fc:9b:94:93:b0:6a:cb:75:7f:a5:d5:5d:b7:76:48:d0:16:
         98:51:d2:80:77:b0:74:f3:0a:27:f1:78:ca:9b:93:35:18:1b:
         37:1a:12:87:08:5b:29:2a:05:14:e1:8a:86:ee:12:79:3b:c7:
         f9:bb:07:2a:6d:e6:5a:63:a4:43:19:54:6a:5a:24:56:3e:6b:
         27:0e:93:0d:1e:ff:a4:7b:7f:a0:4a:e3:61:13:74:5e:45:ae:
         21:01:04:d9:05:10:ee:5d:51:53:d8:51:c2:b9:9c:a6:ed:0f:
         e1:c9:d5:39:f8:25:5f:be:ed:00:43:f2:4f:5f:94:ec:82:b7:
         58:72:3c:e6:95:4f:bf:6b:90:00:07:52:a9:ee:3a:59:92:c3:
         e5:ad:ec:8f:77:cd:7e:32:ae:c8:c4:32:6f:0a:ff:97:5a:1e:
         35:f1:a0:de:f4:2a:91:39:00:77:25:8b:45:0c:05:f4:c7:21:
         7f:f1:34:e6:f6:bb:07:e2:79:14:c0:a1:a1:3d:78:ba:f9:c8:
         82:18:b8:bd:af:aa:bd:40:03:7f:0e:f7:38:20:d5:dc:ff:67:
         0d:3e:16:4c:aa:b8:f6:4b:d2:5c:2e:fa:0e:0d:3f:6a:bf:52:
         cb:05:c5:67:0c:a9:fd:24:8a:e2:fd:5e:5b:56:c9:69:af:6f:
         60:d4:7f:a0:06:86:64:e1:56:04:62:c5:0f:83:1e:ca:49:7b:
         a7:2d:3d:01:c0:68:e9:55:69:1e:79:48:d9:f2:25:4d:31:04:
         22:28:be:16:2d:ca:fb:3d
-----BEGIN CERTIFICATE-----
MIIHSDCCBTCgAwIBAgICAwQwDQYJKoZIhvcNAQEFBQAwgbQxCzAJBgNVBAYTAlVT
MQswCQYDVQQIEwJDQTEVMBMGA1UEBxMMU2FuRnJhbmNpc2NvMRUwEwYDVQQKEwxQ
aXhnbG8sIEluYy4xEDAOBgNVBAsTB1ZQTi1DSUUxGjAYBgNVBAMTEXR1bm5lbC5w
aXhnbG8uY29tMRwwGgYDVQQpExNCYWxhIENoYW5kcmFzZWthcmFuMR4wHAYJKoZI
hvcNAQkBFg9iYWxhQHBpeGdsby5jb20wHhcNMTgwMjE0MDY0MzEwWhcNMjgwMjEy
MDY0MzEwWjCBqTELMAkGA1UEBhMCVVMxCzAJBgNVBAgTAkNBMRUwEwYDVQQHEwxT
YW5GcmFuY2lzY28xFTATBgNVBAoTDFBpeGdsbywgSW5jLjEQMA4GA1UECxMHVlBO
LUNJRTEPMA0GA1UEAxMGY2llNzcxMRwwGgYDVQQpExNCYWxhIENoYW5kcmFzZWth
cmFuMR4wHAYJKoZIhvcNAQkBFg9iYWxhQHBpeGdsby5jb20wggIiMA0GCSqGSIb3
DQEBAQUAA4ICDwAwggIKAoICAQC0SP7v6oUZ24fJF9j/ErUUO5y6SnZyMWuBqQaj
CYuuHW6GucTpJKGBmzM2xfpnBYn/3zdfhhEKZsWs1tqu+zTslL2nqsrCkeFVfrM/
TonsIyBsfRslUe7J+kEittkfeIvuIdXLSpmRLHYtppHvhi5TVZgpIIU0yK1amo2Y
wYTKtuefMZKHkNlxD2NQD8SDwCl6dAvdttGl1py1AhWylKqC6Ju5RpDVDN+RuoBW
1LmAfurtuejdi0OYlXEse4Jd8vGEtHv4UMKWDVfDk5PyozqllTS4LC3qfhlyTpz9
sEOYZ1rxnLN/WfIyUc1kTsDrgF8/pqZBtrr7Yk0bVN+xP5/Mk93moAocXvQOcROI
g9yQYVjChlLVIfF8afIZCsXL5408COvjnB26dQnmqNNEJ3TLzFoXyeO4qhsZhydV
4sUBKG+IDJURxQz3THHTZ49q24xNPP6zpU8uUXv6qUsuhGQHD/rXdkq16QM43jAP
eOfHgrQSZvoVbXChfrPaIjPSL/u5ogiySx+F3kQ9Ba0GVmwmnqzsNaIKxLo+ChuQ
Ar8YaNy3uPo3GVEJjPa6MRlyoEDI0Q3BqxPT3I4BgsA47WutJzQfEa03FSqgY1y7
UtpnA3GWaxaTQJWYr0YPnnfo1mGsD62+YdECm83S5jH4veCdFXI1Iwi3QQHvbE3g
I6kLgwIDAQABo4IBazCCAWcwCQYDVR0TBAIwADAtBglghkgBhvhCAQ0EIBYeRWFz
eS1SU0EgR2VuZXJhdGVkIENlcnRpZmljYXRlMB0GA1UdDgQWBBR7zvXn30AfWfT+
BBwpn/Rhmw8LfDCB6QYDVR0jBIHhMIHegBTvOI0UUFinW02cF3L837msp1GwEKGB
uqSBtzCBtDELMAkGA1UEBhMCVVMxCzAJBgNVBAgTAkNBMRUwEwYDVQQHEwxTYW5G
cmFuY2lzY28xFTATBgNVBAoTDFBpeGdsbywgSW5jLjEQMA4GA1UECxMHVlBOLUNJ
RTEaMBgGA1UEAxMRdHVubmVsLnBpeGdsby5jb20xHDAaBgNVBCkTE0JhbGEgQ2hh
bmRyYXNla2FyYW4xHjAcBgkqhkiG9w0BCQEWD2JhbGFAcGl4Z2xvLmNvbYIJAKbb
xoOA5qB5MBMGA1UdJQQMMAoGCCsGAQUFBwMCMAsGA1UdDwQEAwIHgDANBgkqhkiG
9w0BAQUFAAOCAgEArX6hOT1ffzYsem7ijlhXea9RiOxRrypo5PMVnokhj99PudNq
Z44ThBINITfqz08ZEkSxipbMR0s7gHTTI5O8N3P4r04QWhkOcCiQoPOrj/k49ki6
g8tJfXgghxgY4cCdGk1rxQLT9Yj+E0uOSwVIH2bjiPI9vVAjVrLN9giy10Bv8UgQ
eU4aUc74txM0Mf7CElAtLRMxyPX4Qt45Y12EYyyobuZkFsEi4fmvN64r7AZ8zUbI
9MGyTW84KF9g/lGyhRS8K4SDGyueAX13X0bM5yDyEtX8siyMcfyblJOwast1f6XV
Xbd2SNAWmFHSgHewdPMKJ/F4ypuTNRgbNxoShwhbKSoFFOGKhu4SeTvH+bsHKm3m
WmOkQxlUalokVj5rJw6TDR7/pHt/oErjYRN0XkWuIQEE2QUQ7l1RU9hRwrmcpu0P
4cnVOfglX77tAEPyT1+U7IK3WHI85pVPv2uQAAdSqe46WZLD5a3sj3fNfjKuyMQy
bwr/l1oeNfGg3vQqkTkAdyWLRQwF9Mchf/E05va7B+J5FMChoT14uvnIghi4va+q
vUADfw73OCDV3P9nDT4WTKq49kvSXC76Dg0/ar9SywXFZwyp/SSK4v1eW1bJaa9v
YNR/oAaGZOFWBGLFD4Meykl7py09AcBo6VVpHnlI2fIlTTEEIii+Fi3K+z0=
-----END CERTIFICATE-----
