Certificate:
    Data:
        Version: 3 (0x2)
        Serial Number: 701 (0x2bd)
    Signature Algorithm: sha1WithRSAEncryption
        Issuer: C=US, ST=CA, L=SanFrancisco, O=Pixglo, Inc., OU=VPN-CIE, CN=tunnel.pixglo.com/name=Bala Chandrasekaran/emailAddress=bala@pixglo.com
        Validity
            Not Before: Feb 14 06:40:55 2018 GMT
            Not After : Feb 12 06:40:55 2028 GMT
        Subject: C=US, ST=CA, L=SanFrancisco, O=Pixglo, Inc., OU=VPN-CIE, CN=cie700/name=Bala Chandrasekaran/emailAddress=bala@pixglo.com
        Subject Public Key Info:
            Public Key Algorithm: rsaEncryption
                Public-Key: (4096 bit)
                Modulus:
                    00:d4:4e:80:d0:60:bd:cd:6c:a8:00:55:09:31:f4:
                    2c:aa:10:aa:32:f7:5e:fa:ef:94:f3:c5:84:59:1f:
                    11:cd:5b:a7:b0:c9:66:cd:fc:fb:da:11:d2:ef:2d:
                    f8:b6:7a:ea:25:75:64:fd:b6:28:aa:f1:f0:78:42:
                    a5:d0:4d:be:cb:6a:b3:90:6f:40:ed:fa:94:71:21:
                    ca:79:dc:22:06:1f:db:d9:46:8f:34:ab:78:29:07:
                    20:99:c4:9e:ce:a8:af:27:9e:e4:ca:19:44:8c:50:
                    cd:16:99:9f:98:0e:85:ea:ec:d5:3a:11:66:98:32:
                    56:19:2d:f4:30:4f:28:4d:54:8f:ff:95:a3:20:ce:
                    b3:ad:48:d0:a1:fc:aa:6a:29:56:76:97:49:eb:df:
                    5c:cd:95:1b:35:7f:14:07:ee:21:29:1d:9a:05:83:
                    e7:ce:28:d5:58:88:f6:ef:ff:87:38:08:0b:51:92:
                    5c:42:5b:17:56:21:a7:b5:10:bb:9c:e2:33:83:89:
                    6c:37:6d:d0:67:b7:e8:dc:c5:17:ba:2d:af:a6:6c:
                    3e:c2:d2:18:62:b5:ca:fd:c3:50:e8:7e:d5:5e:f3:
                    e1:9f:f8:72:4c:92:a2:19:14:3f:22:49:03:5b:e4:
                    32:18:05:33:8b:bb:36:94:95:f4:01:1b:fa:20:97:
                    eb:43:e6:f9:03:b4:ba:d3:88:86:2a:2c:90:7b:1d:
                    24:5c:a0:78:d4:17:ca:c6:4b:be:21:b8:ae:ae:da:
                    07:a9:66:74:ed:78:60:ab:a1:5c:82:d1:8d:26:3c:
                    9f:e0:34:c4:64:0e:d1:9c:1e:82:57:1a:1f:ae:e3:
                    ef:9b:70:46:25:1a:50:92:42:18:a1:ab:9f:87:26:
                    22:c5:df:0b:60:8a:b1:bd:a1:ed:6f:00:8a:af:32:
                    8f:b9:65:98:bf:25:03:8c:3a:29:ff:82:b0:90:b0:
                    86:0d:92:d6:f5:33:5e:2d:47:cd:3e:cb:c0:e9:c9:
                    5e:92:64:7c:18:8a:54:a3:ee:e2:66:03:36:ac:f6:
                    f4:5c:46:65:56:87:f9:db:3a:e4:b4:06:42:bf:14:
                    2c:39:72:aa:29:e1:4d:41:4c:ea:35:9b:05:46:d0:
                    cf:c5:9c:6c:d1:8d:fb:f6:5d:db:0f:6f:13:cb:af:
                    ea:87:03:70:82:f5:5f:15:f5:b0:d5:01:3f:6b:0a:
                    3c:88:7b:c5:52:1a:4a:bc:5f:68:c4:e4:93:21:e7:
                    4c:1c:5f:13:ac:72:d2:1c:2c:4b:47:c8:90:3a:f7:
                    5a:51:2f:36:b6:8b:c7:96:0a:04:af:63:67:0b:de:
                    d2:53:3f:8d:c5:93:c5:ac:b3:49:96:62:44:cc:f3:
                    94:d6:97
                Exponent: 65537 (0x10001)
        X509v3 extensions:
            X509v3 Basic Constraints: 
                CA:FALSE
            Netscape Comment: 
                Easy-RSA Generated Certificate
            X509v3 Subject Key Identifier: 
                A3:31:00:DB:B6:CF:E4:3F:3D:D7:D8:7F:1A:21:DC:87:76:8E:28:23
            X509v3 Authority Key Identifier: 
                keyid:EF:38:8D:14:50:58:A7:5B:4D:9C:17:72:FC:DF:B9:AC:A7:51:B0:10
                DirName:/C=US/ST=CA/L=SanFrancisco/O=Pixglo, Inc./OU=VPN-CIE/CN=tunnel.pixglo.com/name=Bala Chandrasekaran/emailAddress=bala@pixglo.com
                serial:A6:DB:C6:83:80:E6:A0:79

            X509v3 Extended Key Usage: 
                TLS Web Client Authentication
            X509v3 Key Usage: 
                Digital Signature
    Signature Algorithm: sha1WithRSAEncryption
         87:53:af:8d:73:75:71:87:a4:96:b6:38:c9:14:bd:30:42:1c:
         8d:46:5f:fb:b2:79:39:0d:f8:df:e4:8f:79:0b:03:3c:a9:59:
         d7:d1:da:0c:7b:d3:43:fd:cf:be:78:7d:85:4c:ec:3d:e1:c3:
         9e:5a:83:d3:87:1e:77:3a:ab:b5:05:d2:23:e8:14:6a:ed:e0:
         32:0e:86:0a:06:60:65:28:38:16:83:88:15:11:04:54:ab:15:
         c8:ba:66:9a:38:21:b9:fb:e8:64:0d:a7:71:cd:00:17:aa:0e:
         ee:03:de:9b:05:3e:ba:09:be:f4:bd:d9:ed:dc:97:3a:25:68:
         d1:3a:6c:6b:a7:76:93:7d:cc:69:7f:e5:f0:3f:12:54:c2:69:
         1b:6c:b4:27:64:f7:2c:f6:4a:19:2f:3a:6e:53:d7:27:2f:9a:
         75:ba:5d:31:06:b1:7d:a6:b8:e4:99:63:20:6d:0e:40:e4:a8:
         23:c3:8e:12:8b:14:68:36:a5:65:8c:60:c3:be:62:e1:cd:33:
         52:54:3c:1f:03:e9:91:9f:fe:39:2b:e5:5e:86:93:fa:24:60:
         27:aa:c3:08:6c:64:ce:17:7a:9b:d8:59:6d:ef:8a:d7:42:90:
         02:12:07:18:96:8b:37:51:d2:06:4a:ee:74:05:89:9e:26:a8:
         27:11:73:b6:23:14:fd:48:95:df:66:22:8a:e2:23:80:79:6e:
         10:fe:77:8d:7e:66:6d:ef:58:ff:13:72:87:0f:a9:32:33:c9:
         72:c9:1b:d9:45:6d:85:55:16:49:d8:b1:f8:76:35:f7:f3:f6:
         4d:69:73:9d:a8:91:95:41:5c:9b:4c:ca:ed:2e:08:45:2d:f8:
         ff:ad:56:f1:cb:71:0f:8c:87:df:1c:ab:f0:37:1a:13:cf:b7:
         d3:4a:e8:41:8d:66:9f:cd:8e:01:31:0d:59:4c:99:d6:f4:69:
         81:13:2f:b4:a6:6e:b6:b6:49:a2:bb:68:40:b3:14:21:8d:24:
         fc:28:46:f7:1c:5b:4b:e8:2b:c4:a0:1f:e9:2f:34:fa:f8:9a:
         c6:db:4c:e3:d6:f7:8e:27:7e:84:73:6a:1d:ea:91:02:f8:74:
         69:03:4f:31:5d:57:68:4c:4b:b9:5e:f1:8e:2d:d9:44:ae:c2:
         c1:f0:36:ca:6f:a5:ca:ab:90:ac:1f:8a:74:82:aa:52:71:2d:
         73:64:01:d7:9d:dc:30:30:1e:33:71:72:3e:93:f1:25:1a:60:
         c7:2f:70:0d:e7:fb:38:60:5a:15:7b:78:c9:2e:bf:22:99:d3:
         3b:48:5c:05:ef:48:7e:05:47:21:78:86:91:10:83:77:f3:8a:
         7f:a9:46:14:9d:9a:9e:ba
-----BEGIN CERTIFICATE-----
MIIHSDCCBTCgAwIBAgICAr0wDQYJKoZIhvcNAQEFBQAwgbQxCzAJBgNVBAYTAlVT
MQswCQYDVQQIEwJDQTEVMBMGA1UEBxMMU2FuRnJhbmNpc2NvMRUwEwYDVQQKEwxQ
aXhnbG8sIEluYy4xEDAOBgNVBAsTB1ZQTi1DSUUxGjAYBgNVBAMTEXR1bm5lbC5w
aXhnbG8uY29tMRwwGgYDVQQpExNCYWxhIENoYW5kcmFzZWthcmFuMR4wHAYJKoZI
hvcNAQkBFg9iYWxhQHBpeGdsby5jb20wHhcNMTgwMjE0MDY0MDU1WhcNMjgwMjEy
MDY0MDU1WjCBqTELMAkGA1UEBhMCVVMxCzAJBgNVBAgTAkNBMRUwEwYDVQQHEwxT
YW5GcmFuY2lzY28xFTATBgNVBAoTDFBpeGdsbywgSW5jLjEQMA4GA1UECxMHVlBO
LUNJRTEPMA0GA1UEAxMGY2llNzAwMRwwGgYDVQQpExNCYWxhIENoYW5kcmFzZWth
cmFuMR4wHAYJKoZIhvcNAQkBFg9iYWxhQHBpeGdsby5jb20wggIiMA0GCSqGSIb3
DQEBAQUAA4ICDwAwggIKAoICAQDUToDQYL3NbKgAVQkx9CyqEKoy917675TzxYRZ
HxHNW6ewyWbN/PvaEdLvLfi2euoldWT9tiiq8fB4QqXQTb7LarOQb0Dt+pRxIcp5
3CIGH9vZRo80q3gpByCZxJ7OqK8nnuTKGUSMUM0WmZ+YDoXq7NU6EWaYMlYZLfQw
TyhNVI//laMgzrOtSNCh/KpqKVZ2l0nr31zNlRs1fxQH7iEpHZoFg+fOKNVYiPbv
/4c4CAtRklxCWxdWIae1ELuc4jODiWw3bdBnt+jcxRe6La+mbD7C0hhitcr9w1Do
ftVe8+Gf+HJMkqIZFD8iSQNb5DIYBTOLuzaUlfQBG/ogl+tD5vkDtLrTiIYqLJB7
HSRcoHjUF8rGS74huK6u2gepZnTteGCroVyC0Y0mPJ/gNMRkDtGcHoJXGh+u4++b
cEYlGlCSQhihq5+HJiLF3wtgirG9oe1vAIqvMo+5ZZi/JQOMOin/grCQsIYNktb1
M14tR80+y8DpyV6SZHwYilSj7uJmAzas9vRcRmVWh/nbOuS0BkK/FCw5cqop4U1B
TOo1mwVG0M/FnGzRjfv2XdsPbxPLr+qHA3CC9V8V9bDVAT9rCjyIe8VSGkq8X2jE
5JMh50wcXxOsctIcLEtHyJA691pRLza2i8eWCgSvY2cL3tJTP43Fk8Wss0mWYkTM
85TWlwIDAQABo4IBazCCAWcwCQYDVR0TBAIwADAtBglghkgBhvhCAQ0EIBYeRWFz
eS1SU0EgR2VuZXJhdGVkIENlcnRpZmljYXRlMB0GA1UdDgQWBBSjMQDbts/kPz3X
2H8aIdyHdo4oIzCB6QYDVR0jBIHhMIHegBTvOI0UUFinW02cF3L837msp1GwEKGB
uqSBtzCBtDELMAkGA1UEBhMCVVMxCzAJBgNVBAgTAkNBMRUwEwYDVQQHEwxTYW5G
cmFuY2lzY28xFTATBgNVBAoTDFBpeGdsbywgSW5jLjEQMA4GA1UECxMHVlBOLUNJ
RTEaMBgGA1UEAxMRdHVubmVsLnBpeGdsby5jb20xHDAaBgNVBCkTE0JhbGEgQ2hh
bmRyYXNla2FyYW4xHjAcBgkqhkiG9w0BCQEWD2JhbGFAcGl4Z2xvLmNvbYIJAKbb
xoOA5qB5MBMGA1UdJQQMMAoGCCsGAQUFBwMCMAsGA1UdDwQEAwIHgDANBgkqhkiG
9w0BAQUFAAOCAgEAh1OvjXN1cYeklrY4yRS9MEIcjUZf+7J5OQ343+SPeQsDPKlZ
19HaDHvTQ/3Pvnh9hUzsPeHDnlqD04cedzqrtQXSI+gUau3gMg6GCgZgZSg4FoOI
FREEVKsVyLpmmjghufvoZA2ncc0AF6oO7gPemwU+ugm+9L3Z7dyXOiVo0Tpsa6d2
k33MaX/l8D8SVMJpG2y0J2T3LPZKGS86blPXJy+adbpdMQaxfaa45JljIG0OQOSo
I8OOEosUaDalZYxgw75i4c0zUlQ8HwPpkZ/+OSvlXoaT+iRgJ6rDCGxkzhd6m9hZ
be+K10KQAhIHGJaLN1HSBkrudAWJniaoJxFztiMU/UiV32YiiuIjgHluEP53jX5m
be9Y/xNyhw+pMjPJcskb2UVthVUWSdix+HY19/P2TWlznaiRlUFcm0zK7S4IRS34
/61W8ctxD4yH3xyr8DcaE8+300roQY1mn82OATENWUyZ1vRpgRMvtKZutrZJorto
QLMUIY0k/ChG9xxbS+grxKAf6S80+viaxttM49b3jid+hHNqHeqRAvh0aQNPMV1X
aExLuV7xji3ZRK7CwfA2ym+lyquQrB+KdIKqUnEtc2QB153cMDAeM3FyPpPxJRpg
xy9wDef7OGBaFXt4yS6/IpnTO0hcBe9IfgVHIXiGkRCDd/OKf6lGFJ2anro=
-----END CERTIFICATE-----
