Certificate:
    Data:
        Version: 3 (0x2)
        Serial Number: 791 (0x317)
    Signature Algorithm: sha1WithRSAEncryption
        Issuer: C=US, ST=CA, L=SanFrancisco, O=Pixglo, Inc., OU=VPN-CIE, CN=tunnel.pixglo.com/name=Bala Chandrasekaran/emailAddress=bala@pixglo.com
        Validity
            Not Before: Feb 14 06:43:44 2018 GMT
            Not After : Feb 12 06:43:44 2028 GMT
        Subject: C=US, ST=CA, L=SanFrancisco, O=Pixglo, Inc., OU=VPN-CIE, CN=cie790/name=Bala Chandrasekaran/emailAddress=bala@pixglo.com
        Subject Public Key Info:
            Public Key Algorithm: rsaEncryption
                Public-Key: (4096 bit)
                Modulus:
                    00:b6:a7:4d:8c:14:a8:ee:26:c8:7a:4d:7c:ea:76:
                    8b:97:76:22:c2:b4:5f:99:60:56:71:d2:e8:c4:ac:
                    2f:c2:b0:3f:55:89:5e:a5:20:61:7d:4f:86:0d:4a:
                    c3:51:9a:d9:56:d4:99:bf:05:67:6c:c5:78:86:3d:
                    ef:d5:3f:10:75:fb:b4:04:f1:df:39:1d:b8:7f:ef:
                    34:80:c0:b8:17:c6:e3:54:de:fd:2a:01:f9:f2:bd:
                    32:3d:d0:e6:72:ce:06:e5:87:ce:01:83:5a:16:fe:
                    6c:c7:c3:aa:e1:52:5f:f6:ce:c9:8c:b9:d0:df:af:
                    28:8c:56:17:43:a7:85:29:df:06:40:dc:1b:90:1d:
                    57:a1:55:cd:f3:97:a1:76:7b:f1:01:98:74:a0:b4:
                    af:ad:5e:f4:0d:97:4b:df:66:cd:ef:fb:6d:e5:49:
                    ce:f1:53:53:67:b2:64:13:df:13:ea:73:75:1d:08:
                    13:da:8b:4b:37:f9:71:93:25:7f:f6:6a:96:81:49:
                    96:bf:eb:04:24:a5:f5:3e:1c:60:48:29:97:e2:0f:
                    f4:be:15:b2:09:b7:bb:5b:ae:22:ed:3d:64:b0:68:
                    39:08:7e:53:0e:e8:58:22:06:c2:8e:2b:e2:85:06:
                    19:f4:23:5b:8f:54:5f:11:c2:d9:5e:e8:63:2d:44:
                    a7:69:39:26:b3:64:b8:71:1f:29:5b:45:b2:ef:8f:
                    d2:a3:55:73:9e:7f:2d:19:93:b4:9f:a9:22:10:1d:
                    b0:80:b2:7a:a1:3a:40:e5:d8:ce:53:f2:3b:6d:2d:
                    25:3b:86:b7:03:05:d5:f3:99:36:5c:06:ff:dd:99:
                    d4:df:6f:f0:25:4d:05:06:a7:a3:a8:4b:c9:b0:23:
                    09:84:25:d1:70:f3:31:7e:96:65:c6:13:db:bf:f1:
                    f3:9b:e5:bc:f7:a1:e3:b8:eb:a8:39:bc:27:ca:06:
                    93:b2:c7:96:97:b6:a8:7e:7e:d9:2a:5d:61:63:3d:
                    31:d1:8e:dd:a9:90:1c:4a:07:ad:6a:69:53:34:ca:
                    81:b9:90:b9:da:f3:de:d1:10:ab:07:8e:c7:81:d1:
                    4d:39:0a:80:a5:02:fe:20:16:96:cf:1f:90:0b:03:
                    2d:b2:1a:89:31:a5:41:05:1e:ad:52:90:f5:ec:c4:
                    10:9a:aa:06:21:59:64:a7:06:5e:47:23:f8:b2:a0:
                    ab:0e:2b:79:b2:e7:0a:27:23:07:75:27:5c:fd:c6:
                    8e:80:0d:6b:d2:91:84:18:bf:f1:db:f1:f3:82:c1:
                    dc:8f:4a:be:fb:7b:eb:31:99:da:5e:4f:b5:6e:d3:
                    0a:53:29:fe:fd:51:49:2f:64:ab:52:ae:66:ba:f2:
                    3c:4e:45
                Exponent: 65537 (0x10001)
        X509v3 extensions:
            X509v3 Basic Constraints: 
                CA:FALSE
            Netscape Comment: 
                Easy-RSA Generated Certificate
            X509v3 Subject Key Identifier: 
                F9:FE:DE:30:A6:2D:50:FC:02:C1:2F:00:61:46:E8:47:BC:74:6E:85
            X509v3 Authority Key Identifier: 
                keyid:EF:38:8D:14:50:58:A7:5B:4D:9C:17:72:FC:DF:B9:AC:A7:51:B0:10
                DirName:/C=US/ST=CA/L=SanFrancisco/O=Pixglo, Inc./OU=VPN-CIE/CN=tunnel.pixglo.com/name=Bala Chandrasekaran/emailAddress=bala@pixglo.com
                serial:A6:DB:C6:83:80:E6:A0:79

            X509v3 Extended Key Usage: 
                TLS Web Client Authentication
            X509v3 Key Usage: 
                Digital Signature
    Signature Algorithm: sha1WithRSAEncryption
         4a:f5:cf:96:d4:2a:aa:ef:7f:03:bb:5a:9c:6c:71:f9:d8:b4:
         a8:36:88:b2:b0:b5:45:fa:ae:68:04:68:2b:cd:16:04:1f:51:
         0a:8e:5a:b8:a6:f6:02:27:06:64:65:8f:1d:7d:09:07:f6:b3:
         39:28:b4:66:66:cb:49:1e:62:ca:06:6f:dc:a1:81:4f:7f:5a:
         2f:87:02:e3:4e:75:8e:9b:de:2c:87:d6:dd:29:39:03:f6:57:
         16:cb:96:8c:70:4b:95:cd:ec:69:83:b5:56:35:a4:04:fa:7d:
         36:aa:aa:ad:bb:4e:eb:31:05:83:c7:51:f0:55:56:28:2a:c0:
         b6:05:2c:36:54:db:3c:c1:74:31:47:88:88:59:39:a5:78:85:
         3b:5b:b8:a0:95:62:d6:e8:cd:74:4a:a7:19:b5:ae:60:40:3d:
         dd:ef:4a:b5:35:25:95:55:c5:91:ee:54:3a:67:45:13:39:c4:
         2e:0f:18:e4:f4:bd:fa:83:82:d2:61:7d:d7:f2:3b:70:3b:df:
         e0:ee:e4:5c:f4:ec:4f:de:d2:25:63:fd:98:b8:63:ed:76:4d:
         96:1a:e1:ce:51:86:1f:98:e1:4b:a8:fa:ad:5f:e3:fe:50:72:
         68:ca:79:c1:ac:86:58:ad:a5:8e:27:d6:6d:ea:55:dd:f5:a2:
         05:a5:81:84:a0:7b:f8:06:5f:e7:24:15:0d:fa:80:2f:60:bd:
         2d:f4:c5:95:9b:0f:e6:93:c1:d0:7c:79:30:2a:97:3d:b1:76:
         66:89:5b:8d:10:b4:ac:fe:b4:ee:35:2d:b5:e8:ed:cc:95:bb:
         10:56:74:4e:0f:33:0b:ce:bd:84:c8:61:21:ae:ca:98:6e:3e:
         10:72:69:fd:ab:f7:d2:36:ac:a8:22:2f:03:87:b5:18:d1:d6:
         77:8f:9e:d8:8e:95:ad:3c:95:19:2f:ba:52:ae:fe:c8:3b:59:
         de:b7:d7:9a:16:04:41:f0:86:fe:4c:37:31:48:e8:54:ad:b9:
         9f:ea:28:db:04:19:58:9d:f4:3f:b4:90:1b:69:69:2f:b3:c0:
         cb:f1:46:51:06:16:ca:00:49:c7:7b:1f:67:88:fa:77:5e:d5:
         9a:c3:27:ab:fb:77:b1:eb:7e:ed:ef:0d:9e:47:02:f9:f8:00:
         78:08:a2:af:d2:e3:9d:54:c4:af:0d:30:a7:c5:c2:6d:35:f3:
         8d:29:9d:9c:30:6b:82:f8:a2:f7:a3:2b:a8:99:ae:15:b3:ff:
         77:e7:48:b1:83:26:0f:ce:51:a3:32:58:cd:83:6b:86:e5:28:
         77:50:a3:e4:d4:22:b2:48:e0:ac:87:5b:85:8f:ea:33:c1:24:
         98:2d:7c:84:80:c6:33:09
-----BEGIN CERTIFICATE-----
MIIHSDCCBTCgAwIBAgICAxcwDQYJKoZIhvcNAQEFBQAwgbQxCzAJBgNVBAYTAlVT
MQswCQYDVQQIEwJDQTEVMBMGA1UEBxMMU2FuRnJhbmNpc2NvMRUwEwYDVQQKEwxQ
aXhnbG8sIEluYy4xEDAOBgNVBAsTB1ZQTi1DSUUxGjAYBgNVBAMTEXR1bm5lbC5w
aXhnbG8uY29tMRwwGgYDVQQpExNCYWxhIENoYW5kcmFzZWthcmFuMR4wHAYJKoZI
hvcNAQkBFg9iYWxhQHBpeGdsby5jb20wHhcNMTgwMjE0MDY0MzQ0WhcNMjgwMjEy
MDY0MzQ0WjCBqTELMAkGA1UEBhMCVVMxCzAJBgNVBAgTAkNBMRUwEwYDVQQHEwxT
YW5GcmFuY2lzY28xFTATBgNVBAoTDFBpeGdsbywgSW5jLjEQMA4GA1UECxMHVlBO
LUNJRTEPMA0GA1UEAxMGY2llNzkwMRwwGgYDVQQpExNCYWxhIENoYW5kcmFzZWth
cmFuMR4wHAYJKoZIhvcNAQkBFg9iYWxhQHBpeGdsby5jb20wggIiMA0GCSqGSIb3
DQEBAQUAA4ICDwAwggIKAoICAQC2p02MFKjuJsh6TXzqdouXdiLCtF+ZYFZx0ujE
rC/CsD9ViV6lIGF9T4YNSsNRmtlW1Jm/BWdsxXiGPe/VPxB1+7QE8d85Hbh/7zSA
wLgXxuNU3v0qAfnyvTI90OZyzgblh84Bg1oW/mzHw6rhUl/2zsmMudDfryiMVhdD
p4Up3wZA3BuQHVehVc3zl6F2e/EBmHSgtK+tXvQNl0vfZs3v+23lSc7xU1NnsmQT
3xPqc3UdCBPai0s3+XGTJX/2apaBSZa/6wQkpfU+HGBIKZfiD/S+FbIJt7tbriLt
PWSwaDkIflMO6FgiBsKOK+KFBhn0I1uPVF8Rwtle6GMtRKdpOSazZLhxHylbRbLv
j9KjVXOefy0Zk7SfqSIQHbCAsnqhOkDl2M5T8jttLSU7hrcDBdXzmTZcBv/dmdTf
b/AlTQUGp6OoS8mwIwmEJdFw8zF+lmXGE9u/8fOb5bz3oeO466g5vCfKBpOyx5aX
tqh+ftkqXWFjPTHRjt2pkBxKB61qaVM0yoG5kLna897REKsHjseB0U05CoClAv4g
FpbPH5ALAy2yGokxpUEFHq1SkPXsxBCaqgYhWWSnBl5HI/iyoKsOK3my5wonIwd1
J1z9xo6ADWvSkYQYv/Hb8fOCwdyPSr77e+sxmdpeT7Vu0wpTKf79UUkvZKtSrma6
8jxORQIDAQABo4IBazCCAWcwCQYDVR0TBAIwADAtBglghkgBhvhCAQ0EIBYeRWFz
eS1SU0EgR2VuZXJhdGVkIENlcnRpZmljYXRlMB0GA1UdDgQWBBT5/t4wpi1Q/ALB
LwBhRuhHvHRuhTCB6QYDVR0jBIHhMIHegBTvOI0UUFinW02cF3L837msp1GwEKGB
uqSBtzCBtDELMAkGA1UEBhMCVVMxCzAJBgNVBAgTAkNBMRUwEwYDVQQHEwxTYW5G
cmFuY2lzY28xFTATBgNVBAoTDFBpeGdsbywgSW5jLjEQMA4GA1UECxMHVlBOLUNJ
RTEaMBgGA1UEAxMRdHVubmVsLnBpeGdsby5jb20xHDAaBgNVBCkTE0JhbGEgQ2hh
bmRyYXNla2FyYW4xHjAcBgkqhkiG9w0BCQEWD2JhbGFAcGl4Z2xvLmNvbYIJAKbb
xoOA5qB5MBMGA1UdJQQMMAoGCCsGAQUFBwMCMAsGA1UdDwQEAwIHgDANBgkqhkiG
9w0BAQUFAAOCAgEASvXPltQqqu9/A7tanGxx+di0qDaIsrC1RfquaARoK80WBB9R
Co5auKb2AicGZGWPHX0JB/azOSi0ZmbLSR5iygZv3KGBT39aL4cC4051jpveLIfW
3Sk5A/ZXFsuWjHBLlc3saYO1VjWkBPp9NqqqrbtO6zEFg8dR8FVWKCrAtgUsNlTb
PMF0MUeIiFk5pXiFO1u4oJVi1ujNdEqnGbWuYEA93e9KtTUllVXFke5UOmdFEznE
Lg8Y5PS9+oOC0mF91/I7cDvf4O7kXPTsT97SJWP9mLhj7XZNlhrhzlGGH5jhS6j6
rV/j/lByaMp5wayGWK2ljifWbepV3fWiBaWBhKB7+AZf5yQVDfqAL2C9LfTFlZsP
5pPB0Hx5MCqXPbF2ZolbjRC0rP607jUttejtzJW7EFZ0Tg8zC869hMhhIa7KmG4+
EHJp/av30jasqCIvA4e1GNHWd4+e2I6VrTyVGS+6Uq7+yDtZ3rfXmhYEQfCG/kw3
MUjoVK25n+oo2wQZWJ30P7SQG2lpL7PAy/FGUQYWygBJx3sfZ4j6d17VmsMnq/t3
set+7e8NnkcC+fgAeAiir9LjnVTErw0wp8XCbTXzjSmdnDBrgvii96MrqJmuFbP/
d+dIsYMmD85RozJYzYNrhuUod1Cj5NQiskjgrIdbhY/qM8EkmC18hIDGMwk=
-----END CERTIFICATE-----
