Certificate:
    Data:
        Version: 3 (0x2)
        Serial Number: 790 (0x316)
    Signature Algorithm: sha1WithRSAEncryption
        Issuer: C=US, ST=CA, L=SanFrancisco, O=Pixglo, Inc., OU=VPN-CIE, CN=tunnel.pixglo.com/name=Bala Chandrasekaran/emailAddress=bala@pixglo.com
        Validity
            Not Before: Feb 14 06:43:39 2018 GMT
            Not After : Feb 12 06:43:39 2028 GMT
        Subject: C=US, ST=CA, L=SanFrancisco, O=Pixglo, Inc., OU=VPN-CIE, CN=cie789/name=Bala Chandrasekaran/emailAddress=bala@pixglo.com
        Subject Public Key Info:
            Public Key Algorithm: rsaEncryption
                Public-Key: (4096 bit)
                Modulus:
                    00:ca:7b:cb:ce:2e:d5:3d:3e:08:fe:fc:d5:43:e8:
                    7a:62:a8:e5:56:84:28:40:21:06:32:e3:5c:83:d3:
                    7b:34:2f:3b:10:48:67:5e:68:b1:d0:ee:89:03:fa:
                    2a:1b:7f:5e:0b:4c:9d:ea:fc:2b:42:33:83:c9:f6:
                    ed:48:00:44:f7:8b:a1:2a:d0:0c:8a:3f:4a:ef:2f:
                    6a:4c:ba:94:2f:cc:cd:d3:f6:50:89:7d:0d:81:33:
                    d4:06:11:22:20:97:7c:ee:6d:a4:18:f3:9a:aa:5f:
                    d7:b1:42:1a:f0:06:ff:b7:6e:c2:83:18:15:6a:a8:
                    0d:94:b1:33:15:20:5c:18:0b:43:54:40:52:8f:66:
                    2b:e6:a2:d1:d4:af:a3:ac:fc:db:7a:18:c0:f9:e9:
                    a6:1b:82:a6:84:30:fb:79:28:7f:61:1b:a0:76:1b:
                    8a:62:60:cf:02:06:82:7e:18:59:d3:f5:13:c2:a2:
                    bc:9a:f6:f9:da:47:3a:01:0d:26:fe:6d:c3:4a:54:
                    5c:e1:f6:14:01:47:71:dd:e7:d8:4f:40:9b:2d:5f:
                    e2:68:6c:8f:76:31:ac:a6:4c:64:04:66:71:3f:61:
                    30:fd:fc:ca:6a:73:89:ec:2d:7e:6e:47:2c:d3:e7:
                    d0:37:97:44:6f:8e:8f:ef:21:79:4a:ff:b3:96:5e:
                    be:fb:58:1f:cc:73:f4:80:30:2a:3c:47:cf:98:2c:
                    5f:71:ef:4a:a5:ca:ca:7b:25:32:87:bb:8f:11:d9:
                    5f:c7:e3:0d:ef:b2:1f:2d:28:c4:9d:b9:3c:3d:82:
                    8e:ea:2f:19:40:d8:12:87:e8:80:cb:88:51:61:0f:
                    93:5c:65:82:e4:3f:d7:be:ea:92:9e:85:74:78:34:
                    6b:1e:a8:7e:a8:f8:b7:79:37:fc:c7:8a:c9:84:60:
                    b0:d6:58:d5:2c:c1:e9:6b:5f:82:d8:f2:66:c5:7c:
                    cd:2e:01:d6:aa:97:0b:73:97:f6:b0:73:b6:66:b6:
                    53:a4:e5:5e:d0:48:28:5b:c4:04:00:e4:5e:01:4b:
                    a6:92:0f:93:48:81:af:41:1f:96:b7:79:40:1a:1f:
                    3a:4c:5e:a8:26:57:ac:14:54:f4:aa:94:1a:c0:8d:
                    b7:22:ea:15:32:20:f0:f3:ac:03:f7:82:ff:71:72:
                    8a:16:b3:ae:45:6d:74:49:5e:9f:33:bf:8c:ef:a8:
                    0b:be:05:0d:42:b9:62:8c:87:00:61:eb:dc:16:3c:
                    dd:10:73:61:a1:1d:48:65:47:e4:a3:f8:0c:16:68:
                    84:66:ee:92:0c:d7:7c:2c:ba:60:fe:30:c4:72:06:
                    a7:59:ae:3e:38:29:9f:05:0a:9f:23:89:81:8f:18:
                    6a:88:a1
                Exponent: 65537 (0x10001)
        X509v3 extensions:
            X509v3 Basic Constraints: 
                CA:FALSE
            Netscape Comment: 
                Easy-RSA Generated Certificate
            X509v3 Subject Key Identifier: 
                08:26:0E:31:74:DE:43:C3:91:3F:95:AF:30:03:B2:57:B6:13:DE:BE
            X509v3 Authority Key Identifier: 
                keyid:EF:38:8D:14:50:58:A7:5B:4D:9C:17:72:FC:DF:B9:AC:A7:51:B0:10
                DirName:/C=US/ST=CA/L=SanFrancisco/O=Pixglo, Inc./OU=VPN-CIE/CN=tunnel.pixglo.com/name=Bala Chandrasekaran/emailAddress=bala@pixglo.com
                serial:A6:DB:C6:83:80:E6:A0:79

            X509v3 Extended Key Usage: 
                TLS Web Client Authentication
            X509v3 Key Usage: 
                Digital Signature
    Signature Algorithm: sha1WithRSAEncryption
         4f:9f:2a:2a:7d:8c:30:15:03:29:61:7e:45:34:24:6c:26:bc:
         af:1a:b8:25:be:21:98:3c:d3:b1:f2:f0:c5:26:63:d0:c7:31:
         c3:c3:7c:ff:bf:28:73:71:c6:5b:e3:91:4e:e5:2b:f6:05:ea:
         c6:52:fd:b2:60:f8:06:52:a9:48:ea:84:e2:3c:14:1b:75:54:
         48:89:a1:14:4a:22:11:e1:f0:d1:2c:e6:ea:0b:af:8e:76:68:
         57:4e:f1:04:d9:a0:70:53:62:8e:38:2c:26:d5:e2:7f:37:83:
         5e:d3:84:37:bf:58:89:36:eb:ff:e0:22:0a:a0:41:08:2d:de:
         2a:44:bf:28:66:c3:f0:19:95:37:ee:ef:31:a9:e2:ea:27:db:
         71:67:6b:0c:72:8d:1a:08:ed:b1:23:de:ec:a2:0f:54:67:d2:
         c2:f0:12:f4:9f:4d:11:a0:e1:49:e2:51:f4:9f:90:73:89:de:
         39:b3:23:f6:61:86:d3:67:51:26:38:bc:9d:69:cb:3e:3a:7b:
         00:49:2a:6c:da:e8:86:cd:b9:73:e8:54:35:e2:b7:5c:15:07:
         b7:a4:16:4e:8a:69:50:fc:17:c4:33:db:00:e1:85:9d:52:a1:
         eb:ec:dd:19:c0:3b:5d:d5:e2:e2:e3:c3:e0:5a:10:ca:d9:9a:
         14:a0:d7:b4:ed:c6:f9:33:74:88:0e:70:1f:d4:59:26:4e:ca:
         06:d8:fb:d3:7a:8c:cb:c9:e7:92:1e:0a:2f:86:88:67:d0:fb:
         f4:60:8c:9b:77:ff:04:5f:25:60:4f:f9:00:a2:d9:98:42:89:
         a1:8a:7f:65:c9:95:9e:9c:bc:cf:3d:4c:c7:13:35:49:f6:19:
         42:8b:36:3c:25:9d:e8:7c:50:40:44:4c:0f:0c:aa:38:aa:1b:
         29:20:21:c7:2c:6e:7f:d5:64:91:2f:e7:39:a0:c9:30:5a:85:
         2f:80:93:7a:10:c3:cb:3c:d3:f4:68:98:12:00:ed:9c:76:02:
         2d:bf:1d:99:9d:4f:8d:90:90:2f:9d:0c:66:bb:5c:be:0b:86:
         5a:55:5e:d6:f5:42:d0:7d:34:6a:8b:8b:f1:66:46:2d:78:87:
         bb:b8:f0:50:80:3c:68:6c:81:77:2c:39:2e:5d:81:3d:93:f6:
         7d:35:98:5b:4d:d8:7a:2e:ac:7c:08:98:cd:60:f7:57:80:69:
         4b:81:07:ed:72:7f:9f:01:8f:2f:c9:6a:25:b4:82:d5:42:ca:
         17:b4:e5:b3:ba:90:cf:42:b7:59:be:92:6c:ee:e3:03:71:bb:
         d5:a9:50:89:1e:fb:fd:32:fa:e0:af:d8:21:cd:36:ca:e2:0f:
         25:12:ae:16:94:8d:08:11
-----BEGIN CERTIFICATE-----
MIIHSDCCBTCgAwIBAgICAxYwDQYJKoZIhvcNAQEFBQAwgbQxCzAJBgNVBAYTAlVT
MQswCQYDVQQIEwJDQTEVMBMGA1UEBxMMU2FuRnJhbmNpc2NvMRUwEwYDVQQKEwxQ
aXhnbG8sIEluYy4xEDAOBgNVBAsTB1ZQTi1DSUUxGjAYBgNVBAMTEXR1bm5lbC5w
aXhnbG8uY29tMRwwGgYDVQQpExNCYWxhIENoYW5kcmFzZWthcmFuMR4wHAYJKoZI
hvcNAQkBFg9iYWxhQHBpeGdsby5jb20wHhcNMTgwMjE0MDY0MzM5WhcNMjgwMjEy
MDY0MzM5WjCBqTELMAkGA1UEBhMCVVMxCzAJBgNVBAgTAkNBMRUwEwYDVQQHEwxT
YW5GcmFuY2lzY28xFTATBgNVBAoTDFBpeGdsbywgSW5jLjEQMA4GA1UECxMHVlBO
LUNJRTEPMA0GA1UEAxMGY2llNzg5MRwwGgYDVQQpExNCYWxhIENoYW5kcmFzZWth
cmFuMR4wHAYJKoZIhvcNAQkBFg9iYWxhQHBpeGdsby5jb20wggIiMA0GCSqGSIb3
DQEBAQUAA4ICDwAwggIKAoICAQDKe8vOLtU9Pgj+/NVD6HpiqOVWhChAIQYy41yD
03s0LzsQSGdeaLHQ7okD+iobf14LTJ3q/CtCM4PJ9u1IAET3i6Eq0AyKP0rvL2pM
upQvzM3T9lCJfQ2BM9QGESIgl3zubaQY85qqX9exQhrwBv+3bsKDGBVqqA2UsTMV
IFwYC0NUQFKPZivmotHUr6Os/Nt6GMD56aYbgqaEMPt5KH9hG6B2G4piYM8CBoJ+
GFnT9RPCorya9vnaRzoBDSb+bcNKVFzh9hQBR3Hd59hPQJstX+JobI92MaymTGQE
ZnE/YTD9/Mpqc4nsLX5uRyzT59A3l0Rvjo/vIXlK/7OWXr77WB/Mc/SAMCo8R8+Y
LF9x70qlysp7JTKHu48R2V/H4w3vsh8tKMSduTw9go7qLxlA2BKH6IDLiFFhD5Nc
ZYLkP9e+6pKehXR4NGseqH6o+Ld5N/zHismEYLDWWNUswelrX4LY8mbFfM0uAdaq
lwtzl/awc7ZmtlOk5V7QSChbxAQA5F4BS6aSD5NIga9BH5a3eUAaHzpMXqgmV6wU
VPSqlBrAjbci6hUyIPDzrAP3gv9xcooWs65FbXRJXp8zv4zvqAu+BQ1CuWKMhwBh
69wWPN0Qc2GhHUhlR+Sj+AwWaIRm7pIM13wsumD+MMRyBqdZrj44KZ8FCp8jiYGP
GGqIoQIDAQABo4IBazCCAWcwCQYDVR0TBAIwADAtBglghkgBhvhCAQ0EIBYeRWFz
eS1SU0EgR2VuZXJhdGVkIENlcnRpZmljYXRlMB0GA1UdDgQWBBQIJg4xdN5Dw5E/
la8wA7JXthPevjCB6QYDVR0jBIHhMIHegBTvOI0UUFinW02cF3L837msp1GwEKGB
uqSBtzCBtDELMAkGA1UEBhMCVVMxCzAJBgNVBAgTAkNBMRUwEwYDVQQHEwxTYW5G
cmFuY2lzY28xFTATBgNVBAoTDFBpeGdsbywgSW5jLjEQMA4GA1UECxMHVlBOLUNJ
RTEaMBgGA1UEAxMRdHVubmVsLnBpeGdsby5jb20xHDAaBgNVBCkTE0JhbGEgQ2hh
bmRyYXNla2FyYW4xHjAcBgkqhkiG9w0BCQEWD2JhbGFAcGl4Z2xvLmNvbYIJAKbb
xoOA5qB5MBMGA1UdJQQMMAoGCCsGAQUFBwMCMAsGA1UdDwQEAwIHgDANBgkqhkiG
9w0BAQUFAAOCAgEAT58qKn2MMBUDKWF+RTQkbCa8rxq4Jb4hmDzTsfLwxSZj0Mcx
w8N8/78oc3HGW+ORTuUr9gXqxlL9smD4BlKpSOqE4jwUG3VUSImhFEoiEeHw0Szm
6guvjnZoV07xBNmgcFNijjgsJtXifzeDXtOEN79YiTbr/+AiCqBBCC3eKkS/KGbD
8BmVN+7vMani6ifbcWdrDHKNGgjtsSPe7KIPVGfSwvAS9J9NEaDhSeJR9J+Qc4ne
ObMj9mGG02dRJji8nWnLPjp7AEkqbNrohs25c+hUNeK3XBUHt6QWToppUPwXxDPb
AOGFnVKh6+zdGcA7XdXi4uPD4FoQytmaFKDXtO3G+TN0iA5wH9RZJk7KBtj703qM
y8nnkh4KL4aIZ9D79GCMm3f/BF8lYE/5AKLZmEKJoYp/ZcmVnpy8zz1MxxM1SfYZ
Qos2PCWd6HxQQERMDwyqOKobKSAhxyxuf9VkkS/nOaDJMFqFL4CTehDDyzzT9GiY
EgDtnHYCLb8dmZ1PjZCQL50MZrtcvguGWlVe1vVC0H00aouL8WZGLXiHu7jwUIA8
aGyBdyw5Ll2BPZP2fTWYW03Yei6sfAiYzWD3V4BpS4EH7XJ/nwGPL8lqJbSC1ULK
F7Tls7qQz0K3Wb6SbO7jA3G71alQiR77/TL64K/YIc02yuIPJRKuFpSNCBE=
-----END CERTIFICATE-----
