Certificate:
    Data:
        Version: 3 (0x2)
        Serial Number: 714 (0x2ca)
    Signature Algorithm: sha1WithRSAEncryption
        Issuer: C=US, ST=CA, L=SanFrancisco, O=Pixglo, Inc., OU=VPN-CIE, CN=tunnel.pixglo.com/name=Bala Chandrasekaran/emailAddress=bala@pixglo.com
        Validity
            Not Before: Feb 14 06:41:18 2018 GMT
            Not After : Feb 12 06:41:18 2028 GMT
        Subject: C=US, ST=CA, L=SanFrancisco, O=Pixglo, Inc., OU=VPN-CIE, CN=cie713/name=Bala Chandrasekaran/emailAddress=bala@pixglo.com
        Subject Public Key Info:
            Public Key Algorithm: rsaEncryption
                Public-Key: (4096 bit)
                Modulus:
                    00:c8:0a:90:24:61:a8:34:9b:b7:36:3e:2a:7f:76:
                    45:f4:3b:53:7d:37:44:82:d0:d3:53:4e:af:6d:ad:
                    98:6a:b0:f5:11:ef:55:8e:64:89:0f:c4:37:46:72:
                    40:1b:db:e7:25:a7:6f:a7:ab:62:eb:65:a6:66:63:
                    10:0d:3d:31:48:f6:aa:3a:5d:84:74:6a:07:40:a5:
                    44:d0:c3:a4:61:20:42:1e:b3:37:c9:86:ac:12:3f:
                    d6:09:b0:7f:98:4e:39:e5:4d:b3:27:2f:55:af:a5:
                    7f:fd:16:78:1d:c4:c8:9a:0e:08:34:1d:8c:c5:57:
                    94:a6:19:bd:0e:6c:12:bc:92:ff:00:bb:6b:17:d5:
                    10:ad:7f:7c:20:24:4f:1a:37:b3:05:3f:be:3b:17:
                    5b:5d:77:ea:1e:14:8a:b4:a7:1f:5f:ed:af:87:ef:
                    85:21:94:25:ae:e1:10:70:f5:a9:bb:cb:92:69:8f:
                    67:f4:a2:29:43:ed:7f:76:64:f3:03:b5:b5:c7:da:
                    6c:04:72:cb:c0:6d:a2:3c:40:7a:51:cc:44:64:b3:
                    d5:64:70:99:0f:71:80:97:35:23:cc:36:aa:45:c0:
                    df:9b:74:53:b1:ee:e0:55:86:51:35:39:5c:39:19:
                    c1:55:8f:ba:02:73:77:69:2a:68:52:8b:ff:f6:f9:
                    37:87:71:51:52:4f:e5:43:d2:4d:d5:f5:4c:02:3b:
                    cd:8b:a3:4a:ff:b7:85:9a:e5:84:a6:a7:a8:9d:f4:
                    02:eb:5e:13:1e:ea:cd:f5:e4:c5:ce:d3:61:ea:ea:
                    d6:2a:93:3b:04:a6:84:1b:9e:2b:bc:8e:c8:7c:2c:
                    30:9a:f2:a8:a2:2d:b8:63:36:73:d0:a7:28:3a:37:
                    ad:cb:59:4a:be:84:25:70:d3:31:07:1f:12:08:e5:
                    ce:7d:c1:43:89:85:15:3c:64:c7:b2:cc:00:47:41:
                    39:b7:32:d8:bc:a6:d5:c7:49:7b:00:78:97:f0:0c:
                    b6:42:53:03:2d:76:e5:80:3e:39:39:4c:ad:54:2c:
                    cb:70:4e:ae:11:cb:10:1e:01:95:6a:2a:e5:3c:e9:
                    2b:d7:bf:a0:ec:8f:4d:88:c5:99:53:39:da:71:cf:
                    63:a2:1c:44:07:0c:15:06:9f:bf:e5:c4:98:b5:97:
                    41:b2:dd:16:a2:21:5c:04:12:56:d3:4c:73:d4:be:
                    5c:b6:32:ae:5a:bf:76:0f:44:9c:47:89:16:c4:99:
                    53:4b:b3:e5:f2:d4:ff:64:27:0d:de:94:fd:5c:5f:
                    00:44:a5:94:1d:fa:7a:37:3b:c9:cd:f6:6f:3b:97:
                    5b:b5:01:e1:b8:de:c6:ad:50:45:f3:df:f6:ea:ba:
                    87:80:b1
                Exponent: 65537 (0x10001)
        X509v3 extensions:
            X509v3 Basic Constraints: 
                CA:FALSE
            Netscape Comment: 
                Easy-RSA Generated Certificate
            X509v3 Subject Key Identifier: 
                1B:32:DB:F5:D3:2B:F5:A5:38:88:8A:63:DD:E8:21:17:32:88:A6:A7
            X509v3 Authority Key Identifier: 
                keyid:EF:38:8D:14:50:58:A7:5B:4D:9C:17:72:FC:DF:B9:AC:A7:51:B0:10
                DirName:/C=US/ST=CA/L=SanFrancisco/O=Pixglo, Inc./OU=VPN-CIE/CN=tunnel.pixglo.com/name=Bala Chandrasekaran/emailAddress=bala@pixglo.com
                serial:A6:DB:C6:83:80:E6:A0:79

            X509v3 Extended Key Usage: 
                TLS Web Client Authentication
            X509v3 Key Usage: 
                Digital Signature
    Signature Algorithm: sha1WithRSAEncryption
         58:20:b9:a6:c2:68:07:27:b0:ed:1e:80:3e:5f:96:94:49:70:
         0b:14:44:9e:b1:e3:c0:e5:46:5a:c8:67:43:56:37:95:75:e7:
         a9:76:1a:2f:90:d5:da:37:66:06:2b:b9:33:58:16:8d:04:28:
         f0:46:c0:1c:0b:cf:6a:d6:ac:eb:5c:2e:d6:9b:4b:84:87:fe:
         c9:ac:16:19:1d:cb:aa:b7:84:ae:fa:f9:8f:20:17:1c:5b:11:
         75:12:47:8d:26:1d:a1:27:c4:03:c6:2d:60:9d:8d:f7:57:01:
         9a:25:3e:da:65:6d:66:fa:5f:b7:d1:5d:00:79:ea:a1:4a:07:
         1b:49:79:e6:23:06:0a:4f:67:d8:01:b3:c9:ec:33:d7:98:01:
         c6:c7:94:81:05:4d:07:04:1b:d6:88:3a:ee:12:aa:8b:ec:29:
         30:e3:e8:cc:6d:b2:09:96:c9:d9:28:eb:b3:eb:d0:4b:2c:fb:
         20:0e:33:4a:38:ae:f3:73:c1:db:ca:8d:13:2b:26:bc:3c:31:
         32:8f:83:54:9c:b2:de:0d:e7:11:b2:19:49:81:f6:55:74:2c:
         2b:07:51:01:28:47:9a:9b:3c:f2:e5:9b:1c:07:c4:d6:de:ef:
         45:48:85:a4:ed:dd:98:fc:6a:49:17:4f:c8:af:dc:f4:00:b0:
         d1:95:dc:f2:2c:6d:70:a5:60:1d:d6:ae:c5:d8:c0:e6:b5:33:
         63:b3:f4:7b:6d:f2:eb:7c:40:47:40:fe:26:cd:9c:da:b3:06:
         e6:8e:a9:7c:74:b6:b6:9a:c1:33:2f:56:7b:9f:6e:f6:ea:46:
         47:9c:8f:2f:7d:fc:3d:d5:8a:a0:56:bd:3e:ce:5f:c5:2c:85:
         eb:50:0c:70:ca:41:8d:33:d4:07:f0:52:47:4c:ba:76:64:a8:
         91:d3:7c:1d:2c:d2:3e:fb:4f:f1:0c:9a:8f:76:4b:01:2f:99:
         18:62:b4:09:ca:7c:fb:85:f9:67:e2:66:4f:51:ff:c7:9c:0e:
         0d:4d:82:7d:13:b0:c0:03:77:c7:e0:86:39:2b:d0:a7:6a:3c:
         b3:67:34:64:15:41:c3:c0:1c:dd:32:ee:ae:b7:79:3b:80:e1:
         36:91:b6:d5:cd:3c:28:3c:0e:f4:a6:73:44:f7:d3:7e:f6:84:
         bd:e1:d3:db:56:71:9d:6d:5f:6e:61:25:b4:4d:0c:70:39:2a:
         b3:19:b5:25:85:04:4a:5c:c3:e1:d8:21:14:d2:93:11:00:c6:
         99:9a:36:e1:9f:a4:d4:e0:fe:8b:f0:77:27:da:ec:3e:c4:b2:
         6b:a3:e3:65:2c:ce:a8:7a:3a:32:52:f7:8e:ee:bf:26:0e:76:
         41:cb:0b:61:47:89:84:79
-----BEGIN CERTIFICATE-----
MIIHSDCCBTCgAwIBAgICAsowDQYJKoZIhvcNAQEFBQAwgbQxCzAJBgNVBAYTAlVT
MQswCQYDVQQIEwJDQTEVMBMGA1UEBxMMU2FuRnJhbmNpc2NvMRUwEwYDVQQKEwxQ
aXhnbG8sIEluYy4xEDAOBgNVBAsTB1ZQTi1DSUUxGjAYBgNVBAMTEXR1bm5lbC5w
aXhnbG8uY29tMRwwGgYDVQQpExNCYWxhIENoYW5kcmFzZWthcmFuMR4wHAYJKoZI
hvcNAQkBFg9iYWxhQHBpeGdsby5jb20wHhcNMTgwMjE0MDY0MTE4WhcNMjgwMjEy
MDY0MTE4WjCBqTELMAkGA1UEBhMCVVMxCzAJBgNVBAgTAkNBMRUwEwYDVQQHEwxT
YW5GcmFuY2lzY28xFTATBgNVBAoTDFBpeGdsbywgSW5jLjEQMA4GA1UECxMHVlBO
LUNJRTEPMA0GA1UEAxMGY2llNzEzMRwwGgYDVQQpExNCYWxhIENoYW5kcmFzZWth
cmFuMR4wHAYJKoZIhvcNAQkBFg9iYWxhQHBpeGdsby5jb20wggIiMA0GCSqGSIb3
DQEBAQUAA4ICDwAwggIKAoICAQDICpAkYag0m7c2Pip/dkX0O1N9N0SC0NNTTq9t
rZhqsPUR71WOZIkPxDdGckAb2+clp2+nq2LrZaZmYxANPTFI9qo6XYR0agdApUTQ
w6RhIEIeszfJhqwSP9YJsH+YTjnlTbMnL1WvpX/9FngdxMiaDgg0HYzFV5SmGb0O
bBK8kv8Au2sX1RCtf3wgJE8aN7MFP747F1tdd+oeFIq0px9f7a+H74UhlCWu4RBw
9am7y5Jpj2f0oilD7X92ZPMDtbXH2mwEcsvAbaI8QHpRzERks9VkcJkPcYCXNSPM
NqpFwN+bdFOx7uBVhlE1OVw5GcFVj7oCc3dpKmhSi//2+TeHcVFST+VD0k3V9UwC
O82Lo0r/t4Wa5YSmp6id9ALrXhMe6s315MXO02Hq6tYqkzsEpoQbniu8jsh8LDCa
8qiiLbhjNnPQpyg6N63LWUq+hCVw0zEHHxII5c59wUOJhRU8ZMeyzABHQTm3Mti8
ptXHSXsAeJfwDLZCUwMtduWAPjk5TK1ULMtwTq4RyxAeAZVqKuU86SvXv6Dsj02I
xZlTOdpxz2OiHEQHDBUGn7/lxJi1l0Gy3RaiIVwEElbTTHPUvly2Mq5av3YPRJxH
iRbEmVNLs+Xy1P9kJw3elP1cXwBEpZQd+no3O8nN9m87l1u1AeG43satUEXz3/bq
uoeAsQIDAQABo4IBazCCAWcwCQYDVR0TBAIwADAtBglghkgBhvhCAQ0EIBYeRWFz
eS1SU0EgR2VuZXJhdGVkIENlcnRpZmljYXRlMB0GA1UdDgQWBBQbMtv10yv1pTiI
imPd6CEXMoimpzCB6QYDVR0jBIHhMIHegBTvOI0UUFinW02cF3L837msp1GwEKGB
uqSBtzCBtDELMAkGA1UEBhMCVVMxCzAJBgNVBAgTAkNBMRUwEwYDVQQHEwxTYW5G
cmFuY2lzY28xFTATBgNVBAoTDFBpeGdsbywgSW5jLjEQMA4GA1UECxMHVlBOLUNJ
RTEaMBgGA1UEAxMRdHVubmVsLnBpeGdsby5jb20xHDAaBgNVBCkTE0JhbGEgQ2hh
bmRyYXNla2FyYW4xHjAcBgkqhkiG9w0BCQEWD2JhbGFAcGl4Z2xvLmNvbYIJAKbb
xoOA5qB5MBMGA1UdJQQMMAoGCCsGAQUFBwMCMAsGA1UdDwQEAwIHgDANBgkqhkiG
9w0BAQUFAAOCAgEAWCC5psJoByew7R6APl+WlElwCxREnrHjwOVGWshnQ1Y3lXXn
qXYaL5DV2jdmBiu5M1gWjQQo8EbAHAvPatas61wu1ptLhIf+yawWGR3LqreErvr5
jyAXHFsRdRJHjSYdoSfEA8YtYJ2N91cBmiU+2mVtZvpft9FdAHnqoUoHG0l55iMG
Ck9n2AGzyewz15gBxseUgQVNBwQb1og67hKqi+wpMOPozG2yCZbJ2Sjrs+vQSyz7
IA4zSjiu83PB28qNEysmvDwxMo+DVJyy3g3nEbIZSYH2VXQsKwdRAShHmps88uWb
HAfE1t7vRUiFpO3dmPxqSRdPyK/c9ACw0ZXc8ixtcKVgHdauxdjA5rUzY7P0e23y
63xAR0D+Js2c2rMG5o6pfHS2tprBMy9We59u9upGR5yPL338PdWKoFa9Ps5fxSyF
61AMcMpBjTPUB/BSR0y6dmSokdN8HSzSPvtP8Qyaj3ZLAS+ZGGK0Ccp8+4X5Z+Jm
T1H/x5wODU2CfROwwAN3x+CGOSvQp2o8s2c0ZBVBw8Ac3TLurrd5O4DhNpG21c08
KDwO9KZzRPfTfvaEveHT21ZxnW1fbmEltE0McDkqsxm1JYUESlzD4dghFNKTEQDG
mZo24Z+k1OD+i/B3J9rsPsSya6PjZSzOqHo6MlL3ju6/Jg52QcsLYUeJhHk=
-----END CERTIFICATE-----
