Certificate:
    Data:
        Version: 3 (0x2)
        Serial Number: 768 (0x300)
    Signature Algorithm: sha1WithRSAEncryption
        Issuer: C=US, ST=CA, L=SanFrancisco, O=Pixglo, Inc., OU=VPN-CIE, CN=tunnel.pixglo.com/name=Bala Chandrasekaran/emailAddress=bala@pixglo.com
        Validity
            Not Before: Feb 14 06:43:01 2018 GMT
            Not After : Feb 12 06:43:01 2028 GMT
        Subject: C=US, ST=CA, L=SanFrancisco, O=Pixglo, Inc., OU=VPN-CIE, CN=cie767/name=Bala Chandrasekaran/emailAddress=bala@pixglo.com
        Subject Public Key Info:
            Public Key Algorithm: rsaEncryption
                Public-Key: (4096 bit)
                Modulus:
                    00:d7:cc:ae:7e:2b:40:83:8e:d0:c2:15:7d:35:be:
                    93:81:13:ae:32:93:d9:d7:d5:ad:f1:cb:e3:a6:ce:
                    2c:5f:93:49:5c:a2:2d:82:2c:b9:b1:e4:61:7e:26:
                    a3:b4:c5:7e:fe:40:86:61:12:5b:9e:15:38:72:4d:
                    5f:f4:e5:55:1d:8e:8d:37:16:2f:e5:39:25:98:4f:
                    af:6b:ef:96:8c:15:82:ac:1f:34:5f:1c:d9:16:01:
                    cc:9c:3f:4c:c0:f6:9a:e0:94:63:95:5a:40:c5:83:
                    2a:22:b8:8d:1d:d3:e9:fa:a9:49:39:51:cf:0e:54:
                    b4:68:9c:47:f7:db:c4:c9:9a:e9:d6:0d:a8:bc:ea:
                    30:72:f6:35:a8:30:71:84:a7:ed:f5:e9:4e:ba:fe:
                    50:6e:c2:6c:dd:87:dd:b1:6a:6c:96:c0:3a:58:5c:
                    13:f6:18:09:0e:ef:95:82:b3:5a:af:84:63:8c:11:
                    4a:f9:1e:ff:bb:d1:1d:b7:4d:d0:18:ba:7f:51:1c:
                    56:79:16:3a:8c:ea:15:bd:b4:ab:db:23:9d:86:fc:
                    44:45:df:12:1c:f2:1b:f8:19:43:2e:76:91:25:8c:
                    f6:0e:12:a8:f6:56:c3:ad:58:e7:33:a0:cd:93:03:
                    6a:77:a4:68:09:a1:53:54:55:84:21:82:70:77:5e:
                    0b:d8:6f:35:a0:2a:b2:c1:56:0e:1e:f0:82:9c:88:
                    ab:2e:5e:f8:04:eb:0b:41:dd:cc:88:88:0c:73:34:
                    4b:78:6a:4f:14:fb:0d:bf:fa:16:b3:77:21:0b:4a:
                    7f:a6:c6:af:73:0a:09:f3:84:31:72:a7:9f:27:70:
                    4b:b2:b8:4a:1c:e3:ac:89:0c:26:03:e1:62:dd:3e:
                    3d:1c:6c:a6:80:74:39:67:f8:4d:4f:a8:9e:ca:06:
                    e5:05:5d:82:cc:05:93:ff:1a:b4:87:f4:b4:61:ee:
                    b6:b0:84:cc:b6:2e:7d:80:36:f4:3e:75:a5:6d:c0:
                    48:29:fe:62:e3:da:d2:f6:8d:99:17:58:00:85:4b:
                    21:28:4d:a8:31:19:3a:7d:03:6b:1f:2b:c7:e2:04:
                    c4:97:1d:4e:59:88:43:b0:76:f4:4d:d1:b2:86:2e:
                    69:db:81:87:6c:85:e6:c5:81:55:ef:b2:27:41:37:
                    49:f5:e7:40:95:53:1b:e3:9a:24:62:d1:42:14:20:
                    dd:80:b1:19:02:2c:23:59:51:bf:ef:4d:32:46:0d:
                    c7:f8:ff:f3:65:13:2d:6c:02:1c:b0:11:47:bc:91:
                    e5:2f:34:95:af:a7:ee:6d:16:b7:be:bf:7f:9d:8b:
                    3e:99:96:5e:e9:08:e3:1d:2d:ff:51:6d:fe:47:22:
                    e8:55:85
                Exponent: 65537 (0x10001)
        X509v3 extensions:
            X509v3 Basic Constraints: 
                CA:FALSE
            Netscape Comment: 
                Easy-RSA Generated Certificate
            X509v3 Subject Key Identifier: 
                5F:01:0F:81:A5:96:A5:E1:E7:49:73:4B:A7:FE:C3:77:1D:49:3D:01
            X509v3 Authority Key Identifier: 
                keyid:EF:38:8D:14:50:58:A7:5B:4D:9C:17:72:FC:DF:B9:AC:A7:51:B0:10
                DirName:/C=US/ST=CA/L=SanFrancisco/O=Pixglo, Inc./OU=VPN-CIE/CN=tunnel.pixglo.com/name=Bala Chandrasekaran/emailAddress=bala@pixglo.com
                serial:A6:DB:C6:83:80:E6:A0:79

            X509v3 Extended Key Usage: 
                TLS Web Client Authentication
            X509v3 Key Usage: 
                Digital Signature
    Signature Algorithm: sha1WithRSAEncryption
         1a:b5:91:42:26:5d:9d:ec:e7:f3:cc:a9:e6:57:f0:6b:c9:4e:
         e6:44:1c:58:45:c2:64:61:04:58:44:56:31:87:4f:7e:ca:14:
         3f:60:3c:d0:26:8c:11:dd:57:60:56:1d:a7:0e:65:b1:40:76:
         01:1a:9a:3a:12:db:47:a9:7e:b5:a0:8d:ab:e1:57:e3:3e:f3:
         d0:29:a1:f5:9d:af:e5:15:ee:d9:5d:4e:7e:46:59:3c:79:4a:
         f7:03:09:01:7c:70:cd:29:05:10:3e:87:41:89:79:78:a6:6e:
         de:07:f8:31:e2:24:e8:d0:70:7e:e7:67:ff:21:0f:d8:4e:85:
         22:c0:4b:43:34:0c:2b:d9:58:b7:9c:c4:d9:54:90:58:b3:f1:
         36:76:d2:ed:0a:4d:92:7b:23:26:50:fd:3d:13:08:ed:ce:ac:
         27:c0:a6:ed:aa:97:25:98:16:71:be:01:34:9d:55:29:73:25:
         07:be:90:92:d4:24:73:05:ae:a9:cd:58:53:5a:96:67:c8:e0:
         e7:49:b0:e5:eb:f9:27:5b:34:3d:16:1b:f2:f0:a5:48:6f:d2:
         77:e5:f0:7b:a7:b3:f6:d7:e4:5a:22:73:d8:13:47:5e:5e:7a:
         0b:ec:20:63:7a:ba:5b:4c:44:8f:34:2a:c0:63:47:54:58:8a:
         ff:7e:a9:05:2f:98:b9:13:c1:aa:28:e9:76:d3:66:c3:da:df:
         00:04:78:f4:42:1d:bf:10:6b:82:47:ae:3f:58:59:2c:22:85:
         0b:ac:a7:95:17:18:ae:5b:0f:b1:4d:58:6a:1c:9e:49:d7:87:
         0a:ac:2e:69:cb:94:60:49:ce:23:13:8f:d9:80:ce:00:c4:95:
         f2:c3:9e:0a:08:25:c6:d9:90:76:56:89:20:b9:85:20:34:91:
         98:fc:1b:18:b5:b6:73:0d:9e:86:73:d7:ed:17:36:b2:ea:23:
         dd:5c:ff:94:37:b4:07:e2:56:38:5d:56:28:bf:53:92:60:f3:
         62:5d:cd:a9:f7:46:03:cf:d7:45:7f:84:e2:84:03:ab:52:af:
         1e:f9:c5:51:fb:14:81:93:62:ef:91:25:c1:67:32:c9:50:63:
         ba:12:54:f2:bb:8a:79:a5:8e:3d:db:c6:20:d0:81:05:86:52:
         e4:90:28:b7:80:3f:8b:68:f2:fe:76:9d:57:52:74:b5:84:19:
         fc:65:b9:28:ab:78:70:79:ee:3e:60:23:b6:88:93:4e:fb:b5:
         8b:04:f0:f9:d5:b6:3c:b1:d0:91:22:f5:e2:55:19:57:96:55:
         83:b3:b5:8d:6a:a8:7d:43:76:a0:59:4d:fc:2d:96:fa:70:8b:
         1f:d0:09:15:57:0c:e0:8f
-----BEGIN CERTIFICATE-----
MIIHSDCCBTCgAwIBAgICAwAwDQYJKoZIhvcNAQEFBQAwgbQxCzAJBgNVBAYTAlVT
MQswCQYDVQQIEwJDQTEVMBMGA1UEBxMMU2FuRnJhbmNpc2NvMRUwEwYDVQQKEwxQ
aXhnbG8sIEluYy4xEDAOBgNVBAsTB1ZQTi1DSUUxGjAYBgNVBAMTEXR1bm5lbC5w
aXhnbG8uY29tMRwwGgYDVQQpExNCYWxhIENoYW5kcmFzZWthcmFuMR4wHAYJKoZI
hvcNAQkBFg9iYWxhQHBpeGdsby5jb20wHhcNMTgwMjE0MDY0MzAxWhcNMjgwMjEy
MDY0MzAxWjCBqTELMAkGA1UEBhMCVVMxCzAJBgNVBAgTAkNBMRUwEwYDVQQHEwxT
YW5GcmFuY2lzY28xFTATBgNVBAoTDFBpeGdsbywgSW5jLjEQMA4GA1UECxMHVlBO
LUNJRTEPMA0GA1UEAxMGY2llNzY3MRwwGgYDVQQpExNCYWxhIENoYW5kcmFzZWth
cmFuMR4wHAYJKoZIhvcNAQkBFg9iYWxhQHBpeGdsby5jb20wggIiMA0GCSqGSIb3
DQEBAQUAA4ICDwAwggIKAoICAQDXzK5+K0CDjtDCFX01vpOBE64yk9nX1a3xy+Om
zixfk0lcoi2CLLmx5GF+JqO0xX7+QIZhElueFThyTV/05VUdjo03Fi/lOSWYT69r
75aMFYKsHzRfHNkWAcycP0zA9prglGOVWkDFgyoiuI0d0+n6qUk5Uc8OVLRonEf3
28TJmunWDai86jBy9jWoMHGEp+316U66/lBuwmzdh92xamyWwDpYXBP2GAkO75WC
s1qvhGOMEUr5Hv+70R23TdAYun9RHFZ5FjqM6hW9tKvbI52G/ERF3xIc8hv4GUMu
dpEljPYOEqj2VsOtWOczoM2TA2p3pGgJoVNUVYQhgnB3XgvYbzWgKrLBVg4e8IKc
iKsuXvgE6wtB3cyIiAxzNEt4ak8U+w2/+hazdyELSn+mxq9zCgnzhDFyp58ncEuy
uEoc46yJDCYD4WLdPj0cbKaAdDln+E1PqJ7KBuUFXYLMBZP/GrSH9LRh7rawhMy2
Ln2ANvQ+daVtwEgp/mLj2tL2jZkXWACFSyEoTagxGTp9A2sfK8fiBMSXHU5ZiEOw
dvRN0bKGLmnbgYdshebFgVXvsidBN0n150CVUxvjmiRi0UIUIN2AsRkCLCNZUb/v
TTJGDcf4//NlEy1sAhywEUe8keUvNJWvp+5tFre+v3+diz6Zll7pCOMdLf9Rbf5H
IuhVhQIDAQABo4IBazCCAWcwCQYDVR0TBAIwADAtBglghkgBhvhCAQ0EIBYeRWFz
eS1SU0EgR2VuZXJhdGVkIENlcnRpZmljYXRlMB0GA1UdDgQWBBRfAQ+BpZal4edJ
c0un/sN3HUk9ATCB6QYDVR0jBIHhMIHegBTvOI0UUFinW02cF3L837msp1GwEKGB
uqSBtzCBtDELMAkGA1UEBhMCVVMxCzAJBgNVBAgTAkNBMRUwEwYDVQQHEwxTYW5G
cmFuY2lzY28xFTATBgNVBAoTDFBpeGdsbywgSW5jLjEQMA4GA1UECxMHVlBOLUNJ
RTEaMBgGA1UEAxMRdHVubmVsLnBpeGdsby5jb20xHDAaBgNVBCkTE0JhbGEgQ2hh
bmRyYXNla2FyYW4xHjAcBgkqhkiG9w0BCQEWD2JhbGFAcGl4Z2xvLmNvbYIJAKbb
xoOA5qB5MBMGA1UdJQQMMAoGCCsGAQUFBwMCMAsGA1UdDwQEAwIHgDANBgkqhkiG
9w0BAQUFAAOCAgEAGrWRQiZdnezn88yp5lfwa8lO5kQcWEXCZGEEWERWMYdPfsoU
P2A80CaMEd1XYFYdpw5lsUB2ARqaOhLbR6l+taCNq+FX4z7z0Cmh9Z2v5RXu2V1O
fkZZPHlK9wMJAXxwzSkFED6HQYl5eKZu3gf4MeIk6NBwfudn/yEP2E6FIsBLQzQM
K9lYt5zE2VSQWLPxNnbS7QpNknsjJlD9PRMI7c6sJ8Cm7aqXJZgWcb4BNJ1VKXMl
B76QktQkcwWuqc1YU1qWZ8jg50mw5ev5J1s0PRYb8vClSG/Sd+Xwe6ez9tfkWiJz
2BNHXl56C+wgY3q6W0xEjzQqwGNHVFiK/36pBS+YuRPBqijpdtNmw9rfAAR49EId
vxBrgkeuP1hZLCKFC6ynlRcYrlsPsU1YahyeSdeHCqwuacuUYEnOIxOP2YDOAMSV
8sOeCgglxtmQdlaJILmFIDSRmPwbGLW2cw2ehnPX7Rc2suoj3Vz/lDe0B+JWOF1W
KL9TkmDzYl3NqfdGA8/XRX+E4oQDq1KvHvnFUfsUgZNi75ElwWcyyVBjuhJU8ruK
eaWOPdvGINCBBYZS5JAot4A/i2jy/nadV1J0tYQZ/GW5KKt4cHnuPmAjtoiTTvu1
iwTw+dW2PLHQkSL14lUZV5ZVg7O1jWqofUN2oFlN/C2W+nCLH9AJFVcM4I8=
-----END CERTIFICATE-----
