Certificate:
    Data:
        Version: 3 (0x2)
        Serial Number: 89 (0x59)
    Signature Algorithm: sha1WithRSAEncryption
        Issuer: C=US, ST=CA, L=SanFrancisco, O=Pixglo, Inc., OU=VPN-CIE, CN=tunnel.pixglo.com/name=Bala Chandrasekaran/emailAddress=bala@pixglo.com
        Validity
            Not Before: Feb 14 06:25:26 2018 GMT
            Not After : Feb 12 06:25:26 2028 GMT
        Subject: C=US, ST=CA, L=SanFrancisco, O=Pixglo, Inc., OU=VPN-CIE, CN=cie88/name=Bala Chandrasekaran/emailAddress=bala@pixglo.com
        Subject Public Key Info:
            Public Key Algorithm: rsaEncryption
                Public-Key: (4096 bit)
                Modulus:
                    00:c7:8e:11:da:2e:58:42:29:89:60:41:1b:00:7a:
                    73:54:b6:21:97:df:41:c1:b0:f6:28:e3:9e:8e:90:
                    0a:42:84:15:76:79:77:70:ca:c5:ec:fd:98:33:9d:
                    3d:c8:6d:9e:70:67:69:39:ce:c6:44:66:f3:b5:71:
                    09:cd:bd:63:c3:7c:61:7f:49:43:e3:ab:84:62:0a:
                    dc:12:b4:c4:95:a7:9b:a6:ed:cb:8f:d6:cf:5e:74:
                    21:ba:97:d8:f7:81:ac:fe:86:81:e5:41:e8:08:9e:
                    ae:c2:67:c8:ef:59:5f:ce:0b:0e:7a:3e:54:64:42:
                    7a:5f:de:21:58:10:5e:98:06:8a:eb:02:64:b6:91:
                    4e:4f:47:56:d1:95:4d:92:c9:63:85:21:28:64:6e:
                    5e:18:aa:11:00:9b:a1:30:de:aa:9b:c5:59:e3:c9:
                    3b:77:3a:d6:96:ad:ba:42:1a:7e:25:c6:20:1f:bb:
                    57:f8:5e:ae:a2:2e:a2:d8:a7:20:a4:61:79:89:9f:
                    cb:11:4f:6b:c8:96:cf:91:7c:40:f7:a5:46:9c:57:
                    98:28:e0:75:57:3e:cc:06:c3:e6:1c:81:82:10:38:
                    5a:81:52:f4:a3:7c:cd:8f:57:58:f8:76:11:cc:98:
                    58:5a:3d:78:27:d5:1a:83:bc:17:1e:de:21:d2:b8:
                    0b:36:1f:1c:59:73:8a:2c:f4:47:13:9a:b7:d4:34:
                    7e:0d:db:c3:f1:90:18:41:0a:a5:ea:37:fd:61:9d:
                    91:7f:d9:15:e7:11:76:9f:33:ac:3c:01:25:ee:ad:
                    d3:06:4b:c8:29:fe:b6:6e:4b:a1:6b:20:5b:9e:34:
                    99:1c:de:ef:c6:f0:dc:81:93:09:df:29:4d:68:1d:
                    4e:a1:07:04:44:f6:ba:01:6c:11:d0:de:49:76:e3:
                    dd:9e:55:88:97:3c:3f:f5:c1:5d:c2:81:15:1f:7a:
                    99:db:46:c8:c1:fc:7a:89:ac:bb:56:11:7a:61:bd:
                    8a:90:e3:51:f3:51:fa:25:7e:32:7c:00:66:e9:4b:
                    72:54:f3:4d:40:10:a8:5e:9c:e1:16:6a:45:5c:89:
                    f4:b5:bb:12:26:20:c3:8b:37:97:91:a3:7c:d6:d5:
                    96:28:5c:b6:a8:c8:dc:0d:1c:a6:0a:27:a2:aa:09:
                    b9:0f:d5:47:98:98:dd:0f:01:c2:89:26:80:b0:7c:
                    fc:f4:98:bd:bf:fd:33:76:86:2a:2a:c5:82:01:69:
                    aa:5a:fb:b0:b6:59:ba:93:4d:54:8a:56:1c:ef:3c:
                    00:53:64:0f:79:61:b9:ba:c9:7e:36:82:d9:db:85:
                    f3:fa:03:f7:f1:fb:52:68:ba:71:79:c6:58:a8:6e:
                    78:90:3f
                Exponent: 65537 (0x10001)
        X509v3 extensions:
            X509v3 Basic Constraints: 
                CA:FALSE
            Netscape Comment: 
                Easy-RSA Generated Certificate
            X509v3 Subject Key Identifier: 
                A4:CA:1F:39:89:31:62:5E:88:1A:27:14:A8:F8:EF:54:9B:ED:FF:EA
            X509v3 Authority Key Identifier: 
                keyid:EF:38:8D:14:50:58:A7:5B:4D:9C:17:72:FC:DF:B9:AC:A7:51:B0:10
                DirName:/C=US/ST=CA/L=SanFrancisco/O=Pixglo, Inc./OU=VPN-CIE/CN=tunnel.pixglo.com/name=Bala Chandrasekaran/emailAddress=bala@pixglo.com
                serial:A6:DB:C6:83:80:E6:A0:79

            X509v3 Extended Key Usage: 
                TLS Web Client Authentication
            X509v3 Key Usage: 
                Digital Signature
    Signature Algorithm: sha1WithRSAEncryption
         36:f9:1b:9a:ca:bc:c3:6e:c7:92:b3:14:4b:da:ce:7f:5a:c8:
         ac:39:54:5d:8e:cb:41:ae:90:bd:df:c6:0e:95:c2:e3:8e:f5:
         e9:91:bf:ec:d4:57:d8:1e:e6:8e:b8:42:2d:25:d7:53:79:39:
         cd:56:5b:b9:fe:79:5b:71:cb:1d:40:71:53:43:a6:a2:03:f7:
         e0:e2:c5:18:f1:6d:ff:ff:bc:4c:9a:9a:c9:c8:3a:97:39:cc:
         59:f6:3a:f1:61:89:78:30:a3:80:69:6d:79:b8:0b:26:d1:c7:
         95:fc:ae:c2:1c:e8:6a:59:52:0e:40:78:aa:6a:0f:2c:5c:f4:
         ac:c1:b3:c7:79:e8:5e:fc:66:59:d5:56:01:00:f7:79:b6:11:
         6c:ad:87:68:f4:b2:65:56:be:a1:2e:89:89:6f:b6:be:e7:48:
         9e:f4:30:0f:43:fa:87:8f:3c:14:0e:40:4b:22:a4:11:b9:86:
         06:42:e3:56:5e:12:97:a3:8c:47:ee:22:ad:31:15:7d:68:55:
         34:ce:7e:cb:15:16:58:93:e2:d1:50:b8:a2:74:a5:b0:52:0f:
         dc:b2:8a:14:1f:eb:b5:02:36:4f:5a:41:ef:cc:62:1a:ad:bd:
         48:f2:e0:14:3b:37:60:02:b5:36:15:dd:48:f6:f9:9c:e3:15:
         a1:89:74:a7:a5:49:d1:5a:aa:69:1d:b0:08:34:5d:28:09:64:
         3c:4a:01:ed:21:03:b8:81:2b:5e:c5:57:ce:53:8a:19:d4:33:
         56:af:b3:ac:ab:24:51:be:08:73:6d:6c:fa:72:7c:1d:8d:ec:
         23:c4:ba:86:3a:2e:c5:ea:c1:07:8b:5c:a8:f5:b5:eb:90:83:
         7b:d4:08:03:94:2e:99:40:16:28:ed:96:84:12:6d:21:ea:65:
         aa:82:d8:21:e6:a8:4a:42:16:d7:83:39:18:4b:b3:bc:bc:aa:
         aa:3b:09:22:57:cc:51:37:ba:ca:83:e7:60:af:f8:ff:32:a3:
         9c:da:46:4f:1d:75:00:43:7c:fc:0b:f9:6f:4e:3c:80:a3:0e:
         22:93:b4:64:4b:3b:f8:3f:b9:16:9d:29:4b:6d:d0:19:ed:c4:
         8e:f3:89:8f:70:f0:78:63:ec:29:e5:88:18:04:41:b0:a1:e9:
         ba:34:d0:2f:9e:04:0a:7c:68:c2:28:92:44:80:c3:d9:88:54:
         c1:81:89:e2:6c:f3:33:42:7d:f1:49:77:16:fe:c7:a6:21:35:
         7a:9c:77:a3:dc:d7:4d:5d:16:af:15:93:c1:32:2f:0a:66:14:
         f3:4d:18:48:de:a9:9e:2a:b6:74:a9:35:fa:5b:7d:0d:95:f8:
         6d:5b:80:3f:ed:e5:98:94
-----BEGIN CERTIFICATE-----
MIIHRjCCBS6gAwIBAgIBWTANBgkqhkiG9w0BAQUFADCBtDELMAkGA1UEBhMCVVMx
CzAJBgNVBAgTAkNBMRUwEwYDVQQHEwxTYW5GcmFuY2lzY28xFTATBgNVBAoTDFBp
eGdsbywgSW5jLjEQMA4GA1UECxMHVlBOLUNJRTEaMBgGA1UEAxMRdHVubmVsLnBp
eGdsby5jb20xHDAaBgNVBCkTE0JhbGEgQ2hhbmRyYXNla2FyYW4xHjAcBgkqhkiG
9w0BCQEWD2JhbGFAcGl4Z2xvLmNvbTAeFw0xODAyMTQwNjI1MjZaFw0yODAyMTIw
NjI1MjZaMIGoMQswCQYDVQQGEwJVUzELMAkGA1UECBMCQ0ExFTATBgNVBAcTDFNh
bkZyYW5jaXNjbzEVMBMGA1UEChMMUGl4Z2xvLCBJbmMuMRAwDgYDVQQLEwdWUE4t
Q0lFMQ4wDAYDVQQDEwVjaWU4ODEcMBoGA1UEKRMTQmFsYSBDaGFuZHJhc2VrYXJh
bjEeMBwGCSqGSIb3DQEJARYPYmFsYUBwaXhnbG8uY29tMIICIjANBgkqhkiG9w0B
AQEFAAOCAg8AMIICCgKCAgEAx44R2i5YQimJYEEbAHpzVLYhl99BwbD2KOOejpAK
QoQVdnl3cMrF7P2YM509yG2ecGdpOc7GRGbztXEJzb1jw3xhf0lD46uEYgrcErTE
laebpu3Lj9bPXnQhupfY94Gs/oaB5UHoCJ6uwmfI71lfzgsOej5UZEJ6X94hWBBe
mAaK6wJktpFOT0dW0ZVNksljhSEoZG5eGKoRAJuhMN6qm8VZ48k7dzrWlq26Qhp+
JcYgH7tX+F6uoi6i2KcgpGF5iZ/LEU9ryJbPkXxA96VGnFeYKOB1Vz7MBsPmHIGC
EDhagVL0o3zNj1dY+HYRzJhYWj14J9Uag7wXHt4h0rgLNh8cWXOKLPRHE5q31DR+
DdvD8ZAYQQql6jf9YZ2Rf9kV5xF2nzOsPAEl7q3TBkvIKf62bkuhayBbnjSZHN7v
xvDcgZMJ3ylNaB1OoQcERPa6AWwR0N5JduPdnlWIlzw/9cFdwoEVH3qZ20bIwfx6
iay7VhF6Yb2KkONR81H6JX4yfABm6UtyVPNNQBCoXpzhFmpFXIn0tbsSJiDDizeX
kaN81tWWKFy2qMjcDRymCieiqgm5D9VHmJjdDwHCiSaAsHz89Ji9v/0zdoYqKsWC
AWmqWvuwtlm6k01UilYc7zwAU2QPeWG5usl+NoLZ24Xz+gP38ftSaLpxecZYqG54
kD8CAwEAAaOCAWswggFnMAkGA1UdEwQCMAAwLQYJYIZIAYb4QgENBCAWHkVhc3kt
UlNBIEdlbmVyYXRlZCBDZXJ0aWZpY2F0ZTAdBgNVHQ4EFgQUpMofOYkxYl6IGicU
qPjvVJvt/+owgekGA1UdIwSB4TCB3oAU7ziNFFBYp1tNnBdy/N+5rKdRsBChgbqk
gbcwgbQxCzAJBgNVBAYTAlVTMQswCQYDVQQIEwJDQTEVMBMGA1UEBxMMU2FuRnJh
bmNpc2NvMRUwEwYDVQQKEwxQaXhnbG8sIEluYy4xEDAOBgNVBAsTB1ZQTi1DSUUx
GjAYBgNVBAMTEXR1bm5lbC5waXhnbG8uY29tMRwwGgYDVQQpExNCYWxhIENoYW5k
cmFzZWthcmFuMR4wHAYJKoZIhvcNAQkBFg9iYWxhQHBpeGdsby5jb22CCQCm28aD
gOageTATBgNVHSUEDDAKBggrBgEFBQcDAjALBgNVHQ8EBAMCB4AwDQYJKoZIhvcN
AQEFBQADggIBADb5G5rKvMNux5KzFEvazn9ayKw5VF2Oy0GukL3fxg6VwuOO9emR
v+zUV9ge5o64Qi0l11N5Oc1WW7n+eVtxyx1AcVNDpqID9+DixRjxbf//vEyamsnI
Opc5zFn2OvFhiXgwo4BpbXm4CybRx5X8rsIc6GpZUg5AeKpqDyxc9KzBs8d56F78
ZlnVVgEA93m2EWyth2j0smVWvqEuiYlvtr7nSJ70MA9D+oePPBQOQEsipBG5hgZC
41ZeEpejjEfuIq0xFX1oVTTOfssVFliT4tFQuKJ0pbBSD9yyihQf67UCNk9aQe/M
YhqtvUjy4BQ7N2ACtTYV3Uj2+ZzjFaGJdKelSdFaqmkdsAg0XSgJZDxKAe0hA7iB
K17FV85TihnUM1avs6yrJFG+CHNtbPpyfB2N7CPEuoY6LsXqwQeLXKj1teuQg3vU
CAOULplAFijtloQSbSHqZaqC2CHmqEpCFteDORhLs7y8qqo7CSJXzFE3usqD52Cv
+P8yo5zaRk8ddQBDfPwL+W9OPICjDiKTtGRLO/g/uRadKUtt0BntxI7ziY9w8Hhj
7CnliBgEQbCh6bo00C+eBAp8aMIokkSAw9mIVMGBieJs8zNCffFJdxb+x6YhNXqc
d6Pc101dFq8Vk8EyLwpmFPNNGEjeqZ4qtnSpNfpbfQ2V+G1bgD/t5ZiU
-----END CERTIFICATE-----
