Certificate:
    Data:
        Version: 3 (0x2)
        Serial Number: 815 (0x32f)
    Signature Algorithm: sha1WithRSAEncryption
        Issuer: C=US, ST=CA, L=SanFrancisco, O=Pixglo, Inc., OU=VPN-CIE, CN=tunnel.pixglo.com/name=Bala Chandrasekaran/emailAddress=bala@pixglo.com
        Validity
            Not Before: Feb 14 06:44:24 2018 GMT
            Not After : Feb 12 06:44:24 2028 GMT
        Subject: C=US, ST=CA, L=SanFrancisco, O=Pixglo, Inc., OU=VPN-CIE, CN=cie814/name=Bala Chandrasekaran/emailAddress=bala@pixglo.com
        Subject Public Key Info:
            Public Key Algorithm: rsaEncryption
                Public-Key: (4096 bit)
                Modulus:
                    00:f2:af:ea:04:c9:a6:15:33:21:36:bf:14:75:59:
                    76:86:9d:5a:43:d2:9a:87:20:c6:9e:f7:11:00:1e:
                    e9:e2:6b:7b:e7:4d:da:82:16:6e:97:06:12:b1:37:
                    ca:e0:58:3b:8c:db:1b:58:ef:82:5c:55:58:27:89:
                    92:65:91:ef:e0:6e:08:48:ee:fc:e1:45:ca:95:5b:
                    fa:e8:e9:f6:e3:6a:d9:05:e2:b0:d8:dc:26:cb:60:
                    3e:fe:92:4b:60:f8:ae:2e:e9:01:b0:d2:e5:36:e7:
                    8b:e4:61:2a:ef:88:78:4b:8b:37:0b:ae:90:a8:ac:
                    42:fc:b1:c0:18:39:37:38:86:1e:c6:20:bb:b9:4f:
                    a2:11:33:e4:b0:9e:a4:fd:13:c3:fa:c8:61:85:ee:
                    f3:99:ea:9c:e3:b4:49:c2:6b:4f:55:06:0c:b3:fc:
                    c4:e7:1f:42:11:0e:89:7d:61:c7:8c:5c:a4:96:09:
                    6d:c9:07:ed:78:54:bb:9a:56:2b:8e:8c:b1:82:28:
                    2d:05:5b:04:b7:6d:fc:50:ed:f2:e6:31:b1:e3:b5:
                    f8:43:84:25:b7:65:e3:58:c5:85:0d:74:4d:66:b5:
                    b1:2e:9b:b7:6a:b2:20:92:51:f0:24:17:c8:52:9b:
                    59:88:82:59:5d:b6:c0:ef:9c:2d:1e:e8:a0:d7:0c:
                    06:f4:14:ce:fb:2a:c0:ab:df:66:16:ca:b7:92:d2:
                    47:98:f4:b9:6d:0d:8f:5f:c7:56:99:0c:5a:8b:4a:
                    6b:fe:00:87:dc:1b:5e:7d:83:de:c8:6e:31:f0:6b:
                    c2:b6:1f:c1:80:06:1b:ff:32:a8:ea:ea:d8:5f:58:
                    87:f4:4a:d2:1c:79:23:f2:96:83:5d:b8:9a:18:70:
                    86:cb:b0:72:f1:83:3e:91:e3:87:04:f9:bd:9d:ca:
                    5b:c0:98:7d:04:c4:69:33:ad:e6:6e:c0:31:9f:ec:
                    d3:46:a8:44:49:be:47:bf:b2:1e:dd:38:78:74:db:
                    6a:a0:86:a2:1d:95:ee:43:cc:9c:e6:76:4a:bc:76:
                    90:17:bd:89:ac:5d:cf:37:fe:0c:08:d6:23:33:e8:
                    c9:9f:c7:8e:f9:32:4e:a3:91:b8:e4:7a:79:f8:80:
                    a1:c4:6f:ac:9e:7d:c2:18:16:b6:23:58:2d:80:cb:
                    32:6b:42:5b:b2:78:64:82:66:1d:b3:9e:c2:79:6c:
                    88:11:ad:77:f7:6a:a4:07:87:e5:72:45:c1:bf:8a:
                    f5:18:ad:e0:c8:b5:ed:a8:fa:6f:33:bb:4a:c6:b4:
                    ca:e2:7a:ac:f3:97:e1:4f:d1:30:af:ee:4a:61:da:
                    a2:4f:9b:62:8d:6e:9b:d7:a1:51:3c:36:c0:64:0d:
                    da:81:19
                Exponent: 65537 (0x10001)
        X509v3 extensions:
            X509v3 Basic Constraints: 
                CA:FALSE
            Netscape Comment: 
                Easy-RSA Generated Certificate
            X509v3 Subject Key Identifier: 
                4E:FA:FB:50:0C:EA:4F:60:4E:9E:E1:57:70:E5:C2:D0:85:C6:3B:19
            X509v3 Authority Key Identifier: 
                keyid:EF:38:8D:14:50:58:A7:5B:4D:9C:17:72:FC:DF:B9:AC:A7:51:B0:10
                DirName:/C=US/ST=CA/L=SanFrancisco/O=Pixglo, Inc./OU=VPN-CIE/CN=tunnel.pixglo.com/name=Bala Chandrasekaran/emailAddress=bala@pixglo.com
                serial:A6:DB:C6:83:80:E6:A0:79

            X509v3 Extended Key Usage: 
                TLS Web Client Authentication
            X509v3 Key Usage: 
                Digital Signature
    Signature Algorithm: sha1WithRSAEncryption
         6f:62:17:fe:42:fe:42:5c:1b:0a:a6:56:3d:20:dc:14:8f:88:
         e5:5b:d9:ef:6b:ed:22:9c:4a:44:80:36:11:32:e9:c0:1c:2d:
         fa:27:7b:45:12:ae:fd:d3:2f:41:7f:7f:79:3a:a3:a9:a5:13:
         02:69:0d:42:6d:b3:b1:10:46:51:36:eb:15:20:ce:6a:b9:0f:
         39:ad:c8:4b:00:8f:fc:bc:c4:b1:97:7b:78:8b:27:33:00:62:
         0d:38:03:1b:04:20:2d:18:8f:17:25:2c:94:b7:fa:ad:20:54:
         4f:5b:0e:8e:40:d1:6b:a5:74:ea:e3:aa:2a:04:77:33:06:49:
         cf:11:0e:e6:6f:d8:e1:ae:03:59:48:08:f2:95:63:f8:b8:23:
         78:c2:53:ba:c5:b2:75:9e:65:00:72:83:e6:32:00:ba:4b:07:
         ec:0a:f0:e6:97:9c:81:30:e2:60:45:40:95:b4:f8:66:ab:af:
         27:d6:1a:13:34:dd:56:ad:46:65:85:4c:b9:64:ff:d2:46:67:
         69:cf:3c:82:47:51:54:1f:ee:7b:cc:69:cd:c2:35:33:2b:ff:
         6f:07:13:f2:3f:45:cf:f5:7e:fe:a2:45:b9:1e:a5:75:47:0d:
         60:bd:40:7b:66:a7:72:a2:cd:4f:14:f5:5e:ce:ea:74:2c:e3:
         ff:b9:d0:a3:4f:ec:8c:90:bc:2c:45:24:db:e2:9f:4d:11:ed:
         5e:8b:40:fb:9a:53:fb:b9:6d:57:e6:5b:68:63:82:55:92:54:
         a1:b0:08:af:e2:0d:1a:1b:04:cc:78:7c:8b:93:aa:70:d8:3a:
         44:97:6a:d6:f4:03:15:b0:f0:0b:ac:3d:fa:a8:26:9f:2b:0b:
         ec:df:4c:78:19:0e:a2:f1:47:7e:06:0f:9c:13:74:e7:1a:47:
         90:bf:d8:ec:7e:93:06:03:50:d5:d6:50:73:fd:0b:55:f6:a1:
         f1:7a:93:eb:4d:41:af:08:02:58:2a:d6:99:db:24:f6:7d:2a:
         f6:66:af:60:ad:1c:8c:44:10:5b:6d:40:93:04:0f:fa:d1:29:
         44:59:9b:d0:43:eb:48:39:27:fb:98:ea:d4:d3:5d:b6:c3:39:
         c9:84:ab:5b:65:88:b5:dd:ab:a7:8a:28:30:41:37:24:8d:ac:
         8a:2f:3f:76:f6:67:47:2a:af:f2:0c:bb:aa:21:57:f5:b2:18:
         05:c5:88:5f:9d:d3:ac:5e:db:96:cf:8f:81:b0:01:80:55:c3:
         17:0f:26:ce:a7:28:2d:2a:21:ad:4c:6f:c6:1a:2b:62:27:70:
         b0:70:5a:90:39:c4:ac:45:9e:c6:ee:a8:52:6e:2e:9d:39:67:
         fb:75:1a:ed:b4:e7:d2:95
-----BEGIN CERTIFICATE-----
MIIHSDCCBTCgAwIBAgICAy8wDQYJKoZIhvcNAQEFBQAwgbQxCzAJBgNVBAYTAlVT
MQswCQYDVQQIEwJDQTEVMBMGA1UEBxMMU2FuRnJhbmNpc2NvMRUwEwYDVQQKEwxQ
aXhnbG8sIEluYy4xEDAOBgNVBAsTB1ZQTi1DSUUxGjAYBgNVBAMTEXR1bm5lbC5w
aXhnbG8uY29tMRwwGgYDVQQpExNCYWxhIENoYW5kcmFzZWthcmFuMR4wHAYJKoZI
hvcNAQkBFg9iYWxhQHBpeGdsby5jb20wHhcNMTgwMjE0MDY0NDI0WhcNMjgwMjEy
MDY0NDI0WjCBqTELMAkGA1UEBhMCVVMxCzAJBgNVBAgTAkNBMRUwEwYDVQQHEwxT
YW5GcmFuY2lzY28xFTATBgNVBAoTDFBpeGdsbywgSW5jLjEQMA4GA1UECxMHVlBO
LUNJRTEPMA0GA1UEAxMGY2llODE0MRwwGgYDVQQpExNCYWxhIENoYW5kcmFzZWth
cmFuMR4wHAYJKoZIhvcNAQkBFg9iYWxhQHBpeGdsby5jb20wggIiMA0GCSqGSIb3
DQEBAQUAA4ICDwAwggIKAoICAQDyr+oEyaYVMyE2vxR1WXaGnVpD0pqHIMae9xEA
Hunia3vnTdqCFm6XBhKxN8rgWDuM2xtY74JcVVgniZJlke/gbghI7vzhRcqVW/ro
6fbjatkF4rDY3CbLYD7+kktg+K4u6QGw0uU254vkYSrviHhLizcLrpCorEL8scAY
OTc4hh7GILu5T6IRM+SwnqT9E8P6yGGF7vOZ6pzjtEnCa09VBgyz/MTnH0IRDol9
YceMXKSWCW3JB+14VLuaViuOjLGCKC0FWwS3bfxQ7fLmMbHjtfhDhCW3ZeNYxYUN
dE1mtbEum7dqsiCSUfAkF8hSm1mIglldtsDvnC0e6KDXDAb0FM77KsCr32YWyreS
0keY9LltDY9fx1aZDFqLSmv+AIfcG159g97IbjHwa8K2H8GABhv/Mqjq6thfWIf0
StIceSPyloNduJoYcIbLsHLxgz6R44cE+b2dylvAmH0ExGkzreZuwDGf7NNGqERJ
vke/sh7dOHh022qghqIdle5DzJzmdkq8dpAXvYmsXc83/gwI1iMz6Mmfx475Mk6j
kbjkenn4gKHEb6yefcIYFrYjWC2AyzJrQluyeGSCZh2znsJ5bIgRrXf3aqQHh+Vy
RcG/ivUYreDIte2o+m8zu0rGtMrieqzzl+FP0TCv7kph2qJPm2KNbpvXoVE8NsBk
DdqBGQIDAQABo4IBazCCAWcwCQYDVR0TBAIwADAtBglghkgBhvhCAQ0EIBYeRWFz
eS1SU0EgR2VuZXJhdGVkIENlcnRpZmljYXRlMB0GA1UdDgQWBBRO+vtQDOpPYE6e
4Vdw5cLQhcY7GTCB6QYDVR0jBIHhMIHegBTvOI0UUFinW02cF3L837msp1GwEKGB
uqSBtzCBtDELMAkGA1UEBhMCVVMxCzAJBgNVBAgTAkNBMRUwEwYDVQQHEwxTYW5G
cmFuY2lzY28xFTATBgNVBAoTDFBpeGdsbywgSW5jLjEQMA4GA1UECxMHVlBOLUNJ
RTEaMBgGA1UEAxMRdHVubmVsLnBpeGdsby5jb20xHDAaBgNVBCkTE0JhbGEgQ2hh
bmRyYXNla2FyYW4xHjAcBgkqhkiG9w0BCQEWD2JhbGFAcGl4Z2xvLmNvbYIJAKbb
xoOA5qB5MBMGA1UdJQQMMAoGCCsGAQUFBwMCMAsGA1UdDwQEAwIHgDANBgkqhkiG
9w0BAQUFAAOCAgEAb2IX/kL+QlwbCqZWPSDcFI+I5VvZ72vtIpxKRIA2ETLpwBwt
+id7RRKu/dMvQX9/eTqjqaUTAmkNQm2zsRBGUTbrFSDOarkPOa3ISwCP/LzEsZd7
eIsnMwBiDTgDGwQgLRiPFyUslLf6rSBUT1sOjkDRa6V06uOqKgR3MwZJzxEO5m/Y
4a4DWUgI8pVj+LgjeMJTusWydZ5lAHKD5jIAuksH7Arw5pecgTDiYEVAlbT4Zquv
J9YaEzTdVq1GZYVMuWT/0kZnac88gkdRVB/ue8xpzcI1Myv/bwcT8j9Fz/V+/qJF
uR6ldUcNYL1Ae2ancqLNTxT1Xs7qdCzj/7nQo0/sjJC8LEUk2+KfTRHtXotA+5pT
+7ltV+ZbaGOCVZJUobAIr+INGhsEzHh8i5OqcNg6RJdq1vQDFbDwC6w9+qgmnysL
7N9MeBkOovFHfgYPnBN05xpHkL/Y7H6TBgNQ1dZQc/0LVfah8XqT601BrwgCWCrW
mdsk9n0q9mavYK0cjEQQW21AkwQP+tEpRFmb0EPrSDkn+5jq1NNdtsM5yYSrW2WI
td2rp4ooMEE3JI2sii8/dvZnRyqv8gy7qiFX9bIYBcWIX53TrF7bls+PgbABgFXD
Fw8mzqcoLSohrUxvxhorYidwsHBakDnErEWexu6oUm4unTln+3Ua7bTn0pU=
-----END CERTIFICATE-----
