Certificate:
    Data:
        Version: 3 (0x2)
        Serial Number: 864 (0x360)
    Signature Algorithm: sha1WithRSAEncryption
        Issuer: C=US, ST=CA, L=SanFrancisco, O=Pixglo, Inc., OU=VPN-CIE, CN=tunnel.pixglo.com/name=Bala Chandrasekaran/emailAddress=bala@pixglo.com
        Validity
            Not Before: Feb 14 06:46:02 2018 GMT
            Not After : Feb 12 06:46:02 2028 GMT
        Subject: C=US, ST=CA, L=SanFrancisco, O=Pixglo, Inc., OU=VPN-CIE, CN=cie863/name=Bala Chandrasekaran/emailAddress=bala@pixglo.com
        Subject Public Key Info:
            Public Key Algorithm: rsaEncryption
                Public-Key: (4096 bit)
                Modulus:
                    00:9b:03:b4:3e:5d:01:0b:6e:ba:23:d6:f2:3c:9e:
                    c4:93:4b:7c:c7:a9:68:26:60:e4:e7:66:d4:1e:79:
                    e1:2a:97:26:27:92:96:d5:bb:fa:15:b0:53:57:fa:
                    53:12:b7:28:0b:8a:b3:7b:6f:72:75:c5:3e:b8:ec:
                    5c:48:21:20:19:8a:28:13:2d:a2:c3:00:76:d9:58:
                    14:85:70:a7:85:cf:a0:87:08:73:72:ff:23:91:9c:
                    71:18:26:27:a3:75:99:90:47:a0:21:46:8d:f5:05:
                    b8:a9:26:e3:be:a1:a7:ab:b5:4f:e6:a8:11:b3:e7:
                    03:7c:4f:58:f2:82:a5:d6:39:20:29:e5:2d:a8:04:
                    e7:7e:ed:1f:ea:00:4d:b7:3d:30:51:98:bc:f8:b1:
                    af:fd:b4:04:30:82:b1:b0:98:f3:60:0b:54:a1:88:
                    66:95:35:ae:d7:17:41:50:3d:82:e1:ac:30:d3:2f:
                    1a:70:86:1e:bf:1e:be:e1:10:5a:69:90:67:fc:12:
                    8d:a6:2c:34:05:d4:0c:13:7a:6b:c7:b9:74:43:e7:
                    2f:fa:20:b9:12:0e:75:f5:3d:e3:f8:20:be:8b:ba:
                    1c:df:07:77:15:39:4c:43:05:7d:9a:bc:6b:e2:6a:
                    f7:c0:11:d8:f9:4c:75:b0:ca:f2:67:4b:70:7f:59:
                    30:ba:30:e6:ab:01:23:90:ec:f5:e2:dc:8c:9f:b3:
                    55:51:b4:83:31:96:ed:e6:3b:bc:b9:f5:52:31:70:
                    aa:1e:90:02:10:1a:a9:97:55:0c:55:25:ef:71:06:
                    f7:64:a1:2d:a8:66:be:19:8b:96:38:5f:e1:11:3e:
                    94:99:50:45:5c:b6:5b:64:42:01:50:18:23:d6:d6:
                    f6:ed:9b:84:b5:f1:5c:4e:a1:b6:68:cd:b0:24:82:
                    ca:4b:fe:94:01:c4:a7:b9:7b:a2:95:f3:04:30:54:
                    5d:eb:77:71:38:c8:43:2d:6f:ec:32:c6:52:61:55:
                    de:d4:c3:84:cd:17:d4:68:90:32:b5:41:d1:f6:0a:
                    37:33:28:17:7a:32:2b:e4:50:cc:e2:45:9b:2e:83:
                    b5:85:42:da:6a:2f:70:d5:be:a2:31:84:bd:ed:9c:
                    96:db:32:40:fd:e9:07:22:9b:59:a6:ee:91:38:db:
                    70:8e:e1:b1:33:d9:07:22:48:00:e1:28:6c:f9:a2:
                    af:b5:f1:ff:0a:fa:f1:14:e1:0f:9f:81:57:98:fb:
                    df:e2:17:d6:1e:4c:00:9c:fc:e5:40:89:01:c9:80:
                    3c:d8:62:21:9c:be:04:55:2f:37:07:c9:f2:37:ad:
                    b0:66:13:01:d2:98:4d:58:6e:d3:a1:c9:74:3e:90:
                    3a:8f:4b
                Exponent: 65537 (0x10001)
        X509v3 extensions:
            X509v3 Basic Constraints: 
                CA:FALSE
            Netscape Comment: 
                Easy-RSA Generated Certificate
            X509v3 Subject Key Identifier: 
                0B:C9:D0:D1:85:AC:8B:C2:43:52:7E:83:C8:B4:D0:AE:A9:F5:CB:86
            X509v3 Authority Key Identifier: 
                keyid:EF:38:8D:14:50:58:A7:5B:4D:9C:17:72:FC:DF:B9:AC:A7:51:B0:10
                DirName:/C=US/ST=CA/L=SanFrancisco/O=Pixglo, Inc./OU=VPN-CIE/CN=tunnel.pixglo.com/name=Bala Chandrasekaran/emailAddress=bala@pixglo.com
                serial:A6:DB:C6:83:80:E6:A0:79

            X509v3 Extended Key Usage: 
                TLS Web Client Authentication
            X509v3 Key Usage: 
                Digital Signature
    Signature Algorithm: sha1WithRSAEncryption
         24:7d:be:03:5b:ed:20:f7:02:4c:8f:9a:73:4c:9d:01:24:40:
         37:fe:b2:df:ea:a8:c2:d0:f3:8d:fa:64:de:d4:5a:51:20:e4:
         97:80:24:30:ee:bf:f9:3d:5d:23:21:c6:18:3e:1e:ca:67:06:
         e1:9c:01:3c:02:c3:45:dd:aa:7b:36:45:00:63:44:98:c4:ee:
         b9:82:e7:bf:cb:9e:69:b8:b7:9f:ff:a8:09:00:a3:38:60:86:
         d1:de:4d:74:cf:5d:7b:b7:85:4a:52:d3:88:d6:03:97:2e:de:
         33:ea:70:56:54:47:14:da:1e:8a:f2:47:6f:03:2a:59:ee:d1:
         04:76:f8:ff:4f:e4:50:ac:99:3f:71:af:96:2b:3d:c1:5c:50:
         bd:34:24:4d:96:a5:b8:6e:27:6b:d5:fc:2e:1a:04:92:c6:d7:
         8a:85:30:d5:c8:70:07:c0:2a:12:cc:d3:c3:9f:cb:a6:e1:33:
         b2:0d:94:17:8a:d0:49:ce:fa:8c:75:a7:43:70:a2:6b:24:5e:
         b3:34:ff:4d:e2:3d:cf:a4:df:3f:57:23:ec:0c:0f:79:9a:f1:
         1c:c1:f5:b8:88:04:67:ca:b8:82:c7:5b:94:5a:42:32:e5:3a:
         75:e9:fd:e8:e7:01:38:3c:85:97:56:7c:8a:76:ae:56:1d:ad:
         f1:c6:57:3c:33:d4:db:50:5f:f7:08:cc:0a:0f:4a:88:2e:8c:
         dd:9e:49:89:c9:5a:59:88:86:73:ac:94:c3:b4:24:5e:57:89:
         c3:44:ed:cf:c0:fa:df:bd:27:1c:aa:61:07:f6:25:0f:17:5a:
         f8:e9:ae:f0:61:cd:83:bd:21:51:ae:ff:08:02:c6:a9:89:54:
         00:32:51:72:a8:ec:36:c9:83:4c:3e:0c:21:0e:ce:42:6b:19:
         d1:49:3c:54:87:0d:db:44:d9:ee:87:f0:54:d0:d0:6e:ec:77:
         b9:dd:f7:ef:96:9e:a1:1e:a4:1c:87:96:64:9d:7a:a4:a9:50:
         1c:a6:d5:0e:c3:d4:f6:f6:77:e6:44:dc:16:41:1e:5c:f2:8c:
         93:3c:83:12:21:4d:3d:cd:12:26:27:c6:6e:d5:57:84:9a:7c:
         d9:e7:c0:c0:64:b8:f8:e7:e9:aa:d9:61:e0:94:1f:50:27:01:
         46:f3:4c:58:62:35:b8:4e:a6:ab:cc:ba:3c:45:e1:90:24:83:
         c1:08:ca:f1:8a:90:e0:47:ad:e6:37:99:a3:9f:9e:8c:66:9d:
         7e:f0:b1:f4:f6:47:3c:5e:15:58:50:cb:59:e4:e9:4f:e7:9e:
         27:41:18:e1:71:bf:5b:8b:cf:fc:76:e0:e4:20:f4:b8:94:2f:
         14:cf:92:f9:b2:12:47:23
-----BEGIN CERTIFICATE-----
MIIHSDCCBTCgAwIBAgICA2AwDQYJKoZIhvcNAQEFBQAwgbQxCzAJBgNVBAYTAlVT
MQswCQYDVQQIEwJDQTEVMBMGA1UEBxMMU2FuRnJhbmNpc2NvMRUwEwYDVQQKEwxQ
aXhnbG8sIEluYy4xEDAOBgNVBAsTB1ZQTi1DSUUxGjAYBgNVBAMTEXR1bm5lbC5w
aXhnbG8uY29tMRwwGgYDVQQpExNCYWxhIENoYW5kcmFzZWthcmFuMR4wHAYJKoZI
hvcNAQkBFg9iYWxhQHBpeGdsby5jb20wHhcNMTgwMjE0MDY0NjAyWhcNMjgwMjEy
MDY0NjAyWjCBqTELMAkGA1UEBhMCVVMxCzAJBgNVBAgTAkNBMRUwEwYDVQQHEwxT
YW5GcmFuY2lzY28xFTATBgNVBAoTDFBpeGdsbywgSW5jLjEQMA4GA1UECxMHVlBO
LUNJRTEPMA0GA1UEAxMGY2llODYzMRwwGgYDVQQpExNCYWxhIENoYW5kcmFzZWth
cmFuMR4wHAYJKoZIhvcNAQkBFg9iYWxhQHBpeGdsby5jb20wggIiMA0GCSqGSIb3
DQEBAQUAA4ICDwAwggIKAoICAQCbA7Q+XQELbroj1vI8nsSTS3zHqWgmYOTnZtQe
eeEqlyYnkpbVu/oVsFNX+lMStygLirN7b3J1xT647FxIISAZiigTLaLDAHbZWBSF
cKeFz6CHCHNy/yORnHEYJiejdZmQR6AhRo31BbipJuO+oaertU/mqBGz5wN8T1jy
gqXWOSAp5S2oBOd+7R/qAE23PTBRmLz4sa/9tAQwgrGwmPNgC1ShiGaVNa7XF0FQ
PYLhrDDTLxpwhh6/Hr7hEFppkGf8Eo2mLDQF1AwTemvHuXRD5y/6ILkSDnX1PeP4
IL6LuhzfB3cVOUxDBX2avGviavfAEdj5THWwyvJnS3B/WTC6MOarASOQ7PXi3Iyf
s1VRtIMxlu3mO7y59VIxcKoekAIQGqmXVQxVJe9xBvdkoS2oZr4Zi5Y4X+ERPpSZ
UEVctltkQgFQGCPW1vbtm4S18VxOobZozbAkgspL/pQBxKe5e6KV8wQwVF3rd3E4
yEMtb+wyxlJhVd7Uw4TNF9RokDK1QdH2CjczKBd6MivkUMziRZsug7WFQtpqL3DV
vqIxhL3tnJbbMkD96Qcim1mm7pE423CO4bEz2QciSADhKGz5oq+18f8K+vEU4Q+f
gVeY+9/iF9YeTACc/OVAiQHJgDzYYiGcvgRVLzcHyfI3rbBmEwHSmE1YbtOhyXQ+
kDqPSwIDAQABo4IBazCCAWcwCQYDVR0TBAIwADAtBglghkgBhvhCAQ0EIBYeRWFz
eS1SU0EgR2VuZXJhdGVkIENlcnRpZmljYXRlMB0GA1UdDgQWBBQLydDRhayLwkNS
foPItNCuqfXLhjCB6QYDVR0jBIHhMIHegBTvOI0UUFinW02cF3L837msp1GwEKGB
uqSBtzCBtDELMAkGA1UEBhMCVVMxCzAJBgNVBAgTAkNBMRUwEwYDVQQHEwxTYW5G
cmFuY2lzY28xFTATBgNVBAoTDFBpeGdsbywgSW5jLjEQMA4GA1UECxMHVlBOLUNJ
RTEaMBgGA1UEAxMRdHVubmVsLnBpeGdsby5jb20xHDAaBgNVBCkTE0JhbGEgQ2hh
bmRyYXNla2FyYW4xHjAcBgkqhkiG9w0BCQEWD2JhbGFAcGl4Z2xvLmNvbYIJAKbb
xoOA5qB5MBMGA1UdJQQMMAoGCCsGAQUFBwMCMAsGA1UdDwQEAwIHgDANBgkqhkiG
9w0BAQUFAAOCAgEAJH2+A1vtIPcCTI+ac0ydASRAN/6y3+qowtDzjfpk3tRaUSDk
l4AkMO6/+T1dIyHGGD4eymcG4ZwBPALDRd2qezZFAGNEmMTuuYLnv8ueabi3n/+o
CQCjOGCG0d5NdM9de7eFSlLTiNYDly7eM+pwVlRHFNoeivJHbwMqWe7RBHb4/0/k
UKyZP3Gvlis9wVxQvTQkTZaluG4na9X8LhoEksbXioUw1chwB8AqEszTw5/LpuEz
sg2UF4rQSc76jHWnQ3CiayReszT/TeI9z6TfP1cj7AwPeZrxHMH1uIgEZ8q4gsdb
lFpCMuU6den96OcBODyFl1Z8inauVh2t8cZXPDPU21Bf9wjMCg9KiC6M3Z5Jicla
WYiGc6yUw7QkXleJw0Ttz8D6370nHKphB/YlDxda+Omu8GHNg70hUa7/CALGqYlU
ADJRcqjsNsmDTD4MIQ7OQmsZ0Uk8VIcN20TZ7ofwVNDQbux3ud3375aeoR6kHIeW
ZJ16pKlQHKbVDsPU9vZ35kTcFkEeXPKMkzyDEiFNPc0SJifGbtVXhJp82efAwGS4
+Ofpqtlh4JQfUCcBRvNMWGI1uE6mq8y6PEXhkCSDwQjK8YqQ4Eet5jeZo5+ejGad
fvCx9PZHPF4VWFDLWeTpT+eeJ0EY4XG/W4vP/Hbg5CD0uJQvFM+S+bISRyM=
-----END CERTIFICATE-----
