Certificate:
    Data:
        Version: 3 (0x2)
        Serial Number: 855 (0x357)
    Signature Algorithm: sha1WithRSAEncryption
        Issuer: C=US, ST=CA, L=SanFrancisco, O=Pixglo, Inc., OU=VPN-CIE, CN=tunnel.pixglo.com/name=Bala Chandrasekaran/emailAddress=bala@pixglo.com
        Validity
            Not Before: Feb 14 06:45:38 2018 GMT
            Not After : Feb 12 06:45:38 2028 GMT
        Subject: C=US, ST=CA, L=SanFrancisco, O=Pixglo, Inc., OU=VPN-CIE, CN=cie854/name=Bala Chandrasekaran/emailAddress=bala@pixglo.com
        Subject Public Key Info:
            Public Key Algorithm: rsaEncryption
                Public-Key: (4096 bit)
                Modulus:
                    00:a6:5a:4d:8d:17:90:27:58:be:fb:ea:07:f0:5c:
                    3b:bd:f6:4e:7c:5d:3c:d2:46:6a:a2:d6:ae:c2:1d:
                    49:74:6c:84:37:20:36:37:57:d7:ef:19:f2:e4:2f:
                    41:62:61:b5:20:d2:30:b4:10:11:f3:07:a1:93:45:
                    7e:89:50:d3:b2:15:4a:f0:6c:19:bb:08:fb:ef:a3:
                    dd:49:36:e0:65:4b:31:02:16:e4:19:d4:82:46:6b:
                    ba:6d:ad:e9:48:1f:73:46:ff:d6:df:8d:e3:82:c4:
                    95:94:10:4d:01:7d:59:f9:3a:2b:ae:f7:ea:10:5f:
                    df:1e:63:f1:69:0f:f5:76:ef:df:3f:60:f9:15:83:
                    ef:74:15:eb:5d:98:f7:ca:02:52:be:a1:7c:fd:ce:
                    01:e9:a8:a2:1a:e2:31:70:1d:12:e8:48:db:89:a9:
                    8e:63:42:dc:a4:f9:3c:f5:7a:59:60:f0:f6:f9:e4:
                    b8:38:d5:45:24:15:bb:3d:1a:20:ef:44:84:e4:50:
                    7d:ef:01:80:25:d8:60:a6:b1:0e:4b:a6:69:b3:be:
                    ee:44:0a:e0:fe:92:02:47:d5:ec:46:f3:70:98:e8:
                    50:28:e9:12:18:e9:74:ed:2a:57:a4:ee:0b:79:19:
                    6f:d5:1f:9a:b9:20:a8:f6:59:d4:8e:5b:e3:46:a7:
                    62:e9:55:98:31:e5:2d:41:c6:2c:5a:16:27:c6:31:
                    94:3f:35:4a:6b:25:dc:f5:b1:d9:32:e6:7c:a0:5e:
                    8d:2f:0d:cd:92:43:54:3e:75:bb:ec:91:fc:e2:97:
                    a3:cc:cd:e7:5c:dd:cb:20:7d:e4:2a:9e:e8:fb:91:
                    a9:5f:1b:1d:27:06:33:85:76:a3:ae:15:f3:cc:a0:
                    b2:86:96:6a:32:2b:b7:c9:aa:c9:cf:80:11:bc:aa:
                    5e:c2:29:19:02:52:c8:25:0c:8d:f1:05:b7:38:97:
                    37:19:42:16:b1:7e:93:2d:d6:b7:40:39:04:26:a4:
                    87:2c:8d:06:bf:c4:b6:08:f9:ad:92:5b:ae:fa:e0:
                    ac:60:77:5c:c3:0f:85:7d:b8:04:86:c7:80:33:96:
                    44:88:ee:26:2d:74:3a:b8:25:35:15:03:7a:f5:a8:
                    d4:31:67:f1:21:75:a1:31:1e:dc:39:c7:68:b4:0b:
                    f5:1a:8a:ad:0f:1a:ec:75:48:0a:bd:0d:4c:e7:79:
                    4c:fd:7c:b4:0e:4b:58:c9:82:59:e7:de:df:94:07:
                    b6:02:8c:bc:4c:74:d1:b6:e2:54:38:1e:85:18:e2:
                    1b:2a:0e:4a:cc:94:fe:c9:0b:7d:7e:91:95:14:56:
                    f3:a6:84:ea:69:ed:24:ea:fe:0b:cd:7e:3a:b7:0b:
                    fd:03:25
                Exponent: 65537 (0x10001)
        X509v3 extensions:
            X509v3 Basic Constraints: 
                CA:FALSE
            Netscape Comment: 
                Easy-RSA Generated Certificate
            X509v3 Subject Key Identifier: 
                E1:43:07:DA:36:C8:79:E5:C6:98:DE:26:45:02:5E:64:DA:43:8A:69
            X509v3 Authority Key Identifier: 
                keyid:EF:38:8D:14:50:58:A7:5B:4D:9C:17:72:FC:DF:B9:AC:A7:51:B0:10
                DirName:/C=US/ST=CA/L=SanFrancisco/O=Pixglo, Inc./OU=VPN-CIE/CN=tunnel.pixglo.com/name=Bala Chandrasekaran/emailAddress=bala@pixglo.com
                serial:A6:DB:C6:83:80:E6:A0:79

            X509v3 Extended Key Usage: 
                TLS Web Client Authentication
            X509v3 Key Usage: 
                Digital Signature
    Signature Algorithm: sha1WithRSAEncryption
         d4:2f:9a:22:80:e7:38:cf:e5:0c:55:18:63:12:87:35:d1:11:
         70:cb:d2:a2:cc:8c:5c:e2:11:cf:14:83:27:fa:ab:65:37:ef:
         00:d5:89:25:69:00:3a:76:e0:c2:28:ef:e6:45:07:98:ea:6b:
         58:da:2f:a5:d7:e9:8d:5c:57:98:f6:c7:3d:39:bd:64:95:50:
         59:38:23:c4:0b:d1:e4:40:f7:6f:2a:c6:06:dd:c6:f2:31:ab:
         62:bc:dc:e9:04:33:8c:1c:98:f2:28:1e:de:f3:ec:81:b6:c6:
         c8:7c:d9:08:d0:1b:1e:cc:4a:99:5b:f8:07:37:f4:ad:1b:ef:
         a7:37:6b:a3:0d:a6:cd:6b:f4:32:9e:49:9a:e9:e0:72:10:b7:
         e9:4c:26:76:79:02:bd:14:e5:25:7f:08:4e:de:88:19:b6:03:
         9d:fc:c9:9a:3c:db:fe:54:4e:73:83:69:2c:12:ba:01:db:d0:
         0b:c8:80:47:75:8a:0d:04:36:bc:7c:9e:7c:d8:56:99:f5:f3:
         da:62:dc:0b:57:a6:ef:2f:1b:01:5e:ad:f2:25:e6:ba:24:5a:
         c1:43:72:cf:04:6f:5b:09:a9:cb:86:64:a7:ea:12:dd:1a:24:
         9a:54:99:7c:f6:03:44:e2:62:ce:0e:8f:57:3d:22:76:fb:98:
         a5:32:62:31:d4:43:c1:85:0e:fa:e0:8b:10:66:fd:82:df:6d:
         d5:aa:97:eb:e0:ce:3a:28:dd:11:00:68:d6:fe:bb:38:a9:47:
         0f:ac:32:b7:01:9f:42:80:3a:98:94:34:6d:15:6c:0a:89:0e:
         91:df:3c:79:40:3f:28:62:29:6d:58:c4:e8:50:55:05:2c:3d:
         82:d7:8e:88:86:b8:46:fb:35:3b:ab:dc:3f:e0:83:87:ec:df:
         2a:b7:90:8f:c1:be:50:da:4f:4e:a7:19:2e:5b:22:64:04:03:
         f8:7d:6e:81:e2:28:be:33:d9:a2:cb:19:56:df:58:b1:56:6d:
         cc:ef:41:d1:66:de:d1:df:61:4a:9a:d6:cf:c8:d5:d9:6a:24:
         6e:78:72:34:d2:40:80:ff:e0:22:c0:ce:86:ea:a2:df:79:9e:
         e0:e6:2a:20:04:99:6c:e8:a6:c2:4a:99:a8:1a:18:40:d4:2b:
         f9:7b:19:41:12:25:25:f5:af:fb:8e:57:ec:8c:f0:7b:ad:2e:
         c6:f5:d2:06:42:ae:f1:cc:1f:59:a9:e9:05:5a:e0:f9:72:fd:
         c7:dd:2d:c2:42:da:21:2d:45:9a:c6:ea:4a:b1:86:3a:21:80:
         1d:2c:7b:58:97:d3:87:b7:8d:3d:ae:5c:65:c4:3e:bb:80:69:
         5b:80:9d:c1:d9:73:f0:48
-----BEGIN CERTIFICATE-----
MIIHSDCCBTCgAwIBAgICA1cwDQYJKoZIhvcNAQEFBQAwgbQxCzAJBgNVBAYTAlVT
MQswCQYDVQQIEwJDQTEVMBMGA1UEBxMMU2FuRnJhbmNpc2NvMRUwEwYDVQQKEwxQ
aXhnbG8sIEluYy4xEDAOBgNVBAsTB1ZQTi1DSUUxGjAYBgNVBAMTEXR1bm5lbC5w
aXhnbG8uY29tMRwwGgYDVQQpExNCYWxhIENoYW5kcmFzZWthcmFuMR4wHAYJKoZI
hvcNAQkBFg9iYWxhQHBpeGdsby5jb20wHhcNMTgwMjE0MDY0NTM4WhcNMjgwMjEy
MDY0NTM4WjCBqTELMAkGA1UEBhMCVVMxCzAJBgNVBAgTAkNBMRUwEwYDVQQHEwxT
YW5GcmFuY2lzY28xFTATBgNVBAoTDFBpeGdsbywgSW5jLjEQMA4GA1UECxMHVlBO
LUNJRTEPMA0GA1UEAxMGY2llODU0MRwwGgYDVQQpExNCYWxhIENoYW5kcmFzZWth
cmFuMR4wHAYJKoZIhvcNAQkBFg9iYWxhQHBpeGdsby5jb20wggIiMA0GCSqGSIb3
DQEBAQUAA4ICDwAwggIKAoICAQCmWk2NF5AnWL776gfwXDu99k58XTzSRmqi1q7C
HUl0bIQ3IDY3V9fvGfLkL0FiYbUg0jC0EBHzB6GTRX6JUNOyFUrwbBm7CPvvo91J
NuBlSzECFuQZ1IJGa7ptrelIH3NG/9bfjeOCxJWUEE0BfVn5Oiuu9+oQX98eY/Fp
D/V2798/YPkVg+90FetdmPfKAlK+oXz9zgHpqKIa4jFwHRLoSNuJqY5jQtyk+Tz1
ellg8Pb55Lg41UUkFbs9GiDvRITkUH3vAYAl2GCmsQ5Lpmmzvu5ECuD+kgJH1exG
83CY6FAo6RIY6XTtKlek7gt5GW/VH5q5IKj2WdSOW+NGp2LpVZgx5S1BxixaFifG
MZQ/NUprJdz1sdky5nygXo0vDc2SQ1Q+dbvskfzil6PMzedc3csgfeQqnuj7kalf
Gx0nBjOFdqOuFfPMoLKGlmoyK7fJqsnPgBG8ql7CKRkCUsglDI3xBbc4lzcZQhax
fpMt1rdAOQQmpIcsjQa/xLYI+a2SW6764Kxgd1zDD4V9uASGx4AzlkSI7iYtdDq4
JTUVA3r1qNQxZ/EhdaExHtw5x2i0C/Uaiq0PGux1SAq9DUzneUz9fLQOS1jJglnn
3t+UB7YCjLxMdNG24lQ4HoUY4hsqDkrMlP7JC31+kZUUVvOmhOpp7STq/gvNfjq3
C/0DJQIDAQABo4IBazCCAWcwCQYDVR0TBAIwADAtBglghkgBhvhCAQ0EIBYeRWFz
eS1SU0EgR2VuZXJhdGVkIENlcnRpZmljYXRlMB0GA1UdDgQWBBThQwfaNsh55caY
3iZFAl5k2kOKaTCB6QYDVR0jBIHhMIHegBTvOI0UUFinW02cF3L837msp1GwEKGB
uqSBtzCBtDELMAkGA1UEBhMCVVMxCzAJBgNVBAgTAkNBMRUwEwYDVQQHEwxTYW5G
cmFuY2lzY28xFTATBgNVBAoTDFBpeGdsbywgSW5jLjEQMA4GA1UECxMHVlBOLUNJ
RTEaMBgGA1UEAxMRdHVubmVsLnBpeGdsby5jb20xHDAaBgNVBCkTE0JhbGEgQ2hh
bmRyYXNla2FyYW4xHjAcBgkqhkiG9w0BCQEWD2JhbGFAcGl4Z2xvLmNvbYIJAKbb
xoOA5qB5MBMGA1UdJQQMMAoGCCsGAQUFBwMCMAsGA1UdDwQEAwIHgDANBgkqhkiG
9w0BAQUFAAOCAgEA1C+aIoDnOM/lDFUYYxKHNdERcMvSosyMXOIRzxSDJ/qrZTfv
ANWJJWkAOnbgwijv5kUHmOprWNovpdfpjVxXmPbHPTm9ZJVQWTgjxAvR5ED3byrG
Bt3G8jGrYrzc6QQzjByY8ige3vPsgbbGyHzZCNAbHsxKmVv4Bzf0rRvvpzdrow2m
zWv0Mp5JmungchC36UwmdnkCvRTlJX8ITt6IGbYDnfzJmjzb/lROc4NpLBK6AdvQ
C8iAR3WKDQQ2vHyefNhWmfXz2mLcC1em7y8bAV6t8iXmuiRawUNyzwRvWwmpy4Zk
p+oS3RokmlSZfPYDROJizg6PVz0idvuYpTJiMdRDwYUO+uCLEGb9gt9t1aqX6+DO
OijdEQBo1v67OKlHD6wytwGfQoA6mJQ0bRVsCokOkd88eUA/KGIpbVjE6FBVBSw9
gteOiIa4Rvs1O6vcP+CDh+zfKreQj8G+UNpPTqcZLlsiZAQD+H1ugeIovjPZossZ
Vt9YsVZtzO9B0Wbe0d9hSprWz8jV2WokbnhyNNJAgP/gIsDOhuqi33me4OYqIASZ
bOimwkqZqBoYQNQr+XsZQRIlJfWv+45X7Izwe60uxvXSBkKu8cwfWanpBVrg+XL9
x90twkLaIS1FmsbqSrGGOiGAHSx7WJfTh7eNPa5cZcQ+u4BpW4Cdwdlz8Eg=
-----END CERTIFICATE-----
