Certificate:
    Data:
        Version: 3 (0x2)
        Serial Number: 866 (0x362)
    Signature Algorithm: sha1WithRSAEncryption
        Issuer: C=US, ST=CA, L=SanFrancisco, O=Pixglo, Inc., OU=VPN-CIE, CN=tunnel.pixglo.com/name=Bala Chandrasekaran/emailAddress=bala@pixglo.com
        Validity
            Not Before: Feb 14 06:46:09 2018 GMT
            Not After : Feb 12 06:46:09 2028 GMT
        Subject: C=US, ST=CA, L=SanFrancisco, O=Pixglo, Inc., OU=VPN-CIE, CN=cie865/name=Bala Chandrasekaran/emailAddress=bala@pixglo.com
        Subject Public Key Info:
            Public Key Algorithm: rsaEncryption
                Public-Key: (4096 bit)
                Modulus:
                    00:c0:a0:35:60:0e:6c:6b:aa:da:05:88:fc:b6:ec:
                    b4:e6:a0:c6:6f:4e:64:14:e5:8d:df:70:de:12:9b:
                    12:78:90:05:7f:b8:d5:9a:b6:3d:27:90:39:d3:f4:
                    d4:7d:12:4f:4c:93:bd:9b:93:45:26:dd:a7:54:41:
                    68:4d:57:8a:3f:fb:b5:03:7e:44:50:ef:07:ea:cf:
                    3c:15:4a:65:90:c4:69:af:78:ef:9b:91:b5:40:4c:
                    7d:4d:bf:47:98:27:3a:c2:36:a9:42:23:a1:10:16:
                    3b:7c:c8:3e:7f:71:8c:34:a4:57:2b:a1:5c:2e:a4:
                    58:47:13:ba:6a:4c:78:ba:a4:05:1f:66:e7:c7:5a:
                    87:ac:64:7c:57:cf:b9:c5:bf:9a:b4:33:ae:c4:4a:
                    15:f8:ed:4f:ec:ae:6b:ae:b6:9b:75:34:81:ef:bb:
                    ba:70:68:57:c9:89:fe:55:77:22:3a:c6:e1:de:2b:
                    63:0d:7f:8a:a0:e7:50:9b:37:eb:a5:96:77:1c:f2:
                    70:e2:04:64:c1:ff:d8:77:c0:58:32:32:97:88:61:
                    d4:30:18:5c:63:45:ea:b3:5b:3a:03:36:e5:44:44:
                    8c:31:c5:8c:db:bb:e2:e3:be:de:8c:0c:fe:0e:7c:
                    88:a1:e4:86:90:fc:13:f6:09:69:62:4a:37:0c:3c:
                    65:0a:ea:bd:54:03:ac:c7:0a:97:3f:c8:6b:f2:9f:
                    56:0c:24:19:fe:48:46:b4:b0:33:f8:7d:4e:6f:1f:
                    92:0f:98:cf:22:1c:29:bd:43:44:c9:b5:37:91:d0:
                    0f:4a:61:29:3c:94:e3:1f:fa:da:97:aa:5f:3b:d0:
                    52:cf:3d:8e:fd:53:3b:e0:78:2c:fc:b1:db:d7:a6:
                    ff:cf:ef:6b:9b:48:63:e2:57:04:80:66:a3:21:8e:
                    b4:12:26:e2:f6:1a:ae:17:5e:1e:8a:1b:4d:6c:bc:
                    d7:be:96:76:92:87:57:5d:c0:cb:17:9e:af:d4:08:
                    15:7b:6d:4e:91:b5:7f:7d:3b:ee:a3:f6:a6:10:3b:
                    5a:c5:88:c5:5d:61:23:83:6e:b7:52:87:d0:02:a4:
                    e8:64:47:d2:a7:4a:ee:0c:10:40:64:a4:09:b6:d9:
                    f2:af:fb:b4:01:28:a0:59:f9:cb:bc:5e:c0:4d:3f:
                    18:20:95:4b:17:66:7b:f5:30:ea:d9:eb:df:1a:10:
                    4c:f3:fe:ee:09:5b:f7:81:5b:ab:5d:55:42:92:6f:
                    b4:e3:62:2d:bd:a7:d7:78:c7:be:d7:3e:3a:5e:f0:
                    16:64:51:ee:10:4d:70:c9:4d:9a:ad:94:ea:26:9f:
                    55:ab:21:04:43:5c:e2:47:eb:5c:9b:70:85:4f:38:
                    7d:79:6d
                Exponent: 65537 (0x10001)
        X509v3 extensions:
            X509v3 Basic Constraints: 
                CA:FALSE
            Netscape Comment: 
                Easy-RSA Generated Certificate
            X509v3 Subject Key Identifier: 
                6F:5E:B1:78:52:C4:DC:47:71:FE:E2:32:FB:16:57:C1:6D:21:83:4E
            X509v3 Authority Key Identifier: 
                keyid:EF:38:8D:14:50:58:A7:5B:4D:9C:17:72:FC:DF:B9:AC:A7:51:B0:10
                DirName:/C=US/ST=CA/L=SanFrancisco/O=Pixglo, Inc./OU=VPN-CIE/CN=tunnel.pixglo.com/name=Bala Chandrasekaran/emailAddress=bala@pixglo.com
                serial:A6:DB:C6:83:80:E6:A0:79

            X509v3 Extended Key Usage: 
                TLS Web Client Authentication
            X509v3 Key Usage: 
                Digital Signature
    Signature Algorithm: sha1WithRSAEncryption
         c2:f1:f9:0f:78:fa:49:4b:1b:b9:c3:e4:03:b2:51:16:d8:b6:
         ba:cb:f1:cc:78:95:0a:07:c9:55:13:cb:71:d4:86:ab:22:ec:
         61:3b:75:b7:f9:a5:98:0a:2d:a2:8f:47:35:7e:dd:1a:85:9c:
         54:9d:e6:49:56:75:30:df:9d:c1:9c:ce:56:94:eb:d0:18:6a:
         ca:80:6b:fb:3c:34:93:27:94:ba:11:38:0a:f6:6a:be:b2:52:
         91:33:17:d0:14:86:87:77:83:0d:fe:7c:bf:90:b4:00:92:24:
         41:b7:a4:82:18:3a:01:e2:9d:39:6f:8d:9b:86:6b:60:a5:ff:
         e3:82:b5:bb:6c:76:e7:5d:40:ca:48:4e:a9:81:d8:50:b2:50:
         a3:89:2b:ca:68:68:18:4c:30:d5:b4:a9:da:47:78:cf:b2:ea:
         23:0a:5d:1b:8b:e8:e3:ae:09:17:4c:db:30:f7:14:04:2a:67:
         ac:b8:67:56:67:2a:a5:92:1e:1c:22:b3:ed:8d:a6:f2:43:e9:
         57:8d:88:11:98:ef:c3:30:98:69:e9:52:ab:b8:55:a5:b4:19:
         a2:e2:a3:73:17:ab:8a:2b:de:df:7e:59:7d:09:66:e6:f0:29:
         3e:8e:52:28:af:47:8a:05:93:21:7c:7e:42:c7:d9:4f:7a:23:
         16:0d:cb:b1:f6:4e:21:03:3e:9a:ca:28:c7:fb:70:cc:c4:7a:
         64:10:ee:31:a3:9d:d2:e8:33:6e:0c:f0:55:be:19:53:23:2e:
         3d:22:69:c1:2a:3f:28:7b:89:02:b1:13:3d:f4:e8:f2:a0:ab:
         e5:5f:07:fe:84:8b:03:60:cd:03:28:f1:e0:4b:98:46:01:a5:
         87:f1:b1:0c:5c:23:b1:49:bc:f7:27:db:7a:3f:03:53:12:2c:
         38:5c:24:f4:a3:b6:82:8c:b5:66:b4:c5:3e:0c:5f:49:5a:e0:
         09:83:19:2b:f5:34:76:c2:8e:58:bc:e1:bc:c7:4d:b9:76:6d:
         e9:c9:44:ba:da:da:78:72:4e:79:5d:54:fa:b6:47:70:8d:e5:
         ad:49:e7:8c:f2:1f:7a:20:00:91:d4:b4:df:d8:38:b2:f7:f1:
         b0:10:bb:78:92:9f:c2:90:76:cf:f3:91:9f:71:31:fa:9c:32:
         9a:fa:a4:f8:e3:a8:e5:1e:09:21:da:5c:e7:8b:5b:f8:ff:c6:
         0e:c7:1f:53:01:4b:66:b9:ee:8a:e3:0b:f5:94:33:5b:70:3e:
         19:39:e7:cb:6b:dd:7d:19:bc:c1:2e:eb:70:17:3d:51:a3:73:
         87:8f:11:b3:a3:09:00:3f:15:cd:5e:1e:d5:a6:62:48:3e:ea:
         7d:a1:83:59:2d:c5:67:ae
-----BEGIN CERTIFICATE-----
MIIHSDCCBTCgAwIBAgICA2IwDQYJKoZIhvcNAQEFBQAwgbQxCzAJBgNVBAYTAlVT
MQswCQYDVQQIEwJDQTEVMBMGA1UEBxMMU2FuRnJhbmNpc2NvMRUwEwYDVQQKEwxQ
aXhnbG8sIEluYy4xEDAOBgNVBAsTB1ZQTi1DSUUxGjAYBgNVBAMTEXR1bm5lbC5w
aXhnbG8uY29tMRwwGgYDVQQpExNCYWxhIENoYW5kcmFzZWthcmFuMR4wHAYJKoZI
hvcNAQkBFg9iYWxhQHBpeGdsby5jb20wHhcNMTgwMjE0MDY0NjA5WhcNMjgwMjEy
MDY0NjA5WjCBqTELMAkGA1UEBhMCVVMxCzAJBgNVBAgTAkNBMRUwEwYDVQQHEwxT
YW5GcmFuY2lzY28xFTATBgNVBAoTDFBpeGdsbywgSW5jLjEQMA4GA1UECxMHVlBO
LUNJRTEPMA0GA1UEAxMGY2llODY1MRwwGgYDVQQpExNCYWxhIENoYW5kcmFzZWth
cmFuMR4wHAYJKoZIhvcNAQkBFg9iYWxhQHBpeGdsby5jb20wggIiMA0GCSqGSIb3
DQEBAQUAA4ICDwAwggIKAoICAQDAoDVgDmxrqtoFiPy27LTmoMZvTmQU5Y3fcN4S
mxJ4kAV/uNWatj0nkDnT9NR9Ek9Mk72bk0Um3adUQWhNV4o/+7UDfkRQ7wfqzzwV
SmWQxGmveO+bkbVATH1Nv0eYJzrCNqlCI6EQFjt8yD5/cYw0pFcroVwupFhHE7pq
THi6pAUfZufHWoesZHxXz7nFv5q0M67EShX47U/srmuutpt1NIHvu7pwaFfJif5V
dyI6xuHeK2MNf4qg51CbN+ullncc8nDiBGTB/9h3wFgyMpeIYdQwGFxjReqzWzoD
NuVERIwxxYzbu+Ljvt6MDP4OfIih5IaQ/BP2CWliSjcMPGUK6r1UA6zHCpc/yGvy
n1YMJBn+SEa0sDP4fU5vH5IPmM8iHCm9Q0TJtTeR0A9KYSk8lOMf+tqXql870FLP
PY79UzvgeCz8sdvXpv/P72ubSGPiVwSAZqMhjrQSJuL2Gq4XXh6KG01svNe+lnaS
h1ddwMsXnq/UCBV7bU6RtX99O+6j9qYQO1rFiMVdYSODbrdSh9ACpOhkR9KnSu4M
EEBkpAm22fKv+7QBKKBZ+cu8XsBNPxgglUsXZnv1MOrZ698aEEzz/u4JW/eBW6td
VUKSb7TjYi29p9d4x77XPjpe8BZkUe4QTXDJTZqtlOomn1WrIQRDXOJH61ybcIVP
OH15bQIDAQABo4IBazCCAWcwCQYDVR0TBAIwADAtBglghkgBhvhCAQ0EIBYeRWFz
eS1SU0EgR2VuZXJhdGVkIENlcnRpZmljYXRlMB0GA1UdDgQWBBRvXrF4UsTcR3H+
4jL7FlfBbSGDTjCB6QYDVR0jBIHhMIHegBTvOI0UUFinW02cF3L837msp1GwEKGB
uqSBtzCBtDELMAkGA1UEBhMCVVMxCzAJBgNVBAgTAkNBMRUwEwYDVQQHEwxTYW5G
cmFuY2lzY28xFTATBgNVBAoTDFBpeGdsbywgSW5jLjEQMA4GA1UECxMHVlBOLUNJ
RTEaMBgGA1UEAxMRdHVubmVsLnBpeGdsby5jb20xHDAaBgNVBCkTE0JhbGEgQ2hh
bmRyYXNla2FyYW4xHjAcBgkqhkiG9w0BCQEWD2JhbGFAcGl4Z2xvLmNvbYIJAKbb
xoOA5qB5MBMGA1UdJQQMMAoGCCsGAQUFBwMCMAsGA1UdDwQEAwIHgDANBgkqhkiG
9w0BAQUFAAOCAgEAwvH5D3j6SUsbucPkA7JRFti2usvxzHiVCgfJVRPLcdSGqyLs
YTt1t/mlmAotoo9HNX7dGoWcVJ3mSVZ1MN+dwZzOVpTr0BhqyoBr+zw0kyeUuhE4
CvZqvrJSkTMX0BSGh3eDDf58v5C0AJIkQbekghg6AeKdOW+Nm4ZrYKX/44K1u2x2
511AykhOqYHYULJQo4krymhoGEww1bSp2kd4z7LqIwpdG4vo464JF0zbMPcUBCpn
rLhnVmcqpZIeHCKz7Y2m8kPpV42IEZjvwzCYaelSq7hVpbQZouKjcxeriive335Z
fQlm5vApPo5SKK9HigWTIXx+QsfZT3ojFg3LsfZOIQM+msoox/twzMR6ZBDuMaOd
0ugzbgzwVb4ZUyMuPSJpwSo/KHuJArETPfTo8qCr5V8H/oSLA2DNAyjx4EuYRgGl
h/GxDFwjsUm89yfbej8DUxIsOFwk9KO2goy1ZrTFPgxfSVrgCYMZK/U0dsKOWLzh
vMdNuXZt6clEutraeHJOeV1U+rZHcI3lrUnnjPIfeiAAkdS039g4svfxsBC7eJKf
wpB2z/ORn3Ex+pwymvqk+OOo5R4JIdpc54tb+P/GDscfUwFLZrnuiuML9ZQzW3A+
GTnny2vdfRm8wS7rcBc9UaNzh48Rs6MJAD8VzV4e1aZiSD7qfaGDWS3FZ64=
-----END CERTIFICATE-----
