Certificate:
    Data:
        Version: 3 (0x2)
        Serial Number: 879 (0x36f)
    Signature Algorithm: sha1WithRSAEncryption
        Issuer: C=US, ST=CA, L=SanFrancisco, O=Pixglo, Inc., OU=VPN-CIE, CN=tunnel.pixglo.com/name=Bala Chandrasekaran/emailAddress=bala@pixglo.com
        Validity
            Not Before: Feb 14 06:46:32 2018 GMT
            Not After : Feb 12 06:46:32 2028 GMT
        Subject: C=US, ST=CA, L=SanFrancisco, O=Pixglo, Inc., OU=VPN-CIE, CN=cie878/name=Bala Chandrasekaran/emailAddress=bala@pixglo.com
        Subject Public Key Info:
            Public Key Algorithm: rsaEncryption
                Public-Key: (4096 bit)
                Modulus:
                    00:d1:4f:0d:76:92:d0:8b:39:c8:c1:1e:ad:ef:cd:
                    3f:61:45:d3:32:02:ce:58:06:6f:c2:09:5f:28:e5:
                    b7:bc:19:f2:4c:3c:41:09:8a:6e:af:88:b2:4e:fb:
                    4b:83:34:27:93:a5:d9:49:f0:10:9f:15:3f:52:ff:
                    da:f3:d1:1b:2b:c3:ce:8f:cd:8d:ee:25:f7:01:03:
                    73:02:43:98:ec:49:e1:c0:68:f3:80:ce:b1:06:4b:
                    db:77:a7:ec:e8:81:d3:ef:9f:99:87:65:02:44:96:
                    e3:fb:51:78:be:66:36:ba:61:24:e2:03:b7:2f:2d:
                    95:bf:12:5e:c9:1c:86:82:cb:a9:ba:26:c7:67:34:
                    7b:32:c3:1c:15:b9:41:9c:31:d0:7b:88:04:0f:45:
                    68:69:79:e0:b5:69:83:d9:b5:f9:ff:a8:5a:87:52:
                    bc:1a:6c:b1:19:ff:8e:64:64:60:e1:f2:a0:20:9c:
                    b9:b5:09:fd:a8:7a:42:fc:c6:d2:c3:16:79:e2:8c:
                    b5:af:54:cb:ab:a5:b4:71:b9:e2:85:cf:ff:5e:34:
                    26:4a:44:18:a9:37:06:c0:95:07:d3:09:a1:03:3d:
                    99:4c:d2:aa:c0:6a:2e:22:cc:ed:19:57:b5:b6:46:
                    04:14:fd:05:36:79:ea:7d:63:37:1f:c8:60:bc:af:
                    1c:b2:70:1c:44:7e:a6:f7:4d:2b:4b:23:45:ce:b1:
                    d3:b3:97:72:6c:80:f8:15:c9:98:dd:ce:eb:b6:7c:
                    18:be:85:44:3d:cc:67:60:f5:9a:3c:52:f4:ff:78:
                    e7:98:6b:bf:b1:6c:40:c9:b1:b0:17:f6:94:65:38:
                    13:b3:63:10:98:44:a4:09:e8:31:05:55:ec:c7:67:
                    2f:62:3a:c3:66:3e:c2:b6:32:13:ae:4d:88:00:5f:
                    96:34:e8:18:a7:95:d3:da:f1:17:5c:35:3c:59:fa:
                    4a:dd:c2:90:47:1a:c5:ec:76:24:8a:0f:a4:65:92:
                    05:d9:31:b6:72:00:1e:38:58:c8:cb:09:d6:33:f1:
                    0a:ef:61:10:ba:34:0f:20:1c:cc:88:fe:1a:ee:22:
                    74:83:5b:15:a9:77:90:12:df:83:d1:00:05:b9:43:
                    63:1e:c5:81:c4:18:68:c6:fe:0f:9c:af:b1:0a:3a:
                    a3:a5:bd:c8:bc:59:95:4b:d1:31:20:60:2c:fd:97:
                    3a:8e:2e:49:19:f7:d6:a7:46:22:71:17:5e:4e:d7:
                    a0:65:cf:e4:4f:e5:0d:67:93:49:c2:8b:ee:68:f1:
                    cb:c6:a0:4c:3d:61:51:da:1a:55:10:af:e0:ae:14:
                    d0:21:36:a4:88:6e:56:a5:97:00:54:a7:8b:7f:07:
                    8e:7a:2b
                Exponent: 65537 (0x10001)
        X509v3 extensions:
            X509v3 Basic Constraints: 
                CA:FALSE
            Netscape Comment: 
                Easy-RSA Generated Certificate
            X509v3 Subject Key Identifier: 
                12:E2:D6:17:68:C1:6C:4A:75:3D:6C:59:74:50:B4:8E:78:E2:34:30
            X509v3 Authority Key Identifier: 
                keyid:EF:38:8D:14:50:58:A7:5B:4D:9C:17:72:FC:DF:B9:AC:A7:51:B0:10
                DirName:/C=US/ST=CA/L=SanFrancisco/O=Pixglo, Inc./OU=VPN-CIE/CN=tunnel.pixglo.com/name=Bala Chandrasekaran/emailAddress=bala@pixglo.com
                serial:A6:DB:C6:83:80:E6:A0:79

            X509v3 Extended Key Usage: 
                TLS Web Client Authentication
            X509v3 Key Usage: 
                Digital Signature
    Signature Algorithm: sha1WithRSAEncryption
         24:34:9b:df:62:d2:de:65:c1:85:52:fd:c4:fd:99:49:a2:87:
         ad:d0:76:62:2a:8d:c7:d0:dc:3c:fc:1c:5a:2b:cc:55:9b:33:
         bc:fd:c9:39:64:08:2b:c7:45:16:2b:cd:cc:61:e0:d6:d0:54:
         70:97:df:2b:1e:a2:90:1f:88:1d:0a:b2:5f:1f:98:be:62:20:
         d9:91:0a:4d:55:ee:7e:68:0c:b3:75:c2:bd:ca:27:f2:da:8d:
         09:67:64:0a:e9:c2:be:bd:dc:8d:a7:32:d4:65:dd:8a:c2:f1:
         54:5d:ff:c4:d5:7c:a3:b7:72:30:99:50:bf:60:57:b1:42:42:
         16:b4:c9:25:7d:25:44:25:23:48:76:13:45:be:fa:17:96:e5:
         0f:ee:17:a0:33:f9:ce:8a:2d:ab:cf:3f:0a:ab:9e:4b:d0:7e:
         04:dc:79:b6:60:ce:25:cb:d1:52:0f:bc:bc:a9:9b:f8:25:04:
         52:5c:0b:2b:e5:50:ca:81:3e:85:92:da:0e:e2:56:f2:70:65:
         f6:c7:b8:dc:13:7e:93:9c:36:31:58:11:a1:01:31:13:6f:1b:
         bf:03:aa:02:1d:73:55:11:40:c5:12:e1:ec:37:55:5b:60:c2:
         87:8d:b4:e0:ab:62:5a:6a:b4:df:e5:58:19:cb:40:0e:b5:aa:
         71:5e:80:db:4e:1c:56:99:bd:32:7f:82:19:33:8a:6f:27:24:
         15:f3:3a:aa:e5:96:85:3f:ee:7e:5f:72:0f:62:d4:1f:26:db:
         08:9e:1f:f1:fe:3b:1f:76:2e:aa:17:f5:71:96:ed:4d:b6:12:
         b1:39:e2:56:4c:e7:52:52:30:eb:b4:52:c5:1a:6b:e5:49:fb:
         4f:0d:50:1c:aa:e4:ac:1c:61:67:7d:2d:e0:cf:64:2f:f6:8e:
         47:33:cc:fd:40:82:ab:b3:8a:61:83:29:c8:d3:3f:b3:84:9a:
         4f:c4:8f:c8:51:fa:00:fe:e3:ec:ff:fb:cd:7e:4b:64:62:d9:
         c6:75:20:d5:25:dc:0f:b3:2a:b7:53:a7:f6:83:b1:b8:87:47:
         e2:7f:51:4e:d9:82:6a:68:9d:4e:bc:f7:fb:ea:dd:46:18:24:
         6d:0c:f6:08:45:7e:bc:c0:b6:35:9b:e9:be:a1:fb:b4:05:c4:
         6e:f3:01:8f:52:c9:a3:a9:f8:cc:9e:b7:c9:b7:3e:4e:87:2b:
         b5:34:ff:c9:30:d2:97:e3:35:fa:be:ab:39:00:50:22:08:6a:
         3f:e6:3f:40:15:6e:4e:c0:79:b6:13:f9:f6:4f:44:1f:e3:2d:
         34:ba:95:00:ee:00:4a:7e:d3:85:f7:92:28:3e:a5:e8:32:fa:
         a3:9f:81:06:38:17:d1:41
-----BEGIN CERTIFICATE-----
MIIHSDCCBTCgAwIBAgICA28wDQYJKoZIhvcNAQEFBQAwgbQxCzAJBgNVBAYTAlVT
MQswCQYDVQQIEwJDQTEVMBMGA1UEBxMMU2FuRnJhbmNpc2NvMRUwEwYDVQQKEwxQ
aXhnbG8sIEluYy4xEDAOBgNVBAsTB1ZQTi1DSUUxGjAYBgNVBAMTEXR1bm5lbC5w
aXhnbG8uY29tMRwwGgYDVQQpExNCYWxhIENoYW5kcmFzZWthcmFuMR4wHAYJKoZI
hvcNAQkBFg9iYWxhQHBpeGdsby5jb20wHhcNMTgwMjE0MDY0NjMyWhcNMjgwMjEy
MDY0NjMyWjCBqTELMAkGA1UEBhMCVVMxCzAJBgNVBAgTAkNBMRUwEwYDVQQHEwxT
YW5GcmFuY2lzY28xFTATBgNVBAoTDFBpeGdsbywgSW5jLjEQMA4GA1UECxMHVlBO
LUNJRTEPMA0GA1UEAxMGY2llODc4MRwwGgYDVQQpExNCYWxhIENoYW5kcmFzZWth
cmFuMR4wHAYJKoZIhvcNAQkBFg9iYWxhQHBpeGdsby5jb20wggIiMA0GCSqGSIb3
DQEBAQUAA4ICDwAwggIKAoICAQDRTw12ktCLOcjBHq3vzT9hRdMyAs5YBm/CCV8o
5be8GfJMPEEJim6viLJO+0uDNCeTpdlJ8BCfFT9S/9rz0Rsrw86PzY3uJfcBA3MC
Q5jsSeHAaPOAzrEGS9t3p+zogdPvn5mHZQJEluP7UXi+Zja6YSTiA7cvLZW/El7J
HIaCy6m6JsdnNHsywxwVuUGcMdB7iAQPRWhpeeC1aYPZtfn/qFqHUrwabLEZ/45k
ZGDh8qAgnLm1Cf2oekL8xtLDFnnijLWvVMurpbRxueKFz/9eNCZKRBipNwbAlQfT
CaEDPZlM0qrAai4izO0ZV7W2RgQU/QU2eep9YzcfyGC8rxyycBxEfqb3TStLI0XO
sdOzl3JsgPgVyZjdzuu2fBi+hUQ9zGdg9Zo8UvT/eOeYa7+xbEDJsbAX9pRlOBOz
YxCYRKQJ6DEFVezHZy9iOsNmPsK2MhOuTYgAX5Y06BinldPa8RdcNTxZ+krdwpBH
GsXsdiSKD6RlkgXZMbZyAB44WMjLCdYz8QrvYRC6NA8gHMyI/hruInSDWxWpd5AS
34PRAAW5Q2MexYHEGGjG/g+cr7EKOqOlvci8WZVL0TEgYCz9lzqOLkkZ99anRiJx
F15O16Blz+RP5Q1nk0nCi+5o8cvGoEw9YVHaGlUQr+CuFNAhNqSIblallwBUp4t/
B456KwIDAQABo4IBazCCAWcwCQYDVR0TBAIwADAtBglghkgBhvhCAQ0EIBYeRWFz
eS1SU0EgR2VuZXJhdGVkIENlcnRpZmljYXRlMB0GA1UdDgQWBBQS4tYXaMFsSnU9
bFl0ULSOeOI0MDCB6QYDVR0jBIHhMIHegBTvOI0UUFinW02cF3L837msp1GwEKGB
uqSBtzCBtDELMAkGA1UEBhMCVVMxCzAJBgNVBAgTAkNBMRUwEwYDVQQHEwxTYW5G
cmFuY2lzY28xFTATBgNVBAoTDFBpeGdsbywgSW5jLjEQMA4GA1UECxMHVlBOLUNJ
RTEaMBgGA1UEAxMRdHVubmVsLnBpeGdsby5jb20xHDAaBgNVBCkTE0JhbGEgQ2hh
bmRyYXNla2FyYW4xHjAcBgkqhkiG9w0BCQEWD2JhbGFAcGl4Z2xvLmNvbYIJAKbb
xoOA5qB5MBMGA1UdJQQMMAoGCCsGAQUFBwMCMAsGA1UdDwQEAwIHgDANBgkqhkiG
9w0BAQUFAAOCAgEAJDSb32LS3mXBhVL9xP2ZSaKHrdB2YiqNx9DcPPwcWivMVZsz
vP3JOWQIK8dFFivNzGHg1tBUcJffKx6ikB+IHQqyXx+YvmIg2ZEKTVXufmgMs3XC
vcon8tqNCWdkCunCvr3cjacy1GXdisLxVF3/xNV8o7dyMJlQv2BXsUJCFrTJJX0l
RCUjSHYTRb76F5blD+4XoDP5zootq88/CqueS9B+BNx5tmDOJcvRUg+8vKmb+CUE
UlwLK+VQyoE+hZLaDuJW8nBl9se43BN+k5w2MVgRoQExE28bvwOqAh1zVRFAxRLh
7DdVW2DCh4204KtiWmq03+VYGctADrWqcV6A204cVpm9Mn+CGTOKbyckFfM6quWW
hT/ufl9yD2LUHybbCJ4f8f47H3Yuqhf1cZbtTbYSsTniVkznUlIw67RSxRpr5Un7
Tw1QHKrkrBxhZ30t4M9kL/aORzPM/UCCq7OKYYMpyNM/s4SaT8SPyFH6AP7j7P/7
zX5LZGLZxnUg1SXcD7Mqt1On9oOxuIdH4n9RTtmCamidTrz3++rdRhgkbQz2CEV+
vMC2NZvpvqH7tAXEbvMBj1LJo6n4zJ63ybc+TocrtTT/yTDSl+M1+r6rOQBQIghq
P+Y/QBVuTsB5thP59k9EH+MtNLqVAO4ASn7ThfeSKD6l6DL6o5+BBjgX0UE=
-----END CERTIFICATE-----
