Certificate:
    Data:
        Version: 3 (0x2)
        Serial Number: 860 (0x35c)
    Signature Algorithm: sha1WithRSAEncryption
        Issuer: C=US, ST=CA, L=SanFrancisco, O=Pixglo, Inc., OU=VPN-CIE, CN=tunnel.pixglo.com/name=Bala Chandrasekaran/emailAddress=bala@pixglo.com
        Validity
            Not Before: Feb 14 06:45:54 2018 GMT
            Not After : Feb 12 06:45:54 2028 GMT
        Subject: C=US, ST=CA, L=SanFrancisco, O=Pixglo, Inc., OU=VPN-CIE, CN=cie859/name=Bala Chandrasekaran/emailAddress=bala@pixglo.com
        Subject Public Key Info:
            Public Key Algorithm: rsaEncryption
                Public-Key: (4096 bit)
                Modulus:
                    00:db:ed:a0:2a:20:e8:4d:a2:cd:a3:aa:18:ff:d3:
                    86:30:88:9f:f6:4f:64:27:ec:dd:d3:b3:6b:b2:c0:
                    d7:26:3e:27:b2:25:b6:cc:ae:a7:7d:30:0a:41:b5:
                    c7:81:cc:7d:41:2a:85:bc:29:9c:1d:d1:26:cb:42:
                    a7:42:c1:24:56:c7:df:9e:cc:15:4a:e5:b0:cd:af:
                    e5:cf:f6:c5:57:68:3a:42:a6:fe:6b:69:5f:e3:fc:
                    29:92:76:36:30:a8:ab:ce:84:d0:f1:52:30:e9:66:
                    f4:b5:cf:e4:76:aa:84:d8:9d:69:77:8d:e1:2a:e9:
                    24:1a:d3:8a:1c:89:27:e4:13:3d:dd:96:f7:20:67:
                    c2:a2:0e:b5:94:14:e4:f7:c0:e1:9c:6d:65:03:27:
                    70:0f:67:85:26:e2:41:e7:79:42:90:39:a1:cb:4b:
                    49:3e:fc:a3:52:70:a8:0e:43:3d:9e:4a:ad:e5:13:
                    cf:3c:c8:ba:7c:31:c1:f6:22:9c:51:2a:14:8c:f9:
                    84:23:f1:cd:9c:62:3f:6a:3b:b3:53:74:34:f3:21:
                    6a:ef:2b:7f:31:b3:f9:14:a0:3a:73:95:94:a7:e7:
                    ea:57:e4:04:f6:45:2f:81:bb:e8:21:b9:a4:32:6e:
                    5c:66:ee:3d:42:3d:cf:51:64:9d:b9:a1:26:ba:2b:
                    c0:97:ab:c2:c7:74:2f:19:db:8c:83:a8:2d:eb:43:
                    74:1c:31:74:e1:49:83:6b:45:4f:6a:81:55:cd:a7:
                    d3:ec:6d:b7:1d:70:b3:f6:54:38:5c:48:f5:c6:2b:
                    e4:21:95:b5:d6:2c:5b:77:51:6c:c3:d8:bc:1d:30:
                    5b:a3:bc:0b:fb:64:09:17:fb:3c:f7:46:24:e3:27:
                    71:ed:77:09:43:6b:40:a4:58:47:cb:22:af:c3:03:
                    ee:d7:8e:57:6e:32:a8:49:8f:09:bf:ed:38:13:05:
                    4c:79:ac:c2:12:ab:15:92:03:31:e2:cf:21:0a:8b:
                    72:5d:d9:6b:39:2f:37:66:5c:2d:8e:3f:50:5f:bf:
                    44:63:bd:87:5b:98:42:92:f6:d6:0e:d8:93:27:6f:
                    bf:fc:39:af:ac:5f:fa:32:8f:eb:c8:5c:e5:d5:96:
                    65:f0:01:df:de:fc:d1:71:02:58:c5:13:e4:22:33:
                    3d:06:63:74:1e:d7:e7:b8:e8:16:f6:a6:d8:e7:38:
                    51:04:1f:6c:56:db:88:f4:47:b2:d6:38:bd:83:0e:
                    4e:14:65:59:86:f9:30:bb:40:18:22:44:16:dc:41:
                    88:f7:ac:26:1a:3a:64:f4:c4:60:d3:e8:d5:ee:05:
                    03:04:b3:df:f4:ee:04:95:ac:08:00:8b:73:40:b9:
                    16:cd:1d
                Exponent: 65537 (0x10001)
        X509v3 extensions:
            X509v3 Basic Constraints: 
                CA:FALSE
            Netscape Comment: 
                Easy-RSA Generated Certificate
            X509v3 Subject Key Identifier: 
                2F:35:95:F0:CE:92:61:9B:75:20:B0:B4:80:25:5D:C0:E4:7C:79:4A
            X509v3 Authority Key Identifier: 
                keyid:EF:38:8D:14:50:58:A7:5B:4D:9C:17:72:FC:DF:B9:AC:A7:51:B0:10
                DirName:/C=US/ST=CA/L=SanFrancisco/O=Pixglo, Inc./OU=VPN-CIE/CN=tunnel.pixglo.com/name=Bala Chandrasekaran/emailAddress=bala@pixglo.com
                serial:A6:DB:C6:83:80:E6:A0:79

            X509v3 Extended Key Usage: 
                TLS Web Client Authentication
            X509v3 Key Usage: 
                Digital Signature
    Signature Algorithm: sha1WithRSAEncryption
         a8:39:0a:0e:0e:e0:af:3d:bc:6d:76:96:db:62:0c:b7:dc:4e:
         38:39:4f:b8:1f:42:97:31:37:ba:50:4d:f3:04:10:c6:07:74:
         e2:56:f8:ee:a0:a6:b2:fe:d6:0a:ed:b6:fb:55:c7:83:91:bc:
         74:3d:38:84:0c:af:82:f3:22:73:99:c8:6b:7e:10:e2:10:87:
         dc:70:6e:37:13:07:78:a1:34:d7:d2:75:15:47:60:17:bd:e5:
         72:bd:79:7b:0f:16:6f:91:ef:72:ad:62:86:62:29:95:be:5d:
         f4:3d:e4:6c:53:f0:95:2d:51:69:fb:31:fe:10:5d:e4:e5:f3:
         d5:de:48:3c:63:4b:44:8a:89:a6:d4:90:e0:5d:a5:7f:8b:79:
         4d:3f:24:31:96:e3:74:d0:cb:af:18:2d:de:c0:1f:0e:bc:7b:
         c6:41:da:75:96:f8:2c:72:ca:66:64:a3:d8:68:ea:c8:d3:02:
         80:06:d4:d9:6f:9c:18:7e:ed:7c:9d:12:ce:98:be:12:a7:d7:
         34:51:6a:e3:51:9d:67:ba:82:bd:c1:0c:07:05:e8:f6:31:a8:
         bf:9b:49:e3:3b:03:87:c6:55:58:55:94:2c:89:41:ef:84:ef:
         a7:99:bd:21:90:b6:d4:ef:73:2f:d7:10:ba:78:da:02:03:f6:
         dc:73:b6:b6:e2:5a:a8:45:34:bb:96:48:b6:6e:ba:52:82:e6:
         f8:82:13:71:21:22:21:33:79:f0:c0:51:23:01:44:9c:d6:92:
         ef:27:3d:17:88:45:8c:ca:e1:09:e0:d5:bd:92:b6:52:51:67:
         de:55:e1:1d:52:3f:64:7c:3d:52:a3:c7:9e:78:1e:93:d2:21:
         70:6f:e4:6e:a9:3c:bd:86:0e:90:5d:72:a5:2b:a4:c8:c8:17:
         dc:31:01:5b:49:9b:d6:e5:a3:cf:03:b8:04:49:0b:f6:99:ba:
         8d:3a:b5:77:2d:33:8d:dd:12:00:cf:a2:0d:60:8c:49:68:96:
         e9:41:81:bd:52:70:28:ed:b7:e5:97:75:80:82:67:9a:6e:cb:
         3a:b8:c0:6a:d1:61:c0:62:b9:ce:f9:4f:2e:51:fa:d6:52:9e:
         bc:2f:32:c3:ae:4b:11:60:74:c1:38:e4:b1:d1:f2:b0:32:da:
         20:a4:19:05:79:3e:39:1d:bc:98:48:a1:f9:15:85:f8:a3:40:
         6b:f7:3a:2e:a6:ea:ee:cd:f1:b4:e7:dd:9b:62:62:44:d1:f3:
         68:07:7a:bf:94:4e:fb:13:b0:79:c7:7b:20:a9:37:11:31:d6:
         80:aa:d0:fe:12:3a:1f:aa:fe:e2:0f:89:a1:17:30:1f:29:c9:
         a9:85:ff:f4:37:08:3a:d3
-----BEGIN CERTIFICATE-----
MIIHSDCCBTCgAwIBAgICA1wwDQYJKoZIhvcNAQEFBQAwgbQxCzAJBgNVBAYTAlVT
MQswCQYDVQQIEwJDQTEVMBMGA1UEBxMMU2FuRnJhbmNpc2NvMRUwEwYDVQQKEwxQ
aXhnbG8sIEluYy4xEDAOBgNVBAsTB1ZQTi1DSUUxGjAYBgNVBAMTEXR1bm5lbC5w
aXhnbG8uY29tMRwwGgYDVQQpExNCYWxhIENoYW5kcmFzZWthcmFuMR4wHAYJKoZI
hvcNAQkBFg9iYWxhQHBpeGdsby5jb20wHhcNMTgwMjE0MDY0NTU0WhcNMjgwMjEy
MDY0NTU0WjCBqTELMAkGA1UEBhMCVVMxCzAJBgNVBAgTAkNBMRUwEwYDVQQHEwxT
YW5GcmFuY2lzY28xFTATBgNVBAoTDFBpeGdsbywgSW5jLjEQMA4GA1UECxMHVlBO
LUNJRTEPMA0GA1UEAxMGY2llODU5MRwwGgYDVQQpExNCYWxhIENoYW5kcmFzZWth
cmFuMR4wHAYJKoZIhvcNAQkBFg9iYWxhQHBpeGdsby5jb20wggIiMA0GCSqGSIb3
DQEBAQUAA4ICDwAwggIKAoICAQDb7aAqIOhNos2jqhj/04YwiJ/2T2Qn7N3Ts2uy
wNcmPieyJbbMrqd9MApBtceBzH1BKoW8KZwd0SbLQqdCwSRWx9+ezBVK5bDNr+XP
9sVXaDpCpv5raV/j/CmSdjYwqKvOhNDxUjDpZvS1z+R2qoTYnWl3jeEq6SQa04oc
iSfkEz3dlvcgZ8KiDrWUFOT3wOGcbWUDJ3APZ4Um4kHneUKQOaHLS0k+/KNScKgO
Qz2eSq3lE888yLp8McH2IpxRKhSM+YQj8c2cYj9qO7NTdDTzIWrvK38xs/kUoDpz
lZSn5+pX5AT2RS+Bu+ghuaQyblxm7j1CPc9RZJ25oSa6K8CXq8LHdC8Z24yDqC3r
Q3QcMXThSYNrRU9qgVXNp9PsbbcdcLP2VDhcSPXGK+QhlbXWLFt3UWzD2LwdMFuj
vAv7ZAkX+zz3RiTjJ3HtdwlDa0CkWEfLIq/DA+7XjlduMqhJjwm/7TgTBUx5rMIS
qxWSAzHizyEKi3Jd2Ws5LzdmXC2OP1Bfv0RjvYdbmEKS9tYO2JMnb7/8Oa+sX/oy
j+vIXOXVlmXwAd/e/NFxAljFE+QiMz0GY3Qe1+e46Bb2ptjnOFEEH2xW24j0R7LW
OL2DDk4UZVmG+TC7QBgiRBbcQYj3rCYaOmT0xGDT6NXuBQMEs9/07gSVrAgAi3NA
uRbNHQIDAQABo4IBazCCAWcwCQYDVR0TBAIwADAtBglghkgBhvhCAQ0EIBYeRWFz
eS1SU0EgR2VuZXJhdGVkIENlcnRpZmljYXRlMB0GA1UdDgQWBBQvNZXwzpJhm3Ug
sLSAJV3A5Hx5SjCB6QYDVR0jBIHhMIHegBTvOI0UUFinW02cF3L837msp1GwEKGB
uqSBtzCBtDELMAkGA1UEBhMCVVMxCzAJBgNVBAgTAkNBMRUwEwYDVQQHEwxTYW5G
cmFuY2lzY28xFTATBgNVBAoTDFBpeGdsbywgSW5jLjEQMA4GA1UECxMHVlBOLUNJ
RTEaMBgGA1UEAxMRdHVubmVsLnBpeGdsby5jb20xHDAaBgNVBCkTE0JhbGEgQ2hh
bmRyYXNla2FyYW4xHjAcBgkqhkiG9w0BCQEWD2JhbGFAcGl4Z2xvLmNvbYIJAKbb
xoOA5qB5MBMGA1UdJQQMMAoGCCsGAQUFBwMCMAsGA1UdDwQEAwIHgDANBgkqhkiG
9w0BAQUFAAOCAgEAqDkKDg7grz28bXaW22IMt9xOODlPuB9ClzE3ulBN8wQQxgd0
4lb47qCmsv7WCu22+1XHg5G8dD04hAyvgvMic5nIa34Q4hCH3HBuNxMHeKE019J1
FUdgF73lcr15ew8Wb5Hvcq1ihmIplb5d9D3kbFPwlS1Rafsx/hBd5OXz1d5IPGNL
RIqJptSQ4F2lf4t5TT8kMZbjdNDLrxgt3sAfDrx7xkHadZb4LHLKZmSj2GjqyNMC
gAbU2W+cGH7tfJ0Szpi+EqfXNFFq41GdZ7qCvcEMBwXo9jGov5tJ4zsDh8ZVWFWU
LIlB74Tvp5m9IZC21O9zL9cQunjaAgP23HO2tuJaqEU0u5ZItm66UoLm+IITcSEi
ITN58MBRIwFEnNaS7yc9F4hFjMrhCeDVvZK2UlFn3lXhHVI/ZHw9UqPHnngek9Ih
cG/kbqk8vYYOkF1ypSukyMgX3DEBW0mb1uWjzwO4BEkL9pm6jTq1dy0zjd0SAM+i
DWCMSWiW6UGBvVJwKO235Zd1gIJnmm7LOrjAatFhwGK5zvlPLlH61lKevC8yw65L
EWB0wTjksdHysDLaIKQZBXk+OR28mEih+RWF+KNAa/c6Lqbq7s3xtOfdm2JiRNHz
aAd6v5RO+xOwecd7IKk3ETHWgKrQ/hI6H6r+4g+JoRcwHynJqYX/9DcIOtM=
-----END CERTIFICATE-----
