Certificate:
    Data:
        Version: 3 (0x2)
        Serial Number: 833 (0x341)
    Signature Algorithm: sha1WithRSAEncryption
        Issuer: C=US, ST=CA, L=SanFrancisco, O=Pixglo, Inc., OU=VPN-CIE, CN=tunnel.pixglo.com/name=Bala Chandrasekaran/emailAddress=bala@pixglo.com
        Validity
            Not Before: Feb 14 06:44:55 2018 GMT
            Not After : Feb 12 06:44:55 2028 GMT
        Subject: C=US, ST=CA, L=SanFrancisco, O=Pixglo, Inc., OU=VPN-CIE, CN=cie832/name=Bala Chandrasekaran/emailAddress=bala@pixglo.com
        Subject Public Key Info:
            Public Key Algorithm: rsaEncryption
                Public-Key: (4096 bit)
                Modulus:
                    00:bc:3c:2a:d1:13:60:fb:23:af:7f:9a:f6:9b:ad:
                    77:c5:89:9c:31:76:2e:d3:0e:ad:fd:1e:80:c5:86:
                    99:c0:58:80:aa:3a:2b:e9:41:72:86:27:95:c2:67:
                    b0:c9:69:a8:ac:d1:e0:4c:44:56:5a:69:8d:b5:cb:
                    23:1e:fb:c5:64:5d:81:58:47:2b:61:f9:09:c8:4d:
                    d6:8f:fc:fe:68:a3:02:dd:7a:b6:bc:2b:fe:50:80:
                    2a:f3:07:95:d4:8f:b3:a5:68:ad:c8:7f:72:b8:7b:
                    f4:22:29:99:74:5f:da:66:60:fe:6a:31:58:0f:5e:
                    92:5c:42:a1:8d:19:f4:6f:da:c8:42:01:20:2a:57:
                    4d:e3:5f:b0:e0:61:bc:a8:69:d8:c1:fd:0b:58:77:
                    b7:a6:fa:d4:cc:1c:32:47:b8:92:78:fc:b3:63:f1:
                    17:a2:4c:98:0f:ee:87:bc:31:14:33:06:52:92:c1:
                    e5:06:86:84:fb:23:11:6d:f0:da:87:e9:87:8d:20:
                    1c:1f:9c:26:80:bf:25:6b:dc:38:6e:0a:b6:54:83:
                    09:71:5a:ec:8c:e8:c4:d5:90:83:71:08:fc:19:b4:
                    18:b4:b8:a6:8e:f4:b7:da:54:75:52:a6:87:2b:a6:
                    0e:b6:1e:79:e4:ee:39:31:5c:60:84:7e:5c:9a:11:
                    c7:4a:60:ae:07:4b:8b:67:9c:00:60:3f:d8:ca:49:
                    b0:01:27:29:85:90:b1:51:40:e8:9c:47:c0:c4:11:
                    df:b6:86:98:c6:bb:c3:44:3c:ae:83:04:64:9b:d3:
                    16:ed:a4:81:c1:88:a7:80:64:1d:cc:95:6e:44:ee:
                    8b:46:da:55:d4:f1:8b:86:57:cd:93:57:e7:52:68:
                    d1:9c:81:d4:2a:76:fe:f0:18:0e:73:7d:60:b6:83:
                    0d:36:9f:e3:c5:c8:16:6b:46:b7:cd:57:80:5c:2b:
                    60:84:d5:87:29:e7:7f:86:23:7c:36:14:db:54:f1:
                    5b:dd:75:3c:25:5f:bd:7b:c5:f5:8b:0d:be:a6:b8:
                    66:39:fa:78:5d:5e:9b:2d:63:b1:e9:3f:5c:3a:ca:
                    ec:7e:67:a1:ee:23:9a:92:45:13:b5:64:d3:45:82:
                    63:2b:23:9c:ec:0b:92:14:0c:5f:36:26:52:87:e8:
                    41:6e:e4:fb:59:b4:b1:77:53:9d:c5:54:2d:54:76:
                    92:d9:b3:19:b1:a0:c3:b6:70:52:85:19:ba:31:0b:
                    b6:89:b0:21:ce:5b:00:0b:7e:06:84:cd:0a:f9:0d:
                    58:5b:1d:d8:36:f9:aa:50:52:dd:d9:0a:2d:14:13:
                    21:96:5b:01:27:50:e0:11:da:cd:24:5d:bc:3f:fc:
                    5b:ad:67
                Exponent: 65537 (0x10001)
        X509v3 extensions:
            X509v3 Basic Constraints: 
                CA:FALSE
            Netscape Comment: 
                Easy-RSA Generated Certificate
            X509v3 Subject Key Identifier: 
                83:68:A6:F1:64:05:85:B5:81:39:B7:6B:36:C5:7D:26:4E:DA:74:CD
            X509v3 Authority Key Identifier: 
                keyid:EF:38:8D:14:50:58:A7:5B:4D:9C:17:72:FC:DF:B9:AC:A7:51:B0:10
                DirName:/C=US/ST=CA/L=SanFrancisco/O=Pixglo, Inc./OU=VPN-CIE/CN=tunnel.pixglo.com/name=Bala Chandrasekaran/emailAddress=bala@pixglo.com
                serial:A6:DB:C6:83:80:E6:A0:79

            X509v3 Extended Key Usage: 
                TLS Web Client Authentication
            X509v3 Key Usage: 
                Digital Signature
    Signature Algorithm: sha1WithRSAEncryption
         21:cc:03:c9:4d:d3:ff:72:ed:f2:cd:8c:72:51:e5:3e:3f:56:
         e0:9f:25:3e:4f:0d:1d:78:c0:81:34:d7:e3:e6:b7:3b:a0:e7:
         c4:a7:62:01:90:60:6e:e4:48:c3:48:f3:8f:d4:69:d6:78:b9:
         9c:95:dc:13:74:5d:82:6d:ce:51:dc:71:2f:b2:45:4b:27:73:
         de:f4:38:42:74:8f:d8:b6:90:42:3d:0e:7f:71:cd:6f:5d:e0:
         a1:d8:f0:89:21:b9:21:00:f7:6f:47:57:ce:4f:ea:da:84:31:
         e8:fe:cd:a7:02:d3:e8:7e:63:6f:f8:4a:c2:42:5e:b9:41:ba:
         6d:bd:d1:ac:6b:e7:88:62:88:75:65:1e:dc:49:d4:d3:da:b4:
         26:b9:8c:2d:5f:14:1e:aa:db:ab:08:1e:3e:71:39:95:81:d4:
         8f:dd:e8:00:d9:d5:7e:b8:f3:5d:cd:76:29:9e:eb:da:94:39:
         18:79:53:cb:03:d6:d9:16:b4:c2:1b:47:be:51:ae:d5:64:a4:
         55:46:73:6a:2d:3f:d2:a7:74:ba:26:98:cb:c0:ac:8f:a8:24:
         ed:02:28:67:ab:f3:89:6a:9f:fc:0f:18:86:63:17:bc:60:78:
         a6:2b:56:45:31:da:41:6c:93:5c:c6:92:ec:dd:27:18:48:11:
         f7:51:f7:55:4e:7c:9e:3d:f4:70:c0:b4:82:e6:3d:4a:b6:42:
         31:cf:42:5c:27:b7:d8:06:ac:02:c8:14:2f:f1:db:05:78:65:
         09:58:73:6c:bf:8f:26:24:fc:97:8b:10:47:50:41:da:51:21:
         91:dc:7f:a2:a4:48:dc:00:c2:53:d0:91:2a:11:65:3d:ef:1f:
         73:ca:19:97:31:a2:b5:50:a1:6f:c5:5a:fe:7f:3d:05:86:b9:
         b4:4e:64:75:0e:11:88:a0:d9:cb:73:00:99:1a:06:04:bb:77:
         5a:5b:88:11:9a:a4:28:c9:bc:ba:36:6a:d0:17:15:2c:2e:5a:
         a6:e0:f5:14:7c:f6:02:43:d6:bf:e0:77:df:e9:68:e5:3f:a5:
         5c:bd:73:9c:74:0e:9b:e6:64:e6:59:fd:16:9d:5b:be:1e:05:
         52:92:f4:d9:89:7b:2f:59:6d:b5:ff:fd:73:45:66:e6:8a:f5:
         26:42:89:c6:0e:a1:f8:a9:4a:0c:8d:6e:68:c0:01:ee:64:3f:
         5f:82:d9:1d:c7:d4:37:50:f9:9d:ee:42:19:fa:d6:f0:e7:c5:
         0a:ff:31:9b:43:b2:a5:01:81:c2:e7:84:57:c1:0a:25:70:7a:
         b1:19:fa:e9:0b:cd:f2:3a:8c:d2:e6:6d:83:97:1d:ee:8f:43:
         fe:58:5c:ff:77:ef:ab:23
-----BEGIN CERTIFICATE-----
MIIHSDCCBTCgAwIBAgICA0EwDQYJKoZIhvcNAQEFBQAwgbQxCzAJBgNVBAYTAlVT
MQswCQYDVQQIEwJDQTEVMBMGA1UEBxMMU2FuRnJhbmNpc2NvMRUwEwYDVQQKEwxQ
aXhnbG8sIEluYy4xEDAOBgNVBAsTB1ZQTi1DSUUxGjAYBgNVBAMTEXR1bm5lbC5w
aXhnbG8uY29tMRwwGgYDVQQpExNCYWxhIENoYW5kcmFzZWthcmFuMR4wHAYJKoZI
hvcNAQkBFg9iYWxhQHBpeGdsby5jb20wHhcNMTgwMjE0MDY0NDU1WhcNMjgwMjEy
MDY0NDU1WjCBqTELMAkGA1UEBhMCVVMxCzAJBgNVBAgTAkNBMRUwEwYDVQQHEwxT
YW5GcmFuY2lzY28xFTATBgNVBAoTDFBpeGdsbywgSW5jLjEQMA4GA1UECxMHVlBO
LUNJRTEPMA0GA1UEAxMGY2llODMyMRwwGgYDVQQpExNCYWxhIENoYW5kcmFzZWth
cmFuMR4wHAYJKoZIhvcNAQkBFg9iYWxhQHBpeGdsby5jb20wggIiMA0GCSqGSIb3
DQEBAQUAA4ICDwAwggIKAoICAQC8PCrRE2D7I69/mvabrXfFiZwxdi7TDq39HoDF
hpnAWICqOivpQXKGJ5XCZ7DJaais0eBMRFZaaY21yyMe+8VkXYFYRyth+QnITdaP
/P5oowLdera8K/5QgCrzB5XUj7OlaK3If3K4e/QiKZl0X9pmYP5qMVgPXpJcQqGN
GfRv2shCASAqV03jX7DgYbyoadjB/QtYd7em+tTMHDJHuJJ4/LNj8ReiTJgP7oe8
MRQzBlKSweUGhoT7IxFt8NqH6YeNIBwfnCaAvyVr3DhuCrZUgwlxWuyM6MTVkINx
CPwZtBi0uKaO9LfaVHVSpocrpg62Hnnk7jkxXGCEflyaEcdKYK4HS4tnnABgP9jK
SbABJymFkLFRQOicR8DEEd+2hpjGu8NEPK6DBGSb0xbtpIHBiKeAZB3MlW5E7otG
2lXU8YuGV82TV+dSaNGcgdQqdv7wGA5zfWC2gw02n+PFyBZrRrfNV4BcK2CE1Ycp
53+GI3w2FNtU8VvddTwlX717xfWLDb6muGY5+nhdXpstY7HpP1w6yux+Z6HuI5qS
RRO1ZNNFgmMrI5zsC5IUDF82JlKH6EFu5PtZtLF3U53FVC1UdpLZsxmxoMO2cFKF
GboxC7aJsCHOWwALfgaEzQr5DVhbHdg2+apQUt3ZCi0UEyGWWwEnUOAR2s0kXbw/
/FutZwIDAQABo4IBazCCAWcwCQYDVR0TBAIwADAtBglghkgBhvhCAQ0EIBYeRWFz
eS1SU0EgR2VuZXJhdGVkIENlcnRpZmljYXRlMB0GA1UdDgQWBBSDaKbxZAWFtYE5
t2s2xX0mTtp0zTCB6QYDVR0jBIHhMIHegBTvOI0UUFinW02cF3L837msp1GwEKGB
uqSBtzCBtDELMAkGA1UEBhMCVVMxCzAJBgNVBAgTAkNBMRUwEwYDVQQHEwxTYW5G
cmFuY2lzY28xFTATBgNVBAoTDFBpeGdsbywgSW5jLjEQMA4GA1UECxMHVlBOLUNJ
RTEaMBgGA1UEAxMRdHVubmVsLnBpeGdsby5jb20xHDAaBgNVBCkTE0JhbGEgQ2hh
bmRyYXNla2FyYW4xHjAcBgkqhkiG9w0BCQEWD2JhbGFAcGl4Z2xvLmNvbYIJAKbb
xoOA5qB5MBMGA1UdJQQMMAoGCCsGAQUFBwMCMAsGA1UdDwQEAwIHgDANBgkqhkiG
9w0BAQUFAAOCAgEAIcwDyU3T/3Lt8s2MclHlPj9W4J8lPk8NHXjAgTTX4+a3O6Dn
xKdiAZBgbuRIw0jzj9Rp1ni5nJXcE3Rdgm3OUdxxL7JFSydz3vQ4QnSP2LaQQj0O
f3HNb13godjwiSG5IQD3b0dXzk/q2oQx6P7NpwLT6H5jb/hKwkJeuUG6bb3RrGvn
iGKIdWUe3EnU09q0JrmMLV8UHqrbqwgePnE5lYHUj93oANnVfrjzXc12KZ7r2pQ5
GHlTywPW2Ra0whtHvlGu1WSkVUZzai0/0qd0uiaYy8Csj6gk7QIoZ6vziWqf/A8Y
hmMXvGB4pitWRTHaQWyTXMaS7N0nGEgR91H3VU58nj30cMC0guY9SrZCMc9CXCe3
2AasAsgUL/HbBXhlCVhzbL+PJiT8l4sQR1BB2lEhkdx/oqRI3ADCU9CRKhFlPe8f
c8oZlzGitVChb8Va/n89BYa5tE5kdQ4RiKDZy3MAmRoGBLt3WluIEZqkKMm8ujZq
0BcVLC5apuD1FHz2AkPWv+B33+lo5T+lXL1znHQOm+Zk5ln9Fp1bvh4FUpL02Yl7
L1lttf/9c0Vm5or1JkKJxg6h+KlKDI1uaMAB7mQ/X4LZHcfUN1D5ne5CGfrW8OfF
Cv8xm0OypQGBwueEV8EKJXB6sRn66QvN8jqM0uZtg5cd7o9D/lhc/3fvqyM=
-----END CERTIFICATE-----
