Certificate:
    Data:
        Version: 3 (0x2)
        Serial Number: 873 (0x369)
    Signature Algorithm: sha1WithRSAEncryption
        Issuer: C=US, ST=CA, L=SanFrancisco, O=Pixglo, Inc., OU=VPN-CIE, CN=tunnel.pixglo.com/name=Bala Chandrasekaran/emailAddress=bala@pixglo.com
        Validity
            Not Before: Feb 14 06:46:24 2018 GMT
            Not After : Feb 12 06:46:24 2028 GMT
        Subject: C=US, ST=CA, L=SanFrancisco, O=Pixglo, Inc., OU=VPN-CIE, CN=cie872/name=Bala Chandrasekaran/emailAddress=bala@pixglo.com
        Subject Public Key Info:
            Public Key Algorithm: rsaEncryption
                Public-Key: (4096 bit)
                Modulus:
                    00:c8:67:8e:b5:f6:ab:d5:25:a0:8e:b6:46:29:e9:
                    bb:c0:80:e1:f7:45:51:61:79:e3:76:d0:c4:ad:2f:
                    c5:a3:03:78:05:c0:ed:89:f2:c2:cf:d6:df:20:17:
                    57:45:b5:9b:c4:66:47:85:5d:0a:3e:02:ed:b8:ad:
                    7e:1f:df:d0:96:c4:28:2b:16:fa:fa:77:44:44:38:
                    b4:40:26:07:2a:d6:76:8a:4d:31:3f:53:93:b9:58:
                    53:0d:fa:69:8b:10:4d:fe:94:88:3a:c1:20:4a:a4:
                    b1:05:07:9a:3d:74:fa:48:c3:00:8e:d5:53:a8:61:
                    7c:24:ff:8b:dd:17:d3:44:e2:2b:cd:07:34:24:8d:
                    da:53:61:a6:8f:2e:22:d5:2a:3b:96:9a:62:f2:9c:
                    c0:fe:bf:17:e5:a6:3a:c4:76:05:06:c9:82:b9:10:
                    b5:38:8e:5a:cd:d4:e8:b9:0c:bd:71:da:43:9d:35:
                    ab:45:ec:56:35:d8:d0:72:97:85:ec:c9:f4:7e:c6:
                    e9:18:72:21:2f:15:bb:59:43:44:f3:0a:67:dd:5a:
                    e0:15:7e:b5:c1:95:73:62:00:33:8d:f4:be:69:5a:
                    a8:e1:ee:f7:e2:37:55:16:93:d5:0e:e6:37:be:09:
                    fe:49:fb:2d:d1:ee:66:d1:e1:18:bf:93:0e:28:7a:
                    cb:2e:6a:e9:e4:6f:e5:85:5a:a1:6c:b7:ba:94:76:
                    58:ca:a0:ce:f8:fa:29:e2:b3:ff:1f:97:98:9d:b4:
                    7d:1f:29:9d:b8:e7:c2:31:83:26:87:e0:7c:c0:f9:
                    72:31:b8:87:d6:f1:ac:ba:cb:6a:22:a0:f3:47:e1:
                    d5:99:85:85:9f:37:57:d8:3a:11:ce:9d:5b:52:50:
                    31:7b:1c:ff:11:c4:c3:ed:37:0b:ec:8f:e8:58:53:
                    9b:72:45:8d:1a:b2:50:c4:54:f9:b9:e0:d3:65:ce:
                    29:3d:24:ff:09:bd:81:97:3e:a4:54:b6:02:40:cf:
                    cd:7b:d6:5b:c0:e5:e5:f7:d6:38:a2:ea:08:27:c8:
                    36:45:fc:b4:d9:25:78:25:9e:84:24:c4:88:b5:ab:
                    6c:0a:2f:1f:b8:39:2c:e7:87:09:cf:34:c4:75:8c:
                    17:61:d5:62:06:3e:f2:af:58:f1:1d:d0:e5:77:27:
                    13:4a:6d:ff:b3:64:f5:3f:6d:3e:a3:a6:63:1b:91:
                    9f:57:6e:1f:15:15:fb:81:aa:a6:1a:ee:35:f7:0c:
                    25:16:59:43:2e:69:9c:83:39:8d:9b:1a:b4:7d:03:
                    23:21:b6:5a:5b:77:23:e9:cb:ff:12:57:b2:e2:ab:
                    69:4a:35:35:00:56:fd:d6:98:54:7d:0e:91:ec:b9:
                    24:f2:bf
                Exponent: 65537 (0x10001)
        X509v3 extensions:
            X509v3 Basic Constraints: 
                CA:FALSE
            Netscape Comment: 
                Easy-RSA Generated Certificate
            X509v3 Subject Key Identifier: 
                69:5E:49:54:EF:A2:0E:51:88:47:85:7B:58:C9:38:CE:3E:2A:F9:56
            X509v3 Authority Key Identifier: 
                keyid:EF:38:8D:14:50:58:A7:5B:4D:9C:17:72:FC:DF:B9:AC:A7:51:B0:10
                DirName:/C=US/ST=CA/L=SanFrancisco/O=Pixglo, Inc./OU=VPN-CIE/CN=tunnel.pixglo.com/name=Bala Chandrasekaran/emailAddress=bala@pixglo.com
                serial:A6:DB:C6:83:80:E6:A0:79

            X509v3 Extended Key Usage: 
                TLS Web Client Authentication
            X509v3 Key Usage: 
                Digital Signature
    Signature Algorithm: sha1WithRSAEncryption
         98:4a:e6:2b:af:9d:9e:75:8f:d0:82:f2:37:19:08:51:ae:10:
         48:67:b4:71:87:32:1d:29:68:1f:e7:b0:8b:02:52:62:4a:e2:
         6c:34:b5:a0:26:bb:83:16:9a:07:23:b1:c6:95:15:e1:24:ff:
         7d:2b:0f:33:18:05:12:10:73:d5:1c:cb:cd:03:a5:bf:4f:fe:
         87:b8:50:68:7a:fa:bf:9c:09:74:e9:95:3b:f2:da:53:5a:71:
         c6:c8:e0:a4:e3:ef:72:8b:a1:8e:b2:12:f4:ef:c4:da:f8:b6:
         50:84:8c:ad:7d:f8:8b:30:94:cc:d8:88:53:49:15:e0:f3:df:
         88:33:58:14:f8:e8:8a:80:6e:0e:42:15:42:f5:30:96:b5:a8:
         40:49:5e:c1:9c:00:5a:61:ba:a1:07:ec:83:70:a3:a4:24:c7:
         69:1d:76:ff:71:13:66:e6:c7:a3:20:07:74:32:6a:61:b0:f0:
         6f:4c:f4:7c:a2:0b:c9:63:e1:93:d7:c9:3f:55:0a:90:09:bb:
         ba:da:c0:06:64:8d:f2:35:d9:79:f3:ca:6c:ef:45:11:3b:4a:
         4f:3d:2c:05:8d:e5:1f:8d:89:2c:b0:d0:0f:c0:66:3f:19:96:
         c9:69:69:4f:83:fa:73:3f:38:b2:f3:59:de:b6:7a:10:f7:ce:
         05:f5:e6:46:11:61:55:00:6c:07:2e:8a:80:e1:36:83:7d:07:
         e5:06:78:20:dd:f4:5b:4e:37:b9:c7:50:fa:41:25:2a:b3:8f:
         38:e6:16:b9:f8:dc:03:40:06:66:a1:8c:7f:c1:5d:75:79:37:
         97:11:e5:37:6b:6f:4d:8e:d0:4e:08:1f:8d:e4:13:22:27:01:
         33:c1:1b:fe:8e:23:9a:0a:5d:dc:14:92:ec:df:35:c2:1d:99:
         5e:d6:c2:d9:58:e6:69:5b:dc:53:9e:33:c8:85:87:66:80:3c:
         5b:99:37:7c:d0:0c:10:a1:e9:a9:f1:9b:69:95:89:77:bd:0c:
         46:c7:90:06:9e:ee:0b:d2:4a:2f:14:b9:f8:5c:75:82:f0:22:
         8b:90:86:98:ce:99:a5:54:e0:60:6f:4c:4f:bc:e0:e8:aa:74:
         a3:26:f2:78:21:86:2b:87:99:ca:98:ed:78:88:72:28:9a:82:
         c3:8a:95:26:b9:f4:8b:f3:0f:35:0e:bd:7d:11:f9:2f:86:4f:
         12:85:fa:29:ec:be:ee:cc:2d:08:2e:dd:66:e8:f9:17:51:50:
         8e:c4:c8:ad:1d:59:d8:b7:d5:28:d9:e0:b8:74:2b:b4:c3:c9:
         42:ff:d8:92:12:89:9b:b9:41:09:00:0d:b4:36:0c:e4:03:1c:
         31:7c:cb:cc:98:05:bb:d4
-----BEGIN CERTIFICATE-----
MIIHSDCCBTCgAwIBAgICA2kwDQYJKoZIhvcNAQEFBQAwgbQxCzAJBgNVBAYTAlVT
MQswCQYDVQQIEwJDQTEVMBMGA1UEBxMMU2FuRnJhbmNpc2NvMRUwEwYDVQQKEwxQ
aXhnbG8sIEluYy4xEDAOBgNVBAsTB1ZQTi1DSUUxGjAYBgNVBAMTEXR1bm5lbC5w
aXhnbG8uY29tMRwwGgYDVQQpExNCYWxhIENoYW5kcmFzZWthcmFuMR4wHAYJKoZI
hvcNAQkBFg9iYWxhQHBpeGdsby5jb20wHhcNMTgwMjE0MDY0NjI0WhcNMjgwMjEy
MDY0NjI0WjCBqTELMAkGA1UEBhMCVVMxCzAJBgNVBAgTAkNBMRUwEwYDVQQHEwxT
YW5GcmFuY2lzY28xFTATBgNVBAoTDFBpeGdsbywgSW5jLjEQMA4GA1UECxMHVlBO
LUNJRTEPMA0GA1UEAxMGY2llODcyMRwwGgYDVQQpExNCYWxhIENoYW5kcmFzZWth
cmFuMR4wHAYJKoZIhvcNAQkBFg9iYWxhQHBpeGdsby5jb20wggIiMA0GCSqGSIb3
DQEBAQUAA4ICDwAwggIKAoICAQDIZ4619qvVJaCOtkYp6bvAgOH3RVFheeN20MSt
L8WjA3gFwO2J8sLP1t8gF1dFtZvEZkeFXQo+Au24rX4f39CWxCgrFvr6d0REOLRA
Jgcq1naKTTE/U5O5WFMN+mmLEE3+lIg6wSBKpLEFB5o9dPpIwwCO1VOoYXwk/4vd
F9NE4ivNBzQkjdpTYaaPLiLVKjuWmmLynMD+vxflpjrEdgUGyYK5ELU4jlrN1Oi5
DL1x2kOdNatF7FY12NByl4XsyfR+xukYciEvFbtZQ0TzCmfdWuAVfrXBlXNiADON
9L5pWqjh7vfiN1UWk9UO5je+Cf5J+y3R7mbR4Ri/kw4oessuaunkb+WFWqFst7qU
dljKoM74+inis/8fl5idtH0fKZ2458IxgyaH4HzA+XIxuIfW8ay6y2oioPNH4dWZ
hYWfN1fYOhHOnVtSUDF7HP8RxMPtNwvsj+hYU5tyRY0aslDEVPm54NNlzik9JP8J
vYGXPqRUtgJAz8171lvA5eX31jii6ggnyDZF/LTZJXglnoQkxIi1q2wKLx+4OSzn
hwnPNMR1jBdh1WIGPvKvWPEd0OV3JxNKbf+zZPU/bT6jpmMbkZ9Xbh8VFfuBqqYa
7jX3DCUWWUMuaZyDOY2bGrR9AyMhtlpbdyPpy/8SV7Liq2lKNTUAVv3WmFR9DpHs
uSTyvwIDAQABo4IBazCCAWcwCQYDVR0TBAIwADAtBglghkgBhvhCAQ0EIBYeRWFz
eS1SU0EgR2VuZXJhdGVkIENlcnRpZmljYXRlMB0GA1UdDgQWBBRpXklU76IOUYhH
hXtYyTjOPir5VjCB6QYDVR0jBIHhMIHegBTvOI0UUFinW02cF3L837msp1GwEKGB
uqSBtzCBtDELMAkGA1UEBhMCVVMxCzAJBgNVBAgTAkNBMRUwEwYDVQQHEwxTYW5G
cmFuY2lzY28xFTATBgNVBAoTDFBpeGdsbywgSW5jLjEQMA4GA1UECxMHVlBOLUNJ
RTEaMBgGA1UEAxMRdHVubmVsLnBpeGdsby5jb20xHDAaBgNVBCkTE0JhbGEgQ2hh
bmRyYXNla2FyYW4xHjAcBgkqhkiG9w0BCQEWD2JhbGFAcGl4Z2xvLmNvbYIJAKbb
xoOA5qB5MBMGA1UdJQQMMAoGCCsGAQUFBwMCMAsGA1UdDwQEAwIHgDANBgkqhkiG
9w0BAQUFAAOCAgEAmErmK6+dnnWP0ILyNxkIUa4QSGe0cYcyHSloH+ewiwJSYkri
bDS1oCa7gxaaByOxxpUV4ST/fSsPMxgFEhBz1RzLzQOlv0/+h7hQaHr6v5wJdOmV
O/LaU1pxxsjgpOPvcouhjrIS9O/E2vi2UISMrX34izCUzNiIU0kV4PPfiDNYFPjo
ioBuDkIVQvUwlrWoQElewZwAWmG6oQfsg3CjpCTHaR12/3ETZubHoyAHdDJqYbDw
b0z0fKILyWPhk9fJP1UKkAm7utrABmSN8jXZefPKbO9FETtKTz0sBY3lH42JLLDQ
D8BmPxmWyWlpT4P6cz84svNZ3rZ6EPfOBfXmRhFhVQBsBy6KgOE2g30H5QZ4IN30
W043ucdQ+kElKrOPOOYWufjcA0AGZqGMf8FddXk3lxHlN2tvTY7QTggfjeQTIicB
M8Eb/o4jmgpd3BSS7N81wh2ZXtbC2VjmaVvcU54zyIWHZoA8W5k3fNAMEKHpqfGb
aZWJd70MRseQBp7uC9JKLxS5+Fx1gvAii5CGmM6ZpVTgYG9MT7zg6Kp0oybyeCGG
K4eZypjteIhyKJqCw4qVJrn0i/MPNQ69fRH5L4ZPEoX6Key+7swtCC7dZuj5F1FQ
jsTIrR1Z2LfVKNnguHQrtMPJQv/YkhKJm7lBCQANtDYM5AMcMXzLzJgFu9Q=
-----END CERTIFICATE-----
