Certificate:
    Data:
        Version: 3 (0x2)
        Serial Number: 887 (0x377)
    Signature Algorithm: sha1WithRSAEncryption
        Issuer: C=US, ST=CA, L=SanFrancisco, O=Pixglo, Inc., OU=VPN-CIE, CN=tunnel.pixglo.com/name=Bala Chandrasekaran/emailAddress=bala@pixglo.com
        Validity
            Not Before: Feb 14 06:46:49 2018 GMT
            Not After : Feb 12 06:46:49 2028 GMT
        Subject: C=US, ST=CA, L=SanFrancisco, O=Pixglo, Inc., OU=VPN-CIE, CN=cie886/name=Bala Chandrasekaran/emailAddress=bala@pixglo.com
        Subject Public Key Info:
            Public Key Algorithm: rsaEncryption
                Public-Key: (4096 bit)
                Modulus:
                    00:a5:fc:dc:32:b6:db:8b:70:f5:c2:13:76:ab:b1:
                    0b:b3:6d:0f:ad:98:37:76:2c:5d:59:11:e6:a1:66:
                    8e:21:8c:bc:09:07:71:7e:4f:aa:90:d3:d9:e9:14:
                    0e:6b:22:f6:5e:08:63:11:ff:d3:e0:73:48:bc:f9:
                    3c:d1:be:dc:5d:ef:d2:ec:5b:19:ec:b1:1c:21:b9:
                    59:04:0c:fe:e0:4d:d4:14:9f:06:8a:cb:4c:11:d8:
                    54:4a:8f:96:8f:8d:c5:e0:79:7e:31:5e:6d:b6:81:
                    f0:e2:41:9c:8c:49:ef:2e:56:5c:47:19:7e:5a:38:
                    3e:13:65:b4:eb:bc:52:2c:f3:62:50:eb:56:83:d7:
                    8b:ea:69:a1:7e:2f:3d:59:41:45:ac:b9:7e:cb:50:
                    b2:0d:a2:f4:b9:95:16:f7:f8:94:21:8f:f1:78:2d:
                    ed:64:02:fa:14:34:71:89:7b:3a:23:1f:83:4e:49:
                    81:89:81:f9:0a:03:85:72:25:27:1d:d1:f1:d3:43:
                    d2:d5:f5:20:46:14:be:85:32:44:10:d1:16:6f:05:
                    d8:f0:07:18:53:98:ac:c5:aa:cc:ad:a7:a5:26:0e:
                    8f:4b:c3:cf:b6:50:46:0c:d2:83:8b:20:e4:41:66:
                    e2:40:2b:5b:ed:8a:0c:7c:de:20:1c:74:b7:a3:c6:
                    d0:18:6c:75:a5:8a:0e:77:5c:80:99:f1:f9:27:a4:
                    63:fa:00:74:12:75:b2:e1:7a:f8:e8:33:e4:66:25:
                    30:a4:ad:97:6f:89:c7:8b:9d:02:c4:01:f9:91:f9:
                    79:81:eb:12:ce:0d:0b:b5:a1:77:f8:2b:16:68:6d:
                    57:18:63:02:63:ee:cc:f9:2c:cf:63:c8:96:2f:ce:
                    c7:5b:b9:e4:7f:79:43:c7:1c:ef:ab:0d:dc:12:8a:
                    16:87:0b:41:de:cc:de:69:9b:b2:a8:3f:07:37:a7:
                    99:fc:11:ec:89:01:0c:3d:71:31:df:71:3b:4f:32:
                    4b:a0:14:88:11:54:ab:61:79:41:bb:0b:a5:97:36:
                    52:74:8d:0f:d2:7d:6c:b0:78:30:47:ec:56:38:ce:
                    69:8b:52:65:f8:d0:0d:ea:5a:6b:70:d8:63:bf:c7:
                    23:69:13:0f:10:10:29:39:63:ac:21:ff:76:de:bc:
                    fb:ef:d4:be:f0:c3:00:26:41:5f:0a:3c:45:5b:cc:
                    cb:25:19:b8:e2:9d:b3:f6:67:a4:c6:29:d1:7f:fa:
                    2c:a2:b8:51:bc:d3:88:5e:1c:64:42:6a:1b:85:78:
                    1e:fa:3a:d0:d0:d6:63:63:d2:07:47:29:fc:78:3f:
                    dd:70:d1:f6:8d:d9:00:31:2c:9d:6a:fe:dd:88:7b:
                    e4:98:db
                Exponent: 65537 (0x10001)
        X509v3 extensions:
            X509v3 Basic Constraints: 
                CA:FALSE
            Netscape Comment: 
                Easy-RSA Generated Certificate
            X509v3 Subject Key Identifier: 
                9A:AC:71:29:0A:C5:75:98:30:83:24:C6:72:1F:AA:B7:01:19:AB:BC
            X509v3 Authority Key Identifier: 
                keyid:EF:38:8D:14:50:58:A7:5B:4D:9C:17:72:FC:DF:B9:AC:A7:51:B0:10
                DirName:/C=US/ST=CA/L=SanFrancisco/O=Pixglo, Inc./OU=VPN-CIE/CN=tunnel.pixglo.com/name=Bala Chandrasekaran/emailAddress=bala@pixglo.com
                serial:A6:DB:C6:83:80:E6:A0:79

            X509v3 Extended Key Usage: 
                TLS Web Client Authentication
            X509v3 Key Usage: 
                Digital Signature
    Signature Algorithm: sha1WithRSAEncryption
         c7:3d:d6:71:a6:05:1c:cc:b9:82:e9:88:21:e2:b7:96:ac:71:
         1c:ba:21:9b:8e:63:09:9e:da:0d:72:22:05:cd:43:35:2e:27:
         9f:40:c0:56:a5:53:f4:19:36:b0:f2:f9:a3:14:b9:5b:e9:ef:
         65:79:26:8f:dc:d5:ef:62:91:b6:3c:1a:06:79:55:16:1b:82:
         ea:c6:41:a8:20:88:41:fd:ac:e3:44:c1:b6:0e:60:65:d6:5c:
         a3:9d:60:a2:bf:95:a6:2f:a5:44:cf:f1:7e:c4:de:c5:b5:20:
         1d:b3:f8:89:91:20:fe:f2:b2:34:77:3e:38:13:1c:9e:3e:c5:
         e4:9f:50:ca:20:22:aa:4b:ec:d7:ca:62:56:15:7b:f5:bd:59:
         7f:07:83:ed:be:44:a5:1b:bb:39:1c:41:8e:ef:9f:a2:bb:47:
         f4:a6:99:61:d3:9e:0c:31:74:f7:75:17:77:22:7d:ac:34:f7:
         82:08:16:ee:8d:a1:e9:0f:32:8f:d2:50:81:1c:98:29:36:81:
         3f:f1:05:4f:01:59:1c:d4:59:47:3c:81:63:72:c3:0c:cb:b2:
         7a:8d:3e:b4:26:20:57:bb:3f:ec:84:69:7e:01:0a:f2:79:bb:
         e2:3e:10:89:f7:ac:63:49:f5:f2:1b:21:fb:12:f0:cd:c8:03:
         0c:81:92:e7:9a:aa:6d:4e:01:e3:8e:be:92:d0:fd:4c:0d:19:
         9f:2b:12:48:9a:19:e5:f2:4b:ad:fd:17:5c:e0:8c:1c:48:6e:
         5b:44:23:79:93:13:7b:8b:7c:f0:0f:2d:26:40:2c:01:e7:a2:
         bd:13:24:52:f0:78:79:4b:6d:bd:1f:1d:ed:bb:35:06:23:f9:
         e4:87:6d:30:3f:7d:9c:50:95:06:20:a1:fb:84:d7:45:50:a6:
         c2:49:ac:e2:dd:23:53:4a:7b:fe:5d:35:1b:cf:15:32:a3:fe:
         e7:9e:d7:0f:88:dc:2a:7a:e8:11:5f:53:12:d5:9a:23:3a:2f:
         3e:ed:0a:13:02:b3:f9:51:6d:4a:ec:af:b2:46:22:31:8c:d1:
         b0:c2:e9:37:55:63:9f:f4:5f:0c:3e:5f:c2:22:0c:87:4a:4b:
         d5:17:95:e1:6e:22:9c:f4:2d:e3:72:fe:5f:6e:17:c0:66:8d:
         58:b1:55:8b:7d:cc:e8:fd:f4:19:70:29:00:be:5b:1f:ea:d4:
         8f:51:da:17:75:e9:2e:a4:cb:b7:ae:7d:0c:c3:c4:e1:41:eb:
         e3:4a:2f:3a:2e:37:5c:34:53:b0:12:89:ce:1e:14:64:92:38:
         c3:55:34:91:28:5a:35:73:a1:e2:88:bc:04:29:4b:3c:e0:1b:
         9e:60:85:2c:ef:e4:0c:00
-----BEGIN CERTIFICATE-----
MIIHSDCCBTCgAwIBAgICA3cwDQYJKoZIhvcNAQEFBQAwgbQxCzAJBgNVBAYTAlVT
MQswCQYDVQQIEwJDQTEVMBMGA1UEBxMMU2FuRnJhbmNpc2NvMRUwEwYDVQQKEwxQ
aXhnbG8sIEluYy4xEDAOBgNVBAsTB1ZQTi1DSUUxGjAYBgNVBAMTEXR1bm5lbC5w
aXhnbG8uY29tMRwwGgYDVQQpExNCYWxhIENoYW5kcmFzZWthcmFuMR4wHAYJKoZI
hvcNAQkBFg9iYWxhQHBpeGdsby5jb20wHhcNMTgwMjE0MDY0NjQ5WhcNMjgwMjEy
MDY0NjQ5WjCBqTELMAkGA1UEBhMCVVMxCzAJBgNVBAgTAkNBMRUwEwYDVQQHEwxT
YW5GcmFuY2lzY28xFTATBgNVBAoTDFBpeGdsbywgSW5jLjEQMA4GA1UECxMHVlBO
LUNJRTEPMA0GA1UEAxMGY2llODg2MRwwGgYDVQQpExNCYWxhIENoYW5kcmFzZWth
cmFuMR4wHAYJKoZIhvcNAQkBFg9iYWxhQHBpeGdsby5jb20wggIiMA0GCSqGSIb3
DQEBAQUAA4ICDwAwggIKAoICAQCl/NwyttuLcPXCE3arsQuzbQ+tmDd2LF1ZEeah
Zo4hjLwJB3F+T6qQ09npFA5rIvZeCGMR/9Pgc0i8+TzRvtxd79LsWxnssRwhuVkE
DP7gTdQUnwaKy0wR2FRKj5aPjcXgeX4xXm22gfDiQZyMSe8uVlxHGX5aOD4TZbTr
vFIs82JQ61aD14vqaaF+Lz1ZQUWsuX7LULINovS5lRb3+JQhj/F4Le1kAvoUNHGJ
ezojH4NOSYGJgfkKA4VyJScd0fHTQ9LV9SBGFL6FMkQQ0RZvBdjwBxhTmKzFqsyt
p6UmDo9Lw8+2UEYM0oOLIORBZuJAK1vtigx83iAcdLejxtAYbHWlig53XICZ8fkn
pGP6AHQSdbLhevjoM+RmJTCkrZdviceLnQLEAfmR+XmB6xLODQu1oXf4KxZobVcY
YwJj7sz5LM9jyJYvzsdbueR/eUPHHO+rDdwSihaHC0HezN5pm7KoPwc3p5n8EeyJ
AQw9cTHfcTtPMkugFIgRVKtheUG7C6WXNlJ0jQ/SfWyweDBH7FY4zmmLUmX40A3q
Wmtw2GO/xyNpEw8QECk5Y6wh/3bevPvv1L7wwwAmQV8KPEVbzMslGbjinbP2Z6TG
KdF/+iyiuFG804heHGRCahuFeB76OtDQ1mNj0gdHKfx4P91w0faN2QAxLJ1q/t2I
e+SY2wIDAQABo4IBazCCAWcwCQYDVR0TBAIwADAtBglghkgBhvhCAQ0EIBYeRWFz
eS1SU0EgR2VuZXJhdGVkIENlcnRpZmljYXRlMB0GA1UdDgQWBBSarHEpCsV1mDCD
JMZyH6q3ARmrvDCB6QYDVR0jBIHhMIHegBTvOI0UUFinW02cF3L837msp1GwEKGB
uqSBtzCBtDELMAkGA1UEBhMCVVMxCzAJBgNVBAgTAkNBMRUwEwYDVQQHEwxTYW5G
cmFuY2lzY28xFTATBgNVBAoTDFBpeGdsbywgSW5jLjEQMA4GA1UECxMHVlBOLUNJ
RTEaMBgGA1UEAxMRdHVubmVsLnBpeGdsby5jb20xHDAaBgNVBCkTE0JhbGEgQ2hh
bmRyYXNla2FyYW4xHjAcBgkqhkiG9w0BCQEWD2JhbGFAcGl4Z2xvLmNvbYIJAKbb
xoOA5qB5MBMGA1UdJQQMMAoGCCsGAQUFBwMCMAsGA1UdDwQEAwIHgDANBgkqhkiG
9w0BAQUFAAOCAgEAxz3WcaYFHMy5gumIIeK3lqxxHLohm45jCZ7aDXIiBc1DNS4n
n0DAVqVT9Bk2sPL5oxS5W+nvZXkmj9zV72KRtjwaBnlVFhuC6sZBqCCIQf2s40TB
tg5gZdZco51gor+Vpi+lRM/xfsTexbUgHbP4iZEg/vKyNHc+OBMcnj7F5J9QyiAi
qkvs18piVhV79b1ZfweD7b5EpRu7ORxBju+fortH9KaZYdOeDDF093UXdyJ9rDT3
gggW7o2h6Q8yj9JQgRyYKTaBP/EFTwFZHNRZRzyBY3LDDMuyeo0+tCYgV7s/7IRp
fgEK8nm74j4QifesY0n18hsh+xLwzcgDDIGS55qqbU4B446+ktD9TA0ZnysSSJoZ
5fJLrf0XXOCMHEhuW0QjeZMTe4t88A8tJkAsAeeivRMkUvB4eUttvR8d7bs1BiP5
5IdtMD99nFCVBiCh+4TXRVCmwkms4t0jU0p7/l01G88VMqP+557XD4jcKnroEV9T
EtWaIzovPu0KEwKz+VFtSuyvskYiMYzRsMLpN1Vjn/RfDD5fwiIMh0pL1ReV4W4i
nPQt43L+X24XwGaNWLFVi33M6P30GXApAL5bH+rUj1HaF3XpLqTLt659DMPE4UHr
40ovOi43XDRTsBKJzh4UZJI4w1U0kShaNXOh4oi8BClLPOAbnmCFLO/kDAA=
-----END CERTIFICATE-----
