Certificate:
    Data:
        Version: 3 (0x2)
        Serial Number: 821 (0x335)
    Signature Algorithm: sha1WithRSAEncryption
        Issuer: C=US, ST=CA, L=SanFrancisco, O=Pixglo, Inc., OU=VPN-CIE, CN=tunnel.pixglo.com/name=Bala Chandrasekaran/emailAddress=bala@pixglo.com
        Validity
            Not Before: Feb 14 06:44:39 2018 GMT
            Not After : Feb 12 06:44:39 2028 GMT
        Subject: C=US, ST=CA, L=SanFrancisco, O=Pixglo, Inc., OU=VPN-CIE, CN=cie820/name=Bala Chandrasekaran/emailAddress=bala@pixglo.com
        Subject Public Key Info:
            Public Key Algorithm: rsaEncryption
                Public-Key: (4096 bit)
                Modulus:
                    00:c3:21:71:69:b2:65:fc:f5:23:9b:ef:99:a6:e2:
                    e0:97:f3:81:2d:91:00:8c:7f:3a:69:cf:b4:b8:9a:
                    c9:ad:7a:e4:43:fb:2a:a7:28:9a:6f:6a:2b:e5:cc:
                    ba:d9:8b:22:4a:83:00:84:ac:fe:a7:d2:48:62:d8:
                    58:88:ee:d5:45:34:28:4c:7f:b9:a5:81:36:5f:08:
                    78:7e:b7:09:fb:dd:d8:05:78:cf:e3:d3:10:8a:66:
                    15:22:06:57:2d:52:f0:32:16:6c:fc:17:8f:ac:49:
                    a3:27:a8:9b:d6:9f:c9:f7:bc:70:69:92:b9:b7:02:
                    41:f5:4e:be:11:a5:28:91:27:ff:13:36:aa:cd:10:
                    ed:f7:bb:87:ac:87:f2:0b:04:0f:cc:c5:a5:2a:ca:
                    59:33:63:ad:71:73:34:d1:76:0c:c0:9c:15:84:cb:
                    29:7b:89:42:88:75:bd:87:ec:8f:04:5c:ba:e1:9c:
                    86:7d:32:74:08:ed:59:66:d1:74:58:69:15:52:fa:
                    39:e1:34:e7:1d:27:94:bf:66:89:3a:f3:16:ff:bd:
                    fd:6e:dd:b9:fb:f3:3c:18:77:f6:68:2a:2d:f4:35:
                    93:05:42:54:cc:97:a6:a5:fa:7f:a9:58:19:3d:fe:
                    c5:3f:92:c5:8c:77:31:42:08:ed:24:58:16:f1:6e:
                    e2:6d:9f:49:74:68:44:d0:aa:42:c3:1e:8a:32:bd:
                    cc:46:0f:55:55:34:bf:62:8c:12:a6:0c:d2:ee:3a:
                    f9:10:f4:a2:68:fa:ce:20:db:de:ec:e1:04:db:04:
                    bc:f7:2d:0c:a4:f2:2d:df:aa:0b:f0:03:74:dc:a2:
                    f1:eb:cf:7d:47:ff:5b:a5:82:13:ab:50:c5:3a:05:
                    05:d5:96:69:b1:52:44:1b:ba:5a:e7:a1:4c:33:e6:
                    b1:f9:2d:52:f8:07:be:35:8c:35:01:23:ae:1c:4c:
                    30:6f:2f:45:55:c3:ab:cb:7b:6f:68:00:31:41:94:
                    b1:96:fe:bb:ed:73:09:6b:bb:a8:1c:85:ae:77:3e:
                    0d:5a:44:24:8d:c1:fd:b0:bf:b9:9b:d8:87:fd:4a:
                    c8:6b:45:ca:9d:2c:5b:d5:c8:5c:1e:f0:6c:9b:2e:
                    70:af:fd:6f:62:d3:81:ae:3c:29:b3:91:85:e0:4b:
                    75:a7:7d:fb:b4:01:46:76:0c:0a:69:da:b2:fc:f9:
                    db:fe:4e:21:c6:0f:2b:da:8d:0c:68:bd:59:76:76:
                    74:69:1f:bf:9f:56:7b:e3:ce:30:ca:0a:21:46:f0:
                    f8:d9:af:70:b9:c1:48:00:fb:2b:af:2e:04:97:6e:
                    f7:a7:19:9b:46:02:0e:48:6c:1d:14:2f:ef:b3:7b:
                    87:e5:cb
                Exponent: 65537 (0x10001)
        X509v3 extensions:
            X509v3 Basic Constraints: 
                CA:FALSE
            Netscape Comment: 
                Easy-RSA Generated Certificate
            X509v3 Subject Key Identifier: 
                AC:70:70:ED:3A:88:9C:7B:C4:AF:8B:C5:E4:42:DE:DE:87:D9:A4:2E
            X509v3 Authority Key Identifier: 
                keyid:EF:38:8D:14:50:58:A7:5B:4D:9C:17:72:FC:DF:B9:AC:A7:51:B0:10
                DirName:/C=US/ST=CA/L=SanFrancisco/O=Pixglo, Inc./OU=VPN-CIE/CN=tunnel.pixglo.com/name=Bala Chandrasekaran/emailAddress=bala@pixglo.com
                serial:A6:DB:C6:83:80:E6:A0:79

            X509v3 Extended Key Usage: 
                TLS Web Client Authentication
            X509v3 Key Usage: 
                Digital Signature
    Signature Algorithm: sha1WithRSAEncryption
         03:39:91:94:8d:07:8f:a7:b1:f6:f8:00:4b:08:cf:86:80:e7:
         e4:b0:fa:07:89:49:ff:2b:7f:ae:68:7e:f6:aa:30:48:30:44:
         1b:ac:0f:c5:06:a1:c1:26:4f:dc:cb:d1:b9:40:f8:26:a0:9e:
         b6:5d:de:63:2a:cd:f5:52:58:e8:42:9b:9d:70:01:ed:39:fa:
         60:fd:e2:a1:ea:d9:4c:de:d6:9f:20:f1:bd:29:4a:e7:b1:52:
         40:0e:8d:60:e2:84:8a:46:87:1f:59:4b:ea:83:e6:e0:c6:ba:
         72:05:48:e2:06:e4:71:33:42:9d:04:9e:90:08:df:15:57:17:
         1f:4c:3c:4f:63:7e:36:43:68:44:74:fa:f9:9e:08:84:c9:cb:
         e8:4f:b6:40:a1:cb:2d:a5:ae:b0:0c:44:b8:f9:f2:b0:a9:eb:
         15:36:5d:4d:f4:1b:7c:de:39:3f:73:1f:16:a7:a2:fd:2d:5d:
         5b:d9:f8:e6:73:c8:93:60:e6:3c:8c:16:38:1b:ab:c8:c9:b0:
         61:d1:e7:1a:9e:7e:c1:c3:0a:2d:a1:30:b7:50:27:9b:22:11:
         04:c6:06:0c:b0:3d:ab:e4:24:0d:fe:c7:2d:5a:9e:97:39:3a:
         4a:5d:16:56:ad:a0:9e:17:12:14:08:da:2d:72:01:34:ce:75:
         78:b2:15:22:1d:82:d3:3d:ca:f5:be:df:0f:83:7a:5d:14:ee:
         f2:cc:59:98:3b:51:af:fe:34:8e:14:5e:5c:90:56:21:30:d8:
         04:25:d9:32:20:ca:1f:71:43:0b:d1:c0:c7:8f:cc:8d:ce:91:
         39:4d:d2:9d:0c:44:07:b8:92:ef:98:90:49:d3:da:d8:62:63:
         46:7d:2a:84:0d:87:50:28:61:62:f3:f5:db:ab:3d:41:d3:79:
         31:1f:52:0e:e8:88:47:bc:88:28:74:34:a5:43:41:8d:e9:58:
         b2:43:27:8d:30:92:75:cf:f1:dc:06:fd:32:d2:2f:b2:bf:5d:
         3d:cd:85:1a:33:e5:d2:be:05:3f:b3:1b:80:f8:e3:a4:84:f9:
         92:39:96:ae:e8:c5:be:77:46:29:a3:43:bd:aa:07:a4:7b:e5:
         9a:44:78:17:cf:20:78:f7:f4:fb:8c:dd:59:b8:b7:62:d8:8e:
         af:2c:fd:b5:59:fc:b9:9f:20:98:6e:3c:ce:31:ab:34:9a:06:
         e0:2b:9c:8b:a7:6e:00:57:24:79:22:02:6e:66:3d:d2:9a:19:
         38:d2:27:2c:bb:31:b1:8c:c7:94:06:f0:a2:2c:ea:a8:3d:53:
         85:5a:ab:fb:14:1c:47:50:f0:9c:dc:d1:e9:68:4c:62:d9:88:
         c3:44:86:b7:af:0a:61:6e
-----BEGIN CERTIFICATE-----
MIIHSDCCBTCgAwIBAgICAzUwDQYJKoZIhvcNAQEFBQAwgbQxCzAJBgNVBAYTAlVT
MQswCQYDVQQIEwJDQTEVMBMGA1UEBxMMU2FuRnJhbmNpc2NvMRUwEwYDVQQKEwxQ
aXhnbG8sIEluYy4xEDAOBgNVBAsTB1ZQTi1DSUUxGjAYBgNVBAMTEXR1bm5lbC5w
aXhnbG8uY29tMRwwGgYDVQQpExNCYWxhIENoYW5kcmFzZWthcmFuMR4wHAYJKoZI
hvcNAQkBFg9iYWxhQHBpeGdsby5jb20wHhcNMTgwMjE0MDY0NDM5WhcNMjgwMjEy
MDY0NDM5WjCBqTELMAkGA1UEBhMCVVMxCzAJBgNVBAgTAkNBMRUwEwYDVQQHEwxT
YW5GcmFuY2lzY28xFTATBgNVBAoTDFBpeGdsbywgSW5jLjEQMA4GA1UECxMHVlBO
LUNJRTEPMA0GA1UEAxMGY2llODIwMRwwGgYDVQQpExNCYWxhIENoYW5kcmFzZWth
cmFuMR4wHAYJKoZIhvcNAQkBFg9iYWxhQHBpeGdsby5jb20wggIiMA0GCSqGSIb3
DQEBAQUAA4ICDwAwggIKAoICAQDDIXFpsmX89SOb75mm4uCX84EtkQCMfzppz7S4
msmteuRD+yqnKJpvaivlzLrZiyJKgwCErP6n0khi2FiI7tVFNChMf7mlgTZfCHh+
twn73dgFeM/j0xCKZhUiBlctUvAyFmz8F4+sSaMnqJvWn8n3vHBpkrm3AkH1Tr4R
pSiRJ/8TNqrNEO33u4esh/ILBA/MxaUqylkzY61xczTRdgzAnBWEyyl7iUKIdb2H
7I8EXLrhnIZ9MnQI7Vlm0XRYaRVS+jnhNOcdJ5S/Zok68xb/vf1u3bn78zwYd/Zo
Ki30NZMFQlTMl6al+n+pWBk9/sU/ksWMdzFCCO0kWBbxbuJtn0l0aETQqkLDHooy
vcxGD1VVNL9ijBKmDNLuOvkQ9KJo+s4g297s4QTbBLz3LQyk8i3fqgvwA3TcovHr
z31H/1ulghOrUMU6BQXVlmmxUkQbulrnoUwz5rH5LVL4B741jDUBI64cTDBvL0VV
w6vLe29oADFBlLGW/rvtcwlru6gcha53Pg1aRCSNwf2wv7mb2If9SshrRcqdLFvV
yFwe8GybLnCv/W9i04GuPCmzkYXgS3Wnffu0AUZ2DApp2rL8+dv+TiHGDyvajQxo
vVl2dnRpH7+fVnvjzjDKCiFG8PjZr3C5wUgA+yuvLgSXbvenGZtGAg5IbB0UL++z
e4flywIDAQABo4IBazCCAWcwCQYDVR0TBAIwADAtBglghkgBhvhCAQ0EIBYeRWFz
eS1SU0EgR2VuZXJhdGVkIENlcnRpZmljYXRlMB0GA1UdDgQWBBSscHDtOoice8Sv
i8XkQt7eh9mkLjCB6QYDVR0jBIHhMIHegBTvOI0UUFinW02cF3L837msp1GwEKGB
uqSBtzCBtDELMAkGA1UEBhMCVVMxCzAJBgNVBAgTAkNBMRUwEwYDVQQHEwxTYW5G
cmFuY2lzY28xFTATBgNVBAoTDFBpeGdsbywgSW5jLjEQMA4GA1UECxMHVlBOLUNJ
RTEaMBgGA1UEAxMRdHVubmVsLnBpeGdsby5jb20xHDAaBgNVBCkTE0JhbGEgQ2hh
bmRyYXNla2FyYW4xHjAcBgkqhkiG9w0BCQEWD2JhbGFAcGl4Z2xvLmNvbYIJAKbb
xoOA5qB5MBMGA1UdJQQMMAoGCCsGAQUFBwMCMAsGA1UdDwQEAwIHgDANBgkqhkiG
9w0BAQUFAAOCAgEAAzmRlI0Hj6ex9vgASwjPhoDn5LD6B4lJ/yt/rmh+9qowSDBE
G6wPxQahwSZP3MvRuUD4JqCetl3eYyrN9VJY6EKbnXAB7Tn6YP3ioerZTN7WnyDx
vSlK57FSQA6NYOKEikaHH1lL6oPm4Ma6cgVI4gbkcTNCnQSekAjfFVcXH0w8T2N+
NkNoRHT6+Z4IhMnL6E+2QKHLLaWusAxEuPnysKnrFTZdTfQbfN45P3MfFqei/S1d
W9n45nPIk2DmPIwWOBuryMmwYdHnGp5+wcMKLaEwt1AnmyIRBMYGDLA9q+QkDf7H
LVqelzk6Sl0WVq2gnhcSFAjaLXIBNM51eLIVIh2C0z3K9b7fD4N6XRTu8sxZmDtR
r/40jhReXJBWITDYBCXZMiDKH3FDC9HAx4/Mjc6ROU3SnQxEB7iS75iQSdPa2GJj
Rn0qhA2HUChhYvP126s9QdN5MR9SDuiIR7yIKHQ0pUNBjelYskMnjTCSdc/x3Ab9
MtIvsr9dPc2FGjPl0r4FP7MbgPjjpIT5kjmWrujFvndGKaNDvaoHpHvlmkR4F88g
ePf0+4zdWbi3YtiOryz9tVn8uZ8gmG48zjGrNJoG4Cuci6duAFckeSICbmY90poZ
ONInLLsxsYzHlAbwoizqqD1ThVqr+xQcR1DwnNzR6WhMYtmIw0SGt68KYW4=
-----END CERTIFICATE-----
