Certificate:
    Data:
        Version: 3 (0x2)
        Serial Number: 826 (0x33a)
    Signature Algorithm: sha1WithRSAEncryption
        Issuer: C=US, ST=CA, L=SanFrancisco, O=Pixglo, Inc., OU=VPN-CIE, CN=tunnel.pixglo.com/name=Bala Chandrasekaran/emailAddress=bala@pixglo.com
        Validity
            Not Before: Feb 14 06:44:43 2018 GMT
            Not After : Feb 12 06:44:43 2028 GMT
        Subject: C=US, ST=CA, L=SanFrancisco, O=Pixglo, Inc., OU=VPN-CIE, CN=cie825/name=Bala Chandrasekaran/emailAddress=bala@pixglo.com
        Subject Public Key Info:
            Public Key Algorithm: rsaEncryption
                Public-Key: (4096 bit)
                Modulus:
                    00:95:50:77:29:4a:99:c9:ee:48:82:25:3a:07:bc:
                    d8:0a:1c:d7:6f:2f:e4:93:53:cd:d7:6c:44:bf:60:
                    bd:af:fa:97:d9:a8:63:b8:9b:93:d7:a0:20:2f:e5:
                    ba:3f:de:c2:b2:3e:25:82:ac:4f:01:ba:90:59:78:
                    eb:80:15:73:97:d2:dc:b4:22:71:ac:e4:40:35:7c:
                    93:63:05:fc:a3:5a:cb:36:db:60:0f:56:d5:c4:6e:
                    ee:25:ae:80:30:5c:89:67:7b:f3:90:8c:4b:2f:4e:
                    7d:e9:33:aa:9e:50:d5:4c:89:2e:0e:ae:3f:f1:b4:
                    2f:b6:ce:6d:7c:d9:31:bb:03:a6:3b:8c:34:b1:03:
                    81:80:b2:3b:28:dd:5e:3a:3a:f7:f2:37:ba:ff:aa:
                    ac:5a:cc:8a:93:e8:ed:c0:57:5a:8b:46:4f:27:61:
                    6d:59:bf:2a:4f:cc:70:09:38:d0:d1:bc:fd:db:51:
                    03:be:3e:9f:f9:8c:fb:96:93:87:6c:43:2d:ac:00:
                    76:80:38:a9:1a:f3:2c:3f:23:3a:62:53:cd:9b:b8:
                    2b:f1:49:e3:e6:56:86:9d:24:18:0f:24:b4:5d:6a:
                    92:67:d5:73:81:40:1a:9c:b9:05:03:05:be:65:72:
                    89:6a:c9:87:ea:60:d4:3f:32:fb:fe:0e:39:f4:ea:
                    10:39:fe:d3:8a:db:67:e3:40:f4:1c:15:36:80:8a:
                    b9:a6:61:15:5d:6d:68:25:62:ec:6a:5c:39:f1:1e:
                    8e:7e:b2:03:0d:ed:7b:21:85:30:07:79:80:df:56:
                    99:6d:4c:6d:51:d6:65:8c:9c:41:22:81:17:03:dd:
                    35:ca:c9:09:3b:17:60:4a:66:f4:4f:e0:1a:2c:76:
                    f1:97:f0:0c:0e:7a:a8:c0:40:94:9e:97:9e:1d:4c:
                    3d:5e:f8:40:1e:ce:ce:4e:54:8d:db:b2:85:bd:5a:
                    2b:e6:41:48:bb:30:09:32:05:1f:7f:da:55:1c:e9:
                    b4:b1:c8:7c:2d:fb:ff:bf:6a:87:92:75:79:b8:ba:
                    d4:fe:f2:d9:b8:17:5f:38:37:ac:77:6e:6f:ca:fe:
                    82:ca:ef:8a:9b:4b:0b:d2:e9:01:cd:c1:a5:a6:61:
                    c5:2b:a4:03:8d:dc:0a:67:b7:f6:09:6d:c3:ec:b5:
                    64:f1:a4:84:f3:f5:a9:d7:9c:80:7f:25:f9:c9:19:
                    d5:df:a3:49:e7:04:54:e6:c6:d8:20:34:f5:7f:05:
                    f0:30:68:75:52:48:4f:bf:bc:10:d2:44:a2:6e:80:
                    5d:01:1a:b5:55:40:df:2a:23:b5:e2:3e:19:77:91:
                    82:7c:c0:22:0f:de:48:44:be:1b:a8:bc:cc:8d:5d:
                    30:19:8b
                Exponent: 65537 (0x10001)
        X509v3 extensions:
            X509v3 Basic Constraints: 
                CA:FALSE
            Netscape Comment: 
                Easy-RSA Generated Certificate
            X509v3 Subject Key Identifier: 
                9C:FB:EF:29:C3:D5:17:C6:06:00:22:EB:CD:F2:DB:F6:35:67:C9:D7
            X509v3 Authority Key Identifier: 
                keyid:EF:38:8D:14:50:58:A7:5B:4D:9C:17:72:FC:DF:B9:AC:A7:51:B0:10
                DirName:/C=US/ST=CA/L=SanFrancisco/O=Pixglo, Inc./OU=VPN-CIE/CN=tunnel.pixglo.com/name=Bala Chandrasekaran/emailAddress=bala@pixglo.com
                serial:A6:DB:C6:83:80:E6:A0:79

            X509v3 Extended Key Usage: 
                TLS Web Client Authentication
            X509v3 Key Usage: 
                Digital Signature
    Signature Algorithm: sha1WithRSAEncryption
         02:b1:6f:f1:67:09:70:05:bc:fe:ab:f0:55:c4:18:a6:07:35:
         be:f0:41:e9:c5:f5:a3:79:06:ff:54:6a:f4:48:5d:74:fe:9d:
         b9:86:b2:9b:ec:dc:1b:07:30:6e:8d:dd:34:07:7a:c3:61:98:
         d3:61:f6:cb:e8:8f:ab:3a:24:dd:5d:61:ad:64:ea:93:5d:48:
         de:fc:5b:c0:9e:ad:08:af:4a:d1:46:6e:ca:25:45:10:cb:ee:
         db:e1:12:77:ba:9e:dd:0c:c7:50:98:05:14:76:3e:32:a5:89:
         bd:8d:e2:f1:4d:bb:fd:cb:0b:53:38:0e:b4:4f:cc:69:65:63:
         5d:58:3b:33:d6:32:84:90:08:b9:74:e8:c3:2e:ce:5d:3c:73:
         dc:1b:ac:35:01:e7:bf:f0:d8:86:66:b6:53:b0:53:67:fc:13:
         2e:e7:42:56:af:ea:81:a2:9b:f2:31:ea:d4:8f:5a:22:e7:a9:
         c2:8c:04:00:e7:db:2f:80:81:82:f4:75:c7:d6:4c:cd:e1:5c:
         0b:ef:90:e5:af:a7:4e:7e:17:43:51:86:d4:38:bf:59:7a:8c:
         11:85:f2:21:0e:0b:a2:b2:b0:65:58:2e:9e:b9:5a:cb:fc:6c:
         1a:a7:4c:f5:f2:ce:6d:86:a5:c6:17:c0:1f:0f:54:1b:23:79:
         ec:bf:ac:d5:1f:f3:cf:66:f2:01:93:24:1a:89:bc:2c:51:f4:
         2a:d5:78:f4:a4:42:73:57:8f:4d:bd:ef:e6:ec:7c:4a:e2:21:
         cf:35:18:30:14:99:b6:a4:2c:6f:25:dd:79:fc:6d:8b:25:8a:
         f1:58:31:63:de:48:d3:1d:cd:6e:39:6d:f7:b3:ff:64:35:3b:
         90:8f:86:8c:32:3c:e2:83:78:48:2b:09:48:7e:a0:50:b2:ac:
         a0:94:85:53:4e:e8:e2:92:80:e3:77:4c:01:c1:85:f2:79:74:
         f4:66:ca:aa:3f:a1:9a:94:59:8a:12:74:ce:e2:35:a4:62:da:
         3b:98:d7:a3:e7:c0:9d:8e:8d:26:89:61:50:86:71:ed:21:10:
         5a:a0:1e:90:b2:a2:7e:bc:08:44:91:26:bc:1d:53:7a:37:a9:
         b8:9e:49:c9:cd:a5:89:72:77:49:b7:07:fa:20:2e:28:7a:fe:
         3f:b6:47:16:76:14:78:d0:ea:93:37:44:30:0a:bc:c2:ee:20:
         40:07:21:27:59:2f:10:43:fc:bd:c8:08:fd:b8:25:fb:91:b4:
         4a:5d:57:a5:6e:51:40:9a:da:cc:49:7f:89:49:29:e6:e9:f2:
         a7:78:63:8c:87:93:ee:08:9d:04:44:10:c6:b5:6a:ba:ff:aa:
         d0:7e:2b:fb:b3:23:27:e1
-----BEGIN CERTIFICATE-----
MIIHSDCCBTCgAwIBAgICAzowDQYJKoZIhvcNAQEFBQAwgbQxCzAJBgNVBAYTAlVT
MQswCQYDVQQIEwJDQTEVMBMGA1UEBxMMU2FuRnJhbmNpc2NvMRUwEwYDVQQKEwxQ
aXhnbG8sIEluYy4xEDAOBgNVBAsTB1ZQTi1DSUUxGjAYBgNVBAMTEXR1bm5lbC5w
aXhnbG8uY29tMRwwGgYDVQQpExNCYWxhIENoYW5kcmFzZWthcmFuMR4wHAYJKoZI
hvcNAQkBFg9iYWxhQHBpeGdsby5jb20wHhcNMTgwMjE0MDY0NDQzWhcNMjgwMjEy
MDY0NDQzWjCBqTELMAkGA1UEBhMCVVMxCzAJBgNVBAgTAkNBMRUwEwYDVQQHEwxT
YW5GcmFuY2lzY28xFTATBgNVBAoTDFBpeGdsbywgSW5jLjEQMA4GA1UECxMHVlBO
LUNJRTEPMA0GA1UEAxMGY2llODI1MRwwGgYDVQQpExNCYWxhIENoYW5kcmFzZWth
cmFuMR4wHAYJKoZIhvcNAQkBFg9iYWxhQHBpeGdsby5jb20wggIiMA0GCSqGSIb3
DQEBAQUAA4ICDwAwggIKAoICAQCVUHcpSpnJ7kiCJToHvNgKHNdvL+STU83XbES/
YL2v+pfZqGO4m5PXoCAv5bo/3sKyPiWCrE8BupBZeOuAFXOX0ty0InGs5EA1fJNj
BfyjWss222APVtXEbu4lroAwXIlne/OQjEsvTn3pM6qeUNVMiS4Orj/xtC+2zm18
2TG7A6Y7jDSxA4GAsjso3V46OvfyN7r/qqxazIqT6O3AV1qLRk8nYW1ZvypPzHAJ
ONDRvP3bUQO+Pp/5jPuWk4dsQy2sAHaAOKka8yw/IzpiU82buCvxSePmVoadJBgP
JLRdapJn1XOBQBqcuQUDBb5lcolqyYfqYNQ/Mvv+Djn06hA5/tOK22fjQPQcFTaA
irmmYRVdbWglYuxqXDnxHo5+sgMN7XshhTAHeYDfVpltTG1R1mWMnEEigRcD3TXK
yQk7F2BKZvRP4BosdvGX8AwOeqjAQJSel54dTD1e+EAezs5OVI3bsoW9WivmQUi7
MAkyBR9/2lUc6bSxyHwt+/+/aoeSdXm4utT+8tm4F184N6x3bm/K/oLK74qbSwvS
6QHNwaWmYcUrpAON3Apnt/YJbcPstWTxpITz9anXnIB/JfnJGdXfo0nnBFTmxtgg
NPV/BfAwaHVSSE+/vBDSRKJugF0BGrVVQN8qI7XiPhl3kYJ8wCIP3khEvhuovMyN
XTAZiwIDAQABo4IBazCCAWcwCQYDVR0TBAIwADAtBglghkgBhvhCAQ0EIBYeRWFz
eS1SU0EgR2VuZXJhdGVkIENlcnRpZmljYXRlMB0GA1UdDgQWBBSc++8pw9UXxgYA
IuvN8tv2NWfJ1zCB6QYDVR0jBIHhMIHegBTvOI0UUFinW02cF3L837msp1GwEKGB
uqSBtzCBtDELMAkGA1UEBhMCVVMxCzAJBgNVBAgTAkNBMRUwEwYDVQQHEwxTYW5G
cmFuY2lzY28xFTATBgNVBAoTDFBpeGdsbywgSW5jLjEQMA4GA1UECxMHVlBOLUNJ
RTEaMBgGA1UEAxMRdHVubmVsLnBpeGdsby5jb20xHDAaBgNVBCkTE0JhbGEgQ2hh
bmRyYXNla2FyYW4xHjAcBgkqhkiG9w0BCQEWD2JhbGFAcGl4Z2xvLmNvbYIJAKbb
xoOA5qB5MBMGA1UdJQQMMAoGCCsGAQUFBwMCMAsGA1UdDwQEAwIHgDANBgkqhkiG
9w0BAQUFAAOCAgEAArFv8WcJcAW8/qvwVcQYpgc1vvBB6cX1o3kG/1Rq9EhddP6d
uYaym+zcGwcwbo3dNAd6w2GY02H2y+iPqzok3V1hrWTqk11I3vxbwJ6tCK9K0UZu
yiVFEMvu2+ESd7qe3QzHUJgFFHY+MqWJvY3i8U27/csLUzgOtE/MaWVjXVg7M9Yy
hJAIuXTowy7OXTxz3BusNQHnv/DYhma2U7BTZ/wTLudCVq/qgaKb8jHq1I9aIuep
wowEAOfbL4CBgvR1x9ZMzeFcC++Q5a+nTn4XQ1GG1Di/WXqMEYXyIQ4LorKwZVgu
nrlay/xsGqdM9fLObYalxhfAHw9UGyN57L+s1R/zz2byAZMkGom8LFH0KtV49KRC
c1ePTb3v5ux8SuIhzzUYMBSZtqQsbyXdefxtiyWK8VgxY95I0x3Nbjlt97P/ZDU7
kI+GjDI84oN4SCsJSH6gULKsoJSFU07o4pKA43dMAcGF8nl09GbKqj+hmpRZihJ0
zuI1pGLaO5jXo+fAnY6NJolhUIZx7SEQWqAekLKifrwIRJEmvB1TejepuJ5Jyc2l
iXJ3SbcH+iAuKHr+P7ZHFnYUeNDqkzdEMAq8wu4gQAchJ1kvEEP8vcgI/bgl+5G0
Sl1XpW5RQJrazEl/iUkp5unyp3hjjIeT7gidBEQQxrVquv+q0H4r+7MjJ+E=
-----END CERTIFICATE-----
