Certificate:
    Data:
        Version: 3 (0x2)
        Serial Number: 868 (0x364)
    Signature Algorithm: sha1WithRSAEncryption
        Issuer: C=US, ST=CA, L=SanFrancisco, O=Pixglo, Inc., OU=VPN-CIE, CN=tunnel.pixglo.com/name=Bala Chandrasekaran/emailAddress=bala@pixglo.com
        Validity
            Not Before: Feb 14 06:46:13 2018 GMT
            Not After : Feb 12 06:46:13 2028 GMT
        Subject: C=US, ST=CA, L=SanFrancisco, O=Pixglo, Inc., OU=VPN-CIE, CN=cie867/name=Bala Chandrasekaran/emailAddress=bala@pixglo.com
        Subject Public Key Info:
            Public Key Algorithm: rsaEncryption
                Public-Key: (4096 bit)
                Modulus:
                    00:d2:4a:b7:80:34:f4:0a:02:3d:67:a8:b0:0b:12:
                    da:a5:41:a2:7f:75:44:8d:65:3f:58:42:8d:97:7c:
                    b1:24:3d:8d:66:2f:cb:be:e0:82:8d:4f:f0:fa:b1:
                    5c:ea:ed:4c:bd:91:7f:f3:4d:86:1e:ae:3c:83:50:
                    95:af:04:5f:9d:8b:ce:21:91:d7:8e:3f:59:c2:d1:
                    8f:fb:76:9d:e4:21:7b:4e:d6:84:6a:80:a3:6e:5b:
                    04:e2:37:65:4d:ab:7c:e0:19:e4:63:3d:a0:3b:62:
                    db:3c:12:c7:ce:40:f7:88:78:fe:e8:39:0e:e3:fa:
                    db:cc:91:91:90:e6:24:4e:29:1a:98:c0:65:15:07:
                    b7:d8:aa:a3:e3:d0:eb:1b:9c:59:3a:14:40:b4:e3:
                    7c:1e:12:16:6e:ca:2d:11:ef:dc:48:31:c0:bc:1b:
                    5b:b7:ab:c6:ff:07:58:9d:14:3b:90:76:e8:c6:c0:
                    1b:16:79:e9:91:2e:b2:1d:12:7a:17:43:24:3d:39:
                    86:7e:0f:94:67:b0:be:08:c9:1d:9b:02:e8:83:a4:
                    56:5d:e5:f0:cd:6d:55:be:35:0b:f0:56:7d:5b:f2:
                    fb:5b:ab:ee:af:80:2d:63:08:5f:45:c7:51:df:1a:
                    e0:4b:17:65:d1:05:0c:6f:83:fb:ad:18:4a:7c:df:
                    a7:46:18:2c:36:3f:f3:56:45:18:5e:55:89:91:7b:
                    7c:b0:f4:59:c6:57:2f:0f:2c:8e:d5:42:8c:5c:69:
                    04:cd:88:9e:02:c8:1b:eb:79:df:4e:8e:93:c5:25:
                    0b:78:a0:ad:07:f0:17:e5:d2:fb:cf:b8:2e:7a:17:
                    20:32:97:82:9e:ba:ba:b7:df:41:1f:0b:a0:61:a0:
                    8c:11:4f:db:92:56:be:93:47:7a:80:8d:51:2d:b9:
                    0a:82:56:c2:1d:70:a5:d1:9c:42:d7:9d:00:b2:a3:
                    94:b7:4b:b8:0c:58:6b:13:fa:c9:4d:9d:75:b6:6c:
                    df:60:b3:59:4e:36:ed:4c:7f:ba:0c:c4:13:e9:38:
                    97:17:69:cd:b6:e0:48:8c:e7:50:41:1f:72:94:90:
                    13:e1:73:bd:4c:2c:2c:ee:10:86:f1:55:47:61:3d:
                    8f:3b:a1:be:5b:d2:e9:87:02:eb:56:c1:13:25:da:
                    fe:d5:63:ab:37:2a:38:8b:41:62:7e:3f:98:eb:c9:
                    d5:40:68:55:dd:63:60:8d:15:86:3d:52:74:98:bf:
                    d7:8f:5c:54:18:f9:7e:af:d7:47:92:6e:9d:1f:82:
                    a0:89:e9:68:0f:a7:e9:e6:3c:3d:b9:2d:97:0f:dd:
                    ae:6a:aa:84:e9:e4:a1:f4:32:b7:99:91:22:43:2b:
                    e0:88:ef
                Exponent: 65537 (0x10001)
        X509v3 extensions:
            X509v3 Basic Constraints: 
                CA:FALSE
            Netscape Comment: 
                Easy-RSA Generated Certificate
            X509v3 Subject Key Identifier: 
                E1:D7:F6:08:24:54:AE:70:19:7A:33:FE:13:28:64:E6:77:19:D7:5B
            X509v3 Authority Key Identifier: 
                keyid:EF:38:8D:14:50:58:A7:5B:4D:9C:17:72:FC:DF:B9:AC:A7:51:B0:10
                DirName:/C=US/ST=CA/L=SanFrancisco/O=Pixglo, Inc./OU=VPN-CIE/CN=tunnel.pixglo.com/name=Bala Chandrasekaran/emailAddress=bala@pixglo.com
                serial:A6:DB:C6:83:80:E6:A0:79

            X509v3 Extended Key Usage: 
                TLS Web Client Authentication
            X509v3 Key Usage: 
                Digital Signature
    Signature Algorithm: sha1WithRSAEncryption
         36:54:52:f8:6f:ea:56:9f:80:61:3c:d2:ae:c5:08:15:ab:4d:
         e4:5f:68:ce:1c:2a:0d:c8:f8:eb:f4:fa:e0:63:07:b0:78:fc:
         cc:3e:c9:9f:cc:2b:e0:5c:b3:1a:6e:85:32:77:a3:68:f0:3e:
         08:5d:df:e3:21:87:9e:89:88:0e:14:f6:32:20:ee:d5:7e:48:
         ee:f4:1b:83:e3:ab:f4:a7:7b:71:ee:69:e0:e5:1a:5a:be:d4:
         0f:1e:6b:2f:10:f3:59:c0:16:7c:e8:32:02:f5:c2:8d:0e:47:
         c5:f0:d0:e3:94:5c:b1:18:6b:fb:e9:8a:cf:dd:39:fa:58:75:
         3f:e0:45:44:6a:9e:c9:3a:dd:ce:63:ac:db:47:9e:3b:45:49:
         82:60:93:bd:62:8f:c9:d2:7d:fc:0c:74:b7:7a:61:31:cf:bc:
         66:f8:14:25:6b:6f:81:4b:4e:41:1b:d6:f8:e4:b4:b4:9f:a2:
         b4:ab:b7:bf:1d:b8:ee:9f:bc:d0:cf:c2:e5:25:27:34:7d:a7:
         55:51:ee:e5:12:47:ba:ba:1c:45:d9:b2:37:78:d3:b1:d6:40:
         dd:09:bc:26:dc:17:9e:a9:9a:1d:09:2d:b7:08:cb:6a:ea:48:
         04:96:a2:88:4a:60:0c:10:ed:a2:2e:48:42:ba:f4:1c:9c:90:
         c0:71:d0:c6:e9:d2:11:9d:f9:b1:e1:34:bc:33:9a:0f:24:e8:
         81:30:2c:70:e1:cd:5c:da:78:b6:e8:c8:7c:d5:85:3c:d0:86:
         8e:1d:e6:96:45:29:64:3f:3b:64:31:b0:e3:a7:05:ab:45:85:
         47:f0:f0:38:46:8f:b6:c7:50:4a:db:b2:66:e4:a2:f8:2e:b5:
         58:e9:f3:67:41:80:b2:f8:5c:de:1c:71:ff:85:9d:c7:fc:bf:
         65:aa:bd:6f:80:43:21:64:94:22:33:87:77:1b:b4:c1:c9:96:
         de:ca:7d:45:8b:0c:00:96:86:48:fc:1c:8c:a5:0e:f3:22:77:
         49:67:1e:63:7f:0b:88:0c:42:72:bb:6e:ae:df:15:60:b2:44:
         6d:33:0c:43:8a:d2:63:b2:80:e0:18:3d:f6:13:99:2b:0e:14:
         d5:f3:a5:fe:ed:2c:c6:de:0f:5e:4b:5e:c9:7a:7b:83:0f:70:
         25:b8:83:2d:52:0c:00:17:33:f9:c0:61:ef:a9:eb:e2:73:1c:
         b5:e8:29:67:92:2b:d9:77:4c:cd:88:18:b4:42:7e:b0:03:08:
         df:5f:22:45:52:69:3d:9c:0b:78:db:f7:cd:3f:21:78:d1:e0:
         e5:3b:88:a2:64:71:1b:55:6a:09:44:47:56:7e:7c:d3:d0:da:
         72:f3:6d:f1:32:23:8c:94
-----BEGIN CERTIFICATE-----
MIIHSDCCBTCgAwIBAgICA2QwDQYJKoZIhvcNAQEFBQAwgbQxCzAJBgNVBAYTAlVT
MQswCQYDVQQIEwJDQTEVMBMGA1UEBxMMU2FuRnJhbmNpc2NvMRUwEwYDVQQKEwxQ
aXhnbG8sIEluYy4xEDAOBgNVBAsTB1ZQTi1DSUUxGjAYBgNVBAMTEXR1bm5lbC5w
aXhnbG8uY29tMRwwGgYDVQQpExNCYWxhIENoYW5kcmFzZWthcmFuMR4wHAYJKoZI
hvcNAQkBFg9iYWxhQHBpeGdsby5jb20wHhcNMTgwMjE0MDY0NjEzWhcNMjgwMjEy
MDY0NjEzWjCBqTELMAkGA1UEBhMCVVMxCzAJBgNVBAgTAkNBMRUwEwYDVQQHEwxT
YW5GcmFuY2lzY28xFTATBgNVBAoTDFBpeGdsbywgSW5jLjEQMA4GA1UECxMHVlBO
LUNJRTEPMA0GA1UEAxMGY2llODY3MRwwGgYDVQQpExNCYWxhIENoYW5kcmFzZWth
cmFuMR4wHAYJKoZIhvcNAQkBFg9iYWxhQHBpeGdsby5jb20wggIiMA0GCSqGSIb3
DQEBAQUAA4ICDwAwggIKAoICAQDSSreANPQKAj1nqLALEtqlQaJ/dUSNZT9YQo2X
fLEkPY1mL8u+4IKNT/D6sVzq7Uy9kX/zTYYerjyDUJWvBF+di84hkdeOP1nC0Y/7
dp3kIXtO1oRqgKNuWwTiN2VNq3zgGeRjPaA7Yts8EsfOQPeIeP7oOQ7j+tvMkZGQ
5iROKRqYwGUVB7fYqqPj0OsbnFk6FEC043weEhZuyi0R79xIMcC8G1u3q8b/B1id
FDuQdujGwBsWeemRLrIdEnoXQyQ9OYZ+D5RnsL4IyR2bAuiDpFZd5fDNbVW+NQvw
Vn1b8vtbq+6vgC1jCF9Fx1HfGuBLF2XRBQxvg/utGEp836dGGCw2P/NWRRheVYmR
e3yw9FnGVy8PLI7VQoxcaQTNiJ4CyBvred9OjpPFJQt4oK0H8Bfl0vvPuC56FyAy
l4Keurq330EfC6BhoIwRT9uSVr6TR3qAjVEtuQqCVsIdcKXRnELXnQCyo5S3S7gM
WGsT+slNnXW2bN9gs1lONu1Mf7oMxBPpOJcXac224EiM51BBH3KUkBPhc71MLCzu
EIbxVUdhPY87ob5b0umHAutWwRMl2v7VY6s3KjiLQWJ+P5jrydVAaFXdY2CNFYY9
UnSYv9ePXFQY+X6v10eSbp0fgqCJ6WgPp+nmPD25LZcP3a5qqoTp5KH0MreZkSJD
K+CI7wIDAQABo4IBazCCAWcwCQYDVR0TBAIwADAtBglghkgBhvhCAQ0EIBYeRWFz
eS1SU0EgR2VuZXJhdGVkIENlcnRpZmljYXRlMB0GA1UdDgQWBBTh1/YIJFSucBl6
M/4TKGTmdxnXWzCB6QYDVR0jBIHhMIHegBTvOI0UUFinW02cF3L837msp1GwEKGB
uqSBtzCBtDELMAkGA1UEBhMCVVMxCzAJBgNVBAgTAkNBMRUwEwYDVQQHEwxTYW5G
cmFuY2lzY28xFTATBgNVBAoTDFBpeGdsbywgSW5jLjEQMA4GA1UECxMHVlBOLUNJ
RTEaMBgGA1UEAxMRdHVubmVsLnBpeGdsby5jb20xHDAaBgNVBCkTE0JhbGEgQ2hh
bmRyYXNla2FyYW4xHjAcBgkqhkiG9w0BCQEWD2JhbGFAcGl4Z2xvLmNvbYIJAKbb
xoOA5qB5MBMGA1UdJQQMMAoGCCsGAQUFBwMCMAsGA1UdDwQEAwIHgDANBgkqhkiG
9w0BAQUFAAOCAgEANlRS+G/qVp+AYTzSrsUIFatN5F9ozhwqDcj46/T64GMHsHj8
zD7Jn8wr4FyzGm6FMnejaPA+CF3f4yGHnomIDhT2MiDu1X5I7vQbg+Or9Kd7ce5p
4OUaWr7UDx5rLxDzWcAWfOgyAvXCjQ5HxfDQ45RcsRhr++mKz905+lh1P+BFRGqe
yTrdzmOs20eeO0VJgmCTvWKPydJ9/Ax0t3phMc+8ZvgUJWtvgUtOQRvW+OS0tJ+i
tKu3vx247p+80M/C5SUnNH2nVVHu5RJHurocRdmyN3jTsdZA3Qm8JtwXnqmaHQkt
twjLaupIBJaiiEpgDBDtoi5IQrr0HJyQwHHQxunSEZ35seE0vDOaDyTogTAscOHN
XNp4tujIfNWFPNCGjh3mlkUpZD87ZDGw46cFq0WFR/DwOEaPtsdQStuyZuSi+C61
WOnzZ0GAsvhc3hxx/4Wdx/y/Zaq9b4BDIWSUIjOHdxu0wcmW3sp9RYsMAJaGSPwc
jKUO8yJ3SWceY38LiAxCcrturt8VYLJEbTMMQ4rSY7KA4Bg99hOZKw4U1fOl/u0s
xt4PXkteyXp7gw9wJbiDLVIMABcz+cBh76nr4nMctegpZ5Ir2XdMzYgYtEJ+sAMI
318iRVJpPZwLeNv3zT8heNHg5TuIomRxG1VqCURHVn5809DacvNt8TIjjJQ=
-----END CERTIFICATE-----
