Certificate:
    Data:
        Version: 3 (0x2)
        Serial Number: 806 (0x326)
    Signature Algorithm: sha1WithRSAEncryption
        Issuer: C=US, ST=CA, L=SanFrancisco, O=Pixglo, Inc., OU=VPN-CIE, CN=tunnel.pixglo.com/name=Bala Chandrasekaran/emailAddress=bala@pixglo.com
        Validity
            Not Before: Feb 14 06:44:07 2018 GMT
            Not After : Feb 12 06:44:07 2028 GMT
        Subject: C=US, ST=CA, L=SanFrancisco, O=Pixglo, Inc., OU=VPN-CIE, CN=cie805/name=Bala Chandrasekaran/emailAddress=bala@pixglo.com
        Subject Public Key Info:
            Public Key Algorithm: rsaEncryption
                Public-Key: (4096 bit)
                Modulus:
                    00:ea:64:6d:73:3d:1a:bf:3b:ac:e2:a7:5b:5a:2c:
                    2c:fe:4e:79:3d:04:bd:79:68:66:01:50:e0:ef:39:
                    e3:cd:c3:68:87:90:c5:71:75:71:a0:9b:30:99:15:
                    c6:ee:2e:5b:b5:33:aa:67:0b:98:80:cf:1a:09:16:
                    67:e3:dd:3a:29:b6:4c:9f:b7:1f:16:28:dd:cb:74:
                    b1:77:56:ca:e5:23:02:42:44:4e:f7:df:db:4c:68:
                    16:5a:c3:ac:5b:64:4d:8c:a2:1e:ad:be:89:0b:cb:
                    60:2f:39:22:d0:b1:0e:e3:0b:cb:5c:fa:8a:1c:c3:
                    12:4b:c7:bc:71:48:15:cb:eb:8f:90:fa:db:17:76:
                    44:84:0d:f5:ca:1a:e4:67:97:da:a9:f4:3a:fe:56:
                    22:d7:ae:9f:57:66:d7:6c:89:38:d4:1d:a3:1f:32:
                    58:57:52:15:8c:27:5e:40:04:36:92:71:37:1a:e0:
                    e8:56:8a:c5:8e:45:87:b3:eb:03:b8:62:7f:62:36:
                    20:a1:b9:67:13:56:62:34:e5:ac:94:5b:46:7c:52:
                    64:df:39:72:b4:0c:8e:79:58:54:26:80:f5:3d:07:
                    22:56:30:69:51:66:86:21:5f:b1:24:e3:e5:4e:37:
                    1d:f4:05:40:95:9f:90:8b:b6:d2:66:8c:98:81:02:
                    01:53:ab:21:51:2d:43:b2:3a:b5:43:8b:b0:a9:4f:
                    f4:62:76:b1:25:10:e2:e7:05:07:e3:25:68:7e:ca:
                    04:18:f4:2b:30:71:c4:7b:fb:75:99:f4:77:b3:3c:
                    c8:c6:8c:23:a3:d1:a3:3c:e2:ba:00:82:40:05:0a:
                    7c:c1:a6:7d:35:ed:86:9a:9f:b7:89:aa:6e:67:f9:
                    e6:e5:b3:73:11:fa:b0:74:09:ca:4b:35:06:ba:3b:
                    22:7a:81:2e:fb:11:63:a4:72:4c:04:d7:64:68:3f:
                    c5:19:1e:f2:4b:86:6b:4d:48:64:d2:dc:41:fb:18:
                    7e:20:dc:9e:6d:0a:78:06:9a:44:fb:48:41:30:d4:
                    dc:21:6c:91:00:c0:0d:35:e8:06:f8:fc:09:6b:74:
                    f0:58:da:23:e4:13:3a:9b:d7:3c:63:cf:47:87:c4:
                    2e:76:cf:4b:9a:12:f7:24:23:5d:13:c5:84:f6:19:
                    b3:a6:af:24:87:3d:98:30:ff:44:35:12:95:77:d4:
                    f9:23:35:1e:f1:66:ce:45:4b:2c:db:06:42:02:f0:
                    fd:22:0b:6c:6a:f6:aa:7c:05:5f:0c:d9:17:7d:0f:
                    3f:20:b6:b7:b0:90:58:0e:a5:0a:c8:95:4f:e1:cf:
                    70:fd:ad:86:f7:06:4b:c9:bb:df:6a:95:9b:7f:32:
                    d5:bd:0f
                Exponent: 65537 (0x10001)
        X509v3 extensions:
            X509v3 Basic Constraints: 
                CA:FALSE
            Netscape Comment: 
                Easy-RSA Generated Certificate
            X509v3 Subject Key Identifier: 
                0A:C5:AF:79:BE:01:BF:75:72:DB:64:0F:50:80:56:21:27:AA:8A:CE
            X509v3 Authority Key Identifier: 
                keyid:EF:38:8D:14:50:58:A7:5B:4D:9C:17:72:FC:DF:B9:AC:A7:51:B0:10
                DirName:/C=US/ST=CA/L=SanFrancisco/O=Pixglo, Inc./OU=VPN-CIE/CN=tunnel.pixglo.com/name=Bala Chandrasekaran/emailAddress=bala@pixglo.com
                serial:A6:DB:C6:83:80:E6:A0:79

            X509v3 Extended Key Usage: 
                TLS Web Client Authentication
            X509v3 Key Usage: 
                Digital Signature
    Signature Algorithm: sha1WithRSAEncryption
         28:40:e0:68:5c:52:3a:1b:7a:07:62:5a:21:cb:44:72:56:ec:
         1e:28:55:10:2d:e5:ae:78:7e:5a:61:7c:dd:82:80:eb:41:0e:
         70:55:55:0d:59:d2:07:be:b8:de:83:c6:07:ab:aa:51:03:73:
         21:41:3a:30:e0:28:da:f4:70:14:16:56:06:2d:52:50:fd:a0:
         c8:7c:bd:08:f2:36:4e:16:d8:7d:a6:9b:4d:f9:13:93:bf:95:
         b8:fb:83:81:32:48:8d:90:f9:d2:9b:c1:62:03:77:1b:b2:19:
         c6:d9:31:72:d1:a6:d3:72:20:2d:a8:dd:df:e4:6b:eb:b9:cd:
         6b:1d:24:3e:29:a9:3d:a2:63:a6:d7:22:45:2a:8c:0d:f7:d8:
         f9:a1:10:45:99:4d:28:65:03:b1:c7:cc:c1:4d:c1:4f:8e:02:
         b3:ca:75:28:4b:57:41:3b:a3:9b:49:6f:41:38:a5:3d:71:bf:
         45:c7:f2:8d:45:08:93:c8:cf:72:ce:c9:54:5c:1f:43:87:08:
         47:d2:bd:3a:f7:10:fd:c9:69:c4:68:06:bf:ec:94:1c:10:c5:
         12:21:35:58:d5:10:31:15:eb:33:ad:31:18:df:1f:c4:08:52:
         34:84:18:8c:5e:e4:3d:1d:0d:e9:af:64:e4:8b:e8:88:9b:7c:
         ec:aa:eb:26:6a:1c:fd:ce:96:04:13:66:ad:9f:b0:c3:3b:ed:
         66:d9:47:31:1b:c3:58:ef:92:b8:68:a8:c0:6c:e1:a4:56:1d:
         ec:24:c4:27:9f:e3:7e:fd:f4:8c:b1:d4:fe:22:9a:3b:83:7b:
         1d:e3:67:dd:e5:4f:eb:06:9e:71:3a:d2:8f:07:59:03:10:6d:
         1b:88:e9:88:4f:21:a8:97:c1:b4:1b:9d:bf:e6:a4:1b:b3:a1:
         ad:fa:65:e3:5c:f0:c3:ad:46:a2:19:a2:95:7f:3e:4d:04:62:
         1e:16:4d:f5:4a:31:18:bb:60:8e:3b:8d:6d:61:66:e2:cc:2a:
         bd:4c:87:7d:ea:3e:be:a7:c6:9d:86:51:d4:c8:c1:80:46:7c:
         0d:65:fe:e9:c5:72:23:30:7e:a6:a4:a7:d1:5e:bb:36:d8:31:
         09:5d:e7:ca:df:6f:64:97:8b:e2:4c:31:49:84:de:c9:40:61:
         78:e1:f1:a8:d9:69:04:50:81:90:99:2b:9c:06:8a:29:7e:3a:
         a6:c2:8e:5a:ec:fa:7d:dd:ab:0d:b8:2c:ac:55:a1:ea:7c:40:
         81:3b:a2:7c:7e:5a:36:d5:aa:27:01:2b:50:29:83:b3:a4:b6:
         d1:13:e6:74:08:26:3c:b4:09:a0:49:f6:82:bc:20:b4:39:e1:
         9f:33:6b:95:5f:f8:1a:9e
-----BEGIN CERTIFICATE-----
MIIHSDCCBTCgAwIBAgICAyYwDQYJKoZIhvcNAQEFBQAwgbQxCzAJBgNVBAYTAlVT
MQswCQYDVQQIEwJDQTEVMBMGA1UEBxMMU2FuRnJhbmNpc2NvMRUwEwYDVQQKEwxQ
aXhnbG8sIEluYy4xEDAOBgNVBAsTB1ZQTi1DSUUxGjAYBgNVBAMTEXR1bm5lbC5w
aXhnbG8uY29tMRwwGgYDVQQpExNCYWxhIENoYW5kcmFzZWthcmFuMR4wHAYJKoZI
hvcNAQkBFg9iYWxhQHBpeGdsby5jb20wHhcNMTgwMjE0MDY0NDA3WhcNMjgwMjEy
MDY0NDA3WjCBqTELMAkGA1UEBhMCVVMxCzAJBgNVBAgTAkNBMRUwEwYDVQQHEwxT
YW5GcmFuY2lzY28xFTATBgNVBAoTDFBpeGdsbywgSW5jLjEQMA4GA1UECxMHVlBO
LUNJRTEPMA0GA1UEAxMGY2llODA1MRwwGgYDVQQpExNCYWxhIENoYW5kcmFzZWth
cmFuMR4wHAYJKoZIhvcNAQkBFg9iYWxhQHBpeGdsby5jb20wggIiMA0GCSqGSIb3
DQEBAQUAA4ICDwAwggIKAoICAQDqZG1zPRq/O6zip1taLCz+Tnk9BL15aGYBUODv
OePNw2iHkMVxdXGgmzCZFcbuLlu1M6pnC5iAzxoJFmfj3Toptkyftx8WKN3LdLF3
VsrlIwJCRE7339tMaBZaw6xbZE2Moh6tvokLy2AvOSLQsQ7jC8tc+oocwxJLx7xx
SBXL64+Q+tsXdkSEDfXKGuRnl9qp9Dr+ViLXrp9XZtdsiTjUHaMfMlhXUhWMJ15A
BDaScTca4OhWisWORYez6wO4Yn9iNiChuWcTVmI05ayUW0Z8UmTfOXK0DI55WFQm
gPU9ByJWMGlRZoYhX7Ek4+VONx30BUCVn5CLttJmjJiBAgFTqyFRLUOyOrVDi7Cp
T/RidrElEOLnBQfjJWh+ygQY9CswccR7+3WZ9HezPMjGjCOj0aM84roAgkAFCnzB
pn017Yaan7eJqm5n+ebls3MR+rB0CcpLNQa6OyJ6gS77EWOkckwE12RoP8UZHvJL
hmtNSGTS3EH7GH4g3J5tCngGmkT7SEEw1NwhbJEAwA016Ab4/AlrdPBY2iPkEzqb
1zxjz0eHxC52z0uaEvckI10TxYT2GbOmrySHPZgw/0Q1EpV31PkjNR7xZs5FSyzb
BkIC8P0iC2xq9qp8BV8M2Rd9Dz8gtrewkFgOpQrIlU/hz3D9rYb3BkvJu99qlZt/
MtW9DwIDAQABo4IBazCCAWcwCQYDVR0TBAIwADAtBglghkgBhvhCAQ0EIBYeRWFz
eS1SU0EgR2VuZXJhdGVkIENlcnRpZmljYXRlMB0GA1UdDgQWBBQKxa95vgG/dXLb
ZA9QgFYhJ6qKzjCB6QYDVR0jBIHhMIHegBTvOI0UUFinW02cF3L837msp1GwEKGB
uqSBtzCBtDELMAkGA1UEBhMCVVMxCzAJBgNVBAgTAkNBMRUwEwYDVQQHEwxTYW5G
cmFuY2lzY28xFTATBgNVBAoTDFBpeGdsbywgSW5jLjEQMA4GA1UECxMHVlBOLUNJ
RTEaMBgGA1UEAxMRdHVubmVsLnBpeGdsby5jb20xHDAaBgNVBCkTE0JhbGEgQ2hh
bmRyYXNla2FyYW4xHjAcBgkqhkiG9w0BCQEWD2JhbGFAcGl4Z2xvLmNvbYIJAKbb
xoOA5qB5MBMGA1UdJQQMMAoGCCsGAQUFBwMCMAsGA1UdDwQEAwIHgDANBgkqhkiG
9w0BAQUFAAOCAgEAKEDgaFxSOht6B2JaIctEclbsHihVEC3lrnh+WmF83YKA60EO
cFVVDVnSB7643oPGB6uqUQNzIUE6MOAo2vRwFBZWBi1SUP2gyHy9CPI2ThbYfaab
TfkTk7+VuPuDgTJIjZD50pvBYgN3G7IZxtkxctGm03IgLajd3+Rr67nNax0kPimp
PaJjptciRSqMDffY+aEQRZlNKGUDscfMwU3BT44Cs8p1KEtXQTujm0lvQTilPXG/
RcfyjUUIk8jPcs7JVFwfQ4cIR9K9OvcQ/clpxGgGv+yUHBDFEiE1WNUQMRXrM60x
GN8fxAhSNIQYjF7kPR0N6a9k5IvoiJt87KrrJmoc/c6WBBNmrZ+wwzvtZtlHMRvD
WO+SuGiowGzhpFYd7CTEJ5/jfv30jLHU/iKaO4N7HeNn3eVP6waecTrSjwdZAxBt
G4jpiE8hqJfBtBudv+akG7Ohrfpl41zww61GohmilX8+TQRiHhZN9UoxGLtgjjuN
bWFm4swqvUyHfeo+vqfGnYZR1MjBgEZ8DWX+6cVyIzB+pqSn0V67NtgxCV3nyt9v
ZJeL4kwxSYTeyUBheOHxqNlpBFCBkJkrnAaKKX46psKOWuz6fd2rDbgsrFWh6nxA
gTuifH5aNtWqJwErUCmDs6S20RPmdAgmPLQJoEn2grwgtDnhnzNrlV/4Gp4=
-----END CERTIFICATE-----
