Certificate:
    Data:
        Version: 3 (0x2)
        Serial Number: 807 (0x327)
    Signature Algorithm: sha1WithRSAEncryption
        Issuer: C=US, ST=CA, L=SanFrancisco, O=Pixglo, Inc., OU=VPN-CIE, CN=tunnel.pixglo.com/name=Bala Chandrasekaran/emailAddress=bala@pixglo.com
        Validity
            Not Before: Feb 14 06:44:09 2018 GMT
            Not After : Feb 12 06:44:09 2028 GMT
        Subject: C=US, ST=CA, L=SanFrancisco, O=Pixglo, Inc., OU=VPN-CIE, CN=cie806/name=Bala Chandrasekaran/emailAddress=bala@pixglo.com
        Subject Public Key Info:
            Public Key Algorithm: rsaEncryption
                Public-Key: (4096 bit)
                Modulus:
                    00:cd:27:2a:0b:93:92:0f:e2:42:62:7b:fc:a4:2c:
                    a2:db:e2:7e:3e:5d:d5:cf:75:84:36:73:84:92:d5:
                    6f:c0:bf:a2:81:d6:67:15:df:cd:f0:c0:62:15:d4:
                    41:20:3b:e9:2d:89:7b:9e:26:65:99:bb:6a:1c:61:
                    67:27:02:12:8f:8e:83:a9:c3:ac:54:d2:e7:1c:b3:
                    b8:27:49:f7:1f:30:d0:c2:86:b5:ab:bc:08:34:23:
                    9f:f6:b6:e3:64:8a:27:8c:32:9d:28:04:a9:7b:29:
                    67:03:70:48:9f:65:e8:cc:74:6d:38:6a:0f:f9:91:
                    9c:9f:4f:cd:e6:a5:5f:a4:08:a5:c1:d2:6c:3d:64:
                    b0:ce:ca:b7:98:38:69:ef:87:4c:a9:1a:f7:80:39:
                    0c:77:22:2b:12:af:9c:9a:3a:19:58:86:6c:80:f1:
                    94:f3:d6:1c:ed:0e:4e:ef:52:cd:a9:f0:68:b1:ef:
                    0d:23:ce:ab:cf:ac:07:39:6e:10:0b:ea:9d:aa:78:
                    22:df:b6:4a:28:8f:8f:b0:b0:6b:05:f4:cd:78:31:
                    8e:e6:46:da:52:50:5f:3b:4c:18:1f:4c:e9:b4:83:
                    49:94:e6:66:27:f7:d2:63:a0:52:bb:08:77:11:38:
                    62:4b:eb:5e:b3:05:93:17:32:64:a2:ce:64:98:a7:
                    00:cc:53:82:3d:a9:40:b5:64:33:6f:c5:14:e1:88:
                    56:c8:27:01:56:1a:c5:26:60:f7:86:e5:c8:f9:1f:
                    4f:37:c9:c1:b7:3a:49:be:41:6a:9f:7f:6d:68:dd:
                    50:4d:9e:f5:1d:00:67:3d:87:c3:15:f1:03:6f:64:
                    1f:c9:e6:d0:d5:e3:d4:4f:1a:55:f3:0f:04:74:4d:
                    6e:9f:73:eb:93:af:33:5c:23:d0:09:19:e9:18:89:
                    9f:39:16:4c:06:b8:50:15:fd:7a:cd:78:49:bd:c7:
                    7a:c0:fe:8c:5c:e2:cc:1b:bd:46:a1:aa:f5:6a:1d:
                    43:fc:71:33:f6:2a:1f:b6:25:d8:57:37:85:bf:16:
                    2d:12:5a:6d:a4:bc:06:fd:5e:db:6e:a9:89:d4:41:
                    36:f7:66:d0:fd:35:4f:f0:11:d9:a7:98:96:b8:64:
                    fe:04:df:a7:fe:0d:7e:f0:0c:9f:af:7e:bb:67:b4:
                    41:13:31:ec:de:43:06:80:69:19:d8:ba:62:2c:a4:
                    65:e4:ef:62:59:35:c6:e3:d8:77:67:e8:91:20:73:
                    5a:42:b6:e8:6a:b3:2b:00:22:c0:ca:5a:a8:02:b3:
                    f0:ed:03:1f:08:7d:32:2a:b7:4b:1a:c6:52:15:bf:
                    a2:73:1b:d6:bb:fd:85:f5:1b:c0:bf:46:23:89:eb:
                    0c:1c:fd
                Exponent: 65537 (0x10001)
        X509v3 extensions:
            X509v3 Basic Constraints: 
                CA:FALSE
            Netscape Comment: 
                Easy-RSA Generated Certificate
            X509v3 Subject Key Identifier: 
                4E:61:DF:2F:44:E9:C7:CC:CA:C9:1D:60:12:13:68:21:E7:55:95:07
            X509v3 Authority Key Identifier: 
                keyid:EF:38:8D:14:50:58:A7:5B:4D:9C:17:72:FC:DF:B9:AC:A7:51:B0:10
                DirName:/C=US/ST=CA/L=SanFrancisco/O=Pixglo, Inc./OU=VPN-CIE/CN=tunnel.pixglo.com/name=Bala Chandrasekaran/emailAddress=bala@pixglo.com
                serial:A6:DB:C6:83:80:E6:A0:79

            X509v3 Extended Key Usage: 
                TLS Web Client Authentication
            X509v3 Key Usage: 
                Digital Signature
    Signature Algorithm: sha1WithRSAEncryption
         59:26:b4:3c:9a:c5:0d:00:c4:10:4f:2d:4b:23:06:e5:46:44:
         4d:4f:2a:23:a9:75:cf:28:46:72:68:3c:b1:21:1f:f0:81:0a:
         c5:e5:4a:4d:89:24:8a:9d:3e:8c:2f:0b:d1:05:f9:3c:76:d7:
         36:ee:ee:0b:69:da:6e:04:df:05:e0:9a:fc:b1:67:d7:6b:60:
         1e:1e:b8:8b:1b:35:af:b0:df:30:0d:fa:88:5f:38:a4:cb:d8:
         a2:da:37:da:b1:30:67:af:13:e8:a4:ad:67:bb:be:61:47:98:
         41:19:64:08:e3:50:d9:b1:a0:f7:72:c3:fa:f2:e8:8f:b8:c7:
         85:45:1c:3e:96:3e:fc:20:ec:0f:bb:bb:c0:21:be:df:ba:37:
         9d:e7:ba:8b:26:05:e4:28:97:6f:aa:79:40:cb:08:ae:09:df:
         50:c0:42:a5:6a:a7:ad:f1:96:da:e0:86:d0:9e:32:62:7f:91:
         ef:ab:44:de:a1:d8:1c:f6:81:5b:32:78:ba:c4:48:d8:8a:64:
         37:3a:f9:22:f3:21:2c:91:a7:52:a0:82:b0:e3:f2:c8:fe:5f:
         5e:ec:ef:57:e7:36:8b:f3:56:6e:11:29:e6:c1:2a:18:5d:3c:
         ff:25:a4:b0:df:5a:68:0c:fe:21:bb:c7:f8:e0:5d:f7:43:f9:
         2a:ec:e7:55:10:44:6a:0f:ab:4b:83:65:86:ff:43:32:d4:00:
         47:3e:b1:f3:e9:9b:38:56:a3:08:0d:24:bf:76:88:13:bb:9d:
         91:fe:f9:bd:34:e8:17:04:6a:eb:33:30:e3:77:7d:0f:64:4f:
         eb:13:ef:da:77:e9:f2:34:6a:4b:7b:b0:af:1c:74:a6:a6:41:
         4a:f3:59:1f:58:48:08:51:39:f5:84:e7:8f:d8:89:94:aa:6f:
         d9:11:c0:b9:52:f6:bc:af:32:43:61:2c:5c:06:a8:c0:21:1c:
         fc:ac:92:d1:02:6c:e7:27:50:d5:eb:e6:d5:b1:f4:ac:83:bd:
         b7:16:af:61:e9:c2:9f:ea:a3:22:53:13:96:24:78:dd:35:d4:
         26:a9:18:dc:64:64:57:9b:c5:63:f7:8c:66:3f:1e:cc:9f:12:
         76:f3:a9:f8:58:f6:ba:b0:db:d2:aa:49:6d:ab:05:4e:7b:7d:
         71:70:63:d4:62:43:ac:ce:c0:97:39:ad:ab:46:6e:7f:a2:50:
         34:7a:04:2c:f5:d1:fc:7d:0f:7a:59:88:f3:29:f3:79:28:f2:
         a4:18:e5:d1:64:a1:ae:d9:41:ff:7d:aa:cb:b1:c7:e0:91:71:
         82:c7:71:7c:af:a7:68:d5:2e:05:23:79:10:32:d3:aa:aa:bc:
         e7:97:e6:ba:d7:dc:0b:c8
-----BEGIN CERTIFICATE-----
MIIHSDCCBTCgAwIBAgICAycwDQYJKoZIhvcNAQEFBQAwgbQxCzAJBgNVBAYTAlVT
MQswCQYDVQQIEwJDQTEVMBMGA1UEBxMMU2FuRnJhbmNpc2NvMRUwEwYDVQQKEwxQ
aXhnbG8sIEluYy4xEDAOBgNVBAsTB1ZQTi1DSUUxGjAYBgNVBAMTEXR1bm5lbC5w
aXhnbG8uY29tMRwwGgYDVQQpExNCYWxhIENoYW5kcmFzZWthcmFuMR4wHAYJKoZI
hvcNAQkBFg9iYWxhQHBpeGdsby5jb20wHhcNMTgwMjE0MDY0NDA5WhcNMjgwMjEy
MDY0NDA5WjCBqTELMAkGA1UEBhMCVVMxCzAJBgNVBAgTAkNBMRUwEwYDVQQHEwxT
YW5GcmFuY2lzY28xFTATBgNVBAoTDFBpeGdsbywgSW5jLjEQMA4GA1UECxMHVlBO
LUNJRTEPMA0GA1UEAxMGY2llODA2MRwwGgYDVQQpExNCYWxhIENoYW5kcmFzZWth
cmFuMR4wHAYJKoZIhvcNAQkBFg9iYWxhQHBpeGdsby5jb20wggIiMA0GCSqGSIb3
DQEBAQUAA4ICDwAwggIKAoICAQDNJyoLk5IP4kJie/ykLKLb4n4+XdXPdYQ2c4SS
1W/Av6KB1mcV383wwGIV1EEgO+ktiXueJmWZu2ocYWcnAhKPjoOpw6xU0uccs7gn
SfcfMNDChrWrvAg0I5/2tuNkiieMMp0oBKl7KWcDcEifZejMdG04ag/5kZyfT83m
pV+kCKXB0mw9ZLDOyreYOGnvh0ypGveAOQx3IisSr5yaOhlYhmyA8ZTz1hztDk7v
Us2p8Gix7w0jzqvPrAc5bhAL6p2qeCLftkooj4+wsGsF9M14MY7mRtpSUF87TBgf
TOm0g0mU5mYn99JjoFK7CHcROGJL616zBZMXMmSizmSYpwDMU4I9qUC1ZDNvxRTh
iFbIJwFWGsUmYPeG5cj5H083ycG3Okm+QWqff21o3VBNnvUdAGc9h8MV8QNvZB/J
5tDV49RPGlXzDwR0TW6fc+uTrzNcI9AJGekYiZ85FkwGuFAV/XrNeEm9x3rA/oxc
4swbvUahqvVqHUP8cTP2Kh+2JdhXN4W/Fi0SWm2kvAb9XttuqYnUQTb3ZtD9NU/w
EdmnmJa4ZP4E36f+DX7wDJ+vfrtntEETMezeQwaAaRnYumIspGXk72JZNcbj2Hdn
6JEgc1pCtuhqsysAIsDKWqgCs/DtAx8IfTIqt0saxlIVv6JzG9a7/YX1G8C/RiOJ
6wwc/QIDAQABo4IBazCCAWcwCQYDVR0TBAIwADAtBglghkgBhvhCAQ0EIBYeRWFz
eS1SU0EgR2VuZXJhdGVkIENlcnRpZmljYXRlMB0GA1UdDgQWBBROYd8vROnHzMrJ
HWASE2gh51WVBzCB6QYDVR0jBIHhMIHegBTvOI0UUFinW02cF3L837msp1GwEKGB
uqSBtzCBtDELMAkGA1UEBhMCVVMxCzAJBgNVBAgTAkNBMRUwEwYDVQQHEwxTYW5G
cmFuY2lzY28xFTATBgNVBAoTDFBpeGdsbywgSW5jLjEQMA4GA1UECxMHVlBOLUNJ
RTEaMBgGA1UEAxMRdHVubmVsLnBpeGdsby5jb20xHDAaBgNVBCkTE0JhbGEgQ2hh
bmRyYXNla2FyYW4xHjAcBgkqhkiG9w0BCQEWD2JhbGFAcGl4Z2xvLmNvbYIJAKbb
xoOA5qB5MBMGA1UdJQQMMAoGCCsGAQUFBwMCMAsGA1UdDwQEAwIHgDANBgkqhkiG
9w0BAQUFAAOCAgEAWSa0PJrFDQDEEE8tSyMG5UZETU8qI6l1zyhGcmg8sSEf8IEK
xeVKTYkkip0+jC8L0QX5PHbXNu7uC2nabgTfBeCa/LFn12tgHh64ixs1r7DfMA36
iF84pMvYoto32rEwZ68T6KStZ7u+YUeYQRlkCONQ2bGg93LD+vLoj7jHhUUcPpY+
/CDsD7u7wCG+37o3nee6iyYF5CiXb6p5QMsIrgnfUMBCpWqnrfGW2uCG0J4yYn+R
76tE3qHYHPaBWzJ4usRI2IpkNzr5IvMhLJGnUqCCsOPyyP5fXuzvV+c2i/NWbhEp
5sEqGF08/yWksN9aaAz+IbvH+OBd90P5KuznVRBEag+rS4Nlhv9DMtQARz6x8+mb
OFajCA0kv3aIE7udkf75vTToFwRq6zMw43d9D2RP6xPv2nfp8jRqS3uwrxx0pqZB
SvNZH1hICFE59YTnj9iJlKpv2RHAuVL2vK8yQ2EsXAaowCEc/KyS0QJs5ydQ1evm
1bH0rIO9txavYenCn+qjIlMTliR43TXUJqkY3GRkV5vFY/eMZj8ezJ8SdvOp+Fj2
urDb0qpJbasFTnt9cXBj1GJDrM7Alzmtq0Zuf6JQNHoELPXR/H0PelmI8ynzeSjy
pBjl0WShrtlB/32qy7HH4JFxgsdxfK+naNUuBSN5EDLTqqq855fmutfcC8g=
-----END CERTIFICATE-----
