Certificate:
    Data:
        Version: 3 (0x2)
        Serial Number: 86 (0x56)
    Signature Algorithm: sha1WithRSAEncryption
        Issuer: C=US, ST=CA, L=SanFrancisco, O=Pixglo, Inc., OU=VPN-CIE, CN=tunnel.pixglo.com/name=Bala Chandrasekaran/emailAddress=bala@pixglo.com
        Validity
            Not Before: Feb 14 06:25:24 2018 GMT
            Not After : Feb 12 06:25:24 2028 GMT
        Subject: C=US, ST=CA, L=SanFrancisco, O=Pixglo, Inc., OU=VPN-CIE, CN=cie85/name=Bala Chandrasekaran/emailAddress=bala@pixglo.com
        Subject Public Key Info:
            Public Key Algorithm: rsaEncryption
                Public-Key: (4096 bit)
                Modulus:
                    00:d3:2b:49:26:f3:d7:c0:41:b8:0c:b8:43:28:99:
                    25:21:9f:ca:90:db:71:d5:25:ec:57:0f:b7:86:7c:
                    bf:d8:3e:16:31:9d:fe:a1:20:14:b6:fb:63:d6:0b:
                    07:c2:aa:e3:e0:ad:27:7a:c5:b4:46:ff:88:92:fd:
                    f8:c3:6d:bd:63:d8:c8:9c:cc:df:2b:08:87:de:42:
                    c9:15:97:a6:bd:a9:ae:9c:94:cf:98:e7:69:a2:72:
                    05:13:84:3e:4e:1f:3a:1b:c3:94:55:a2:69:79:c6:
                    c8:5d:40:ec:0f:fd:b4:16:f0:b7:ca:22:86:ec:f8:
                    5a:2f:1c:bc:b8:46:30:33:6d:5b:ce:25:ff:0d:37:
                    cc:c5:72:e2:4f:0e:3f:20:0f:c4:f9:12:12:66:10:
                    68:84:a5:2a:7e:fd:52:bb:2a:5d:c1:93:53:ab:89:
                    b4:2c:b8:17:42:d6:f8:9b:dd:2b:61:7d:94:09:79:
                    7d:b8:2e:52:48:35:30:73:26:84:3d:fe:8e:ca:5c:
                    19:33:6c:6c:95:36:0a:8a:37:ee:f1:3b:15:25:7f:
                    9b:b2:72:d3:3d:99:3e:83:9e:59:07:b9:88:48:58:
                    57:e3:bd:29:9c:e9:55:45:42:7b:9f:ff:23:08:bc:
                    75:4b:25:60:e7:68:18:9d:a0:cf:15:19:1b:4b:10:
                    9d:3b:a2:7a:f1:1c:76:49:3c:ea:08:ef:28:d2:05:
                    ce:65:73:d7:42:fe:75:e4:db:bc:5a:d5:09:0d:05:
                    1f:d5:e7:c6:75:8d:ed:1b:1c:d4:4e:ea:c8:2c:a4:
                    c4:ae:24:b7:06:2e:65:01:e1:85:7b:56:72:0a:f8:
                    6f:d7:9b:9c:0c:6d:9f:e0:8b:cc:20:5c:80:42:f1:
                    f5:de:1f:c2:bf:ea:0e:23:b5:ed:a5:b9:1a:9c:63:
                    08:a6:11:7d:aa:7d:a4:d2:d0:77:da:5c:b0:44:b7:
                    d2:2b:7a:12:42:c6:bc:59:24:32:d1:d7:c3:f1:91:
                    78:d9:65:fd:9a:3b:b3:32:e5:0f:0b:25:22:e0:73:
                    02:4b:1d:ea:48:4b:d1:75:09:96:b1:d2:04:3f:67:
                    2f:6f:48:20:05:b9:2d:b6:e9:d3:1f:f2:bb:9c:d6:
                    21:67:e0:cd:d0:bc:80:4d:21:d8:57:0e:a9:6f:31:
                    68:68:f5:09:73:16:80:72:cc:68:ae:68:c5:82:69:
                    00:e6:c2:8b:32:88:41:1e:ba:eb:2d:b1:d8:31:9c:
                    53:cb:28:4e:48:7c:97:0b:e9:70:b8:5c:d7:2a:8b:
                    0b:25:42:b6:9b:31:98:0b:d9:c2:7b:39:4a:3a:63:
                    3b:c5:07:0a:b8:41:5e:0c:28:a9:84:94:26:22:cb:
                    67:f2:0f
                Exponent: 65537 (0x10001)
        X509v3 extensions:
            X509v3 Basic Constraints: 
                CA:FALSE
            Netscape Comment: 
                Easy-RSA Generated Certificate
            X509v3 Subject Key Identifier: 
                5B:7E:C0:3F:12:C0:DD:13:F8:BF:DD:C9:7C:FD:E5:6D:E9:E7:A0:B4
            X509v3 Authority Key Identifier: 
                keyid:EF:38:8D:14:50:58:A7:5B:4D:9C:17:72:FC:DF:B9:AC:A7:51:B0:10
                DirName:/C=US/ST=CA/L=SanFrancisco/O=Pixglo, Inc./OU=VPN-CIE/CN=tunnel.pixglo.com/name=Bala Chandrasekaran/emailAddress=bala@pixglo.com
                serial:A6:DB:C6:83:80:E6:A0:79

            X509v3 Extended Key Usage: 
                TLS Web Client Authentication
            X509v3 Key Usage: 
                Digital Signature
    Signature Algorithm: sha1WithRSAEncryption
         85:70:75:1a:af:3b:f5:35:da:66:98:2c:5a:96:49:7f:4a:e1:
         f1:a6:5c:02:cc:79:90:51:42:22:68:2f:e0:ef:62:7b:e3:cc:
         e4:52:55:1f:47:90:6e:ee:ec:9a:80:7e:0c:74:5b:40:8f:14:
         b2:06:16:e3:3d:89:72:03:0d:1a:ba:aa:65:47:ee:0f:2a:bd:
         2d:d4:d1:ef:1e:ab:52:b5:88:05:d9:df:c4:74:87:df:2a:ba:
         e8:62:26:8b:bc:2d:f3:91:43:57:71:8d:bb:74:5f:6d:86:bf:
         cb:73:ed:1f:e3:c7:3f:24:a2:02:80:38:83:51:a6:98:0c:01:
         8c:56:35:21:04:9a:f7:a9:9c:e7:5c:f1:ec:35:59:b2:ff:b6:
         4e:fb:57:81:20:fc:a4:fc:fc:4a:46:0e:f2:3e:5b:91:01:2e:
         01:07:49:b2:ef:84:56:5e:1c:cd:03:66:52:ec:32:bb:79:9c:
         38:84:12:6a:ee:ed:75:e0:d5:66:23:4a:52:e1:eb:d7:b4:69:
         2a:7e:bf:cf:b5:c8:f2:85:fd:19:03:62:f3:4d:db:0c:64:ce:
         fd:c6:e0:53:b6:e8:e0:a6:aa:a5:47:ce:5a:e5:81:d1:5e:c8:
         db:8e:ac:fa:23:ce:5a:59:d8:3d:92:c0:fd:d3:fd:50:4b:7c:
         dd:6c:0f:d4:a1:d3:fe:05:a3:f5:c8:e9:f2:bd:dc:76:ba:55:
         4d:e5:e9:71:6a:75:e5:8b:d4:c1:4c:53:16:76:34:c0:1c:80:
         0e:9c:23:00:7b:b4:9a:74:5b:4a:9f:8c:1b:8d:5b:38:c9:6c:
         90:17:c5:96:93:04:cf:0a:2e:73:3e:ab:ee:98:51:91:7c:96:
         28:f5:62:98:80:63:4e:15:25:bb:98:12:e7:6a:35:bd:29:b1:
         0c:24:e5:6f:fb:d5:72:e0:bd:e9:2c:ee:87:fc:50:86:03:c5:
         c2:eb:ee:0f:73:e2:69:79:39:60:3f:f0:cb:46:21:97:0a:2d:
         c1:6f:a1:54:5f:56:0d:ec:f4:dc:01:2e:9d:30:d7:bc:5e:5e:
         9b:a3:c9:db:f9:34:ea:ef:b9:47:60:98:8e:2a:69:e9:f5:be:
         e1:81:9c:7a:7a:60:9a:b5:57:d2:1c:e0:9b:24:ff:83:fa:05:
         f6:26:d7:63:2c:1d:b0:f7:d2:e2:a8:ed:13:55:62:e0:fc:22:
         c2:2d:be:a6:72:8b:e9:da:2d:b0:8e:76:51:7f:9b:ae:80:80:
         40:47:ad:36:5d:49:a9:17:7e:39:d5:69:43:b2:f8:a8:32:b5:
         47:09:67:e1:a1:24:6b:8b:f4:f9:f0:85:16:1c:df:88:33:35:
         ee:ab:50:47:99:ae:5a:b2
-----BEGIN CERTIFICATE-----
MIIHRjCCBS6gAwIBAgIBVjANBgkqhkiG9w0BAQUFADCBtDELMAkGA1UEBhMCVVMx
CzAJBgNVBAgTAkNBMRUwEwYDVQQHEwxTYW5GcmFuY2lzY28xFTATBgNVBAoTDFBp
eGdsbywgSW5jLjEQMA4GA1UECxMHVlBOLUNJRTEaMBgGA1UEAxMRdHVubmVsLnBp
eGdsby5jb20xHDAaBgNVBCkTE0JhbGEgQ2hhbmRyYXNla2FyYW4xHjAcBgkqhkiG
9w0BCQEWD2JhbGFAcGl4Z2xvLmNvbTAeFw0xODAyMTQwNjI1MjRaFw0yODAyMTIw
NjI1MjRaMIGoMQswCQYDVQQGEwJVUzELMAkGA1UECBMCQ0ExFTATBgNVBAcTDFNh
bkZyYW5jaXNjbzEVMBMGA1UEChMMUGl4Z2xvLCBJbmMuMRAwDgYDVQQLEwdWUE4t
Q0lFMQ4wDAYDVQQDEwVjaWU4NTEcMBoGA1UEKRMTQmFsYSBDaGFuZHJhc2VrYXJh
bjEeMBwGCSqGSIb3DQEJARYPYmFsYUBwaXhnbG8uY29tMIICIjANBgkqhkiG9w0B
AQEFAAOCAg8AMIICCgKCAgEA0ytJJvPXwEG4DLhDKJklIZ/KkNtx1SXsVw+3hny/
2D4WMZ3+oSAUtvtj1gsHwqrj4K0nesW0Rv+Ikv34w229Y9jInMzfKwiH3kLJFZem
vamunJTPmOdponIFE4Q+Th86G8OUVaJpecbIXUDsD/20FvC3yiKG7PhaLxy8uEYw
M21bziX/DTfMxXLiTw4/IA/E+RISZhBohKUqfv1SuypdwZNTq4m0LLgXQtb4m90r
YX2UCXl9uC5SSDUwcyaEPf6OylwZM2xslTYKijfu8TsVJX+bsnLTPZk+g55ZB7mI
SFhX470pnOlVRUJ7n/8jCLx1SyVg52gYnaDPFRkbSxCdO6J68Rx2STzqCO8o0gXO
ZXPXQv515Nu8WtUJDQUf1efGdY3tGxzUTurILKTEriS3Bi5lAeGFe1ZyCvhv15uc
DG2f4IvMIFyAQvH13h/Cv+oOI7XtpbkanGMIphF9qn2k0tB32lywRLfSK3oSQsa8
WSQy0dfD8ZF42WX9mjuzMuUPCyUi4HMCSx3qSEvRdQmWsdIEP2cvb0ggBbkttunT
H/K7nNYhZ+DN0LyATSHYVw6pbzFoaPUJcxaAcsxormjFgmkA5sKLMohBHrrrLbHY
MZxTyyhOSHyXC+lwuFzXKosLJUK2mzGYC9nCezlKOmM7xQcKuEFeDCiphJQmIstn
8g8CAwEAAaOCAWswggFnMAkGA1UdEwQCMAAwLQYJYIZIAYb4QgENBCAWHkVhc3kt
UlNBIEdlbmVyYXRlZCBDZXJ0aWZpY2F0ZTAdBgNVHQ4EFgQUW37APxLA3RP4v93J
fP3lbennoLQwgekGA1UdIwSB4TCB3oAU7ziNFFBYp1tNnBdy/N+5rKdRsBChgbqk
gbcwgbQxCzAJBgNVBAYTAlVTMQswCQYDVQQIEwJDQTEVMBMGA1UEBxMMU2FuRnJh
bmNpc2NvMRUwEwYDVQQKEwxQaXhnbG8sIEluYy4xEDAOBgNVBAsTB1ZQTi1DSUUx
GjAYBgNVBAMTEXR1bm5lbC5waXhnbG8uY29tMRwwGgYDVQQpExNCYWxhIENoYW5k
cmFzZWthcmFuMR4wHAYJKoZIhvcNAQkBFg9iYWxhQHBpeGdsby5jb22CCQCm28aD
gOageTATBgNVHSUEDDAKBggrBgEFBQcDAjALBgNVHQ8EBAMCB4AwDQYJKoZIhvcN
AQEFBQADggIBAIVwdRqvO/U12maYLFqWSX9K4fGmXALMeZBRQiJoL+DvYnvjzORS
VR9HkG7u7JqAfgx0W0CPFLIGFuM9iXIDDRq6qmVH7g8qvS3U0e8eq1K1iAXZ38R0
h98quuhiJou8LfORQ1dxjbt0X22Gv8tz7R/jxz8kogKAOINRppgMAYxWNSEEmvep
nOdc8ew1WbL/tk77V4Eg/KT8/EpGDvI+W5EBLgEHSbLvhFZeHM0DZlLsMrt5nDiE
Emru7XXg1WYjSlLh69e0aSp+v8+1yPKF/RkDYvNN2wxkzv3G4FO26OCmqqVHzlrl
gdFeyNuOrPojzlpZ2D2SwP3T/VBLfN1sD9Sh0/4Fo/XI6fK93Ha6VU3l6XFqdeWL
1MFMUxZ2NMAcgA6cIwB7tJp0W0qfjBuNWzjJbJAXxZaTBM8KLnM+q+6YUZF8lij1
YpiAY04VJbuYEudqNb0psQwk5W/71XLgveks7of8UIYDxcLr7g9z4ml5OWA/8MtG
IZcKLcFvoVRfVg3s9NwBLp0w17xeXpujydv5NOrvuUdgmI4qaen1vuGBnHp6YJq1
V9Ic4Jsk/4P6BfYm12MsHbD30uKo7RNVYuD8IsItvqZyi+naLbCOdlF/m66AgEBH
rTZdSakXfjnVaUOy+KgytUcJZ+GhJGuL9PnwhRYc34gzNe6rUEeZrlqy
-----END CERTIFICATE-----
