Certificate:
    Data:
        Version: 3 (0x2)
        Serial Number: 867 (0x363)
    Signature Algorithm: sha1WithRSAEncryption
        Issuer: C=US, ST=CA, L=SanFrancisco, O=Pixglo, Inc., OU=VPN-CIE, CN=tunnel.pixglo.com/name=Bala Chandrasekaran/emailAddress=bala@pixglo.com
        Validity
            Not Before: Feb 14 06:46:11 2018 GMT
            Not After : Feb 12 06:46:11 2028 GMT
        Subject: C=US, ST=CA, L=SanFrancisco, O=Pixglo, Inc., OU=VPN-CIE, CN=cie866/name=Bala Chandrasekaran/emailAddress=bala@pixglo.com
        Subject Public Key Info:
            Public Key Algorithm: rsaEncryption
                Public-Key: (4096 bit)
                Modulus:
                    00:c1:d1:90:0e:74:07:65:60:4f:5b:2d:4a:6f:f8:
                    3c:bb:31:c6:c4:38:96:f3:d9:6a:72:1d:de:3c:c9:
                    e9:7e:8e:93:fa:49:97:44:49:2b:55:07:65:05:00:
                    bb:26:14:d6:de:9f:45:e2:96:6c:9d:31:b1:ec:3a:
                    6e:aa:46:79:fb:17:97:91:7a:45:89:75:00:f7:cf:
                    33:ec:07:5e:90:dd:a9:a7:4a:b9:30:aa:6b:ef:94:
                    2d:c9:0b:5b:09:73:16:bf:2e:6e:87:94:4c:5c:a6:
                    ce:e8:e5:af:f1:6d:98:8f:4e:c3:aa:01:92:c4:5f:
                    9e:ad:35:7f:97:7d:42:32:6d:ce:94:07:08:a6:16:
                    70:90:01:ed:3a:29:e1:4c:4a:3a:c7:34:57:21:d6:
                    2d:ad:ee:33:8a:3b:ba:0d:11:63:01:3e:76:2d:16:
                    b6:ed:e6:76:d1:85:83:d3:2f:4c:3e:cd:84:91:b1:
                    fb:76:2c:4d:88:f4:c2:2d:d6:e3:30:be:e1:63:dd:
                    2f:b8:b3:98:84:10:1f:eb:6b:57:c3:00:1f:e4:9a:
                    7c:42:d4:1b:f9:d3:ed:da:07:05:8c:c7:7c:98:3e:
                    e3:be:1a:20:bd:dd:db:82:21:f2:7d:7d:89:5d:78:
                    8d:77:a6:a5:0c:41:20:9a:af:d5:eb:75:b2:16:3a:
                    d5:9c:e6:d8:9e:fc:ba:66:f9:4a:32:27:4d:5d:ea:
                    15:8a:e7:39:ca:c6:49:08:5d:6c:a8:d2:5e:5e:1f:
                    18:87:6f:c3:6e:90:9b:68:44:7f:81:08:a7:4b:43:
                    73:b1:1a:20:4b:3c:2b:93:0c:cd:bc:c6:37:1b:6c:
                    2f:17:d3:b7:f6:55:0d:f1:a6:c2:76:3c:8a:0e:93:
                    76:44:79:29:45:15:74:dc:a6:a5:75:21:17:ac:74:
                    65:d3:de:24:19:a0:9d:cc:b8:62:b1:98:19:f9:13:
                    36:88:3c:5f:2e:16:e3:94:d5:48:0d:82:d7:05:30:
                    43:aa:3e:8c:c7:46:b9:97:53:43:73:9d:94:3d:b4:
                    73:be:0f:76:f9:d3:c6:4c:aa:48:68:4f:c6:ff:38:
                    1f:2c:26:d0:43:b5:fe:78:0b:74:43:e8:d2:cf:ea:
                    5a:a8:c7:e1:d4:92:56:a3:cd:5a:8e:79:0f:24:17:
                    68:fc:51:9f:ea:9a:81:31:ae:17:90:83:be:4a:3a:
                    89:cb:f3:93:da:a0:a3:ba:2c:21:05:3f:e0:0d:c0:
                    be:43:39:c2:f7:ab:a6:15:33:5a:8e:66:24:1a:6a:
                    b7:38:d2:51:b7:03:a4:24:53:b6:73:39:2d:da:50:
                    6e:31:24:9e:74:2e:90:25:72:10:9e:ae:11:58:3c:
                    c2:af:f7
                Exponent: 65537 (0x10001)
        X509v3 extensions:
            X509v3 Basic Constraints: 
                CA:FALSE
            Netscape Comment: 
                Easy-RSA Generated Certificate
            X509v3 Subject Key Identifier: 
                57:11:AD:FC:86:7F:73:28:8C:AC:39:37:44:7A:56:44:93:4C:8E:99
            X509v3 Authority Key Identifier: 
                keyid:EF:38:8D:14:50:58:A7:5B:4D:9C:17:72:FC:DF:B9:AC:A7:51:B0:10
                DirName:/C=US/ST=CA/L=SanFrancisco/O=Pixglo, Inc./OU=VPN-CIE/CN=tunnel.pixglo.com/name=Bala Chandrasekaran/emailAddress=bala@pixglo.com
                serial:A6:DB:C6:83:80:E6:A0:79

            X509v3 Extended Key Usage: 
                TLS Web Client Authentication
            X509v3 Key Usage: 
                Digital Signature
    Signature Algorithm: sha1WithRSAEncryption
         16:5a:f7:ea:1e:ff:09:66:45:de:87:7b:88:9a:f3:8c:4b:99:
         26:09:01:3c:36:0f:bd:db:8e:24:a4:ad:cf:60:cb:55:0f:2b:
         d6:52:e1:0f:48:36:95:5e:d9:42:54:77:98:c8:c3:6f:73:d0:
         7d:e9:64:de:f7:fe:04:99:41:c5:17:6c:7f:6c:da:59:28:c3:
         89:a4:82:93:f1:df:c9:74:dc:d2:cb:8a:74:5c:43:5b:c0:60:
         78:46:3a:a4:1a:db:14:9b:56:66:ee:7e:74:1a:78:d9:85:47:
         2c:dd:a0:15:8d:8a:db:3f:21:60:cd:53:32:72:83:f4:7c:d3:
         b7:35:83:ed:e8:ca:ea:30:b6:fa:69:4d:c7:32:9a:18:b8:ef:
         ea:87:a8:68:53:4e:64:91:86:5d:1a:e1:25:cc:c7:c1:aa:b2:
         23:b3:3b:66:46:0d:21:8a:4e:81:50:f8:92:4d:4f:12:af:72:
         4c:e6:1a:32:b2:d8:20:2c:30:ab:93:b1:30:b8:2e:66:d4:b5:
         c9:7f:51:fb:69:a7:85:77:96:7a:32:d0:4b:21:cb:4e:d9:49:
         68:ed:71:4c:d1:93:cc:c6:25:a4:2b:08:1d:d6:fe:4d:c7:9b:
         89:67:76:3a:50:38:0d:7a:4b:e0:6b:22:d2:65:67:5a:68:02:
         c8:22:b8:6c:59:f0:29:48:b7:c1:bf:24:4b:9a:09:27:e1:db:
         1b:bf:63:7e:c5:ea:2b:89:93:43:1f:0c:15:ec:e3:7f:d9:94:
         55:98:91:20:5a:b1:61:51:dd:3a:a4:3e:07:7c:e9:57:b3:f8:
         37:56:19:b6:52:9e:5d:6e:51:99:64:b0:fa:84:13:17:a1:a6:
         9e:f6:27:c0:dd:cb:47:00:c9:fd:42:bf:4e:64:66:65:30:14:
         2a:68:20:9e:63:6b:f4:43:21:23:8d:36:0f:10:cb:e8:f0:9b:
         69:88:24:11:0b:17:80:c3:b8:56:69:ee:e8:e7:77:71:90:0d:
         4c:e0:8d:de:98:7e:c6:6c:2a:c0:e4:f3:2d:a6:f3:ec:e0:92:
         9e:62:28:5a:95:0f:7c:94:cd:6e:4a:d3:8e:22:c3:b3:5b:10:
         cc:fc:2d:e2:4d:5e:17:d2:41:d1:03:c2:f6:f6:91:44:81:a9:
         2d:8c:63:23:53:a0:6c:8c:d5:02:52:31:14:2e:9d:4f:42:1f:
         87:99:f0:99:88:42:4a:cb:e4:26:75:04:8a:ba:40:cf:3e:cb:
         9e:b8:1f:fc:fc:e5:8f:ac:a1:de:d7:29:b2:35:db:ba:fd:85:
         e4:bc:c0:bd:55:15:93:1c:69:a0:a9:02:14:e7:7b:19:47:14:
         61:49:a7:46:cf:ca:ba:88
-----BEGIN CERTIFICATE-----
MIIHSDCCBTCgAwIBAgICA2MwDQYJKoZIhvcNAQEFBQAwgbQxCzAJBgNVBAYTAlVT
MQswCQYDVQQIEwJDQTEVMBMGA1UEBxMMU2FuRnJhbmNpc2NvMRUwEwYDVQQKEwxQ
aXhnbG8sIEluYy4xEDAOBgNVBAsTB1ZQTi1DSUUxGjAYBgNVBAMTEXR1bm5lbC5w
aXhnbG8uY29tMRwwGgYDVQQpExNCYWxhIENoYW5kcmFzZWthcmFuMR4wHAYJKoZI
hvcNAQkBFg9iYWxhQHBpeGdsby5jb20wHhcNMTgwMjE0MDY0NjExWhcNMjgwMjEy
MDY0NjExWjCBqTELMAkGA1UEBhMCVVMxCzAJBgNVBAgTAkNBMRUwEwYDVQQHEwxT
YW5GcmFuY2lzY28xFTATBgNVBAoTDFBpeGdsbywgSW5jLjEQMA4GA1UECxMHVlBO
LUNJRTEPMA0GA1UEAxMGY2llODY2MRwwGgYDVQQpExNCYWxhIENoYW5kcmFzZWth
cmFuMR4wHAYJKoZIhvcNAQkBFg9iYWxhQHBpeGdsby5jb20wggIiMA0GCSqGSIb3
DQEBAQUAA4ICDwAwggIKAoICAQDB0ZAOdAdlYE9bLUpv+Dy7McbEOJbz2WpyHd48
yel+jpP6SZdESStVB2UFALsmFNben0XilmydMbHsOm6qRnn7F5eRekWJdQD3zzPs
B16Q3amnSrkwqmvvlC3JC1sJcxa/Lm6HlExcps7o5a/xbZiPTsOqAZLEX56tNX+X
fUIybc6UBwimFnCQAe06KeFMSjrHNFch1i2t7jOKO7oNEWMBPnYtFrbt5nbRhYPT
L0w+zYSRsft2LE2I9MIt1uMwvuFj3S+4s5iEEB/ra1fDAB/kmnxC1Bv50+3aBwWM
x3yYPuO+GiC93duCIfJ9fYldeI13pqUMQSCar9XrdbIWOtWc5tie/Lpm+UoyJ01d
6hWK5znKxkkIXWyo0l5eHxiHb8NukJtoRH+BCKdLQ3OxGiBLPCuTDM28xjcbbC8X
07f2VQ3xpsJ2PIoOk3ZEeSlFFXTcpqV1IResdGXT3iQZoJ3MuGKxmBn5EzaIPF8u
FuOU1UgNgtcFMEOqPozHRrmXU0NznZQ9tHO+D3b508ZMqkhoT8b/OB8sJtBDtf54
C3RD6NLP6lqox+HUklajzVqOeQ8kF2j8UZ/qmoExrheQg75KOonL85PaoKO6LCEF
P+ANwL5DOcL3q6YVM1qOZiQaarc40lG3A6QkU7ZzOS3aUG4xJJ50LpAlchCerhFY
PMKv9wIDAQABo4IBazCCAWcwCQYDVR0TBAIwADAtBglghkgBhvhCAQ0EIBYeRWFz
eS1SU0EgR2VuZXJhdGVkIENlcnRpZmljYXRlMB0GA1UdDgQWBBRXEa38hn9zKIys
OTdEelZEk0yOmTCB6QYDVR0jBIHhMIHegBTvOI0UUFinW02cF3L837msp1GwEKGB
uqSBtzCBtDELMAkGA1UEBhMCVVMxCzAJBgNVBAgTAkNBMRUwEwYDVQQHEwxTYW5G
cmFuY2lzY28xFTATBgNVBAoTDFBpeGdsbywgSW5jLjEQMA4GA1UECxMHVlBOLUNJ
RTEaMBgGA1UEAxMRdHVubmVsLnBpeGdsby5jb20xHDAaBgNVBCkTE0JhbGEgQ2hh
bmRyYXNla2FyYW4xHjAcBgkqhkiG9w0BCQEWD2JhbGFAcGl4Z2xvLmNvbYIJAKbb
xoOA5qB5MBMGA1UdJQQMMAoGCCsGAQUFBwMCMAsGA1UdDwQEAwIHgDANBgkqhkiG
9w0BAQUFAAOCAgEAFlr36h7/CWZF3od7iJrzjEuZJgkBPDYPvduOJKStz2DLVQ8r
1lLhD0g2lV7ZQlR3mMjDb3PQfelk3vf+BJlBxRdsf2zaWSjDiaSCk/HfyXTc0suK
dFxDW8BgeEY6pBrbFJtWZu5+dBp42YVHLN2gFY2K2z8hYM1TMnKD9HzTtzWD7ejK
6jC2+mlNxzKaGLjv6oeoaFNOZJGGXRrhJczHwaqyI7M7ZkYNIYpOgVD4kk1PEq9y
TOYaMrLYICwwq5OxMLguZtS1yX9R+2mnhXeWejLQSyHLTtlJaO1xTNGTzMYlpCsI
Hdb+TcebiWd2OlA4DXpL4Gsi0mVnWmgCyCK4bFnwKUi3wb8kS5oJJ+HbG79jfsXq
K4mTQx8MFezjf9mUVZiRIFqxYVHdOqQ+B3zpV7P4N1YZtlKeXW5RmWSw+oQTF6Gm
nvYnwN3LRwDJ/UK/TmRmZTAUKmggnmNr9EMhI402DxDL6PCbaYgkEQsXgMO4Vmnu
6Od3cZANTOCN3ph+xmwqwOTzLabz7OCSnmIoWpUPfJTNbkrTjiLDs1sQzPwt4k1e
F9JB0QPC9vaRRIGpLYxjI1OgbIzVAlIxFC6dT0Ifh5nwmYhCSsvkJnUEirpAzz7L
nrgf/Pzlj6yh3tcpsjXbuv2F5LzAvVUVkxxpoKkCFOd7GUcUYUmnRs/Kuog=
-----END CERTIFICATE-----
