Certificate:
    Data:
        Version: 3 (0x2)
        Serial Number: 81 (0x51)
    Signature Algorithm: sha1WithRSAEncryption
        Issuer: C=US, ST=CA, L=SanFrancisco, O=Pixglo, Inc., OU=VPN-CIE, CN=tunnel.pixglo.com/name=Bala Chandrasekaran/emailAddress=bala@pixglo.com
        Validity
            Not Before: Feb 14 06:25:19 2018 GMT
            Not After : Feb 12 06:25:19 2028 GMT
        Subject: C=US, ST=CA, L=SanFrancisco, O=Pixglo, Inc., OU=VPN-CIE, CN=cie80/name=Bala Chandrasekaran/emailAddress=bala@pixglo.com
        Subject Public Key Info:
            Public Key Algorithm: rsaEncryption
                Public-Key: (4096 bit)
                Modulus:
                    00:c3:d1:6f:7c:bb:1e:b7:40:67:3c:fe:0a:35:ed:
                    db:73:03:b2:e6:00:53:fd:c9:ad:6e:00:7c:e3:08:
                    1c:97:8c:52:a0:2f:55:8d:57:e8:9e:98:5e:a3:89:
                    92:5a:06:15:9b:e3:e9:0d:cc:ce:bb:b8:92:f6:19:
                    be:2c:e5:e1:ae:32:3a:c0:9e:ca:ad:7f:bc:05:b1:
                    0f:14:f9:d6:dc:d0:79:29:87:2c:e0:b7:2f:77:16:
                    d1:9f:16:35:33:af:56:98:f3:71:cc:4e:78:64:f6:
                    6c:ea:3a:9a:a8:7b:48:cf:23:f5:d0:52:06:bf:79:
                    dd:a0:c8:ec:7f:71:64:35:19:ec:88:0e:89:54:d2:
                    a1:f1:cd:e5:63:0c:09:3a:7d:59:8a:9e:94:55:39:
                    fd:60:11:5d:a0:52:bc:aa:4a:32:54:70:a4:26:29:
                    59:00:38:72:07:8a:9c:97:92:f1:d3:d4:a1:af:5b:
                    08:d2:ec:73:73:dc:ef:0c:9c:5e:dc:3f:9f:21:9f:
                    07:1c:ba:c5:f9:c2:f1:40:a4:eb:66:6c:70:00:ec:
                    76:ae:5b:62:6d:f0:0b:a5:74:68:0d:56:8f:b1:bb:
                    09:71:20:38:be:fd:38:be:b8:3d:72:e9:bb:a7:49:
                    81:b7:52:00:7e:63:b3:da:c5:ad:74:ff:5d:92:70:
                    83:14:9b:4b:64:27:2f:96:29:d3:a2:07:bf:59:2e:
                    6c:71:0d:32:a4:77:24:8b:6c:98:ea:ac:31:a8:e5:
                    92:5a:4d:26:d2:f4:5e:b6:49:2d:a9:31:7f:a9:d2:
                    24:88:91:af:80:8f:6d:0a:05:ca:9b:c5:da:63:52:
                    00:70:42:2a:36:d7:c2:c6:f9:94:9d:be:ad:54:57:
                    77:ca:ab:90:ec:9e:01:13:23:46:37:91:81:30:0e:
                    91:e9:05:7c:95:8f:8c:90:cd:e1:ce:08:0d:fb:10:
                    ea:d2:c6:2a:a3:ea:d2:2e:c6:61:4c:ff:15:4a:1a:
                    93:a3:bf:96:99:e0:98:04:3c:b9:80:d2:5c:f7:fc:
                    03:f7:d3:37:93:7a:4b:dd:22:cc:b9:f5:5a:d2:77:
                    50:ff:93:a1:72:db:89:fd:cf:67:e4:dc:d0:45:ae:
                    c0:c8:50:11:a1:a8:c9:46:80:28:79:78:fa:b7:8c:
                    50:e6:e6:61:df:0d:80:1d:81:c8:11:20:59:1d:f2:
                    d6:9f:03:22:1b:9a:49:ef:51:87:e5:e6:ac:bc:91:
                    61:84:b9:00:8f:c9:30:7e:f6:de:e6:07:46:c9:0c:
                    46:4b:bc:da:b1:d7:6c:c8:b2:3a:d7:17:7b:67:6a:
                    be:de:44:c8:c6:96:85:74:33:02:ba:35:12:0a:b8:
                    9f:f0:33
                Exponent: 65537 (0x10001)
        X509v3 extensions:
            X509v3 Basic Constraints: 
                CA:FALSE
            Netscape Comment: 
                Easy-RSA Generated Certificate
            X509v3 Subject Key Identifier: 
                77:AA:D9:78:C7:FF:AC:E8:7E:17:F9:4F:19:2E:59:BB:AC:B1:F1:43
            X509v3 Authority Key Identifier: 
                keyid:EF:38:8D:14:50:58:A7:5B:4D:9C:17:72:FC:DF:B9:AC:A7:51:B0:10
                DirName:/C=US/ST=CA/L=SanFrancisco/O=Pixglo, Inc./OU=VPN-CIE/CN=tunnel.pixglo.com/name=Bala Chandrasekaran/emailAddress=bala@pixglo.com
                serial:A6:DB:C6:83:80:E6:A0:79

            X509v3 Extended Key Usage: 
                TLS Web Client Authentication
            X509v3 Key Usage: 
                Digital Signature
    Signature Algorithm: sha1WithRSAEncryption
         46:4a:07:ca:9a:13:8e:82:14:82:3b:82:43:d8:78:1e:b7:2f:
         c4:03:42:54:65:65:df:0b:e3:dd:f6:cb:fc:67:43:94:e4:48:
         b6:9f:58:b8:51:fa:2c:95:a7:79:0b:b1:c6:1b:3d:88:7f:7c:
         1c:d5:04:04:7a:36:5d:ed:98:84:bc:e6:4e:e3:fb:21:4e:58:
         d6:ec:98:0c:f1:3c:8a:04:de:e2:5f:09:72:c1:2a:8c:8a:a3:
         44:b7:ea:49:5b:d8:97:8c:cf:08:11:4d:fe:4a:d6:e6:1b:c3:
         ba:6b:a4:b2:27:a6:45:3f:cd:5b:2e:88:6e:8d:76:6d:fb:6f:
         79:aa:92:99:f3:11:fc:49:4f:2e:38:f4:6b:91:e5:18:3c:2b:
         20:a4:e0:bb:2b:81:84:ef:34:e3:e4:91:9b:49:ba:bb:2a:0e:
         76:a5:dc:58:d0:41:a4:e9:1c:b6:2c:31:2f:b8:f6:d0:45:e7:
         bf:f2:e4:27:55:48:e2:5e:95:ad:97:c6:11:4f:c9:94:5a:51:
         b1:2d:26:ea:80:0e:3f:46:1a:5a:4b:bc:b1:81:80:68:a9:13:
         cf:ee:96:07:58:1e:69:58:3b:d5:24:71:57:f1:79:40:8a:dd:
         24:32:e1:b0:94:9b:53:1b:60:90:62:41:b3:3c:7a:ed:50:63:
         1a:5b:23:6a:1c:25:07:15:8b:34:d7:49:79:c6:0c:c0:3d:6f:
         3d:bd:2b:72:8a:75:33:e4:5a:46:3a:37:fe:bc:d7:75:7d:11:
         23:63:89:3f:5a:ae:ae:16:c7:e5:b9:8a:02:53:35:93:3e:f5:
         f0:b6:59:e0:b6:e0:2a:25:95:dd:da:2b:3d:df:14:80:f9:95:
         98:75:2d:ef:38:23:6b:9f:79:92:95:fb:5e:6c:68:9a:50:2f:
         7d:cb:9d:41:3c:cc:56:71:3a:2d:95:b4:97:f5:f6:90:a2:5e:
         4e:a6:da:09:2f:d9:20:55:49:87:26:4c:56:15:b8:de:d9:33:
         00:29:0c:33:23:b4:a4:b8:ac:16:a9:ae:8e:93:23:4a:c0:40:
         af:36:5e:bd:5b:76:57:67:84:4c:4d:cc:6b:8f:51:02:d6:72:
         b8:d9:14:06:9b:77:d2:ee:73:9e:20:2e:c8:0b:50:38:7e:47:
         ad:93:c6:05:75:f8:1d:f7:96:21:51:1a:83:08:30:87:0c:b3:
         1f:be:f0:fb:44:9f:95:e7:7e:41:ed:1c:98:3c:d1:71:a8:07:
         14:aa:44:b2:c6:e5:ea:d4:73:9b:93:02:ba:08:8c:da:1d:43:
         ec:e8:05:ee:63:50:b7:49:38:33:84:e2:5f:9d:6e:22:ab:ad:
         36:f1:ef:a6:df:19:fd:a9
-----BEGIN CERTIFICATE-----
MIIHRjCCBS6gAwIBAgIBUTANBgkqhkiG9w0BAQUFADCBtDELMAkGA1UEBhMCVVMx
CzAJBgNVBAgTAkNBMRUwEwYDVQQHEwxTYW5GcmFuY2lzY28xFTATBgNVBAoTDFBp
eGdsbywgSW5jLjEQMA4GA1UECxMHVlBOLUNJRTEaMBgGA1UEAxMRdHVubmVsLnBp
eGdsby5jb20xHDAaBgNVBCkTE0JhbGEgQ2hhbmRyYXNla2FyYW4xHjAcBgkqhkiG
9w0BCQEWD2JhbGFAcGl4Z2xvLmNvbTAeFw0xODAyMTQwNjI1MTlaFw0yODAyMTIw
NjI1MTlaMIGoMQswCQYDVQQGEwJVUzELMAkGA1UECBMCQ0ExFTATBgNVBAcTDFNh
bkZyYW5jaXNjbzEVMBMGA1UEChMMUGl4Z2xvLCBJbmMuMRAwDgYDVQQLEwdWUE4t
Q0lFMQ4wDAYDVQQDEwVjaWU4MDEcMBoGA1UEKRMTQmFsYSBDaGFuZHJhc2VrYXJh
bjEeMBwGCSqGSIb3DQEJARYPYmFsYUBwaXhnbG8uY29tMIICIjANBgkqhkiG9w0B
AQEFAAOCAg8AMIICCgKCAgEAw9FvfLset0BnPP4KNe3bcwOy5gBT/cmtbgB84wgc
l4xSoC9VjVfonpheo4mSWgYVm+PpDczOu7iS9hm+LOXhrjI6wJ7KrX+8BbEPFPnW
3NB5KYcs4LcvdxbRnxY1M69WmPNxzE54ZPZs6jqaqHtIzyP10FIGv3ndoMjsf3Fk
NRnsiA6JVNKh8c3lYwwJOn1Zip6UVTn9YBFdoFK8qkoyVHCkJilZADhyB4qcl5Lx
09Shr1sI0uxzc9zvDJxe3D+fIZ8HHLrF+cLxQKTrZmxwAOx2rltibfALpXRoDVaP
sbsJcSA4vv04vrg9cum7p0mBt1IAfmOz2sWtdP9dknCDFJtLZCcvlinToge/WS5s
cQ0ypHcki2yY6qwxqOWSWk0m0vRetkktqTF/qdIkiJGvgI9tCgXKm8XaY1IAcEIq
NtfCxvmUnb6tVFd3yquQ7J4BEyNGN5GBMA6R6QV8lY+MkM3hzggN+xDq0sYqo+rS
LsZhTP8VShqTo7+WmeCYBDy5gNJc9/wD99M3k3pL3SLMufVa0ndQ/5OhctuJ/c9n
5NzQRa7AyFARoajJRoAoeXj6t4xQ5uZh3w2AHYHIESBZHfLWnwMiG5pJ71GH5eas
vJFhhLkAj8kwfvbe5gdGyQxGS7zasddsyLI61xd7Z2q+3kTIxpaFdDMCujUSCrif
8DMCAwEAAaOCAWswggFnMAkGA1UdEwQCMAAwLQYJYIZIAYb4QgENBCAWHkVhc3kt
UlNBIEdlbmVyYXRlZCBDZXJ0aWZpY2F0ZTAdBgNVHQ4EFgQUd6rZeMf/rOh+F/lP
GS5Zu6yx8UMwgekGA1UdIwSB4TCB3oAU7ziNFFBYp1tNnBdy/N+5rKdRsBChgbqk
gbcwgbQxCzAJBgNVBAYTAlVTMQswCQYDVQQIEwJDQTEVMBMGA1UEBxMMU2FuRnJh
bmNpc2NvMRUwEwYDVQQKEwxQaXhnbG8sIEluYy4xEDAOBgNVBAsTB1ZQTi1DSUUx
GjAYBgNVBAMTEXR1bm5lbC5waXhnbG8uY29tMRwwGgYDVQQpExNCYWxhIENoYW5k
cmFzZWthcmFuMR4wHAYJKoZIhvcNAQkBFg9iYWxhQHBpeGdsby5jb22CCQCm28aD
gOageTATBgNVHSUEDDAKBggrBgEFBQcDAjALBgNVHQ8EBAMCB4AwDQYJKoZIhvcN
AQEFBQADggIBAEZKB8qaE46CFII7gkPYeB63L8QDQlRlZd8L4932y/xnQ5TkSLaf
WLhR+iyVp3kLscYbPYh/fBzVBAR6Nl3tmIS85k7j+yFOWNbsmAzxPIoE3uJfCXLB
KoyKo0S36klb2JeMzwgRTf5K1uYbw7prpLInpkU/zVsuiG6Ndm37b3mqkpnzEfxJ
Ty449GuR5Rg8KyCk4LsrgYTvNOPkkZtJursqDnal3FjQQaTpHLYsMS+49tBF57/y
5CdVSOJela2XxhFPyZRaUbEtJuqADj9GGlpLvLGBgGipE8/ulgdYHmlYO9UkcVfx
eUCK3SQy4bCUm1MbYJBiQbM8eu1QYxpbI2ocJQcVizTXSXnGDMA9bz29K3KKdTPk
WkY6N/6813V9ESNjiT9arq4Wx+W5igJTNZM+9fC2WeC24Colld3aKz3fFID5lZh1
Le84I2ufeZKV+15saJpQL33LnUE8zFZxOi2VtJf19pCiXk6m2gkv2SBVSYcmTFYV
uN7ZMwApDDMjtKS4rBapro6TI0rAQK82Xr1bdldnhExNzGuPUQLWcrjZFAabd9Lu
c54gLsgLUDh+R62TxgV1+B33liFRGoMIMIcMsx++8PtEn5XnfkHtHJg80XGoBxSq
RLLG5erUc5uTAroIjNodQ+zoBe5jULdJODOE4l+dbiKrrTbx76bfGf2p
-----END CERTIFICATE-----
