Certificate:
    Data:
        Version: 3 (0x2)
        Serial Number: 824 (0x338)
    Signature Algorithm: sha1WithRSAEncryption
        Issuer: C=US, ST=CA, L=SanFrancisco, O=Pixglo, Inc., OU=VPN-CIE, CN=tunnel.pixglo.com/name=Bala Chandrasekaran/emailAddress=bala@pixglo.com
        Validity
            Not Before: Feb 14 06:44:42 2018 GMT
            Not After : Feb 12 06:44:42 2028 GMT
        Subject: C=US, ST=CA, L=SanFrancisco, O=Pixglo, Inc., OU=VPN-CIE, CN=cie823/name=Bala Chandrasekaran/emailAddress=bala@pixglo.com
        Subject Public Key Info:
            Public Key Algorithm: rsaEncryption
                Public-Key: (4096 bit)
                Modulus:
                    00:be:2a:4b:f5:00:54:54:36:17:e3:b3:89:56:87:
                    c5:79:02:8f:95:3c:d6:59:99:27:f7:39:c9:e4:d6:
                    25:24:bb:b2:ff:23:fe:a5:65:d9:37:38:0e:bc:4c:
                    29:b3:93:04:70:c9:30:4b:7d:2c:86:96:cf:60:1f:
                    4c:a8:14:04:3d:8c:ba:c2:f3:e2:7a:40:9f:e2:21:
                    03:23:05:02:3b:97:85:ec:88:dc:a2:2c:37:5c:0c:
                    3b:6f:30:31:57:1c:83:8a:da:3f:f6:70:7d:6e:3d:
                    e5:ba:7d:44:b1:a5:eb:17:0a:d9:c6:07:a3:e7:2d:
                    74:93:b0:2c:bc:06:7b:18:de:ee:af:56:1e:e9:73:
                    e1:71:45:59:71:fb:8d:72:8d:14:a9:c8:b7:56:64:
                    34:86:6b:d5:ab:58:6e:82:ea:8a:33:a7:2f:d1:ea:
                    2d:a4:9a:72:25:85:12:50:43:e7:10:43:cc:b5:ab:
                    e6:66:43:a0:25:e8:dc:de:d6:b0:c1:83:8c:68:9a:
                    c1:eb:98:e1:db:50:7c:68:2e:90:9d:57:59:3c:76:
                    15:43:9b:d8:b2:aa:ca:52:29:32:43:66:5a:bb:c2:
                    6c:fb:43:c8:8c:5e:99:98:3d:97:13:58:4b:d1:2d:
                    ab:dd:72:d4:cb:2a:bc:22:37:c1:d7:f3:c6:78:c4:
                    c9:b0:79:a4:53:54:9a:f9:a4:91:91:ee:b3:d1:a0:
                    56:c4:b7:b7:07:41:1e:69:65:9e:d9:64:7f:17:b2:
                    2d:e7:11:e1:7a:08:03:6d:bf:19:22:c6:a1:20:f9:
                    f2:4a:da:83:4e:9e:a3:23:a1:d7:b8:db:20:08:10:
                    56:12:d9:02:73:4b:31:c3:c4:5d:4f:64:11:fc:43:
                    21:ae:68:e7:41:c7:db:aa:fc:8e:b8:0a:cb:12:eb:
                    69:bd:f4:25:a3:8f:a9:86:69:37:8c:46:06:1b:9a:
                    65:62:e6:90:81:10:2b:cb:b1:dc:98:c8:05:33:01:
                    14:5d:8a:e9:15:d8:e8:27:71:55:53:3c:e8:fb:23:
                    24:d2:80:0c:00:e7:99:d0:e7:e8:4e:7e:54:67:43:
                    9b:0f:ee:6f:a3:f0:d3:d7:32:53:97:82:30:d7:8b:
                    12:8e:1c:78:76:8a:f9:3c:6b:ca:ab:2b:53:e4:64:
                    58:f8:ae:4f:a8:c0:bf:94:41:c3:92:49:90:ac:a8:
                    41:a7:36:2b:98:77:43:43:eb:39:bd:3f:8c:5c:a1:
                    38:72:62:57:eb:28:51:e6:03:8f:1a:ea:e0:62:46:
                    2b:20:67:16:c7:89:27:30:29:2d:e1:f0:03:28:91:
                    3a:96:2c:10:8b:12:73:04:ba:0e:a7:33:3c:d8:63:
                    3e:08:0b
                Exponent: 65537 (0x10001)
        X509v3 extensions:
            X509v3 Basic Constraints: 
                CA:FALSE
            Netscape Comment: 
                Easy-RSA Generated Certificate
            X509v3 Subject Key Identifier: 
                7F:0B:A2:E0:FB:AE:5A:33:97:96:07:57:6F:D0:28:05:EE:90:3F:2E
            X509v3 Authority Key Identifier: 
                keyid:EF:38:8D:14:50:58:A7:5B:4D:9C:17:72:FC:DF:B9:AC:A7:51:B0:10
                DirName:/C=US/ST=CA/L=SanFrancisco/O=Pixglo, Inc./OU=VPN-CIE/CN=tunnel.pixglo.com/name=Bala Chandrasekaran/emailAddress=bala@pixglo.com
                serial:A6:DB:C6:83:80:E6:A0:79

            X509v3 Extended Key Usage: 
                TLS Web Client Authentication
            X509v3 Key Usage: 
                Digital Signature
    Signature Algorithm: sha1WithRSAEncryption
         61:79:ac:35:fd:5b:72:ac:b5:31:f1:e7:62:0d:bf:a7:a5:66:
         71:91:15:94:a6:77:b1:9a:cd:7d:7b:e5:d4:a9:3b:e5:af:33:
         75:e0:4e:0c:02:66:5b:66:03:cf:e3:e8:37:ab:26:79:79:11:
         ef:8c:7e:f3:62:14:7e:91:b6:19:95:0e:b7:a3:1c:20:90:23:
         7e:00:76:d0:5e:03:32:99:99:d9:1d:85:96:3e:11:c1:c4:ec:
         ff:60:e6:0c:4b:dd:19:73:86:d5:30:4b:8f:ca:fa:9b:82:d2:
         5c:3e:10:6c:38:a0:f2:03:37:98:fc:99:e3:ad:6d:7f:0c:fe:
         14:37:06:1f:a2:ad:bf:68:eb:a2:3a:77:f7:3d:4a:6c:83:75:
         19:af:08:28:4e:39:8a:cd:38:9e:96:0e:90:34:bf:99:42:86:
         6a:55:9f:45:aa:ef:7a:af:7b:a6:5b:00:cd:2f:f9:23:f3:54:
         e3:c6:45:07:51:53:ac:5e:c9:c5:ff:17:72:ce:da:41:81:6d:
         bc:3b:42:e7:32:2d:d1:9d:6b:2b:79:b4:18:08:97:db:64:42:
         70:ea:7d:bd:a3:58:e8:24:b1:9a:6b:44:28:ef:a4:72:74:7c:
         25:60:70:ce:b5:00:c4:70:ac:04:59:52:07:dc:8d:69:15:82:
         a1:ba:54:e5:73:4d:dc:0c:9e:76:8d:78:49:88:f3:2f:80:8a:
         13:e7:6b:1c:04:c0:e8:06:b5:16:ec:08:b1:83:ac:67:e9:93:
         89:2e:80:d0:21:ff:27:33:3f:31:15:0c:53:d6:99:e9:3e:3e:
         36:b0:f5:7b:ae:15:22:27:58:7d:b9:90:c2:4c:b6:a6:c7:72:
         10:66:bc:86:7b:a5:ec:05:99:17:e3:95:f1:bb:e4:4c:7e:cc:
         a5:67:32:43:37:48:c2:0a:36:d3:c9:7b:ac:0e:5b:61:e8:9e:
         cf:b6:b1:bd:d6:24:89:cf:ba:7d:02:1f:19:c3:37:05:fe:63:
         89:48:0c:f0:4b:00:ab:8a:57:03:83:90:4c:cb:8d:45:76:86:
         16:32:dd:74:d2:5b:a4:a9:08:da:9d:bc:11:b2:d8:bf:9b:22:
         d2:3d:98:32:39:60:e8:f9:99:3f:59:80:14:04:b4:f6:3b:7b:
         5c:74:81:db:d5:13:eb:f2:5e:ec:8a:9a:3f:41:70:de:2d:a3:
         1b:ff:19:60:40:59:71:61:f4:17:3d:64:56:79:a8:68:0a:aa:
         31:b0:85:ce:ac:ef:32:84:27:fb:f9:f8:41:19:42:05:2d:ce:
         f5:0b:52:dc:b0:7d:e8:0a:fd:bd:ae:f3:52:10:4f:ec:04:eb:
         75:a6:0a:be:a0:84:f2:a5
-----BEGIN CERTIFICATE-----
MIIHSDCCBTCgAwIBAgICAzgwDQYJKoZIhvcNAQEFBQAwgbQxCzAJBgNVBAYTAlVT
MQswCQYDVQQIEwJDQTEVMBMGA1UEBxMMU2FuRnJhbmNpc2NvMRUwEwYDVQQKEwxQ
aXhnbG8sIEluYy4xEDAOBgNVBAsTB1ZQTi1DSUUxGjAYBgNVBAMTEXR1bm5lbC5w
aXhnbG8uY29tMRwwGgYDVQQpExNCYWxhIENoYW5kcmFzZWthcmFuMR4wHAYJKoZI
hvcNAQkBFg9iYWxhQHBpeGdsby5jb20wHhcNMTgwMjE0MDY0NDQyWhcNMjgwMjEy
MDY0NDQyWjCBqTELMAkGA1UEBhMCVVMxCzAJBgNVBAgTAkNBMRUwEwYDVQQHEwxT
YW5GcmFuY2lzY28xFTATBgNVBAoTDFBpeGdsbywgSW5jLjEQMA4GA1UECxMHVlBO
LUNJRTEPMA0GA1UEAxMGY2llODIzMRwwGgYDVQQpExNCYWxhIENoYW5kcmFzZWth
cmFuMR4wHAYJKoZIhvcNAQkBFg9iYWxhQHBpeGdsby5jb20wggIiMA0GCSqGSIb3
DQEBAQUAA4ICDwAwggIKAoICAQC+Kkv1AFRUNhfjs4lWh8V5Ao+VPNZZmSf3Ocnk
1iUku7L/I/6lZdk3OA68TCmzkwRwyTBLfSyGls9gH0yoFAQ9jLrC8+J6QJ/iIQMj
BQI7l4XsiNyiLDdcDDtvMDFXHIOK2j/2cH1uPeW6fUSxpesXCtnGB6PnLXSTsCy8
BnsY3u6vVh7pc+FxRVlx+41yjRSpyLdWZDSGa9WrWG6C6oozpy/R6i2kmnIlhRJQ
Q+cQQ8y1q+ZmQ6Al6Nze1rDBg4xomsHrmOHbUHxoLpCdV1k8dhVDm9iyqspSKTJD
Zlq7wmz7Q8iMXpmYPZcTWEvRLavdctTLKrwiN8HX88Z4xMmweaRTVJr5pJGR7rPR
oFbEt7cHQR5pZZ7ZZH8Xsi3nEeF6CANtvxkixqEg+fJK2oNOnqMjode42yAIEFYS
2QJzSzHDxF1PZBH8QyGuaOdBx9uq/I64CssS62m99CWjj6mGaTeMRgYbmmVi5pCB
ECvLsdyYyAUzARRdiukV2OgncVVTPOj7IyTSgAwA55nQ5+hOflRnQ5sP7m+j8NPX
MlOXgjDXixKOHHh2ivk8a8qrK1PkZFj4rk+owL+UQcOSSZCsqEGnNiuYd0ND6zm9
P4xcoThyYlfrKFHmA48a6uBiRisgZxbHiScwKS3h8AMokTqWLBCLEnMEug6nMzzY
Yz4ICwIDAQABo4IBazCCAWcwCQYDVR0TBAIwADAtBglghkgBhvhCAQ0EIBYeRWFz
eS1SU0EgR2VuZXJhdGVkIENlcnRpZmljYXRlMB0GA1UdDgQWBBR/C6Lg+65aM5eW
B1dv0CgF7pA/LjCB6QYDVR0jBIHhMIHegBTvOI0UUFinW02cF3L837msp1GwEKGB
uqSBtzCBtDELMAkGA1UEBhMCVVMxCzAJBgNVBAgTAkNBMRUwEwYDVQQHEwxTYW5G
cmFuY2lzY28xFTATBgNVBAoTDFBpeGdsbywgSW5jLjEQMA4GA1UECxMHVlBOLUNJ
RTEaMBgGA1UEAxMRdHVubmVsLnBpeGdsby5jb20xHDAaBgNVBCkTE0JhbGEgQ2hh
bmRyYXNla2FyYW4xHjAcBgkqhkiG9w0BCQEWD2JhbGFAcGl4Z2xvLmNvbYIJAKbb
xoOA5qB5MBMGA1UdJQQMMAoGCCsGAQUFBwMCMAsGA1UdDwQEAwIHgDANBgkqhkiG
9w0BAQUFAAOCAgEAYXmsNf1bcqy1MfHnYg2/p6VmcZEVlKZ3sZrNfXvl1Kk75a8z
deBODAJmW2YDz+PoN6smeXkR74x+82IUfpG2GZUOt6McIJAjfgB20F4DMpmZ2R2F
lj4RwcTs/2DmDEvdGXOG1TBLj8r6m4LSXD4QbDig8gM3mPyZ461tfwz+FDcGH6Kt
v2jrojp39z1KbIN1Ga8IKE45is04npYOkDS/mUKGalWfRarveq97plsAzS/5I/NU
48ZFB1FTrF7Jxf8Xcs7aQYFtvDtC5zIt0Z1rK3m0GAiX22RCcOp9vaNY6CSxmmtE
KO+kcnR8JWBwzrUAxHCsBFlSB9yNaRWCobpU5XNN3Ayedo14SYjzL4CKE+drHATA
6Aa1FuwIsYOsZ+mTiS6A0CH/JzM/MRUMU9aZ6T4+NrD1e64VIidYfbmQwky2psdy
EGa8hnul7AWZF+OV8bvkTH7MpWcyQzdIwgo208l7rA5bYeiez7axvdYkic+6fQIf
GcM3Bf5jiUgM8EsAq4pXA4OQTMuNRXaGFjLddNJbpKkI2p28EbLYv5si0j2YMjlg
6PmZP1mAFAS09jt7XHSB29UT6/Je7IqaP0Fw3i2jG/8ZYEBZcWH0Fz1kVnmoaAqq
MbCFzqzvMoQn+/n4QRlCBS3O9QtS3LB96Ar9va7zUhBP7ATrdaYKvqCE8qU=
-----END CERTIFICATE-----
