Certificate:
    Data:
        Version: 3 (0x2)
        Serial Number: 895 (0x37f)
    Signature Algorithm: sha1WithRSAEncryption
        Issuer: C=US, ST=CA, L=SanFrancisco, O=Pixglo, Inc., OU=VPN-CIE, CN=tunnel.pixglo.com/name=Bala Chandrasekaran/emailAddress=bala@pixglo.com
        Validity
            Not Before: Feb 14 06:47:06 2018 GMT
            Not After : Feb 12 06:47:06 2028 GMT
        Subject: C=US, ST=CA, L=SanFrancisco, O=Pixglo, Inc., OU=VPN-CIE, CN=cie894/name=Bala Chandrasekaran/emailAddress=bala@pixglo.com
        Subject Public Key Info:
            Public Key Algorithm: rsaEncryption
                Public-Key: (4096 bit)
                Modulus:
                    00:df:6c:3b:56:76:54:f0:9e:6f:03:73:95:d0:00:
                    83:2c:fe:9c:7c:50:16:64:45:cd:9b:9c:8a:3f:95:
                    d1:ce:66:bc:99:f4:a4:01:34:53:48:8a:ae:24:f3:
                    c3:87:df:84:fc:20:d0:48:15:34:58:10:f8:6a:86:
                    f8:1d:8c:e8:2d:8a:9b:a9:4b:d0:cb:30:8c:d0:c5:
                    4c:7e:8b:39:07:84:92:24:e5:c9:89:e1:41:bb:8c:
                    2c:59:c1:45:70:ad:ff:df:ac:b6:d4:08:52:36:c5:
                    ab:f0:cb:fb:5e:20:f8:65:f4:61:46:84:8d:95:0a:
                    5b:e0:e2:6c:63:a3:2d:ae:e7:d0:01:94:a5:8f:93:
                    12:ec:97:23:7c:d7:1a:85:13:19:69:b2:77:04:db:
                    c0:0d:87:50:91:f0:71:15:c6:0a:19:f5:5b:9f:a7:
                    35:0f:5b:c3:3d:51:49:73:47:7e:90:96:38:27:c4:
                    e0:5d:dc:60:14:18:80:c8:ea:23:7a:9f:9e:ad:d5:
                    13:6f:6a:a8:36:4d:19:7b:5c:ff:f4:1b:c4:af:c6:
                    c4:16:cb:c4:13:08:15:33:11:8c:8e:cb:f2:37:d1:
                    7b:66:21:b9:c2:02:e1:8c:f2:9e:b9:03:bd:8e:d7:
                    93:6b:78:81:f4:e5:80:9b:aa:c2:cc:53:06:f9:fc:
                    bf:f2:bb:f2:78:3a:78:d0:dc:32:99:05:5c:ad:e2:
                    ad:e0:38:8f:0f:e8:ee:ae:39:e4:b6:53:bb:2f:57:
                    be:c9:a9:08:44:22:fc:64:14:0e:25:85:61:f5:79:
                    b7:3c:95:86:c0:1c:b2:a0:59:a2:32:58:fa:8b:9d:
                    a3:3a:19:bf:5b:b4:8e:72:ee:f2:6a:29:b8:dd:59:
                    28:60:4e:09:0e:2e:86:79:91:4b:a6:9f:c1:fc:f0:
                    82:dc:5b:3e:8f:52:fc:32:ef:9a:9e:a8:d4:3e:9a:
                    d6:57:94:e7:4f:2d:4f:9b:dd:3b:7b:7c:6f:ee:30:
                    47:77:d6:43:77:31:7f:53:ae:b8:ca:e8:a9:6c:04:
                    24:b0:f8:d4:db:04:d4:d0:72:0b:40:84:4c:4e:47:
                    b9:b5:43:90:d5:ec:ec:af:1a:5d:2b:d7:34:a7:e5:
                    a7:c1:f1:d7:43:01:00:f4:52:6e:4e:49:70:bb:73:
                    ac:04:94:4b:11:ba:ca:b8:a2:43:ce:7f:96:e8:dd:
                    ad:97:cd:ca:0c:b5:4d:a5:f2:f6:cc:2b:d7:be:5f:
                    f6:b8:9c:37:e3:0f:b0:52:d9:9b:e1:16:7d:3a:4b:
                    73:3a:e7:6e:aa:4a:90:f8:a3:50:76:19:ed:7f:67:
                    c4:90:39:f9:4e:bd:71:e4:f8:1e:d5:09:2c:07:3c:
                    8f:e3:11
                Exponent: 65537 (0x10001)
        X509v3 extensions:
            X509v3 Basic Constraints: 
                CA:FALSE
            Netscape Comment: 
                Easy-RSA Generated Certificate
            X509v3 Subject Key Identifier: 
                18:F0:6A:16:35:63:F4:54:63:C0:74:C4:B4:4E:89:EE:75:31:5C:0B
            X509v3 Authority Key Identifier: 
                keyid:EF:38:8D:14:50:58:A7:5B:4D:9C:17:72:FC:DF:B9:AC:A7:51:B0:10
                DirName:/C=US/ST=CA/L=SanFrancisco/O=Pixglo, Inc./OU=VPN-CIE/CN=tunnel.pixglo.com/name=Bala Chandrasekaran/emailAddress=bala@pixglo.com
                serial:A6:DB:C6:83:80:E6:A0:79

            X509v3 Extended Key Usage: 
                TLS Web Client Authentication
            X509v3 Key Usage: 
                Digital Signature
    Signature Algorithm: sha1WithRSAEncryption
         9b:a7:a6:27:5a:27:c3:62:60:e5:ab:a6:63:57:22:47:c4:90:
         af:ec:c5:da:3a:3b:60:13:a2:e1:1d:ac:b3:a6:3d:9e:c6:2a:
         dc:14:4a:3e:7c:9f:9f:23:92:57:7c:7b:64:2b:41:24:6a:ee:
         74:d3:e4:6f:f4:3a:4b:81:e1:3f:09:ba:1b:9c:cc:9a:b8:95:
         69:f9:23:b1:2f:f4:de:d2:3b:10:a8:d3:b5:64:de:5d:b5:ff:
         a2:dc:26:35:01:0d:29:28:fe:ef:fe:9b:00:ea:03:d9:46:47:
         e3:55:c0:cc:e1:01:67:29:72:81:03:e2:df:14:4d:a5:5f:ef:
         04:df:f3:c9:76:ab:05:98:3c:58:c5:f9:c5:18:6a:cf:ac:36:
         e4:eb:55:3f:32:98:99:02:b6:92:3f:60:51:d3:25:fc:a4:e9:
         da:fd:00:8e:5e:7f:b2:43:6b:b5:67:a6:1f:c7:cf:65:b0:01:
         4e:d8:e2:49:37:f5:d8:9c:4f:4c:88:4b:f2:81:71:9a:4d:5e:
         5d:39:09:a3:0c:92:d3:42:60:ef:c5:f0:e0:b5:eb:69:fa:bf:
         41:80:28:44:77:98:5e:d9:19:b8:7a:f6:55:8d:cb:71:25:c2:
         56:23:4d:f0:4a:ae:8b:f0:79:33:74:23:79:78:b0:8c:bc:6f:
         08:3c:09:6d:8d:d4:cf:03:a5:bf:43:d4:e8:00:ab:16:fe:61:
         3e:82:ae:e0:ce:a3:74:f4:5c:39:5c:02:af:21:d6:7f:cb:e6:
         05:c4:5b:a7:11:00:69:a9:62:aa:c0:0c:9b:fb:e9:5d:e4:2f:
         aa:c0:1c:4a:37:14:08:21:91:50:61:13:a1:90:c9:a2:ee:17:
         5e:37:87:e5:03:47:55:5e:1b:13:e9:77:4c:a1:19:02:53:e2:
         ef:33:a8:b7:5a:c7:9d:d5:cb:4b:de:c6:81:9f:36:44:1d:db:
         4d:2a:c5:50:f8:43:8c:b3:d6:58:b9:15:5b:e3:5a:f0:04:3c:
         34:30:b0:4a:60:09:fc:08:db:57:e3:7e:e9:99:7b:e2:e0:a7:
         45:54:a4:86:ee:ea:c8:5a:2a:45:b9:83:8a:63:d2:31:b1:32:
         e0:b2:28:1d:b8:28:cd:aa:88:f1:4a:ce:ba:2c:fd:e6:75:ea:
         e6:c9:5a:46:fd:92:c4:4b:65:21:99:84:4d:e0:23:86:f3:d2:
         54:b9:b6:a2:ad:55:58:d0:6d:b1:e6:0d:f6:8c:03:dc:30:d1:
         94:08:7c:e8:45:6c:87:a0:d3:e5:4b:5a:d5:50:26:d8:9f:27:
         6d:55:6e:43:81:54:c3:1d:4b:0a:de:b9:44:f7:a2:14:f3:7e:
         ef:39:80:36:f6:bd:3e:6b
-----BEGIN CERTIFICATE-----
MIIHSDCCBTCgAwIBAgICA38wDQYJKoZIhvcNAQEFBQAwgbQxCzAJBgNVBAYTAlVT
MQswCQYDVQQIEwJDQTEVMBMGA1UEBxMMU2FuRnJhbmNpc2NvMRUwEwYDVQQKEwxQ
aXhnbG8sIEluYy4xEDAOBgNVBAsTB1ZQTi1DSUUxGjAYBgNVBAMTEXR1bm5lbC5w
aXhnbG8uY29tMRwwGgYDVQQpExNCYWxhIENoYW5kcmFzZWthcmFuMR4wHAYJKoZI
hvcNAQkBFg9iYWxhQHBpeGdsby5jb20wHhcNMTgwMjE0MDY0NzA2WhcNMjgwMjEy
MDY0NzA2WjCBqTELMAkGA1UEBhMCVVMxCzAJBgNVBAgTAkNBMRUwEwYDVQQHEwxT
YW5GcmFuY2lzY28xFTATBgNVBAoTDFBpeGdsbywgSW5jLjEQMA4GA1UECxMHVlBO
LUNJRTEPMA0GA1UEAxMGY2llODk0MRwwGgYDVQQpExNCYWxhIENoYW5kcmFzZWth
cmFuMR4wHAYJKoZIhvcNAQkBFg9iYWxhQHBpeGdsby5jb20wggIiMA0GCSqGSIb3
DQEBAQUAA4ICDwAwggIKAoICAQDfbDtWdlTwnm8Dc5XQAIMs/px8UBZkRc2bnIo/
ldHOZryZ9KQBNFNIiq4k88OH34T8INBIFTRYEPhqhvgdjOgtipupS9DLMIzQxUx+
izkHhJIk5cmJ4UG7jCxZwUVwrf/frLbUCFI2xavwy/teIPhl9GFGhI2VClvg4mxj
oy2u59ABlKWPkxLslyN81xqFExlpsncE28ANh1CR8HEVxgoZ9VufpzUPW8M9UUlz
R36QljgnxOBd3GAUGIDI6iN6n56t1RNvaqg2TRl7XP/0G8SvxsQWy8QTCBUzEYyO
y/I30XtmIbnCAuGM8p65A72O15NreIH05YCbqsLMUwb5/L/yu/J4OnjQ3DKZBVyt
4q3gOI8P6O6uOeS2U7svV77JqQhEIvxkFA4lhWH1ebc8lYbAHLKgWaIyWPqLnaM6
Gb9btI5y7vJqKbjdWShgTgkOLoZ5kUumn8H88ILcWz6PUvwy75qeqNQ+mtZXlOdP
LU+b3Tt7fG/uMEd31kN3MX9TrrjK6KlsBCSw+NTbBNTQcgtAhExOR7m1Q5DV7Oyv
Gl0r1zSn5afB8ddDAQD0Um5OSXC7c6wElEsRusq4okPOf5bo3a2XzcoMtU2l8vbM
K9e+X/a4nDfjD7BS2ZvhFn06S3M6526qSpD4o1B2Ge1/Z8SQOflOvXHk+B7VCSwH
PI/jEQIDAQABo4IBazCCAWcwCQYDVR0TBAIwADAtBglghkgBhvhCAQ0EIBYeRWFz
eS1SU0EgR2VuZXJhdGVkIENlcnRpZmljYXRlMB0GA1UdDgQWBBQY8GoWNWP0VGPA
dMS0TonudTFcCzCB6QYDVR0jBIHhMIHegBTvOI0UUFinW02cF3L837msp1GwEKGB
uqSBtzCBtDELMAkGA1UEBhMCVVMxCzAJBgNVBAgTAkNBMRUwEwYDVQQHEwxTYW5G
cmFuY2lzY28xFTATBgNVBAoTDFBpeGdsbywgSW5jLjEQMA4GA1UECxMHVlBOLUNJ
RTEaMBgGA1UEAxMRdHVubmVsLnBpeGdsby5jb20xHDAaBgNVBCkTE0JhbGEgQ2hh
bmRyYXNla2FyYW4xHjAcBgkqhkiG9w0BCQEWD2JhbGFAcGl4Z2xvLmNvbYIJAKbb
xoOA5qB5MBMGA1UdJQQMMAoGCCsGAQUFBwMCMAsGA1UdDwQEAwIHgDANBgkqhkiG
9w0BAQUFAAOCAgEAm6emJ1onw2Jg5aumY1ciR8SQr+zF2jo7YBOi4R2ss6Y9nsYq
3BRKPnyfnyOSV3x7ZCtBJGrudNPkb/Q6S4HhPwm6G5zMmriVafkjsS/03tI7EKjT
tWTeXbX/otwmNQENKSj+7/6bAOoD2UZH41XAzOEBZylygQPi3xRNpV/vBN/zyXar
BZg8WMX5xRhqz6w25OtVPzKYmQK2kj9gUdMl/KTp2v0Ajl5/skNrtWemH8fPZbAB
TtjiSTf12JxPTIhL8oFxmk1eXTkJowyS00Jg78Xw4LXrafq/QYAoRHeYXtkZuHr2
VY3LcSXCViNN8Equi/B5M3QjeXiwjLxvCDwJbY3UzwOlv0PU6ACrFv5hPoKu4M6j
dPRcOVwCryHWf8vmBcRbpxEAaaliqsAMm/vpXeQvqsAcSjcUCCGRUGEToZDJou4X
XjeH5QNHVV4bE+l3TKEZAlPi7zOot1rHndXLS97GgZ82RB3bTSrFUPhDjLPWWLkV
W+Na8AQ8NDCwSmAJ/AjbV+N+6Zl74uCnRVSkhu7qyFoqRbmDimPSMbEy4LIoHbgo
zaqI8UrOuiz95nXq5slaRv2SxEtlIZmETeAjhvPSVLm2oq1VWNBtseYN9owD3DDR
lAh86EVsh6DT5Uta1VAm2J8nbVVuQ4FUwx1LCt65RPeiFPN+7zmANva9Pms=
-----END CERTIFICATE-----
