Certificate:
    Data:
        Version: 3 (0x2)
        Serial Number: 885 (0x375)
    Signature Algorithm: sha1WithRSAEncryption
        Issuer: C=US, ST=CA, L=SanFrancisco, O=Pixglo, Inc., OU=VPN-CIE, CN=tunnel.pixglo.com/name=Bala Chandrasekaran/emailAddress=bala@pixglo.com
        Validity
            Not Before: Feb 14 06:46:45 2018 GMT
            Not After : Feb 12 06:46:45 2028 GMT
        Subject: C=US, ST=CA, L=SanFrancisco, O=Pixglo, Inc., OU=VPN-CIE, CN=cie884/name=Bala Chandrasekaran/emailAddress=bala@pixglo.com
        Subject Public Key Info:
            Public Key Algorithm: rsaEncryption
                Public-Key: (4096 bit)
                Modulus:
                    00:bc:ea:6f:d8:f9:43:9a:b2:1c:bb:ba:ea:1d:95:
                    ba:ff:41:d6:ec:a6:14:2a:f0:c6:06:4b:07:88:e0:
                    38:45:2b:21:d3:a9:57:d9:4a:c5:72:b0:80:3e:51:
                    2b:a3:f0:e9:c0:0a:2e:ba:8c:07:a8:93:bb:fc:fe:
                    8d:57:35:01:95:ed:29:7d:a1:12:93:30:7a:bf:1e:
                    e5:ae:a5:03:3a:b1:67:03:ba:08:7b:0a:98:a2:02:
                    02:4c:75:3d:5f:d3:f0:70:9a:88:33:a2:0d:c2:45:
                    86:a0:4a:42:09:af:8b:a4:55:4b:c8:81:25:dc:78:
                    5b:03:9a:d6:d5:d2:06:bf:c2:f2:69:1c:9f:30:be:
                    89:8c:1b:7e:d4:aa:af:8e:c4:d5:22:30:18:3e:81:
                    4e:c5:3c:8d:cb:ab:90:a5:c0:29:99:4c:38:ac:1c:
                    b5:43:da:13:8e:b8:c6:29:52:93:66:7f:b2:47:db:
                    23:ed:c3:7e:97:2d:36:c2:b4:8b:d8:c1:6d:71:47:
                    27:62:42:64:ff:46:63:5c:15:8a:02:b3:84:ec:8c:
                    29:ab:55:aa:20:47:d0:cd:33:f6:8e:04:2c:bb:52:
                    0d:a3:ad:fc:8a:e7:5c:43:75:8a:6c:cc:fa:e5:7a:
                    1f:28:f0:84:46:a3:5f:b1:4a:ad:55:49:e9:51:03:
                    2b:1e:b0:2b:40:3d:49:8e:4c:2c:b6:3e:38:24:21:
                    a0:8e:3d:97:23:0a:e3:3f:99:81:73:71:f5:9f:60:
                    8a:4e:d3:37:9f:f3:f0:04:5a:93:ad:f9:9f:b1:ba:
                    cb:e0:83:f3:36:4c:c7:82:f2:36:e9:9a:1e:21:a3:
                    81:55:b0:3a:ed:03:bb:e5:4e:40:47:ce:29:7e:f7:
                    54:7b:10:a7:42:fb:66:d3:e2:7e:f1:65:3f:f4:ae:
                    40:a7:07:75:00:ac:d7:87:59:41:24:b5:79:d2:d9:
                    17:5c:25:82:4d:5c:32:2a:1d:a8:5e:3d:ff:a5:4b:
                    e5:51:9c:ee:71:3a:88:61:40:c7:be:b3:33:13:b2:
                    e0:be:97:bc:61:08:e9:60:c5:24:d4:84:4d:f5:1e:
                    01:9e:7d:aa:cd:d4:2e:1d:0e:ea:8d:f1:04:b5:85:
                    ba:f7:36:12:e1:2c:3b:49:ff:de:5b:f3:19:03:c8:
                    49:5e:6c:e3:cb:8a:a4:b1:28:81:ac:da:e6:e4:46:
                    76:af:9e:05:92:11:fb:da:fd:92:a8:6e:91:57:a6:
                    d0:a1:63:cb:29:44:a0:27:eb:72:5b:8b:1f:b6:ec:
                    e3:31:4e:1e:5c:45:24:bb:c9:32:fd:c8:c3:37:9e:
                    ba:a7:21:98:08:f6:eb:dc:ee:4b:8b:dc:3c:5b:8c:
                    54:3c:97
                Exponent: 65537 (0x10001)
        X509v3 extensions:
            X509v3 Basic Constraints: 
                CA:FALSE
            Netscape Comment: 
                Easy-RSA Generated Certificate
            X509v3 Subject Key Identifier: 
                68:3A:C3:7A:EC:28:B6:5B:3E:D6:23:ED:12:D2:07:B7:04:41:97:74
            X509v3 Authority Key Identifier: 
                keyid:EF:38:8D:14:50:58:A7:5B:4D:9C:17:72:FC:DF:B9:AC:A7:51:B0:10
                DirName:/C=US/ST=CA/L=SanFrancisco/O=Pixglo, Inc./OU=VPN-CIE/CN=tunnel.pixglo.com/name=Bala Chandrasekaran/emailAddress=bala@pixglo.com
                serial:A6:DB:C6:83:80:E6:A0:79

            X509v3 Extended Key Usage: 
                TLS Web Client Authentication
            X509v3 Key Usage: 
                Digital Signature
    Signature Algorithm: sha1WithRSAEncryption
         cf:82:c6:49:d3:15:8f:0c:fd:e9:8a:44:6d:55:62:3c:41:58:
         4d:f6:b0:92:0f:dd:f8:42:e8:25:d9:99:3c:37:3f:34:ce:ec:
         dc:99:21:62:b6:98:85:8c:35:5f:1a:d2:f1:96:ea:6b:e2:17:
         5b:2a:b9:87:91:fc:36:e9:ec:ae:3a:67:57:10:93:7b:3f:be:
         dd:5c:a8:66:a3:bb:d5:1f:b5:1e:c1:7c:d0:1e:86:39:2a:c7:
         02:16:84:b4:7d:f8:02:04:15:3b:8b:7c:71:85:a0:7d:dd:ff:
         bd:6f:d2:2f:86:17:d5:f6:ab:bc:1b:36:c1:99:0a:cd:40:ae:
         2d:ae:7b:cf:74:aa:9a:d4:b2:79:11:78:b1:bf:91:3d:ad:b6:
         33:fe:af:9f:3e:9d:f5:e6:b0:06:40:24:92:5c:9d:00:8b:df:
         88:83:d2:35:ad:14:9b:1c:eb:89:a0:9e:e8:8f:cb:0b:97:c6:
         8a:b6:3d:ba:a5:9a:ea:25:88:87:6a:23:1e:17:60:42:43:8b:
         23:d7:06:87:31:97:7b:45:54:2d:3f:88:b4:d1:d4:ca:f8:7c:
         f7:b7:48:e7:e2:24:ec:bf:be:1b:92:a8:b5:fc:e6:f8:07:c5:
         da:4a:84:64:70:6e:24:92:59:80:58:b7:8c:ca:50:b0:cd:79:
         3a:ed:63:92:32:3d:33:ee:04:15:7a:6b:15:54:0e:9e:6f:e6:
         3e:58:f2:f3:ea:5c:5d:81:17:77:59:04:74:42:2d:bd:da:15:
         65:8e:9d:d6:f4:5c:96:ef:5c:6f:8d:d1:14:0c:3b:d2:07:ed:
         f2:7f:74:59:83:e0:62:16:fe:ca:55:ec:fb:6d:bb:d7:93:14:
         96:f7:1d:ca:d2:18:27:a7:92:d2:79:af:aa:ba:8a:7a:31:44:
         71:49:6a:6f:d3:ee:d0:0f:ef:53:aa:8d:16:b1:43:1f:08:32:
         6f:44:f4:80:c9:6f:83:9c:fb:9e:aa:78:10:f3:c5:51:c9:e0:
         0d:f1:4a:b2:88:29:e5:0b:70:7c:fe:a8:7a:ce:b0:db:f3:e3:
         e1:fd:a2:12:03:0a:c7:4e:7a:76:fa:32:43:ce:65:16:ba:82:
         5b:84:5c:92:7c:95:72:24:db:0a:8a:e9:12:97:30:17:b4:90:
         f2:35:d0:62:7a:7f:a5:53:db:88:23:ef:74:ff:6a:78:8d:f1:
         f7:86:35:4d:ae:d2:de:7d:59:4e:5b:1a:ab:74:82:d5:b0:45:
         40:c8:9d:33:18:d5:b3:cc:23:5b:0a:d3:6f:af:53:0f:a9:f2:
         f4:cc:24:8b:18:64:27:ef:d7:54:f6:0f:df:24:ea:0b:e7:dd:
         4c:4a:9f:a0:48:c5:3e:8f
-----BEGIN CERTIFICATE-----
MIIHSDCCBTCgAwIBAgICA3UwDQYJKoZIhvcNAQEFBQAwgbQxCzAJBgNVBAYTAlVT
MQswCQYDVQQIEwJDQTEVMBMGA1UEBxMMU2FuRnJhbmNpc2NvMRUwEwYDVQQKEwxQ
aXhnbG8sIEluYy4xEDAOBgNVBAsTB1ZQTi1DSUUxGjAYBgNVBAMTEXR1bm5lbC5w
aXhnbG8uY29tMRwwGgYDVQQpExNCYWxhIENoYW5kcmFzZWthcmFuMR4wHAYJKoZI
hvcNAQkBFg9iYWxhQHBpeGdsby5jb20wHhcNMTgwMjE0MDY0NjQ1WhcNMjgwMjEy
MDY0NjQ1WjCBqTELMAkGA1UEBhMCVVMxCzAJBgNVBAgTAkNBMRUwEwYDVQQHEwxT
YW5GcmFuY2lzY28xFTATBgNVBAoTDFBpeGdsbywgSW5jLjEQMA4GA1UECxMHVlBO
LUNJRTEPMA0GA1UEAxMGY2llODg0MRwwGgYDVQQpExNCYWxhIENoYW5kcmFzZWth
cmFuMR4wHAYJKoZIhvcNAQkBFg9iYWxhQHBpeGdsby5jb20wggIiMA0GCSqGSIb3
DQEBAQUAA4ICDwAwggIKAoICAQC86m/Y+UOashy7uuodlbr/QdbsphQq8MYGSweI
4DhFKyHTqVfZSsVysIA+USuj8OnACi66jAeok7v8/o1XNQGV7Sl9oRKTMHq/HuWu
pQM6sWcDugh7CpiiAgJMdT1f0/Bwmogzog3CRYagSkIJr4ukVUvIgSXceFsDmtbV
0ga/wvJpHJ8wvomMG37Uqq+OxNUiMBg+gU7FPI3Lq5ClwCmZTDisHLVD2hOOuMYp
UpNmf7JH2yPtw36XLTbCtIvYwW1xRydiQmT/RmNcFYoCs4TsjCmrVaogR9DNM/aO
BCy7Ug2jrfyK51xDdYpszPrleh8o8IRGo1+xSq1VSelRAysesCtAPUmOTCy2Pjgk
IaCOPZcjCuM/mYFzcfWfYIpO0zef8/AEWpOt+Z+xusvgg/M2TMeC8jbpmh4ho4FV
sDrtA7vlTkBHzil+91R7EKdC+2bT4n7xZT/0rkCnB3UArNeHWUEktXnS2RdcJYJN
XDIqHahePf+lS+VRnO5xOohhQMe+szMTsuC+l7xhCOlgxSTUhE31HgGefarN1C4d
DuqN8QS1hbr3NhLhLDtJ/95b8xkDyElebOPLiqSxKIGs2ubkRnavngWSEfva/ZKo
bpFXptChY8spRKAn63Jbix+27OMxTh5cRSS7yTL9yMM3nrqnIZgI9uvc7kuL3Dxb
jFQ8lwIDAQABo4IBazCCAWcwCQYDVR0TBAIwADAtBglghkgBhvhCAQ0EIBYeRWFz
eS1SU0EgR2VuZXJhdGVkIENlcnRpZmljYXRlMB0GA1UdDgQWBBRoOsN67Ci2Wz7W
I+0S0ge3BEGXdDCB6QYDVR0jBIHhMIHegBTvOI0UUFinW02cF3L837msp1GwEKGB
uqSBtzCBtDELMAkGA1UEBhMCVVMxCzAJBgNVBAgTAkNBMRUwEwYDVQQHEwxTYW5G
cmFuY2lzY28xFTATBgNVBAoTDFBpeGdsbywgSW5jLjEQMA4GA1UECxMHVlBOLUNJ
RTEaMBgGA1UEAxMRdHVubmVsLnBpeGdsby5jb20xHDAaBgNVBCkTE0JhbGEgQ2hh
bmRyYXNla2FyYW4xHjAcBgkqhkiG9w0BCQEWD2JhbGFAcGl4Z2xvLmNvbYIJAKbb
xoOA5qB5MBMGA1UdJQQMMAoGCCsGAQUFBwMCMAsGA1UdDwQEAwIHgDANBgkqhkiG
9w0BAQUFAAOCAgEAz4LGSdMVjwz96YpEbVViPEFYTfawkg/d+ELoJdmZPDc/NM7s
3JkhYraYhYw1XxrS8Zbqa+IXWyq5h5H8NunsrjpnVxCTez++3VyoZqO71R+1HsF8
0B6GOSrHAhaEtH34AgQVO4t8cYWgfd3/vW/SL4YX1farvBs2wZkKzUCuLa57z3Sq
mtSyeRF4sb+RPa22M/6vnz6d9eawBkAkklydAIvfiIPSNa0UmxzriaCe6I/LC5fG
irY9uqWa6iWIh2ojHhdgQkOLI9cGhzGXe0VULT+ItNHUyvh897dI5+Ik7L++G5Ko
tfzm+AfF2kqEZHBuJJJZgFi3jMpQsM15Ou1jkjI9M+4EFXprFVQOnm/mPljy8+pc
XYEXd1kEdEItvdoVZY6d1vRclu9cb43RFAw70gft8n90WYPgYhb+ylXs+22715MU
lvcdytIYJ6eS0nmvqrqKejFEcUlqb9Pu0A/vU6qNFrFDHwgyb0T0gMlvg5z7nqp4
EPPFUcngDfFKsogp5QtwfP6oes6w2/Pj4f2iEgMKx056dvoyQ85lFrqCW4RcknyV
ciTbCorpEpcwF7SQ8jXQYnp/pVPbiCPvdP9qeI3x94Y1Ta7S3n1ZTlsaq3SC1bBF
QMidMxjVs8wjWwrTb69TD6ny9MwkixhkJ+/XVPYP3yTqC+fdTEqfoEjFPo8=
-----END CERTIFICATE-----
