Certificate:
    Data:
        Version: 3 (0x2)
        Serial Number: 843 (0x34b)
    Signature Algorithm: sha1WithRSAEncryption
        Issuer: C=US, ST=CA, L=SanFrancisco, O=Pixglo, Inc., OU=VPN-CIE, CN=tunnel.pixglo.com/name=Bala Chandrasekaran/emailAddress=bala@pixglo.com
        Validity
            Not Before: Feb 14 06:45:15 2018 GMT
            Not After : Feb 12 06:45:15 2028 GMT
        Subject: C=US, ST=CA, L=SanFrancisco, O=Pixglo, Inc., OU=VPN-CIE, CN=cie842/name=Bala Chandrasekaran/emailAddress=bala@pixglo.com
        Subject Public Key Info:
            Public Key Algorithm: rsaEncryption
                Public-Key: (4096 bit)
                Modulus:
                    00:ae:86:74:40:2a:a7:58:0a:62:0a:ac:9a:2d:4e:
                    f2:79:73:a9:8f:cf:87:08:63:e3:f6:46:55:de:a5:
                    ed:02:81:55:ec:47:30:91:9e:08:e8:dd:30:76:76:
                    ee:13:3a:56:15:1f:13:87:13:e7:2e:6f:68:fd:09:
                    b6:c0:fe:74:61:a8:4b:3c:43:c9:40:0a:8d:c6:3e:
                    b7:b9:f7:2a:5f:98:73:dc:29:46:51:f7:41:9d:4a:
                    38:da:81:01:fb:fc:00:1d:d7:b0:b5:30:3a:94:83:
                    96:bd:12:68:92:79:79:1f:2b:87:57:9d:7a:59:49:
                    52:f1:ca:33:f6:f8:b5:71:ed:de:f9:30:6a:55:44:
                    43:22:dd:18:be:52:84:7b:2c:e4:64:ff:01:2f:47:
                    f6:4a:f7:00:26:0f:76:5e:28:3e:56:0e:4e:a1:f5:
                    3b:e8:32:bb:28:34:1b:a1:d8:47:63:07:03:c1:b0:
                    81:43:d7:d8:70:05:41:13:07:4c:b9:ca:a2:5b:20:
                    cd:a4:72:ee:6d:2e:27:c7:68:9e:40:4d:0b:7e:1e:
                    49:c7:f1:7c:5d:3e:91:54:74:42:9d:1f:5b:a8:3c:
                    49:ad:de:ab:05:9d:7d:06:8c:1a:5f:e5:05:57:33:
                    6b:43:1e:78:2b:56:29:6d:82:67:b5:d0:df:fe:70:
                    45:f3:da:44:4a:4e:18:e6:29:2c:97:f0:fc:d4:55:
                    40:63:ea:83:e1:9c:67:7a:85:7e:d6:02:88:c2:58:
                    bc:ba:2c:51:0c:31:51:6f:91:f8:32:26:ef:90:ba:
                    db:e0:85:0f:b1:ab:bc:fd:0b:80:72:82:0f:82:47:
                    ed:1c:33:d7:ff:4c:b6:1f:9c:8b:72:89:0a:08:52:
                    a3:48:5d:fd:99:40:d5:cf:16:75:32:46:1a:e1:07:
                    67:72:20:c6:0b:5c:a8:46:25:ba:7e:e3:f0:3a:2b:
                    f3:cb:c3:9b:2e:51:95:00:14:40:a4:34:cb:60:2b:
                    a2:58:a0:fd:f8:e6:48:30:ff:37:40:64:0c:81:c7:
                    cf:29:a7:f4:9a:a7:f4:f2:70:6b:71:b7:65:50:dc:
                    76:d9:8f:db:8f:7d:49:b5:73:d3:95:f7:a1:98:02:
                    8c:99:b5:24:b3:dc:36:62:25:2b:c6:71:f4:47:a9:
                    00:1a:9a:94:c4:16:24:4e:3b:32:52:22:b9:e4:33:
                    4f:78:ac:d1:38:50:68:3a:e3:7d:de:8c:1d:c3:64:
                    63:5c:79:a2:34:fd:c6:5d:d9:0a:d8:b1:e8:bb:ae:
                    d6:6d:13:ab:6b:b3:80:5d:d7:be:e2:d3:7f:66:1c:
                    a6:d9:48:87:54:d0:13:53:89:5d:cf:88:3a:53:f2:
                    21:39:85
                Exponent: 65537 (0x10001)
        X509v3 extensions:
            X509v3 Basic Constraints: 
                CA:FALSE
            Netscape Comment: 
                Easy-RSA Generated Certificate
            X509v3 Subject Key Identifier: 
                27:F7:9E:0F:AC:24:42:A0:2F:05:3C:EA:66:09:CC:5D:A9:D2:72:7E
            X509v3 Authority Key Identifier: 
                keyid:EF:38:8D:14:50:58:A7:5B:4D:9C:17:72:FC:DF:B9:AC:A7:51:B0:10
                DirName:/C=US/ST=CA/L=SanFrancisco/O=Pixglo, Inc./OU=VPN-CIE/CN=tunnel.pixglo.com/name=Bala Chandrasekaran/emailAddress=bala@pixglo.com
                serial:A6:DB:C6:83:80:E6:A0:79

            X509v3 Extended Key Usage: 
                TLS Web Client Authentication
            X509v3 Key Usage: 
                Digital Signature
    Signature Algorithm: sha1WithRSAEncryption
         de:39:de:55:e2:a9:56:df:8f:c7:48:2c:9a:45:a0:5a:f3:69:
         b5:3d:57:11:ce:4a:9a:bc:24:3f:92:25:ad:a8:31:5d:c6:d9:
         12:fd:94:ee:d4:33:d4:6f:a0:0b:30:e5:fc:bd:59:7a:ed:0a:
         11:e0:88:77:95:86:b8:92:4b:41:33:e0:08:16:e8:5a:17:d8:
         33:78:17:0b:82:a0:a8:4d:56:de:88:54:5c:e9:06:f3:3d:c5:
         9e:90:da:c2:9b:69:8e:3c:37:c3:4e:e9:b0:44:06:54:d8:53:
         88:ec:03:58:b7:ea:80:d9:b3:8d:c0:4a:ef:b3:88:a3:6c:03:
         f2:39:09:5a:e6:00:b6:df:5a:d2:20:93:89:0b:a9:b9:be:b5:
         85:84:80:ad:c7:9c:e7:72:31:29:58:b9:e6:25:d3:fb:2d:16:
         99:f9:f8:57:bb:1c:ec:63:39:d0:10:32:e3:37:ae:fd:e6:02:
         3e:02:50:d2:ca:70:18:7a:24:59:fd:47:23:19:75:49:72:15:
         77:03:20:e5:b0:b9:78:cf:31:0f:0f:ad:fc:4b:3b:6b:c2:47:
         6e:90:9c:b0:6b:07:ff:75:9b:f8:0d:fd:b6:17:10:42:b7:e4:
         41:7d:84:34:d4:c3:55:6b:a0:18:94:de:93:27:f5:cb:f2:63:
         e1:70:0e:c0:63:98:48:58:3d:7b:67:0d:7c:58:e7:13:34:27:
         ff:37:88:05:27:0d:e2:7a:a6:00:b4:f9:11:74:ac:e0:7c:69:
         cd:c6:e5:74:cc:c7:8f:16:58:64:1c:96:18:17:01:ca:2d:51:
         76:ba:70:7f:30:b4:3e:1d:a9:c9:8d:da:31:11:a1:fd:34:76:
         93:06:c3:09:67:44:03:98:8f:81:8f:a1:07:ed:56:68:76:32:
         88:0d:5b:cb:45:7d:63:4e:eb:ae:c2:8c:81:02:90:57:15:2d:
         87:ab:1a:be:3d:73:61:cb:5f:03:cd:12:7c:8f:35:36:2c:0b:
         54:45:5e:c2:7d:e1:5c:19:51:3a:6f:fd:4d:32:e4:06:32:2b:
         9a:d1:18:a9:57:2f:16:f6:1e:65:3e:29:b7:3c:6c:ab:5c:5b:
         1f:38:d0:19:c0:70:53:e8:6d:6d:94:43:9b:56:fc:28:ce:0e:
         64:e7:47:17:ee:9b:73:d2:ba:a1:d7:a5:02:77:2d:98:5a:c7:
         4b:43:cd:8e:b1:df:7b:bb:fe:dd:46:b5:a4:84:af:b2:33:ba:
         7b:e4:d4:14:f3:cc:53:38:7f:b4:7f:b6:89:cd:0a:af:c6:96:
         21:cc:05:df:78:f0:52:8b:aa:85:fb:af:56:0a:ec:f8:3e:71:
         ad:9a:c3:e9:0e:7e:06:57
-----BEGIN CERTIFICATE-----
MIIHSDCCBTCgAwIBAgICA0swDQYJKoZIhvcNAQEFBQAwgbQxCzAJBgNVBAYTAlVT
MQswCQYDVQQIEwJDQTEVMBMGA1UEBxMMU2FuRnJhbmNpc2NvMRUwEwYDVQQKEwxQ
aXhnbG8sIEluYy4xEDAOBgNVBAsTB1ZQTi1DSUUxGjAYBgNVBAMTEXR1bm5lbC5w
aXhnbG8uY29tMRwwGgYDVQQpExNCYWxhIENoYW5kcmFzZWthcmFuMR4wHAYJKoZI
hvcNAQkBFg9iYWxhQHBpeGdsby5jb20wHhcNMTgwMjE0MDY0NTE1WhcNMjgwMjEy
MDY0NTE1WjCBqTELMAkGA1UEBhMCVVMxCzAJBgNVBAgTAkNBMRUwEwYDVQQHEwxT
YW5GcmFuY2lzY28xFTATBgNVBAoTDFBpeGdsbywgSW5jLjEQMA4GA1UECxMHVlBO
LUNJRTEPMA0GA1UEAxMGY2llODQyMRwwGgYDVQQpExNCYWxhIENoYW5kcmFzZWth
cmFuMR4wHAYJKoZIhvcNAQkBFg9iYWxhQHBpeGdsby5jb20wggIiMA0GCSqGSIb3
DQEBAQUAA4ICDwAwggIKAoICAQCuhnRAKqdYCmIKrJotTvJ5c6mPz4cIY+P2RlXe
pe0CgVXsRzCRngjo3TB2du4TOlYVHxOHE+cub2j9CbbA/nRhqEs8Q8lACo3GPre5
9ypfmHPcKUZR90GdSjjagQH7/AAd17C1MDqUg5a9EmiSeXkfK4dXnXpZSVLxyjP2
+LVx7d75MGpVREMi3Ri+UoR7LORk/wEvR/ZK9wAmD3ZeKD5WDk6h9TvoMrsoNBuh
2EdjBwPBsIFD19hwBUETB0y5yqJbIM2kcu5tLifHaJ5ATQt+HknH8XxdPpFUdEKd
H1uoPEmt3qsFnX0GjBpf5QVXM2tDHngrViltgme10N/+cEXz2kRKThjmKSyX8PzU
VUBj6oPhnGd6hX7WAojCWLy6LFEMMVFvkfgyJu+QutvghQ+xq7z9C4Bygg+CR+0c
M9f/TLYfnItyiQoIUqNIXf2ZQNXPFnUyRhrhB2dyIMYLXKhGJbp+4/A6K/PLw5su
UZUAFECkNMtgK6JYoP345kgw/zdAZAyBx88pp/Sap/TycGtxt2VQ3HbZj9uPfUm1
c9OV96GYAoyZtSSz3DZiJSvGcfRHqQAampTEFiROOzJSIrnkM094rNE4UGg6433e
jB3DZGNceaI0/cZd2QrYsei7rtZtE6trs4Bd177i039mHKbZSIdU0BNTiV3PiDpT
8iE5hQIDAQABo4IBazCCAWcwCQYDVR0TBAIwADAtBglghkgBhvhCAQ0EIBYeRWFz
eS1SU0EgR2VuZXJhdGVkIENlcnRpZmljYXRlMB0GA1UdDgQWBBQn954PrCRCoC8F
POpmCcxdqdJyfjCB6QYDVR0jBIHhMIHegBTvOI0UUFinW02cF3L837msp1GwEKGB
uqSBtzCBtDELMAkGA1UEBhMCVVMxCzAJBgNVBAgTAkNBMRUwEwYDVQQHEwxTYW5G
cmFuY2lzY28xFTATBgNVBAoTDFBpeGdsbywgSW5jLjEQMA4GA1UECxMHVlBOLUNJ
RTEaMBgGA1UEAxMRdHVubmVsLnBpeGdsby5jb20xHDAaBgNVBCkTE0JhbGEgQ2hh
bmRyYXNla2FyYW4xHjAcBgkqhkiG9w0BCQEWD2JhbGFAcGl4Z2xvLmNvbYIJAKbb
xoOA5qB5MBMGA1UdJQQMMAoGCCsGAQUFBwMCMAsGA1UdDwQEAwIHgDANBgkqhkiG
9w0BAQUFAAOCAgEA3jneVeKpVt+Px0gsmkWgWvNptT1XEc5KmrwkP5IlragxXcbZ
Ev2U7tQz1G+gCzDl/L1Zeu0KEeCId5WGuJJLQTPgCBboWhfYM3gXC4KgqE1W3ohU
XOkG8z3FnpDawptpjjw3w07psEQGVNhTiOwDWLfqgNmzjcBK77OIo2wD8jkJWuYA
tt9a0iCTiQupub61hYSArcec53IxKVi55iXT+y0Wmfn4V7sc7GM50BAy4zeu/eYC
PgJQ0spwGHokWf1HIxl1SXIVdwMg5bC5eM8xDw+t/Es7a8JHbpCcsGsH/3Wb+A39
thcQQrfkQX2ENNTDVWugGJTekyf1y/Jj4XAOwGOYSFg9e2cNfFjnEzQn/zeIBScN
4nqmALT5EXSs4HxpzcbldMzHjxZYZByWGBcByi1RdrpwfzC0Ph2pyY3aMRGh/TR2
kwbDCWdEA5iPgY+hB+1WaHYyiA1by0V9Y07rrsKMgQKQVxUth6savj1zYctfA80S
fI81NiwLVEVewn3hXBlROm/9TTLkBjIrmtEYqVcvFvYeZT4ptzxsq1xbHzjQGcBw
U+htbZRDm1b8KM4OZOdHF+6bc9K6odelAnctmFrHS0PNjrHfe7v+3Ua1pISvsjO6
e+TUFPPMUzh/tH+2ic0Kr8aWIcwF33jwUouqhfuvVgrs+D5xrZrD6Q5+Blc=
-----END CERTIFICATE-----
