Certificate:
    Data:
        Version: 3 (0x2)
        Serial Number: 863 (0x35f)
    Signature Algorithm: sha1WithRSAEncryption
        Issuer: C=US, ST=CA, L=SanFrancisco, O=Pixglo, Inc., OU=VPN-CIE, CN=tunnel.pixglo.com/name=Bala Chandrasekaran/emailAddress=bala@pixglo.com
        Validity
            Not Before: Feb 14 06:45:59 2018 GMT
            Not After : Feb 12 06:45:59 2028 GMT
        Subject: C=US, ST=CA, L=SanFrancisco, O=Pixglo, Inc., OU=VPN-CIE, CN=cie862/name=Bala Chandrasekaran/emailAddress=bala@pixglo.com
        Subject Public Key Info:
            Public Key Algorithm: rsaEncryption
                Public-Key: (4096 bit)
                Modulus:
                    00:b3:80:23:70:2d:fd:dc:b2:3c:6d:a5:a7:a8:ab:
                    4c:8f:e2:3f:34:9a:8b:ff:e5:fd:38:c8:fc:7f:13:
                    6a:ba:7a:21:8b:29:15:65:a4:81:17:c9:bb:66:da:
                    1b:9d:6d:13:f2:c0:48:c6:ff:95:bf:2c:5b:48:b7:
                    e4:34:5a:5a:55:02:e5:c7:74:8a:97:8a:2f:38:f3:
                    a2:62:9f:f1:e5:e5:b3:8f:e8:c9:dd:17:07:67:60:
                    e8:b9:09:1e:8c:f1:f7:64:e7:05:1a:ab:7c:1e:c8:
                    4d:f0:1c:5a:6d:0e:a5:1b:42:ff:f0:fa:a9:7b:48:
                    1e:c3:c1:1f:f3:42:b9:bb:03:8f:d1:5d:1d:2b:72:
                    b0:4b:f3:8e:03:fe:69:67:0c:9b:a9:04:5c:be:e5:
                    fa:a0:00:32:91:84:fa:97:ba:db:db:b0:71:f7:3a:
                    bb:5a:a8:73:c2:c5:ae:3a:a2:2f:11:aa:1c:c0:d9:
                    c4:ab:9b:2e:bb:28:dc:74:ba:cd:da:89:4a:04:31:
                    fb:ee:ec:61:cb:ae:81:4e:52:81:5f:53:8d:cb:20:
                    49:a5:be:bc:96:bf:a4:43:5a:7c:b3:3a:a1:f7:cb:
                    2b:2d:d7:98:73:d3:e2:6c:4f:a0:a1:be:85:54:78:
                    26:3e:58:99:3d:47:c9:61:cc:4a:77:2a:36:f2:46:
                    a5:36:54:1a:ae:99:9c:f3:b1:19:2a:4d:f4:c9:90:
                    41:10:70:40:c9:eb:0c:d8:8f:63:a8:55:2a:05:98:
                    82:08:05:fb:90:b2:94:51:c8:76:e2:d1:3b:ec:37:
                    9b:39:26:46:45:73:f8:72:7c:64:76:db:a9:f4:0f:
                    10:9e:b9:ff:da:a7:85:bf:40:30:dd:1b:ae:d5:a1:
                    49:7b:38:a0:93:21:c1:99:2b:5d:a9:67:d4:31:f6:
                    c6:52:2e:82:94:70:d9:80:34:4a:2f:8c:05:7f:bc:
                    2e:9e:16:ae:9c:89:26:72:2c:6b:30:4f:9d:2d:d6:
                    8b:2a:9f:cb:b1:f1:bb:3c:a8:a2:46:82:a6:fe:f6:
                    8b:a7:5e:e4:10:f8:a2:b4:76:04:72:8b:b9:dc:f8:
                    e5:33:02:2b:9c:cc:d8:e9:ae:14:76:d4:9c:4a:48:
                    8e:42:e1:8e:ba:c5:42:1b:71:da:30:d3:72:e4:cc:
                    e1:c6:34:7c:1a:7f:df:67:6f:c6:69:56:41:39:ba:
                    c0:4d:6f:0f:b6:47:61:3d:2d:39:05:e2:34:9a:7e:
                    fb:02:44:87:db:1e:84:0b:8b:86:77:3c:a7:a3:ea:
                    b8:54:fc:81:d1:40:07:47:b8:e1:82:84:d0:f5:ad:
                    f9:cf:09:a8:eb:48:ef:91:10:74:a6:d5:19:49:dc:
                    14:6a:6d
                Exponent: 65537 (0x10001)
        X509v3 extensions:
            X509v3 Basic Constraints: 
                CA:FALSE
            Netscape Comment: 
                Easy-RSA Generated Certificate
            X509v3 Subject Key Identifier: 
                EB:3F:4C:79:62:32:21:0C:F3:AC:5A:DF:1D:B6:D9:98:5F:C6:EF:03
            X509v3 Authority Key Identifier: 
                keyid:EF:38:8D:14:50:58:A7:5B:4D:9C:17:72:FC:DF:B9:AC:A7:51:B0:10
                DirName:/C=US/ST=CA/L=SanFrancisco/O=Pixglo, Inc./OU=VPN-CIE/CN=tunnel.pixglo.com/name=Bala Chandrasekaran/emailAddress=bala@pixglo.com
                serial:A6:DB:C6:83:80:E6:A0:79

            X509v3 Extended Key Usage: 
                TLS Web Client Authentication
            X509v3 Key Usage: 
                Digital Signature
    Signature Algorithm: sha1WithRSAEncryption
         50:79:4b:03:0e:f2:48:e0:04:d3:fc:51:8f:9d:ae:9d:06:27:
         f8:cd:2d:36:aa:82:62:e9:30:a1:9a:d9:93:42:8d:32:90:03:
         25:5f:dd:f3:0d:d2:73:ed:b7:f0:4f:22:1d:22:21:1c:bc:09:
         5a:44:93:9b:05:c9:79:0f:10:1a:49:54:75:d3:e1:71:34:95:
         64:9c:59:95:4d:a1:d0:0c:2b:b4:69:c0:6d:d0:08:22:0f:43:
         34:aa:82:45:89:00:b9:7e:a3:d6:80:cd:34:b5:82:a7:19:db:
         3a:b3:f7:bf:33:c2:ed:5a:4d:4d:b7:a9:0c:43:1b:eb:5f:53:
         9c:9b:10:8e:2d:22:a0:38:4c:a4:8c:6d:8b:e4:cf:32:55:44:
         ac:32:33:5a:d4:bf:54:17:44:57:5a:5e:0b:b1:95:8a:e2:95:
         1b:34:43:03:26:97:82:15:77:b0:f0:66:14:af:6e:26:da:87:
         3e:3c:eb:1f:5a:0b:80:d1:0c:c1:87:cc:3b:46:af:8f:02:fe:
         31:55:fd:a9:1f:e3:95:24:4d:6e:46:aa:55:b8:87:1e:ab:82:
         49:23:42:65:2b:8b:68:36:e0:3f:f1:10:b5:43:6b:e9:86:b2:
         5e:93:04:39:92:d8:11:63:48:64:42:a4:82:a2:49:a0:a9:27:
         78:e7:40:57:20:f1:36:8f:ac:85:6c:41:97:5d:f0:83:9e:ac:
         b7:51:54:6a:09:da:b5:62:47:97:ce:4e:e7:55:69:8a:68:66:
         85:f3:67:67:e8:fc:dd:fb:92:da:b7:b6:79:04:68:d3:18:4a:
         a1:d7:ef:03:71:0d:6b:f3:f9:aa:de:18:85:46:23:10:7a:27:
         a8:21:5c:6a:85:2f:86:72:f3:05:7f:91:ac:e0:98:d6:05:b9:
         00:b0:de:01:f2:cb:f6:aa:a1:08:5a:4c:24:76:75:e0:b4:c6:
         5e:1b:00:d7:45:c2:ec:79:cf:8e:fb:92:04:1d:42:9c:c1:e5:
         2e:98:fc:a9:ed:03:4d:e7:22:49:06:e0:cf:45:ab:ca:94:f4:
         9c:8c:d5:15:dc:da:3f:15:6b:bf:c3:5c:5d:7d:43:cf:a6:26:
         e9:ce:f3:8a:ee:b6:04:40:d2:15:f4:de:03:9f:45:89:c3:ea:
         8d:89:9e:2e:56:36:3a:61:62:0b:68:61:b6:5d:7d:32:b3:c4:
         de:57:ae:77:40:39:0b:20:a5:4e:e0:1e:03:f6:8a:cd:8b:84:
         0e:0d:d3:9e:a4:2f:05:2c:aa:c9:a1:e4:4b:c5:1f:9a:cb:56:
         47:14:1c:3a:68:e4:ec:23:d5:67:66:1c:02:c2:c2:b9:9e:13:
         a6:6b:aa:8b:74:13:ca:cd
-----BEGIN CERTIFICATE-----
MIIHSDCCBTCgAwIBAgICA18wDQYJKoZIhvcNAQEFBQAwgbQxCzAJBgNVBAYTAlVT
MQswCQYDVQQIEwJDQTEVMBMGA1UEBxMMU2FuRnJhbmNpc2NvMRUwEwYDVQQKEwxQ
aXhnbG8sIEluYy4xEDAOBgNVBAsTB1ZQTi1DSUUxGjAYBgNVBAMTEXR1bm5lbC5w
aXhnbG8uY29tMRwwGgYDVQQpExNCYWxhIENoYW5kcmFzZWthcmFuMR4wHAYJKoZI
hvcNAQkBFg9iYWxhQHBpeGdsby5jb20wHhcNMTgwMjE0MDY0NTU5WhcNMjgwMjEy
MDY0NTU5WjCBqTELMAkGA1UEBhMCVVMxCzAJBgNVBAgTAkNBMRUwEwYDVQQHEwxT
YW5GcmFuY2lzY28xFTATBgNVBAoTDFBpeGdsbywgSW5jLjEQMA4GA1UECxMHVlBO
LUNJRTEPMA0GA1UEAxMGY2llODYyMRwwGgYDVQQpExNCYWxhIENoYW5kcmFzZWth
cmFuMR4wHAYJKoZIhvcNAQkBFg9iYWxhQHBpeGdsby5jb20wggIiMA0GCSqGSIb3
DQEBAQUAA4ICDwAwggIKAoICAQCzgCNwLf3csjxtpaeoq0yP4j80mov/5f04yPx/
E2q6eiGLKRVlpIEXybtm2hudbRPywEjG/5W/LFtIt+Q0WlpVAuXHdIqXii8486Ji
n/Hl5bOP6MndFwdnYOi5CR6M8fdk5wUaq3weyE3wHFptDqUbQv/w+ql7SB7DwR/z
Qrm7A4/RXR0rcrBL844D/mlnDJupBFy+5fqgADKRhPqXutvbsHH3OrtaqHPCxa46
oi8RqhzA2cSrmy67KNx0us3aiUoEMfvu7GHLroFOUoFfU43LIEmlvryWv6RDWnyz
OqH3yyst15hz0+JsT6ChvoVUeCY+WJk9R8lhzEp3KjbyRqU2VBqumZzzsRkqTfTJ
kEEQcEDJ6wzYj2OoVSoFmIIIBfuQspRRyHbi0TvsN5s5JkZFc/hyfGR226n0DxCe
uf/ap4W/QDDdG67VoUl7OKCTIcGZK12pZ9Qx9sZSLoKUcNmANEovjAV/vC6eFq6c
iSZyLGswT50t1osqn8ux8bs8qKJGgqb+9ounXuQQ+KK0dgRyi7nc+OUzAiuczNjp
rhR21JxKSI5C4Y66xUIbcdow03LkzOHGNHwaf99nb8ZpVkE5usBNbw+2R2E9LTkF
4jSafvsCRIfbHoQLi4Z3PKej6rhU/IHRQAdHuOGChND1rfnPCajrSO+REHSm1RlJ
3BRqbQIDAQABo4IBazCCAWcwCQYDVR0TBAIwADAtBglghkgBhvhCAQ0EIBYeRWFz
eS1SU0EgR2VuZXJhdGVkIENlcnRpZmljYXRlMB0GA1UdDgQWBBTrP0x5YjIhDPOs
Wt8dttmYX8bvAzCB6QYDVR0jBIHhMIHegBTvOI0UUFinW02cF3L837msp1GwEKGB
uqSBtzCBtDELMAkGA1UEBhMCVVMxCzAJBgNVBAgTAkNBMRUwEwYDVQQHEwxTYW5G
cmFuY2lzY28xFTATBgNVBAoTDFBpeGdsbywgSW5jLjEQMA4GA1UECxMHVlBOLUNJ
RTEaMBgGA1UEAxMRdHVubmVsLnBpeGdsby5jb20xHDAaBgNVBCkTE0JhbGEgQ2hh
bmRyYXNla2FyYW4xHjAcBgkqhkiG9w0BCQEWD2JhbGFAcGl4Z2xvLmNvbYIJAKbb
xoOA5qB5MBMGA1UdJQQMMAoGCCsGAQUFBwMCMAsGA1UdDwQEAwIHgDANBgkqhkiG
9w0BAQUFAAOCAgEAUHlLAw7ySOAE0/xRj52unQYn+M0tNqqCYukwoZrZk0KNMpAD
JV/d8w3Sc+238E8iHSIhHLwJWkSTmwXJeQ8QGklUddPhcTSVZJxZlU2h0AwrtGnA
bdAIIg9DNKqCRYkAuX6j1oDNNLWCpxnbOrP3vzPC7VpNTbepDEMb619TnJsQji0i
oDhMpIxti+TPMlVErDIzWtS/VBdEV1peC7GViuKVGzRDAyaXghV3sPBmFK9uJtqH
PjzrH1oLgNEMwYfMO0avjwL+MVX9qR/jlSRNbkaqVbiHHquCSSNCZSuLaDbgP/EQ
tUNr6YayXpMEOZLYEWNIZEKkgqJJoKkneOdAVyDxNo+shWxBl13wg56st1FUagna
tWJHl85O51VpimhmhfNnZ+j83fuS2re2eQRo0xhKodfvA3ENa/P5qt4YhUYjEHon
qCFcaoUvhnLzBX+RrOCY1gW5ALDeAfLL9qqhCFpMJHZ14LTGXhsA10XC7HnPjvuS
BB1CnMHlLpj8qe0DTeciSQbgz0WrypT0nIzVFdzaPxVrv8NcXX1Dz6Ym6c7ziu62
BEDSFfTeA59FicPqjYmeLlY2OmFiC2hhtl19MrPE3leud0A5CyClTuAeA/aKzYuE
Dg3TnqQvBSyqyaHkS8UfmstWRxQcOmjk7CPVZ2YcAsLCuZ4Tpmuqi3QTys0=
-----END CERTIFICATE-----
