Certificate:
    Data:
        Version: 3 (0x2)
        Serial Number: 893 (0x37d)
    Signature Algorithm: sha1WithRSAEncryption
        Issuer: C=US, ST=CA, L=SanFrancisco, O=Pixglo, Inc., OU=VPN-CIE, CN=tunnel.pixglo.com/name=Bala Chandrasekaran/emailAddress=bala@pixglo.com
        Validity
            Not Before: Feb 14 06:47:01 2018 GMT
            Not After : Feb 12 06:47:01 2028 GMT
        Subject: C=US, ST=CA, L=SanFrancisco, O=Pixglo, Inc., OU=VPN-CIE, CN=cie892/name=Bala Chandrasekaran/emailAddress=bala@pixglo.com
        Subject Public Key Info:
            Public Key Algorithm: rsaEncryption
                Public-Key: (4096 bit)
                Modulus:
                    00:bc:97:ba:d3:05:a0:24:2f:07:dd:e5:33:db:2a:
                    5c:29:74:07:4e:b4:ff:f5:e6:c6:67:c5:29:db:8c:
                    45:e6:f0:28:31:a5:38:73:86:12:6c:06:13:51:0c:
                    ed:57:2c:28:10:06:0f:3a:69:46:59:00:c3:f4:ab:
                    30:05:f8:34:d6:e0:b8:2f:c0:35:be:e9:d7:14:5f:
                    48:9e:4d:60:a8:3a:cd:9c:48:53:b2:8b:96:1d:49:
                    00:5d:14:b3:00:f1:d0:6c:d3:5f:66:3d:5d:e5:49:
                    74:b8:7c:88:4b:07:88:0b:ca:3e:73:89:a7:86:1c:
                    95:62:ce:80:64:d8:84:0f:f3:c1:3b:4c:fb:46:eb:
                    ba:12:84:cb:17:e9:ef:59:3f:9a:86:8b:99:88:df:
                    a1:de:6c:c6:af:33:84:2e:d3:83:c1:87:24:a3:62:
                    f8:c3:1b:17:5c:50:5f:2f:85:4a:a4:d7:3d:f1:1b:
                    60:96:10:5c:0e:53:78:97:f1:9e:cf:04:b8:d6:06:
                    9f:54:be:47:54:b7:24:35:66:cd:06:74:09:2c:c4:
                    a4:f7:68:61:1d:fe:8c:48:2c:37:d1:ed:80:24:13:
                    b6:de:9e:7e:f0:b8:21:de:5c:a4:4e:50:85:54:42:
                    f9:6a:e4:8f:ec:b6:65:69:45:07:50:be:2f:c9:8e:
                    76:7d:53:05:8d:a8:74:6e:c9:90:f5:71:9e:9a:73:
                    a6:82:d8:72:85:df:ac:d8:1d:68:16:43:be:1d:7d:
                    12:b2:d7:c5:2f:6a:36:74:43:d5:52:93:3c:b0:84:
                    17:47:ba:4c:97:d2:49:f8:b0:69:e1:91:35:ac:4f:
                    00:17:c1:c7:96:8e:59:23:9a:2c:83:cf:f7:41:d0:
                    3c:a3:9c:c1:d6:c9:23:41:7b:ae:4c:4d:88:98:bd:
                    1b:84:1e:75:b7:9b:f2:4e:59:ed:8b:ee:fe:9f:e9:
                    4a:58:28:d9:58:8c:80:bd:11:32:25:4f:0f:27:b5:
                    31:33:3f:d9:aa:f9:11:cc:30:f5:e9:c1:07:74:ce:
                    87:f7:64:8a:e2:27:e4:9f:95:0c:fc:62:8c:28:e8:
                    d0:49:9d:0f:1f:3a:57:da:2d:01:b8:0d:f4:64:c1:
                    0b:a7:5c:dd:e8:56:34:b3:71:b0:e4:52:13:ac:c1:
                    8b:e1:65:2c:08:65:96:38:6e:31:c7:80:3f:bf:72:
                    36:16:ed:17:d7:c5:53:bd:36:33:f0:a9:37:cd:f6:
                    84:d5:d0:56:9a:71:b7:b9:26:3a:fc:59:bb:be:a7:
                    b6:7d:d6:0b:03:3b:00:7a:40:c0:f4:91:33:9d:44:
                    57:ca:04:86:50:45:99:4e:1d:42:cc:21:30:1c:53:
                    c3:4a:15
                Exponent: 65537 (0x10001)
        X509v3 extensions:
            X509v3 Basic Constraints: 
                CA:FALSE
            Netscape Comment: 
                Easy-RSA Generated Certificate
            X509v3 Subject Key Identifier: 
                10:62:FA:F3:A4:87:F7:55:38:4A:2B:A0:C4:CE:19:49:93:96:86:FC
            X509v3 Authority Key Identifier: 
                keyid:EF:38:8D:14:50:58:A7:5B:4D:9C:17:72:FC:DF:B9:AC:A7:51:B0:10
                DirName:/C=US/ST=CA/L=SanFrancisco/O=Pixglo, Inc./OU=VPN-CIE/CN=tunnel.pixglo.com/name=Bala Chandrasekaran/emailAddress=bala@pixglo.com
                serial:A6:DB:C6:83:80:E6:A0:79

            X509v3 Extended Key Usage: 
                TLS Web Client Authentication
            X509v3 Key Usage: 
                Digital Signature
    Signature Algorithm: sha1WithRSAEncryption
         83:af:01:bd:3b:9d:fc:d0:4a:95:39:7e:e6:80:4e:35:bd:44:
         53:cb:06:ec:be:55:c7:05:f9:64:5c:dd:4d:25:73:b9:43:67:
         04:46:24:3a:8b:05:c3:28:c2:a5:a1:65:0e:21:c4:b3:a0:65:
         c0:95:2f:04:17:df:36:7e:86:77:ea:a3:f7:7a:b2:6c:d3:d3:
         64:b0:35:ff:30:fe:57:19:fc:dd:bb:8c:66:1d:2e:f5:74:2e:
         58:7e:8e:f1:4d:24:22:cb:fb:ff:5b:5c:4b:67:40:d1:0f:4c:
         b3:cc:44:ac:c5:1f:8b:11:90:79:62:5c:80:2a:dc:71:66:f5:
         11:b6:02:18:ac:61:3d:80:7c:56:80:a4:39:cc:c4:31:d2:ad:
         da:02:05:cc:40:d0:4e:4a:61:e6:f3:d1:f7:00:cb:39:01:06:
         55:85:c7:11:b7:2e:da:40:15:50:1f:b7:ca:8d:ac:2f:96:98:
         5b:12:4c:63:1d:0f:34:f0:37:9c:7a:62:a4:96:c1:a6:d7:4f:
         a5:94:dc:62:89:47:15:f4:8b:6a:b2:38:0c:42:3c:48:42:8a:
         7f:96:93:5e:4a:de:7e:9a:3f:ad:f4:e9:24:3a:2a:07:c3:59:
         0f:e2:45:16:21:56:e6:5e:3b:b6:16:a9:e3:90:0e:eb:6b:d6:
         58:39:12:de:a5:94:76:23:59:e4:bf:08:0b:91:14:86:b9:f9:
         dd:bc:84:8a:d9:1c:ac:e5:4e:a8:fc:68:3b:60:6c:9c:8f:df:
         66:35:9a:18:06:f5:13:e8:d5:3f:ab:d5:ca:cf:a6:49:01:76:
         15:03:64:d6:0e:bd:8b:1c:87:5c:f9:a2:7b:7a:24:ba:a4:37:
         39:00:a4:1e:24:9f:a0:c5:43:ee:2f:41:64:db:13:36:01:87:
         51:9d:12:f7:67:79:3c:82:bb:c0:32:92:dd:28:bd:f5:2f:c8:
         b7:48:8a:0c:61:d3:96:a5:6d:0d:f6:c3:74:c2:fc:76:3c:d3:
         ca:c2:2a:92:88:7a:2b:bb:43:f9:e2:b3:34:ba:b3:f7:91:c0:
         b7:26:45:d0:ed:c9:15:22:4a:28:3d:c2:79:93:cd:98:37:09:
         6e:d2:a4:5e:b0:e3:cc:f5:f8:01:40:04:9f:24:20:a3:3c:42:
         9e:82:dd:34:0f:4d:62:01:a4:3b:95:92:7c:c0:e5:ea:cd:64:
         b0:57:42:7e:38:fb:00:6e:d4:61:bb:29:01:9e:66:47:37:31:
         3f:6b:28:d0:80:df:46:f0:fe:12:6a:45:41:d4:7a:31:8d:8b:
         ad:64:46:a1:d2:d9:65:82:21:18:74:7d:45:6a:29:ef:60:eb:
         8a:03:a4:19:fd:56:34:b4
-----BEGIN CERTIFICATE-----
MIIHSDCCBTCgAwIBAgICA30wDQYJKoZIhvcNAQEFBQAwgbQxCzAJBgNVBAYTAlVT
MQswCQYDVQQIEwJDQTEVMBMGA1UEBxMMU2FuRnJhbmNpc2NvMRUwEwYDVQQKEwxQ
aXhnbG8sIEluYy4xEDAOBgNVBAsTB1ZQTi1DSUUxGjAYBgNVBAMTEXR1bm5lbC5w
aXhnbG8uY29tMRwwGgYDVQQpExNCYWxhIENoYW5kcmFzZWthcmFuMR4wHAYJKoZI
hvcNAQkBFg9iYWxhQHBpeGdsby5jb20wHhcNMTgwMjE0MDY0NzAxWhcNMjgwMjEy
MDY0NzAxWjCBqTELMAkGA1UEBhMCVVMxCzAJBgNVBAgTAkNBMRUwEwYDVQQHEwxT
YW5GcmFuY2lzY28xFTATBgNVBAoTDFBpeGdsbywgSW5jLjEQMA4GA1UECxMHVlBO
LUNJRTEPMA0GA1UEAxMGY2llODkyMRwwGgYDVQQpExNCYWxhIENoYW5kcmFzZWth
cmFuMR4wHAYJKoZIhvcNAQkBFg9iYWxhQHBpeGdsby5jb20wggIiMA0GCSqGSIb3
DQEBAQUAA4ICDwAwggIKAoICAQC8l7rTBaAkLwfd5TPbKlwpdAdOtP/15sZnxSnb
jEXm8CgxpThzhhJsBhNRDO1XLCgQBg86aUZZAMP0qzAF+DTW4LgvwDW+6dcUX0ie
TWCoOs2cSFOyi5YdSQBdFLMA8dBs019mPV3lSXS4fIhLB4gLyj5ziaeGHJVizoBk
2IQP88E7TPtG67oShMsX6e9ZP5qGi5mI36HebMavM4Qu04PBhySjYvjDGxdcUF8v
hUqk1z3xG2CWEFwOU3iX8Z7PBLjWBp9UvkdUtyQ1Zs0GdAksxKT3aGEd/oxILDfR
7YAkE7benn7wuCHeXKROUIVUQvlq5I/stmVpRQdQvi/JjnZ9UwWNqHRuyZD1cZ6a
c6aC2HKF36zYHWgWQ74dfRKy18UvajZ0Q9VSkzywhBdHukyX0kn4sGnhkTWsTwAX
wceWjlkjmiyDz/dB0DyjnMHWySNBe65MTYiYvRuEHnW3m/JOWe2L7v6f6UpYKNlY
jIC9ETIlTw8ntTEzP9mq+RHMMPXpwQd0zof3ZIriJ+SflQz8Yowo6NBJnQ8fOlfa
LQG4DfRkwQunXN3oVjSzcbDkUhOswYvhZSwIZZY4bjHHgD+/cjYW7RfXxVO9NjPw
qTfN9oTV0Faacbe5Jjr8Wbu+p7Z91gsDOwB6QMD0kTOdRFfKBIZQRZlOHULMITAc
U8NKFQIDAQABo4IBazCCAWcwCQYDVR0TBAIwADAtBglghkgBhvhCAQ0EIBYeRWFz
eS1SU0EgR2VuZXJhdGVkIENlcnRpZmljYXRlMB0GA1UdDgQWBBQQYvrzpIf3VThK
K6DEzhlJk5aG/DCB6QYDVR0jBIHhMIHegBTvOI0UUFinW02cF3L837msp1GwEKGB
uqSBtzCBtDELMAkGA1UEBhMCVVMxCzAJBgNVBAgTAkNBMRUwEwYDVQQHEwxTYW5G
cmFuY2lzY28xFTATBgNVBAoTDFBpeGdsbywgSW5jLjEQMA4GA1UECxMHVlBOLUNJ
RTEaMBgGA1UEAxMRdHVubmVsLnBpeGdsby5jb20xHDAaBgNVBCkTE0JhbGEgQ2hh
bmRyYXNla2FyYW4xHjAcBgkqhkiG9w0BCQEWD2JhbGFAcGl4Z2xvLmNvbYIJAKbb
xoOA5qB5MBMGA1UdJQQMMAoGCCsGAQUFBwMCMAsGA1UdDwQEAwIHgDANBgkqhkiG
9w0BAQUFAAOCAgEAg68BvTud/NBKlTl+5oBONb1EU8sG7L5VxwX5ZFzdTSVzuUNn
BEYkOosFwyjCpaFlDiHEs6BlwJUvBBffNn6Gd+qj93qybNPTZLA1/zD+Vxn83buM
Zh0u9XQuWH6O8U0kIsv7/1tcS2dA0Q9Ms8xErMUfixGQeWJcgCrccWb1EbYCGKxh
PYB8VoCkOczEMdKt2gIFzEDQTkph5vPR9wDLOQEGVYXHEbcu2kAVUB+3yo2sL5aY
WxJMYx0PNPA3nHpipJbBptdPpZTcYolHFfSLarI4DEI8SEKKf5aTXkrefpo/rfTp
JDoqB8NZD+JFFiFW5l47thap45AO62vWWDkS3qWUdiNZ5L8IC5EUhrn53byEitkc
rOVOqPxoO2BsnI/fZjWaGAb1E+jVP6vVys+mSQF2FQNk1g69ixyHXPmie3okuqQ3
OQCkHiSfoMVD7i9BZNsTNgGHUZ0S92d5PIK7wDKS3Si99S/It0iKDGHTlqVtDfbD
dML8djzTysIqkoh6K7tD+eKzNLqz95HAtyZF0O3JFSJKKD3CeZPNmDcJbtKkXrDj
zPX4AUAEnyQgozxCnoLdNA9NYgGkO5WSfMDl6s1ksFdCfjj7AG7UYbspAZ5mRzcx
P2so0IDfRvD+EmpFQdR6MY2LrWRGodLZZYIhGHR9RWop72DrigOkGf1WNLQ=
-----END CERTIFICATE-----
