Certificate:
    Data:
        Version: 3 (0x2)
        Serial Number: 917 (0x395)
    Signature Algorithm: sha1WithRSAEncryption
        Issuer: C=US, ST=CA, L=SanFrancisco, O=Pixglo, Inc., OU=VPN-CIE, CN=tunnel.pixglo.com/name=Bala Chandrasekaran/emailAddress=bala@pixglo.com
        Validity
            Not Before: Feb 14 06:47:58 2018 GMT
            Not After : Feb 12 06:47:58 2028 GMT
        Subject: C=US, ST=CA, L=SanFrancisco, O=Pixglo, Inc., OU=VPN-CIE, CN=cie916/name=Bala Chandrasekaran/emailAddress=bala@pixglo.com
        Subject Public Key Info:
            Public Key Algorithm: rsaEncryption
                Public-Key: (4096 bit)
                Modulus:
                    00:d1:60:16:b8:47:a5:8a:b8:51:51:aa:bf:7d:05:
                    65:6e:61:de:b9:21:43:e4:9c:e0:ca:75:0e:ec:73:
                    34:68:57:38:d9:f2:3a:10:04:66:65:f0:a5:90:13:
                    ab:fa:14:f1:02:ca:8a:f5:96:7d:75:02:b5:90:52:
                    51:5b:1c:d3:22:68:07:10:93:93:c9:8c:8d:29:08:
                    4f:9f:d1:f8:fd:52:b4:11:96:ba:d8:e3:9e:72:77:
                    f6:77:ef:9b:2d:d1:9c:37:ea:d9:3f:8e:d2:57:67:
                    eb:d9:c8:f3:7e:7f:e4:69:fa:96:dd:1a:b4:ae:7b:
                    c4:c5:33:8f:a5:c8:6c:30:6a:1d:ac:14:16:f3:75:
                    a3:ca:1f:0f:81:a4:41:a4:27:9b:28:c9:c1:da:5d:
                    49:04:9b:ad:a2:d3:99:71:96:e9:1d:c4:6a:58:40:
                    1c:f3:d8:ec:a4:80:1d:ab:8a:e4:00:21:9c:7f:1a:
                    59:cc:1d:e0:f1:d8:43:a1:1b:0c:c6:ae:e3:b3:e7:
                    52:70:df:3e:a6:2b:c3:f6:fc:48:12:b2:ac:bb:4b:
                    d4:40:0a:c8:69:45:b6:ea:f6:0e:38:63:dd:51:18:
                    e9:7e:a2:c0:a4:b7:b4:ba:5a:6f:bf:6d:b0:19:a5:
                    b3:3c:f0:d9:31:7f:a2:f4:0d:5f:d5:1e:8e:62:b3:
                    49:fb:7a:eb:c0:f8:8e:24:4f:bf:6e:82:92:e7:e9:
                    d2:62:3e:78:e6:93:4e:b2:fd:e9:0f:52:be:14:9a:
                    d6:b4:7e:2d:82:c2:fe:a0:a8:e2:60:76:87:a6:44:
                    18:31:71:f3:e3:af:be:e7:7d:5d:63:16:8f:9a:26:
                    9c:e1:36:ee:ed:db:f9:4a:f8:ed:f3:c4:07:77:84:
                    4e:ac:be:d5:23:46:47:78:61:55:37:17:67:b4:0e:
                    7b:31:78:f7:62:7f:5e:66:c8:62:17:28:93:3f:36:
                    2b:a2:6e:66:93:e9:4d:85:8d:67:4a:fe:e3:16:9d:
                    8a:d9:bf:15:d3:6b:e7:bd:a5:63:7c:dc:09:09:87:
                    68:2c:22:c3:dc:50:ac:5c:a3:c3:96:d6:c6:83:07:
                    31:b9:30:76:bc:bd:86:30:a9:79:4b:5c:8c:bc:4a:
                    fb:e2:88:31:9f:9a:5e:51:98:2b:dd:fd:25:68:ec:
                    6b:ea:c9:69:11:bf:0e:ea:ff:61:c4:d2:35:e9:e6:
                    a0:f2:bc:03:67:25:5b:09:28:3e:ef:3b:47:09:62:
                    d3:52:75:55:b6:bf:09:3b:52:09:78:c4:2e:65:fd:
                    67:76:57:ae:ba:e7:13:1b:9a:70:a7:c3:41:98:da:
                    f9:73:60:76:c2:e4:37:d7:de:a7:f1:f5:61:21:80:
                    c4:b8:a3
                Exponent: 65537 (0x10001)
        X509v3 extensions:
            X509v3 Basic Constraints: 
                CA:FALSE
            Netscape Comment: 
                Easy-RSA Generated Certificate
            X509v3 Subject Key Identifier: 
                3F:55:E9:ED:4D:7D:E3:B9:2D:B3:BD:5E:40:32:43:AE:5C:14:9B:74
            X509v3 Authority Key Identifier: 
                keyid:EF:38:8D:14:50:58:A7:5B:4D:9C:17:72:FC:DF:B9:AC:A7:51:B0:10
                DirName:/C=US/ST=CA/L=SanFrancisco/O=Pixglo, Inc./OU=VPN-CIE/CN=tunnel.pixglo.com/name=Bala Chandrasekaran/emailAddress=bala@pixglo.com
                serial:A6:DB:C6:83:80:E6:A0:79

            X509v3 Extended Key Usage: 
                TLS Web Client Authentication
            X509v3 Key Usage: 
                Digital Signature
    Signature Algorithm: sha1WithRSAEncryption
         4d:49:a5:b0:6b:09:a3:2c:4e:27:db:61:22:db:6d:75:c9:4e:
         29:0c:ee:dd:2c:6e:fe:e0:2b:84:be:04:a3:6b:74:08:2f:88:
         d2:33:25:df:ac:67:66:f5:80:5e:c4:02:90:6d:f9:06:72:f5:
         db:c3:dd:6d:f1:03:ad:0f:87:d0:0a:be:7f:e8:f6:71:3b:ec:
         f2:9d:6a:22:97:b8:91:d3:d9:86:61:11:19:6f:ce:c2:98:fd:
         f9:02:38:64:15:a8:08:9f:0f:a0:aa:5b:ca:86:c2:31:31:e3:
         7e:1c:c9:ac:bc:20:d6:38:5c:4a:06:87:8f:2b:40:fa:4d:8b:
         24:1a:a1:43:1e:cf:7f:3d:84:aa:f1:67:e8:47:ac:16:64:72:
         44:dd:05:4e:93:e0:67:e7:16:5d:25:bf:dd:de:83:7b:0f:47:
         f1:2b:91:e4:1a:84:d6:7d:45:08:88:57:9d:12:f3:61:39:6f:
         6c:dd:28:08:2b:a9:ba:26:f8:42:64:42:5d:2e:78:51:a4:18:
         c5:d1:93:da:eb:7b:a9:bf:0e:c4:8d:f7:02:9a:06:f4:d6:eb:
         cc:70:e3:83:ed:69:0b:c9:63:e3:11:3a:19:a9:9e:b5:cf:dc:
         e6:9f:fd:02:0b:b6:8e:83:6c:a6:89:95:0d:c0:31:88:8a:b9:
         79:67:ac:41:dc:9b:fd:b8:35:a2:3b:a5:f2:b8:74:d4:6c:68:
         60:7c:2b:48:c1:54:9b:d1:24:a4:ab:69:f1:2c:38:c8:ac:3b:
         b9:ea:ec:36:ab:64:da:4f:0e:52:da:da:17:76:df:0a:9e:25:
         87:f7:68:bb:f2:7e:53:43:35:71:a7:fa:b8:95:c8:7d:7f:0a:
         4d:5a:36:4e:28:08:4e:5b:6a:d8:f9:44:c6:7e:c2:a2:21:f3:
         b2:2c:f3:2a:41:fc:64:4a:65:55:89:02:02:8d:51:db:84:13:
         82:c4:3f:c7:3f:1a:30:92:b6:fe:27:0e:bd:1d:eb:43:e5:a8:
         d6:aa:de:a5:fb:c6:c9:55:e0:44:4a:3d:d5:14:32:45:78:94:
         c8:d4:1d:0a:18:d8:1c:bb:cd:75:17:57:f1:db:b0:e1:a8:5f:
         07:40:53:f5:d1:7b:b9:c8:19:b7:ed:69:a5:df:4f:d0:b9:a1:
         db:f9:fc:14:10:2a:f5:44:4d:35:da:ae:a0:bb:e0:9b:af:80:
         cb:a8:29:e3:12:4f:00:bf:e7:c6:13:0a:12:78:f3:03:d1:23:
         a7:7e:e3:32:06:2f:e4:1b:06:89:41:ab:a8:eb:f0:e2:40:ad:
         af:18:51:22:31:df:78:a8:b1:47:81:8c:75:07:37:59:cd:e1:
         09:52:0e:50:97:0a:77:8f
-----BEGIN CERTIFICATE-----
MIIHSDCCBTCgAwIBAgICA5UwDQYJKoZIhvcNAQEFBQAwgbQxCzAJBgNVBAYTAlVT
MQswCQYDVQQIEwJDQTEVMBMGA1UEBxMMU2FuRnJhbmNpc2NvMRUwEwYDVQQKEwxQ
aXhnbG8sIEluYy4xEDAOBgNVBAsTB1ZQTi1DSUUxGjAYBgNVBAMTEXR1bm5lbC5w
aXhnbG8uY29tMRwwGgYDVQQpExNCYWxhIENoYW5kcmFzZWthcmFuMR4wHAYJKoZI
hvcNAQkBFg9iYWxhQHBpeGdsby5jb20wHhcNMTgwMjE0MDY0NzU4WhcNMjgwMjEy
MDY0NzU4WjCBqTELMAkGA1UEBhMCVVMxCzAJBgNVBAgTAkNBMRUwEwYDVQQHEwxT
YW5GcmFuY2lzY28xFTATBgNVBAoTDFBpeGdsbywgSW5jLjEQMA4GA1UECxMHVlBO
LUNJRTEPMA0GA1UEAxMGY2llOTE2MRwwGgYDVQQpExNCYWxhIENoYW5kcmFzZWth
cmFuMR4wHAYJKoZIhvcNAQkBFg9iYWxhQHBpeGdsby5jb20wggIiMA0GCSqGSIb3
DQEBAQUAA4ICDwAwggIKAoICAQDRYBa4R6WKuFFRqr99BWVuYd65IUPknODKdQ7s
czRoVzjZ8joQBGZl8KWQE6v6FPECyor1ln11ArWQUlFbHNMiaAcQk5PJjI0pCE+f
0fj9UrQRlrrY455yd/Z375st0Zw36tk/jtJXZ+vZyPN+f+Rp+pbdGrSue8TFM4+l
yGwwah2sFBbzdaPKHw+BpEGkJ5soycHaXUkEm62i05lxlukdxGpYQBzz2OykgB2r
iuQAIZx/GlnMHeDx2EOhGwzGruOz51Jw3z6mK8P2/EgSsqy7S9RACshpRbbq9g44
Y91RGOl+osCkt7S6Wm+/bbAZpbM88Nkxf6L0DV/VHo5is0n7euvA+I4kT79ugpLn
6dJiPnjmk06y/ekPUr4Umta0fi2Cwv6gqOJgdoemRBgxcfPjr77nfV1jFo+aJpzh
Nu7t2/lK+O3zxAd3hE6svtUjRkd4YVU3F2e0DnsxePdif15myGIXKJM/NiuibmaT
6U2FjWdK/uMWnYrZvxXTa+e9pWN83AkJh2gsIsPcUKxco8OW1saDBzG5MHa8vYYw
qXlLXIy8SvviiDGfml5RmCvd/SVo7GvqyWkRvw7q/2HE0jXp5qDyvANnJVsJKD7v
O0cJYtNSdVW2vwk7Ugl4xC5l/Wd2V6665xMbmnCnw0GY2vlzYHbC5DfX3qfx9WEh
gMS4owIDAQABo4IBazCCAWcwCQYDVR0TBAIwADAtBglghkgBhvhCAQ0EIBYeRWFz
eS1SU0EgR2VuZXJhdGVkIENlcnRpZmljYXRlMB0GA1UdDgQWBBQ/VentTX3juS2z
vV5AMkOuXBSbdDCB6QYDVR0jBIHhMIHegBTvOI0UUFinW02cF3L837msp1GwEKGB
uqSBtzCBtDELMAkGA1UEBhMCVVMxCzAJBgNVBAgTAkNBMRUwEwYDVQQHEwxTYW5G
cmFuY2lzY28xFTATBgNVBAoTDFBpeGdsbywgSW5jLjEQMA4GA1UECxMHVlBOLUNJ
RTEaMBgGA1UEAxMRdHVubmVsLnBpeGdsby5jb20xHDAaBgNVBCkTE0JhbGEgQ2hh
bmRyYXNla2FyYW4xHjAcBgkqhkiG9w0BCQEWD2JhbGFAcGl4Z2xvLmNvbYIJAKbb
xoOA5qB5MBMGA1UdJQQMMAoGCCsGAQUFBwMCMAsGA1UdDwQEAwIHgDANBgkqhkiG
9w0BAQUFAAOCAgEATUmlsGsJoyxOJ9thItttdclOKQzu3Sxu/uArhL4Eo2t0CC+I
0jMl36xnZvWAXsQCkG35BnL128PdbfEDrQ+H0Aq+f+j2cTvs8p1qIpe4kdPZhmER
GW/Owpj9+QI4ZBWoCJ8PoKpbyobCMTHjfhzJrLwg1jhcSgaHjytA+k2LJBqhQx7P
fz2EqvFn6EesFmRyRN0FTpPgZ+cWXSW/3d6Dew9H8SuR5BqE1n1FCIhXnRLzYTlv
bN0oCCupuib4QmRCXS54UaQYxdGT2ut7qb8OxI33ApoG9NbrzHDjg+1pC8lj4xE6
Gametc/c5p/9Agu2joNspomVDcAxiIq5eWesQdyb/bg1ojul8rh01GxoYHwrSMFU
m9EkpKtp8Sw4yKw7uersNqtk2k8OUtraF3bfCp4lh/dou/J+U0M1caf6uJXIfX8K
TVo2TigITltq2PlExn7CoiHzsizzKkH8ZEplVYkCAo1R24QTgsQ/xz8aMJK2/icO
vR3rQ+Wo1qrepfvGyVXgREo91RQyRXiUyNQdChjYHLvNdRdX8duw4ahfB0BT9dF7
ucgZt+1ppd9P0Lmh2/n8FBAq9URNNdquoLvgm6+Ay6gp4xJPAL/nxhMKEnjzA9Ej
p37jMgYv5BsGiUGrqOvw4kCtrxhRIjHfeKixR4GMdQc3Wc3hCVIOUJcKd48=
-----END CERTIFICATE-----
