Certificate:
    Data:
        Version: 3 (0x2)
        Serial Number: 936 (0x3a8)
    Signature Algorithm: sha1WithRSAEncryption
        Issuer: C=US, ST=CA, L=SanFrancisco, O=Pixglo, Inc., OU=VPN-CIE, CN=tunnel.pixglo.com/name=Bala Chandrasekaran/emailAddress=bala@pixglo.com
        Validity
            Not Before: Feb 14 06:48:35 2018 GMT
            Not After : Feb 12 06:48:35 2028 GMT
        Subject: C=US, ST=CA, L=SanFrancisco, O=Pixglo, Inc., OU=VPN-CIE, CN=cie935/name=Bala Chandrasekaran/emailAddress=bala@pixglo.com
        Subject Public Key Info:
            Public Key Algorithm: rsaEncryption
                Public-Key: (4096 bit)
                Modulus:
                    00:bf:01:ee:cb:e6:d2:3d:77:76:9e:e0:62:38:35:
                    0a:d4:39:70:41:1f:fe:e8:fc:43:90:3e:49:65:e2:
                    2e:ca:79:7a:ce:c8:a1:86:8e:18:b3:93:1a:20:6a:
                    99:3c:7b:ee:4b:69:77:7f:db:1f:df:6e:ec:2e:ec:
                    26:f9:cf:c2:14:de:2d:d1:be:70:7b:f8:20:82:23:
                    f2:6b:67:00:54:71:fe:5c:a7:41:99:ed:e2:f3:38:
                    f8:48:cf:76:13:86:04:f9:ff:73:b6:ff:de:0a:2f:
                    b9:bb:31:14:05:59:f6:26:68:3a:67:d0:a3:2f:aa:
                    91:fb:e4:c9:91:61:8c:7a:2c:7b:40:c4:6e:c1:05:
                    c0:7a:2e:c8:51:dd:12:13:f0:39:07:10:03:97:69:
                    17:88:67:e5:a9:b5:f4:5b:ac:4a:5a:b8:4d:b7:9c:
                    f3:4f:9b:00:86:5a:df:c5:b8:c9:67:ee:de:1b:63:
                    bb:7f:4e:b6:f1:dc:25:85:8c:bc:67:94:3f:e0:b3:
                    fd:86:d3:70:81:3b:6d:3e:82:36:58:95:99:5a:bf:
                    38:98:cf:a8:64:62:39:1d:33:51:f5:cf:68:36:28:
                    7c:08:ff:f5:d8:6e:b7:46:f0:7f:ac:0f:6e:34:32:
                    84:fb:73:38:eb:9a:e7:a2:7c:dc:a7:6a:7d:6a:1b:
                    1d:c2:b5:e9:c9:71:1a:1d:95:47:0f:2d:4e:e1:fd:
                    12:d1:d2:eb:f4:a8:da:1c:13:e3:6e:62:19:66:7e:
                    b3:88:26:71:00:9e:ae:d9:80:84:56:8e:73:1b:4d:
                    00:62:9e:1a:08:8c:22:8b:c0:04:c7:0e:92:56:dd:
                    1a:e4:3d:94:c4:0a:72:1a:f4:0c:6d:b2:d8:52:3f:
                    9e:4e:83:ce:57:f2:2b:81:24:a8:f4:5d:a9:b5:b1:
                    bf:55:e0:11:20:29:f1:8c:d9:e4:bc:96:93:df:63:
                    fd:e9:f6:e8:58:39:f6:25:3f:68:e1:8c:90:20:8e:
                    14:be:5c:fc:ad:0e:74:e6:49:d6:64:76:0b:c1:e5:
                    99:aa:df:d6:da:52:bc:fb:98:cf:88:60:40:da:09:
                    1e:cb:5b:7d:a5:8e:e5:59:b4:07:b2:1e:45:de:41:
                    bf:5f:07:5d:9f:14:48:23:68:70:5a:c7:7f:9b:22:
                    8e:09:53:e6:b9:47:78:7d:2b:d2:f4:5e:25:86:de:
                    37:be:33:7e:4c:1c:00:a8:11:a0:6e:09:ea:48:a0:
                    7f:c8:a7:bb:8c:8f:43:6c:37:f3:0d:10:e5:bc:f0:
                    29:42:10:ca:b1:18:c2:3f:b5:16:cf:e7:2a:a2:46:
                    7f:f0:35:ea:e7:85:f7:4b:d2:2b:33:17:17:1a:3a:
                    87:3b:df
                Exponent: 65537 (0x10001)
        X509v3 extensions:
            X509v3 Basic Constraints: 
                CA:FALSE
            Netscape Comment: 
                Easy-RSA Generated Certificate
            X509v3 Subject Key Identifier: 
                6E:C2:02:E4:3A:95:96:AC:F4:FA:A9:1B:50:04:2D:54:FB:83:7F:75
            X509v3 Authority Key Identifier: 
                keyid:EF:38:8D:14:50:58:A7:5B:4D:9C:17:72:FC:DF:B9:AC:A7:51:B0:10
                DirName:/C=US/ST=CA/L=SanFrancisco/O=Pixglo, Inc./OU=VPN-CIE/CN=tunnel.pixglo.com/name=Bala Chandrasekaran/emailAddress=bala@pixglo.com
                serial:A6:DB:C6:83:80:E6:A0:79

            X509v3 Extended Key Usage: 
                TLS Web Client Authentication
            X509v3 Key Usage: 
                Digital Signature
    Signature Algorithm: sha1WithRSAEncryption
         73:de:50:1c:b1:fe:10:5e:8b:0c:85:9f:46:2e:e1:eb:06:9b:
         c2:4d:0a:13:86:e0:82:e9:bf:3b:64:8f:9e:0f:d8:4a:80:9c:
         00:62:a5:ce:c7:63:57:8d:d8:d4:d0:58:42:dc:31:64:4d:63:
         84:ce:ec:4d:68:21:12:0f:ab:41:cb:b2:98:5b:c6:92:2b:ea:
         a9:a1:e1:12:2f:00:b1:b1:7a:8a:95:0c:bd:2b:7c:78:6f:f7:
         3e:33:6a:f6:16:fd:db:08:e5:5a:7a:e7:29:33:54:34:ea:db:
         dd:50:d2:2e:1f:5d:86:0a:46:ca:e5:06:d0:57:c8:a5:96:6c:
         5e:ce:b3:cb:55:57:56:02:b1:6f:e2:64:da:14:5c:98:1d:bf:
         bc:8a:54:68:f4:3c:6f:6d:b9:5f:53:53:86:a5:f3:d0:30:10:
         85:79:cd:e1:90:e8:c3:65:21:f9:47:73:69:fc:c6:5a:2d:ff:
         9c:26:08:0f:a2:54:10:7d:7a:53:1a:cd:77:c2:10:2a:ae:74:
         d7:d0:22:49:be:e9:50:55:8e:bf:a8:2c:6c:2c:ae:87:99:35:
         94:a6:f6:85:40:02:9d:8b:2f:88:1d:19:2d:83:37:74:0d:a6:
         2a:df:dc:ed:4e:f8:ac:d0:91:5f:e3:a3:1a:24:58:48:fe:b8:
         a7:6e:46:68:1c:94:d2:81:4e:26:25:f1:9a:f7:b6:d0:65:74:
         52:8a:e9:51:27:06:24:0a:15:f7:9c:02:a1:cf:09:24:a4:bb:
         85:d3:e3:5e:b0:3d:af:6e:6e:a9:4a:ec:bf:68:0a:09:ae:40:
         f2:32:de:c5:22:f9:e2:6b:43:e4:ca:b2:18:a5:d5:66:7e:89:
         30:59:82:14:b9:cc:26:62:4a:f2:d5:cf:bd:f9:49:da:4b:22:
         dd:f3:f5:7f:e2:12:07:2c:92:02:2b:8f:c9:85:44:a5:bc:33:
         82:74:27:6a:c7:b3:b7:ff:68:4b:c6:f2:4a:9c:8c:77:0a:6b:
         a0:76:cd:25:b8:14:48:b2:75:ac:93:81:21:29:ff:dd:17:fd:
         54:b2:92:a8:0e:18:20:da:b4:75:56:1c:7d:43:c5:cc:4d:8b:
         91:a8:e3:6c:11:0d:c0:27:6a:86:73:35:5d:dd:2d:74:ab:ac:
         ac:fa:2f:97:fd:14:ad:c3:97:da:82:51:e8:fc:3c:58:98:34:
         92:fe:84:ef:7f:3e:bb:70:f6:c9:0d:0b:fb:c3:ec:58:86:c6:
         af:e9:d7:fc:65:50:81:96:5d:2f:e4:67:67:dd:b1:d6:1c:a4:
         bb:03:60:f6:6d:46:b4:a6:6d:d6:69:a6:34:82:eb:97:93:2f:
         30:7a:f1:a0:68:f4:a3:a8
-----BEGIN CERTIFICATE-----
MIIHSDCCBTCgAwIBAgICA6gwDQYJKoZIhvcNAQEFBQAwgbQxCzAJBgNVBAYTAlVT
MQswCQYDVQQIEwJDQTEVMBMGA1UEBxMMU2FuRnJhbmNpc2NvMRUwEwYDVQQKEwxQ
aXhnbG8sIEluYy4xEDAOBgNVBAsTB1ZQTi1DSUUxGjAYBgNVBAMTEXR1bm5lbC5w
aXhnbG8uY29tMRwwGgYDVQQpExNCYWxhIENoYW5kcmFzZWthcmFuMR4wHAYJKoZI
hvcNAQkBFg9iYWxhQHBpeGdsby5jb20wHhcNMTgwMjE0MDY0ODM1WhcNMjgwMjEy
MDY0ODM1WjCBqTELMAkGA1UEBhMCVVMxCzAJBgNVBAgTAkNBMRUwEwYDVQQHEwxT
YW5GcmFuY2lzY28xFTATBgNVBAoTDFBpeGdsbywgSW5jLjEQMA4GA1UECxMHVlBO
LUNJRTEPMA0GA1UEAxMGY2llOTM1MRwwGgYDVQQpExNCYWxhIENoYW5kcmFzZWth
cmFuMR4wHAYJKoZIhvcNAQkBFg9iYWxhQHBpeGdsby5jb20wggIiMA0GCSqGSIb3
DQEBAQUAA4ICDwAwggIKAoICAQC/Ae7L5tI9d3ae4GI4NQrUOXBBH/7o/EOQPkll
4i7KeXrOyKGGjhizkxogapk8e+5LaXd/2x/fbuwu7Cb5z8IU3i3RvnB7+CCCI/Jr
ZwBUcf5cp0GZ7eLzOPhIz3YThgT5/3O2/94KL7m7MRQFWfYmaDpn0KMvqpH75MmR
YYx6LHtAxG7BBcB6LshR3RIT8DkHEAOXaReIZ+WptfRbrEpauE23nPNPmwCGWt/F
uMln7t4bY7t/Trbx3CWFjLxnlD/gs/2G03CBO20+gjZYlZlavziYz6hkYjkdM1H1
z2g2KHwI//XYbrdG8H+sD240MoT7czjrmueifNynan1qGx3CtenJcRodlUcPLU7h
/RLR0uv0qNocE+NuYhlmfrOIJnEAnq7ZgIRWjnMbTQBinhoIjCKLwATHDpJW3Rrk
PZTECnIa9AxtsthSP55Og85X8iuBJKj0Xam1sb9V4BEgKfGM2eS8lpPfY/3p9uhY
OfYlP2jhjJAgjhS+XPytDnTmSdZkdgvB5Zmq39baUrz7mM+IYEDaCR7LW32ljuVZ
tAeyHkXeQb9fB12fFEgjaHBax3+bIo4JU+a5R3h9K9L0XiWG3je+M35MHACoEaBu
CepIoH/Ip7uMj0NsN/MNEOW88ClCEMqxGMI/tRbP5yqiRn/wNernhfdL0iszFxca
Ooc73wIDAQABo4IBazCCAWcwCQYDVR0TBAIwADAtBglghkgBhvhCAQ0EIBYeRWFz
eS1SU0EgR2VuZXJhdGVkIENlcnRpZmljYXRlMB0GA1UdDgQWBBRuwgLkOpWWrPT6
qRtQBC1U+4N/dTCB6QYDVR0jBIHhMIHegBTvOI0UUFinW02cF3L837msp1GwEKGB
uqSBtzCBtDELMAkGA1UEBhMCVVMxCzAJBgNVBAgTAkNBMRUwEwYDVQQHEwxTYW5G
cmFuY2lzY28xFTATBgNVBAoTDFBpeGdsbywgSW5jLjEQMA4GA1UECxMHVlBOLUNJ
RTEaMBgGA1UEAxMRdHVubmVsLnBpeGdsby5jb20xHDAaBgNVBCkTE0JhbGEgQ2hh
bmRyYXNla2FyYW4xHjAcBgkqhkiG9w0BCQEWD2JhbGFAcGl4Z2xvLmNvbYIJAKbb
xoOA5qB5MBMGA1UdJQQMMAoGCCsGAQUFBwMCMAsGA1UdDwQEAwIHgDANBgkqhkiG
9w0BAQUFAAOCAgEAc95QHLH+EF6LDIWfRi7h6wabwk0KE4bggum/O2SPng/YSoCc
AGKlzsdjV43Y1NBYQtwxZE1jhM7sTWghEg+rQcuymFvGkivqqaHhEi8AsbF6ipUM
vSt8eG/3PjNq9hb92wjlWnrnKTNUNOrb3VDSLh9dhgpGyuUG0FfIpZZsXs6zy1VX
VgKxb+Jk2hRcmB2/vIpUaPQ8b225X1NThqXz0DAQhXnN4ZDow2Uh+UdzafzGWi3/
nCYID6JUEH16UxrNd8IQKq5019AiSb7pUFWOv6gsbCyuh5k1lKb2hUACnYsviB0Z
LYM3dA2mKt/c7U74rNCRX+OjGiRYSP64p25GaByU0oFOJiXxmve20GV0UorpUScG
JAoV95wCoc8JJKS7hdPjXrA9r25uqUrsv2gKCa5A8jLexSL54mtD5MqyGKXVZn6J
MFmCFLnMJmJK8tXPvflJ2ksi3fP1f+ISByySAiuPyYVEpbwzgnQnasezt/9oS8by
SpyMdwproHbNJbgUSLJ1rJOBISn/3Rf9VLKSqA4YINq0dVYcfUPFzE2LkajjbBEN
wCdqhnM1Xd0tdKusrPovl/0UrcOX2oJR6Pw8WJg0kv6E738+u3D2yQ0L+8PsWIbG
r+nX/GVQgZZdL+RnZ92x1hykuwNg9m1GtKZt1mmmNILrl5MvMHrxoGj0o6g=
-----END CERTIFICATE-----
