Certificate:
    Data:
        Version: 3 (0x2)
        Serial Number: 972 (0x3cc)
    Signature Algorithm: sha1WithRSAEncryption
        Issuer: C=US, ST=CA, L=SanFrancisco, O=Pixglo, Inc., OU=VPN-CIE, CN=tunnel.pixglo.com/name=Bala Chandrasekaran/emailAddress=bala@pixglo.com
        Validity
            Not Before: Feb 14 06:49:41 2018 GMT
            Not After : Feb 12 06:49:41 2028 GMT
        Subject: C=US, ST=CA, L=SanFrancisco, O=Pixglo, Inc., OU=VPN-CIE, CN=cie971/name=Bala Chandrasekaran/emailAddress=bala@pixglo.com
        Subject Public Key Info:
            Public Key Algorithm: rsaEncryption
                Public-Key: (4096 bit)
                Modulus:
                    00:c9:46:43:c1:05:0d:e7:b6:c1:16:4f:2e:19:41:
                    92:42:b7:fe:c8:21:14:8d:eb:4f:bd:84:46:22:1a:
                    1e:2d:ac:6e:61:82:19:1c:8b:08:a7:99:79:e8:92:
                    fd:c5:8b:9c:49:21:0d:61:7d:bf:3b:d0:17:74:28:
                    a2:3a:ec:21:d8:c7:a6:86:e8:aa:dc:55:a2:38:6f:
                    0a:a7:ba:79:89:0c:ba:72:c8:18:82:c2:d5:e4:c2:
                    f5:97:23:bc:0f:a1:68:18:11:41:3b:14:44:47:0f:
                    6d:69:a6:a8:6b:4d:ab:9e:df:3b:12:0c:c6:39:b9:
                    13:57:a7:63:53:2c:7d:87:ec:ba:ad:01:2f:19:f8:
                    93:a8:64:c2:59:07:a5:0c:cf:ab:a8:e0:35:ab:ce:
                    db:59:05:28:f6:c4:50:bd:71:63:34:10:db:e7:85:
                    ba:3b:2f:b7:cf:bf:45:1c:51:3b:d4:12:4e:b3:10:
                    49:e0:c2:9f:58:5e:22:e6:83:24:dd:b3:13:22:70:
                    a6:8e:09:3c:d3:75:45:d2:6b:e6:97:17:db:8f:ae:
                    31:32:64:29:98:60:a1:ae:b1:4e:10:6b:16:33:fe:
                    8a:7e:9f:47:a1:02:35:f3:bb:c9:3a:90:96:85:3b:
                    23:79:e9:8f:c6:c8:88:22:c1:96:4a:0c:20:27:f3:
                    6c:39:2f:9e:ea:05:f5:d1:a2:d6:cb:9e:b0:6e:d1:
                    50:2a:5e:17:67:61:00:d6:5c:da:04:df:fe:ec:36:
                    47:0a:e3:e0:7b:48:fe:b7:60:24:c3:d6:49:c8:c6:
                    d1:08:ef:dd:bb:cb:7b:43:5d:13:8e:19:7f:a7:a2:
                    3d:b3:7f:9c:77:25:dd:40:4e:f6:a8:d9:34:a0:19:
                    53:40:14:fd:8c:ff:a6:6a:e1:99:b8:31:ab:ae:82:
                    68:d1:1a:3d:e4:d8:1a:5e:0a:2c:50:43:2b:9c:1f:
                    5c:92:09:a4:21:36:7e:24:66:c0:62:f6:50:79:ec:
                    72:c2:11:15:39:11:bf:f7:fc:56:50:64:7b:54:63:
                    cc:06:53:b4:4c:c5:27:fb:ba:35:b8:b2:ee:f6:35:
                    59:11:a8:a6:68:09:95:c9:6c:ac:48:6e:89:29:13:
                    41:68:4e:fc:68:6f:fd:91:58:e9:75:e5:ec:ad:fa:
                    46:ca:a2:9f:5f:e7:3e:8e:f0:a4:f2:00:bc:5e:cb:
                    a3:57:e5:27:fc:b2:5b:21:86:d9:79:83:73:55:12:
                    23:8b:65:86:c2:54:74:ba:29:f4:0a:f4:ee:af:8c:
                    4b:88:76:51:af:27:8a:ec:59:da:d8:89:7c:55:52:
                    f7:72:55:e6:e1:32:f2:bd:06:c4:f4:6d:cf:18:73:
                    ea:99:fd
                Exponent: 65537 (0x10001)
        X509v3 extensions:
            X509v3 Basic Constraints: 
                CA:FALSE
            Netscape Comment: 
                Easy-RSA Generated Certificate
            X509v3 Subject Key Identifier: 
                8D:3D:36:8C:EC:4E:D6:DE:68:5B:00:50:D1:0C:BC:E9:2D:1B:DF:CC
            X509v3 Authority Key Identifier: 
                keyid:EF:38:8D:14:50:58:A7:5B:4D:9C:17:72:FC:DF:B9:AC:A7:51:B0:10
                DirName:/C=US/ST=CA/L=SanFrancisco/O=Pixglo, Inc./OU=VPN-CIE/CN=tunnel.pixglo.com/name=Bala Chandrasekaran/emailAddress=bala@pixglo.com
                serial:A6:DB:C6:83:80:E6:A0:79

            X509v3 Extended Key Usage: 
                TLS Web Client Authentication
            X509v3 Key Usage: 
                Digital Signature
    Signature Algorithm: sha1WithRSAEncryption
         16:c5:90:ac:01:19:87:97:59:29:7d:46:84:7f:b2:20:1e:79:
         7d:13:fa:90:64:eb:9e:a7:fe:3f:2b:e7:21:35:07:47:ba:e5:
         27:18:6c:48:63:64:9a:ff:3d:9c:0e:d7:92:6d:d1:51:64:00:
         4c:d8:df:ad:60:93:45:5e:c8:da:2a:23:24:f2:30:af:6f:36:
         45:f4:b4:3e:16:04:a0:1f:cf:0c:93:0d:5c:5a:f9:cb:c3:7f:
         ea:d5:2b:8c:46:16:4d:e8:a3:a6:35:57:41:0c:c5:7e:25:05:
         7a:a5:0c:8e:01:54:7a:52:c9:90:76:37:92:4c:28:32:e0:63:
         ab:fd:ec:43:87:57:b8:71:13:72:c7:fb:b2:50:da:b8:68:82:
         3f:24:7d:b4:0c:1a:af:b1:07:1d:c6:34:8e:53:8b:a8:46:cf:
         03:7a:15:0b:0e:46:8f:b7:ae:00:65:53:81:5b:f3:0a:70:ba:
         03:11:1c:42:ca:de:b7:b7:34:2c:4d:25:65:cf:db:78:15:de:
         b2:02:c1:9a:65:02:16:4d:df:d7:c5:a8:82:2b:de:65:50:93:
         9a:8e:9f:bb:67:42:0d:21:d6:b9:b3:6d:7f:02:99:77:61:fb:
         27:af:f2:9f:08:05:3d:aa:51:8f:ed:84:bd:fa:ff:e5:39:0b:
         73:24:56:af:d2:cc:01:ad:5e:4f:a7:9b:13:38:e3:01:19:60:
         42:fd:08:c6:2c:bc:18:a8:24:1d:71:0c:ef:1e:60:e6:3e:c0:
         70:c3:3d:04:59:7d:a2:a6:ff:68:0c:f5:83:dd:46:05:60:df:
         b7:50:76:41:ad:68:a1:3d:22:ac:50:c5:b9:24:8f:31:dd:79:
         d8:e9:ca:0b:06:bb:6b:27:37:3e:37:12:bc:a4:0d:52:16:0e:
         94:b4:d5:e4:de:dd:c1:3e:37:86:3b:fc:da:ff:90:4e:4e:b6:
         a8:73:dc:2f:4c:63:31:e7:4f:0d:ce:30:7a:e5:f3:b7:8d:eb:
         a5:2d:8f:b3:7d:bc:4e:cb:20:17:ea:41:d6:16:94:bf:cf:8b:
         fb:34:c4:7d:72:f8:97:8f:9a:83:f0:36:4d:7d:8c:bb:6f:15:
         d1:2b:8c:64:01:92:80:18:5a:49:16:f7:43:66:04:ad:55:e5:
         30:fa:1e:da:a9:a1:0b:65:f9:8b:af:6f:7d:c6:8e:91:7a:f9:
         60:10:f9:7b:22:cf:fc:6c:e3:21:1e:65:e1:9e:7d:84:d5:5f:
         84:09:a4:f3:7b:bf:11:1e:6a:4d:16:10:c6:32:b3:66:0e:e2:
         29:38:5a:f8:4e:0d:81:8a:a5:11:e8:6a:d6:6a:0e:93:e5:68:
         00:20:44:4a:64:d4:b5:31
-----BEGIN CERTIFICATE-----
MIIHSDCCBTCgAwIBAgICA8wwDQYJKoZIhvcNAQEFBQAwgbQxCzAJBgNVBAYTAlVT
MQswCQYDVQQIEwJDQTEVMBMGA1UEBxMMU2FuRnJhbmNpc2NvMRUwEwYDVQQKEwxQ
aXhnbG8sIEluYy4xEDAOBgNVBAsTB1ZQTi1DSUUxGjAYBgNVBAMTEXR1bm5lbC5w
aXhnbG8uY29tMRwwGgYDVQQpExNCYWxhIENoYW5kcmFzZWthcmFuMR4wHAYJKoZI
hvcNAQkBFg9iYWxhQHBpeGdsby5jb20wHhcNMTgwMjE0MDY0OTQxWhcNMjgwMjEy
MDY0OTQxWjCBqTELMAkGA1UEBhMCVVMxCzAJBgNVBAgTAkNBMRUwEwYDVQQHEwxT
YW5GcmFuY2lzY28xFTATBgNVBAoTDFBpeGdsbywgSW5jLjEQMA4GA1UECxMHVlBO
LUNJRTEPMA0GA1UEAxMGY2llOTcxMRwwGgYDVQQpExNCYWxhIENoYW5kcmFzZWth
cmFuMR4wHAYJKoZIhvcNAQkBFg9iYWxhQHBpeGdsby5jb20wggIiMA0GCSqGSIb3
DQEBAQUAA4ICDwAwggIKAoICAQDJRkPBBQ3ntsEWTy4ZQZJCt/7IIRSN60+9hEYi
Gh4trG5hghkciwinmXnokv3Fi5xJIQ1hfb870Bd0KKI67CHYx6aG6KrcVaI4bwqn
unmJDLpyyBiCwtXkwvWXI7wPoWgYEUE7FERHD21ppqhrTaue3zsSDMY5uRNXp2NT
LH2H7LqtAS8Z+JOoZMJZB6UMz6uo4DWrzttZBSj2xFC9cWM0ENvnhbo7L7fPv0Uc
UTvUEk6zEEngwp9YXiLmgyTdsxMicKaOCTzTdUXSa+aXF9uPrjEyZCmYYKGusU4Q
axYz/op+n0ehAjXzu8k6kJaFOyN56Y/GyIgiwZZKDCAn82w5L57qBfXRotbLnrBu
0VAqXhdnYQDWXNoE3/7sNkcK4+B7SP63YCTD1knIxtEI7927y3tDXROOGX+noj2z
f5x3Jd1ATvao2TSgGVNAFP2M/6Zq4Zm4MauugmjRGj3k2BpeCixQQyucH1ySCaQh
Nn4kZsBi9lB57HLCERU5Eb/3/FZQZHtUY8wGU7RMxSf7ujW4su72NVkRqKZoCZXJ
bKxIbokpE0FoTvxob/2RWOl15eyt+kbKop9f5z6O8KTyALxey6NX5Sf8slshhtl5
g3NVEiOLZYbCVHS6KfQK9O6vjEuIdlGvJ4rsWdrYiXxVUvdyVebhMvK9BsT0bc8Y
c+qZ/QIDAQABo4IBazCCAWcwCQYDVR0TBAIwADAtBglghkgBhvhCAQ0EIBYeRWFz
eS1SU0EgR2VuZXJhdGVkIENlcnRpZmljYXRlMB0GA1UdDgQWBBSNPTaM7E7W3mhb
AFDRDLzpLRvfzDCB6QYDVR0jBIHhMIHegBTvOI0UUFinW02cF3L837msp1GwEKGB
uqSBtzCBtDELMAkGA1UEBhMCVVMxCzAJBgNVBAgTAkNBMRUwEwYDVQQHEwxTYW5G
cmFuY2lzY28xFTATBgNVBAoTDFBpeGdsbywgSW5jLjEQMA4GA1UECxMHVlBOLUNJ
RTEaMBgGA1UEAxMRdHVubmVsLnBpeGdsby5jb20xHDAaBgNVBCkTE0JhbGEgQ2hh
bmRyYXNla2FyYW4xHjAcBgkqhkiG9w0BCQEWD2JhbGFAcGl4Z2xvLmNvbYIJAKbb
xoOA5qB5MBMGA1UdJQQMMAoGCCsGAQUFBwMCMAsGA1UdDwQEAwIHgDANBgkqhkiG
9w0BAQUFAAOCAgEAFsWQrAEZh5dZKX1GhH+yIB55fRP6kGTrnqf+PyvnITUHR7rl
JxhsSGNkmv89nA7Xkm3RUWQATNjfrWCTRV7I2iojJPIwr282RfS0PhYEoB/PDJMN
XFr5y8N/6tUrjEYWTeijpjVXQQzFfiUFeqUMjgFUelLJkHY3kkwoMuBjq/3sQ4dX
uHETcsf7slDauGiCPyR9tAwar7EHHcY0jlOLqEbPA3oVCw5Gj7euAGVTgVvzCnC6
AxEcQsret7c0LE0lZc/beBXesgLBmmUCFk3f18WogiveZVCTmo6fu2dCDSHWubNt
fwKZd2H7J6/ynwgFPapRj+2Evfr/5TkLcyRWr9LMAa1eT6ebEzjjARlgQv0Ixiy8
GKgkHXEM7x5g5j7AcMM9BFl9oqb/aAz1g91GBWDft1B2Qa1ooT0irFDFuSSPMd15
2OnKCwa7ayc3PjcSvKQNUhYOlLTV5N7dwT43hjv82v+QTk62qHPcL0xjMedPDc4w
euXzt43rpS2Ps328TssgF+pB1haUv8+L+zTEfXL4l4+ag/A2TX2Mu28V0SuMZAGS
gBhaSRb3Q2YErVXlMPoe2qmhC2X5i69vfcaOkXr5YBD5eyLP/GzjIR5l4Z59hNVf
hAmk83u/ER5qTRYQxjKzZg7iKTha+E4NgYqlEehq1moOk+VoACBESmTUtTE=
-----END CERTIFICATE-----
