Certificate:
    Data:
        Version: 3 (0x2)
        Serial Number: 939 (0x3ab)
    Signature Algorithm: sha1WithRSAEncryption
        Issuer: C=US, ST=CA, L=SanFrancisco, O=Pixglo, Inc., OU=VPN-CIE, CN=tunnel.pixglo.com/name=Bala Chandrasekaran/emailAddress=bala@pixglo.com
        Validity
            Not Before: Feb 14 06:48:39 2018 GMT
            Not After : Feb 12 06:48:39 2028 GMT
        Subject: C=US, ST=CA, L=SanFrancisco, O=Pixglo, Inc., OU=VPN-CIE, CN=cie938/name=Bala Chandrasekaran/emailAddress=bala@pixglo.com
        Subject Public Key Info:
            Public Key Algorithm: rsaEncryption
                Public-Key: (4096 bit)
                Modulus:
                    00:cc:e9:e5:b0:eb:00:85:c8:3c:24:41:2c:be:d5:
                    0a:01:39:f7:fd:a1:41:22:6e:3b:00:b3:a0:90:3b:
                    d5:1f:ae:5b:2a:d0:84:66:9d:c7:ce:f9:18:75:77:
                    01:4a:fd:b0:22:19:b2:b9:53:0f:d8:ce:a4:58:41:
                    79:da:52:fc:db:34:9e:e0:93:82:8f:8b:5c:ea:ee:
                    ec:ed:14:7b:3e:86:71:14:55:bd:3d:d5:29:aa:fa:
                    29:3f:6d:f5:91:42:b4:c0:fc:12:2c:1d:0b:95:c0:
                    4a:30:79:17:52:d5:ea:8d:97:52:fe:3a:cd:ba:f5:
                    f4:f6:75:2a:d4:9c:31:c8:0a:0a:54:2f:02:07:68:
                    2e:5e:d4:33:44:76:0a:dc:e7:7b:c2:a4:c9:fb:6a:
                    90:8a:f2:ba:75:69:b8:99:a7:7b:af:4b:29:04:0f:
                    b3:09:ad:4c:54:98:7c:97:9d:a3:2d:1c:04:a8:70:
                    ba:f1:32:6b:96:13:fe:44:1b:3e:c6:9b:10:5b:45:
                    08:da:79:eb:df:f6:01:ac:16:c0:eb:f1:61:69:59:
                    a4:ce:2a:e9:9c:fe:ca:b2:d5:f8:09:b7:d9:3c:9c:
                    c9:52:df:09:86:6d:2c:0e:f3:0a:3d:74:d8:e2:a6:
                    f4:f0:75:18:cf:5a:52:bd:34:aa:e3:96:9e:58:a8:
                    17:de:39:d2:90:99:1f:59:21:30:1f:5b:1e:09:05:
                    1c:7e:d3:0e:28:96:62:bc:ac:bd:dc:a0:e0:46:70:
                    a5:16:a4:85:ea:60:c9:f3:4f:33:f0:47:22:e8:21:
                    7e:dd:80:1f:09:07:ee:a7:38:18:c0:f5:20:68:ae:
                    ba:84:7d:dd:e9:85:ab:60:0d:85:62:1b:23:1d:8c:
                    e3:28:48:28:a7:a7:27:56:f9:cf:06:38:46:c7:fd:
                    17:a6:f5:e1:33:9a:e1:10:6e:26:9c:9e:c3:03:88:
                    cf:6b:15:1f:0f:94:b4:63:ab:1d:21:61:3f:30:9b:
                    8c:aa:12:4c:12:e4:fb:d4:58:28:e1:aa:8e:00:b9:
                    c7:00:e2:b9:0c:00:66:4c:b6:14:69:ab:9a:a7:7d:
                    4d:6a:5d:81:0a:35:6c:a8:92:68:19:f1:c5:5b:06:
                    b0:97:01:59:07:48:e1:2c:84:a9:b5:fb:56:b8:86:
                    e9:0e:d0:29:79:34:6b:e2:49:19:14:c0:69:e7:24:
                    e9:f8:e9:a5:61:e6:87:a7:3d:d0:3c:e4:12:e8:fb:
                    00:71:28:15:2b:b4:1c:29:79:a5:2e:64:df:de:bd:
                    03:79:fd:49:20:22:63:cb:3e:a3:02:9a:12:fe:b6:
                    f2:68:4e:37:9a:b7:92:c0:b7:20:22:6e:a6:ac:76:
                    b0:46:3f
                Exponent: 65537 (0x10001)
        X509v3 extensions:
            X509v3 Basic Constraints: 
                CA:FALSE
            Netscape Comment: 
                Easy-RSA Generated Certificate
            X509v3 Subject Key Identifier: 
                FF:B6:C7:94:C1:A1:C9:0D:0E:22:C9:DD:66:71:BF:4C:E3:DC:A9:99
            X509v3 Authority Key Identifier: 
                keyid:EF:38:8D:14:50:58:A7:5B:4D:9C:17:72:FC:DF:B9:AC:A7:51:B0:10
                DirName:/C=US/ST=CA/L=SanFrancisco/O=Pixglo, Inc./OU=VPN-CIE/CN=tunnel.pixglo.com/name=Bala Chandrasekaran/emailAddress=bala@pixglo.com
                serial:A6:DB:C6:83:80:E6:A0:79

            X509v3 Extended Key Usage: 
                TLS Web Client Authentication
            X509v3 Key Usage: 
                Digital Signature
    Signature Algorithm: sha1WithRSAEncryption
         65:19:d0:06:d2:24:20:e4:c2:13:cd:0e:67:db:ae:43:80:7b:
         8a:9b:d8:63:b0:95:0f:d3:2b:5f:0a:27:12:18:57:0a:2e:97:
         f1:eb:43:34:3c:a2:48:99:a2:e0:62:c0:09:36:25:70:d9:a1:
         06:c3:fe:80:61:5e:40:0b:33:1e:80:6d:55:2b:ff:5c:23:ae:
         4f:12:48:e8:9e:aa:6a:1c:96:ac:c5:0f:ed:eb:9c:a3:72:6f:
         dd:80:39:71:ab:ba:55:77:05:30:ed:aa:44:34:f5:59:13:67:
         f6:99:57:82:f7:54:58:68:dc:17:83:f6:43:ec:69:d0:57:7e:
         b4:25:ec:19:fd:3a:c3:63:35:b2:55:4f:60:c8:31:24:bf:0f:
         14:c8:29:7f:cc:c9:cc:a5:c8:c0:35:f6:1d:73:c9:29:4b:fd:
         e6:a0:c8:57:82:7e:b6:ff:55:52:cd:f8:5c:7e:ac:bf:cd:9e:
         b3:36:33:8e:d5:45:46:83:63:1b:ba:fd:7b:e3:14:88:61:ca:
         ce:19:7b:e7:fd:3e:05:74:04:e4:e6:80:fa:c4:35:b4:2e:cf:
         ae:04:da:38:b7:fb:d9:d5:8c:71:1f:e0:bf:2a:a6:92:30:fc:
         4e:ba:80:bd:17:17:6f:df:67:ea:f3:d3:b6:a9:25:a0:cb:55:
         6a:37:df:9a:70:0f:b1:22:a1:0a:f8:6c:2c:0a:77:0b:68:73:
         c9:76:f2:74:fa:8f:2a:97:8b:3a:e2:f1:61:00:50:25:ca:1f:
         56:16:bb:91:fa:58:13:a3:b2:c1:2f:ec:8d:66:a1:db:81:0c:
         ec:e9:c8:8d:7b:d5:a3:80:1d:c7:ca:aa:76:e6:55:7a:7b:6c:
         58:14:27:52:61:14:36:83:3a:0f:18:61:0f:cd:0a:74:0c:f7:
         be:d5:1f:55:6b:e5:38:ab:8c:a0:58:fb:c9:f3:de:39:70:c3:
         87:39:6e:43:45:e7:36:9f:38:0f:6c:aa:ff:9d:ea:a8:3e:e8:
         e8:09:6d:42:56:e5:5d:13:d7:55:e3:fb:44:17:5b:12:ec:3b:
         f0:71:23:1a:77:b0:b9:2a:3b:09:75:70:c2:8e:7a:63:6c:73:
         4c:f9:6c:5d:6e:27:1f:b6:ad:de:d4:45:cd:88:ab:4d:77:cb:
         05:7e:a4:ec:09:f0:4c:02:fa:78:7d:5f:9b:10:44:5d:74:e9:
         7d:53:4d:af:62:7b:c5:c3:7e:35:06:2e:93:55:1c:c0:a7:99:
         b4:2a:b9:79:27:c3:57:3d:6d:8d:98:38:b9:1c:98:63:33:af:
         f8:64:63:29:60:3f:ee:63:65:17:ff:e3:6e:b7:7d:35:93:5f:
         fe:84:f1:7e:bd:37:74:9d
-----BEGIN CERTIFICATE-----
MIIHSDCCBTCgAwIBAgICA6swDQYJKoZIhvcNAQEFBQAwgbQxCzAJBgNVBAYTAlVT
MQswCQYDVQQIEwJDQTEVMBMGA1UEBxMMU2FuRnJhbmNpc2NvMRUwEwYDVQQKEwxQ
aXhnbG8sIEluYy4xEDAOBgNVBAsTB1ZQTi1DSUUxGjAYBgNVBAMTEXR1bm5lbC5w
aXhnbG8uY29tMRwwGgYDVQQpExNCYWxhIENoYW5kcmFzZWthcmFuMR4wHAYJKoZI
hvcNAQkBFg9iYWxhQHBpeGdsby5jb20wHhcNMTgwMjE0MDY0ODM5WhcNMjgwMjEy
MDY0ODM5WjCBqTELMAkGA1UEBhMCVVMxCzAJBgNVBAgTAkNBMRUwEwYDVQQHEwxT
YW5GcmFuY2lzY28xFTATBgNVBAoTDFBpeGdsbywgSW5jLjEQMA4GA1UECxMHVlBO
LUNJRTEPMA0GA1UEAxMGY2llOTM4MRwwGgYDVQQpExNCYWxhIENoYW5kcmFzZWth
cmFuMR4wHAYJKoZIhvcNAQkBFg9iYWxhQHBpeGdsby5jb20wggIiMA0GCSqGSIb3
DQEBAQUAA4ICDwAwggIKAoICAQDM6eWw6wCFyDwkQSy+1QoBOff9oUEibjsAs6CQ
O9Ufrlsq0IRmncfO+Rh1dwFK/bAiGbK5Uw/YzqRYQXnaUvzbNJ7gk4KPi1zq7uzt
FHs+hnEUVb091Smq+ik/bfWRQrTA/BIsHQuVwEoweRdS1eqNl1L+Os269fT2dSrU
nDHICgpULwIHaC5e1DNEdgrc53vCpMn7apCK8rp1abiZp3uvSykED7MJrUxUmHyX
naMtHASocLrxMmuWE/5EGz7GmxBbRQjaeevf9gGsFsDr8WFpWaTOKumc/sqy1fgJ
t9k8nMlS3wmGbSwO8wo9dNjipvTwdRjPWlK9NKrjlp5YqBfeOdKQmR9ZITAfWx4J
BRx+0w4olmK8rL3coOBGcKUWpIXqYMnzTzPwRyLoIX7dgB8JB+6nOBjA9SBorrqE
fd3phatgDYViGyMdjOMoSCinpydW+c8GOEbH/Rem9eEzmuEQbiacnsMDiM9rFR8P
lLRjqx0hYT8wm4yqEkwS5PvUWCjhqo4AuccA4rkMAGZMthRpq5qnfU1qXYEKNWyo
kmgZ8cVbBrCXAVkHSOEshKm1+1a4hukO0Cl5NGviSRkUwGnnJOn46aVh5oenPdA8
5BLo+wBxKBUrtBwpeaUuZN/evQN5/UkgImPLPqMCmhL+tvJoTjeat5LAtyAibqas
drBGPwIDAQABo4IBazCCAWcwCQYDVR0TBAIwADAtBglghkgBhvhCAQ0EIBYeRWFz
eS1SU0EgR2VuZXJhdGVkIENlcnRpZmljYXRlMB0GA1UdDgQWBBT/tseUwaHJDQ4i
yd1mcb9M49ypmTCB6QYDVR0jBIHhMIHegBTvOI0UUFinW02cF3L837msp1GwEKGB
uqSBtzCBtDELMAkGA1UEBhMCVVMxCzAJBgNVBAgTAkNBMRUwEwYDVQQHEwxTYW5G
cmFuY2lzY28xFTATBgNVBAoTDFBpeGdsbywgSW5jLjEQMA4GA1UECxMHVlBOLUNJ
RTEaMBgGA1UEAxMRdHVubmVsLnBpeGdsby5jb20xHDAaBgNVBCkTE0JhbGEgQ2hh
bmRyYXNla2FyYW4xHjAcBgkqhkiG9w0BCQEWD2JhbGFAcGl4Z2xvLmNvbYIJAKbb
xoOA5qB5MBMGA1UdJQQMMAoGCCsGAQUFBwMCMAsGA1UdDwQEAwIHgDANBgkqhkiG
9w0BAQUFAAOCAgEAZRnQBtIkIOTCE80OZ9uuQ4B7ipvYY7CVD9MrXwonEhhXCi6X
8etDNDyiSJmi4GLACTYlcNmhBsP+gGFeQAszHoBtVSv/XCOuTxJI6J6qahyWrMUP
7euco3Jv3YA5cau6VXcFMO2qRDT1WRNn9plXgvdUWGjcF4P2Q+xp0Fd+tCXsGf06
w2M1slVPYMgxJL8PFMgpf8zJzKXIwDX2HXPJKUv95qDIV4J+tv9VUs34XH6sv82e
szYzjtVFRoNjG7r9e+MUiGHKzhl75/0+BXQE5OaA+sQ1tC7PrgTaOLf72dWMcR/g
vyqmkjD8TrqAvRcXb99n6vPTtqkloMtVajffmnAPsSKhCvhsLAp3C2hzyXbydPqP
KpeLOuLxYQBQJcofVha7kfpYE6OywS/sjWah24EM7OnIjXvVo4Adx8qqduZVents
WBQnUmEUNoM6DxhhD80KdAz3vtUfVWvlOKuMoFj7yfPeOXDDhzluQ0XnNp84D2yq
/53qqD7o6AltQlblXRPXVeP7RBdbEuw78HEjGnewuSo7CXVwwo56Y2xzTPlsXW4n
H7at3tRFzYirTXfLBX6k7AnwTAL6eH1fmxBEXXTpfVNNr2J7xcN+NQYuk1UcwKeZ
tCq5eSfDVz1tjZg4uRyYYzOv+GRjKWA/7mNlF//jbrd9NZNf/oTxfr03dJ0=
-----END CERTIFICATE-----
