Certificate:
    Data:
        Version: 3 (0x2)
        Serial Number: 946 (0x3b2)
    Signature Algorithm: sha1WithRSAEncryption
        Issuer: C=US, ST=CA, L=SanFrancisco, O=Pixglo, Inc., OU=VPN-CIE, CN=tunnel.pixglo.com/name=Bala Chandrasekaran/emailAddress=bala@pixglo.com
        Validity
            Not Before: Feb 14 06:48:54 2018 GMT
            Not After : Feb 12 06:48:54 2028 GMT
        Subject: C=US, ST=CA, L=SanFrancisco, O=Pixglo, Inc., OU=VPN-CIE, CN=cie945/name=Bala Chandrasekaran/emailAddress=bala@pixglo.com
        Subject Public Key Info:
            Public Key Algorithm: rsaEncryption
                Public-Key: (4096 bit)
                Modulus:
                    00:b9:81:91:56:a3:ef:31:cb:26:8b:31:ff:06:56:
                    6f:17:20:43:3a:b1:ef:ae:a7:36:48:27:f6:f9:89:
                    a5:c1:31:9e:0f:8e:e4:cf:0a:1e:6b:a9:45:92:d7:
                    0f:f9:ca:1d:b9:cc:a7:5b:70:c9:79:90:69:98:c0:
                    91:2b:1c:bf:92:82:7a:7b:6a:71:b2:36:23:e9:dc:
                    f9:99:43:33:dd:e9:95:24:9e:14:e9:9e:b4:53:ee:
                    52:95:fe:d3:78:9b:b0:87:d0:de:c8:f1:27:47:bd:
                    56:ab:7f:0c:c6:fe:e7:81:4b:aa:4e:ae:6a:53:6f:
                    2d:c5:1a:9f:71:98:0a:72:41:47:50:e6:06:1d:fc:
                    b6:49:e0:56:ad:d8:1c:ec:a2:50:d2:e1:3d:ad:67:
                    f3:41:2e:2a:c3:4c:61:ec:df:aa:82:97:c9:95:03:
                    9b:2a:63:d5:20:a7:35:4f:17:3c:31:76:8a:f4:15:
                    87:df:8c:15:71:18:50:6d:38:d8:c6:5d:2f:d7:e1:
                    a9:6f:dc:fc:21:bd:2d:1a:81:45:5c:14:62:6b:29:
                    a5:bc:9c:f9:77:0d:8d:91:31:8a:82:f1:d8:d2:a7:
                    6e:45:e0:03:08:e7:a9:34:7f:f5:d9:cf:95:d5:8d:
                    95:74:db:8d:9b:2e:56:07:3d:8e:1b:83:7a:12:d6:
                    c1:4e:85:0c:c3:22:b2:64:20:d8:a1:38:42:46:5b:
                    55:a1:04:e5:40:aa:4e:76:9b:f6:da:bb:ed:3b:6e:
                    bd:00:02:8e:bd:72:31:11:06:b6:61:e3:6d:e5:20:
                    0b:73:5d:45:31:25:62:eb:dc:d8:61:0b:8d:7f:0c:
                    3d:47:0e:4a:4d:a8:cb:70:f7:a1:4b:7e:27:52:1c:
                    50:8f:53:83:e1:29:5e:b4:17:bd:61:99:9d:a9:cf:
                    58:47:bf:e3:52:5b:0a:b2:79:e1:20:5f:75:53:97:
                    7a:9c:b4:95:ec:c3:2e:11:87:3d:bb:0c:64:53:59:
                    b7:e7:bd:d6:1f:18:33:0f:30:c9:6f:89:f8:b4:97:
                    83:06:7e:ec:83:67:33:4e:05:2f:1e:0c:42:61:e9:
                    9f:be:25:54:a5:5c:30:eb:36:13:9d:b5:39:b0:94:
                    bb:dc:e0:71:f1:cc:cd:af:31:8e:1f:8e:74:14:ee:
                    59:24:5f:f8:9a:92:b7:59:3e:0a:59:38:6b:38:05:
                    ae:14:ef:20:9d:ba:93:e5:7a:53:1e:42:ef:47:92:
                    00:7b:3f:a9:78:bb:14:2b:c8:35:c1:63:d3:8a:c1:
                    3c:c1:c4:bc:c1:1b:fa:c7:4d:3a:ea:f9:65:20:70:
                    ee:3b:19:2a:8e:36:b0:99:ae:4b:f7:85:21:86:f6:
                    72:4b:3b
                Exponent: 65537 (0x10001)
        X509v3 extensions:
            X509v3 Basic Constraints: 
                CA:FALSE
            Netscape Comment: 
                Easy-RSA Generated Certificate
            X509v3 Subject Key Identifier: 
                97:7E:9E:FB:4A:1B:4E:B3:10:F5:3B:F9:D5:CA:1C:FA:E7:B4:44:C4
            X509v3 Authority Key Identifier: 
                keyid:EF:38:8D:14:50:58:A7:5B:4D:9C:17:72:FC:DF:B9:AC:A7:51:B0:10
                DirName:/C=US/ST=CA/L=SanFrancisco/O=Pixglo, Inc./OU=VPN-CIE/CN=tunnel.pixglo.com/name=Bala Chandrasekaran/emailAddress=bala@pixglo.com
                serial:A6:DB:C6:83:80:E6:A0:79

            X509v3 Extended Key Usage: 
                TLS Web Client Authentication
            X509v3 Key Usage: 
                Digital Signature
    Signature Algorithm: sha1WithRSAEncryption
         51:6a:75:73:6f:c8:87:d7:ea:d8:86:64:35:48:54:39:3b:84:
         a4:40:cb:a2:0d:91:80:ba:80:f3:4a:47:7a:38:91:c5:25:63:
         55:ae:20:e7:17:e8:1d:69:8a:1a:38:4d:f2:81:56:b6:9d:cf:
         0d:1b:6e:37:a8:a6:26:f8:70:10:de:03:80:e2:ab:8a:ee:7f:
         08:f1:75:61:69:3f:43:25:84:13:d6:39:87:5e:3c:62:6e:e9:
         0f:e6:b7:dd:47:f2:db:c8:d4:52:83:13:bc:f4:0f:20:3a:46:
         42:e1:44:d6:2f:2f:98:26:06:af:fa:f9:ac:ef:e6:cc:5d:56:
         9b:01:05:e3:2f:0b:4b:aa:c6:c3:aa:20:41:bd:21:04:e0:f4:
         3b:d9:e7:5d:ff:fa:cd:63:fa:d8:53:61:96:d5:2f:27:e3:5a:
         9a:bd:06:62:56:9b:78:7a:69:a7:2d:3e:a7:79:32:8a:c8:3e:
         20:50:5c:99:43:98:73:af:b6:64:16:0e:bc:38:5b:e5:ba:71:
         85:8f:a6:c3:18:6b:10:fc:a8:dd:0a:3d:0f:e6:05:fa:ad:00:
         b4:77:ae:0b:d8:7f:aa:76:78:a8:e0:a3:d4:5d:27:dc:d7:0b:
         50:a8:2c:60:cb:09:75:1d:42:b5:e7:0a:86:46:b1:d8:4c:5b:
         7b:ea:b7:8a:13:e9:8b:aa:54:4f:40:d4:83:00:5b:6b:bd:75:
         af:20:2b:e0:cd:f5:30:6e:3b:fe:ae:93:a0:dd:89:fa:ee:a9:
         17:a5:5c:94:9e:7a:44:74:71:c0:53:a4:76:5d:59:35:11:c9:
         f5:50:74:70:03:9c:89:5c:99:53:65:95:1b:e5:09:74:a7:22:
         b8:79:40:7c:d7:2f:e0:0a:7e:b5:d4:cc:97:b8:5a:5a:c5:9d:
         6e:54:12:b7:cc:9f:0b:f4:a8:59:68:86:35:9b:92:4c:64:91:
         82:85:a7:2d:2b:56:39:9d:e9:64:f1:fe:60:4b:bf:b4:74:04:
         01:b8:18:2d:85:1d:de:ff:ba:7a:68:71:0e:62:80:92:94:d4:
         d9:0e:24:aa:6c:2d:bb:32:d4:c1:69:7a:d7:cf:88:94:1b:4f:
         2c:f4:0f:7b:b2:b4:99:88:e5:c8:03:04:60:11:d1:55:fb:da:
         c1:d4:7f:70:5b:bb:5b:1f:3a:42:ce:83:e8:8c:2b:e8:88:d7:
         98:01:c2:5f:ce:00:70:1d:f8:88:cc:f9:a9:90:5d:65:e7:30:
         62:22:84:c3:d8:2f:a5:0e:38:c4:13:22:d8:60:3d:55:89:52:
         2e:96:50:01:cf:f8:b4:0c:a4:4c:46:d3:a9:75:2a:a1:ec:23:
         a4:4f:f6:54:2c:17:53:9b
-----BEGIN CERTIFICATE-----
MIIHSDCCBTCgAwIBAgICA7IwDQYJKoZIhvcNAQEFBQAwgbQxCzAJBgNVBAYTAlVT
MQswCQYDVQQIEwJDQTEVMBMGA1UEBxMMU2FuRnJhbmNpc2NvMRUwEwYDVQQKEwxQ
aXhnbG8sIEluYy4xEDAOBgNVBAsTB1ZQTi1DSUUxGjAYBgNVBAMTEXR1bm5lbC5w
aXhnbG8uY29tMRwwGgYDVQQpExNCYWxhIENoYW5kcmFzZWthcmFuMR4wHAYJKoZI
hvcNAQkBFg9iYWxhQHBpeGdsby5jb20wHhcNMTgwMjE0MDY0ODU0WhcNMjgwMjEy
MDY0ODU0WjCBqTELMAkGA1UEBhMCVVMxCzAJBgNVBAgTAkNBMRUwEwYDVQQHEwxT
YW5GcmFuY2lzY28xFTATBgNVBAoTDFBpeGdsbywgSW5jLjEQMA4GA1UECxMHVlBO
LUNJRTEPMA0GA1UEAxMGY2llOTQ1MRwwGgYDVQQpExNCYWxhIENoYW5kcmFzZWth
cmFuMR4wHAYJKoZIhvcNAQkBFg9iYWxhQHBpeGdsby5jb20wggIiMA0GCSqGSIb3
DQEBAQUAA4ICDwAwggIKAoICAQC5gZFWo+8xyyaLMf8GVm8XIEM6se+upzZIJ/b5
iaXBMZ4PjuTPCh5rqUWS1w/5yh25zKdbcMl5kGmYwJErHL+Sgnp7anGyNiPp3PmZ
QzPd6ZUknhTpnrRT7lKV/tN4m7CH0N7I8SdHvVarfwzG/ueBS6pOrmpTby3FGp9x
mApyQUdQ5gYd/LZJ4Fat2BzsolDS4T2tZ/NBLirDTGHs36qCl8mVA5sqY9UgpzVP
Fzwxdor0FYffjBVxGFBtONjGXS/X4alv3PwhvS0agUVcFGJrKaW8nPl3DY2RMYqC
8djSp25F4AMI56k0f/XZz5XVjZV0242bLlYHPY4bg3oS1sFOhQzDIrJkINihOEJG
W1WhBOVAqk52m/bau+07br0AAo69cjERBrZh423lIAtzXUUxJWLr3NhhC41/DD1H
DkpNqMtw96FLfidSHFCPU4PhKV60F71hmZ2pz1hHv+NSWwqyeeEgX3VTl3qctJXs
wy4Rhz27DGRTWbfnvdYfGDMPMMlvifi0l4MGfuyDZzNOBS8eDEJh6Z++JVSlXDDr
NhOdtTmwlLvc4HHxzM2vMY4fjnQU7lkkX/iakrdZPgpZOGs4Ba4U7yCdupPlelMe
Qu9HkgB7P6l4uxQryDXBY9OKwTzBxLzBG/rHTTrq+WUgcO47GSqONrCZrkv3hSGG
9nJLOwIDAQABo4IBazCCAWcwCQYDVR0TBAIwADAtBglghkgBhvhCAQ0EIBYeRWFz
eS1SU0EgR2VuZXJhdGVkIENlcnRpZmljYXRlMB0GA1UdDgQWBBSXfp77ShtOsxD1
O/nVyhz657RExDCB6QYDVR0jBIHhMIHegBTvOI0UUFinW02cF3L837msp1GwEKGB
uqSBtzCBtDELMAkGA1UEBhMCVVMxCzAJBgNVBAgTAkNBMRUwEwYDVQQHEwxTYW5G
cmFuY2lzY28xFTATBgNVBAoTDFBpeGdsbywgSW5jLjEQMA4GA1UECxMHVlBOLUNJ
RTEaMBgGA1UEAxMRdHVubmVsLnBpeGdsby5jb20xHDAaBgNVBCkTE0JhbGEgQ2hh
bmRyYXNla2FyYW4xHjAcBgkqhkiG9w0BCQEWD2JhbGFAcGl4Z2xvLmNvbYIJAKbb
xoOA5qB5MBMGA1UdJQQMMAoGCCsGAQUFBwMCMAsGA1UdDwQEAwIHgDANBgkqhkiG
9w0BAQUFAAOCAgEAUWp1c2/Ih9fq2IZkNUhUOTuEpEDLog2RgLqA80pHejiRxSVj
Va4g5xfoHWmKGjhN8oFWtp3PDRtuN6imJvhwEN4DgOKriu5/CPF1YWk/QyWEE9Y5
h148Ym7pD+a33Ufy28jUUoMTvPQPIDpGQuFE1i8vmCYGr/r5rO/mzF1WmwEF4y8L
S6rGw6ogQb0hBOD0O9nnXf/6zWP62FNhltUvJ+Namr0GYlabeHpppy0+p3kyisg+
IFBcmUOYc6+2ZBYOvDhb5bpxhY+mwxhrEPyo3Qo9D+YF+q0AtHeuC9h/qnZ4qOCj
1F0n3NcLUKgsYMsJdR1CtecKhkax2Exbe+q3ihPpi6pUT0DUgwBba711ryAr4M31
MG47/q6ToN2J+u6pF6VclJ56RHRxwFOkdl1ZNRHJ9VB0cAOciVyZU2WVG+UJdKci
uHlAfNcv4Ap+tdTMl7haWsWdblQSt8yfC/SoWWiGNZuSTGSRgoWnLStWOZ3pZPH+
YEu/tHQEAbgYLYUd3v+6emhxDmKAkpTU2Q4kqmwtuzLUwWl618+IlBtPLPQPe7K0
mYjlyAMEYBHRVfvawdR/cFu7Wx86Qs6D6Iwr6IjXmAHCX84AcB34iMz5qZBdZecw
YiKEw9gvpQ44xBMi2GA9VYlSLpZQAc/4tAykTEbTqXUqoewjpE/2VCwXU5s=
-----END CERTIFICATE-----
