Certificate:
    Data:
        Version: 3 (0x2)
        Serial Number: 98 (0x62)
    Signature Algorithm: sha1WithRSAEncryption
        Issuer: C=US, ST=CA, L=SanFrancisco, O=Pixglo, Inc., OU=VPN-CIE, CN=tunnel.pixglo.com/name=Bala Chandrasekaran/emailAddress=bala@pixglo.com
        Validity
            Not Before: Feb 14 06:25:36 2018 GMT
            Not After : Feb 12 06:25:36 2028 GMT
        Subject: C=US, ST=CA, L=SanFrancisco, O=Pixglo, Inc., OU=VPN-CIE, CN=cie97/name=Bala Chandrasekaran/emailAddress=bala@pixglo.com
        Subject Public Key Info:
            Public Key Algorithm: rsaEncryption
                Public-Key: (4096 bit)
                Modulus:
                    00:e3:2f:62:46:32:d3:74:03:be:3a:f9:15:fb:71:
                    16:63:e6:4e:d0:e2:66:15:51:62:96:bd:1d:7e:b0:
                    16:9e:cf:af:15:55:ae:bd:f8:1b:d4:93:e7:2d:d4:
                    0c:b9:6f:d0:64:88:2f:4d:44:49:41:d3:5a:55:38:
                    fd:b5:88:b3:2c:0b:e1:f4:79:61:bd:38:65:df:34:
                    f1:4b:fd:29:a3:7f:0f:05:e3:e8:b8:ce:b7:89:5e:
                    55:b5:65:a9:90:7c:84:c6:c1:3f:24:d3:dc:ed:50:
                    aa:c0:ec:ff:7d:28:bd:3f:c5:2d:46:11:02:7b:0d:
                    33:3f:86:1c:f1:26:fb:06:35:29:06:b5:94:30:be:
                    a6:73:8a:91:08:72:9d:d6:fe:3a:9b:2b:12:c6:1a:
                    b4:24:66:99:34:74:89:bc:20:74:2f:cd:59:f2:00:
                    a2:15:4b:c1:f5:f0:0a:07:12:79:fa:19:ca:2a:bd:
                    c6:c8:eb:91:b8:85:07:0e:b8:87:27:4c:24:8d:4f:
                    ab:aa:e2:49:8b:e9:e1:5c:5c:a3:8c:e8:40:04:6a:
                    51:07:35:8a:23:01:91:f4:bb:3f:d4:16:8d:ef:a1:
                    7e:04:3d:b0:db:27:31:b4:80:34:9e:00:a4:70:04:
                    28:ea:02:86:e8:a1:92:31:b3:d8:31:7d:66:46:e5:
                    12:f3:bd:e8:12:93:54:fe:6f:4d:3e:ee:d3:f0:b4:
                    64:5c:c9:37:24:bc:92:b3:13:81:6f:87:f0:68:2a:
                    d3:13:d6:d3:78:af:93:54:01:67:52:32:f6:74:1b:
                    54:c0:3c:68:5a:7f:11:1f:49:8e:41:8e:34:ee:85:
                    35:e0:b2:da:49:da:59:e5:64:cf:17:a0:2a:36:0e:
                    f0:6d:cf:83:f6:82:95:4d:7b:da:09:ee:ce:26:3b:
                    da:4e:21:16:24:dd:ec:2f:20:14:a6:37:13:3b:12:
                    83:f3:ce:4f:a1:28:9d:71:d4:2c:ea:91:5c:2a:4a:
                    df:d1:4b:de:59:e3:2d:59:66:56:11:e5:60:46:ec:
                    0c:b6:7d:00:73:f7:a3:0a:57:40:73:21:d3:33:f8:
                    92:1a:b0:45:8d:bb:3c:d4:a8:8b:57:72:da:23:08:
                    72:7b:83:17:45:0a:7c:ff:b6:26:c8:e1:4c:ca:3f:
                    b8:66:e0:94:9e:63:11:2b:89:19:b0:6e:fd:14:36:
                    41:52:94:fd:16:db:05:14:40:d7:86:33:51:7d:43:
                    8e:9c:f5:d7:52:32:76:c6:0e:09:11:ae:5d:3f:45:
                    42:e1:29:f1:ed:53:15:06:91:72:f3:e9:92:8d:e1:
                    01:75:01:7c:c2:48:1d:d3:9c:6a:db:59:ae:ad:28:
                    ca:33:bd
                Exponent: 65537 (0x10001)
        X509v3 extensions:
            X509v3 Basic Constraints: 
                CA:FALSE
            Netscape Comment: 
                Easy-RSA Generated Certificate
            X509v3 Subject Key Identifier: 
                95:2F:F9:70:30:CA:73:C8:8A:2D:48:28:D1:BC:C8:33:F5:09:E5:B7
            X509v3 Authority Key Identifier: 
                keyid:EF:38:8D:14:50:58:A7:5B:4D:9C:17:72:FC:DF:B9:AC:A7:51:B0:10
                DirName:/C=US/ST=CA/L=SanFrancisco/O=Pixglo, Inc./OU=VPN-CIE/CN=tunnel.pixglo.com/name=Bala Chandrasekaran/emailAddress=bala@pixglo.com
                serial:A6:DB:C6:83:80:E6:A0:79

            X509v3 Extended Key Usage: 
                TLS Web Client Authentication
            X509v3 Key Usage: 
                Digital Signature
    Signature Algorithm: sha1WithRSAEncryption
         1f:73:fe:1c:d8:a2:9b:fd:89:f5:d7:50:d9:3f:4f:7c:50:28:
         e6:76:64:ba:38:5c:a7:2b:f2:ba:1b:ce:b0:1f:94:52:5d:df:
         7d:1e:09:ed:76:8a:0e:cc:a9:c0:b0:f1:3c:c8:11:97:ac:8a:
         64:31:85:3d:82:57:4e:a8:5d:59:af:19:76:e6:01:f4:95:93:
         e9:ec:9d:41:79:ca:c4:94:b6:55:72:2c:b6:af:88:52:d2:46:
         a5:4a:73:e5:4f:37:75:1c:7a:72:ef:0a:ea:dd:e4:19:08:5a:
         12:8a:9a:62:85:48:a4:4d:e1:c1:9e:13:99:62:ce:67:87:2d:
         42:8d:8d:66:ed:c1:fe:36:66:87:39:fd:ac:4b:d3:88:ad:33:
         84:64:3d:c7:2a:4b:5f:98:98:2b:fb:33:1d:67:4e:80:3c:69:
         e2:bf:92:82:37:ba:3a:34:85:2d:ce:0a:ef:88:1a:83:69:52:
         8f:a6:14:80:1d:97:07:3d:6d:a8:68:0a:84:42:34:2f:22:e8:
         43:e1:54:a8:38:b3:ef:6c:04:87:b7:b9:8a:e3:a3:68:ed:e7:
         20:71:a2:3a:aa:3b:9b:2b:fe:e4:45:41:3c:91:ae:63:5a:93:
         d5:c9:a7:c1:c8:79:ee:87:49:7b:54:a8:81:a3:89:0c:8f:d7:
         b2:ac:8b:cf:14:6f:d7:ed:18:72:ba:96:b6:1c:6d:c0:63:a1:
         ea:33:fd:37:77:c2:67:0a:d6:1e:68:70:80:78:07:d0:1e:a7:
         f5:a8:d1:c9:a2:fe:3d:f2:50:a2:19:e7:a7:16:b4:40:26:e3:
         11:ed:05:ba:a1:4b:cb:0b:e1:ba:b4:ed:4d:76:87:24:f9:f4:
         16:92:5f:7b:77:66:ff:5b:3a:00:6b:41:17:54:04:d7:18:80:
         e0:4b:3c:bc:e3:6f:9f:93:0f:64:99:75:f9:a3:21:84:6c:63:
         dd:1e:44:8d:3d:60:50:6b:13:ed:c1:be:fd:6a:bc:04:b9:2f:
         b1:c6:1f:d3:ce:46:1d:99:f5:5a:e6:1c:8c:2d:85:f1:56:6b:
         bb:69:6a:ec:b7:bd:5c:6e:96:e9:70:86:ba:9a:8e:32:46:5a:
         b7:d8:9f:c4:95:1a:c9:55:48:b0:5e:eb:59:1e:d2:97:de:e2:
         e4:72:35:51:22:ab:52:c8:ee:b0:21:51:18:c7:e4:5c:df:52:
         9c:c8:7a:c9:d3:43:d0:48:83:54:a1:a4:d4:e3:fb:67:6d:18:
         ea:54:9f:81:b4:c7:d1:06:3b:65:6d:5a:ad:8f:41:bc:56:5d:
         e9:83:7d:6f:7a:b4:ad:2c:ce:21:af:a0:de:bd:95:d6:37:af:
         20:f6:81:b1:58:67:36:5c
-----BEGIN CERTIFICATE-----
MIIHRjCCBS6gAwIBAgIBYjANBgkqhkiG9w0BAQUFADCBtDELMAkGA1UEBhMCVVMx
CzAJBgNVBAgTAkNBMRUwEwYDVQQHEwxTYW5GcmFuY2lzY28xFTATBgNVBAoTDFBp
eGdsbywgSW5jLjEQMA4GA1UECxMHVlBOLUNJRTEaMBgGA1UEAxMRdHVubmVsLnBp
eGdsby5jb20xHDAaBgNVBCkTE0JhbGEgQ2hhbmRyYXNla2FyYW4xHjAcBgkqhkiG
9w0BCQEWD2JhbGFAcGl4Z2xvLmNvbTAeFw0xODAyMTQwNjI1MzZaFw0yODAyMTIw
NjI1MzZaMIGoMQswCQYDVQQGEwJVUzELMAkGA1UECBMCQ0ExFTATBgNVBAcTDFNh
bkZyYW5jaXNjbzEVMBMGA1UEChMMUGl4Z2xvLCBJbmMuMRAwDgYDVQQLEwdWUE4t
Q0lFMQ4wDAYDVQQDEwVjaWU5NzEcMBoGA1UEKRMTQmFsYSBDaGFuZHJhc2VrYXJh
bjEeMBwGCSqGSIb3DQEJARYPYmFsYUBwaXhnbG8uY29tMIICIjANBgkqhkiG9w0B
AQEFAAOCAg8AMIICCgKCAgEA4y9iRjLTdAO+OvkV+3EWY+ZO0OJmFVFilr0dfrAW
ns+vFVWuvfgb1JPnLdQMuW/QZIgvTURJQdNaVTj9tYizLAvh9HlhvThl3zTxS/0p
o38PBePouM63iV5VtWWpkHyExsE/JNPc7VCqwOz/fSi9P8UtRhECew0zP4Yc8Sb7
BjUpBrWUML6mc4qRCHKd1v46mysSxhq0JGaZNHSJvCB0L81Z8gCiFUvB9fAKBxJ5
+hnKKr3GyOuRuIUHDriHJ0wkjU+rquJJi+nhXFyjjOhABGpRBzWKIwGR9Ls/1BaN
76F+BD2w2ycxtIA0ngCkcAQo6gKG6KGSMbPYMX1mRuUS873oEpNU/m9NPu7T8LRk
XMk3JLySsxOBb4fwaCrTE9bTeK+TVAFnUjL2dBtUwDxoWn8RH0mOQY407oU14LLa
SdpZ5WTPF6AqNg7wbc+D9oKVTXvaCe7OJjvaTiEWJN3sLyAUpjcTOxKD885PoSid
cdQs6pFcKkrf0UveWeMtWWZWEeVgRuwMtn0Ac/ejCldAcyHTM/iSGrBFjbs81KiL
V3LaIwhye4MXRQp8/7YmyOFMyj+4ZuCUnmMRK4kZsG79FDZBUpT9FtsFFEDXhjNR
fUOOnPXXUjJ2xg4JEa5dP0VC4Snx7VMVBpFy8+mSjeEBdQF8wkgd05xq21murSjK
M70CAwEAAaOCAWswggFnMAkGA1UdEwQCMAAwLQYJYIZIAYb4QgENBCAWHkVhc3kt
UlNBIEdlbmVyYXRlZCBDZXJ0aWZpY2F0ZTAdBgNVHQ4EFgQUlS/5cDDKc8iKLUgo
0bzIM/UJ5bcwgekGA1UdIwSB4TCB3oAU7ziNFFBYp1tNnBdy/N+5rKdRsBChgbqk
gbcwgbQxCzAJBgNVBAYTAlVTMQswCQYDVQQIEwJDQTEVMBMGA1UEBxMMU2FuRnJh
bmNpc2NvMRUwEwYDVQQKEwxQaXhnbG8sIEluYy4xEDAOBgNVBAsTB1ZQTi1DSUUx
GjAYBgNVBAMTEXR1bm5lbC5waXhnbG8uY29tMRwwGgYDVQQpExNCYWxhIENoYW5k
cmFzZWthcmFuMR4wHAYJKoZIhvcNAQkBFg9iYWxhQHBpeGdsby5jb22CCQCm28aD
gOageTATBgNVHSUEDDAKBggrBgEFBQcDAjALBgNVHQ8EBAMCB4AwDQYJKoZIhvcN
AQEFBQADggIBAB9z/hzYopv9ifXXUNk/T3xQKOZ2ZLo4XKcr8robzrAflFJd330e
Ce12ig7MqcCw8TzIEZesimQxhT2CV06oXVmvGXbmAfSVk+nsnUF5ysSUtlVyLLav
iFLSRqVKc+VPN3UcenLvCurd5BkIWhKKmmKFSKRN4cGeE5lizmeHLUKNjWbtwf42
Zoc5/axL04itM4RkPccqS1+YmCv7Mx1nToA8aeK/koI3ujo0hS3OCu+IGoNpUo+m
FIAdlwc9bahoCoRCNC8i6EPhVKg4s+9sBIe3uYrjo2jt5yBxojqqO5sr/uRFQTyR
rmNak9XJp8HIee6HSXtUqIGjiQyP17Ksi88Ub9ftGHK6lrYcbcBjoeoz/Td3wmcK
1h5ocIB4B9Aep/Wo0cmi/j3yUKIZ56cWtEAm4xHtBbqhS8sL4bq07U12hyT59BaS
X3t3Zv9bOgBrQRdUBNcYgOBLPLzjb5+TD2SZdfmjIYRsY90eRI09YFBrE+3Bvv1q
vAS5L7HGH9PORh2Z9VrmHIwthfFWa7tpauy3vVxululwhrqajjJGWrfYn8SVGslV
SLBe61ke0pfe4uRyNVEiq1LI7rAhURjH5FzfUpzIesnTQ9BIg1ShpNTj+2dtGOpU
n4G0x9EGO2VtWq2PQbxWXemDfW96tK0sziGvoN69ldY3ryD2gbFYZzZc
-----END CERTIFICATE-----
