Certificate:
    Data:
        Version: 3 (0x2)
        Serial Number: 991 (0x3df)
    Signature Algorithm: sha1WithRSAEncryption
        Issuer: C=US, ST=CA, L=SanFrancisco, O=Pixglo, Inc., OU=VPN-CIE, CN=tunnel.pixglo.com/name=Bala Chandrasekaran/emailAddress=bala@pixglo.com
        Validity
            Not Before: Feb 14 06:50:10 2018 GMT
            Not After : Feb 12 06:50:10 2028 GMT
        Subject: C=US, ST=CA, L=SanFrancisco, O=Pixglo, Inc., OU=VPN-CIE, CN=cie990/name=Bala Chandrasekaran/emailAddress=bala@pixglo.com
        Subject Public Key Info:
            Public Key Algorithm: rsaEncryption
                Public-Key: (4096 bit)
                Modulus:
                    00:e7:e8:eb:d6:53:d4:19:12:09:ff:5e:dd:d6:3c:
                    e7:6e:5c:d1:37:66:2a:d7:90:02:1e:7e:ce:8e:b1:
                    b5:e2:00:d4:56:22:ac:0a:88:ca:ea:6e:f6:d3:21:
                    7b:9b:fb:66:98:a6:41:c9:e1:da:0f:9c:ac:9d:0e:
                    c1:bc:bd:7a:72:64:40:bf:39:54:75:58:76:6e:40:
                    58:3f:2e:6e:23:c1:ff:6c:b5:8e:12:0c:8c:d4:b7:
                    1b:65:dd:36:df:84:3a:54:e3:5e:2e:d8:fb:78:89:
                    3f:c0:5f:80:10:12:61:81:f3:51:3a:e4:35:11:1b:
                    6d:f8:de:8f:83:06:c9:7f:2c:3d:0f:84:39:ea:e9:
                    37:0c:9f:7a:60:9f:f4:aa:e6:2b:5e:0b:45:01:c6:
                    cc:49:4e:f9:eb:88:02:3d:ca:f3:ce:aa:ce:b6:f5:
                    4f:c3:ac:e6:bf:87:8a:64:3c:1e:ee:ee:90:67:69:
                    8f:25:56:1f:90:4e:52:bf:04:bf:b7:a1:aa:f0:7c:
                    a5:91:ef:41:1b:17:45:fc:9e:2b:5b:cc:e8:15:2c:
                    f2:db:3e:4d:a1:9d:03:e0:04:79:d9:c5:11:df:61:
                    74:c5:7f:8e:07:57:52:45:c6:14:dc:d3:9b:11:5a:
                    6e:95:ee:74:3c:ec:7e:f2:6c:cd:06:1f:19:85:3f:
                    3f:d3:47:e7:50:4b:9f:69:a7:29:a7:0d:13:ba:78:
                    ff:9b:e7:81:e1:b6:b2:e8:37:c4:e5:7b:e8:e0:1f:
                    ab:1f:6a:21:c5:a9:43:4f:de:1b:6f:db:86:98:f9:
                    20:92:6c:ab:d2:16:8f:23:89:e1:c9:95:48:1c:6f:
                    95:5a:19:f4:97:2f:84:77:87:02:93:09:f6:4a:38:
                    40:cd:a2:4a:52:d6:4b:4d:8d:21:7f:b8:b9:ee:8a:
                    94:f0:72:de:38:89:c0:0a:06:4e:e3:0e:8d:86:f2:
                    bc:e3:09:c5:13:15:3f:01:87:b7:6d:22:22:d1:71:
                    c5:2b:15:ac:98:27:2d:d9:0b:11:e5:43:9d:46:21:
                    39:e9:90:06:ba:f5:78:9c:a2:98:28:04:e4:6a:aa:
                    ad:35:21:9b:95:6d:22:6d:94:cd:f2:16:b4:14:08:
                    b2:08:80:85:12:05:25:d3:b5:da:2d:69:57:b5:3a:
                    2f:c3:29:07:6f:92:5b:bc:aa:7e:ef:2d:df:cc:24:
                    69:85:9c:88:70:73:c1:fd:f1:39:4c:98:1d:45:23:
                    98:a2:d7:68:8c:81:8e:66:2b:19:c5:bf:eb:fc:28:
                    fa:77:35:8e:f4:ab:53:02:dc:c3:a5:e1:62:27:55:
                    92:69:58:7e:cd:3b:79:b9:a2:19:74:ef:27:c5:49:
                    51:85:d5
                Exponent: 65537 (0x10001)
        X509v3 extensions:
            X509v3 Basic Constraints: 
                CA:FALSE
            Netscape Comment: 
                Easy-RSA Generated Certificate
            X509v3 Subject Key Identifier: 
                59:44:9C:26:D5:52:C1:20:8F:13:6C:02:C9:F6:9E:36:C5:28:59:E7
            X509v3 Authority Key Identifier: 
                keyid:EF:38:8D:14:50:58:A7:5B:4D:9C:17:72:FC:DF:B9:AC:A7:51:B0:10
                DirName:/C=US/ST=CA/L=SanFrancisco/O=Pixglo, Inc./OU=VPN-CIE/CN=tunnel.pixglo.com/name=Bala Chandrasekaran/emailAddress=bala@pixglo.com
                serial:A6:DB:C6:83:80:E6:A0:79

            X509v3 Extended Key Usage: 
                TLS Web Client Authentication
            X509v3 Key Usage: 
                Digital Signature
    Signature Algorithm: sha1WithRSAEncryption
         71:6f:e3:77:a9:78:59:5c:f5:26:99:35:c6:d4:2f:73:23:63:
         57:5c:c4:79:c8:01:b4:82:ab:56:70:5d:2f:74:47:97:4d:6a:
         dc:aa:d6:f5:da:96:fd:d1:77:64:12:71:14:1e:ca:df:b2:bb:
         a2:40:aa:2d:2e:e8:02:57:4e:e1:56:26:b1:c4:75:58:3f:5e:
         44:f7:cf:17:f9:42:a5:b1:1f:59:2c:ca:3f:f8:a9:56:81:66:
         ce:8d:56:b7:36:b3:ab:2b:b3:77:e4:de:54:67:e4:61:ed:d3:
         7d:20:76:fb:72:50:08:cf:ac:fe:58:5c:11:95:61:03:57:50:
         48:8e:99:5e:65:43:cf:c3:7c:cf:87:ba:41:75:98:16:89:2b:
         de:ef:60:b3:1a:fb:bd:66:3e:00:08:14:a6:d1:0c:c2:9c:fb:
         d7:c2:e2:69:7c:00:af:21:3b:4d:48:f6:b7:1a:c0:f1:80:df:
         da:4e:6a:4c:fb:25:ac:fa:15:9f:0a:16:ee:50:10:f6:b9:11:
         04:4a:2e:21:6b:e5:e4:e2:9e:de:f1:58:5e:2b:c9:da:08:e2:
         6b:9a:02:d9:da:08:6f:86:cb:2f:65:24:39:d0:26:0a:63:57:
         0e:2c:70:7b:c0:4b:8d:5c:16:c1:36:aa:94:f0:7f:ee:cd:cb:
         06:0d:10:3a:02:a0:31:2d:ce:20:85:03:3c:66:8f:2b:4a:d5:
         4c:ad:d1:39:07:24:1d:3b:2e:4a:2d:52:3d:a7:fa:08:c1:64:
         07:59:77:bf:91:db:29:0e:f8:5f:95:32:29:ae:9e:17:37:3e:
         d6:53:4e:40:66:de:7a:33:45:39:4f:66:19:ca:3b:ac:49:4b:
         9b:88:b9:f1:58:d7:fb:da:4c:f2:d3:55:2c:3a:f6:4a:c5:f9:
         76:94:3c:46:5e:3e:52:34:2f:4d:1d:53:77:d1:37:06:6e:d7:
         27:31:f9:81:4e:5b:be:b1:60:fb:6f:99:20:3e:71:4f:4e:fd:
         2d:d8:67:b2:ed:b9:42:06:4c:b3:dc:c9:04:df:fa:3b:ef:b4:
         fe:dc:2c:ad:e8:8b:f4:29:0b:46:c3:b7:e8:bc:ad:85:aa:5c:
         31:8c:ac:5a:cc:db:8f:c1:a2:4f:40:38:69:b5:b5:26:98:8b:
         02:cf:4f:43:4f:3f:40:ad:c9:cc:6a:c5:e2:51:9a:db:00:6f:
         66:4f:2f:f7:b9:05:dd:09:1a:12:ea:56:43:ea:77:b1:97:ec:
         56:50:47:c9:c7:44:74:44:b3:f5:13:ab:43:dc:90:f4:22:6d:
         bf:68:c6:d6:98:33:0e:f2:0b:ce:70:a1:a0:89:0b:00:a9:6b:
         c7:bc:11:de:08:db:b5:e6
-----BEGIN CERTIFICATE-----
MIIHSDCCBTCgAwIBAgICA98wDQYJKoZIhvcNAQEFBQAwgbQxCzAJBgNVBAYTAlVT
MQswCQYDVQQIEwJDQTEVMBMGA1UEBxMMU2FuRnJhbmNpc2NvMRUwEwYDVQQKEwxQ
aXhnbG8sIEluYy4xEDAOBgNVBAsTB1ZQTi1DSUUxGjAYBgNVBAMTEXR1bm5lbC5w
aXhnbG8uY29tMRwwGgYDVQQpExNCYWxhIENoYW5kcmFzZWthcmFuMR4wHAYJKoZI
hvcNAQkBFg9iYWxhQHBpeGdsby5jb20wHhcNMTgwMjE0MDY1MDEwWhcNMjgwMjEy
MDY1MDEwWjCBqTELMAkGA1UEBhMCVVMxCzAJBgNVBAgTAkNBMRUwEwYDVQQHEwxT
YW5GcmFuY2lzY28xFTATBgNVBAoTDFBpeGdsbywgSW5jLjEQMA4GA1UECxMHVlBO
LUNJRTEPMA0GA1UEAxMGY2llOTkwMRwwGgYDVQQpExNCYWxhIENoYW5kcmFzZWth
cmFuMR4wHAYJKoZIhvcNAQkBFg9iYWxhQHBpeGdsby5jb20wggIiMA0GCSqGSIb3
DQEBAQUAA4ICDwAwggIKAoICAQDn6OvWU9QZEgn/Xt3WPOduXNE3ZirXkAIefs6O
sbXiANRWIqwKiMrqbvbTIXub+2aYpkHJ4doPnKydDsG8vXpyZEC/OVR1WHZuQFg/
Lm4jwf9stY4SDIzUtxtl3TbfhDpU414u2Pt4iT/AX4AQEmGB81E65DURG2343o+D
Bsl/LD0PhDnq6TcMn3pgn/Sq5iteC0UBxsxJTvnriAI9yvPOqs629U/DrOa/h4pk
PB7u7pBnaY8lVh+QTlK/BL+3oarwfKWR70EbF0X8nitbzOgVLPLbPk2hnQPgBHnZ
xRHfYXTFf44HV1JFxhTc05sRWm6V7nQ87H7ybM0GHxmFPz/TR+dQS59ppymnDRO6
eP+b54HhtrLoN8Tle+jgH6sfaiHFqUNP3htv24aY+SCSbKvSFo8jieHJlUgcb5Va
GfSXL4R3hwKTCfZKOEDNokpS1ktNjSF/uLnuipTwct44icAKBk7jDo2G8rzjCcUT
FT8Bh7dtIiLRccUrFayYJy3ZCxHlQ51GITnpkAa69XicopgoBORqqq01IZuVbSJt
lM3yFrQUCLIIgIUSBSXTtdotaVe1Oi/DKQdvklu8qn7vLd/MJGmFnIhwc8H98TlM
mB1FI5ii12iMgY5mKxnFv+v8KPp3NY70q1MC3MOl4WInVZJpWH7NO3m5ohl07yfF
SVGF1QIDAQABo4IBazCCAWcwCQYDVR0TBAIwADAtBglghkgBhvhCAQ0EIBYeRWFz
eS1SU0EgR2VuZXJhdGVkIENlcnRpZmljYXRlMB0GA1UdDgQWBBRZRJwm1VLBII8T
bALJ9p42xShZ5zCB6QYDVR0jBIHhMIHegBTvOI0UUFinW02cF3L837msp1GwEKGB
uqSBtzCBtDELMAkGA1UEBhMCVVMxCzAJBgNVBAgTAkNBMRUwEwYDVQQHEwxTYW5G
cmFuY2lzY28xFTATBgNVBAoTDFBpeGdsbywgSW5jLjEQMA4GA1UECxMHVlBOLUNJ
RTEaMBgGA1UEAxMRdHVubmVsLnBpeGdsby5jb20xHDAaBgNVBCkTE0JhbGEgQ2hh
bmRyYXNla2FyYW4xHjAcBgkqhkiG9w0BCQEWD2JhbGFAcGl4Z2xvLmNvbYIJAKbb
xoOA5qB5MBMGA1UdJQQMMAoGCCsGAQUFBwMCMAsGA1UdDwQEAwIHgDANBgkqhkiG
9w0BAQUFAAOCAgEAcW/jd6l4WVz1Jpk1xtQvcyNjV1zEecgBtIKrVnBdL3RHl01q
3KrW9dqW/dF3ZBJxFB7K37K7okCqLS7oAldO4VYmscR1WD9eRPfPF/lCpbEfWSzK
P/ipVoFmzo1Wtzazqyuzd+TeVGfkYe3TfSB2+3JQCM+s/lhcEZVhA1dQSI6ZXmVD
z8N8z4e6QXWYFokr3u9gsxr7vWY+AAgUptEMwpz718LiaXwAryE7TUj2txrA8YDf
2k5qTPslrPoVnwoW7lAQ9rkRBEouIWvl5OKe3vFYXivJ2gjia5oC2doIb4bLL2Uk
OdAmCmNXDixwe8BLjVwWwTaqlPB/7s3LBg0QOgKgMS3OIIUDPGaPK0rVTK3ROQck
HTsuSi1SPaf6CMFkB1l3v5HbKQ74X5UyKa6eFzc+1lNOQGbeejNFOU9mGco7rElL
m4i58VjX+9pM8tNVLDr2SsX5dpQ8Rl4+UjQvTR1Td9E3Bm7XJzH5gU5bvrFg+2+Z
ID5xT079Ldhnsu25QgZMs9zJBN/6O++0/twsreiL9CkLRsO36LythapcMYysWszb
j8GiT0A4abW1JpiLAs9PQ08/QK3JzGrF4lGa2wBvZk8v97kF3QkaEupWQ+p3sZfs
VlBHycdEdESz9ROrQ9yQ9CJtv2jG1pgzDvILznChoIkLAKlrx7wR3gjbteY=
-----END CERTIFICATE-----
