Certificate:
    Data:
        Version: 3 (0x2)
        Serial Number: 916 (0x394)
    Signature Algorithm: sha1WithRSAEncryption
        Issuer: C=US, ST=CA, L=SanFrancisco, O=Pixglo, Inc., OU=VPN-CIE, CN=tunnel.pixglo.com/name=Bala Chandrasekaran/emailAddress=bala@pixglo.com
        Validity
            Not Before: Feb 14 06:47:56 2018 GMT
            Not After : Feb 12 06:47:56 2028 GMT
        Subject: C=US, ST=CA, L=SanFrancisco, O=Pixglo, Inc., OU=VPN-CIE, CN=cie915/name=Bala Chandrasekaran/emailAddress=bala@pixglo.com
        Subject Public Key Info:
            Public Key Algorithm: rsaEncryption
                Public-Key: (4096 bit)
                Modulus:
                    00:c6:d3:b1:8d:9d:bc:4f:d0:0a:9c:61:0e:24:54:
                    33:d7:6a:2b:47:b7:85:34:87:4d:69:aa:b1:0a:04:
                    e7:8f:81:5d:bf:40:b9:71:c7:33:88:1e:86:4a:a8:
                    ba:37:0b:7e:35:1c:1a:6a:48:12:17:45:e8:de:11:
                    21:69:5b:cf:eb:6f:5b:00:8e:92:63:89:f2:03:da:
                    30:cd:24:96:61:59:6c:3c:98:e7:58:6c:2a:d6:83:
                    89:70:18:f3:4d:a8:76:41:0b:94:38:5b:84:41:06:
                    56:94:a8:43:3b:1e:2d:67:e4:2e:3c:f3:45:4d:db:
                    70:62:c8:42:d9:2c:0d:05:bd:34:ac:12:ef:fe:41:
                    2f:21:bb:18:8f:90:27:07:50:96:c8:77:a6:f2:22:
                    a1:87:d1:8a:df:6d:6d:c2:3a:aa:36:c2:03:d0:90:
                    0f:da:29:91:0f:b3:b2:bb:6b:c5:71:c1:1c:79:6a:
                    f4:b0:61:67:2d:e1:8c:63:9e:80:50:8c:ea:b4:a2:
                    93:89:7d:9c:8e:d8:7d:f3:ae:ee:1b:c2:62:4b:1e:
                    27:24:4b:0d:01:e8:75:36:3c:dd:ea:fe:e4:1b:c5:
                    86:52:5c:f8:5d:c8:32:9f:5a:59:56:ca:57:89:14:
                    bb:7d:9d:37:0c:cd:7b:61:3e:c1:d0:a9:33:97:3b:
                    d3:01:2e:8f:60:2e:a6:be:02:18:dc:4f:80:19:a0:
                    0b:cd:6a:11:d1:eb:28:de:d1:41:e6:d9:dc:a4:ae:
                    c3:fd:cc:0b:a2:29:fd:75:44:99:03:0d:47:f0:4c:
                    f6:86:cc:f2:6e:e7:7a:dc:d2:6f:3e:d4:0a:70:8c:
                    95:a3:28:87:8c:1e:7a:9d:9c:f7:78:f9:01:51:af:
                    0a:a2:d2:a2:99:71:10:32:ba:94:f4:f9:06:78:32:
                    69:59:a1:19:c2:83:50:6b:8e:f5:2e:fb:71:38:a8:
                    dc:9a:2e:bf:cd:1c:83:62:38:f5:7b:c4:62:6d:29:
                    3b:1c:a0:af:cd:cb:d0:2f:f8:f4:e6:93:98:56:87:
                    ca:b1:f9:1c:bf:8e:5f:11:8b:c2:84:8d:43:b7:99:
                    ea:82:58:a9:ed:d0:d7:62:b2:b3:ef:66:a4:5c:3b:
                    c7:1c:1a:7d:4d:31:16:63:15:d8:a4:b8:e3:53:1a:
                    91:8a:bc:04:cd:57:4b:10:ae:a0:64:c5:b6:ab:9b:
                    34:46:9f:f2:32:75:fa:8d:ac:aa:8d:5b:8c:4e:a1:
                    3d:80:e7:86:5d:61:40:3a:a3:a0:f8:96:b0:6e:1d:
                    03:bd:1e:70:e7:4e:a0:10:2c:59:21:2e:95:34:20:
                    c2:e2:76:b5:41:f4:de:c6:5d:3e:83:07:e7:a3:7c:
                    ec:fb:df
                Exponent: 65537 (0x10001)
        X509v3 extensions:
            X509v3 Basic Constraints: 
                CA:FALSE
            Netscape Comment: 
                Easy-RSA Generated Certificate
            X509v3 Subject Key Identifier: 
                0F:7F:C1:7B:56:05:6C:2A:85:9C:D4:BE:9C:71:40:41:5C:9A:BA:C8
            X509v3 Authority Key Identifier: 
                keyid:EF:38:8D:14:50:58:A7:5B:4D:9C:17:72:FC:DF:B9:AC:A7:51:B0:10
                DirName:/C=US/ST=CA/L=SanFrancisco/O=Pixglo, Inc./OU=VPN-CIE/CN=tunnel.pixglo.com/name=Bala Chandrasekaran/emailAddress=bala@pixglo.com
                serial:A6:DB:C6:83:80:E6:A0:79

            X509v3 Extended Key Usage: 
                TLS Web Client Authentication
            X509v3 Key Usage: 
                Digital Signature
    Signature Algorithm: sha1WithRSAEncryption
         19:7b:f0:94:4b:d3:c6:e8:7c:d0:ef:c5:d9:db:70:da:90:1f:
         64:9e:9b:31:09:8b:97:d9:f8:cc:a4:c8:d4:e5:1e:78:93:07:
         b5:b1:af:d9:fd:02:e3:44:19:11:04:1b:25:f2:30:66:83:85:
         fd:42:f7:93:cb:9e:19:1f:72:be:7c:4f:dc:ef:96:4b:20:80:
         13:b1:3f:cf:35:6d:a3:07:7a:b8:e4:02:91:0c:89:8d:8e:f7:
         aa:db:5f:91:b3:28:1f:b4:80:53:81:c9:4c:9b:ea:e1:c9:71:
         4c:12:6a:8f:80:ec:c4:0f:64:ba:cc:6c:e5:51:ef:c6:9f:78:
         c3:6d:0b:d2:a5:27:2d:4c:e9:f9:d5:11:e5:8a:42:af:05:b8:
         5d:06:48:a1:db:23:00:15:46:7f:e8:4b:2d:f8:7b:2f:0c:23:
         04:fe:45:54:e6:f0:53:90:7f:bd:3b:04:64:97:c3:f5:1f:8e:
         29:eb:1f:28:05:87:6c:d7:a1:12:42:bb:67:af:b7:4d:fc:dd:
         8d:a2:85:ab:4c:5f:bc:61:50:b3:b2:31:45:80:f2:26:81:48:
         31:9c:aa:dc:66:b1:d0:d5:c0:ce:94:5e:1c:ab:9d:72:99:0f:
         90:95:3b:90:b6:27:79:13:f8:31:5a:97:f3:3e:ce:f2:1d:b8:
         a0:19:1d:d1:9f:65:31:e4:e3:b8:03:39:3a:6b:75:9b:19:bb:
         dc:bc:ab:88:db:99:c9:dc:a4:41:4f:d7:6c:94:ef:a8:dd:05:
         4e:b9:ed:cc:51:d5:9a:55:07:15:26:6e:26:cf:52:86:e1:60:
         0b:b9:e2:51:aa:b0:8f:0f:e5:69:2a:2c:6f:fc:fa:7b:ac:be:
         8f:a8:d4:7e:8f:a8:c1:6b:7f:21:54:99:c7:7b:14:80:7b:c2:
         9a:bf:df:5a:c9:0a:ee:87:91:d0:08:ba:07:b9:33:c9:10:57:
         ad:55:11:5a:33:51:06:1d:0b:e9:94:ac:df:f0:b1:3c:b1:59:
         73:b6:d5:e9:16:67:b0:de:07:17:ce:c8:7b:cc:8f:35:69:48:
         1e:c2:34:82:da:54:23:4b:32:56:18:17:93:97:e7:98:d3:c0:
         98:e6:4b:d4:92:de:e8:a7:c3:f8:e5:43:43:ad:93:3c:23:92:
         cb:5b:37:3a:e6:ad:14:34:b1:09:7d:59:a7:1d:1b:c7:56:90:
         17:48:78:2f:d7:6d:c7:59:ba:ea:3d:97:7f:ab:0f:a7:5a:e5:
         9a:8a:83:5a:59:7e:4f:b4:aa:e8:c8:b0:c0:83:28:54:29:d1:
         ed:ff:f9:23:26:43:56:a4:51:98:9f:7b:65:02:fb:d5:63:61:
         89:20:ef:a7:f9:f2:a8:07
-----BEGIN CERTIFICATE-----
MIIHSDCCBTCgAwIBAgICA5QwDQYJKoZIhvcNAQEFBQAwgbQxCzAJBgNVBAYTAlVT
MQswCQYDVQQIEwJDQTEVMBMGA1UEBxMMU2FuRnJhbmNpc2NvMRUwEwYDVQQKEwxQ
aXhnbG8sIEluYy4xEDAOBgNVBAsTB1ZQTi1DSUUxGjAYBgNVBAMTEXR1bm5lbC5w
aXhnbG8uY29tMRwwGgYDVQQpExNCYWxhIENoYW5kcmFzZWthcmFuMR4wHAYJKoZI
hvcNAQkBFg9iYWxhQHBpeGdsby5jb20wHhcNMTgwMjE0MDY0NzU2WhcNMjgwMjEy
MDY0NzU2WjCBqTELMAkGA1UEBhMCVVMxCzAJBgNVBAgTAkNBMRUwEwYDVQQHEwxT
YW5GcmFuY2lzY28xFTATBgNVBAoTDFBpeGdsbywgSW5jLjEQMA4GA1UECxMHVlBO
LUNJRTEPMA0GA1UEAxMGY2llOTE1MRwwGgYDVQQpExNCYWxhIENoYW5kcmFzZWth
cmFuMR4wHAYJKoZIhvcNAQkBFg9iYWxhQHBpeGdsby5jb20wggIiMA0GCSqGSIb3
DQEBAQUAA4ICDwAwggIKAoICAQDG07GNnbxP0AqcYQ4kVDPXaitHt4U0h01pqrEK
BOePgV2/QLlxxzOIHoZKqLo3C341HBpqSBIXRejeESFpW8/rb1sAjpJjifID2jDN
JJZhWWw8mOdYbCrWg4lwGPNNqHZBC5Q4W4RBBlaUqEM7Hi1n5C4880VN23BiyELZ
LA0FvTSsEu/+QS8huxiPkCcHUJbId6byIqGH0YrfbW3COqo2wgPQkA/aKZEPs7K7
a8VxwRx5avSwYWct4YxjnoBQjOq0opOJfZyO2H3zru4bwmJLHickSw0B6HU2PN3q
/uQbxYZSXPhdyDKfWllWyleJFLt9nTcMzXthPsHQqTOXO9MBLo9gLqa+AhjcT4AZ
oAvNahHR6yje0UHm2dykrsP9zAuiKf11RJkDDUfwTPaGzPJu53rc0m8+1ApwjJWj
KIeMHnqdnPd4+QFRrwqi0qKZcRAyupT0+QZ4MmlZoRnCg1BrjvUu+3E4qNyaLr/N
HINiOPV7xGJtKTscoK/Ny9Av+PTmk5hWh8qx+Ry/jl8Ri8KEjUO3meqCWKnt0Ndi
srPvZqRcO8ccGn1NMRZjFdikuONTGpGKvATNV0sQrqBkxbarmzRGn/IydfqNrKqN
W4xOoT2A54ZdYUA6o6D4lrBuHQO9HnDnTqAQLFkhLpU0IMLidrVB9N7GXT6DB+ej
fOz73wIDAQABo4IBazCCAWcwCQYDVR0TBAIwADAtBglghkgBhvhCAQ0EIBYeRWFz
eS1SU0EgR2VuZXJhdGVkIENlcnRpZmljYXRlMB0GA1UdDgQWBBQPf8F7VgVsKoWc
1L6ccUBBXJq6yDCB6QYDVR0jBIHhMIHegBTvOI0UUFinW02cF3L837msp1GwEKGB
uqSBtzCBtDELMAkGA1UEBhMCVVMxCzAJBgNVBAgTAkNBMRUwEwYDVQQHEwxTYW5G
cmFuY2lzY28xFTATBgNVBAoTDFBpeGdsbywgSW5jLjEQMA4GA1UECxMHVlBOLUNJ
RTEaMBgGA1UEAxMRdHVubmVsLnBpeGdsby5jb20xHDAaBgNVBCkTE0JhbGEgQ2hh
bmRyYXNla2FyYW4xHjAcBgkqhkiG9w0BCQEWD2JhbGFAcGl4Z2xvLmNvbYIJAKbb
xoOA5qB5MBMGA1UdJQQMMAoGCCsGAQUFBwMCMAsGA1UdDwQEAwIHgDANBgkqhkiG
9w0BAQUFAAOCAgEAGXvwlEvTxuh80O/F2dtw2pAfZJ6bMQmLl9n4zKTI1OUeeJMH
tbGv2f0C40QZEQQbJfIwZoOF/UL3k8ueGR9yvnxP3O+WSyCAE7E/zzVtowd6uOQC
kQyJjY73qttfkbMoH7SAU4HJTJvq4clxTBJqj4DsxA9kusxs5VHvxp94w20L0qUn
LUzp+dUR5YpCrwW4XQZIodsjABVGf+hLLfh7LwwjBP5FVObwU5B/vTsEZJfD9R+O
KesfKAWHbNehEkK7Z6+3TfzdjaKFq0xfvGFQs7IxRYDyJoFIMZyq3Gax0NXAzpRe
HKudcpkPkJU7kLYneRP4MVqX8z7O8h24oBkd0Z9lMeTjuAM5Omt1mxm73LyriNuZ
ydykQU/XbJTvqN0FTrntzFHVmlUHFSZuJs9ShuFgC7niUaqwjw/laSosb/z6e6y+
j6jUfo+owWt/IVSZx3sUgHvCmr/fWskK7oeR0Ai6B7kzyRBXrVURWjNRBh0L6ZSs
3/CxPLFZc7bV6RZnsN4HF87Ie8yPNWlIHsI0gtpUI0syVhgXk5fnmNPAmOZL1JLe
6KfD+OVDQ62TPCOSy1s3OuatFDSxCX1Zpx0bx1aQF0h4L9dtx1m66j2Xf6sPp1rl
moqDWll+T7Sq6MiwwIMoVCnR7f/5IyZDVqRRmJ97ZQL71WNhiSDvp/nyqAc=
-----END CERTIFICATE-----
