Certificate:
    Data:
        Version: 3 (0x2)
        Serial Number: 954 (0x3ba)
    Signature Algorithm: sha1WithRSAEncryption
        Issuer: C=US, ST=CA, L=SanFrancisco, O=Pixglo, Inc., OU=VPN-CIE, CN=tunnel.pixglo.com/name=Bala Chandrasekaran/emailAddress=bala@pixglo.com
        Validity
            Not Before: Feb 14 06:49:07 2018 GMT
            Not After : Feb 12 06:49:07 2028 GMT
        Subject: C=US, ST=CA, L=SanFrancisco, O=Pixglo, Inc., OU=VPN-CIE, CN=cie953/name=Bala Chandrasekaran/emailAddress=bala@pixglo.com
        Subject Public Key Info:
            Public Key Algorithm: rsaEncryption
                Public-Key: (4096 bit)
                Modulus:
                    00:db:ce:f2:35:a6:fc:3b:94:5c:fb:b6:43:4a:91:
                    e9:9f:ea:4a:61:d0:b5:1f:37:d0:2f:77:9e:15:00:
                    e4:7b:f2:43:c7:5e:68:e0:c9:32:eb:8a:6c:02:f6:
                    6b:92:98:17:32:ce:ad:4d:72:d9:a4:93:4f:e5:ef:
                    c5:60:57:9a:79:aa:84:88:aa:88:59:36:3e:3d:f9:
                    cb:2b:04:34:5c:89:32:c9:09:8a:ad:64:47:6f:b8:
                    e5:56:53:9c:af:71:7e:12:9d:6b:fd:a3:da:7f:5b:
                    ee:cc:8f:80:87:17:6c:f7:27:1f:b1:2b:bf:cd:f5:
                    f8:f0:24:d9:ba:ee:40:17:55:8c:6c:6c:c9:1b:49:
                    0d:41:d7:f0:9d:84:a2:5d:9b:6e:21:c0:f2:05:99:
                    65:16:25:26:a5:f3:7d:1a:9b:77:7a:97:51:0d:aa:
                    fa:26:97:e9:d6:8c:8e:97:27:d8:b4:b8:e1:b5:ea:
                    15:be:0a:cd:a8:2b:93:cc:d4:3b:f9:ef:21:9e:fc:
                    a8:41:4e:a8:04:88:71:27:23:1b:a5:7c:ef:21:1b:
                    cc:73:fc:96:4a:51:88:a0:8f:4a:2e:72:9c:01:0c:
                    1e:96:38:99:04:76:e7:85:83:e1:65:09:bc:9a:89:
                    2e:18:e4:04:db:47:2d:96:1f:8e:ba:1c:ab:65:9e:
                    40:ff:5b:2c:9f:5c:3c:93:9a:3c:4f:9c:49:7c:3e:
                    2f:f8:12:6b:f4:85:0e:fa:a6:6f:86:d2:27:49:8a:
                    d2:98:1c:fd:a7:be:44:a0:c8:f0:7e:c0:79:cb:79:
                    87:54:67:8a:7e:e2:85:3e:94:80:e4:7c:db:dc:d5:
                    f4:78:24:41:74:70:14:f5:5d:cb:bb:e5:5b:c5:4f:
                    68:d2:9c:5a:f5:a7:40:99:0c:83:a2:76:62:4e:21:
                    53:60:e0:40:22:64:62:3c:21:74:36:2e:ab:cd:b6:
                    66:5c:2d:b3:de:f5:aa:4a:e8:18:81:1e:f6:08:37:
                    24:7f:f6:d5:a5:07:e4:93:14:08:99:7d:e8:c4:a4:
                    67:73:7d:ac:c3:35:e0:2b:46:0c:88:ce:39:a2:19:
                    24:25:ec:a5:f4:bd:64:7a:f4:70:4c:32:cf:8d:d2:
                    6d:de:c0:8a:7b:f6:20:64:a7:4d:3b:55:49:79:cb:
                    35:a2:db:0f:07:a6:7c:ab:a9:65:8e:95:4c:6b:65:
                    74:41:89:96:30:eb:c6:dd:92:29:1b:67:65:01:2d:
                    f3:d7:1f:8c:db:cc:8f:2d:9e:4a:75:9f:67:6e:80:
                    9b:83:b5:b3:e4:65:b6:37:47:70:62:6e:21:b6:22:
                    66:57:31:4c:47:6c:fe:7f:d4:4d:bb:ce:74:04:5c:
                    62:f3:29
                Exponent: 65537 (0x10001)
        X509v3 extensions:
            X509v3 Basic Constraints: 
                CA:FALSE
            Netscape Comment: 
                Easy-RSA Generated Certificate
            X509v3 Subject Key Identifier: 
                F5:5F:73:1B:47:EB:C4:01:34:9E:31:58:02:E0:99:1F:27:0E:53:66
            X509v3 Authority Key Identifier: 
                keyid:EF:38:8D:14:50:58:A7:5B:4D:9C:17:72:FC:DF:B9:AC:A7:51:B0:10
                DirName:/C=US/ST=CA/L=SanFrancisco/O=Pixglo, Inc./OU=VPN-CIE/CN=tunnel.pixglo.com/name=Bala Chandrasekaran/emailAddress=bala@pixglo.com
                serial:A6:DB:C6:83:80:E6:A0:79

            X509v3 Extended Key Usage: 
                TLS Web Client Authentication
            X509v3 Key Usage: 
                Digital Signature
    Signature Algorithm: sha1WithRSAEncryption
         23:9e:11:d1:4d:7f:53:48:8e:0f:81:62:70:c1:76:48:55:45:
         82:ce:95:bf:50:92:07:ec:90:30:6f:52:c2:1c:66:7e:1e:64:
         7f:95:76:48:7a:8a:d0:44:ed:e4:a1:4d:d3:60:cf:0e:44:9a:
         b7:fb:ab:34:16:c6:3d:41:f0:d3:7f:f2:f5:2d:8c:f7:86:c5:
         ce:51:ac:86:ce:09:13:68:1f:89:35:b2:e4:3f:c4:ec:39:e2:
         a9:21:94:7a:a9:ce:70:f8:fb:d5:23:9f:9b:ea:23:7c:2b:13:
         da:e1:1c:3e:6c:23:18:62:64:85:d6:f3:28:02:f6:54:67:ee:
         8b:68:74:a2:e2:a4:c2:cd:15:b3:42:c9:84:10:75:0f:92:19:
         cb:93:14:7d:4c:21:6c:32:42:17:33:87:d1:ac:bb:db:5a:c5:
         a3:1b:06:71:8d:0e:0f:01:9d:60:05:f2:72:ca:ca:d6:7f:fc:
         19:c8:89:23:45:28:12:d5:0e:a1:98:79:69:a0:36:21:15:1a:
         e2:8f:cd:4e:f2:d4:71:44:5e:11:0e:da:36:6e:98:ac:21:4b:
         59:3a:68:c5:bd:be:37:4f:ec:6f:b8:5c:19:d4:b7:78:95:7e:
         23:e3:cb:cd:db:97:1f:74:e3:b4:d4:9c:6a:30:f5:1d:53:2a:
         8f:67:9a:ff:32:b2:22:8a:16:9b:cb:e9:9b:4d:a5:d8:e7:4e:
         2b:97:82:01:7e:bd:a4:13:1b:11:91:5c:7b:2a:49:06:c4:9b:
         a1:90:82:04:aa:f3:2c:d3:0d:85:0e:c8:5a:13:08:ec:ea:31:
         ce:dc:88:82:8d:17:78:cf:1f:90:06:a9:f3:1d:e1:55:29:de:
         32:40:a6:ae:ab:2d:32:df:6c:b4:5c:b6:6c:24:31:0d:43:83:
         7d:8e:7a:b1:0a:3b:ab:9d:55:81:1f:4c:39:6d:3f:a8:c2:9c:
         26:05:e4:8b:3e:4f:ec:ce:7a:32:4f:01:2b:61:c7:fb:3f:57:
         4e:d5:f8:28:e4:24:33:89:59:c5:7a:d5:56:4d:df:54:d0:b6:
         85:27:72:0b:8b:f6:fb:0c:44:72:a2:28:43:88:82:4e:5d:e2:
         23:54:76:eb:8d:d5:b8:d9:05:37:3b:41:9d:f7:8d:58:36:ab:
         e5:11:7b:ed:74:39:89:3b:36:08:e6:96:47:0d:a1:45:92:45:
         86:24:ea:d6:0e:95:c6:65:4d:d7:dd:f1:05:99:cc:4d:7e:ea:
         7f:74:f6:e7:a8:5f:0b:56:1f:b5:c5:8f:24:26:2f:f4:d8:14:
         33:f9:e2:b7:63:bb:9c:eb:9a:08:04:73:76:b2:6f:60:51:f8:
         86:d3:b8:2b:5f:c7:18:be
-----BEGIN CERTIFICATE-----
MIIHSDCCBTCgAwIBAgICA7owDQYJKoZIhvcNAQEFBQAwgbQxCzAJBgNVBAYTAlVT
MQswCQYDVQQIEwJDQTEVMBMGA1UEBxMMU2FuRnJhbmNpc2NvMRUwEwYDVQQKEwxQ
aXhnbG8sIEluYy4xEDAOBgNVBAsTB1ZQTi1DSUUxGjAYBgNVBAMTEXR1bm5lbC5w
aXhnbG8uY29tMRwwGgYDVQQpExNCYWxhIENoYW5kcmFzZWthcmFuMR4wHAYJKoZI
hvcNAQkBFg9iYWxhQHBpeGdsby5jb20wHhcNMTgwMjE0MDY0OTA3WhcNMjgwMjEy
MDY0OTA3WjCBqTELMAkGA1UEBhMCVVMxCzAJBgNVBAgTAkNBMRUwEwYDVQQHEwxT
YW5GcmFuY2lzY28xFTATBgNVBAoTDFBpeGdsbywgSW5jLjEQMA4GA1UECxMHVlBO
LUNJRTEPMA0GA1UEAxMGY2llOTUzMRwwGgYDVQQpExNCYWxhIENoYW5kcmFzZWth
cmFuMR4wHAYJKoZIhvcNAQkBFg9iYWxhQHBpeGdsby5jb20wggIiMA0GCSqGSIb3
DQEBAQUAA4ICDwAwggIKAoICAQDbzvI1pvw7lFz7tkNKkemf6kph0LUfN9Avd54V
AOR78kPHXmjgyTLrimwC9muSmBcyzq1Nctmkk0/l78VgV5p5qoSIqohZNj49+csr
BDRciTLJCYqtZEdvuOVWU5yvcX4SnWv9o9p/W+7Mj4CHF2z3Jx+xK7/N9fjwJNm6
7kAXVYxsbMkbSQ1B1/CdhKJdm24hwPIFmWUWJSal830am3d6l1ENqvoml+nWjI6X
J9i0uOG16hW+Cs2oK5PM1Dv57yGe/KhBTqgEiHEnIxulfO8hG8xz/JZKUYigj0ou
cpwBDB6WOJkEdueFg+FlCbyaiS4Y5ATbRy2WH466HKtlnkD/WyyfXDyTmjxPnEl8
Pi/4Emv0hQ76pm+G0idJitKYHP2nvkSgyPB+wHnLeYdUZ4p+4oU+lIDkfNvc1fR4
JEF0cBT1Xcu75VvFT2jSnFr1p0CZDIOidmJOIVNg4EAiZGI8IXQ2LqvNtmZcLbPe
9apK6BiBHvYINyR/9tWlB+STFAiZfejEpGdzfazDNeArRgyIzjmiGSQl7KX0vWR6
9HBMMs+N0m3ewIp79iBkp007VUl5yzWi2w8HpnyrqWWOlUxrZXRBiZYw68bdkikb
Z2UBLfPXH4zbzI8tnkp1n2dugJuDtbPkZbY3R3BibiG2ImZXMUxHbP5/1E27znQE
XGLzKQIDAQABo4IBazCCAWcwCQYDVR0TBAIwADAtBglghkgBhvhCAQ0EIBYeRWFz
eS1SU0EgR2VuZXJhdGVkIENlcnRpZmljYXRlMB0GA1UdDgQWBBT1X3MbR+vEATSe
MVgC4JkfJw5TZjCB6QYDVR0jBIHhMIHegBTvOI0UUFinW02cF3L837msp1GwEKGB
uqSBtzCBtDELMAkGA1UEBhMCVVMxCzAJBgNVBAgTAkNBMRUwEwYDVQQHEwxTYW5G
cmFuY2lzY28xFTATBgNVBAoTDFBpeGdsbywgSW5jLjEQMA4GA1UECxMHVlBOLUNJ
RTEaMBgGA1UEAxMRdHVubmVsLnBpeGdsby5jb20xHDAaBgNVBCkTE0JhbGEgQ2hh
bmRyYXNla2FyYW4xHjAcBgkqhkiG9w0BCQEWD2JhbGFAcGl4Z2xvLmNvbYIJAKbb
xoOA5qB5MBMGA1UdJQQMMAoGCCsGAQUFBwMCMAsGA1UdDwQEAwIHgDANBgkqhkiG
9w0BAQUFAAOCAgEAI54R0U1/U0iOD4FicMF2SFVFgs6Vv1CSB+yQMG9Swhxmfh5k
f5V2SHqK0ETt5KFN02DPDkSat/urNBbGPUHw03/y9S2M94bFzlGshs4JE2gfiTWy
5D/E7DniqSGUeqnOcPj71SOfm+ojfCsT2uEcPmwjGGJkhdbzKAL2VGfui2h0ouKk
ws0Vs0LJhBB1D5IZy5MUfUwhbDJCFzOH0ay721rFoxsGcY0ODwGdYAXycsrK1n/8
GciJI0UoEtUOoZh5aaA2IRUa4o/NTvLUcUReEQ7aNm6YrCFLWTpoxb2+N0/sb7hc
GdS3eJV+I+PLzduXH3TjtNScajD1HVMqj2ea/zKyIooWm8vpm02l2OdOK5eCAX69
pBMbEZFceypJBsSboZCCBKrzLNMNhQ7IWhMI7OoxztyIgo0XeM8fkAap8x3hVSne
MkCmrqstMt9stFy2bCQxDUODfY56sQo7q51VgR9MOW0/qMKcJgXkiz5P7M56Mk8B
K2HH+z9XTtX4KOQkM4lZxXrVVk3fVNC2hSdyC4v2+wxEcqIoQ4iCTl3iI1R2643V
uNkFNztBnfeNWDar5RF77XQ5iTs2COaWRw2hRZJFhiTq1g6VxmVN193xBZnMTX7q
f3T256hfC1YftcWPJCYv9NgUM/nit2O7nOuaCARzdrJvYFH4htO4K1/HGL4=
-----END CERTIFICATE-----
