Certificate:
    Data:
        Version: 3 (0x2)
        Serial Number: 943 (0x3af)
    Signature Algorithm: sha1WithRSAEncryption
        Issuer: C=US, ST=CA, L=SanFrancisco, O=Pixglo, Inc., OU=VPN-CIE, CN=tunnel.pixglo.com/name=Bala Chandrasekaran/emailAddress=bala@pixglo.com
        Validity
            Not Before: Feb 14 06:48:47 2018 GMT
            Not After : Feb 12 06:48:47 2028 GMT
        Subject: C=US, ST=CA, L=SanFrancisco, O=Pixglo, Inc., OU=VPN-CIE, CN=cie942/name=Bala Chandrasekaran/emailAddress=bala@pixglo.com
        Subject Public Key Info:
            Public Key Algorithm: rsaEncryption
                Public-Key: (4096 bit)
                Modulus:
                    00:bb:47:9c:f9:12:12:92:7c:d7:da:1f:60:45:2b:
                    de:b7:8b:97:d1:b2:0e:43:bc:de:18:71:55:62:86:
                    09:72:3a:ba:ed:1c:88:24:27:08:2f:09:15:27:b5:
                    94:63:59:ff:c5:9d:44:05:28:a2:5a:6b:2e:ea:f6:
                    62:d3:1b:dc:e9:7c:89:1a:d7:15:d5:52:3f:3a:0d:
                    85:a7:73:96:ef:f4:c4:09:75:3f:fb:fe:08:76:53:
                    d0:df:a0:f4:4c:b9:8f:34:0a:0d:d6:93:63:a2:d3:
                    08:f9:54:90:94:09:a3:e6:40:4e:4f:42:ba:6a:93:
                    d5:10:6e:54:5d:be:74:cd:2d:28:91:59:8a:5b:3c:
                    1a:13:60:af:0f:5d:0d:ce:2f:62:45:09:4e:35:86:
                    46:55:6e:cb:b0:9b:58:6a:9e:d3:1e:b5:67:67:0a:
                    78:14:2f:bb:fc:74:60:f8:c4:8f:d7:dc:5b:a1:92:
                    5d:32:73:5a:ee:82:4d:a7:fd:21:22:e5:bc:77:e5:
                    dd:d0:5e:13:84:8d:96:7f:b5:f0:75:e9:91:60:3f:
                    08:39:86:c7:78:ba:fe:d0:4c:f3:9f:3a:2d:e6:0a:
                    b3:d4:0c:b4:ee:59:57:c8:1b:4f:7c:91:f4:c9:be:
                    8f:5e:2c:22:fc:0d:9f:d5:b4:30:09:3b:9f:8b:0d:
                    d9:24:cb:eb:2a:24:eb:39:67:ae:66:2c:db:20:8f:
                    57:ba:69:e3:1c:c1:37:bd:c8:bb:3b:a3:2b:43:24:
                    4c:0c:b1:0b:22:55:b8:e9:7e:98:3f:a1:a9:84:0e:
                    fa:34:b6:16:9c:17:fc:7d:44:45:14:fb:74:a1:75:
                    fc:90:f5:9f:13:2a:1a:5c:18:3c:5c:c8:94:af:6c:
                    7d:aa:6f:d9:70:e6:20:f4:1d:43:f5:09:7b:07:05:
                    bf:bf:49:f8:cd:84:40:90:89:f2:ac:37:95:d3:f7:
                    f1:12:8c:32:77:c5:9e:13:f7:62:3c:9c:f4:37:db:
                    4c:f5:9a:a6:73:21:2f:31:35:18:8d:05:fb:5a:d9:
                    fb:da:04:65:8d:4b:1b:ae:1f:4e:46:15:0d:55:aa:
                    72:95:4f:a8:eb:61:21:67:83:30:c1:44:71:24:fd:
                    fa:db:5b:c2:35:33:a9:a9:5e:18:2b:65:1a:49:2d:
                    9c:e9:fc:db:6a:1b:d3:7d:29:ea:89:69:60:d1:ed:
                    12:c8:0a:93:d8:a6:75:44:98:eb:e8:79:a6:57:0c:
                    03:c3:a1:af:e2:ba:cb:c1:66:aa:c8:77:59:37:12:
                    15:dd:59:5a:3c:e2:61:b2:c7:64:63:b1:a1:db:fe:
                    00:85:25:7c:4e:92:87:2f:7f:7c:f0:b6:01:ea:f0:
                    2e:2c:59
                Exponent: 65537 (0x10001)
        X509v3 extensions:
            X509v3 Basic Constraints: 
                CA:FALSE
            Netscape Comment: 
                Easy-RSA Generated Certificate
            X509v3 Subject Key Identifier: 
                F5:18:B5:EC:13:B4:EE:BC:29:40:00:DA:9A:03:0C:52:66:A7:7E:EE
            X509v3 Authority Key Identifier: 
                keyid:EF:38:8D:14:50:58:A7:5B:4D:9C:17:72:FC:DF:B9:AC:A7:51:B0:10
                DirName:/C=US/ST=CA/L=SanFrancisco/O=Pixglo, Inc./OU=VPN-CIE/CN=tunnel.pixglo.com/name=Bala Chandrasekaran/emailAddress=bala@pixglo.com
                serial:A6:DB:C6:83:80:E6:A0:79

            X509v3 Extended Key Usage: 
                TLS Web Client Authentication
            X509v3 Key Usage: 
                Digital Signature
    Signature Algorithm: sha1WithRSAEncryption
         93:a8:37:ad:37:f1:c6:e4:5a:ae:74:05:6e:71:f8:35:5f:d9:
         77:b0:b9:f7:d1:6d:cf:c0:b7:3e:6c:46:b0:61:94:34:7e:77:
         3c:95:f1:b0:9b:5d:20:f2:2e:02:4a:72:e3:3c:ed:22:c9:53:
         eb:e7:dd:63:f1:7c:a0:50:9e:2b:10:71:bd:cb:fb:97:48:7b:
         3d:36:34:7e:8b:87:52:e3:4a:51:33:bd:7e:65:4c:7d:ad:bf:
         7a:be:a3:70:be:18:fc:6f:6c:8d:5d:2d:67:8f:e5:db:48:0a:
         fb:8c:03:69:df:cc:17:5c:38:2e:96:b8:c1:7b:ae:75:47:59:
         dd:ec:f2:a3:22:77:ef:2c:51:97:bd:18:91:2d:d5:6a:61:68:
         1d:fc:f6:1b:20:9e:78:db:95:46:a2:59:e4:a5:b5:c5:d1:ff:
         30:29:e1:e6:d5:21:40:36:21:85:50:b6:3b:3c:25:91:74:92:
         0d:a6:c0:7d:08:50:48:47:f7:4b:14:cd:77:3e:4f:ba:d8:c7:
         ba:66:2f:43:b6:ce:94:fd:f7:f1:9e:bb:1b:b6:4f:9e:07:f3:
         7e:d0:c8:c2:0a:ce:24:93:87:4a:68:c5:e5:a2:56:81:77:64:
         83:6c:5a:c6:99:36:9d:fe:8c:2a:b6:5c:5a:a9:48:56:5c:60:
         66:cf:24:7e:68:fe:89:14:f4:36:ff:13:8f:74:e2:46:28:b2:
         f0:8f:df:93:f1:66:cc:db:cb:d1:df:b2:06:fc:a1:76:39:e6:
         03:6f:07:56:2e:fb:ee:e8:cd:2c:d9:20:7c:8c:72:6f:6b:94:
         dc:ce:3f:c1:9d:cc:63:d1:90:9e:08:42:8f:8d:13:44:7c:03:
         fb:aa:f0:51:c9:3d:a5:d4:ca:53:c5:2a:fb:33:fb:25:fd:ec:
         2e:5f:b5:0d:aa:d1:13:42:0a:07:0d:b6:5f:5e:fe:a5:cb:c9:
         af:cb:37:6e:ec:a9:5c:09:54:da:45:02:87:5a:64:f6:2c:4d:
         e1:9e:67:66:8a:e5:c9:8f:c4:5a:a8:6d:81:1c:5d:e7:50:80:
         9c:ab:18:e8:c0:b8:5b:2c:b2:38:5e:2a:30:8b:8c:f7:db:49:
         36:fa:8e:42:48:79:77:63:31:e2:3a:f6:bb:98:ea:e4:0a:e5:
         8e:95:e2:6a:55:d0:4a:55:db:2f:2e:10:fa:d9:ad:7c:22:9f:
         8c:cc:b8:3c:63:6c:df:3c:94:1a:a0:f4:44:f0:08:8f:f5:dd:
         ec:e9:e2:3f:e8:15:f7:c6:16:7d:be:fb:87:45:a1:7c:ab:71:
         31:a2:f3:32:4e:5a:d6:d1:08:34:7d:f2:1c:d6:25:52:30:25:
         79:7a:aa:54:d6:d3:a7:da
-----BEGIN CERTIFICATE-----
MIIHSDCCBTCgAwIBAgICA68wDQYJKoZIhvcNAQEFBQAwgbQxCzAJBgNVBAYTAlVT
MQswCQYDVQQIEwJDQTEVMBMGA1UEBxMMU2FuRnJhbmNpc2NvMRUwEwYDVQQKEwxQ
aXhnbG8sIEluYy4xEDAOBgNVBAsTB1ZQTi1DSUUxGjAYBgNVBAMTEXR1bm5lbC5w
aXhnbG8uY29tMRwwGgYDVQQpExNCYWxhIENoYW5kcmFzZWthcmFuMR4wHAYJKoZI
hvcNAQkBFg9iYWxhQHBpeGdsby5jb20wHhcNMTgwMjE0MDY0ODQ3WhcNMjgwMjEy
MDY0ODQ3WjCBqTELMAkGA1UEBhMCVVMxCzAJBgNVBAgTAkNBMRUwEwYDVQQHEwxT
YW5GcmFuY2lzY28xFTATBgNVBAoTDFBpeGdsbywgSW5jLjEQMA4GA1UECxMHVlBO
LUNJRTEPMA0GA1UEAxMGY2llOTQyMRwwGgYDVQQpExNCYWxhIENoYW5kcmFzZWth
cmFuMR4wHAYJKoZIhvcNAQkBFg9iYWxhQHBpeGdsby5jb20wggIiMA0GCSqGSIb3
DQEBAQUAA4ICDwAwggIKAoICAQC7R5z5EhKSfNfaH2BFK963i5fRsg5DvN4YcVVi
hglyOrrtHIgkJwgvCRUntZRjWf/FnUQFKKJaay7q9mLTG9zpfIka1xXVUj86DYWn
c5bv9MQJdT/7/gh2U9DfoPRMuY80Cg3Wk2Oi0wj5VJCUCaPmQE5PQrpqk9UQblRd
vnTNLSiRWYpbPBoTYK8PXQ3OL2JFCU41hkZVbsuwm1hqntMetWdnCngUL7v8dGD4
xI/X3Fuhkl0yc1rugk2n/SEi5bx35d3QXhOEjZZ/tfB16ZFgPwg5hsd4uv7QTPOf
Oi3mCrPUDLTuWVfIG098kfTJvo9eLCL8DZ/VtDAJO5+LDdkky+sqJOs5Z65mLNsg
j1e6aeMcwTe9yLs7oytDJEwMsQsiVbjpfpg/oamEDvo0thacF/x9REUU+3ShdfyQ
9Z8TKhpcGDxcyJSvbH2qb9lw5iD0HUP1CXsHBb+/SfjNhECQifKsN5XT9/ESjDJ3
xZ4T92I8nPQ320z1mqZzIS8xNRiNBfta2fvaBGWNSxuuH05GFQ1VqnKVT6jrYSFn
gzDBRHEk/frbW8I1M6mpXhgrZRpJLZzp/NtqG9N9KeqJaWDR7RLICpPYpnVEmOvo
eaZXDAPDoa/iusvBZqrId1k3EhXdWVo84mGyx2RjsaHb/gCFJXxOkocvf3zwtgHq
8C4sWQIDAQABo4IBazCCAWcwCQYDVR0TBAIwADAtBglghkgBhvhCAQ0EIBYeRWFz
eS1SU0EgR2VuZXJhdGVkIENlcnRpZmljYXRlMB0GA1UdDgQWBBT1GLXsE7TuvClA
ANqaAwxSZqd+7jCB6QYDVR0jBIHhMIHegBTvOI0UUFinW02cF3L837msp1GwEKGB
uqSBtzCBtDELMAkGA1UEBhMCVVMxCzAJBgNVBAgTAkNBMRUwEwYDVQQHEwxTYW5G
cmFuY2lzY28xFTATBgNVBAoTDFBpeGdsbywgSW5jLjEQMA4GA1UECxMHVlBOLUNJ
RTEaMBgGA1UEAxMRdHVubmVsLnBpeGdsby5jb20xHDAaBgNVBCkTE0JhbGEgQ2hh
bmRyYXNla2FyYW4xHjAcBgkqhkiG9w0BCQEWD2JhbGFAcGl4Z2xvLmNvbYIJAKbb
xoOA5qB5MBMGA1UdJQQMMAoGCCsGAQUFBwMCMAsGA1UdDwQEAwIHgDANBgkqhkiG
9w0BAQUFAAOCAgEAk6g3rTfxxuRarnQFbnH4NV/Zd7C599Ftz8C3PmxGsGGUNH53
PJXxsJtdIPIuAkpy4zztIslT6+fdY/F8oFCeKxBxvcv7l0h7PTY0fouHUuNKUTO9
fmVMfa2/er6jcL4Y/G9sjV0tZ4/l20gK+4wDad/MF1w4Lpa4wXuudUdZ3ezyoyJ3
7yxRl70YkS3VamFoHfz2GyCeeNuVRqJZ5KW1xdH/MCnh5tUhQDYhhVC2OzwlkXSS
DabAfQhQSEf3SxTNdz5PutjHumYvQ7bOlP338Z67G7ZPngfzftDIwgrOJJOHSmjF
5aJWgXdkg2xaxpk2nf6MKrZcWqlIVlxgZs8kfmj+iRT0Nv8Tj3TiRiiy8I/fk/Fm
zNvL0d+yBvyhdjnmA28HVi777ujNLNkgfIxyb2uU3M4/wZ3MY9GQnghCj40TRHwD
+6rwUck9pdTKU8Uq+zP7Jf3sLl+1DarRE0IKBw22X17+pcvJr8s3buypXAlU2kUC
h1pk9ixN4Z5nZorlyY/EWqhtgRxd51CAnKsY6MC4WyyyOF4qMIuM99tJNvqOQkh5
d2Mx4jr2u5jq5ArljpXialXQSlXbLy4Q+tmtfCKfjMy4PGNs3zyUGqD0RPAIj/Xd
7OniP+gV98YWfb77h0WhfKtxMaLzMk5a1tEINH3yHNYlUjAleXqqVNbTp9o=
-----END CERTIFICATE-----
