Certificate:
    Data:
        Version: 3 (0x2)
        Serial Number: 979 (0x3d3)
    Signature Algorithm: sha1WithRSAEncryption
        Issuer: C=US, ST=CA, L=SanFrancisco, O=Pixglo, Inc., OU=VPN-CIE, CN=tunnel.pixglo.com/name=Bala Chandrasekaran/emailAddress=bala@pixglo.com
        Validity
            Not Before: Feb 14 06:49:52 2018 GMT
            Not After : Feb 12 06:49:52 2028 GMT
        Subject: C=US, ST=CA, L=SanFrancisco, O=Pixglo, Inc., OU=VPN-CIE, CN=cie978/name=Bala Chandrasekaran/emailAddress=bala@pixglo.com
        Subject Public Key Info:
            Public Key Algorithm: rsaEncryption
                Public-Key: (4096 bit)
                Modulus:
                    00:a9:00:72:d4:80:a2:37:6b:01:8c:67:35:53:3d:
                    80:83:cd:07:a0:dc:5e:b5:69:6d:ce:9f:28:65:ef:
                    96:74:cb:5b:d6:1f:9d:00:88:77:1c:c3:ad:6e:e9:
                    38:62:91:51:df:b4:ed:77:7b:19:51:14:04:f6:1f:
                    a6:18:9f:3f:c9:1c:44:87:55:54:14:7e:da:c2:61:
                    51:a5:dd:67:60:96:3d:a9:fb:5d:30:52:d3:93:5d:
                    71:6f:76:14:8a:61:8c:f0:08:1c:0b:13:31:6e:fb:
                    86:aa:55:d2:64:fb:62:0d:f5:b3:6c:23:71:15:43:
                    17:4a:47:d6:c5:bc:50:cc:bd:72:85:13:f0:a4:3d:
                    7a:90:3a:69:56:fd:59:35:29:ca:f4:d0:02:66:fb:
                    ee:f4:e6:88:93:0b:fd:83:10:6a:79:e0:5d:b1:29:
                    75:3b:c9:8c:c0:17:49:72:ca:94:d0:8c:9f:33:66:
                    aa:df:cf:38:6f:84:f3:b5:73:fc:aa:a1:f3:b2:23:
                    54:e2:cb:07:97:42:03:2b:84:73:7a:a0:ea:1d:b7:
                    53:54:58:b6:62:f8:42:22:29:61:8d:7d:a7:44:03:
                    3e:02:81:09:96:bf:fd:df:63:64:42:df:0b:72:63:
                    ef:2c:8d:7b:64:ff:77:38:65:a5:04:b1:cf:ef:02:
                    93:b8:f5:81:04:1a:c2:d1:11:e5:3c:5f:a3:e9:9c:
                    a3:8c:7a:9b:5e:4b:76:21:34:d9:c8:09:9f:53:9c:
                    b2:af:73:c7:10:8e:1b:71:1c:db:74:b1:ba:eb:d4:
                    93:66:92:08:2d:78:47:19:fa:e4:f9:8a:a1:1d:6d:
                    e9:14:d7:02:cc:5c:20:d3:55:02:61:0b:d7:a9:bd:
                    03:1a:c9:97:f5:c4:88:76:ba:e0:bb:30:60:84:92:
                    20:a1:eb:89:e8:b0:2d:4f:f4:ba:f1:2c:71:98:53:
                    6c:cf:97:4f:17:6e:10:d8:02:a7:04:9b:60:3f:ed:
                    ed:fb:85:e7:54:c8:86:1c:5c:89:f8:a6:98:b8:87:
                    c1:09:a1:16:88:92:af:3d:56:2b:cb:2e:81:a8:e3:
                    68:e3:4a:87:10:13:de:c1:74:4b:a5:05:4e:95:b1:
                    21:03:1a:68:37:04:e9:d3:eb:17:28:78:89:8a:19:
                    8c:a9:65:30:0f:8b:9a:fb:9a:3e:96:c5:81:59:2b:
                    1e:3b:67:e7:f3:c8:41:93:30:f9:f7:7d:18:c0:47:
                    3e:59:8f:20:fc:59:19:40:ef:f6:11:b8:52:05:98:
                    ae:6d:07:8d:14:66:63:dc:6e:f1:99:fa:fe:15:2a:
                    94:14:57:d7:6a:17:fb:17:4f:52:aa:5d:7f:3d:cd:
                    03:0f:e3
                Exponent: 65537 (0x10001)
        X509v3 extensions:
            X509v3 Basic Constraints: 
                CA:FALSE
            Netscape Comment: 
                Easy-RSA Generated Certificate
            X509v3 Subject Key Identifier: 
                1E:91:51:F7:51:1A:A2:F5:74:39:26:52:9F:83:1B:0E:95:46:72:DD
            X509v3 Authority Key Identifier: 
                keyid:EF:38:8D:14:50:58:A7:5B:4D:9C:17:72:FC:DF:B9:AC:A7:51:B0:10
                DirName:/C=US/ST=CA/L=SanFrancisco/O=Pixglo, Inc./OU=VPN-CIE/CN=tunnel.pixglo.com/name=Bala Chandrasekaran/emailAddress=bala@pixglo.com
                serial:A6:DB:C6:83:80:E6:A0:79

            X509v3 Extended Key Usage: 
                TLS Web Client Authentication
            X509v3 Key Usage: 
                Digital Signature
    Signature Algorithm: sha1WithRSAEncryption
         19:fd:28:6d:61:fd:36:0c:d7:2d:0c:6b:f4:93:13:c7:d1:94:
         46:5a:13:e1:44:bd:ab:d3:bc:d0:b7:4a:b4:90:fc:46:57:b6:
         69:51:9b:0c:90:8a:cb:57:43:c2:6a:d1:5c:08:29:2d:81:2f:
         86:33:a6:8f:16:b8:dc:54:99:7c:2a:fc:6f:1c:1f:a5:2e:b2:
         5b:c9:1e:72:0f:c4:2d:be:e8:27:5c:31:f6:07:87:03:50:24:
         e3:9d:38:d4:5b:3e:19:0f:43:37:b6:a1:0a:5c:29:94:f5:c8:
         7d:fd:41:e4:6d:1d:26:c8:35:97:66:df:d8:a1:ee:42:d8:05:
         a2:cf:43:e5:21:f5:29:a5:f5:eb:7c:f8:5c:6c:28:e3:f7:3e:
         5a:99:6c:9d:aa:43:bf:77:2e:65:da:a7:a3:e2:9a:c2:60:44:
         03:6a:6f:f1:75:e7:c5:63:43:2d:9c:3f:5f:1c:ca:fa:3b:d2:
         fd:11:86:a6:db:95:6f:7e:bf:51:8b:33:17:d5:13:a4:44:9f:
         41:75:05:b0:1f:bb:78:bb:2c:34:de:72:2f:61:b2:9d:71:c3:
         9b:5c:64:ef:67:01:3d:8e:d8:06:59:64:48:65:fb:0f:58:64:
         9e:7e:cb:28:c7:b4:33:7b:fd:d4:a0:5f:d3:0b:70:93:f3:ac:
         bd:bc:7c:6a:f8:0f:da:bf:a8:70:66:5e:3e:5d:9b:ed:42:e5:
         0d:ed:1e:97:a7:38:f7:82:6a:93:fb:f9:c5:e7:f4:21:ca:fc:
         9f:60:88:48:fc:1c:1d:a9:b2:c9:c2:d2:1b:3f:e2:f7:41:7a:
         26:c3:ad:80:44:bd:12:92:fb:40:76:16:44:c4:f2:9b:42:22:
         60:fb:70:aa:1e:d1:ac:b2:32:9a:09:35:87:f7:02:0a:30:9f:
         6e:56:71:54:ae:f0:23:00:7c:92:5f:92:32:b2:d6:24:5f:74:
         91:5c:b9:57:4a:31:c3:25:bb:05:65:06:1d:d2:db:af:18:c9:
         e1:08:40:39:d0:a5:cf:35:c0:aa:1d:89:38:f7:d7:e6:06:4d:
         56:5a:56:cb:ae:10:e8:c5:d7:db:d5:20:32:8e:75:21:b9:c5:
         dc:cf:98:1e:0d:60:06:79:68:0e:ed:0f:fb:41:c0:50:e0:30:
         1c:b7:b7:7d:88:bc:2e:1d:4c:1a:ad:9b:25:a7:bd:aa:15:1e:
         a5:3c:6f:ed:b0:6a:7c:cf:f9:08:c8:5b:25:c8:ea:51:1f:73:
         9f:6f:df:62:0e:4a:2c:7c:d7:1b:e1:f5:85:af:30:95:7d:0e:
         d3:17:da:82:48:87:b0:2f:82:ab:c7:9c:53:50:c9:76:65:21:
         03:85:c5:f0:5c:0a:4f:b2
-----BEGIN CERTIFICATE-----
MIIHSDCCBTCgAwIBAgICA9MwDQYJKoZIhvcNAQEFBQAwgbQxCzAJBgNVBAYTAlVT
MQswCQYDVQQIEwJDQTEVMBMGA1UEBxMMU2FuRnJhbmNpc2NvMRUwEwYDVQQKEwxQ
aXhnbG8sIEluYy4xEDAOBgNVBAsTB1ZQTi1DSUUxGjAYBgNVBAMTEXR1bm5lbC5w
aXhnbG8uY29tMRwwGgYDVQQpExNCYWxhIENoYW5kcmFzZWthcmFuMR4wHAYJKoZI
hvcNAQkBFg9iYWxhQHBpeGdsby5jb20wHhcNMTgwMjE0MDY0OTUyWhcNMjgwMjEy
MDY0OTUyWjCBqTELMAkGA1UEBhMCVVMxCzAJBgNVBAgTAkNBMRUwEwYDVQQHEwxT
YW5GcmFuY2lzY28xFTATBgNVBAoTDFBpeGdsbywgSW5jLjEQMA4GA1UECxMHVlBO
LUNJRTEPMA0GA1UEAxMGY2llOTc4MRwwGgYDVQQpExNCYWxhIENoYW5kcmFzZWth
cmFuMR4wHAYJKoZIhvcNAQkBFg9iYWxhQHBpeGdsby5jb20wggIiMA0GCSqGSIb3
DQEBAQUAA4ICDwAwggIKAoICAQCpAHLUgKI3awGMZzVTPYCDzQeg3F61aW3Onyhl
75Z0y1vWH50AiHccw61u6ThikVHftO13exlRFAT2H6YYnz/JHESHVVQUftrCYVGl
3Wdglj2p+10wUtOTXXFvdhSKYYzwCBwLEzFu+4aqVdJk+2IN9bNsI3EVQxdKR9bF
vFDMvXKFE/CkPXqQOmlW/Vk1Kcr00AJm++705oiTC/2DEGp54F2xKXU7yYzAF0ly
ypTQjJ8zZqrfzzhvhPO1c/yqofOyI1TiyweXQgMrhHN6oOodt1NUWLZi+EIiKWGN
fadEAz4CgQmWv/3fY2RC3wtyY+8sjXtk/3c4ZaUEsc/vApO49YEEGsLREeU8X6Pp
nKOMepteS3YhNNnICZ9TnLKvc8cQjhtxHNt0sbrr1JNmkggteEcZ+uT5iqEdbekU
1wLMXCDTVQJhC9epvQMayZf1xIh2uuC7MGCEkiCh64nosC1P9LrxLHGYU2zPl08X
bhDYAqcEm2A/7e37hedUyIYcXIn4ppi4h8EJoRaIkq89VivLLoGo42jjSocQE97B
dEulBU6VsSEDGmg3BOnT6xcoeImKGYypZTAPi5r7mj6WxYFZKx47Z+fzyEGTMPn3
fRjARz5ZjyD8WRlA7/YRuFIFmK5tB40UZmPcbvGZ+v4VKpQUV9dqF/sXT1KqXX89
zQMP4wIDAQABo4IBazCCAWcwCQYDVR0TBAIwADAtBglghkgBhvhCAQ0EIBYeRWFz
eS1SU0EgR2VuZXJhdGVkIENlcnRpZmljYXRlMB0GA1UdDgQWBBQekVH3URqi9XQ5
JlKfgxsOlUZy3TCB6QYDVR0jBIHhMIHegBTvOI0UUFinW02cF3L837msp1GwEKGB
uqSBtzCBtDELMAkGA1UEBhMCVVMxCzAJBgNVBAgTAkNBMRUwEwYDVQQHEwxTYW5G
cmFuY2lzY28xFTATBgNVBAoTDFBpeGdsbywgSW5jLjEQMA4GA1UECxMHVlBOLUNJ
RTEaMBgGA1UEAxMRdHVubmVsLnBpeGdsby5jb20xHDAaBgNVBCkTE0JhbGEgQ2hh
bmRyYXNla2FyYW4xHjAcBgkqhkiG9w0BCQEWD2JhbGFAcGl4Z2xvLmNvbYIJAKbb
xoOA5qB5MBMGA1UdJQQMMAoGCCsGAQUFBwMCMAsGA1UdDwQEAwIHgDANBgkqhkiG
9w0BAQUFAAOCAgEAGf0obWH9NgzXLQxr9JMTx9GURloT4US9q9O80LdKtJD8Rle2
aVGbDJCKy1dDwmrRXAgpLYEvhjOmjxa43FSZfCr8bxwfpS6yW8kecg/ELb7oJ1wx
9geHA1Ak45041Fs+GQ9DN7ahClwplPXIff1B5G0dJsg1l2bf2KHuQtgFos9D5SH1
KaX163z4XGwo4/c+WplsnapDv3cuZdqno+KawmBEA2pv8XXnxWNDLZw/XxzK+jvS
/RGGptuVb36/UYszF9UTpESfQXUFsB+7eLssNN5yL2GynXHDm1xk72cBPY7YBllk
SGX7D1hknn7LKMe0M3v91KBf0wtwk/Osvbx8avgP2r+ocGZePl2b7ULlDe0el6c4
94Jqk/v5xef0Icr8n2CISPwcHamyycLSGz/i90F6JsOtgES9EpL7QHYWRMTym0Ii
YPtwqh7RrLIymgk1h/cCCjCfblZxVK7wIwB8kl+SMrLWJF90kVy5V0oxwyW7BWUG
HdLbrxjJ4QhAOdClzzXAqh2JOPfX5gZNVlpWy64Q6MXX29UgMo51IbnF3M+YHg1g
BnloDu0P+0HAUOAwHLe3fYi8Lh1MGq2bJae9qhUepTxv7bBqfM/5CMhbJcjqUR9z
n2/fYg5KLHzXG+H1ha8wlX0O0xfagkiHsC+Cq8ecU1DJdmUhA4XF8FwKT7I=
-----END CERTIFICATE-----
