Certificate:
    Data:
        Version: 3 (0x2)
        Serial Number: 905 (0x389)
    Signature Algorithm: sha1WithRSAEncryption
        Issuer: C=US, ST=CA, L=SanFrancisco, O=Pixglo, Inc., OU=VPN-CIE, CN=tunnel.pixglo.com/name=Bala Chandrasekaran/emailAddress=bala@pixglo.com
        Validity
            Not Before: Feb 14 06:47:30 2018 GMT
            Not After : Feb 12 06:47:30 2028 GMT
        Subject: C=US, ST=CA, L=SanFrancisco, O=Pixglo, Inc., OU=VPN-CIE, CN=cie904/name=Bala Chandrasekaran/emailAddress=bala@pixglo.com
        Subject Public Key Info:
            Public Key Algorithm: rsaEncryption
                Public-Key: (4096 bit)
                Modulus:
                    00:c1:31:7d:5b:33:71:8d:35:31:1b:30:bf:42:fd:
                    e3:59:f2:a1:bf:d4:66:83:77:fb:5f:28:54:59:83:
                    86:ce:3c:08:4f:0b:15:67:c1:98:82:4d:9c:4f:8d:
                    d9:6a:2b:2a:ed:58:7f:96:4e:37:4a:cb:8d:0c:85:
                    81:58:4d:93:8c:00:0e:4d:ef:4c:a2:a1:03:5d:fd:
                    d7:81:85:d6:09:e2:a9:6f:f1:af:57:6c:a9:e0:00:
                    b4:c5:3b:25:66:91:94:09:d3:d1:e4:69:67:3b:e0:
                    e6:47:5c:de:82:5e:15:85:aa:65:2d:c8:a3:02:94:
                    ff:66:74:9f:e8:55:6e:72:cb:a7:ab:6f:97:7b:91:
                    91:20:59:f0:3d:e9:79:08:29:86:c5:3b:6b:b2:78:
                    6d:6b:bd:32:92:e9:b2:7b:d7:a4:ff:df:26:85:52:
                    23:c3:3d:7c:2d:92:28:c4:8f:a0:cd:86:07:fe:64:
                    48:7b:09:76:e5:eb:c5:ef:47:2d:ac:8e:89:c4:fe:
                    02:f4:1f:5d:ef:4f:c1:30:1c:3e:00:10:09:b9:64:
                    85:2f:46:98:f8:48:63:ec:6b:c2:70:da:62:82:10:
                    a4:18:65:4c:39:9f:f8:95:aa:dd:e6:6e:18:99:49:
                    f8:c2:08:6e:d6:a5:88:8a:b1:aa:28:4b:17:2a:49:
                    25:58:03:a6:9c:24:ac:e4:f7:43:14:93:fb:ea:5d:
                    17:6e:74:c7:33:59:22:a3:fc:de:46:ba:b2:b1:9a:
                    75:93:0e:2d:af:7f:a1:28:0f:cb:92:19:cd:3d:5d:
                    c9:e7:4e:73:66:55:c9:aa:bd:7e:db:ac:a4:3b:c8:
                    31:78:51:ad:bf:b4:ec:0d:82:c3:bd:04:e7:82:08:
                    be:6a:df:f3:4d:f1:d9:e1:5a:89:9b:20:b6:a6:64:
                    a2:31:6a:a0:ca:6a:06:fc:09:1b:6d:c5:84:b7:2d:
                    f9:36:0f:51:a8:56:c6:e5:79:62:d7:0a:e3:f5:f8:
                    75:b6:b9:b2:01:2d:a9:a7:8c:9a:2e:8e:37:8d:10:
                    80:1e:98:f6:a4:ea:66:24:32:4b:6e:2b:28:a9:19:
                    f4:34:df:3f:01:ff:c4:20:26:a8:37:22:d2:70:46:
                    28:d1:95:48:20:74:b2:7e:a9:40:a6:4f:0a:5e:3a:
                    c8:ab:9f:1e:f9:e1:d6:3c:80:89:78:65:ae:63:52:
                    dd:0d:1b:4a:bb:51:20:03:32:fb:d4:60:d5:b6:95:
                    90:fb:3c:e1:98:32:d2:00:84:46:a4:e9:49:72:06:
                    14:98:eb:59:df:4b:c1:9d:e4:51:69:94:85:00:6d:
                    8d:b4:65:db:46:b2:ab:60:be:ad:a8:74:f0:58:73:
                    b9:e7:09
                Exponent: 65537 (0x10001)
        X509v3 extensions:
            X509v3 Basic Constraints: 
                CA:FALSE
            Netscape Comment: 
                Easy-RSA Generated Certificate
            X509v3 Subject Key Identifier: 
                2B:F7:2B:53:66:FC:00:BA:E1:4A:93:4E:62:C6:1E:08:4A:96:F3:18
            X509v3 Authority Key Identifier: 
                keyid:EF:38:8D:14:50:58:A7:5B:4D:9C:17:72:FC:DF:B9:AC:A7:51:B0:10
                DirName:/C=US/ST=CA/L=SanFrancisco/O=Pixglo, Inc./OU=VPN-CIE/CN=tunnel.pixglo.com/name=Bala Chandrasekaran/emailAddress=bala@pixglo.com
                serial:A6:DB:C6:83:80:E6:A0:79

            X509v3 Extended Key Usage: 
                TLS Web Client Authentication
            X509v3 Key Usage: 
                Digital Signature
    Signature Algorithm: sha1WithRSAEncryption
         d2:11:09:bc:9c:6b:8f:1c:bd:22:75:e6:31:10:19:e8:e0:2c:
         ac:a1:89:a8:d4:46:87:91:ed:6b:24:f9:dc:6e:6a:fb:78:1f:
         f8:4e:c4:f7:cb:15:b2:45:6d:5e:57:01:62:fb:b1:f3:d3:a3:
         83:42:e5:e2:89:a0:5e:dd:06:04:fe:08:7a:05:24:76:27:d3:
         65:74:20:3b:3b:bc:91:61:f9:c0:4e:4f:09:f5:c3:04:a3:2f:
         fc:ee:57:bb:87:da:d3:f4:83:60:07:9f:49:3c:86:f6:69:e0:
         f1:5f:13:75:b9:24:1f:21:e8:34:3c:51:85:35:10:01:60:9d:
         89:13:08:e6:af:28:42:3a:92:73:19:36:ff:34:3b:e0:b0:cb:
         e8:37:45:8c:15:ef:f0:c2:bc:a2:07:57:81:25:36:0a:f2:d1:
         10:17:1e:76:d4:ef:af:52:b0:57:29:f9:74:28:ad:a9:25:45:
         77:c4:a4:cc:a2:40:4d:11:f0:e9:13:0d:9c:15:70:ce:1a:5f:
         fe:81:1d:8a:e9:ef:88:12:20:ae:0d:7c:c8:11:2e:49:0d:0f:
         ed:f5:83:f7:39:ea:13:c4:06:38:3c:b6:bb:7e:b7:20:81:11:
         cf:4d:9b:be:f3:9b:50:9b:ec:bc:aa:a6:d3:17:25:5d:ad:16:
         48:a9:68:0b:5b:f8:14:e1:d5:82:cd:ad:e4:a7:7c:a9:04:03:
         98:af:3d:3a:b8:a9:a0:6d:13:b9:37:e6:1e:bf:59:93:ca:96:
         1b:5f:0d:c1:f0:7c:e7:73:3f:cf:5b:f3:f2:c8:f5:f7:78:bc:
         61:3d:30:08:8b:61:73:1a:ef:28:c0:e7:4b:ab:8c:59:bd:0b:
         fc:69:2a:a7:13:88:5f:a3:93:0b:d5:d5:71:40:ad:37:da:21:
         91:ec:76:70:ae:cb:a0:d7:56:5b:d3:24:13:e8:63:f3:0e:22:
         94:ae:70:22:48:3a:7c:bc:cf:a6:b3:b1:ee:77:41:e9:60:61:
         c5:80:88:51:f8:e8:ff:38:24:50:8a:e2:4b:19:09:ab:22:38:
         e3:2b:f5:71:6a:25:d6:ce:68:23:85:0e:9c:c8:56:71:7f:ed:
         89:3d:32:45:21:c0:91:75:21:e1:60:7e:f0:2e:b0:bd:f1:28:
         77:ab:bc:31:57:37:1a:ef:1d:00:59:ce:ed:91:63:8b:dd:66:
         9a:b3:c1:ec:ef:c6:2e:12:57:56:7b:f1:e8:95:13:f3:ae:40:
         71:db:f6:ed:4d:5e:8a:53:91:b5:63:b7:c1:f2:9e:24:58:a5:
         de:cc:bf:0b:ad:12:be:05:7f:3c:99:bc:85:71:c6:f7:8a:44:
         5a:ca:0f:a0:b5:b1:89:2d
-----BEGIN CERTIFICATE-----
MIIHSDCCBTCgAwIBAgICA4kwDQYJKoZIhvcNAQEFBQAwgbQxCzAJBgNVBAYTAlVT
MQswCQYDVQQIEwJDQTEVMBMGA1UEBxMMU2FuRnJhbmNpc2NvMRUwEwYDVQQKEwxQ
aXhnbG8sIEluYy4xEDAOBgNVBAsTB1ZQTi1DSUUxGjAYBgNVBAMTEXR1bm5lbC5w
aXhnbG8uY29tMRwwGgYDVQQpExNCYWxhIENoYW5kcmFzZWthcmFuMR4wHAYJKoZI
hvcNAQkBFg9iYWxhQHBpeGdsby5jb20wHhcNMTgwMjE0MDY0NzMwWhcNMjgwMjEy
MDY0NzMwWjCBqTELMAkGA1UEBhMCVVMxCzAJBgNVBAgTAkNBMRUwEwYDVQQHEwxT
YW5GcmFuY2lzY28xFTATBgNVBAoTDFBpeGdsbywgSW5jLjEQMA4GA1UECxMHVlBO
LUNJRTEPMA0GA1UEAxMGY2llOTA0MRwwGgYDVQQpExNCYWxhIENoYW5kcmFzZWth
cmFuMR4wHAYJKoZIhvcNAQkBFg9iYWxhQHBpeGdsby5jb20wggIiMA0GCSqGSIb3
DQEBAQUAA4ICDwAwggIKAoICAQDBMX1bM3GNNTEbML9C/eNZ8qG/1GaDd/tfKFRZ
g4bOPAhPCxVnwZiCTZxPjdlqKyrtWH+WTjdKy40MhYFYTZOMAA5N70yioQNd/deB
hdYJ4qlv8a9XbKngALTFOyVmkZQJ09HkaWc74OZHXN6CXhWFqmUtyKMClP9mdJ/o
VW5yy6erb5d7kZEgWfA96XkIKYbFO2uyeG1rvTKS6bJ716T/3yaFUiPDPXwtkijE
j6DNhgf+ZEh7CXbl68XvRy2sjonE/gL0H13vT8EwHD4AEAm5ZIUvRpj4SGPsa8Jw
2mKCEKQYZUw5n/iVqt3mbhiZSfjCCG7WpYiKsaooSxcqSSVYA6acJKzk90MUk/vq
XRdudMczWSKj/N5GurKxmnWTDi2vf6EoD8uSGc09XcnnTnNmVcmqvX7brKQ7yDF4
Ua2/tOwNgsO9BOeCCL5q3/NN8dnhWombILamZKIxaqDKagb8CRttxYS3Lfk2D1Go
VsbleWLXCuP1+HW2ubIBLamnjJoujjeNEIAemPak6mYkMktuKyipGfQ03z8B/8Qg
Jqg3ItJwRijRlUggdLJ+qUCmTwpeOsirnx754dY8gIl4Za5jUt0NG0q7USADMvvU
YNW2lZD7POGYMtIAhEak6UlyBhSY61nfS8Gd5FFplIUAbY20ZdtGsqtgvq2odPBY
c7nnCQIDAQABo4IBazCCAWcwCQYDVR0TBAIwADAtBglghkgBhvhCAQ0EIBYeRWFz
eS1SU0EgR2VuZXJhdGVkIENlcnRpZmljYXRlMB0GA1UdDgQWBBQr9ytTZvwAuuFK
k05ixh4ISpbzGDCB6QYDVR0jBIHhMIHegBTvOI0UUFinW02cF3L837msp1GwEKGB
uqSBtzCBtDELMAkGA1UEBhMCVVMxCzAJBgNVBAgTAkNBMRUwEwYDVQQHEwxTYW5G
cmFuY2lzY28xFTATBgNVBAoTDFBpeGdsbywgSW5jLjEQMA4GA1UECxMHVlBOLUNJ
RTEaMBgGA1UEAxMRdHVubmVsLnBpeGdsby5jb20xHDAaBgNVBCkTE0JhbGEgQ2hh
bmRyYXNla2FyYW4xHjAcBgkqhkiG9w0BCQEWD2JhbGFAcGl4Z2xvLmNvbYIJAKbb
xoOA5qB5MBMGA1UdJQQMMAoGCCsGAQUFBwMCMAsGA1UdDwQEAwIHgDANBgkqhkiG
9w0BAQUFAAOCAgEA0hEJvJxrjxy9InXmMRAZ6OAsrKGJqNRGh5HtayT53G5q+3gf
+E7E98sVskVtXlcBYvux89Ojg0Ll4omgXt0GBP4IegUkdifTZXQgOzu8kWH5wE5P
CfXDBKMv/O5Xu4fa0/SDYAefSTyG9mng8V8TdbkkHyHoNDxRhTUQAWCdiRMI5q8o
QjqScxk2/zQ74LDL6DdFjBXv8MK8ogdXgSU2CvLREBcedtTvr1KwVyn5dCitqSVF
d8SkzKJATRHw6RMNnBVwzhpf/oEdiunviBIgrg18yBEuSQ0P7fWD9znqE8QGODy2
u363IIERz02bvvObUJvsvKqm0xclXa0WSKloC1v4FOHVgs2t5Kd8qQQDmK89Orip
oG0TuTfmHr9Zk8qWG18NwfB853M/z1vz8sj193i8YT0wCIthcxrvKMDnS6uMWb0L
/GkqpxOIX6OTC9XVcUCtN9ohkex2cK7LoNdWW9MkE+hj8w4ilK5wIkg6fLzPprOx
7ndB6WBhxYCIUfjo/zgkUIriSxkJqyI44yv1cWol1s5oI4UOnMhWcX/tiT0yRSHA
kXUh4WB+8C6wvfEod6u8MVc3Gu8dAFnO7ZFji91mmrPB7O/GLhJXVnvx6JUT865A
cdv27U1eilORtWO3wfKeJFil3sy/C60SvgV/PJm8hXHG94pEWsoPoLWxiS0=
-----END CERTIFICATE-----
