Certificate:
    Data:
        Version: 3 (0x2)
        Serial Number: 967 (0x3c7)
    Signature Algorithm: sha1WithRSAEncryption
        Issuer: C=US, ST=CA, L=SanFrancisco, O=Pixglo, Inc., OU=VPN-CIE, CN=tunnel.pixglo.com/name=Bala Chandrasekaran/emailAddress=bala@pixglo.com
        Validity
            Not Before: Feb 14 06:49:31 2018 GMT
            Not After : Feb 12 06:49:31 2028 GMT
        Subject: C=US, ST=CA, L=SanFrancisco, O=Pixglo, Inc., OU=VPN-CIE, CN=cie966/name=Bala Chandrasekaran/emailAddress=bala@pixglo.com
        Subject Public Key Info:
            Public Key Algorithm: rsaEncryption
                Public-Key: (4096 bit)
                Modulus:
                    00:b5:07:65:4f:26:dd:44:d1:3e:06:6f:c3:df:67:
                    fb:20:cc:30:89:54:e6:e9:42:b7:fe:20:01:f7:f3:
                    7e:bf:28:66:db:96:94:1e:ea:93:59:a8:8a:71:2e:
                    c4:f8:2c:22:86:62:0a:2e:6d:cf:9a:7d:f8:6b:c9:
                    83:1b:b9:29:17:c6:52:3a:25:dd:29:5f:a2:c4:6d:
                    31:23:e8:4b:ad:92:17:ad:09:0f:45:2c:c0:26:fa:
                    56:6c:e0:11:b7:8a:1e:11:9b:de:0d:e4:45:d1:d0:
                    8d:78:2b:e2:9d:dc:79:a9:6f:c5:ae:23:e4:7c:41:
                    09:99:b6:7e:85:8a:a5:d5:21:b0:1d:ba:d6:9b:31:
                    8c:d4:02:61:10:ee:22:3b:8b:47:92:c5:13:38:42:
                    ca:22:cb:69:e3:24:5f:16:e8:32:7c:59:c6:c5:dc:
                    f0:2e:3c:1f:f2:85:9f:f7:7e:45:46:80:89:48:96:
                    47:68:68:54:3d:40:6b:9e:1c:c0:23:bc:b9:e2:e7:
                    13:c8:6b:9b:ae:1c:15:94:09:d7:83:a7:87:cc:ad:
                    52:83:b1:00:6e:69:c1:8a:1f:d5:d6:d9:be:f9:15:
                    4e:3d:18:a5:8c:d1:09:4a:e0:e2:13:8a:b4:20:5d:
                    fc:43:ff:30:26:41:9c:95:f6:19:65:84:c4:7a:c3:
                    67:43:e4:f9:86:b0:ba:15:19:99:0c:e1:c0:6c:2b:
                    ba:c7:65:e7:ce:23:cb:c2:01:7f:04:b2:cc:f2:bd:
                    54:47:53:e5:3d:cf:65:42:6c:15:a9:6b:f5:90:88:
                    ac:19:df:23:92:39:e6:88:c6:a6:42:45:d0:fa:c3:
                    c9:19:86:a9:f7:07:43:72:10:97:63:22:2a:77:f5:
                    53:15:96:ca:2e:3f:5f:6a:b8:ca:de:f5:17:58:51:
                    e3:c5:6b:f5:56:32:e8:5d:2e:95:1d:60:e7:a6:42:
                    3d:f1:dc:5e:4f:39:55:82:56:17:4f:b7:6f:c9:a2:
                    df:00:53:c6:45:77:af:c0:d2:76:a0:ef:da:48:f5:
                    a4:96:fe:d1:cc:6e:86:61:01:d9:ee:5e:67:58:9a:
                    4e:ea:e6:20:38:80:b3:36:0c:a2:0e:d5:30:bb:39:
                    0b:1e:40:ce:8e:6a:99:4f:0e:21:56:3a:83:ad:cd:
                    35:56:1f:56:e8:0d:8f:bf:db:b3:d7:f0:8b:ad:8a:
                    10:57:ea:7f:35:ba:64:e3:5f:45:a2:f0:39:b5:3c:
                    3c:ee:70:e4:80:7f:61:4f:03:b4:89:a3:9a:e8:8a:
                    f1:70:6b:1e:87:fa:ab:81:80:91:8f:22:18:4d:43:
                    37:a6:5c:bc:12:f8:12:0e:40:39:3e:2d:c7:04:2d:
                    bf:33:e5
                Exponent: 65537 (0x10001)
        X509v3 extensions:
            X509v3 Basic Constraints: 
                CA:FALSE
            Netscape Comment: 
                Easy-RSA Generated Certificate
            X509v3 Subject Key Identifier: 
                29:76:6E:C7:1E:DC:0F:5D:93:16:05:EA:B9:00:46:DC:31:CD:3E:B4
            X509v3 Authority Key Identifier: 
                keyid:EF:38:8D:14:50:58:A7:5B:4D:9C:17:72:FC:DF:B9:AC:A7:51:B0:10
                DirName:/C=US/ST=CA/L=SanFrancisco/O=Pixglo, Inc./OU=VPN-CIE/CN=tunnel.pixglo.com/name=Bala Chandrasekaran/emailAddress=bala@pixglo.com
                serial:A6:DB:C6:83:80:E6:A0:79

            X509v3 Extended Key Usage: 
                TLS Web Client Authentication
            X509v3 Key Usage: 
                Digital Signature
    Signature Algorithm: sha1WithRSAEncryption
         44:eb:d7:28:86:db:bf:6c:38:ef:4c:fd:d7:46:9c:f7:76:d2:
         9d:b3:ef:05:7e:7f:36:e7:f8:b5:d5:54:9b:55:52:c7:c3:96:
         59:d3:17:cc:c5:86:f1:80:51:a8:6c:01:27:6c:83:85:eb:6c:
         3c:b7:53:90:78:e9:b9:51:ea:87:3e:64:f3:dd:0b:66:0a:92:
         61:d1:a6:49:29:a3:b5:9d:1c:51:61:93:43:5f:a9:35:d5:9d:
         aa:d7:39:5f:8c:32:e8:d6:b2:4f:d6:6e:44:2b:70:ec:10:7b:
         3b:cb:d1:e9:00:37:7d:6b:07:02:ec:2f:e7:51:9b:1f:bb:67:
         5c:47:2f:1d:b9:17:87:f6:b9:7f:7a:28:8f:6e:8e:cb:37:c2:
         59:3c:94:c2:92:31:34:ce:00:f9:4b:08:9f:f0:30:e3:fd:e4:
         d9:fb:b0:5a:1a:95:9d:b1:ff:17:11:97:e8:16:37:f5:11:d2:
         35:21:0e:d8:6d:ba:8d:0b:be:8f:8b:27:fa:47:a7:c4:a7:d1:
         9b:1e:53:45:a3:31:b5:b6:98:b1:34:18:38:b2:f3:1d:3f:46:
         06:a7:a8:6e:7d:fb:cc:c2:67:2e:9d:18:14:2e:7b:a0:4d:68:
         7b:cd:d9:20:d2:49:c0:aa:33:ae:2a:11:49:c5:2c:a0:98:ff:
         63:88:ad:af:0d:cf:84:2d:27:b5:a7:e2:c6:da:1c:22:37:45:
         2b:b5:45:1a:74:b1:6d:a1:68:42:c1:e6:07:8f:db:40:51:c6:
         07:17:ff:8f:cf:8f:5a:98:0c:ad:e0:b0:39:51:16:54:05:22:
         82:c6:1f:d0:b4:74:94:c3:3d:89:bf:dc:86:9f:24:3c:8c:c2:
         34:de:8d:d6:70:ee:b9:82:a8:d6:a4:31:25:17:66:fe:8e:d7:
         c5:e4:ca:6a:bc:02:dd:77:65:1e:bb:42:df:f9:a4:29:e2:7d:
         4b:ad:76:4d:c4:d7:d8:97:8f:ec:34:47:f2:30:06:b0:2b:90:
         f5:9c:23:12:f6:9b:67:0c:8f:e9:a0:1a:73:d5:e0:01:af:21:
         5b:ba:81:0e:85:ea:54:ea:eb:c0:65:79:90:93:26:fd:75:23:
         d3:04:3d:39:55:ac:23:55:71:cf:e8:33:0f:b2:10:6e:3e:c7:
         ff:0a:9e:6b:e1:5c:dd:ee:46:f5:ab:ee:c7:ac:ba:d5:4f:48:
         79:ff:51:85:0a:41:4a:0b:c6:e0:eb:9a:40:24:43:0d:68:29:
         28:36:5e:6c:0c:92:2c:21:a9:ce:bc:01:9e:ac:2f:50:c3:9d:
         d4:e1:13:dd:bf:8c:57:8e:bf:16:59:b1:3b:51:98:cf:5a:e5:
         ad:3d:d0:b8:02:12:9b:c5
-----BEGIN CERTIFICATE-----
MIIHSDCCBTCgAwIBAgICA8cwDQYJKoZIhvcNAQEFBQAwgbQxCzAJBgNVBAYTAlVT
MQswCQYDVQQIEwJDQTEVMBMGA1UEBxMMU2FuRnJhbmNpc2NvMRUwEwYDVQQKEwxQ
aXhnbG8sIEluYy4xEDAOBgNVBAsTB1ZQTi1DSUUxGjAYBgNVBAMTEXR1bm5lbC5w
aXhnbG8uY29tMRwwGgYDVQQpExNCYWxhIENoYW5kcmFzZWthcmFuMR4wHAYJKoZI
hvcNAQkBFg9iYWxhQHBpeGdsby5jb20wHhcNMTgwMjE0MDY0OTMxWhcNMjgwMjEy
MDY0OTMxWjCBqTELMAkGA1UEBhMCVVMxCzAJBgNVBAgTAkNBMRUwEwYDVQQHEwxT
YW5GcmFuY2lzY28xFTATBgNVBAoTDFBpeGdsbywgSW5jLjEQMA4GA1UECxMHVlBO
LUNJRTEPMA0GA1UEAxMGY2llOTY2MRwwGgYDVQQpExNCYWxhIENoYW5kcmFzZWth
cmFuMR4wHAYJKoZIhvcNAQkBFg9iYWxhQHBpeGdsby5jb20wggIiMA0GCSqGSIb3
DQEBAQUAA4ICDwAwggIKAoICAQC1B2VPJt1E0T4Gb8PfZ/sgzDCJVObpQrf+IAH3
836/KGbblpQe6pNZqIpxLsT4LCKGYgoubc+affhryYMbuSkXxlI6Jd0pX6LEbTEj
6EutkhetCQ9FLMAm+lZs4BG3ih4Rm94N5EXR0I14K+Kd3Hmpb8WuI+R8QQmZtn6F
iqXVIbAdutabMYzUAmEQ7iI7i0eSxRM4Qsoiy2njJF8W6DJ8WcbF3PAuPB/yhZ/3
fkVGgIlIlkdoaFQ9QGueHMAjvLni5xPIa5uuHBWUCdeDp4fMrVKDsQBuacGKH9XW
2b75FU49GKWM0QlK4OITirQgXfxD/zAmQZyV9hllhMR6w2dD5PmGsLoVGZkM4cBs
K7rHZefOI8vCAX8EsszyvVRHU+U9z2VCbBWpa/WQiKwZ3yOSOeaIxqZCRdD6w8kZ
hqn3B0NyEJdjIip39VMVlsouP19quMre9RdYUePFa/VWMuhdLpUdYOemQj3x3F5P
OVWCVhdPt2/Jot8AU8ZFd6/A0nag79pI9aSW/tHMboZhAdnuXmdYmk7q5iA4gLM2
DKIO1TC7OQseQM6OaplPDiFWOoOtzTVWH1boDY+/27PX8IutihBX6n81umTjX0Wi
8Dm1PDzucOSAf2FPA7SJo5roivFwax6H+quBgJGPIhhNQzemXLwS+BIOQDk+LccE
Lb8z5QIDAQABo4IBazCCAWcwCQYDVR0TBAIwADAtBglghkgBhvhCAQ0EIBYeRWFz
eS1SU0EgR2VuZXJhdGVkIENlcnRpZmljYXRlMB0GA1UdDgQWBBQpdm7HHtwPXZMW
Beq5AEbcMc0+tDCB6QYDVR0jBIHhMIHegBTvOI0UUFinW02cF3L837msp1GwEKGB
uqSBtzCBtDELMAkGA1UEBhMCVVMxCzAJBgNVBAgTAkNBMRUwEwYDVQQHEwxTYW5G
cmFuY2lzY28xFTATBgNVBAoTDFBpeGdsbywgSW5jLjEQMA4GA1UECxMHVlBOLUNJ
RTEaMBgGA1UEAxMRdHVubmVsLnBpeGdsby5jb20xHDAaBgNVBCkTE0JhbGEgQ2hh
bmRyYXNla2FyYW4xHjAcBgkqhkiG9w0BCQEWD2JhbGFAcGl4Z2xvLmNvbYIJAKbb
xoOA5qB5MBMGA1UdJQQMMAoGCCsGAQUFBwMCMAsGA1UdDwQEAwIHgDANBgkqhkiG
9w0BAQUFAAOCAgEAROvXKIbbv2w470z910ac93bSnbPvBX5/Nuf4tdVUm1VSx8OW
WdMXzMWG8YBRqGwBJ2yDhetsPLdTkHjpuVHqhz5k890LZgqSYdGmSSmjtZ0cUWGT
Q1+pNdWdqtc5X4wy6NayT9ZuRCtw7BB7O8vR6QA3fWsHAuwv51GbH7tnXEcvHbkX
h/a5f3ooj26OyzfCWTyUwpIxNM4A+UsIn/Aw4/3k2fuwWhqVnbH/FxGX6BY39RHS
NSEO2G26jQu+j4sn+kenxKfRmx5TRaMxtbaYsTQYOLLzHT9GBqeobn37zMJnLp0Y
FC57oE1oe83ZINJJwKozrioRScUsoJj/Y4itrw3PhC0ntafixtocIjdFK7VFGnSx
baFoQsHmB4/bQFHGBxf/j8+PWpgMreCwOVEWVAUigsYf0LR0lMM9ib/chp8kPIzC
NN6N1nDuuYKo1qQxJRdm/o7XxeTKarwC3XdlHrtC3/mkKeJ9S612TcTX2JeP7DRH
8jAGsCuQ9ZwjEvabZwyP6aAac9XgAa8hW7qBDoXqVOrrwGV5kJMm/XUj0wQ9OVWs
I1Vxz+gzD7IQbj7H/wqea+Fc3e5G9avux6y61U9Ief9RhQpBSgvG4OuaQCRDDWgp
KDZebAySLCGpzrwBnqwvUMOd1OET3b+MV46/FlmxO1GYz1rlrT3QuAISm8U=
-----END CERTIFICATE-----
