Certificate:
    Data:
        Version: 3 (0x2)
        Serial Number: 976 (0x3d0)
    Signature Algorithm: sha1WithRSAEncryption
        Issuer: C=US, ST=CA, L=SanFrancisco, O=Pixglo, Inc., OU=VPN-CIE, CN=tunnel.pixglo.com/name=Bala Chandrasekaran/emailAddress=bala@pixglo.com
        Validity
            Not Before: Feb 14 06:49:47 2018 GMT
            Not After : Feb 12 06:49:47 2028 GMT
        Subject: C=US, ST=CA, L=SanFrancisco, O=Pixglo, Inc., OU=VPN-CIE, CN=cie975/name=Bala Chandrasekaran/emailAddress=bala@pixglo.com
        Subject Public Key Info:
            Public Key Algorithm: rsaEncryption
                Public-Key: (4096 bit)
                Modulus:
                    00:b2:8f:a3:70:64:06:b5:75:3c:c8:e2:a1:f1:c8:
                    14:7b:00:76:3b:d8:ff:f8:4f:82:27:1c:76:0a:d4:
                    c3:cb:73:2f:d8:67:03:42:3d:c0:83:0b:23:7f:85:
                    6f:3b:ae:8c:77:0a:b6:48:a9:3d:9b:fc:ac:3c:f7:
                    f2:d9:2b:98:7c:5b:1b:28:21:6a:bf:15:1a:fb:9d:
                    96:de:bd:c7:4f:20:d6:50:83:0d:01:19:2f:c4:47:
                    ba:6a:55:06:05:b6:49:8f:9c:3a:6c:85:5d:8b:dc:
                    52:19:f6:47:ba:ec:a3:c6:8a:cb:2a:38:40:a6:8e:
                    6e:2f:6a:d0:c0:c2:67:85:11:dd:04:ff:ed:29:e4:
                    3f:14:dc:e1:91:55:e2:3c:e6:75:4a:b6:d9:ac:64:
                    7f:5a:8d:d9:c7:f9:f6:f5:8e:1b:f5:2d:9c:0a:11:
                    af:21:56:8b:ad:a4:6b:e8:a2:23:df:24:16:de:28:
                    68:9e:22:7d:a9:2e:14:ba:0b:77:23:fb:d8:09:68:
                    ad:36:1e:7e:7c:a4:e5:f8:2f:77:3c:e9:1a:9a:5d:
                    00:70:b0:f4:6e:26:29:25:e4:b9:ef:27:63:7e:18:
                    8f:67:c9:35:c4:6e:fa:76:4a:ff:20:ee:64:92:db:
                    97:4d:e9:87:05:c3:59:48:5b:50:0b:c0:e0:9f:77:
                    23:c2:ea:1b:a6:86:d9:a6:7d:44:ad:48:5a:b3:1a:
                    82:fd:98:60:6f:b3:d7:7d:81:4c:ab:5f:0c:29:9c:
                    22:6d:68:32:97:d7:11:c5:8f:a8:c0:0c:89:9e:61:
                    a0:ff:41:fa:41:01:0b:24:d1:8a:f6:7f:d4:cd:cf:
                    be:fa:36:6b:ca:f5:3d:98:79:e7:23:63:f8:27:77:
                    4c:6e:3e:8d:41:3b:b6:a8:f5:cf:44:08:5b:1e:d3:
                    b0:2f:d5:af:17:71:f4:a8:e6:1c:2e:99:9e:5c:18:
                    64:cb:ee:96:87:91:7c:e5:14:eb:4f:76:be:96:c8:
                    31:9a:cb:ef:15:d8:46:5a:fb:dc:b2:67:1d:bf:50:
                    d6:50:e0:c4:0e:a4:9e:4a:a6:3c:fd:68:80:3f:cd:
                    f9:b0:26:75:ca:7e:9a:3b:40:9e:d3:e7:b3:c7:d2:
                    47:e5:45:0b:5c:f9:24:28:d1:c1:e7:c9:47:81:55:
                    f1:fd:55:22:2c:7f:f6:09:61:c9:6c:e8:9e:4f:d9:
                    6c:a3:48:24:2c:f5:44:2c:b1:a8:f1:3b:ce:34:d6:
                    81:39:cc:30:a8:53:65:db:d7:54:da:91:9d:6c:16:
                    cb:d8:40:35:c9:45:d4:5f:dc:40:64:a3:23:c5:db:
                    bb:5d:b6:9a:42:34:ae:f8:30:d9:45:dd:91:0b:4f:
                    17:32:97
                Exponent: 65537 (0x10001)
        X509v3 extensions:
            X509v3 Basic Constraints: 
                CA:FALSE
            Netscape Comment: 
                Easy-RSA Generated Certificate
            X509v3 Subject Key Identifier: 
                D3:57:36:C6:9E:51:69:BA:E0:E0:26:DC:4D:6D:D8:C2:9B:91:67:14
            X509v3 Authority Key Identifier: 
                keyid:EF:38:8D:14:50:58:A7:5B:4D:9C:17:72:FC:DF:B9:AC:A7:51:B0:10
                DirName:/C=US/ST=CA/L=SanFrancisco/O=Pixglo, Inc./OU=VPN-CIE/CN=tunnel.pixglo.com/name=Bala Chandrasekaran/emailAddress=bala@pixglo.com
                serial:A6:DB:C6:83:80:E6:A0:79

            X509v3 Extended Key Usage: 
                TLS Web Client Authentication
            X509v3 Key Usage: 
                Digital Signature
    Signature Algorithm: sha1WithRSAEncryption
         5c:43:e9:a5:26:70:3b:eb:73:e2:69:22:89:5e:8a:3c:30:36:
         97:91:86:37:fd:f7:99:0e:c5:86:e6:78:d5:1e:2d:de:6e:63:
         bc:3b:50:67:11:18:13:0a:03:8a:50:cb:3a:47:2c:16:05:6a:
         f0:72:52:2f:cb:f9:97:8e:ed:8d:6b:cd:0a:20:21:d4:ae:7f:
         be:9f:f1:e9:55:fa:37:1d:22:62:89:00:4b:b6:6e:fd:a5:cf:
         8c:f3:7a:db:28:79:79:e1:11:7e:1c:05:8c:15:27:f8:8c:55:
         1f:cb:f4:7e:d8:a1:11:17:c4:79:28:4b:59:cf:5d:c8:d8:90:
         f6:4e:83:09:c2:1b:1d:8a:c5:a4:80:41:0e:40:b5:c6:21:fa:
         ae:68:ec:4d:dc:d2:7b:6a:7f:88:5f:d6:74:66:55:00:ec:a1:
         e8:df:b2:94:ef:2d:c4:1f:8e:1c:29:bb:c6:39:e8:d0:2c:b9:
         1a:b3:e5:45:e1:40:2b:b8:41:a3:82:fc:42:57:81:1c:02:19:
         09:6c:94:b6:10:46:50:3e:5a:53:5e:e7:dc:db:82:5b:70:e8:
         9b:05:e5:66:62:aa:8c:3a:1e:75:24:ef:15:cd:78:fe:03:5a:
         e5:e6:3b:3f:06:c0:6e:f9:6b:f6:21:39:89:b1:50:c7:67:08:
         08:c8:99:b6:e4:41:a3:14:49:c5:1d:ef:ac:98:0e:91:9b:67:
         25:74:15:e0:e3:96:ff:6b:75:19:ca:5f:bf:44:44:a0:b7:a2:
         f8:ba:d0:cd:1b:8e:57:a2:34:8f:ff:5d:9c:81:bf:33:30:63:
         f7:16:a2:a7:02:37:fa:d8:7f:2c:cb:5d:0e:a2:5f:03:71:50:
         3b:3b:39:3e:ef:41:f5:f7:de:60:35:56:bb:b4:89:e3:6d:1a:
         de:8e:4c:85:e1:62:ce:a1:cb:7a:4e:ad:bc:bc:de:66:5c:e8:
         15:15:b3:44:2e:a7:98:69:b8:8a:24:44:9c:dc:58:28:cd:5d:
         dc:89:ed:a8:93:d9:5b:2c:d8:ab:29:ad:9a:f0:7a:b5:74:72:
         73:5e:90:6f:09:eb:87:73:74:9f:dd:2a:28:c2:82:11:1d:d7:
         6e:54:09:17:49:a6:ff:7e:49:33:e5:d7:a2:5c:e7:9e:2d:ac:
         bc:15:8c:7e:d0:30:c2:14:92:e4:57:e1:a5:93:2e:fd:90:62:
         35:53:c8:ab:38:15:e0:2b:13:e1:96:24:dd:b3:b6:91:8e:a4:
         8e:9e:33:39:f2:80:d4:ac:e4:62:ff:60:3f:96:37:5c:3f:26:
         7d:55:02:96:76:0a:fb:34:77:06:3c:c0:0e:e8:3b:55:47:04:
         7a:37:a5:ac:39:0a:81:42
-----BEGIN CERTIFICATE-----
MIIHSDCCBTCgAwIBAgICA9AwDQYJKoZIhvcNAQEFBQAwgbQxCzAJBgNVBAYTAlVT
MQswCQYDVQQIEwJDQTEVMBMGA1UEBxMMU2FuRnJhbmNpc2NvMRUwEwYDVQQKEwxQ
aXhnbG8sIEluYy4xEDAOBgNVBAsTB1ZQTi1DSUUxGjAYBgNVBAMTEXR1bm5lbC5w
aXhnbG8uY29tMRwwGgYDVQQpExNCYWxhIENoYW5kcmFzZWthcmFuMR4wHAYJKoZI
hvcNAQkBFg9iYWxhQHBpeGdsby5jb20wHhcNMTgwMjE0MDY0OTQ3WhcNMjgwMjEy
MDY0OTQ3WjCBqTELMAkGA1UEBhMCVVMxCzAJBgNVBAgTAkNBMRUwEwYDVQQHEwxT
YW5GcmFuY2lzY28xFTATBgNVBAoTDFBpeGdsbywgSW5jLjEQMA4GA1UECxMHVlBO
LUNJRTEPMA0GA1UEAxMGY2llOTc1MRwwGgYDVQQpExNCYWxhIENoYW5kcmFzZWth
cmFuMR4wHAYJKoZIhvcNAQkBFg9iYWxhQHBpeGdsby5jb20wggIiMA0GCSqGSIb3
DQEBAQUAA4ICDwAwggIKAoICAQCyj6NwZAa1dTzI4qHxyBR7AHY72P/4T4InHHYK
1MPLcy/YZwNCPcCDCyN/hW87rox3CrZIqT2b/Kw89/LZK5h8WxsoIWq/FRr7nZbe
vcdPINZQgw0BGS/ER7pqVQYFtkmPnDpshV2L3FIZ9ke67KPGissqOECmjm4vatDA
wmeFEd0E/+0p5D8U3OGRVeI85nVKttmsZH9ajdnH+fb1jhv1LZwKEa8hVoutpGvo
oiPfJBbeKGieIn2pLhS6C3cj+9gJaK02Hn58pOX4L3c86RqaXQBwsPRuJikl5Lnv
J2N+GI9nyTXEbvp2Sv8g7mSS25dN6YcFw1lIW1ALwOCfdyPC6humhtmmfUStSFqz
GoL9mGBvs9d9gUyrXwwpnCJtaDKX1xHFj6jADImeYaD/QfpBAQsk0Yr2f9TNz776
NmvK9T2YeecjY/gnd0xuPo1BO7ao9c9ECFse07Av1a8XcfSo5hwumZ5cGGTL7paH
kXzlFOtPdr6WyDGay+8V2EZa+9yyZx2/UNZQ4MQOpJ5Kpjz9aIA/zfmwJnXKfpo7
QJ7T57PH0kflRQtc+SQo0cHnyUeBVfH9VSIsf/YJYcls6J5P2WyjSCQs9UQssajx
O8401oE5zDCoU2Xb11TakZ1sFsvYQDXJRdRf3EBkoyPF27tdtppCNK74MNlF3ZEL
TxcylwIDAQABo4IBazCCAWcwCQYDVR0TBAIwADAtBglghkgBhvhCAQ0EIBYeRWFz
eS1SU0EgR2VuZXJhdGVkIENlcnRpZmljYXRlMB0GA1UdDgQWBBTTVzbGnlFpuuDg
JtxNbdjCm5FnFDCB6QYDVR0jBIHhMIHegBTvOI0UUFinW02cF3L837msp1GwEKGB
uqSBtzCBtDELMAkGA1UEBhMCVVMxCzAJBgNVBAgTAkNBMRUwEwYDVQQHEwxTYW5G
cmFuY2lzY28xFTATBgNVBAoTDFBpeGdsbywgSW5jLjEQMA4GA1UECxMHVlBOLUNJ
RTEaMBgGA1UEAxMRdHVubmVsLnBpeGdsby5jb20xHDAaBgNVBCkTE0JhbGEgQ2hh
bmRyYXNla2FyYW4xHjAcBgkqhkiG9w0BCQEWD2JhbGFAcGl4Z2xvLmNvbYIJAKbb
xoOA5qB5MBMGA1UdJQQMMAoGCCsGAQUFBwMCMAsGA1UdDwQEAwIHgDANBgkqhkiG
9w0BAQUFAAOCAgEAXEPppSZwO+tz4mkiiV6KPDA2l5GGN/33mQ7FhuZ41R4t3m5j
vDtQZxEYEwoDilDLOkcsFgVq8HJSL8v5l47tjWvNCiAh1K5/vp/x6VX6Nx0iYokA
S7Zu/aXPjPN62yh5eeERfhwFjBUn+IxVH8v0ftihERfEeShLWc9dyNiQ9k6DCcIb
HYrFpIBBDkC1xiH6rmjsTdzSe2p/iF/WdGZVAOyh6N+ylO8txB+OHCm7xjno0Cy5
GrPlReFAK7hBo4L8QleBHAIZCWyUthBGUD5aU17n3NuCW3DomwXlZmKqjDoedSTv
Fc14/gNa5eY7PwbAbvlr9iE5ibFQx2cICMiZtuRBoxRJxR3vrJgOkZtnJXQV4OOW
/2t1Gcpfv0REoLei+LrQzRuOV6I0j/9dnIG/MzBj9xaipwI3+th/LMtdDqJfA3FQ
Ozs5Pu9B9ffeYDVWu7SJ420a3o5MheFizqHLek6tvLzeZlzoFRWzRC6nmGm4iiRE
nNxYKM1d3IntqJPZWyzYqymtmvB6tXRyc16Qbwnrh3N0n90qKMKCER3XblQJF0mm
/35JM+XXolznni2svBWMftAwwhSS5FfhpZMu/ZBiNVPIqzgV4CsT4ZYk3bO2kY6k
jp4zOfKA1KzkYv9gP5Y3XD8mfVUClnYK+zR3BjzADug7VUcEejelrDkKgUI=
-----END CERTIFICATE-----
