Certificate:
    Data:
        Version: 3 (0x2)
        Serial Number: 955 (0x3bb)
    Signature Algorithm: sha1WithRSAEncryption
        Issuer: C=US, ST=CA, L=SanFrancisco, O=Pixglo, Inc., OU=VPN-CIE, CN=tunnel.pixglo.com/name=Bala Chandrasekaran/emailAddress=bala@pixglo.com
        Validity
            Not Before: Feb 14 06:49:10 2018 GMT
            Not After : Feb 12 06:49:10 2028 GMT
        Subject: C=US, ST=CA, L=SanFrancisco, O=Pixglo, Inc., OU=VPN-CIE, CN=cie954/name=Bala Chandrasekaran/emailAddress=bala@pixglo.com
        Subject Public Key Info:
            Public Key Algorithm: rsaEncryption
                Public-Key: (4096 bit)
                Modulus:
                    00:9a:79:d2:1e:b4:11:b1:8a:e9:8f:98:4c:99:c4:
                    c7:e0:44:f4:fe:01:8e:47:93:01:c0:0f:01:7f:b3:
                    e6:4c:e2:ff:74:57:d3:ab:4a:53:ff:7e:4b:95:03:
                    d1:54:4d:1f:88:2c:14:2d:0a:05:39:57:b6:85:a7:
                    7b:a5:04:e3:55:fa:3b:48:9d:e0:f7:ff:4e:cb:89:
                    d7:c9:9b:aa:3a:dc:95:73:b8:2f:94:90:b5:75:07:
                    6c:43:b1:ff:1a:26:49:0c:0a:5a:56:8e:0f:e9:b6:
                    61:61:d5:5b:3d:30:5b:fd:33:8c:fd:21:e3:79:8e:
                    3b:03:86:02:c5:26:b1:38:15:66:a8:bc:d2:fc:66:
                    19:03:33:e5:6d:ea:72:22:5b:7c:c8:55:4c:93:65:
                    50:d5:47:26:60:5b:0b:05:46:d8:fe:4e:6c:ab:05:
                    5c:37:c4:5d:ce:57:73:48:ee:85:c5:fd:f0:d5:21:
                    d5:1a:46:06:2b:a2:50:47:a0:ab:53:d9:a5:ee:46:
                    58:94:20:fd:a1:db:a2:60:4c:9d:b1:fc:4f:c4:50:
                    b2:ae:ff:38:8c:e1:5e:a3:0a:df:47:d4:40:3b:0e:
                    26:7b:0c:dd:f8:08:c1:77:15:e4:6f:e1:f6:ef:04:
                    8a:dc:78:39:05:32:f9:f8:c7:f8:c0:ae:ae:a7:60:
                    5f:34:fd:01:07:ad:93:5c:23:ef:0d:10:5d:29:32:
                    32:ae:69:56:26:8d:30:6a:76:6f:4e:c0:e0:67:0c:
                    35:ab:b4:f0:1e:77:36:64:71:9b:2c:62:23:6a:09:
                    1d:e7:37:07:99:d0:f9:99:f3:dc:9f:9e:f3:79:f9:
                    16:c8:d0:d5:d4:2f:64:20:fc:1d:e9:19:5b:e9:1c:
                    42:54:9a:33:35:18:13:37:c0:1f:02:db:3e:d9:9d:
                    85:15:66:0e:e3:65:0f:53:68:c5:20:24:37:15:d4:
                    ce:ae:5c:48:32:b5:9a:fe:64:a7:a9:f1:08:90:66:
                    b4:bd:19:9e:b8:5e:01:d8:fe:5d:98:9a:e5:6e:fc:
                    59:81:e8:97:ed:95:c6:3c:e4:b0:70:4f:8c:2c:02:
                    23:ed:6a:15:d2:44:c2:c4:7a:07:73:11:87:c2:2f:
                    30:e4:27:7b:da:8c:88:f5:65:9f:ec:13:fd:9a:a4:
                    21:6c:ce:5f:be:3b:7c:77:aa:35:cf:39:07:e1:8c:
                    d1:a5:40:a7:44:56:5b:1d:7b:50:75:dc:c5:7f:24:
                    5f:80:2f:c4:08:60:e1:25:3b:fe:1f:a7:f2:f6:32:
                    88:fa:33:83:69:ee:0c:76:3b:84:82:a1:49:a5:90:
                    3e:64:d1:d3:71:38:cf:86:5b:ef:ef:ca:ca:11:c7:
                    5b:25:f3
                Exponent: 65537 (0x10001)
        X509v3 extensions:
            X509v3 Basic Constraints: 
                CA:FALSE
            Netscape Comment: 
                Easy-RSA Generated Certificate
            X509v3 Subject Key Identifier: 
                10:7E:FD:4C:72:75:BF:1F:82:1C:9B:BE:B8:76:2C:EB:CF:F8:A9:A0
            X509v3 Authority Key Identifier: 
                keyid:EF:38:8D:14:50:58:A7:5B:4D:9C:17:72:FC:DF:B9:AC:A7:51:B0:10
                DirName:/C=US/ST=CA/L=SanFrancisco/O=Pixglo, Inc./OU=VPN-CIE/CN=tunnel.pixglo.com/name=Bala Chandrasekaran/emailAddress=bala@pixglo.com
                serial:A6:DB:C6:83:80:E6:A0:79

            X509v3 Extended Key Usage: 
                TLS Web Client Authentication
            X509v3 Key Usage: 
                Digital Signature
    Signature Algorithm: sha1WithRSAEncryption
         6e:99:ae:33:2c:bf:b4:a4:60:c2:1c:f7:f6:77:cb:30:4c:8c:
         ac:cb:f8:22:87:9c:db:38:a4:86:1e:32:33:e8:ce:26:1e:fe:
         d1:ac:11:f6:75:f8:a2:32:f0:15:6d:92:35:b6:ba:b9:0d:84:
         e0:01:4c:d1:25:34:d9:69:f7:0a:b6:53:5a:75:eb:72:38:43:
         cd:ce:07:65:f8:a4:e2:f5:8c:f4:2e:67:79:85:f7:a3:21:03:
         de:7e:bf:a2:43:22:2b:bb:b9:81:ce:05:3a:31:4c:b3:db:66:
         87:73:5b:fe:90:ea:db:fd:f1:e3:71:bb:31:2c:2e:2b:3c:f9:
         46:0c:da:54:63:95:f1:8f:73:f8:79:10:f2:c9:fc:78:01:9c:
         1a:70:2f:10:79:37:8b:e8:83:0f:de:c9:70:89:b8:ca:07:33:
         16:3e:0a:55:63:c5:82:d8:89:f7:02:2c:75:bc:85:11:94:42:
         53:26:b6:87:25:e7:5a:6c:a1:4b:a2:50:55:10:54:90:da:63:
         d2:c6:d1:50:c6:d7:cb:9d:41:cd:85:9e:78:99:cc:2a:6a:02:
         dc:07:0f:ae:07:f3:eb:e0:86:07:45:d2:fc:eb:80:b5:86:1f:
         b6:14:e4:5c:c1:fe:11:70:20:73:ed:78:c3:12:af:b7:d6:f9:
         39:6f:4b:05:ca:52:3e:43:a1:40:16:c4:20:20:a3:71:fe:3b:
         ac:0b:a3:53:8e:65:04:60:61:88:62:82:91:00:b6:41:a9:77:
         84:ec:71:ee:20:40:4f:b8:36:8c:bf:df:6a:bb:c2:b2:e2:a1:
         ef:23:9e:64:24:4f:c1:58:5b:33:b3:4a:6d:f5:c7:44:af:12:
         42:88:e2:f2:46:02:2d:0c:1e:b0:54:bb:ef:5b:a3:f1:01:5b:
         b2:d0:c8:c6:95:cf:0f:6d:e3:99:54:24:f6:77:47:85:5c:2a:
         6d:c4:0e:4e:af:a2:0d:a6:89:bf:b1:a6:a5:79:f2:de:be:cd:
         f4:d4:04:d8:77:dc:d7:9b:ec:c6:1d:d3:77:ae:3c:6f:8f:f7:
         88:ba:e9:88:78:f0:e7:63:b8:04:d4:68:bb:83:92:a8:d1:48:
         5d:8e:5c:b9:7d:47:90:81:2a:6a:07:73:37:f4:57:df:34:d3:
         48:08:29:42:ad:7a:9e:e4:41:3d:65:57:34:b3:f6:60:8c:d2:
         e6:97:69:d6:72:52:20:e6:cf:eb:cc:ff:f0:9e:21:8f:84:f6:
         68:84:3b:1d:f9:c7:66:b2:d5:e7:7a:35:39:10:a1:54:40:84:
         00:29:09:84:3d:a9:bd:9e:7a:24:d8:5d:9c:49:2e:5f:d5:0e:
         94:4f:eb:83:17:17:bb:e1
-----BEGIN CERTIFICATE-----
MIIHSDCCBTCgAwIBAgICA7swDQYJKoZIhvcNAQEFBQAwgbQxCzAJBgNVBAYTAlVT
MQswCQYDVQQIEwJDQTEVMBMGA1UEBxMMU2FuRnJhbmNpc2NvMRUwEwYDVQQKEwxQ
aXhnbG8sIEluYy4xEDAOBgNVBAsTB1ZQTi1DSUUxGjAYBgNVBAMTEXR1bm5lbC5w
aXhnbG8uY29tMRwwGgYDVQQpExNCYWxhIENoYW5kcmFzZWthcmFuMR4wHAYJKoZI
hvcNAQkBFg9iYWxhQHBpeGdsby5jb20wHhcNMTgwMjE0MDY0OTEwWhcNMjgwMjEy
MDY0OTEwWjCBqTELMAkGA1UEBhMCVVMxCzAJBgNVBAgTAkNBMRUwEwYDVQQHEwxT
YW5GcmFuY2lzY28xFTATBgNVBAoTDFBpeGdsbywgSW5jLjEQMA4GA1UECxMHVlBO
LUNJRTEPMA0GA1UEAxMGY2llOTU0MRwwGgYDVQQpExNCYWxhIENoYW5kcmFzZWth
cmFuMR4wHAYJKoZIhvcNAQkBFg9iYWxhQHBpeGdsby5jb20wggIiMA0GCSqGSIb3
DQEBAQUAA4ICDwAwggIKAoICAQCaedIetBGxiumPmEyZxMfgRPT+AY5HkwHADwF/
s+ZM4v90V9OrSlP/fkuVA9FUTR+ILBQtCgU5V7aFp3ulBONV+jtIneD3/07LidfJ
m6o63JVzuC+UkLV1B2xDsf8aJkkMClpWjg/ptmFh1Vs9MFv9M4z9IeN5jjsDhgLF
JrE4FWaovNL8ZhkDM+Vt6nIiW3zIVUyTZVDVRyZgWwsFRtj+TmyrBVw3xF3OV3NI
7oXF/fDVIdUaRgYrolBHoKtT2aXuRliUIP2h26JgTJ2x/E/EULKu/ziM4V6jCt9H
1EA7DiZ7DN34CMF3FeRv4fbvBIrceDkFMvn4x/jArq6nYF80/QEHrZNcI+8NEF0p
MjKuaVYmjTBqdm9OwOBnDDWrtPAedzZkcZssYiNqCR3nNweZ0PmZ89yfnvN5+RbI
0NXUL2Qg/B3pGVvpHEJUmjM1GBM3wB8C2z7ZnYUVZg7jZQ9TaMUgJDcV1M6uXEgy
tZr+ZKep8QiQZrS9GZ64XgHY/l2YmuVu/FmB6JftlcY85LBwT4wsAiPtahXSRMLE
egdzEYfCLzDkJ3vajIj1ZZ/sE/2apCFszl++O3x3qjXPOQfhjNGlQKdEVlsde1B1
3MV/JF+AL8QIYOElO/4fp/L2Moj6M4Np7gx2O4SCoUmlkD5k0dNxOM+GW+/vysoR
x1sl8wIDAQABo4IBazCCAWcwCQYDVR0TBAIwADAtBglghkgBhvhCAQ0EIBYeRWFz
eS1SU0EgR2VuZXJhdGVkIENlcnRpZmljYXRlMB0GA1UdDgQWBBQQfv1McnW/H4Ic
m764dizrz/ipoDCB6QYDVR0jBIHhMIHegBTvOI0UUFinW02cF3L837msp1GwEKGB
uqSBtzCBtDELMAkGA1UEBhMCVVMxCzAJBgNVBAgTAkNBMRUwEwYDVQQHEwxTYW5G
cmFuY2lzY28xFTATBgNVBAoTDFBpeGdsbywgSW5jLjEQMA4GA1UECxMHVlBOLUNJ
RTEaMBgGA1UEAxMRdHVubmVsLnBpeGdsby5jb20xHDAaBgNVBCkTE0JhbGEgQ2hh
bmRyYXNla2FyYW4xHjAcBgkqhkiG9w0BCQEWD2JhbGFAcGl4Z2xvLmNvbYIJAKbb
xoOA5qB5MBMGA1UdJQQMMAoGCCsGAQUFBwMCMAsGA1UdDwQEAwIHgDANBgkqhkiG
9w0BAQUFAAOCAgEAbpmuMyy/tKRgwhz39nfLMEyMrMv4Ioec2zikhh4yM+jOJh7+
0awR9nX4ojLwFW2SNba6uQ2E4AFM0SU02Wn3CrZTWnXrcjhDzc4HZfik4vWM9C5n
eYX3oyED3n6/okMiK7u5gc4FOjFMs9tmh3Nb/pDq2/3x43G7MSwuKzz5RgzaVGOV
8Y9z+HkQ8sn8eAGcGnAvEHk3i+iDD97JcIm4ygczFj4KVWPFgtiJ9wIsdbyFEZRC
Uya2hyXnWmyhS6JQVRBUkNpj0sbRUMbXy51BzYWeeJnMKmoC3AcPrgfz6+CGB0XS
/OuAtYYfthTkXMH+EXAgc+14wxKvt9b5OW9LBcpSPkOhQBbEICCjcf47rAujU45l
BGBhiGKCkQC2Qal3hOxx7iBAT7g2jL/farvCsuKh7yOeZCRPwVhbM7NKbfXHRK8S
Qoji8kYCLQwesFS771uj8QFbstDIxpXPD23jmVQk9ndHhVwqbcQOTq+iDaaJv7Gm
pXny3r7N9NQE2Hfc15vsxh3Td648b4/3iLrpiHjw52O4BNRou4OSqNFIXY5cuX1H
kIEqagdzN/RX3zTTSAgpQq16nuRBPWVXNLP2YIzS5pdp1nJSIObP68z/8J4hj4T2
aIQ7HfnHZrLV53o1ORChVECEACkJhD2pvZ56JNhdnEkuX9UOlE/rgxcXu+E=
-----END CERTIFICATE-----
