Certificate:
    Data:
        Version: 3 (0x2)
        Serial Number: 951 (0x3b7)
    Signature Algorithm: sha1WithRSAEncryption
        Issuer: C=US, ST=CA, L=SanFrancisco, O=Pixglo, Inc., OU=VPN-CIE, CN=tunnel.pixglo.com/name=Bala Chandrasekaran/emailAddress=bala@pixglo.com
        Validity
            Not Before: Feb 14 06:49:01 2018 GMT
            Not After : Feb 12 06:49:01 2028 GMT
        Subject: C=US, ST=CA, L=SanFrancisco, O=Pixglo, Inc., OU=VPN-CIE, CN=cie950/name=Bala Chandrasekaran/emailAddress=bala@pixglo.com
        Subject Public Key Info:
            Public Key Algorithm: rsaEncryption
                Public-Key: (4096 bit)
                Modulus:
                    00:dc:40:c2:ec:dc:84:86:ae:7a:5a:a9:7b:a4:49:
                    35:26:17:39:c6:e1:8d:a7:84:f0:0f:4a:20:bf:b3:
                    4e:71:4b:ee:94:e8:bf:a4:0a:c9:33:ae:2f:3b:15:
                    0f:b7:20:ca:72:24:b1:84:56:9c:d4:04:2f:46:46:
                    ca:cf:b4:e1:06:bd:9d:75:b9:c7:0e:f3:8c:fd:fb:
                    77:43:0f:75:c3:3b:2b:f7:28:b6:6a:5b:c1:73:94:
                    f7:c3:9e:81:52:76:e3:ee:96:50:fb:cc:4f:1a:04:
                    45:aa:f5:88:b7:a6:a0:9a:0e:20:a7:ef:75:0e:68:
                    e4:a3:5b:70:80:7f:ad:e2:f6:b6:e6:f3:02:49:d1:
                    2e:d2:d1:8c:fd:2f:23:11:d8:48:fa:b5:c3:55:d4:
                    b7:87:14:da:27:4e:f2:ba:27:ca:9a:b2:63:c1:69:
                    16:2a:c6:2d:38:65:57:a7:fa:ea:e2:fb:cc:bf:e2:
                    68:8e:a0:f6:8b:00:da:8e:77:72:b6:58:9a:8d:22:
                    64:b7:0c:7b:61:78:31:c5:4f:8e:d6:9c:c9:77:58:
                    ae:7c:a3:d3:08:88:e2:51:d5:65:f7:53:ef:ef:32:
                    5d:f7:35:cb:58:87:c4:a2:33:93:d8:ae:05:12:92:
                    52:83:ab:22:11:bf:08:8b:01:18:2b:2b:0a:d7:43:
                    fb:d8:50:e0:2c:79:5e:e6:9b:a2:54:ca:fb:b8:88:
                    47:a5:d2:73:3d:dc:29:be:20:0b:65:05:5b:1b:a9:
                    2b:4d:ef:2c:02:bc:12:72:74:1b:de:d6:d7:be:10:
                    da:e0:79:ba:0e:1d:e6:fb:3d:d0:d7:35:3a:5e:21:
                    dc:2d:53:a1:5d:9c:3c:42:40:ea:f8:5e:98:b0:48:
                    de:c5:a9:36:79:7e:01:e5:bb:2f:9e:e3:90:02:4c:
                    4c:23:38:01:39:90:c5:69:80:05:50:66:9f:ca:9e:
                    40:c2:30:b5:43:15:d3:07:aa:99:55:e4:4f:e5:81:
                    94:5c:4d:77:14:01:a4:d6:20:85:6d:7b:bb:01:55:
                    a6:4e:30:bd:cd:c4:ed:40:f1:92:b6:7b:09:f7:10:
                    8c:ed:86:32:03:f7:b2:cd:0e:84:6d:56:4f:41:e5:
                    2e:70:5b:33:f2:0c:6a:c4:4c:e1:b4:1e:6a:a9:d8:
                    57:c7:b7:0e:e5:d6:64:1b:36:e4:69:84:14:07:28:
                    02:e7:a8:ff:b5:4e:89:9b:ba:7e:da:23:f7:35:d7:
                    c0:c3:1e:d0:be:81:46:99:63:a1:46:13:78:5b:6e:
                    31:39:f8:01:93:3a:2d:50:f7:77:e9:d2:39:33:64:
                    25:61:bf:ee:c2:1a:9a:87:e5:b0:5e:e8:f2:51:95:
                    09:8e:e7
                Exponent: 65537 (0x10001)
        X509v3 extensions:
            X509v3 Basic Constraints: 
                CA:FALSE
            Netscape Comment: 
                Easy-RSA Generated Certificate
            X509v3 Subject Key Identifier: 
                F4:27:D4:49:E0:14:27:F8:49:16:B2:92:F2:DF:14:E3:E5:D2:98:62
            X509v3 Authority Key Identifier: 
                keyid:EF:38:8D:14:50:58:A7:5B:4D:9C:17:72:FC:DF:B9:AC:A7:51:B0:10
                DirName:/C=US/ST=CA/L=SanFrancisco/O=Pixglo, Inc./OU=VPN-CIE/CN=tunnel.pixglo.com/name=Bala Chandrasekaran/emailAddress=bala@pixglo.com
                serial:A6:DB:C6:83:80:E6:A0:79

            X509v3 Extended Key Usage: 
                TLS Web Client Authentication
            X509v3 Key Usage: 
                Digital Signature
    Signature Algorithm: sha1WithRSAEncryption
         1d:f5:02:1b:ab:2d:6e:8a:c7:43:a9:53:6e:68:57:02:c0:b6:
         12:1c:ef:85:e4:7a:b7:c7:18:e5:c3:1e:21:a4:62:4b:29:e7:
         cc:d7:5e:e1:e1:25:1c:85:11:04:80:84:01:7e:10:e3:a6:3d:
         5f:a2:90:d2:e0:4b:d9:1a:55:98:a3:b1:6e:66:1a:a0:23:06:
         9f:68:8d:b3:8e:fd:ba:f5:32:e3:50:65:e6:6c:17:b2:95:60:
         fd:0d:54:b8:9b:32:a0:8d:41:a8:25:bb:54:b8:b3:66:c7:9e:
         0c:a2:74:8d:c9:9b:67:fa:c7:48:51:2a:45:e0:00:7f:f8:49:
         84:76:6a:6b:2b:3c:18:f4:47:8a:9f:c1:da:21:fe:2e:94:57:
         0f:c1:57:78:2d:19:3b:c3:f9:af:d1:ff:51:0c:02:f3:73:43:
         7b:59:a4:d3:6f:74:65:da:3a:b1:d1:90:74:dc:19:39:11:6a:
         bf:c8:2f:b3:0d:9e:b2:83:bc:87:a9:60:8e:53:58:38:54:4a:
         2b:95:71:bd:86:50:32:82:04:46:2d:c8:b7:ee:1a:6f:d6:9e:
         5c:08:bd:f0:23:a0:e4:6a:48:18:37:6f:1e:db:7c:f1:63:f5:
         2e:86:1a:72:5a:72:0e:8e:8b:f0:e9:22:1e:2c:cf:51:b6:5f:
         90:92:6e:2f:e2:27:54:6a:f1:74:0e:e7:a7:3e:26:45:77:a3:
         11:d5:f8:05:cf:a5:76:13:ca:b5:7d:dc:52:fe:23:b3:9c:59:
         fd:91:13:2f:81:ef:0e:85:41:c3:92:92:bd:02:a1:5d:3d:74:
         2e:4e:1c:92:3a:ed:46:b4:26:ac:88:47:11:e3:5a:03:5a:e4:
         c7:2a:be:2c:0b:c6:f5:20:5d:9c:4e:0b:8e:9f:77:16:a8:ca:
         ba:74:9d:35:5b:68:55:28:dd:71:e9:28:94:d2:23:3b:8f:11:
         0c:94:22:ed:d1:04:e2:ff:b4:20:5f:8a:fb:1f:17:63:12:c1:
         a6:a4:2a:bd:27:26:ff:74:6c:84:b2:e8:03:56:a7:b2:9f:65:
         49:86:27:ce:b9:89:08:4e:05:ca:db:70:de:40:6b:53:87:9e:
         50:66:a5:83:34:07:d1:7b:29:b3:30:0c:35:31:f4:99:31:d8:
         b4:fc:9d:bb:13:4e:49:07:7c:1c:81:0f:9b:02:a5:84:76:3a:
         1f:de:ec:18:ee:94:61:d1:66:a8:3b:69:06:b9:18:b3:23:a7:
         ad:44:13:b9:5d:54:96:ea:d0:39:c7:2a:31:27:86:f8:6a:28:
         14:e0:e9:bf:e1:05:db:03:fb:63:ba:1c:df:2b:48:38:ae:21:
         0f:53:27:81:66:32:e7:04
-----BEGIN CERTIFICATE-----
MIIHSDCCBTCgAwIBAgICA7cwDQYJKoZIhvcNAQEFBQAwgbQxCzAJBgNVBAYTAlVT
MQswCQYDVQQIEwJDQTEVMBMGA1UEBxMMU2FuRnJhbmNpc2NvMRUwEwYDVQQKEwxQ
aXhnbG8sIEluYy4xEDAOBgNVBAsTB1ZQTi1DSUUxGjAYBgNVBAMTEXR1bm5lbC5w
aXhnbG8uY29tMRwwGgYDVQQpExNCYWxhIENoYW5kcmFzZWthcmFuMR4wHAYJKoZI
hvcNAQkBFg9iYWxhQHBpeGdsby5jb20wHhcNMTgwMjE0MDY0OTAxWhcNMjgwMjEy
MDY0OTAxWjCBqTELMAkGA1UEBhMCVVMxCzAJBgNVBAgTAkNBMRUwEwYDVQQHEwxT
YW5GcmFuY2lzY28xFTATBgNVBAoTDFBpeGdsbywgSW5jLjEQMA4GA1UECxMHVlBO
LUNJRTEPMA0GA1UEAxMGY2llOTUwMRwwGgYDVQQpExNCYWxhIENoYW5kcmFzZWth
cmFuMR4wHAYJKoZIhvcNAQkBFg9iYWxhQHBpeGdsby5jb20wggIiMA0GCSqGSIb3
DQEBAQUAA4ICDwAwggIKAoICAQDcQMLs3ISGrnpaqXukSTUmFznG4Y2nhPAPSiC/
s05xS+6U6L+kCskzri87FQ+3IMpyJLGEVpzUBC9GRsrPtOEGvZ11uccO84z9+3dD
D3XDOyv3KLZqW8FzlPfDnoFSduPullD7zE8aBEWq9Yi3pqCaDiCn73UOaOSjW3CA
f63i9rbm8wJJ0S7S0Yz9LyMR2Ej6tcNV1LeHFNonTvK6J8qasmPBaRYqxi04ZVen
+uri+8y/4miOoPaLANqOd3K2WJqNImS3DHtheDHFT47WnMl3WK58o9MIiOJR1WX3
U+/vMl33NctYh8SiM5PYrgUSklKDqyIRvwiLARgrKwrXQ/vYUOAseV7mm6JUyvu4
iEel0nM93Cm+IAtlBVsbqStN7ywCvBJydBve1te+ENrgeboOHeb7PdDXNTpeIdwt
U6FdnDxCQOr4XpiwSN7FqTZ5fgHluy+e45ACTEwjOAE5kMVpgAVQZp/KnkDCMLVD
FdMHqplV5E/lgZRcTXcUAaTWIIVte7sBVaZOML3NxO1A8ZK2ewn3EIzthjID97LN
DoRtVk9B5S5wWzPyDGrETOG0Hmqp2FfHtw7l1mQbNuRphBQHKALnqP+1Tombun7a
I/c118DDHtC+gUaZY6FGE3hbbjE5+AGTOi1Q93fp0jkzZCVhv+7CGpqH5bBe6PJR
lQmO5wIDAQABo4IBazCCAWcwCQYDVR0TBAIwADAtBglghkgBhvhCAQ0EIBYeRWFz
eS1SU0EgR2VuZXJhdGVkIENlcnRpZmljYXRlMB0GA1UdDgQWBBT0J9RJ4BQn+EkW
spLy3xTj5dKYYjCB6QYDVR0jBIHhMIHegBTvOI0UUFinW02cF3L837msp1GwEKGB
uqSBtzCBtDELMAkGA1UEBhMCVVMxCzAJBgNVBAgTAkNBMRUwEwYDVQQHEwxTYW5G
cmFuY2lzY28xFTATBgNVBAoTDFBpeGdsbywgSW5jLjEQMA4GA1UECxMHVlBOLUNJ
RTEaMBgGA1UEAxMRdHVubmVsLnBpeGdsby5jb20xHDAaBgNVBCkTE0JhbGEgQ2hh
bmRyYXNla2FyYW4xHjAcBgkqhkiG9w0BCQEWD2JhbGFAcGl4Z2xvLmNvbYIJAKbb
xoOA5qB5MBMGA1UdJQQMMAoGCCsGAQUFBwMCMAsGA1UdDwQEAwIHgDANBgkqhkiG
9w0BAQUFAAOCAgEAHfUCG6stborHQ6lTbmhXAsC2EhzvheR6t8cY5cMeIaRiSynn
zNde4eElHIURBICEAX4Q46Y9X6KQ0uBL2RpVmKOxbmYaoCMGn2iNs479uvUy41Bl
5mwXspVg/Q1UuJsyoI1BqCW7VLizZseeDKJ0jcmbZ/rHSFEqReAAf/hJhHZqays8
GPRHip/B2iH+LpRXD8FXeC0ZO8P5r9H/UQwC83NDe1mk0290Zdo6sdGQdNwZORFq
v8gvsw2esoO8h6lgjlNYOFRKK5VxvYZQMoIERi3It+4ab9aeXAi98COg5GpIGDdv
Htt88WP1LoYaclpyDo6L8OkiHizPUbZfkJJuL+InVGrxdA7npz4mRXejEdX4Bc+l
dhPKtX3cUv4js5xZ/ZETL4HvDoVBw5KSvQKhXT10Lk4ckjrtRrQmrIhHEeNaA1rk
xyq+LAvG9SBdnE4Ljp93FqjKunSdNVtoVSjdcekolNIjO48RDJQi7dEE4v+0IF+K
+x8XYxLBpqQqvScm/3RshLLoA1ansp9lSYYnzrmJCE4Fyttw3kBrU4eeUGalgzQH
0XspszAMNTH0mTHYtPyduxNOSQd8HIEPmwKlhHY6H97sGO6UYdFmqDtpBrkYsyOn
rUQTuV1UlurQOccqMSeG+GooFODpv+EF2wP7Y7oc3ytIOK4hD1MngWYy5wQ=
-----END CERTIFICATE-----
