Certificate:
    Data:
        Version: 3 (0x2)
        Serial Number: 996 (0x3e4)
    Signature Algorithm: sha1WithRSAEncryption
        Issuer: C=US, ST=CA, L=SanFrancisco, O=Pixglo, Inc., OU=VPN-CIE, CN=tunnel.pixglo.com/name=Bala Chandrasekaran/emailAddress=bala@pixglo.com
        Validity
            Not Before: Feb 14 06:50:23 2018 GMT
            Not After : Feb 12 06:50:23 2028 GMT
        Subject: C=US, ST=CA, L=SanFrancisco, O=Pixglo, Inc., OU=VPN-CIE, CN=cie995/name=Bala Chandrasekaran/emailAddress=bala@pixglo.com
        Subject Public Key Info:
            Public Key Algorithm: rsaEncryption
                Public-Key: (4096 bit)
                Modulus:
                    00:e2:bd:6d:fa:e1:b2:3a:9f:c7:33:fa:5f:93:2e:
                    f9:ea:22:c7:2f:93:24:fa:49:06:8b:a7:9c:cb:bb:
                    23:07:03:da:c5:0f:29:c8:ff:e9:c0:17:43:e6:92:
                    fb:72:7c:c6:37:a0:20:f8:14:76:86:b5:b7:39:3d:
                    5d:fd:76:ea:72:5e:28:b7:93:c7:15:b2:e2:6f:3c:
                    98:df:b5:75:8f:e1:a2:76:a5:87:96:5e:5c:3f:0e:
                    71:4b:ee:e6:8c:e5:83:86:34:08:26:89:5e:47:e5:
                    50:42:4c:94:95:8a:0b:2d:81:2c:bd:3c:bb:97:60:
                    52:09:b3:8c:ac:d6:d5:76:d2:da:fc:f3:83:85:ea:
                    77:5e:e2:09:bf:24:29:f6:af:16:cc:45:98:a4:5f:
                    48:01:86:c7:34:32:08:36:8d:8d:17:c5:5e:ef:77:
                    0a:81:d9:61:26:93:b2:41:ba:02:aa:66:a0:39:7e:
                    19:7a:e0:7f:50:f7:ba:52:70:78:05:94:0a:c6:8c:
                    11:62:8f:29:a8:6c:fd:00:1d:6c:ee:b1:92:08:27:
                    fe:91:e3:99:b5:20:0f:0b:32:ea:1f:74:71:7d:0e:
                    b1:70:57:53:05:db:a0:d5:09:6c:e2:a0:c1:54:82:
                    d4:18:06:da:2f:8a:29:3e:71:78:9c:d2:09:74:b2:
                    01:b3:de:5f:62:ea:51:cc:b0:50:5a:e3:ea:33:8e:
                    4d:29:2b:3c:06:43:c5:aa:06:fa:86:b1:af:3a:b0:
                    a9:af:b4:08:21:4f:88:e5:8c:ac:02:c3:76:2d:1a:
                    f9:36:3d:48:6b:35:1a:2e:10:ae:82:06:52:7b:db:
                    bf:81:b0:ec:19:fa:82:6d:2d:35:6f:e2:9c:4f:48:
                    9a:84:1a:61:be:b8:af:81:f1:79:49:35:9a:36:72:
                    e3:b4:30:eb:83:ac:76:0e:04:a5:11:fd:d5:51:77:
                    24:93:5d:87:9c:8c:3a:09:35:97:a2:5f:fb:cc:19:
                    7f:54:9f:2a:bd:5a:05:86:fa:0f:0a:b6:fe:23:d7:
                    5b:83:e3:c0:45:3d:20:e5:9f:0a:0a:78:0a:11:83:
                    88:af:12:39:c4:85:ea:0b:69:3d:23:91:b0:01:f5:
                    ca:72:85:6b:1a:a9:10:4a:8d:71:0c:bc:20:2e:c0:
                    da:ad:b3:96:0a:61:f5:a4:b1:df:9b:07:e2:ba:b8:
                    e9:40:66:b2:d5:c5:4f:89:70:46:0b:bf:5f:4a:0e:
                    d7:df:e6:10:55:16:65:21:e8:37:54:f3:0e:9a:81:
                    b6:43:f9:47:3c:1a:76:ba:40:98:af:4a:ae:e0:aa:
                    ae:a7:e5:7e:88:b6:76:5c:70:1c:01:49:3c:4d:27:
                    96:5e:6b
                Exponent: 65537 (0x10001)
        X509v3 extensions:
            X509v3 Basic Constraints: 
                CA:FALSE
            Netscape Comment: 
                Easy-RSA Generated Certificate
            X509v3 Subject Key Identifier: 
                5A:83:4D:A4:9C:30:3D:BF:55:95:87:C6:4D:85:1F:C6:8C:79:B4:58
            X509v3 Authority Key Identifier: 
                keyid:EF:38:8D:14:50:58:A7:5B:4D:9C:17:72:FC:DF:B9:AC:A7:51:B0:10
                DirName:/C=US/ST=CA/L=SanFrancisco/O=Pixglo, Inc./OU=VPN-CIE/CN=tunnel.pixglo.com/name=Bala Chandrasekaran/emailAddress=bala@pixglo.com
                serial:A6:DB:C6:83:80:E6:A0:79

            X509v3 Extended Key Usage: 
                TLS Web Client Authentication
            X509v3 Key Usage: 
                Digital Signature
    Signature Algorithm: sha1WithRSAEncryption
         6e:60:1c:3d:a7:f2:2a:b2:04:7b:dc:f4:b1:16:f2:8a:71:33:
         8f:a8:00:ed:23:4b:f5:e3:22:21:ce:19:61:d7:dc:75:53:06:
         c9:ca:a3:48:39:4d:19:5d:c3:51:67:49:0d:ab:d8:24:40:d3:
         c2:32:65:88:e3:23:77:60:bc:03:71:76:99:13:4b:5e:52:f0:
         49:f7:71:23:2e:a9:3b:6a:ac:e7:e9:fa:f2:f9:2b:a8:48:f0:
         82:43:5e:63:97:0d:ee:41:38:18:fe:e8:9b:02:6f:dd:0a:71:
         e3:d8:3f:0b:55:2d:ea:69:4d:79:39:d2:94:e9:ab:43:66:9e:
         52:04:28:09:09:04:18:fb:54:42:f7:fc:70:47:16:9b:90:dc:
         5d:5f:86:20:23:ea:b8:27:f4:58:cd:0d:21:93:aa:ea:bc:0f:
         84:0f:3a:bc:f7:ed:8a:34:bb:fe:46:63:da:34:20:b5:1e:5b:
         b4:c9:a6:34:a7:d9:8f:14:ea:47:2f:a6:b7:7f:1c:cd:3f:32:
         dc:32:6f:a2:14:6a:9b:58:8e:9c:94:80:9a:71:a3:cf:d4:c8:
         88:fc:f2:8d:69:2a:0d:bb:0b:55:ac:13:db:41:08:0c:7d:63:
         fe:e8:da:d7:1d:5f:f7:9c:b0:7f:c8:e0:da:49:ca:55:ee:e7:
         2a:db:ce:a0:ec:ed:a7:a2:ef:0e:fd:2d:05:6a:c3:e2:ca:3b:
         d3:16:31:d1:f8:5d:32:07:67:1b:ca:1b:75:68:98:5d:17:7d:
         1a:d1:4b:63:26:ac:52:07:07:18:e5:dc:92:33:06:b5:29:94:
         14:c5:76:c7:b5:1c:e6:29:73:b0:c6:2e:ce:60:3a:9b:71:f4:
         2b:5a:15:68:67:29:4d:19:d2:fa:ce:95:22:6e:60:d0:a1:51:
         33:17:60:da:30:2d:3b:d3:a3:3a:a8:b7:e5:f6:17:b7:e2:90:
         98:e8:18:81:d8:c4:f0:64:bd:69:05:ae:24:a3:7f:b5:3a:90:
         e6:10:41:8e:66:22:3e:cb:4e:73:33:22:83:14:da:13:1b:19:
         4d:da:b0:94:c8:ef:d6:0a:16:6b:3c:f0:ae:cc:74:bd:ae:14:
         67:06:8f:e4:77:13:15:5e:97:45:fc:d7:68:7b:93:b6:b5:02:
         e0:6a:8a:91:46:f1:0d:e1:88:df:49:55:63:14:12:d5:b7:1f:
         d6:cf:50:b7:9a:48:a6:71:b7:0a:7e:60:b8:a0:99:86:70:83:
         e7:80:49:32:9d:9b:84:41:e0:ee:fd:82:53:0f:b8:76:7c:c3:
         d6:e4:56:35:1b:b1:d0:9b:f5:6f:fd:c3:6e:3a:ad:fe:99:e1:
         20:17:31:8c:27:aa:a4:a7
-----BEGIN CERTIFICATE-----
MIIHSDCCBTCgAwIBAgICA+QwDQYJKoZIhvcNAQEFBQAwgbQxCzAJBgNVBAYTAlVT
MQswCQYDVQQIEwJDQTEVMBMGA1UEBxMMU2FuRnJhbmNpc2NvMRUwEwYDVQQKEwxQ
aXhnbG8sIEluYy4xEDAOBgNVBAsTB1ZQTi1DSUUxGjAYBgNVBAMTEXR1bm5lbC5w
aXhnbG8uY29tMRwwGgYDVQQpExNCYWxhIENoYW5kcmFzZWthcmFuMR4wHAYJKoZI
hvcNAQkBFg9iYWxhQHBpeGdsby5jb20wHhcNMTgwMjE0MDY1MDIzWhcNMjgwMjEy
MDY1MDIzWjCBqTELMAkGA1UEBhMCVVMxCzAJBgNVBAgTAkNBMRUwEwYDVQQHEwxT
YW5GcmFuY2lzY28xFTATBgNVBAoTDFBpeGdsbywgSW5jLjEQMA4GA1UECxMHVlBO
LUNJRTEPMA0GA1UEAxMGY2llOTk1MRwwGgYDVQQpExNCYWxhIENoYW5kcmFzZWth
cmFuMR4wHAYJKoZIhvcNAQkBFg9iYWxhQHBpeGdsby5jb20wggIiMA0GCSqGSIb3
DQEBAQUAA4ICDwAwggIKAoICAQDivW364bI6n8cz+l+TLvnqIscvkyT6SQaLp5zL
uyMHA9rFDynI/+nAF0PmkvtyfMY3oCD4FHaGtbc5PV39dupyXii3k8cVsuJvPJjf
tXWP4aJ2pYeWXlw/DnFL7uaM5YOGNAgmiV5H5VBCTJSVigstgSy9PLuXYFIJs4ys
1tV20tr884OF6nde4gm/JCn2rxbMRZikX0gBhsc0Mgg2jY0XxV7vdwqB2WEmk7JB
ugKqZqA5fhl64H9Q97pScHgFlArGjBFijymobP0AHWzusZIIJ/6R45m1IA8LMuof
dHF9DrFwV1MF26DVCWzioMFUgtQYBtoviik+cXic0gl0sgGz3l9i6lHMsFBa4+oz
jk0pKzwGQ8WqBvqGsa86sKmvtAghT4jljKwCw3YtGvk2PUhrNRouEK6CBlJ727+B
sOwZ+oJtLTVv4pxPSJqEGmG+uK+B8XlJNZo2cuO0MOuDrHYOBKUR/dVRdySTXYec
jDoJNZeiX/vMGX9Unyq9WgWG+g8Ktv4j11uD48BFPSDlnwoKeAoRg4ivEjnEheoL
aT0jkbAB9cpyhWsaqRBKjXEMvCAuwNqts5YKYfWksd+bB+K6uOlAZrLVxU+JcEYL
v19KDtff5hBVFmUh6DdU8w6agbZD+Uc8Gna6QJivSq7gqq6n5X6ItnZccBwBSTxN
J5ZeawIDAQABo4IBazCCAWcwCQYDVR0TBAIwADAtBglghkgBhvhCAQ0EIBYeRWFz
eS1SU0EgR2VuZXJhdGVkIENlcnRpZmljYXRlMB0GA1UdDgQWBBRag02knDA9v1WV
h8ZNhR/GjHm0WDCB6QYDVR0jBIHhMIHegBTvOI0UUFinW02cF3L837msp1GwEKGB
uqSBtzCBtDELMAkGA1UEBhMCVVMxCzAJBgNVBAgTAkNBMRUwEwYDVQQHEwxTYW5G
cmFuY2lzY28xFTATBgNVBAoTDFBpeGdsbywgSW5jLjEQMA4GA1UECxMHVlBOLUNJ
RTEaMBgGA1UEAxMRdHVubmVsLnBpeGdsby5jb20xHDAaBgNVBCkTE0JhbGEgQ2hh
bmRyYXNla2FyYW4xHjAcBgkqhkiG9w0BCQEWD2JhbGFAcGl4Z2xvLmNvbYIJAKbb
xoOA5qB5MBMGA1UdJQQMMAoGCCsGAQUFBwMCMAsGA1UdDwQEAwIHgDANBgkqhkiG
9w0BAQUFAAOCAgEAbmAcPafyKrIEe9z0sRbyinEzj6gA7SNL9eMiIc4ZYdfcdVMG
ycqjSDlNGV3DUWdJDavYJEDTwjJliOMjd2C8A3F2mRNLXlLwSfdxIy6pO2qs5+n6
8vkrqEjwgkNeY5cN7kE4GP7omwJv3Qpx49g/C1Ut6mlNeTnSlOmrQ2aeUgQoCQkE
GPtUQvf8cEcWm5DcXV+GICPquCf0WM0NIZOq6rwPhA86vPftijS7/kZj2jQgtR5b
tMmmNKfZjxTqRy+mt38czT8y3DJvohRqm1iOnJSAmnGjz9TIiPzyjWkqDbsLVawT
20EIDH1j/uja1x1f95ywf8jg2knKVe7nKtvOoOztp6LvDv0tBWrD4so70xYx0fhd
MgdnG8obdWiYXRd9GtFLYyasUgcHGOXckjMGtSmUFMV2x7Uc5ilzsMYuzmA6m3H0
K1oVaGcpTRnS+s6VIm5g0KFRMxdg2jAtO9OjOqi35fYXt+KQmOgYgdjE8GS9aQWu
JKN/tTqQ5hBBjmYiPstOczMigxTaExsZTdqwlMjv1goWazzwrsx0va4UZwaP5HcT
FV6XRfzXaHuTtrUC4GqKkUbxDeGI30lVYxQS1bcf1s9Qt5pIpnG3Cn5guKCZhnCD
54BJMp2bhEHg7v2CUw+4dnzD1uRWNRux0Jv1b/3Dbjqt/pnhIBcxjCeqpKc=
-----END CERTIFICATE-----
