Certificate:
    Data:
        Version: 3 (0x2)
        Serial Number: 989 (0x3dd)
    Signature Algorithm: sha1WithRSAEncryption
        Issuer: C=US, ST=CA, L=SanFrancisco, O=Pixglo, Inc., OU=VPN-CIE, CN=tunnel.pixglo.com/name=Bala Chandrasekaran/emailAddress=bala@pixglo.com
        Validity
            Not Before: Feb 14 06:50:08 2018 GMT
            Not After : Feb 12 06:50:08 2028 GMT
        Subject: C=US, ST=CA, L=SanFrancisco, O=Pixglo, Inc., OU=VPN-CIE, CN=cie988/name=Bala Chandrasekaran/emailAddress=bala@pixglo.com
        Subject Public Key Info:
            Public Key Algorithm: rsaEncryption
                Public-Key: (4096 bit)
                Modulus:
                    00:e1:dd:b2:30:ac:0d:d8:97:43:3d:53:1e:49:c9:
                    fd:48:bd:57:d4:b7:a2:6c:7c:9d:45:e4:8e:92:e3:
                    db:d5:92:28:f8:a5:d3:34:e6:c2:6e:ae:29:48:e4:
                    4f:ba:a2:38:9a:ae:3d:d1:c4:ba:1e:8d:c2:4e:04:
                    94:71:12:8d:6f:21:cd:e8:c2:ff:83:79:fa:73:6e:
                    77:1b:9a:64:94:fe:28:bf:92:a1:1e:07:49:5c:cf:
                    c1:73:0f:1b:be:36:6c:30:1d:fd:4d:8a:1a:86:b8:
                    51:84:82:09:8e:89:65:02:77:09:62:32:de:55:37:
                    e8:8e:9f:be:27:ca:57:97:ec:90:98:16:5b:e0:05:
                    18:cb:d9:4e:3f:57:e0:02:de:56:7e:48:93:b3:48:
                    78:12:de:63:eb:87:3e:82:54:cd:4a:4c:16:93:6e:
                    ab:e8:e1:5c:62:0b:83:a9:a9:3d:3e:8d:a6:81:19:
                    28:57:5e:f4:ec:f5:37:e8:6d:d2:04:e8:b6:fc:44:
                    d8:69:05:3b:d3:ec:d0:88:5e:bb:e9:67:0e:2e:42:
                    fa:b3:45:00:b8:0e:2e:4e:56:2a:1a:ad:5d:14:e6:
                    5c:d7:e4:01:11:c6:71:41:fd:79:fe:71:2d:ba:75:
                    95:5b:62:88:32:c2:94:f4:16:3a:86:0e:94:8e:a2:
                    a8:20:a7:cb:1c:9f:3e:4a:30:8c:5a:f9:bd:8a:7f:
                    25:3e:81:04:8c:5e:25:a4:5e:d1:44:22:4b:38:5b:
                    4b:bc:ac:2b:88:96:56:49:6b:5d:30:a3:f8:1f:46:
                    42:3c:e3:0a:da:2a:96:0e:c7:ad:54:d9:44:c2:70:
                    16:e4:6f:b4:43:eb:9c:d9:1f:da:8a:72:b4:a5:e3:
                    9a:df:78:65:94:8c:00:1c:13:9b:a8:5f:56:48:a8:
                    b6:87:54:60:ca:8b:27:d7:04:b2:09:83:e7:e6:bd:
                    67:a8:99:9e:c5:9d:8e:ca:5b:c0:23:63:c8:97:54:
                    c0:3f:91:b0:86:0a:1e:01:97:b7:61:da:87:2f:9a:
                    75:e3:5a:65:d7:57:d4:9d:24:91:21:a3:c7:73:ef:
                    95:aa:4a:b2:4b:93:34:2d:a3:60:a2:07:51:30:ed:
                    dc:2d:ac:b3:2e:7d:69:99:a9:b3:1d:d3:d6:b8:50:
                    79:65:1d:f8:41:9a:69:99:97:7f:f4:c8:18:cd:ff:
                    1d:1d:10:ec:41:e2:e2:4b:df:35:fd:93:b9:89:db:
                    9c:8e:b5:a2:75:8e:82:0f:4f:db:72:0c:a7:91:69:
                    96:47:04:37:a2:bd:e0:45:a7:eb:f5:21:69:dd:ef:
                    e3:08:b2:39:24:94:10:4d:0b:fe:3e:41:cd:4d:ce:
                    3c:f9:61
                Exponent: 65537 (0x10001)
        X509v3 extensions:
            X509v3 Basic Constraints: 
                CA:FALSE
            Netscape Comment: 
                Easy-RSA Generated Certificate
            X509v3 Subject Key Identifier: 
                8D:27:74:B8:F9:0F:89:DF:33:0A:92:05:5E:F3:07:50:32:F3:46:69
            X509v3 Authority Key Identifier: 
                keyid:EF:38:8D:14:50:58:A7:5B:4D:9C:17:72:FC:DF:B9:AC:A7:51:B0:10
                DirName:/C=US/ST=CA/L=SanFrancisco/O=Pixglo, Inc./OU=VPN-CIE/CN=tunnel.pixglo.com/name=Bala Chandrasekaran/emailAddress=bala@pixglo.com
                serial:A6:DB:C6:83:80:E6:A0:79

            X509v3 Extended Key Usage: 
                TLS Web Client Authentication
            X509v3 Key Usage: 
                Digital Signature
    Signature Algorithm: sha1WithRSAEncryption
         a8:02:8f:9b:01:2a:f0:6a:69:6e:d2:d3:d2:c8:95:81:b7:d4:
         3d:26:db:22:ad:81:fa:95:28:d8:5f:0d:60:44:99:36:05:c3:
         95:48:5f:92:19:c7:af:c2:e2:25:99:e3:86:a2:e1:2e:f5:72:
         9d:25:3e:f7:fa:34:a3:ff:41:8c:7f:4a:ed:ea:20:5f:bb:96:
         cb:91:b9:9b:d3:9e:84:79:8c:ce:0a:df:06:f1:ec:de:b6:01:
         b0:53:88:6f:67:3d:eb:5f:c7:9c:b8:aa:66:d5:41:72:92:39:
         78:b6:a1:a6:0f:cc:c7:d2:90:8c:68:97:b8:d6:a0:23:a0:97:
         e0:54:d7:e0:b5:11:bb:61:a6:44:b9:a0:06:b6:69:51:38:ee:
         b3:9e:d0:34:3a:7b:b9:73:04:65:bf:2b:fa:8e:0a:5c:41:58:
         6b:eb:7c:bd:4e:8f:cd:1d:e2:a9:60:c4:8a:e3:5c:1b:51:01:
         63:c8:58:4e:ae:cb:a5:43:db:c7:e6:56:34:cd:34:aa:f6:83:
         58:fd:bf:65:0b:32:7e:b9:a6:80:76:e0:59:03:77:42:19:a8:
         23:73:c6:be:d1:a8:ee:e0:40:11:ef:b5:39:4d:d5:d3:d7:64:
         8d:36:26:21:8b:8c:c2:a0:b1:d9:8f:74:d2:fb:8a:f2:ef:17:
         03:7d:ac:54:15:63:91:d3:71:f8:aa:33:76:5f:f4:3f:da:6d:
         c2:e9:1a:6f:a4:cb:3e:17:8b:8c:e3:b0:d5:dc:77:5d:ee:01:
         18:8b:bf:09:64:96:67:b3:9f:65:01:ea:33:7f:d3:e0:28:d2:
         51:c7:57:b5:70:d4:2d:7f:f2:91:23:03:84:fa:1e:79:0c:d5:
         fd:d4:82:4f:8d:66:af:b4:21:94:c4:cf:7b:dd:43:52:3d:49:
         ed:58:ff:7c:33:29:d5:c0:ed:df:9f:9b:7a:ad:8a:09:d9:3e:
         45:36:af:e0:87:9b:17:30:33:b6:12:87:24:e3:aa:06:b2:0e:
         b1:8f:9b:6d:16:e5:0f:39:1f:0d:22:38:8b:5f:18:a4:99:29:
         9d:94:b8:2d:5e:41:82:a1:19:11:a2:4c:f5:af:e1:e8:be:77:
         42:27:5d:b6:b2:9a:34:16:80:a6:f8:6b:f9:78:d0:91:db:6d:
         8b:5a:11:e6:03:03:6c:e5:8d:8c:c6:cc:70:ab:dd:65:b1:3e:
         e9:aa:46:43:b6:17:42:45:ba:20:46:d7:80:5e:9d:99:32:af:
         86:57:e5:8f:43:1d:8b:f9:80:df:e4:49:44:d2:3d:45:db:8a:
         1c:aa:20:3d:9c:e6:5a:b3:84:11:21:1f:b8:e9:d8:69:3e:2d:
         a2:07:a5:be:75:62:39:45
-----BEGIN CERTIFICATE-----
MIIHSDCCBTCgAwIBAgICA90wDQYJKoZIhvcNAQEFBQAwgbQxCzAJBgNVBAYTAlVT
MQswCQYDVQQIEwJDQTEVMBMGA1UEBxMMU2FuRnJhbmNpc2NvMRUwEwYDVQQKEwxQ
aXhnbG8sIEluYy4xEDAOBgNVBAsTB1ZQTi1DSUUxGjAYBgNVBAMTEXR1bm5lbC5w
aXhnbG8uY29tMRwwGgYDVQQpExNCYWxhIENoYW5kcmFzZWthcmFuMR4wHAYJKoZI
hvcNAQkBFg9iYWxhQHBpeGdsby5jb20wHhcNMTgwMjE0MDY1MDA4WhcNMjgwMjEy
MDY1MDA4WjCBqTELMAkGA1UEBhMCVVMxCzAJBgNVBAgTAkNBMRUwEwYDVQQHEwxT
YW5GcmFuY2lzY28xFTATBgNVBAoTDFBpeGdsbywgSW5jLjEQMA4GA1UECxMHVlBO
LUNJRTEPMA0GA1UEAxMGY2llOTg4MRwwGgYDVQQpExNCYWxhIENoYW5kcmFzZWth
cmFuMR4wHAYJKoZIhvcNAQkBFg9iYWxhQHBpeGdsby5jb20wggIiMA0GCSqGSIb3
DQEBAQUAA4ICDwAwggIKAoICAQDh3bIwrA3Yl0M9Ux5Jyf1IvVfUt6JsfJ1F5I6S
49vVkij4pdM05sJurilI5E+6ojiarj3RxLoejcJOBJRxEo1vIc3owv+Defpzbncb
mmSU/ii/kqEeB0lcz8FzDxu+NmwwHf1NihqGuFGEggmOiWUCdwliMt5VN+iOn74n
yleX7JCYFlvgBRjL2U4/V+AC3lZ+SJOzSHgS3mPrhz6CVM1KTBaTbqvo4VxiC4Op
qT0+jaaBGShXXvTs9TfobdIE6Lb8RNhpBTvT7NCIXrvpZw4uQvqzRQC4Di5OVioa
rV0U5lzX5AERxnFB/Xn+cS26dZVbYogywpT0FjqGDpSOoqggp8scnz5KMIxa+b2K
fyU+gQSMXiWkXtFEIks4W0u8rCuIllZJa10wo/gfRkI84wraKpYOx61U2UTCcBbk
b7RD65zZH9qKcrSl45rfeGWUjAAcE5uoX1ZIqLaHVGDKiyfXBLIJg+fmvWeomZ7F
nY7KW8AjY8iXVMA/kbCGCh4Bl7dh2ocvmnXjWmXXV9SdJJEho8dz75WqSrJLkzQt
o2CiB1Ew7dwtrLMufWmZqbMd09a4UHllHfhBmmmZl3/0yBjN/x0dEOxB4uJL3zX9
k7mJ25yOtaJ1joIPT9tyDKeRaZZHBDeiveBFp+v1IWnd7+MIsjkklBBNC/4+Qc1N
zjz5YQIDAQABo4IBazCCAWcwCQYDVR0TBAIwADAtBglghkgBhvhCAQ0EIBYeRWFz
eS1SU0EgR2VuZXJhdGVkIENlcnRpZmljYXRlMB0GA1UdDgQWBBSNJ3S4+Q+J3zMK
kgVe8wdQMvNGaTCB6QYDVR0jBIHhMIHegBTvOI0UUFinW02cF3L837msp1GwEKGB
uqSBtzCBtDELMAkGA1UEBhMCVVMxCzAJBgNVBAgTAkNBMRUwEwYDVQQHEwxTYW5G
cmFuY2lzY28xFTATBgNVBAoTDFBpeGdsbywgSW5jLjEQMA4GA1UECxMHVlBOLUNJ
RTEaMBgGA1UEAxMRdHVubmVsLnBpeGdsby5jb20xHDAaBgNVBCkTE0JhbGEgQ2hh
bmRyYXNla2FyYW4xHjAcBgkqhkiG9w0BCQEWD2JhbGFAcGl4Z2xvLmNvbYIJAKbb
xoOA5qB5MBMGA1UdJQQMMAoGCCsGAQUFBwMCMAsGA1UdDwQEAwIHgDANBgkqhkiG
9w0BAQUFAAOCAgEAqAKPmwEq8GppbtLT0siVgbfUPSbbIq2B+pUo2F8NYESZNgXD
lUhfkhnHr8LiJZnjhqLhLvVynSU+9/o0o/9BjH9K7eogX7uWy5G5m9OehHmMzgrf
BvHs3rYBsFOIb2c961/HnLiqZtVBcpI5eLahpg/Mx9KQjGiXuNagI6CX4FTX4LUR
u2GmRLmgBrZpUTjus57QNDp7uXMEZb8r+o4KXEFYa+t8vU6PzR3iqWDEiuNcG1EB
Y8hYTq7LpUPbx+ZWNM00qvaDWP2/ZQsyfrmmgHbgWQN3QhmoI3PGvtGo7uBAEe+1
OU3V09dkjTYmIYuMwqCx2Y900vuK8u8XA32sVBVjkdNx+Kozdl/0P9ptwukab6TL
PheLjOOw1dx3Xe4BGIu/CWSWZ7OfZQHqM3/T4CjSUcdXtXDULX/ykSMDhPoeeQzV
/dSCT41mr7QhlMTPe91DUj1J7Vj/fDMp1cDt35+beq2KCdk+RTav4IebFzAzthKH
JOOqBrIOsY+bbRblDzkfDSI4i18YpJkpnZS4LV5BgqEZEaJM9a/h6L53QiddtrKa
NBaApvhr+XjQkdtti1oR5gMDbOWNjMbMcKvdZbE+6apGQ7YXQkW6IEbXgF6dmTKv
hlflj0Mdi/mA3+RJRNI9RduKHKogPZzmWrOEESEfuOnYaT4togelvnViOUU=
-----END CERTIFICATE-----
