Certificate:
    Data:
        Version: 3 (0x2)
        Serial Number: 940 (0x3ac)
    Signature Algorithm: sha1WithRSAEncryption
        Issuer: C=US, ST=CA, L=SanFrancisco, O=Pixglo, Inc., OU=VPN-CIE, CN=tunnel.pixglo.com/name=Bala Chandrasekaran/emailAddress=bala@pixglo.com
        Validity
            Not Before: Feb 14 06:48:40 2018 GMT
            Not After : Feb 12 06:48:40 2028 GMT
        Subject: C=US, ST=CA, L=SanFrancisco, O=Pixglo, Inc., OU=VPN-CIE, CN=cie939/name=Bala Chandrasekaran/emailAddress=bala@pixglo.com
        Subject Public Key Info:
            Public Key Algorithm: rsaEncryption
                Public-Key: (4096 bit)
                Modulus:
                    00:c1:8e:42:93:f4:1e:79:9e:41:d1:f6:00:39:fc:
                    d1:06:be:e5:d5:ca:4e:7d:a5:f5:32:da:7d:e1:2f:
                    fd:06:0c:e2:b9:05:3a:84:0a:42:08:3b:a3:0d:0d:
                    60:e2:b8:9e:e9:57:f1:14:58:2b:26:5f:f7:76:01:
                    56:e7:5a:78:ba:41:05:99:d5:2e:19:0b:c1:43:59:
                    88:11:86:c7:29:0b:2b:01:a0:f7:23:ba:14:4c:06:
                    f4:7d:e8:94:8f:37:90:a5:67:fa:69:78:75:0d:83:
                    3b:0c:46:2e:32:05:2e:dd:c5:96:07:57:45:5f:69:
                    19:69:3e:f5:fc:68:71:9c:e7:6c:af:6b:c1:fa:a3:
                    6a:1f:64:7c:5d:5e:05:d5:90:cb:f6:5c:4b:d7:4a:
                    2f:94:32:bc:c7:d0:48:e5:34:c3:14:d4:87:55:c5:
                    73:3b:1b:73:80:3f:a4:78:97:9c:c4:5e:c9:fa:31:
                    e7:03:44:3f:9f:d7:2d:4c:59:6f:7c:69:08:38:a9:
                    1a:7c:ba:2a:26:3b:0a:db:4e:70:27:7a:33:f8:30:
                    20:25:b6:0b:52:9c:79:13:6f:a6:4b:33:3c:07:f6:
                    d5:a5:5b:eb:bc:04:a0:ac:c4:56:64:65:7d:c3:b2:
                    d2:be:4b:41:db:39:89:66:7f:30:26:3e:9d:36:57:
                    e8:ed:de:f0:28:d1:81:07:d1:76:bf:76:53:c7:d0:
                    1d:07:85:84:fb:ba:2d:29:72:43:ce:cb:75:7d:22:
                    2f:aa:18:43:5e:23:98:e8:1f:71:38:a8:59:13:ee:
                    f5:56:7d:3b:13:2a:8c:b8:4c:b4:35:14:89:22:91:
                    1e:27:ff:ba:98:c7:a8:7f:a7:dc:7a:dc:14:ab:08:
                    6f:d8:0f:49:d3:e1:40:3a:8a:f4:f7:e4:c9:1f:02:
                    fd:33:62:9d:f3:e9:bf:d8:05:70:65:e9:e3:7e:66:
                    e2:aa:b5:e8:60:95:9b:e3:9a:27:43:78:25:c9:55:
                    21:2b:be:a0:67:e3:66:89:65:7f:2f:a7:21:63:ee:
                    37:5b:68:c3:4b:17:be:ee:43:a5:49:b6:44:1e:cd:
                    97:68:d9:9e:c8:3c:f3:ce:2e:4e:7a:84:6b:64:d1:
                    cf:ee:e4:e6:c8:2d:d5:fc:5e:b4:8a:28:2a:fe:6f:
                    16:c3:d1:28:57:65:db:fa:0c:ee:47:07:9c:ec:69:
                    3c:53:1b:ba:f2:82:90:8b:0a:0f:93:c6:d6:10:0c:
                    89:ca:23:78:cb:32:d8:4e:dd:83:d2:e1:8a:2b:cb:
                    73:d2:3a:27:a5:da:d1:c6:4a:92:d8:e6:1a:8e:57:
                    a2:07:88:d6:76:37:ba:fa:0a:7a:ca:0c:0b:36:09:
                    e2:4c:d7
                Exponent: 65537 (0x10001)
        X509v3 extensions:
            X509v3 Basic Constraints: 
                CA:FALSE
            Netscape Comment: 
                Easy-RSA Generated Certificate
            X509v3 Subject Key Identifier: 
                10:14:71:45:1F:9F:E5:36:DD:5E:A8:FA:2D:6E:4B:38:92:51:5F:1E
            X509v3 Authority Key Identifier: 
                keyid:EF:38:8D:14:50:58:A7:5B:4D:9C:17:72:FC:DF:B9:AC:A7:51:B0:10
                DirName:/C=US/ST=CA/L=SanFrancisco/O=Pixglo, Inc./OU=VPN-CIE/CN=tunnel.pixglo.com/name=Bala Chandrasekaran/emailAddress=bala@pixglo.com
                serial:A6:DB:C6:83:80:E6:A0:79

            X509v3 Extended Key Usage: 
                TLS Web Client Authentication
            X509v3 Key Usage: 
                Digital Signature
    Signature Algorithm: sha1WithRSAEncryption
         03:e7:b2:05:f1:48:aa:10:0d:c9:79:b6:f5:ef:05:0c:14:19:
         df:aa:8c:21:2a:67:ca:30:c8:20:2b:de:6a:e4:f5:05:97:4e:
         52:f1:1a:f0:e7:db:4b:97:d0:aa:4c:4b:08:07:5f:4f:e3:aa:
         64:06:73:17:98:89:a0:40:04:97:0e:c1:04:58:0f:81:5b:7f:
         aa:32:e5:38:21:4e:7c:5d:c3:bd:a5:f0:29:fb:ec:eb:e8:90:
         b2:ab:14:d5:f4:c5:1c:ed:bc:89:94:84:cf:f0:ec:b6:86:ab:
         e5:18:8e:1e:b2:92:49:3a:88:97:3a:82:24:73:0e:ed:a6:9f:
         ed:ea:ff:50:cc:54:c7:93:42:92:ae:e1:88:f7:b5:54:20:c6:
         05:17:6c:db:6b:92:38:e6:b5:b0:b1:3c:19:94:8c:77:a6:7f:
         06:1f:49:b2:bf:22:60:f3:97:05:f5:ba:65:7b:05:b7:6c:69:
         31:b2:c5:b6:a9:3d:e6:a7:77:74:a1:fa:e7:f7:28:aa:11:1a:
         08:a3:0a:88:18:08:95:85:dc:20:ad:91:1e:f0:eb:5e:7d:2f:
         8c:1a:4e:8a:f7:92:2d:73:f6:17:46:4c:f6:f1:3f:6c:cc:d5:
         d1:aa:c3:6d:d5:09:7f:67:08:70:7d:7b:c1:a2:2c:51:2a:dd:
         a6:a2:f3:c2:a2:89:cf:fb:09:2c:16:44:f4:e2:1f:a4:73:a1:
         85:e5:58:df:38:ae:6d:35:21:69:26:83:0c:cb:b1:47:9b:54:
         04:e2:1a:b8:8b:cd:32:62:f3:a8:21:25:5d:5c:a4:9c:65:1f:
         ce:48:b9:1b:16:22:01:9c:55:f1:55:e3:5d:2a:f8:06:da:0b:
         72:14:a5:b7:cc:d6:47:a3:ca:7b:03:49:79:e6:e8:e8:5e:ca:
         43:87:82:ae:25:d0:b4:28:70:6c:7c:c8:c9:ef:fa:7a:d0:be:
         fb:fe:60:0f:aa:ed:4c:2d:40:7c:55:de:39:5b:eb:18:b2:80:
         95:7e:33:50:5f:28:51:32:5d:50:fd:cf:40:c7:59:79:50:0a:
         f0:05:31:60:12:ab:f4:82:d8:da:f8:d3:e4:fd:db:18:52:67:
         5f:04:b3:32:74:60:81:51:1b:74:38:52:a0:b8:64:1e:7a:66:
         15:07:30:88:0b:5c:ff:59:d4:db:24:de:82:dd:c4:7d:1e:f3:
         c6:df:b8:fc:9e:fb:27:bc:84:21:4e:d5:3d:03:d5:a0:a7:e3:
         fd:6f:73:02:fc:5b:3c:d2:ee:38:b5:e8:8f:d2:80:45:8f:41:
         db:ae:8a:95:59:5c:34:ae:36:95:88:ab:1b:76:bb:79:c9:f8:
         dc:d0:5f:41:fe:98:d8:14
-----BEGIN CERTIFICATE-----
MIIHSDCCBTCgAwIBAgICA6wwDQYJKoZIhvcNAQEFBQAwgbQxCzAJBgNVBAYTAlVT
MQswCQYDVQQIEwJDQTEVMBMGA1UEBxMMU2FuRnJhbmNpc2NvMRUwEwYDVQQKEwxQ
aXhnbG8sIEluYy4xEDAOBgNVBAsTB1ZQTi1DSUUxGjAYBgNVBAMTEXR1bm5lbC5w
aXhnbG8uY29tMRwwGgYDVQQpExNCYWxhIENoYW5kcmFzZWthcmFuMR4wHAYJKoZI
hvcNAQkBFg9iYWxhQHBpeGdsby5jb20wHhcNMTgwMjE0MDY0ODQwWhcNMjgwMjEy
MDY0ODQwWjCBqTELMAkGA1UEBhMCVVMxCzAJBgNVBAgTAkNBMRUwEwYDVQQHEwxT
YW5GcmFuY2lzY28xFTATBgNVBAoTDFBpeGdsbywgSW5jLjEQMA4GA1UECxMHVlBO
LUNJRTEPMA0GA1UEAxMGY2llOTM5MRwwGgYDVQQpExNCYWxhIENoYW5kcmFzZWth
cmFuMR4wHAYJKoZIhvcNAQkBFg9iYWxhQHBpeGdsby5jb20wggIiMA0GCSqGSIb3
DQEBAQUAA4ICDwAwggIKAoICAQDBjkKT9B55nkHR9gA5/NEGvuXVyk59pfUy2n3h
L/0GDOK5BTqECkIIO6MNDWDiuJ7pV/EUWCsmX/d2AVbnWni6QQWZ1S4ZC8FDWYgR
hscpCysBoPcjuhRMBvR96JSPN5ClZ/ppeHUNgzsMRi4yBS7dxZYHV0VfaRlpPvX8
aHGc52yva8H6o2ofZHxdXgXVkMv2XEvXSi+UMrzH0EjlNMMU1IdVxXM7G3OAP6R4
l5zEXsn6MecDRD+f1y1MWW98aQg4qRp8uiomOwrbTnAnejP4MCAltgtSnHkTb6ZL
MzwH9tWlW+u8BKCsxFZkZX3DstK+S0HbOYlmfzAmPp02V+jt3vAo0YEH0Xa/dlPH
0B0HhYT7ui0pckPOy3V9Ii+qGENeI5joH3E4qFkT7vVWfTsTKoy4TLQ1FIkikR4n
/7qYx6h/p9x63BSrCG/YD0nT4UA6ivT35MkfAv0zYp3z6b/YBXBl6eN+ZuKqtehg
lZvjmidDeCXJVSErvqBn42aJZX8vpyFj7jdbaMNLF77uQ6VJtkQezZdo2Z7IPPPO
Lk56hGtk0c/u5ObILdX8XrSKKCr+bxbD0ShXZdv6DO5HB5zsaTxTG7rygpCLCg+T
xtYQDInKI3jLMthO3YPS4Yory3PSOiel2tHGSpLY5hqOV6IHiNZ2N7r6CnrKDAs2
CeJM1wIDAQABo4IBazCCAWcwCQYDVR0TBAIwADAtBglghkgBhvhCAQ0EIBYeRWFz
eS1SU0EgR2VuZXJhdGVkIENlcnRpZmljYXRlMB0GA1UdDgQWBBQQFHFFH5/lNt1e
qPotbks4klFfHjCB6QYDVR0jBIHhMIHegBTvOI0UUFinW02cF3L837msp1GwEKGB
uqSBtzCBtDELMAkGA1UEBhMCVVMxCzAJBgNVBAgTAkNBMRUwEwYDVQQHEwxTYW5G
cmFuY2lzY28xFTATBgNVBAoTDFBpeGdsbywgSW5jLjEQMA4GA1UECxMHVlBOLUNJ
RTEaMBgGA1UEAxMRdHVubmVsLnBpeGdsby5jb20xHDAaBgNVBCkTE0JhbGEgQ2hh
bmRyYXNla2FyYW4xHjAcBgkqhkiG9w0BCQEWD2JhbGFAcGl4Z2xvLmNvbYIJAKbb
xoOA5qB5MBMGA1UdJQQMMAoGCCsGAQUFBwMCMAsGA1UdDwQEAwIHgDANBgkqhkiG
9w0BAQUFAAOCAgEAA+eyBfFIqhANyXm29e8FDBQZ36qMISpnyjDIICveauT1BZdO
UvEa8OfbS5fQqkxLCAdfT+OqZAZzF5iJoEAElw7BBFgPgVt/qjLlOCFOfF3DvaXw
Kfvs6+iQsqsU1fTFHO28iZSEz/Dstoar5RiOHrKSSTqIlzqCJHMO7aaf7er/UMxU
x5NCkq7hiPe1VCDGBRds22uSOOa1sLE8GZSMd6Z/Bh9Jsr8iYPOXBfW6ZXsFt2xp
MbLFtqk95qd3dKH65/coqhEaCKMKiBgIlYXcIK2RHvDrXn0vjBpOiveSLXP2F0ZM
9vE/bMzV0arDbdUJf2cIcH17waIsUSrdpqLzwqKJz/sJLBZE9OIfpHOhheVY3ziu
bTUhaSaDDMuxR5tUBOIauIvNMmLzqCElXVyknGUfzki5GxYiAZxV8VXjXSr4BtoL
chSlt8zWR6PKewNJeebo6F7KQ4eCriXQtChwbHzIye/6etC++/5gD6rtTC1AfFXe
OVvrGLKAlX4zUF8oUTJdUP3PQMdZeVAK8AUxYBKr9ILY2vjT5P3bGFJnXwSzMnRg
gVEbdDhSoLhkHnpmFQcwiAtc/1nU2yTegt3EfR7zxt+4/J77J7yEIU7VPQPVoKfj
/W9zAvxbPNLuOLXoj9KARY9B266KlVlcNK42lYirG3a7ecn43NBfQf6Y2BQ=
-----END CERTIFICATE-----
