Certificate:
    Data:
        Version: 3 (0x2)
        Serial Number: 931 (0x3a3)
    Signature Algorithm: sha1WithRSAEncryption
        Issuer: C=US, ST=CA, L=SanFrancisco, O=Pixglo, Inc., OU=VPN-CIE, CN=tunnel.pixglo.com/name=Bala Chandrasekaran/emailAddress=bala@pixglo.com
        Validity
            Not Before: Feb 14 06:48:24 2018 GMT
            Not After : Feb 12 06:48:24 2028 GMT
        Subject: C=US, ST=CA, L=SanFrancisco, O=Pixglo, Inc., OU=VPN-CIE, CN=cie930/name=Bala Chandrasekaran/emailAddress=bala@pixglo.com
        Subject Public Key Info:
            Public Key Algorithm: rsaEncryption
                Public-Key: (4096 bit)
                Modulus:
                    00:f4:f4:b5:12:92:88:3f:a9:af:d7:ed:8b:7f:e4:
                    ba:e3:71:4b:a0:25:e2:bd:59:41:45:24:df:09:a8:
                    0b:64:eb:90:5a:c8:91:65:08:ff:7a:b9:1e:08:18:
                    53:7c:6a:b6:ba:b4:77:25:78:2a:63:fc:12:46:2b:
                    6a:99:d1:33:f0:15:da:cd:2c:0b:55:d8:9d:ad:6a:
                    81:37:09:59:98:c0:1a:19:a1:e8:7e:5d:f5:dd:fd:
                    00:31:f3:c7:a0:53:11:0d:ec:14:7a:bf:a0:b2:ca:
                    24:bb:88:d1:31:d9:3b:c2:82:37:9c:eb:15:1a:16:
                    0c:21:28:92:67:5c:2f:3c:a1:82:06:6d:45:78:fd:
                    8d:1e:74:fd:f6:12:f4:c8:84:a9:00:4d:23:dc:fc:
                    f9:ba:a4:e7:9f:b6:b5:9b:a9:1c:d9:c5:15:a4:40:
                    67:9d:c2:8f:33:ff:8e:f2:a6:d1:e3:07:48:d2:6d:
                    f5:c8:a5:76:05:91:92:4f:5e:9f:4e:dc:65:2c:76:
                    01:f1:58:90:23:c8:cb:fd:52:8e:2d:14:19:a5:ae:
                    84:0e:4c:89:6c:0f:0a:67:d4:ed:2c:92:9f:75:0e:
                    de:99:c0:37:2b:39:73:7f:10:0c:42:c7:11:51:11:
                    56:91:53:95:34:99:3e:6a:b7:43:d8:c3:26:ca:4e:
                    9e:8b:45:d6:c8:12:f6:5f:a9:fc:af:bc:fa:69:cc:
                    09:c0:39:b7:df:08:2e:fe:bf:4d:6e:04:96:f0:ee:
                    5d:d2:98:d7:86:f8:21:89:1d:77:e3:3a:ef:b8:36:
                    05:f4:7c:9f:e8:e4:36:ac:93:20:51:b2:45:97:05:
                    5f:82:1d:a0:28:00:db:4a:a3:a1:9d:c9:54:c6:fd:
                    6b:cf:9f:7f:f2:4f:c4:1e:9d:ea:6d:9d:79:77:fc:
                    a7:b9:f6:62:7b:a3:ec:56:b7:3b:65:a3:b8:eb:d5:
                    0e:20:05:2c:71:da:2f:5b:99:a7:f3:72:a6:99:c6:
                    31:3f:9a:54:eb:b4:a6:a0:e7:09:22:1d:6d:ee:24:
                    59:37:7f:c1:67:b8:1a:c0:96:65:70:69:5f:ec:6a:
                    c9:2b:a6:51:a5:45:10:5c:da:e9:0e:3a:0f:57:4f:
                    81:2c:c2:a6:10:55:20:72:1a:c1:3b:85:72:c9:69:
                    d5:76:82:6b:d3:cb:bf:75:a3:28:8b:3b:be:ff:5b:
                    c8:cd:78:3d:73:60:5d:bf:6f:1c:b0:c4:1e:43:5c:
                    93:13:28:d6:a6:05:7a:57:7a:ce:dc:aa:7e:26:87:
                    0a:1d:81:81:9e:20:40:0b:b8:b8:6a:4d:32:94:e9:
                    f7:74:b4:2a:94:95:e7:6e:62:14:60:35:68:92:f2:
                    78:63:15
                Exponent: 65537 (0x10001)
        X509v3 extensions:
            X509v3 Basic Constraints: 
                CA:FALSE
            Netscape Comment: 
                Easy-RSA Generated Certificate
            X509v3 Subject Key Identifier: 
                20:F4:A3:27:88:9A:ED:58:D7:41:40:61:A5:5E:B5:EF:08:51:BD:AD
            X509v3 Authority Key Identifier: 
                keyid:EF:38:8D:14:50:58:A7:5B:4D:9C:17:72:FC:DF:B9:AC:A7:51:B0:10
                DirName:/C=US/ST=CA/L=SanFrancisco/O=Pixglo, Inc./OU=VPN-CIE/CN=tunnel.pixglo.com/name=Bala Chandrasekaran/emailAddress=bala@pixglo.com
                serial:A6:DB:C6:83:80:E6:A0:79

            X509v3 Extended Key Usage: 
                TLS Web Client Authentication
            X509v3 Key Usage: 
                Digital Signature
    Signature Algorithm: sha1WithRSAEncryption
         7d:65:53:83:1d:35:20:4e:7e:f3:b4:7d:a6:4f:97:15:51:e2:
         34:7a:68:d9:7c:35:33:30:ed:2c:bd:b5:34:33:c3:44:27:bf:
         92:cb:59:4b:66:87:a8:2e:64:0a:3a:12:6d:dd:29:49:1c:54:
         56:43:e4:e2:84:92:47:00:4c:56:cc:9d:a8:19:8c:de:49:17:
         5f:07:1f:72:df:e4:9a:7e:18:8c:95:43:b9:a8:32:45:f2:36:
         10:b5:4a:84:6a:51:75:1f:63:a4:c8:42:10:15:cc:a5:36:27:
         3c:3f:a4:e3:2e:2f:db:b1:bd:de:b6:93:ac:f7:b0:8c:91:70:
         56:7c:07:55:ca:68:49:75:cf:0b:84:95:ec:be:7c:eb:bf:f6:
         b2:3d:55:70:8e:15:05:03:fe:31:6a:9c:ef:a5:19:9f:e7:7a:
         12:08:48:87:1c:7f:d5:f5:db:1f:86:f7:ec:35:16:ec:11:b0:
         65:c5:50:42:5b:c0:41:f5:a6:a2:2b:a5:47:98:04:74:46:f7:
         24:17:a0:d1:2e:e1:17:7d:96:e9:f4:da:d5:fa:97:06:7e:f3:
         6e:92:94:5d:80:ea:d9:ad:bd:07:9f:eb:0b:f7:90:75:68:21:
         44:50:7e:c8:c2:a0:c8:36:d8:3f:25:7d:ad:f9:c1:5f:44:6e:
         3e:ae:2c:f5:5f:fb:b0:4a:c7:a1:41:86:62:ce:0b:41:63:58:
         2d:00:75:e5:ed:5d:f3:a3:79:6a:eb:6a:a4:72:1d:8a:e2:09:
         7b:a9:a0:2a:ca:34:6a:6a:98:1a:fa:2d:c5:d4:e2:c1:92:f7:
         ef:eb:4c:2a:8f:e8:f6:2b:a3:63:5b:6b:db:81:8c:e0:5c:6c:
         cf:c5:2f:ad:56:5b:cf:d4:30:bd:03:23:fb:68:58:f6:59:16:
         30:bd:b9:d8:13:60:b6:fc:27:bb:94:1a:8f:a6:db:eb:af:73:
         95:5c:09:eb:87:8b:6b:86:c9:b1:99:7f:68:f9:67:a7:bc:7d:
         cc:57:3b:1a:5f:5d:dc:4b:99:08:85:70:52:11:43:70:a0:0a:
         ea:37:02:3c:fc:f2:0d:1c:25:06:7b:f3:bb:57:6a:08:87:1c:
         f9:83:7c:b5:b7:28:d3:34:2a:78:9c:c6:eb:4a:51:03:21:42:
         59:3e:68:77:e3:5d:a1:64:f9:20:74:3d:61:b1:80:c4:41:38:
         01:f3:99:bd:99:9b:16:2b:bb:68:f8:25:42:04:2a:95:91:5e:
         27:e5:59:52:c1:cb:d3:0e:81:c2:e1:e4:82:b8:9f:58:0b:3a:
         bd:ad:43:93:8b:15:f4:63:e9:62:db:7c:e8:8c:aa:75:99:d8:
         ca:24:7d:24:22:06:ef:f9
-----BEGIN CERTIFICATE-----
MIIHSDCCBTCgAwIBAgICA6MwDQYJKoZIhvcNAQEFBQAwgbQxCzAJBgNVBAYTAlVT
MQswCQYDVQQIEwJDQTEVMBMGA1UEBxMMU2FuRnJhbmNpc2NvMRUwEwYDVQQKEwxQ
aXhnbG8sIEluYy4xEDAOBgNVBAsTB1ZQTi1DSUUxGjAYBgNVBAMTEXR1bm5lbC5w
aXhnbG8uY29tMRwwGgYDVQQpExNCYWxhIENoYW5kcmFzZWthcmFuMR4wHAYJKoZI
hvcNAQkBFg9iYWxhQHBpeGdsby5jb20wHhcNMTgwMjE0MDY0ODI0WhcNMjgwMjEy
MDY0ODI0WjCBqTELMAkGA1UEBhMCVVMxCzAJBgNVBAgTAkNBMRUwEwYDVQQHEwxT
YW5GcmFuY2lzY28xFTATBgNVBAoTDFBpeGdsbywgSW5jLjEQMA4GA1UECxMHVlBO
LUNJRTEPMA0GA1UEAxMGY2llOTMwMRwwGgYDVQQpExNCYWxhIENoYW5kcmFzZWth
cmFuMR4wHAYJKoZIhvcNAQkBFg9iYWxhQHBpeGdsby5jb20wggIiMA0GCSqGSIb3
DQEBAQUAA4ICDwAwggIKAoICAQD09LUSkog/qa/X7Yt/5LrjcUugJeK9WUFFJN8J
qAtk65BayJFlCP96uR4IGFN8ara6tHcleCpj/BJGK2qZ0TPwFdrNLAtV2J2taoE3
CVmYwBoZoeh+XfXd/QAx88egUxEN7BR6v6CyyiS7iNEx2TvCgjec6xUaFgwhKJJn
XC88oYIGbUV4/Y0edP32EvTIhKkATSPc/Pm6pOeftrWbqRzZxRWkQGedwo8z/47y
ptHjB0jSbfXIpXYFkZJPXp9O3GUsdgHxWJAjyMv9Uo4tFBmlroQOTIlsDwpn1O0s
kp91Dt6ZwDcrOXN/EAxCxxFREVaRU5U0mT5qt0PYwybKTp6LRdbIEvZfqfyvvPpp
zAnAObffCC7+v01uBJbw7l3SmNeG+CGJHXfjOu+4NgX0fJ/o5DaskyBRskWXBV+C
HaAoANtKo6GdyVTG/WvPn3/yT8QeneptnXl3/Ke59mJ7o+xWtztlo7jr1Q4gBSxx
2i9bmafzcqaZxjE/mlTrtKag5wkiHW3uJFk3f8FnuBrAlmVwaV/saskrplGlRRBc
2ukOOg9XT4EswqYQVSByGsE7hXLJadV2gmvTy791oyiLO77/W8jNeD1zYF2/bxyw
xB5DXJMTKNamBXpXes7cqn4mhwodgYGeIEALuLhqTTKU6fd0tCqUleduYhRgNWiS
8nhjFQIDAQABo4IBazCCAWcwCQYDVR0TBAIwADAtBglghkgBhvhCAQ0EIBYeRWFz
eS1SU0EgR2VuZXJhdGVkIENlcnRpZmljYXRlMB0GA1UdDgQWBBQg9KMniJrtWNdB
QGGlXrXvCFG9rTCB6QYDVR0jBIHhMIHegBTvOI0UUFinW02cF3L837msp1GwEKGB
uqSBtzCBtDELMAkGA1UEBhMCVVMxCzAJBgNVBAgTAkNBMRUwEwYDVQQHEwxTYW5G
cmFuY2lzY28xFTATBgNVBAoTDFBpeGdsbywgSW5jLjEQMA4GA1UECxMHVlBOLUNJ
RTEaMBgGA1UEAxMRdHVubmVsLnBpeGdsby5jb20xHDAaBgNVBCkTE0JhbGEgQ2hh
bmRyYXNla2FyYW4xHjAcBgkqhkiG9w0BCQEWD2JhbGFAcGl4Z2xvLmNvbYIJAKbb
xoOA5qB5MBMGA1UdJQQMMAoGCCsGAQUFBwMCMAsGA1UdDwQEAwIHgDANBgkqhkiG
9w0BAQUFAAOCAgEAfWVTgx01IE5+87R9pk+XFVHiNHpo2Xw1MzDtLL21NDPDRCe/
kstZS2aHqC5kCjoSbd0pSRxUVkPk4oSSRwBMVsydqBmM3kkXXwcfct/kmn4YjJVD
uagyRfI2ELVKhGpRdR9jpMhCEBXMpTYnPD+k4y4v27G93raTrPewjJFwVnwHVcpo
SXXPC4SV7L5867/2sj1VcI4VBQP+MWqc76UZn+d6EghIhxx/1fXbH4b37DUW7BGw
ZcVQQlvAQfWmoiulR5gEdEb3JBeg0S7hF32W6fTa1fqXBn7zbpKUXYDq2a29B5/r
C/eQdWghRFB+yMKgyDbYPyV9rfnBX0RuPq4s9V/7sErHoUGGYs4LQWNYLQB15e1d
86N5autqpHIdiuIJe6mgKso0amqYGvotxdTiwZL37+tMKo/o9iujY1tr24GM4Fxs
z8UvrVZbz9QwvQMj+2hY9lkWML252BNgtvwnu5Qaj6bb669zlVwJ64eLa4bJsZl/
aPlnp7x9zFc7Gl9d3EuZCIVwUhFDcKAK6jcCPPzyDRwlBnvzu1dqCIcc+YN8tbco
0zQqeJzG60pRAyFCWT5od+NdoWT5IHQ9YbGAxEE4AfOZvZmbFiu7aPglQgQqlZFe
J+VZUsHL0w6BwuHkgrifWAs6va1Dk4sV9GPpYtt86IyqdZnYyiR9JCIG7/k=
-----END CERTIFICATE-----
