Certificate:
    Data:
        Version: 3 (0x2)
        Serial Number: 969 (0x3c9)
    Signature Algorithm: sha1WithRSAEncryption
        Issuer: C=US, ST=CA, L=SanFrancisco, O=Pixglo, Inc., OU=VPN-CIE, CN=tunnel.pixglo.com/name=Bala Chandrasekaran/emailAddress=bala@pixglo.com
        Validity
            Not Before: Feb 14 06:49:36 2018 GMT
            Not After : Feb 12 06:49:36 2028 GMT
        Subject: C=US, ST=CA, L=SanFrancisco, O=Pixglo, Inc., OU=VPN-CIE, CN=cie968/name=Bala Chandrasekaran/emailAddress=bala@pixglo.com
        Subject Public Key Info:
            Public Key Algorithm: rsaEncryption
                Public-Key: (4096 bit)
                Modulus:
                    00:ab:6d:38:40:d1:2d:62:47:c0:70:e8:79:9c:96:
                    61:5e:61:11:4d:6a:7b:f8:6e:91:a7:7a:eb:71:11:
                    33:3c:e5:f9:ca:d1:7d:f8:1f:f1:25:e0:06:03:88:
                    06:54:66:57:07:9b:a3:00:30:bd:af:9a:14:e2:af:
                    10:f3:6a:16:fa:1b:6e:16:40:99:84:13:bc:97:8a:
                    66:56:48:9b:6a:a7:27:43:21:b9:b9:db:2c:cd:4d:
                    bc:bb:7a:27:64:ce:ee:9f:86:20:c2:95:47:bc:06:
                    03:91:29:04:df:39:29:9d:6d:f9:48:74:f9:7b:33:
                    e2:76:f1:3e:af:e7:5c:78:8e:0b:e8:d4:d5:11:73:
                    cf:3c:1b:fd:92:35:4f:9c:be:ea:d4:82:2e:f3:d5:
                    55:60:8b:34:9d:c9:64:7b:f2:2b:53:0c:cc:86:2d:
                    3c:3a:ab:30:fa:2c:2f:86:44:85:cb:4d:61:21:7e:
                    d6:b4:37:d2:19:c3:a8:d3:a4:29:18:a6:10:1c:23:
                    06:8b:70:51:c4:60:ec:e3:f2:05:37:ff:d2:2a:55:
                    11:fb:c0:12:bd:1e:6f:a8:73:9b:0a:48:68:7f:81:
                    af:87:76:4d:54:0e:8b:8b:87:d7:f0:13:c6:5b:09:
                    07:28:85:db:27:77:29:8c:0d:d2:65:1f:da:a5:a1:
                    a2:bb:27:a9:bd:dc:5d:e9:44:08:96:bd:c5:52:c0:
                    29:39:be:ad:45:00:d9:61:cc:19:57:2e:f3:cc:95:
                    7f:df:15:8e:c5:c9:5d:fe:a4:86:36:11:50:7b:49:
                    c2:9b:94:7d:53:4a:c3:9b:4d:35:6d:f0:0e:52:ae:
                    75:89:37:9e:60:00:b7:32:be:c5:4a:a4:c8:0f:0f:
                    62:10:27:01:68:77:79:8a:09:df:2f:e0:52:ea:3f:
                    a0:4e:47:3e:23:67:2d:e4:4e:b5:29:b8:b3:2e:f2:
                    6c:73:aa:33:0b:71:74:f0:9d:b9:b3:57:bf:e7:d9:
                    1e:7a:a2:4a:96:d5:84:d2:7a:24:97:81:4f:83:f6:
                    4f:64:72:5f:87:79:04:4a:b8:94:81:0c:1f:39:36:
                    5a:ad:ca:7d:2c:2d:0a:27:19:49:9c:a6:9b:01:ac:
                    cc:e2:3e:c4:0b:d4:cc:ef:63:f5:a7:0c:ce:48:85:
                    cb:46:a5:84:f3:ca:7d:d8:94:48:c9:ea:a9:54:cc:
                    68:0c:e7:13:dd:f1:c7:5b:08:53:f2:0f:b7:72:cf:
                    8d:70:45:d3:eb:2c:0c:6b:5d:3f:96:c7:b2:94:2c:
                    f3:52:8f:9d:17:9b:4a:3b:cb:ca:df:87:c2:2f:98:
                    c9:5e:b2:bb:4d:b5:c0:54:c2:a8:9a:51:83:bd:7e:
                    1f:4f:1f
                Exponent: 65537 (0x10001)
        X509v3 extensions:
            X509v3 Basic Constraints: 
                CA:FALSE
            Netscape Comment: 
                Easy-RSA Generated Certificate
            X509v3 Subject Key Identifier: 
                5B:FD:F8:AA:3B:D8:66:6D:05:D7:A2:50:BF:A3:AF:78:FB:1E:FD:AB
            X509v3 Authority Key Identifier: 
                keyid:EF:38:8D:14:50:58:A7:5B:4D:9C:17:72:FC:DF:B9:AC:A7:51:B0:10
                DirName:/C=US/ST=CA/L=SanFrancisco/O=Pixglo, Inc./OU=VPN-CIE/CN=tunnel.pixglo.com/name=Bala Chandrasekaran/emailAddress=bala@pixglo.com
                serial:A6:DB:C6:83:80:E6:A0:79

            X509v3 Extended Key Usage: 
                TLS Web Client Authentication
            X509v3 Key Usage: 
                Digital Signature
    Signature Algorithm: sha1WithRSAEncryption
         d4:0e:d2:b0:c4:03:88:0a:f5:7f:f8:39:28:6b:55:bc:ff:e1:
         5e:2e:67:85:42:b0:c3:dc:63:6c:eb:ed:ad:64:61:4c:18:3a:
         b8:89:7a:e1:15:55:2f:04:25:8b:eb:30:66:9b:c2:43:d2:bd:
         7e:56:4b:e2:6e:c1:03:05:21:b9:44:83:09:3e:2e:39:4d:72:
         8b:8b:9a:6e:17:04:f4:c9:b7:19:cb:d7:a8:ea:ac:e9:a2:ce:
         9e:37:b0:bd:9a:89:29:3b:5b:a7:95:42:66:02:a3:ba:48:17:
         37:a1:9b:c6:d4:39:72:1f:3c:ec:5c:ef:61:c9:f1:58:78:6a:
         a3:c6:07:78:b7:cc:86:ac:94:a5:94:a8:c0:68:2a:53:08:df:
         9d:8f:db:6a:2a:20:83:c3:a9:29:ac:34:21:09:95:b5:5f:7a:
         e9:eb:dd:c1:b8:13:01:b4:48:db:3f:46:5e:33:7e:4a:d7:53:
         e4:24:e5:17:03:a1:07:8c:92:64:4c:d6:03:c1:78:6e:0a:aa:
         86:4d:b1:90:4d:03:83:15:81:78:0d:bf:c1:12:70:d1:33:cf:
         c7:81:a6:90:5f:ab:94:85:3e:c9:9b:87:8f:04:2c:63:f5:cd:
         b9:01:d0:e2:c3:36:5c:11:15:10:e0:10:c9:17:91:5c:c7:f2:
         6a:a2:c2:2f:43:14:8d:53:8d:ee:3f:48:64:b0:f2:c2:e1:f1:
         86:d3:56:12:14:32:44:d7:4b:4a:79:4c:ad:1a:96:bd:b3:8b:
         f1:4d:19:39:7d:42:0d:46:df:41:29:5a:1f:1c:fb:6d:0b:46:
         d2:c6:72:b2:39:f1:0c:ec:35:33:a3:6e:4f:b8:cb:b6:fe:a2:
         ba:df:ae:55:b9:24:41:ca:f6:1d:ed:27:27:4b:3e:01:c1:83:
         d1:c2:b1:12:97:24:ad:6e:ad:29:17:46:f1:1a:30:30:46:4f:
         64:ea:ca:58:22:13:4d:c5:99:02:70:21:a0:d8:c1:7c:d9:58:
         3f:07:0a:e5:d3:f9:89:22:e6:13:2f:7d:00:7b:83:11:9d:15:
         24:94:82:b3:ec:a2:f9:66:b3:6d:05:fb:60:46:c6:39:cf:23:
         6d:41:51:99:34:71:30:54:73:f6:7f:52:81:10:16:86:0b:69:
         cf:b5:f4:b8:92:fd:ce:8b:06:f0:77:19:90:1f:93:26:20:91:
         1a:8f:b7:db:d8:36:d1:26:c1:09:4a:21:9d:86:ae:4f:55:8b:
         f3:b2:03:0d:99:88:53:a5:f9:e9:ee:80:7b:cf:17:04:a7:d3:
         29:7c:94:d9:79:e6:90:3a:ee:fd:9e:1b:d7:e5:88:67:a2:12:
         cf:a0:78:bb:60:34:0a:4a
-----BEGIN CERTIFICATE-----
MIIHSDCCBTCgAwIBAgICA8kwDQYJKoZIhvcNAQEFBQAwgbQxCzAJBgNVBAYTAlVT
MQswCQYDVQQIEwJDQTEVMBMGA1UEBxMMU2FuRnJhbmNpc2NvMRUwEwYDVQQKEwxQ
aXhnbG8sIEluYy4xEDAOBgNVBAsTB1ZQTi1DSUUxGjAYBgNVBAMTEXR1bm5lbC5w
aXhnbG8uY29tMRwwGgYDVQQpExNCYWxhIENoYW5kcmFzZWthcmFuMR4wHAYJKoZI
hvcNAQkBFg9iYWxhQHBpeGdsby5jb20wHhcNMTgwMjE0MDY0OTM2WhcNMjgwMjEy
MDY0OTM2WjCBqTELMAkGA1UEBhMCVVMxCzAJBgNVBAgTAkNBMRUwEwYDVQQHEwxT
YW5GcmFuY2lzY28xFTATBgNVBAoTDFBpeGdsbywgSW5jLjEQMA4GA1UECxMHVlBO
LUNJRTEPMA0GA1UEAxMGY2llOTY4MRwwGgYDVQQpExNCYWxhIENoYW5kcmFzZWth
cmFuMR4wHAYJKoZIhvcNAQkBFg9iYWxhQHBpeGdsby5jb20wggIiMA0GCSqGSIb3
DQEBAQUAA4ICDwAwggIKAoICAQCrbThA0S1iR8Bw6HmclmFeYRFNanv4bpGneutx
ETM85fnK0X34H/El4AYDiAZUZlcHm6MAML2vmhTirxDzahb6G24WQJmEE7yXimZW
SJtqpydDIbm52yzNTby7eidkzu6fhiDClUe8BgORKQTfOSmdbflIdPl7M+J28T6v
51x4jgvo1NURc888G/2SNU+cvurUgi7z1VVgizSdyWR78itTDMyGLTw6qzD6LC+G
RIXLTWEhfta0N9IZw6jTpCkYphAcIwaLcFHEYOzj8gU3/9IqVRH7wBK9Hm+oc5sK
SGh/ga+Hdk1UDouLh9fwE8ZbCQcohdsndymMDdJlH9qloaK7J6m93F3pRAiWvcVS
wCk5vq1FANlhzBlXLvPMlX/fFY7FyV3+pIY2EVB7ScKblH1TSsObTTVt8A5SrnWJ
N55gALcyvsVKpMgPD2IQJwFod3mKCd8v4FLqP6BORz4jZy3kTrUpuLMu8mxzqjML
cXTwnbmzV7/n2R56okqW1YTSeiSXgU+D9k9kcl+HeQRKuJSBDB85Nlqtyn0sLQon
GUmcppsBrMziPsQL1MzvY/WnDM5IhctGpYTzyn3YlEjJ6qlUzGgM5xPd8cdbCFPy
D7dyz41wRdPrLAxrXT+Wx7KULPNSj50Xm0o7y8rfh8IvmMlesrtNtcBUwqiaUYO9
fh9PHwIDAQABo4IBazCCAWcwCQYDVR0TBAIwADAtBglghkgBhvhCAQ0EIBYeRWFz
eS1SU0EgR2VuZXJhdGVkIENlcnRpZmljYXRlMB0GA1UdDgQWBBRb/fiqO9hmbQXX
olC/o694+x79qzCB6QYDVR0jBIHhMIHegBTvOI0UUFinW02cF3L837msp1GwEKGB
uqSBtzCBtDELMAkGA1UEBhMCVVMxCzAJBgNVBAgTAkNBMRUwEwYDVQQHEwxTYW5G
cmFuY2lzY28xFTATBgNVBAoTDFBpeGdsbywgSW5jLjEQMA4GA1UECxMHVlBOLUNJ
RTEaMBgGA1UEAxMRdHVubmVsLnBpeGdsby5jb20xHDAaBgNVBCkTE0JhbGEgQ2hh
bmRyYXNla2FyYW4xHjAcBgkqhkiG9w0BCQEWD2JhbGFAcGl4Z2xvLmNvbYIJAKbb
xoOA5qB5MBMGA1UdJQQMMAoGCCsGAQUFBwMCMAsGA1UdDwQEAwIHgDANBgkqhkiG
9w0BAQUFAAOCAgEA1A7SsMQDiAr1f/g5KGtVvP/hXi5nhUKww9xjbOvtrWRhTBg6
uIl64RVVLwQli+swZpvCQ9K9flZL4m7BAwUhuUSDCT4uOU1yi4uabhcE9Mm3GcvX
qOqs6aLOnjewvZqJKTtbp5VCZgKjukgXN6GbxtQ5ch887FzvYcnxWHhqo8YHeLfM
hqyUpZSowGgqUwjfnY/baiogg8OpKaw0IQmVtV966evdwbgTAbRI2z9GXjN+StdT
5CTlFwOhB4ySZEzWA8F4bgqqhk2xkE0DgxWBeA2/wRJw0TPPx4GmkF+rlIU+yZuH
jwQsY/XNuQHQ4sM2XBEVEOAQyReRXMfyaqLCL0MUjVON7j9IZLDywuHxhtNWEhQy
RNdLSnlMrRqWvbOL8U0ZOX1CDUbfQSlaHxz7bQtG0sZysjnxDOw1M6NuT7jLtv6i
ut+uVbkkQcr2He0nJ0s+AcGD0cKxEpckrW6tKRdG8RowMEZPZOrKWCITTcWZAnAh
oNjBfNlYPwcK5dP5iSLmEy99AHuDEZ0VJJSCs+yi+WazbQX7YEbGOc8jbUFRmTRx
MFRz9n9SgRAWhgtpz7X0uJL9zosG8HcZkB+TJiCRGo+329g20SbBCUohnYauT1WL
87IDDZmIU6X56e6Ae88XBKfTKXyU2XnmkDru/Z4b1+WIZ6ISz6B4u2A0Cko=
-----END CERTIFICATE-----
