Certificate:
    Data:
        Version: 3 (0x2)
        Serial Number: 947 (0x3b3)
    Signature Algorithm: sha1WithRSAEncryption
        Issuer: C=US, ST=CA, L=SanFrancisco, O=Pixglo, Inc., OU=VPN-CIE, CN=tunnel.pixglo.com/name=Bala Chandrasekaran/emailAddress=bala@pixglo.com
        Validity
            Not Before: Feb 14 06:48:55 2018 GMT
            Not After : Feb 12 06:48:55 2028 GMT
        Subject: C=US, ST=CA, L=SanFrancisco, O=Pixglo, Inc., OU=VPN-CIE, CN=cie946/name=Bala Chandrasekaran/emailAddress=bala@pixglo.com
        Subject Public Key Info:
            Public Key Algorithm: rsaEncryption
                Public-Key: (4096 bit)
                Modulus:
                    00:ad:f5:55:29:48:ce:0c:0c:e6:9b:bd:70:e4:63:
                    e7:b6:fd:e2:39:73:e5:82:60:bf:0b:ae:be:0c:8e:
                    8d:0f:24:32:c1:c2:02:24:03:58:04:5b:71:c5:01:
                    8c:0c:b9:d3:5f:0c:26:14:c8:8e:52:92:71:91:33:
                    11:14:5f:e2:d9:7b:76:36:ea:1f:39:ca:e8:df:81:
                    ed:5e:cc:21:73:4c:55:32:71:b3:b0:fd:d2:00:ca:
                    ac:88:ef:9a:5e:74:f0:a4:22:46:71:80:f3:e5:ec:
                    4f:6c:11:d9:56:cd:24:36:98:83:3b:1f:d1:3e:2a:
                    f5:ad:e7:73:d9:c7:1a:c7:d9:da:e9:97:2f:b2:da:
                    ea:f5:ce:af:be:b3:d7:d4:e4:e8:ac:e5:50:6f:70:
                    8c:73:76:50:07:c1:74:d7:c5:03:63:e4:ca:d0:20:
                    ca:11:19:13:1c:88:c8:c5:de:37:1a:2e:cb:39:03:
                    03:e8:41:aa:ec:ec:52:11:cd:c1:71:94:b2:0e:65:
                    a6:ad:a3:03:9f:a8:13:dd:9a:f5:b4:b4:ce:9c:4e:
                    97:8f:1b:73:da:be:82:86:d0:5a:d1:60:75:63:f8:
                    f0:0f:99:e8:c4:b2:81:c9:87:4c:05:6b:78:94:cd:
                    bb:08:07:49:73:df:2f:48:31:d5:31:ec:44:eb:f5:
                    5a:15:91:08:9c:4c:79:a7:d6:51:57:30:29:a9:8d:
                    58:e4:73:da:1a:fb:65:a8:fc:2c:17:bb:1c:79:2c:
                    a4:d1:ec:d7:5e:85:d1:05:4e:97:a1:6b:8e:98:3f:
                    af:5e:c0:e4:6d:75:e2:b6:85:1f:63:0c:e3:df:b4:
                    bd:84:3b:1e:90:53:98:bb:46:dd:a5:f3:4a:86:52:
                    03:56:ef:f2:79:6e:5e:b1:06:60:45:e4:c8:b8:74:
                    05:c1:56:dd:18:e0:41:3b:aa:35:3d:f4:f8:35:64:
                    ee:e9:b0:40:a0:0f:cf:76:c8:5e:7c:a3:13:26:74:
                    85:91:d7:11:83:7a:8a:b7:4d:69:dc:e7:da:ca:36:
                    26:1d:79:aa:58:cd:e6:31:e7:17:9a:98:44:8f:16:
                    47:0a:c5:d7:e6:e8:f2:dc:9f:c5:13:20:7e:5b:71:
                    29:27:06:b4:e5:a9:86:c3:ce:b2:c8:92:9c:bd:d8:
                    d9:40:17:91:10:b4:98:70:db:59:d3:d4:2c:05:bb:
                    63:fb:6a:98:2e:c0:71:f6:e5:54:09:8d:c1:50:71:
                    f9:39:11:38:a1:54:23:a8:3d:89:61:d1:f5:30:3f:
                    b6:5c:03:51:eb:c7:77:92:26:03:d1:6a:52:99:dc:
                    2e:a8:41:be:90:2e:01:33:45:14:49:5b:9e:22:8f:
                    13:37:25
                Exponent: 65537 (0x10001)
        X509v3 extensions:
            X509v3 Basic Constraints: 
                CA:FALSE
            Netscape Comment: 
                Easy-RSA Generated Certificate
            X509v3 Subject Key Identifier: 
                0E:77:1B:A3:E0:FB:49:EA:CD:01:A3:16:BC:A6:60:DA:EC:9D:52:ED
            X509v3 Authority Key Identifier: 
                keyid:EF:38:8D:14:50:58:A7:5B:4D:9C:17:72:FC:DF:B9:AC:A7:51:B0:10
                DirName:/C=US/ST=CA/L=SanFrancisco/O=Pixglo, Inc./OU=VPN-CIE/CN=tunnel.pixglo.com/name=Bala Chandrasekaran/emailAddress=bala@pixglo.com
                serial:A6:DB:C6:83:80:E6:A0:79

            X509v3 Extended Key Usage: 
                TLS Web Client Authentication
            X509v3 Key Usage: 
                Digital Signature
    Signature Algorithm: sha1WithRSAEncryption
         24:6f:05:f7:00:45:96:7d:e8:ee:87:04:91:c0:aa:db:6a:b2:
         50:41:25:7f:e3:60:38:ed:3c:77:4a:08:4d:14:75:04:ad:78:
         00:86:09:45:05:76:09:bb:f0:d2:b0:40:c2:24:45:f9:79:b3:
         df:a5:91:9c:da:75:7a:45:2f:ac:ab:12:c9:80:68:20:6a:53:
         86:4d:4c:5a:74:d8:ce:54:26:f7:7f:bf:40:1c:10:4a:21:e3:
         89:03:d6:a6:fe:52:ca:93:06:62:70:68:a4:10:f8:2a:af:78:
         0d:eb:b5:f2:89:ed:ae:66:7c:2b:55:7b:c0:44:bb:61:71:88:
         de:d3:bd:ee:f9:e9:4e:7c:eb:e0:66:24:2c:c3:23:02:a8:72:
         54:5a:93:20:f9:2c:71:7a:66:b5:8d:9a:b9:7e:b1:2c:7f:d0:
         8a:38:9e:1a:7b:05:34:2c:55:00:07:79:f7:1a:5b:96:93:db:
         ad:6e:47:7e:6e:25:27:5a:ea:64:9c:51:93:96:fa:d3:10:76:
         40:50:6b:e1:8c:e3:40:a3:6d:47:f8:65:0c:7a:12:ca:33:de:
         5c:ce:99:fd:f2:ae:92:29:6d:1e:e8:82:7c:1e:41:b7:c3:5e:
         ad:bd:3f:76:43:29:69:69:00:eb:39:91:0a:74:5b:0c:43:f0:
         76:52:ba:28:56:1d:8c:43:2e:cb:ee:99:27:78:8d:9b:4d:ce:
         31:7c:d9:69:6a:18:09:06:51:ba:38:1a:e8:f2:58:1c:99:68:
         be:d7:08:f6:0d:67:75:10:81:77:4c:60:b9:83:7f:3e:ff:e2:
         bf:96:32:3a:50:d0:68:72:62:d6:f0:20:a8:94:1d:e7:bb:6e:
         b0:f0:fa:7b:b7:36:07:53:8b:c5:a2:f8:8c:58:72:fa:b8:08:
         9d:66:51:8f:74:8e:5c:e8:4e:74:fa:70:af:40:71:de:0c:74:
         24:ca:ad:83:c2:4c:41:a4:3c:8d:04:91:bf:2e:12:4b:08:93:
         d6:70:3b:9b:a4:8f:b2:66:41:e2:44:51:26:8c:6a:24:fc:3c:
         4e:a2:5b:3b:b1:4e:46:87:04:9c:21:e6:c3:cb:98:96:16:e5:
         fb:90:3d:6a:ee:74:b5:dc:48:1d:a8:d8:f0:4b:b9:40:4e:87:
         04:91:4d:c3:dd:27:d5:d1:18:d3:13:5d:29:43:3b:1e:41:03:
         19:7f:c9:56:ac:51:d2:84:28:28:4b:01:3b:51:d8:20:fb:62:
         8b:06:61:17:d2:22:a6:33:60:22:a1:9a:3f:6c:40:f0:1b:d3:
         98:64:f4:a4:b2:cb:a9:bb:90:d1:b6:e1:b3:c5:a7:15:ba:00:
         05:27:7e:2b:1e:c5:d8:86
-----BEGIN CERTIFICATE-----
MIIHSDCCBTCgAwIBAgICA7MwDQYJKoZIhvcNAQEFBQAwgbQxCzAJBgNVBAYTAlVT
MQswCQYDVQQIEwJDQTEVMBMGA1UEBxMMU2FuRnJhbmNpc2NvMRUwEwYDVQQKEwxQ
aXhnbG8sIEluYy4xEDAOBgNVBAsTB1ZQTi1DSUUxGjAYBgNVBAMTEXR1bm5lbC5w
aXhnbG8uY29tMRwwGgYDVQQpExNCYWxhIENoYW5kcmFzZWthcmFuMR4wHAYJKoZI
hvcNAQkBFg9iYWxhQHBpeGdsby5jb20wHhcNMTgwMjE0MDY0ODU1WhcNMjgwMjEy
MDY0ODU1WjCBqTELMAkGA1UEBhMCVVMxCzAJBgNVBAgTAkNBMRUwEwYDVQQHEwxT
YW5GcmFuY2lzY28xFTATBgNVBAoTDFBpeGdsbywgSW5jLjEQMA4GA1UECxMHVlBO
LUNJRTEPMA0GA1UEAxMGY2llOTQ2MRwwGgYDVQQpExNCYWxhIENoYW5kcmFzZWth
cmFuMR4wHAYJKoZIhvcNAQkBFg9iYWxhQHBpeGdsby5jb20wggIiMA0GCSqGSIb3
DQEBAQUAA4ICDwAwggIKAoICAQCt9VUpSM4MDOabvXDkY+e2/eI5c+WCYL8Lrr4M
jo0PJDLBwgIkA1gEW3HFAYwMudNfDCYUyI5SknGRMxEUX+LZe3Y26h85yujfge1e
zCFzTFUycbOw/dIAyqyI75pedPCkIkZxgPPl7E9sEdlWzSQ2mIM7H9E+KvWt53PZ
xxrH2drply+y2ur1zq++s9fU5Ois5VBvcIxzdlAHwXTXxQNj5MrQIMoRGRMciMjF
3jcaLss5AwPoQars7FIRzcFxlLIOZaatowOfqBPdmvW0tM6cTpePG3PavoKG0FrR
YHVj+PAPmejEsoHJh0wFa3iUzbsIB0lz3y9IMdUx7ETr9VoVkQicTHmn1lFXMCmp
jVjkc9oa+2Wo/CwXuxx5LKTR7NdehdEFTpeha46YP69ewORtdeK2hR9jDOPftL2E
Ox6QU5i7Rt2l80qGUgNW7/J5bl6xBmBF5Mi4dAXBVt0Y4EE7qjU99Pg1ZO7psECg
D892yF58oxMmdIWR1xGDeoq3TWnc59rKNiYdeapYzeYx5xeamESPFkcKxdfm6PLc
n8UTIH5bcSknBrTlqYbDzrLIkpy92NlAF5EQtJhw21nT1CwFu2P7apguwHH25VQJ
jcFQcfk5ETihVCOoPYlh0fUwP7ZcA1Hrx3eSJgPRalKZ3C6oQb6QLgEzRRRJW54i
jxM3JQIDAQABo4IBazCCAWcwCQYDVR0TBAIwADAtBglghkgBhvhCAQ0EIBYeRWFz
eS1SU0EgR2VuZXJhdGVkIENlcnRpZmljYXRlMB0GA1UdDgQWBBQOdxuj4PtJ6s0B
oxa8pmDa7J1S7TCB6QYDVR0jBIHhMIHegBTvOI0UUFinW02cF3L837msp1GwEKGB
uqSBtzCBtDELMAkGA1UEBhMCVVMxCzAJBgNVBAgTAkNBMRUwEwYDVQQHEwxTYW5G
cmFuY2lzY28xFTATBgNVBAoTDFBpeGdsbywgSW5jLjEQMA4GA1UECxMHVlBOLUNJ
RTEaMBgGA1UEAxMRdHVubmVsLnBpeGdsby5jb20xHDAaBgNVBCkTE0JhbGEgQ2hh
bmRyYXNla2FyYW4xHjAcBgkqhkiG9w0BCQEWD2JhbGFAcGl4Z2xvLmNvbYIJAKbb
xoOA5qB5MBMGA1UdJQQMMAoGCCsGAQUFBwMCMAsGA1UdDwQEAwIHgDANBgkqhkiG
9w0BAQUFAAOCAgEAJG8F9wBFln3o7ocEkcCq22qyUEElf+NgOO08d0oITRR1BK14
AIYJRQV2Cbvw0rBAwiRF+Xmz36WRnNp1ekUvrKsSyYBoIGpThk1MWnTYzlQm93+/
QBwQSiHjiQPWpv5SypMGYnBopBD4Kq94Deu18ontrmZ8K1V7wES7YXGI3tO97vnp
Tnzr4GYkLMMjAqhyVFqTIPkscXpmtY2auX6xLH/QijieGnsFNCxVAAd59xpblpPb
rW5Hfm4lJ1rqZJxRk5b60xB2QFBr4YzjQKNtR/hlDHoSyjPeXM6Z/fKukiltHuiC
fB5Bt8Nerb0/dkMpaWkA6zmRCnRbDEPwdlK6KFYdjEMuy+6ZJ3iNm03OMXzZaWoY
CQZRujga6PJYHJlovtcI9g1ndRCBd0xguYN/Pv/iv5YyOlDQaHJi1vAgqJQd57tu
sPD6e7c2B1OLxaL4jFhy+rgInWZRj3SOXOhOdPpwr0Bx3gx0JMqtg8JMQaQ8jQSR
vy4SSwiT1nA7m6SPsmZB4kRRJoxqJPw8TqJbO7FORocEnCHmw8uYlhbl+5A9au50
tdxIHajY8Eu5QE6HBJFNw90n1dEY0xNdKUM7HkEDGX/JVqxR0oQoKEsBO1HYIPti
iwZhF9IipjNgIqGaP2xA8BvTmGT0pLLLqbuQ0bbhs8WnFboABSd+Kx7F2IY=
-----END CERTIFICATE-----
