Certificate:
    Data:
        Version: 3 (0x2)
        Serial Number: 977 (0x3d1)
    Signature Algorithm: sha1WithRSAEncryption
        Issuer: C=US, ST=CA, L=SanFrancisco, O=Pixglo, Inc., OU=VPN-CIE, CN=tunnel.pixglo.com/name=Bala Chandrasekaran/emailAddress=bala@pixglo.com
        Validity
            Not Before: Feb 14 06:49:49 2018 GMT
            Not After : Feb 12 06:49:49 2028 GMT
        Subject: C=US, ST=CA, L=SanFrancisco, O=Pixglo, Inc., OU=VPN-CIE, CN=cie976/name=Bala Chandrasekaran/emailAddress=bala@pixglo.com
        Subject Public Key Info:
            Public Key Algorithm: rsaEncryption
                Public-Key: (4096 bit)
                Modulus:
                    00:c2:1e:7f:f9:31:03:8c:df:42:85:e4:fa:98:1b:
                    d7:bd:58:6a:7b:90:78:89:09:fe:81:cd:9d:95:77:
                    f2:cd:52:9f:ac:c3:6e:75:0a:dd:ab:df:86:64:7b:
                    86:b5:0f:22:7d:28:1a:51:4b:28:e1:50:0d:43:a9:
                    44:d0:94:21:ba:84:2a:da:be:4d:c5:63:9c:1c:13:
                    e9:e2:98:fe:4b:ba:de:4c:d8:c2:32:58:fb:2e:00:
                    c3:50:42:5b:e2:23:bf:b6:de:50:de:4a:56:86:a4:
                    cc:0f:10:ee:8d:7b:d1:b8:6d:9c:44:1e:25:11:19:
                    15:42:67:95:b6:ca:0f:55:c5:04:d2:24:e0:51:16:
                    d1:ec:a9:bc:b5:98:3f:b7:b3:62:9a:34:20:1e:44:
                    95:ee:27:68:b3:7a:56:f0:e4:5c:b8:d1:6d:d2:88:
                    51:18:f0:86:09:03:72:6f:e0:88:37:85:0b:ec:81:
                    9c:57:bd:83:b3:d7:27:e3:f7:6e:ce:a4:5e:5f:e7:
                    7c:ec:24:bd:35:d3:d9:e7:27:90:21:a2:47:bc:d1:
                    7b:3f:98:86:f5:71:de:28:b0:35:9b:01:26:79:9b:
                    a1:d0:3a:ac:66:78:46:f9:d9:5c:e0:87:a5:94:0e:
                    a0:0b:e1:2e:25:dc:ac:89:69:f0:9b:42:5d:2b:4c:
                    10:ad:c3:00:39:2b:f2:57:67:0c:8c:00:7d:68:13:
                    89:29:e9:1a:ab:85:0d:30:32:16:c9:ef:2d:c9:d9:
                    8e:47:6a:9b:89:ea:16:f2:da:c2:43:1f:a7:16:56:
                    3d:78:37:48:a5:ce:e3:6f:12:9d:2b:c9:55:6f:f6:
                    08:60:46:7e:f0:18:56:16:19:41:15:61:dd:a7:cf:
                    39:84:d8:33:05:04:f4:4c:bb:21:bc:74:a0:e8:0b:
                    27:cb:a5:f6:b1:d3:50:44:ad:5f:cb:8b:75:fc:82:
                    72:4f:81:34:a4:f4:92:48:60:5b:4b:7c:54:f2:13:
                    00:f2:67:c2:3c:83:3b:71:09:6a:91:5e:46:43:62:
                    7f:40:20:9a:ca:e3:31:a5:19:ae:dd:af:db:e6:52:
                    d9:10:fe:38:2c:31:6b:d3:db:31:58:8b:67:5f:42:
                    17:07:5f:4b:fc:5c:90:71:60:8f:5b:18:c3:cd:ac:
                    26:00:b9:92:a6:a4:d4:64:d7:f0:76:f8:b2:98:01:
                    aa:c4:2d:70:fc:16:79:3f:1b:cc:72:9c:ca:8a:4a:
                    23:19:a6:da:17:cc:ef:6a:c4:67:6a:bc:92:43:5c:
                    7b:0b:04:35:ec:51:cc:6b:a3:6e:54:bb:06:ab:91:
                    e9:45:d2:62:e2:d1:51:34:80:42:01:09:8d:44:15:
                    e0:fe:03
                Exponent: 65537 (0x10001)
        X509v3 extensions:
            X509v3 Basic Constraints: 
                CA:FALSE
            Netscape Comment: 
                Easy-RSA Generated Certificate
            X509v3 Subject Key Identifier: 
                FA:FC:92:32:24:2C:39:A6:0B:0F:66:97:AC:C2:D8:BC:9B:F6:B3:D8
            X509v3 Authority Key Identifier: 
                keyid:EF:38:8D:14:50:58:A7:5B:4D:9C:17:72:FC:DF:B9:AC:A7:51:B0:10
                DirName:/C=US/ST=CA/L=SanFrancisco/O=Pixglo, Inc./OU=VPN-CIE/CN=tunnel.pixglo.com/name=Bala Chandrasekaran/emailAddress=bala@pixglo.com
                serial:A6:DB:C6:83:80:E6:A0:79

            X509v3 Extended Key Usage: 
                TLS Web Client Authentication
            X509v3 Key Usage: 
                Digital Signature
    Signature Algorithm: sha1WithRSAEncryption
         67:ab:eb:fb:ca:7e:8d:81:44:a1:41:6b:11:40:4f:b5:d9:42:
         29:1c:d3:95:08:cd:2f:02:ab:dc:6b:9d:20:06:64:24:67:10:
         dd:92:3b:83:2d:21:04:8b:bc:f0:dd:c0:5f:46:85:2f:c6:e3:
         19:fa:9b:02:a6:40:e4:38:8f:33:9a:ea:85:f2:d8:1f:cb:3e:
         a7:1e:9c:df:73:50:ae:23:84:d3:c8:72:ec:3a:da:af:3a:79:
         e1:0e:d4:19:61:fe:b1:b1:bf:2c:4b:31:7f:e6:71:8d:2f:61:
         f3:0a:d9:ac:96:73:a9:9d:98:3b:80:d7:b4:d0:a7:70:38:0b:
         64:65:3a:06:15:3a:8d:1f:ce:0c:87:8a:48:bd:a2:65:96:d5:
         9c:07:90:15:0c:2d:72:4a:cb:52:67:ce:32:c0:d6:f4:4c:98:
         92:41:0d:71:a2:33:d8:7a:b6:38:ed:29:a2:85:60:54:1c:d3:
         c6:98:59:71:bb:83:a3:31:d6:04:6a:42:4f:cc:45:62:b0:a5:
         a9:6c:4b:e7:2a:c9:54:56:3d:d6:76:9f:aa:aa:68:f8:50:cb:
         09:d3:0e:a1:96:77:b6:bf:a2:2b:ff:20:ff:97:c0:58:3a:f0:
         a4:70:c6:d7:04:66:1f:c3:23:f9:19:3b:e0:be:c9:bf:0a:e9:
         d2:95:cd:32:18:0c:5a:0f:68:6d:ff:35:3f:45:80:ff:ab:65:
         42:03:78:9c:f8:41:58:50:c2:7d:d5:82:bb:2a:fa:00:a6:d3:
         bc:91:5a:60:b4:62:20:69:82:47:4d:79:99:82:f9:e2:c7:c5:
         e9:be:7b:95:21:78:0a:6f:51:d1:f4:0e:59:4d:34:69:70:29:
         88:70:f9:fa:da:ef:f9:13:d0:6a:a4:80:6b:4d:76:62:96:7d:
         fe:77:3b:0b:e7:73:fc:21:a2:0d:d5:67:ac:21:00:95:f1:ad:
         0d:b3:b2:0a:46:22:54:ad:fa:fe:79:24:66:a8:ac:61:6f:fb:
         58:9d:73:05:5a:a0:e2:2b:95:5f:99:9d:61:92:7f:99:9c:a8:
         d5:e5:78:a7:e0:b5:cc:e0:df:63:bf:56:29:27:c4:28:3f:d0:
         a1:84:1c:79:79:fc:30:6c:c1:e2:76:61:72:f8:ef:c1:49:3e:
         ef:c9:af:18:ab:b8:63:f1:82:38:b8:f3:45:a4:8e:89:fe:da:
         5b:12:23:ff:ad:cb:11:5d:43:71:c0:19:2c:51:84:f4:4a:d6:
         40:bd:d5:c1:2e:40:c1:9e:b5:fb:b8:d5:33:fd:a0:28:e8:ab:
         9f:17:16:c0:d6:6d:e5:17:5c:92:c0:3d:6f:c8:43:f1:86:a8:
         be:79:1e:60:fa:f6:15:7c
-----BEGIN CERTIFICATE-----
MIIHSDCCBTCgAwIBAgICA9EwDQYJKoZIhvcNAQEFBQAwgbQxCzAJBgNVBAYTAlVT
MQswCQYDVQQIEwJDQTEVMBMGA1UEBxMMU2FuRnJhbmNpc2NvMRUwEwYDVQQKEwxQ
aXhnbG8sIEluYy4xEDAOBgNVBAsTB1ZQTi1DSUUxGjAYBgNVBAMTEXR1bm5lbC5w
aXhnbG8uY29tMRwwGgYDVQQpExNCYWxhIENoYW5kcmFzZWthcmFuMR4wHAYJKoZI
hvcNAQkBFg9iYWxhQHBpeGdsby5jb20wHhcNMTgwMjE0MDY0OTQ5WhcNMjgwMjEy
MDY0OTQ5WjCBqTELMAkGA1UEBhMCVVMxCzAJBgNVBAgTAkNBMRUwEwYDVQQHEwxT
YW5GcmFuY2lzY28xFTATBgNVBAoTDFBpeGdsbywgSW5jLjEQMA4GA1UECxMHVlBO
LUNJRTEPMA0GA1UEAxMGY2llOTc2MRwwGgYDVQQpExNCYWxhIENoYW5kcmFzZWth
cmFuMR4wHAYJKoZIhvcNAQkBFg9iYWxhQHBpeGdsby5jb20wggIiMA0GCSqGSIb3
DQEBAQUAA4ICDwAwggIKAoICAQDCHn/5MQOM30KF5PqYG9e9WGp7kHiJCf6BzZ2V
d/LNUp+sw251Ct2r34Zke4a1DyJ9KBpRSyjhUA1DqUTQlCG6hCravk3FY5wcE+ni
mP5Lut5M2MIyWPsuAMNQQlviI7+23lDeSlaGpMwPEO6Ne9G4bZxEHiURGRVCZ5W2
yg9VxQTSJOBRFtHsqby1mD+3s2KaNCAeRJXuJ2izelbw5Fy40W3SiFEY8IYJA3Jv
4Ig3hQvsgZxXvYOz1yfj927OpF5f53zsJL0109nnJ5Ahoke80Xs/mIb1cd4osDWb
ASZ5m6HQOqxmeEb52Vzgh6WUDqAL4S4l3KyJafCbQl0rTBCtwwA5K/JXZwyMAH1o
E4kp6RqrhQ0wMhbJ7y3J2Y5HapuJ6hby2sJDH6cWVj14N0ilzuNvEp0ryVVv9ghg
Rn7wGFYWGUEVYd2nzzmE2DMFBPRMuyG8dKDoCyfLpfax01BErV/Li3X8gnJPgTSk
9JJIYFtLfFTyEwDyZ8I8gztxCWqRXkZDYn9AIJrK4zGlGa7dr9vmUtkQ/jgsMWvT
2zFYi2dfQhcHX0v8XJBxYI9bGMPNrCYAuZKmpNRk1/B2+LKYAarELXD8Fnk/G8xy
nMqKSiMZptoXzO9qxGdqvJJDXHsLBDXsUcxro25UuwarkelF0mLi0VE0gEIBCY1E
FeD+AwIDAQABo4IBazCCAWcwCQYDVR0TBAIwADAtBglghkgBhvhCAQ0EIBYeRWFz
eS1SU0EgR2VuZXJhdGVkIENlcnRpZmljYXRlMB0GA1UdDgQWBBT6/JIyJCw5pgsP
Zpeswti8m/az2DCB6QYDVR0jBIHhMIHegBTvOI0UUFinW02cF3L837msp1GwEKGB
uqSBtzCBtDELMAkGA1UEBhMCVVMxCzAJBgNVBAgTAkNBMRUwEwYDVQQHEwxTYW5G
cmFuY2lzY28xFTATBgNVBAoTDFBpeGdsbywgSW5jLjEQMA4GA1UECxMHVlBOLUNJ
RTEaMBgGA1UEAxMRdHVubmVsLnBpeGdsby5jb20xHDAaBgNVBCkTE0JhbGEgQ2hh
bmRyYXNla2FyYW4xHjAcBgkqhkiG9w0BCQEWD2JhbGFAcGl4Z2xvLmNvbYIJAKbb
xoOA5qB5MBMGA1UdJQQMMAoGCCsGAQUFBwMCMAsGA1UdDwQEAwIHgDANBgkqhkiG
9w0BAQUFAAOCAgEAZ6vr+8p+jYFEoUFrEUBPtdlCKRzTlQjNLwKr3GudIAZkJGcQ
3ZI7gy0hBIu88N3AX0aFL8bjGfqbAqZA5DiPM5rqhfLYH8s+px6c33NQriOE08hy
7Drarzp54Q7UGWH+sbG/LEsxf+ZxjS9h8wrZrJZzqZ2YO4DXtNCncDgLZGU6BhU6
jR/ODIeKSL2iZZbVnAeQFQwtckrLUmfOMsDW9EyYkkENcaIz2Hq2OO0pooVgVBzT
xphZcbuDozHWBGpCT8xFYrClqWxL5yrJVFY91nafqqpo+FDLCdMOoZZ3tr+iK/8g
/5fAWDrwpHDG1wRmH8Mj+Rk74L7Jvwrp0pXNMhgMWg9obf81P0WA/6tlQgN4nPhB
WFDCfdWCuyr6AKbTvJFaYLRiIGmCR015mYL54sfF6b57lSF4Cm9R0fQOWU00aXAp
iHD5+trv+RPQaqSAa012YpZ9/nc7C+dz/CGiDdVnrCEAlfGtDbOyCkYiVK36/nkk
ZqisYW/7WJ1zBVqg4iuVX5mdYZJ/mZyo1eV4p+C1zODfY79WKSfEKD/QoYQceXn8
MGzB4nZhcvjvwUk+78mvGKu4Y/GCOLjzRaSOif7aWxIj/63LEV1DccAZLFGE9ErW
QL3VwS5AwZ61+7jVM/2gKOirnxcWwNZt5RdcksA9b8hD8YaovnkeYPr2FXw=
-----END CERTIFICATE-----
