Certificate:
    Data:
        Version: 3 (0x2)
        Serial Number: 960 (0x3c0)
    Signature Algorithm: sha1WithRSAEncryption
        Issuer: C=US, ST=CA, L=SanFrancisco, O=Pixglo, Inc., OU=VPN-CIE, CN=tunnel.pixglo.com/name=Bala Chandrasekaran/emailAddress=bala@pixglo.com
        Validity
            Not Before: Feb 14 06:49:20 2018 GMT
            Not After : Feb 12 06:49:20 2028 GMT
        Subject: C=US, ST=CA, L=SanFrancisco, O=Pixglo, Inc., OU=VPN-CIE, CN=cie959/name=Bala Chandrasekaran/emailAddress=bala@pixglo.com
        Subject Public Key Info:
            Public Key Algorithm: rsaEncryption
                Public-Key: (4096 bit)
                Modulus:
                    00:da:35:1a:82:dc:c9:5d:2e:15:6d:70:08:68:e7:
                    04:60:23:6a:1d:8b:a8:2f:5c:21:76:09:6b:da:10:
                    cf:09:3a:c9:8b:76:76:59:89:ad:4c:21:e1:5b:ec:
                    29:50:25:92:de:ae:f9:57:b2:7e:75:b2:66:08:07:
                    b4:31:7c:6b:22:4f:0a:a9:eb:4d:a4:38:05:c7:7c:
                    18:50:aa:91:4f:c1:ea:c0:e6:87:7b:4b:35:f2:a1:
                    a5:cf:d7:56:f7:6c:0c:d7:c6:dc:ae:90:6f:41:c8:
                    10:d8:de:60:84:da:35:5c:fc:99:67:c9:63:8a:2a:
                    3f:81:a7:bf:19:73:23:33:9e:17:45:91:7e:77:ac:
                    0e:83:c0:90:f3:03:63:9e:f9:03:fc:ce:d4:3a:1d:
                    b6:3a:25:5d:02:bd:70:6c:a5:87:6b:af:4e:8c:41:
                    86:9a:32:ec:7a:e5:d7:54:98:90:46:48:0d:d8:9f:
                    22:ab:79:09:3f:94:f2:17:30:eb:4f:3f:91:2f:28:
                    d0:42:4d:65:37:a1:de:2a:56:3b:06:ee:a8:8f:c1:
                    21:8d:84:d4:de:ff:ac:9b:cf:16:bc:15:3f:15:0f:
                    de:ca:5e:4b:39:e4:64:ee:4f:52:bb:f7:79:3b:6b:
                    6f:0b:d7:7c:38:a0:ae:21:d1:69:5c:97:d9:62:c3:
                    84:fc:9b:d7:3a:03:83:ac:a7:f5:68:e0:a7:8b:c5:
                    3f:bf:f2:97:34:71:7a:f8:aa:0f:4b:62:bd:cb:62:
                    3f:b0:ec:83:f8:76:9c:1d:e2:45:d8:41:4e:cb:94:
                    be:df:80:b7:17:78:3e:dc:8e:74:08:c3:d2:44:94:
                    85:d2:fc:4c:cc:32:a1:fc:a8:ec:85:fc:48:e3:cf:
                    7f:d4:00:84:72:76:73:da:6a:b4:9c:7e:91:f4:f2:
                    d8:7a:bd:16:0e:e9:10:63:6c:74:23:37:c6:16:d7:
                    0c:c3:0b:56:97:b2:8f:09:9e:91:45:84:2c:7b:ce:
                    cf:24:69:cb:35:9f:59:9f:48:bb:4d:45:a2:05:14:
                    20:83:46:ae:5c:64:39:44:c6:7e:96:8f:a2:15:bb:
                    72:5e:4b:97:bd:43:0f:d9:77:98:a1:2f:d0:84:e1:
                    43:2a:6a:78:b1:f1:87:72:08:a1:79:a5:e5:5d:b8:
                    ec:79:66:5b:3f:27:e1:78:e7:df:42:59:21:59:33:
                    f7:77:36:bb:f8:ae:81:fb:6e:65:60:ad:e5:e8:79:
                    79:35:fe:c7:d4:38:6a:7c:16:a1:2a:9a:f8:29:5a:
                    77:77:37:11:4e:e1:4d:19:be:cd:1e:58:62:78:5d:
                    63:3a:97:f7:da:86:ff:9e:f8:3a:7f:07:f0:bf:10:
                    c0:a3:fb
                Exponent: 65537 (0x10001)
        X509v3 extensions:
            X509v3 Basic Constraints: 
                CA:FALSE
            Netscape Comment: 
                Easy-RSA Generated Certificate
            X509v3 Subject Key Identifier: 
                2D:B3:4B:C2:13:B1:67:23:FA:1D:83:2A:01:FA:C0:7A:3B:78:D7:9D
            X509v3 Authority Key Identifier: 
                keyid:EF:38:8D:14:50:58:A7:5B:4D:9C:17:72:FC:DF:B9:AC:A7:51:B0:10
                DirName:/C=US/ST=CA/L=SanFrancisco/O=Pixglo, Inc./OU=VPN-CIE/CN=tunnel.pixglo.com/name=Bala Chandrasekaran/emailAddress=bala@pixglo.com
                serial:A6:DB:C6:83:80:E6:A0:79

            X509v3 Extended Key Usage: 
                TLS Web Client Authentication
            X509v3 Key Usage: 
                Digital Signature
    Signature Algorithm: sha1WithRSAEncryption
         46:ee:d4:5c:d8:47:06:45:55:19:f6:38:d7:10:d9:d0:d2:6a:
         5c:3b:49:7b:dd:c9:c4:c0:98:c3:c1:2b:80:4f:ec:2b:70:d8:
         2c:70:13:dc:1b:2a:7b:f5:2b:be:fe:15:1e:17:40:d0:bf:36:
         4e:96:08:64:df:19:26:d5:59:e6:5d:93:fd:6d:77:e2:60:04:
         c8:ca:6f:ad:6e:51:7a:e0:0b:de:df:41:b1:22:58:36:13:03:
         5b:af:d2:bc:80:f2:73:cc:29:eb:37:8b:1c:26:da:03:88:32:
         ec:4e:7c:6e:d5:21:85:45:6d:c4:86:f5:e1:d9:55:13:9c:70:
         bf:91:5e:14:58:b2:9a:76:30:2a:e7:17:ee:9c:2b:51:fb:d9:
         0e:6e:b9:e6:19:8c:e6:72:59:67:89:ba:61:a2:d5:bc:ae:50:
         78:81:6f:44:f0:47:45:0f:e7:10:eb:ea:6b:d6:90:c8:80:2e:
         19:5c:2d:86:45:d1:56:f9:90:50:44:bf:98:a8:c0:e5:3a:38:
         66:63:d4:29:26:93:f2:50:a3:83:b8:a5:ac:9e:30:f1:f9:b6:
         d5:75:7e:46:38:2e:47:cb:30:b4:75:48:2e:6c:63:01:9b:2e:
         51:fb:cc:45:43:75:a2:5f:37:99:45:d8:36:a4:86:b4:40:01:
         fa:4a:e9:9e:17:f4:a5:4c:cf:c0:30:4b:43:f5:0c:7f:6e:98:
         2f:2b:84:cc:3c:68:44:bf:1a:4f:90:96:a1:42:c0:ef:4b:83:
         cd:6e:2a:95:6d:ee:b0:d2:f0:c4:df:13:a5:01:51:9b:60:a6:
         24:0a:4e:eb:c3:5b:5e:a9:7d:24:09:f8:e3:72:f4:78:9e:2e:
         0d:94:3c:42:e4:8d:94:03:1c:f7:cc:6e:2c:fc:f0:e7:94:5f:
         9d:ff:43:4e:a4:58:48:6e:91:99:3d:f7:c4:e2:9c:a8:5a:1a:
         4e:41:4f:7f:d4:ed:1b:15:3c:1a:3a:58:f6:9e:c8:77:d8:61:
         0e:e3:a5:0b:18:2d:da:ff:e3:85:75:06:74:39:42:13:58:5f:
         be:5e:09:f8:0b:17:95:b4:b0:04:87:c9:20:6d:6b:17:2d:fc:
         0e:56:3b:de:4b:d8:49:04:4e:43:2a:86:a0:5e:37:78:14:96:
         36:6c:65:42:7a:35:c8:95:c0:f2:df:df:1b:8f:d5:25:71:f7:
         e4:f6:ff:f4:0a:85:ee:f8:d0:b1:43:e3:05:0b:c3:9c:87:7c:
         68:dd:be:34:15:f6:96:56:73:8f:c3:67:9d:5b:16:18:59:33:
         31:ff:19:9f:94:e3:0a:64:f3:e1:80:78:b0:77:21:d1:69:fa:
         f7:63:b9:70:19:ac:07:7a
-----BEGIN CERTIFICATE-----
MIIHSDCCBTCgAwIBAgICA8AwDQYJKoZIhvcNAQEFBQAwgbQxCzAJBgNVBAYTAlVT
MQswCQYDVQQIEwJDQTEVMBMGA1UEBxMMU2FuRnJhbmNpc2NvMRUwEwYDVQQKEwxQ
aXhnbG8sIEluYy4xEDAOBgNVBAsTB1ZQTi1DSUUxGjAYBgNVBAMTEXR1bm5lbC5w
aXhnbG8uY29tMRwwGgYDVQQpExNCYWxhIENoYW5kcmFzZWthcmFuMR4wHAYJKoZI
hvcNAQkBFg9iYWxhQHBpeGdsby5jb20wHhcNMTgwMjE0MDY0OTIwWhcNMjgwMjEy
MDY0OTIwWjCBqTELMAkGA1UEBhMCVVMxCzAJBgNVBAgTAkNBMRUwEwYDVQQHEwxT
YW5GcmFuY2lzY28xFTATBgNVBAoTDFBpeGdsbywgSW5jLjEQMA4GA1UECxMHVlBO
LUNJRTEPMA0GA1UEAxMGY2llOTU5MRwwGgYDVQQpExNCYWxhIENoYW5kcmFzZWth
cmFuMR4wHAYJKoZIhvcNAQkBFg9iYWxhQHBpeGdsby5jb20wggIiMA0GCSqGSIb3
DQEBAQUAA4ICDwAwggIKAoICAQDaNRqC3MldLhVtcAho5wRgI2odi6gvXCF2CWva
EM8JOsmLdnZZia1MIeFb7ClQJZLervlXsn51smYIB7QxfGsiTwqp602kOAXHfBhQ
qpFPwerA5od7SzXyoaXP11b3bAzXxtyukG9ByBDY3mCE2jVc/JlnyWOKKj+Bp78Z
cyMznhdFkX53rA6DwJDzA2Oe+QP8ztQ6HbY6JV0CvXBspYdrr06MQYaaMux65ddU
mJBGSA3YnyKreQk/lPIXMOtPP5EvKNBCTWU3od4qVjsG7qiPwSGNhNTe/6ybzxa8
FT8VD97KXks55GTuT1K793k7a28L13w4oK4h0Wlcl9liw4T8m9c6A4Osp/Vo4KeL
xT+/8pc0cXr4qg9LYr3LYj+w7IP4dpwd4kXYQU7LlL7fgLcXeD7cjnQIw9JElIXS
/EzMMqH8qOyF/Ejjz3/UAIRydnPaarScfpH08th6vRYO6RBjbHQjN8YW1wzDC1aX
so8JnpFFhCx7zs8kacs1n1mfSLtNRaIFFCCDRq5cZDlExn6Wj6IVu3JeS5e9Qw/Z
d5ihL9CE4UMqanix8YdyCKF5peVduOx5Zls/J+F4599CWSFZM/d3Nrv4roH7bmVg
reXoeXk1/sfUOGp8FqEqmvgpWnd3NxFO4U0Zvs0eWGJ4XWM6l/fahv+e+Dp/B/C/
EMCj+wIDAQABo4IBazCCAWcwCQYDVR0TBAIwADAtBglghkgBhvhCAQ0EIBYeRWFz
eS1SU0EgR2VuZXJhdGVkIENlcnRpZmljYXRlMB0GA1UdDgQWBBQts0vCE7FnI/od
gyoB+sB6O3jXnTCB6QYDVR0jBIHhMIHegBTvOI0UUFinW02cF3L837msp1GwEKGB
uqSBtzCBtDELMAkGA1UEBhMCVVMxCzAJBgNVBAgTAkNBMRUwEwYDVQQHEwxTYW5G
cmFuY2lzY28xFTATBgNVBAoTDFBpeGdsbywgSW5jLjEQMA4GA1UECxMHVlBOLUNJ
RTEaMBgGA1UEAxMRdHVubmVsLnBpeGdsby5jb20xHDAaBgNVBCkTE0JhbGEgQ2hh
bmRyYXNla2FyYW4xHjAcBgkqhkiG9w0BCQEWD2JhbGFAcGl4Z2xvLmNvbYIJAKbb
xoOA5qB5MBMGA1UdJQQMMAoGCCsGAQUFBwMCMAsGA1UdDwQEAwIHgDANBgkqhkiG
9w0BAQUFAAOCAgEARu7UXNhHBkVVGfY41xDZ0NJqXDtJe93JxMCYw8ErgE/sK3DY
LHAT3Bsqe/Urvv4VHhdA0L82TpYIZN8ZJtVZ5l2T/W134mAEyMpvrW5ReuAL3t9B
sSJYNhMDW6/SvIDyc8wp6zeLHCbaA4gy7E58btUhhUVtxIb14dlVE5xwv5FeFFiy
mnYwKucX7pwrUfvZDm655hmM5nJZZ4m6YaLVvK5QeIFvRPBHRQ/nEOvqa9aQyIAu
GVwthkXRVvmQUES/mKjA5To4ZmPUKSaT8lCjg7ilrJ4w8fm21XV+RjguR8swtHVI
LmxjAZsuUfvMRUN1ol83mUXYNqSGtEAB+krpnhf0pUzPwDBLQ/UMf26YLyuEzDxo
RL8aT5CWoULA70uDzW4qlW3usNLwxN8TpQFRm2CmJApO68NbXql9JAn443L0eJ4u
DZQ8QuSNlAMc98xuLPzw55Rfnf9DTqRYSG6RmT33xOKcqFoaTkFPf9TtGxU8GjpY
9p7Id9hhDuOlCxgt2v/jhXUGdDlCE1hfvl4J+AsXlbSwBIfJIG1rFy38DlY73kvY
SQROQyqGoF43eBSWNmxlQno1yJXA8t/fG4/VJXH35Pb/9AqF7vjQsUPjBQvDnId8
aN2+NBX2llZzj8NnnVsWGFkzMf8Zn5TjCmTz4YB4sHch0Wn692O5cBmsB3o=
-----END CERTIFICATE-----
