Certificate:
    Data:
        Version: 3 (0x2)
        Serial Number: 944 (0x3b0)
    Signature Algorithm: sha1WithRSAEncryption
        Issuer: C=US, ST=CA, L=SanFrancisco, O=Pixglo, Inc., OU=VPN-CIE, CN=tunnel.pixglo.com/name=Bala Chandrasekaran/emailAddress=bala@pixglo.com
        Validity
            Not Before: Feb 14 06:48:49 2018 GMT
            Not After : Feb 12 06:48:49 2028 GMT
        Subject: C=US, ST=CA, L=SanFrancisco, O=Pixglo, Inc., OU=VPN-CIE, CN=cie943/name=Bala Chandrasekaran/emailAddress=bala@pixglo.com
        Subject Public Key Info:
            Public Key Algorithm: rsaEncryption
                Public-Key: (4096 bit)
                Modulus:
                    00:b1:0b:20:09:33:e8:46:90:58:1a:e5:35:7f:53:
                    ac:e6:6c:d5:fc:b9:1e:b0:85:97:67:2e:8b:91:51:
                    01:5b:cb:40:02:3e:13:90:9b:a7:28:d9:a1:bf:67:
                    37:d3:4a:e6:9b:ba:5e:e2:dc:76:41:4a:1a:8f:7c:
                    2d:dc:cc:59:ca:47:84:80:ae:fc:56:90:05:8b:b8:
                    8c:c4:74:c3:86:3b:2f:85:4a:e9:4b:af:35:c2:f0:
                    78:87:bc:51:82:5b:d7:ed:6b:35:c8:58:04:96:ca:
                    bf:68:3d:fe:89:11:d1:62:3b:e5:2c:55:1b:d6:bb:
                    a0:0d:85:05:1c:59:27:8d:3a:fe:a9:7c:3f:c7:5e:
                    c3:28:d5:91:61:2d:75:e3:4d:81:da:0c:39:ab:53:
                    b5:15:1f:ee:96:5f:9a:bc:6e:10:f6:38:55:85:e5:
                    f8:67:13:fb:99:dd:f1:29:ee:d2:de:50:7b:c9:56:
                    bd:02:ae:a3:8a:5d:a9:fb:9a:b8:a1:d6:13:37:3e:
                    5d:9f:1b:c9:8e:60:3f:3b:1c:17:5c:f9:af:23:66:
                    ea:f9:98:11:5b:bc:79:06:8c:42:12:df:70:74:1f:
                    4f:0f:99:5a:5f:2f:33:b0:7b:aa:6a:03:a5:e3:16:
                    ec:6b:f2:fc:84:3d:6d:24:80:14:18:28:c1:c3:c8:
                    00:cd:ec:06:d7:4c:73:12:cd:00:73:44:cf:d6:58:
                    7c:46:53:96:64:81:43:a9:d7:fc:6c:d7:2c:f5:a9:
                    2a:59:9c:1c:c0:a7:a5:1c:83:f5:5e:7c:82:41:e8:
                    ad:68:eb:30:47:cf:68:a0:6e:8d:1e:38:6b:e7:65:
                    4b:08:e2:eb:9f:8c:be:ef:ba:21:93:26:da:5d:63:
                    2d:7c:e7:95:54:ca:50:ac:96:08:bc:33:1c:5c:89:
                    de:b7:46:94:7d:a2:17:1f:9c:74:11:7d:7c:32:d1:
                    51:7a:cf:0a:c4:7d:d5:f6:0f:e6:93:39:3e:d8:da:
                    0c:5a:48:d4:2c:77:db:6c:64:a1:6a:83:86:0b:ca:
                    d7:d1:c7:3b:6c:93:ec:c3:af:97:4e:0d:d8:6d:a1:
                    36:83:b6:24:48:09:5f:43:80:22:d9:59:29:75:ff:
                    05:d5:b2:7e:e3:a1:2c:2e:43:90:33:4e:f5:d6:a6:
                    c7:de:e3:4c:ed:7a:f5:9a:2c:d1:57:61:5b:4c:ba:
                    ef:f6:7e:43:06:2f:62:88:e7:b9:0c:39:15:d3:ce:
                    2e:e3:01:d6:22:92:25:93:c3:29:2f:f5:42:e4:a1:
                    e6:45:3c:2f:a5:f1:fe:21:bd:ad:83:f1:a4:4b:eb:
                    71:13:8e:ff:1c:23:07:d9:ed:e6:88:e4:8c:29:10:
                    c6:05:c3
                Exponent: 65537 (0x10001)
        X509v3 extensions:
            X509v3 Basic Constraints: 
                CA:FALSE
            Netscape Comment: 
                Easy-RSA Generated Certificate
            X509v3 Subject Key Identifier: 
                3F:79:45:46:1B:32:15:B5:52:7F:C8:A1:32:01:5D:D0:39:02:D6:50
            X509v3 Authority Key Identifier: 
                keyid:EF:38:8D:14:50:58:A7:5B:4D:9C:17:72:FC:DF:B9:AC:A7:51:B0:10
                DirName:/C=US/ST=CA/L=SanFrancisco/O=Pixglo, Inc./OU=VPN-CIE/CN=tunnel.pixglo.com/name=Bala Chandrasekaran/emailAddress=bala@pixglo.com
                serial:A6:DB:C6:83:80:E6:A0:79

            X509v3 Extended Key Usage: 
                TLS Web Client Authentication
            X509v3 Key Usage: 
                Digital Signature
    Signature Algorithm: sha1WithRSAEncryption
         a7:f2:17:44:cb:2a:6d:aa:8a:26:ae:78:68:00:17:ff:76:57:
         a9:7d:01:fe:69:01:d0:4d:54:9d:aa:b5:5d:aa:dc:a1:c7:5c:
         6d:6a:a6:57:f9:33:65:c5:77:ed:a5:36:ac:1a:24:82:fb:c9:
         b4:51:ec:c4:e0:95:e3:2e:c0:3f:d0:19:31:d5:11:be:de:32:
         01:ff:79:45:06:75:c5:70:46:83:c0:5e:a4:89:1c:4e:f7:0b:
         be:d1:91:25:45:c7:71:46:16:3f:c0:9b:54:91:62:cc:6e:bd:
         1a:1a:a6:35:e0:ec:e7:64:19:90:e1:ec:9f:3c:55:5b:0a:ec:
         4a:74:c4:55:5a:7a:ea:33:7c:4a:c7:7e:27:78:e4:94:27:6c:
         c3:08:48:49:b7:88:53:e9:d7:64:5a:c9:a1:8d:e1:05:6f:44:
         21:9a:f1:8b:17:ec:d8:19:0a:a7:41:c8:2b:e4:65:d6:84:80:
         3b:7b:c9:d4:34:16:e2:44:5c:81:26:11:3e:a6:ca:e7:be:07:
         ad:48:e3:4e:df:1e:a7:ec:58:b9:d1:bc:7c:d4:cb:94:d3:58:
         31:2f:c7:9d:c3:17:11:1b:53:d5:b6:85:1a:11:cd:54:c9:bb:
         62:21:c1:4c:b1:0b:23:cf:8a:92:1d:88:2a:f3:1b:01:8d:8b:
         80:75:b4:4d:bb:3d:73:09:f0:4f:04:c0:15:96:94:1d:a0:be:
         51:50:8e:b6:38:28:7b:9f:59:35:ac:63:6d:f2:8d:b5:37:c5:
         b5:7b:91:bf:e6:6d:89:f3:5e:15:0d:c3:51:2e:5b:a0:7c:0f:
         8f:86:70:5b:73:eb:08:df:9f:32:b1:e7:17:dd:af:63:17:6b:
         30:47:42:2a:3f:b4:8c:cf:07:13:54:ac:d3:5f:2d:7e:fc:c2:
         0e:b1:eb:a1:17:ad:02:9b:82:9c:23:c9:a1:af:9c:d4:16:c9:
         96:6c:27:f8:ae:a4:2b:2e:32:ac:e7:c2:98:d0:c1:77:e8:1b:
         6b:e2:9e:92:46:47:4a:c0:4d:9d:ad:1d:c0:80:74:c9:a8:70:
         01:a5:ad:52:4b:9f:e3:00:68:c5:1c:44:94:39:a7:e6:97:cd:
         ff:21:87:47:81:ea:a0:fb:6f:64:a8:46:84:1a:47:8a:d0:a2:
         be:c5:bd:0b:d0:34:16:ed:42:8c:49:36:d4:ab:e5:b0:fa:c9:
         e5:20:cd:29:cd:bb:05:39:e9:cc:68:85:54:64:03:f0:5b:02:
         c0:ec:e6:fa:a6:bd:9e:96:6e:34:b5:5a:a9:16:b9:3e:70:10:
         f3:7b:2a:ff:f5:53:e4:85:8d:63:20:ba:8b:50:5d:98:d9:62:
         86:8f:0c:d7:5a:66:73:b6
-----BEGIN CERTIFICATE-----
MIIHSDCCBTCgAwIBAgICA7AwDQYJKoZIhvcNAQEFBQAwgbQxCzAJBgNVBAYTAlVT
MQswCQYDVQQIEwJDQTEVMBMGA1UEBxMMU2FuRnJhbmNpc2NvMRUwEwYDVQQKEwxQ
aXhnbG8sIEluYy4xEDAOBgNVBAsTB1ZQTi1DSUUxGjAYBgNVBAMTEXR1bm5lbC5w
aXhnbG8uY29tMRwwGgYDVQQpExNCYWxhIENoYW5kcmFzZWthcmFuMR4wHAYJKoZI
hvcNAQkBFg9iYWxhQHBpeGdsby5jb20wHhcNMTgwMjE0MDY0ODQ5WhcNMjgwMjEy
MDY0ODQ5WjCBqTELMAkGA1UEBhMCVVMxCzAJBgNVBAgTAkNBMRUwEwYDVQQHEwxT
YW5GcmFuY2lzY28xFTATBgNVBAoTDFBpeGdsbywgSW5jLjEQMA4GA1UECxMHVlBO
LUNJRTEPMA0GA1UEAxMGY2llOTQzMRwwGgYDVQQpExNCYWxhIENoYW5kcmFzZWth
cmFuMR4wHAYJKoZIhvcNAQkBFg9iYWxhQHBpeGdsby5jb20wggIiMA0GCSqGSIb3
DQEBAQUAA4ICDwAwggIKAoICAQCxCyAJM+hGkFga5TV/U6zmbNX8uR6whZdnLouR
UQFby0ACPhOQm6co2aG/ZzfTSuabul7i3HZBShqPfC3czFnKR4SArvxWkAWLuIzE
dMOGOy+FSulLrzXC8HiHvFGCW9ftazXIWASWyr9oPf6JEdFiO+UsVRvWu6ANhQUc
WSeNOv6pfD/HXsMo1ZFhLXXjTYHaDDmrU7UVH+6WX5q8bhD2OFWF5fhnE/uZ3fEp
7tLeUHvJVr0CrqOKXan7mrih1hM3Pl2fG8mOYD87HBdc+a8jZur5mBFbvHkGjEIS
33B0H08PmVpfLzOwe6pqA6XjFuxr8vyEPW0kgBQYKMHDyADN7AbXTHMSzQBzRM/W
WHxGU5ZkgUOp1/xs1yz1qSpZnBzAp6Ucg/VefIJB6K1o6zBHz2igbo0eOGvnZUsI
4uufjL7vuiGTJtpdYy1855VUylCslgi8Mxxcid63RpR9ohcfnHQRfXwy0VF6zwrE
fdX2D+aTOT7Y2gxaSNQsd9tsZKFqg4YLytfRxztsk+zDr5dODdhtoTaDtiRICV9D
gCLZWSl1/wXVsn7joSwuQ5AzTvXWpsfe40ztevWaLNFXYVtMuu/2fkMGL2KI57kM
ORXTzi7jAdYikiWTwykv9ULkoeZFPC+l8f4hva2D8aRL63ETjv8cIwfZ7eaI5Iwp
EMYFwwIDAQABo4IBazCCAWcwCQYDVR0TBAIwADAtBglghkgBhvhCAQ0EIBYeRWFz
eS1SU0EgR2VuZXJhdGVkIENlcnRpZmljYXRlMB0GA1UdDgQWBBQ/eUVGGzIVtVJ/
yKEyAV3QOQLWUDCB6QYDVR0jBIHhMIHegBTvOI0UUFinW02cF3L837msp1GwEKGB
uqSBtzCBtDELMAkGA1UEBhMCVVMxCzAJBgNVBAgTAkNBMRUwEwYDVQQHEwxTYW5G
cmFuY2lzY28xFTATBgNVBAoTDFBpeGdsbywgSW5jLjEQMA4GA1UECxMHVlBOLUNJ
RTEaMBgGA1UEAxMRdHVubmVsLnBpeGdsby5jb20xHDAaBgNVBCkTE0JhbGEgQ2hh
bmRyYXNla2FyYW4xHjAcBgkqhkiG9w0BCQEWD2JhbGFAcGl4Z2xvLmNvbYIJAKbb
xoOA5qB5MBMGA1UdJQQMMAoGCCsGAQUFBwMCMAsGA1UdDwQEAwIHgDANBgkqhkiG
9w0BAQUFAAOCAgEAp/IXRMsqbaqKJq54aAAX/3ZXqX0B/mkB0E1Unaq1Xarcocdc
bWqmV/kzZcV37aU2rBokgvvJtFHsxOCV4y7AP9AZMdURvt4yAf95RQZ1xXBGg8Be
pIkcTvcLvtGRJUXHcUYWP8CbVJFizG69GhqmNeDs52QZkOHsnzxVWwrsSnTEVVp6
6jN8Ssd+J3jklCdswwhISbeIU+nXZFrJoY3hBW9EIZrxixfs2BkKp0HIK+Rl1oSA
O3vJ1DQW4kRcgSYRPqbK574HrUjjTt8ep+xYudG8fNTLlNNYMS/HncMXERtT1baF
GhHNVMm7YiHBTLELI8+Kkh2IKvMbAY2LgHW0Tbs9cwnwTwTAFZaUHaC+UVCOtjgo
e59ZNaxjbfKNtTfFtXuRv+ZtifNeFQ3DUS5boHwPj4ZwW3PrCN+fMrHnF92vYxdr
MEdCKj+0jM8HE1Ss018tfvzCDrHroRetApuCnCPJoa+c1BbJlmwn+K6kKy4yrOfC
mNDBd+gba+KekkZHSsBNna0dwIB0yahwAaWtUkuf4wBoxRxElDmn5pfN/yGHR4Hq
oPtvZKhGhBpHitCivsW9C9A0Fu1CjEk21KvlsPrJ5SDNKc27BTnpzGiFVGQD8FsC
wOzm+qa9npZuNLVaqRa5PnAQ83sq//VT5IWNYyC6i1BdmNliho8M11pmc7Y=
-----END CERTIFICATE-----
