Certificate:
    Data:
        Version: 3 (0x2)
        Serial Number: 982 (0x3d6)
    Signature Algorithm: sha1WithRSAEncryption
        Issuer: C=US, ST=CA, L=SanFrancisco, O=Pixglo, Inc., OU=VPN-CIE, CN=tunnel.pixglo.com/name=Bala Chandrasekaran/emailAddress=bala@pixglo.com
        Validity
            Not Before: Feb 14 06:49:53 2018 GMT
            Not After : Feb 12 06:49:53 2028 GMT
        Subject: C=US, ST=CA, L=SanFrancisco, O=Pixglo, Inc., OU=VPN-CIE, CN=cie981/name=Bala Chandrasekaran/emailAddress=bala@pixglo.com
        Subject Public Key Info:
            Public Key Algorithm: rsaEncryption
                Public-Key: (4096 bit)
                Modulus:
                    00:9a:40:20:15:d4:ef:4c:25:e4:b3:51:ef:99:40:
                    84:bb:47:8c:f0:dd:00:4c:88:17:a9:5b:d1:f8:17:
                    c7:cc:e3:42:a9:b0:74:e4:86:e5:b7:d6:d9:d8:fa:
                    50:60:c1:64:fe:13:9b:6d:11:cb:11:6a:3b:44:8e:
                    53:22:87:c9:59:67:88:aa:57:2f:8e:9c:49:82:e5:
                    b6:a3:35:c8:6e:c4:b6:7e:5e:94:41:46:50:d5:58:
                    99:97:fe:a1:a5:e7:8c:39:64:0f:40:a1:11:de:74:
                    bf:e7:65:35:0d:47:bd:24:79:71:08:e7:0d:72:b4:
                    6e:25:5c:58:04:7c:1e:91:d8:02:bb:2c:bd:a6:2d:
                    8d:8f:da:12:f3:61:c3:7f:af:d5:f6:93:c7:78:76:
                    eb:93:54:3b:7f:fa:fe:fd:de:73:3b:7c:00:be:f0:
                    0e:60:0f:64:55:b2:46:47:05:e2:ec:3c:cd:92:c0:
                    ad:e2:3e:5c:18:56:03:13:ed:0f:46:f7:84:5c:9d:
                    2f:ad:73:a6:66:a0:47:0d:15:6f:5b:b8:b6:ab:c4:
                    76:1b:08:e6:c9:f6:4b:6c:06:3a:3e:9b:17:2e:ac:
                    b3:45:3c:ed:f9:db:73:dc:b7:18:a5:d9:d0:de:a5:
                    86:e2:47:d7:5d:04:a6:4d:8b:a3:a8:29:ad:29:d7:
                    e1:3c:5b:04:60:a5:d4:53:6f:dd:cb:f0:68:c3:27:
                    b0:11:17:47:9b:72:56:70:3e:8d:19:5a:5f:54:d5:
                    17:8e:80:2a:5a:84:fa:2e:b0:2d:5c:4e:69:0b:f6:
                    49:a3:57:fd:ab:62:06:71:88:2b:5b:24:fc:05:02:
                    c5:98:cf:ee:cc:8f:55:e1:e5:0b:41:53:ed:e0:c5:
                    7b:68:2f:19:cc:e1:75:c8:20:df:e3:c7:43:81:ab:
                    9a:fd:20:84:a3:57:25:da:3f:f3:36:07:89:6e:00:
                    82:1d:a7:b2:85:62:19:cd:dd:1d:86:5b:df:e8:2d:
                    b3:e8:f0:23:f5:25:8d:df:ba:15:40:3a:03:f1:29:
                    46:51:f1:2b:90:0a:af:3c:ea:2e:1c:0a:e3:77:c8:
                    f2:de:47:21:d2:ba:a7:ef:b3:65:9d:57:f7:46:e2:
                    c9:d2:f9:21:06:52:0a:34:e5:6e:83:00:e1:2e:16:
                    6b:73:69:95:f5:79:f0:c8:49:7e:d7:34:0a:f9:3c:
                    a5:50:89:99:c1:d8:6f:57:40:4c:94:45:67:07:c2:
                    db:11:2e:ba:60:41:ca:7e:ca:c9:70:b4:b7:6f:f0:
                    50:63:c3:85:01:3f:ff:bb:a3:f8:85:86:8b:b1:3d:
                    b6:9a:a5:41:59:9a:fe:78:24:0c:f8:a2:26:5f:be:
                    26:4d:45
                Exponent: 65537 (0x10001)
        X509v3 extensions:
            X509v3 Basic Constraints: 
                CA:FALSE
            Netscape Comment: 
                Easy-RSA Generated Certificate
            X509v3 Subject Key Identifier: 
                89:3A:40:D2:FC:E6:F3:22:1F:13:99:97:A0:0A:83:03:5D:48:BC:68
            X509v3 Authority Key Identifier: 
                keyid:EF:38:8D:14:50:58:A7:5B:4D:9C:17:72:FC:DF:B9:AC:A7:51:B0:10
                DirName:/C=US/ST=CA/L=SanFrancisco/O=Pixglo, Inc./OU=VPN-CIE/CN=tunnel.pixglo.com/name=Bala Chandrasekaran/emailAddress=bala@pixglo.com
                serial:A6:DB:C6:83:80:E6:A0:79

            X509v3 Extended Key Usage: 
                TLS Web Client Authentication
            X509v3 Key Usage: 
                Digital Signature
    Signature Algorithm: sha1WithRSAEncryption
         bb:48:eb:6a:da:98:ed:4a:4e:08:6e:26:ad:5d:7f:70:c8:62:
         8e:e3:18:d8:41:7a:8f:fe:51:b4:2c:53:e9:89:46:8c:03:7b:
         55:f5:6d:ee:94:a7:a8:81:1b:e5:79:fa:6e:90:a5:c8:6f:0d:
         cd:40:bf:df:ce:f4:95:24:6e:83:01:04:e4:b6:a7:82:49:a1:
         bd:06:d0:6c:c6:96:97:2d:c1:6b:6a:1c:64:2c:96:6c:a0:06:
         da:2e:cf:6b:cc:37:53:47:79:5b:6c:7e:da:c5:a5:8e:35:c9:
         ff:81:04:df:f2:29:73:3f:0f:79:54:5b:f1:df:42:c4:4d:d4:
         a1:70:21:16:e5:42:de:91:60:4c:9f:aa:cd:0d:aa:91:93:19:
         b5:c3:c8:02:eb:5c:56:6f:8b:17:f2:2d:59:ad:ba:78:6b:23:
         e7:50:a1:02:49:52:92:db:1d:a9:25:82:c6:fa:8b:ec:5b:dc:
         d1:b0:18:de:be:a5:61:1c:1b:39:3d:55:03:66:ae:d4:63:f1:
         d9:70:60:74:18:ea:84:10:71:2c:53:72:c1:95:6b:14:63:e8:
         a7:e0:38:7d:0c:e5:1b:4e:cb:eb:bd:3f:34:48:a6:db:34:bf:
         14:c4:86:28:92:a8:e0:f5:5d:b1:40:9f:e0:7d:a0:93:17:98:
         ad:0e:68:51:94:1b:39:58:c1:88:14:0f:89:73:fa:ba:00:f8:
         a0:0e:12:27:a0:8b:db:50:d7:a1:cd:37:39:25:78:56:37:cf:
         2b:e8:ce:bd:30:aa:ac:09:c0:e5:b3:e1:9b:4c:cc:d0:aa:5f:
         89:78:73:6a:4f:9b:41:1a:0d:a1:5c:be:ba:ab:b4:5b:06:52:
         40:56:39:12:5d:96:ac:b2:31:b0:00:e1:ee:0b:5b:db:83:d8:
         19:91:1c:02:b7:c6:90:71:78:44:32:54:6c:a6:6d:3e:d0:ba:
         8e:7c:45:4d:68:05:b8:27:a4:c3:ac:9c:dc:6c:30:a4:71:58:
         65:9d:a5:7a:88:df:11:0b:9a:df:8a:d5:cd:f5:08:1e:bd:d3:
         f2:6a:c1:31:d5:9d:e5:fd:e5:1d:b3:31:83:aa:65:57:a3:2e:
         10:6c:88:1b:fb:04:70:9c:b4:22:68:b6:22:93:5d:c4:3c:31:
         8e:55:82:2a:41:2a:2a:d3:da:37:97:58:91:d1:89:db:9c:b1:
         f0:31:57:eb:1d:89:55:20:13:e1:cd:7e:de:16:8b:c6:dd:55:
         5f:5f:95:94:54:90:31:82:4c:b1:14:2b:d8:47:24:ec:32:75:
         53:b6:7d:0f:5a:a2:74:cf:59:d5:93:c3:09:df:ef:7e:3e:86:
         3d:0f:50:4c:b3:ac:62:c1
-----BEGIN CERTIFICATE-----
MIIHSDCCBTCgAwIBAgICA9YwDQYJKoZIhvcNAQEFBQAwgbQxCzAJBgNVBAYTAlVT
MQswCQYDVQQIEwJDQTEVMBMGA1UEBxMMU2FuRnJhbmNpc2NvMRUwEwYDVQQKEwxQ
aXhnbG8sIEluYy4xEDAOBgNVBAsTB1ZQTi1DSUUxGjAYBgNVBAMTEXR1bm5lbC5w
aXhnbG8uY29tMRwwGgYDVQQpExNCYWxhIENoYW5kcmFzZWthcmFuMR4wHAYJKoZI
hvcNAQkBFg9iYWxhQHBpeGdsby5jb20wHhcNMTgwMjE0MDY0OTUzWhcNMjgwMjEy
MDY0OTUzWjCBqTELMAkGA1UEBhMCVVMxCzAJBgNVBAgTAkNBMRUwEwYDVQQHEwxT
YW5GcmFuY2lzY28xFTATBgNVBAoTDFBpeGdsbywgSW5jLjEQMA4GA1UECxMHVlBO
LUNJRTEPMA0GA1UEAxMGY2llOTgxMRwwGgYDVQQpExNCYWxhIENoYW5kcmFzZWth
cmFuMR4wHAYJKoZIhvcNAQkBFg9iYWxhQHBpeGdsby5jb20wggIiMA0GCSqGSIb3
DQEBAQUAA4ICDwAwggIKAoICAQCaQCAV1O9MJeSzUe+ZQIS7R4zw3QBMiBepW9H4
F8fM40KpsHTkhuW31tnY+lBgwWT+E5ttEcsRajtEjlMih8lZZ4iqVy+OnEmC5baj
NchuxLZ+XpRBRlDVWJmX/qGl54w5ZA9AoRHedL/nZTUNR70keXEI5w1ytG4lXFgE
fB6R2AK7LL2mLY2P2hLzYcN/r9X2k8d4duuTVDt/+v793nM7fAC+8A5gD2RVskZH
BeLsPM2SwK3iPlwYVgMT7Q9G94RcnS+tc6ZmoEcNFW9buLarxHYbCObJ9ktsBjo+
mxcurLNFPO3523Pctxil2dDepYbiR9ddBKZNi6OoKa0p1+E8WwRgpdRTb93L8GjD
J7ARF0ebclZwPo0ZWl9U1ReOgCpahPousC1cTmkL9kmjV/2rYgZxiCtbJPwFAsWY
z+7Mj1Xh5QtBU+3gxXtoLxnM4XXIIN/jx0OBq5r9IISjVyXaP/M2B4luAIIdp7KF
YhnN3R2GW9/oLbPo8CP1JY3fuhVAOgPxKUZR8SuQCq886i4cCuN3yPLeRyHSuqfv
s2WdV/dG4snS+SEGUgo05W6DAOEuFmtzaZX1efDISX7XNAr5PKVQiZnB2G9XQEyU
RWcHwtsRLrpgQcp+yslwtLdv8FBjw4UBP/+7o/iFhouxPbaapUFZmv54JAz4oiZf
viZNRQIDAQABo4IBazCCAWcwCQYDVR0TBAIwADAtBglghkgBhvhCAQ0EIBYeRWFz
eS1SU0EgR2VuZXJhdGVkIENlcnRpZmljYXRlMB0GA1UdDgQWBBSJOkDS/ObzIh8T
mZegCoMDXUi8aDCB6QYDVR0jBIHhMIHegBTvOI0UUFinW02cF3L837msp1GwEKGB
uqSBtzCBtDELMAkGA1UEBhMCVVMxCzAJBgNVBAgTAkNBMRUwEwYDVQQHEwxTYW5G
cmFuY2lzY28xFTATBgNVBAoTDFBpeGdsbywgSW5jLjEQMA4GA1UECxMHVlBOLUNJ
RTEaMBgGA1UEAxMRdHVubmVsLnBpeGdsby5jb20xHDAaBgNVBCkTE0JhbGEgQ2hh
bmRyYXNla2FyYW4xHjAcBgkqhkiG9w0BCQEWD2JhbGFAcGl4Z2xvLmNvbYIJAKbb
xoOA5qB5MBMGA1UdJQQMMAoGCCsGAQUFBwMCMAsGA1UdDwQEAwIHgDANBgkqhkiG
9w0BAQUFAAOCAgEAu0jratqY7UpOCG4mrV1/cMhijuMY2EF6j/5RtCxT6YlGjAN7
VfVt7pSnqIEb5Xn6bpClyG8NzUC/3870lSRugwEE5LangkmhvQbQbMaWly3Ba2oc
ZCyWbKAG2i7Pa8w3U0d5W2x+2sWljjXJ/4EE3/Ipcz8PeVRb8d9CxE3UoXAhFuVC
3pFgTJ+qzQ2qkZMZtcPIAutcVm+LF/ItWa26eGsj51ChAklSktsdqSWCxvqL7Fvc
0bAY3r6lYRwbOT1VA2au1GPx2XBgdBjqhBBxLFNywZVrFGPop+A4fQzlG07L670/
NEim2zS/FMSGKJKo4PVdsUCf4H2gkxeYrQ5oUZQbOVjBiBQPiXP6ugD4oA4SJ6CL
21DXoc03OSV4VjfPK+jOvTCqrAnA5bPhm0zM0KpfiXhzak+bQRoNoVy+uqu0WwZS
QFY5El2WrLIxsADh7gtb24PYGZEcArfGkHF4RDJUbKZtPtC6jnxFTWgFuCekw6yc
3GwwpHFYZZ2leojfEQua34rVzfUIHr3T8mrBMdWd5f3lHbMxg6plV6MuEGyIG/sE
cJy0Imi2IpNdxDwxjlWCKkEqKtPaN5dYkdGJ25yx8DFX6x2JVSAT4c1+3haLxt1V
X1+VlFSQMYJMsRQr2Eck7DJ1U7Z9D1qidM9Z1ZPDCd/vfj6GPQ9QTLOsYsE=
-----END CERTIFICATE-----
