Certificate:
    Data:
        Version: 3 (0x2)
        Serial Number: 919 (0x397)
    Signature Algorithm: sha1WithRSAEncryption
        Issuer: C=US, ST=CA, L=SanFrancisco, O=Pixglo, Inc., OU=VPN-CIE, CN=tunnel.pixglo.com/name=Bala Chandrasekaran/emailAddress=bala@pixglo.com
        Validity
            Not Before: Feb 14 06:48:02 2018 GMT
            Not After : Feb 12 06:48:02 2028 GMT
        Subject: C=US, ST=CA, L=SanFrancisco, O=Pixglo, Inc., OU=VPN-CIE, CN=cie918/name=Bala Chandrasekaran/emailAddress=bala@pixglo.com
        Subject Public Key Info:
            Public Key Algorithm: rsaEncryption
                Public-Key: (4096 bit)
                Modulus:
                    00:9a:4b:f6:d8:69:77:35:78:e0:a4:a9:71:a8:34:
                    99:e0:47:60:af:6f:7d:c7:06:e2:f0:d5:13:98:98:
                    76:25:00:71:08:37:c6:3e:67:e5:c3:06:25:21:cf:
                    28:fe:53:31:d3:3d:a3:0f:1e:d5:c9:08:98:20:92:
                    72:88:4a:12:be:5d:40:47:95:05:6c:f7:7c:77:7b:
                    69:93:da:33:b8:64:dc:9c:f5:b2:61:2f:9c:28:cd:
                    55:19:af:85:a2:a3:cc:07:81:05:90:36:21:9f:9d:
                    07:69:a5:ac:a1:ea:6d:ac:44:3c:02:cc:a0:e0:73:
                    af:ef:6f:65:ea:eb:30:19:d4:6c:5e:7b:5b:8d:c0:
                    df:4f:bd:9f:34:b8:7c:84:eb:76:97:4b:cb:4e:48:
                    e4:7a:00:9b:8c:fe:8b:ea:2f:49:5d:76:b8:48:38:
                    2e:03:22:29:3d:48:2a:14:25:fe:6b:7e:85:ee:17:
                    76:b0:2e:f9:9c:47:3a:3e:a4:ef:1d:fe:16:4d:6d:
                    1a:5a:cc:9e:a3:41:29:41:24:65:38:c8:13:84:2c:
                    11:a4:7b:fc:6b:79:7a:e0:1a:dd:6e:5a:cb:3e:f3:
                    6d:11:73:d5:6b:77:4a:97:e0:2c:65:f5:b8:47:38:
                    f3:8d:f1:d7:00:fd:10:d0:1e:dc:30:2c:94:59:d1:
                    90:bd:8f:6e:9c:9b:86:a9:e3:dd:15:46:71:ea:db:
                    98:f2:8c:55:e7:3a:6c:b6:a7:5f:ae:e2:72:80:3e:
                    cf:44:29:83:6e:b8:ac:62:8e:c9:1d:b2:35:5f:95:
                    9b:a8:a4:13:9b:f6:8f:59:1f:26:f0:c2:9f:fe:11:
                    0b:d6:c4:48:26:9f:5c:31:61:41:63:f5:9c:9b:33:
                    ce:d9:9b:e6:5a:6d:23:aa:ea:2f:5f:68:68:36:fd:
                    8c:0b:a2:1c:c0:1b:b6:a9:79:0b:45:a4:e2:59:05:
                    39:59:9c:b9:66:e3:f6:e4:60:cf:cb:76:30:5f:68:
                    22:25:51:25:47:17:2c:d3:a7:25:a2:f8:38:db:3d:
                    e8:8a:a9:1e:05:81:33:5c:72:4c:1e:6c:0e:94:c4:
                    72:12:c7:e0:11:00:af:3c:6d:33:ea:19:d7:72:c4:
                    2f:36:80:13:1a:1f:02:13:09:12:9f:27:9a:17:7a:
                    31:c0:fe:91:80:f8:3e:0c:c8:c7:37:0b:52:8d:79:
                    cc:fa:92:0e:3f:69:c9:5b:32:f5:c2:a5:3c:d0:b5:
                    f8:58:b8:5a:65:e5:7d:f5:2d:5f:c9:4c:2c:c0:11:
                    01:49:c1:6e:4c:69:f3:51:61:3b:dc:c4:14:0e:65:
                    1d:d2:b4:ca:21:73:41:ea:9a:d1:22:cb:73:5a:ba:
                    42:00:cf
                Exponent: 65537 (0x10001)
        X509v3 extensions:
            X509v3 Basic Constraints: 
                CA:FALSE
            Netscape Comment: 
                Easy-RSA Generated Certificate
            X509v3 Subject Key Identifier: 
                66:3D:4B:92:21:52:F2:4D:04:24:B5:F2:65:A3:D4:9B:A1:0A:0E:87
            X509v3 Authority Key Identifier: 
                keyid:EF:38:8D:14:50:58:A7:5B:4D:9C:17:72:FC:DF:B9:AC:A7:51:B0:10
                DirName:/C=US/ST=CA/L=SanFrancisco/O=Pixglo, Inc./OU=VPN-CIE/CN=tunnel.pixglo.com/name=Bala Chandrasekaran/emailAddress=bala@pixglo.com
                serial:A6:DB:C6:83:80:E6:A0:79

            X509v3 Extended Key Usage: 
                TLS Web Client Authentication
            X509v3 Key Usage: 
                Digital Signature
    Signature Algorithm: sha1WithRSAEncryption
         1c:9b:f5:80:d2:3c:23:07:2f:32:4e:6a:64:e3:c5:51:74:a0:
         8f:e4:1f:4e:4d:5d:73:16:1f:e0:3f:34:44:6f:0a:58:d3:6a:
         08:fd:ba:a9:61:e2:03:c5:6e:b1:99:8d:b1:8a:7c:6a:7d:d4:
         c4:17:e1:8b:2a:09:59:d8:47:b9:79:e7:00:ef:b6:76:19:f9:
         a7:cb:12:a3:e6:bd:f0:e3:f1:e1:98:33:88:95:31:49:03:a9:
         84:e8:25:40:53:91:f1:b5:4c:b3:a5:15:01:3e:8f:0d:df:4d:
         f5:ff:73:2c:99:1a:e0:86:58:21:63:16:f2:34:43:c2:50:09:
         7c:e4:30:b0:5f:43:91:a1:ec:c0:31:96:2e:06:66:8f:26:7c:
         c2:46:ae:33:be:80:9b:c9:21:69:df:55:64:bf:c7:36:d8:7a:
         9e:35:79:58:33:c5:18:5b:95:8d:fd:2a:d1:a4:93:06:86:ea:
         8c:76:f5:7f:c9:48:18:ef:67:59:72:5d:60:0b:54:eb:69:7f:
         dd:06:84:af:96:bb:6d:a6:5d:98:12:b3:71:c4:81:46:c8:d9:
         00:b8:19:12:03:ab:d0:ee:f0:dd:9f:20:99:fd:86:64:85:92:
         10:c3:2d:b1:f7:2e:a0:59:80:46:1d:26:a1:15:96:51:e4:0e:
         53:ee:8c:af:ab:d2:49:82:4e:31:bb:58:83:15:a3:e4:0f:36:
         53:1f:9a:58:ef:7d:3f:77:20:a4:67:fd:95:73:84:66:5c:e7:
         8f:73:ad:02:ef:1d:68:20:57:9e:22:8e:b2:54:b3:23:60:49:
         88:cb:68:61:77:e5:ec:5e:4a:5f:e2:37:77:42:5a:0a:96:f2:
         75:97:98:80:b4:c3:08:79:b7:dc:97:78:a5:ee:e6:38:14:2f:
         59:9f:b5:25:e3:70:3a:e6:6a:b0:32:60:38:85:e0:67:ed:88:
         41:09:e5:a7:94:e3:a6:47:ec:75:d4:00:a7:70:c6:20:cc:f2:
         72:8d:63:75:98:be:a9:95:6f:46:47:a5:e3:78:ab:8a:80:a7:
         ee:be:c8:96:bc:64:5a:31:cb:dc:0b:4e:35:bb:e1:95:60:f5:
         f6:43:e5:f7:74:a1:f1:f0:0a:7e:1c:2a:bc:37:3c:20:19:61:
         53:8e:40:d5:53:ca:3e:95:69:4e:2e:35:f9:ea:aa:31:1b:a4:
         23:3a:80:de:80:06:cc:11:66:50:c6:1e:8b:14:49:9c:e8:dd:
         3a:96:66:b6:b9:f7:ce:73:7f:19:47:79:be:39:bc:0b:5e:77:
         88:0a:13:39:ea:48:7a:04:63:41:a5:72:25:42:87:51:2f:7a:
         6b:fb:c6:c2:55:d5:c9:66
-----BEGIN CERTIFICATE-----
MIIHSDCCBTCgAwIBAgICA5cwDQYJKoZIhvcNAQEFBQAwgbQxCzAJBgNVBAYTAlVT
MQswCQYDVQQIEwJDQTEVMBMGA1UEBxMMU2FuRnJhbmNpc2NvMRUwEwYDVQQKEwxQ
aXhnbG8sIEluYy4xEDAOBgNVBAsTB1ZQTi1DSUUxGjAYBgNVBAMTEXR1bm5lbC5w
aXhnbG8uY29tMRwwGgYDVQQpExNCYWxhIENoYW5kcmFzZWthcmFuMR4wHAYJKoZI
hvcNAQkBFg9iYWxhQHBpeGdsby5jb20wHhcNMTgwMjE0MDY0ODAyWhcNMjgwMjEy
MDY0ODAyWjCBqTELMAkGA1UEBhMCVVMxCzAJBgNVBAgTAkNBMRUwEwYDVQQHEwxT
YW5GcmFuY2lzY28xFTATBgNVBAoTDFBpeGdsbywgSW5jLjEQMA4GA1UECxMHVlBO
LUNJRTEPMA0GA1UEAxMGY2llOTE4MRwwGgYDVQQpExNCYWxhIENoYW5kcmFzZWth
cmFuMR4wHAYJKoZIhvcNAQkBFg9iYWxhQHBpeGdsby5jb20wggIiMA0GCSqGSIb3
DQEBAQUAA4ICDwAwggIKAoICAQCaS/bYaXc1eOCkqXGoNJngR2Cvb33HBuLw1ROY
mHYlAHEIN8Y+Z+XDBiUhzyj+UzHTPaMPHtXJCJggknKIShK+XUBHlQVs93x3e2mT
2jO4ZNyc9bJhL5wozVUZr4Wio8wHgQWQNiGfnQdppayh6m2sRDwCzKDgc6/vb2Xq
6zAZ1Gxee1uNwN9PvZ80uHyE63aXS8tOSOR6AJuM/ovqL0lddrhIOC4DIik9SCoU
Jf5rfoXuF3awLvmcRzo+pO8d/hZNbRpazJ6jQSlBJGU4yBOELBGke/xreXrgGt1u
Wss+820Rc9Vrd0qX4Cxl9bhHOPON8dcA/RDQHtwwLJRZ0ZC9j26cm4ap490VRnHq
25jyjFXnOmy2p1+u4nKAPs9EKYNuuKxijskdsjVflZuopBOb9o9ZHybwwp/+EQvW
xEgmn1wxYUFj9ZybM87Zm+ZabSOq6i9faGg2/YwLohzAG7apeQtFpOJZBTlZnLlm
4/bkYM/LdjBfaCIlUSVHFyzTpyWi+DjbPeiKqR4FgTNcckwebA6UxHISx+ARAK88
bTPqGddyxC82gBMaHwITCRKfJ5oXejHA/pGA+D4MyMc3C1KNecz6kg4/aclbMvXC
pTzQtfhYuFpl5X31LV/JTCzAEQFJwW5MafNRYTvcxBQOZR3StMohc0HqmtEiy3Na
ukIAzwIDAQABo4IBazCCAWcwCQYDVR0TBAIwADAtBglghkgBhvhCAQ0EIBYeRWFz
eS1SU0EgR2VuZXJhdGVkIENlcnRpZmljYXRlMB0GA1UdDgQWBBRmPUuSIVLyTQQk
tfJlo9SboQoOhzCB6QYDVR0jBIHhMIHegBTvOI0UUFinW02cF3L837msp1GwEKGB
uqSBtzCBtDELMAkGA1UEBhMCVVMxCzAJBgNVBAgTAkNBMRUwEwYDVQQHEwxTYW5G
cmFuY2lzY28xFTATBgNVBAoTDFBpeGdsbywgSW5jLjEQMA4GA1UECxMHVlBOLUNJ
RTEaMBgGA1UEAxMRdHVubmVsLnBpeGdsby5jb20xHDAaBgNVBCkTE0JhbGEgQ2hh
bmRyYXNla2FyYW4xHjAcBgkqhkiG9w0BCQEWD2JhbGFAcGl4Z2xvLmNvbYIJAKbb
xoOA5qB5MBMGA1UdJQQMMAoGCCsGAQUFBwMCMAsGA1UdDwQEAwIHgDANBgkqhkiG
9w0BAQUFAAOCAgEAHJv1gNI8IwcvMk5qZOPFUXSgj+QfTk1dcxYf4D80RG8KWNNq
CP26qWHiA8VusZmNsYp8an3UxBfhiyoJWdhHuXnnAO+2dhn5p8sSo+a98OPx4Zgz
iJUxSQOphOglQFOR8bVMs6UVAT6PDd9N9f9zLJka4IZYIWMW8jRDwlAJfOQwsF9D
kaHswDGWLgZmjyZ8wkauM76Am8khad9VZL/HNth6njV5WDPFGFuVjf0q0aSTBobq
jHb1f8lIGO9nWXJdYAtU62l/3QaEr5a7baZdmBKzccSBRsjZALgZEgOr0O7w3Z8g
mf2GZIWSEMMtsfcuoFmARh0moRWWUeQOU+6Mr6vSSYJOMbtYgxWj5A82Ux+aWO99
P3cgpGf9lXOEZlznj3OtAu8daCBXniKOslSzI2BJiMtoYXfl7F5KX+I3d0JaCpby
dZeYgLTDCHm33Jd4pe7mOBQvWZ+1JeNwOuZqsDJgOIXgZ+2IQQnlp5TjpkfsddQA
p3DGIMzyco1jdZi+qZVvRkel43irioCn7r7IlrxkWjHL3AtONbvhlWD19kPl93Sh
8fAKfhwqvDc8IBlhU45A1VPKPpVpTi41+eqqMRukIzqA3oAGzBFmUMYeixRJnOjd
OpZmtrn3znN/GUd5vjm8C153iAoTOepIegRjQaVyJUKHUS96a/vGwlXVyWY=
-----END CERTIFICATE-----
