Certificate:
    Data:
        Version: 3 (0x2)
        Serial Number: 209 (0xd1)
    Signature Algorithm: sha1WithRSAEncryption
        Issuer: C=US, ST=CA, L=SanFrancisco, O=Pixglo, Inc., OU=VPN-CIE, CN=tunnel.pixglo.com/name=Bala Chandrasekaran/emailAddress=bala@pixglo.com
        Validity
            Not Before: Feb 14 06:27:04 2018 GMT
            Not After : Feb 12 06:27:04 2028 GMT
        Subject: C=US, ST=CA, L=SanFrancisco, O=Pixglo, Inc., OU=VPN-CIE, CN=cie208/name=Bala Chandrasekaran/emailAddress=bala@pixglo.com
        Subject Public Key Info:
            Public Key Algorithm: rsaEncryption
                Public-Key: (4096 bit)
                Modulus:
                    00:dd:4b:fe:c6:bc:84:43:e2:53:b1:1c:c2:ef:1e:
                    1a:70:1b:a6:09:42:db:94:7f:8f:ea:a5:ae:b5:10:
                    76:aa:07:48:cf:a5:74:23:47:12:b3:f6:da:36:ea:
                    ca:be:cc:f8:fa:2a:f0:b7:2b:74:85:93:c3:90:f6:
                    e1:b8:8f:3c:88:44:24:c5:e6:e8:26:b9:99:8d:7c:
                    3a:2d:36:e7:e8:6e:ef:c0:34:d6:c0:e0:c3:52:a1:
                    77:57:de:78:6a:77:62:52:cb:7b:f5:42:84:9e:02:
                    d0:de:95:4a:00:40:c7:86:5c:a0:8f:0a:bd:74:41:
                    23:b0:91:47:3a:60:be:88:9a:fd:06:1d:11:ad:93:
                    74:f0:a7:b6:b4:58:b6:2c:aa:1b:69:9a:73:4f:a5:
                    bb:85:4f:5d:55:f9:3a:79:7f:10:1e:ff:11:52:79:
                    c7:b4:d7:a9:02:7e:89:f0:24:de:3c:e9:24:b3:88:
                    73:01:25:4c:fa:45:de:06:60:4f:a9:98:b5:93:49:
                    d3:62:29:2b:24:e2:b8:74:38:61:87:16:ee:0b:28:
                    48:3d:33:21:ad:10:d8:4e:c3:e6:85:f9:ca:11:74:
                    90:ae:54:e2:9c:c0:3d:f2:a9:69:23:71:c8:03:19:
                    5d:77:44:40:a0:f7:c4:47:b6:a0:4e:a1:8b:b2:08:
                    14:b0:3a:11:41:4f:fb:d4:db:26:1e:71:f1:cb:85:
                    c7:18:fe:06:80:8c:43:b8:26:cf:34:b8:c8:85:2c:
                    41:ce:c3:17:52:8e:e7:75:63:fa:39:e8:fd:42:52:
                    b6:8d:7f:50:53:72:1a:5f:26:e5:d5:01:cd:2c:13:
                    da:7e:cb:81:17:68:3b:99:2e:bc:fd:ac:e7:ba:d6:
                    11:72:e2:f9:28:58:5a:6a:80:49:2a:c8:1e:c1:34:
                    89:b1:d9:2b:ac:92:d7:1a:18:23:30:5e:e4:d4:a2:
                    50:b2:51:47:2c:e9:22:42:34:95:25:a3:8f:8c:3f:
                    54:8a:57:cb:4b:75:c6:b9:8d:5e:d1:f9:2c:03:19:
                    1e:af:83:53:71:99:3a:4d:e2:19:85:78:1d:0b:7f:
                    3d:42:12:d0:db:08:ee:97:37:65:b7:9f:74:8b:b8:
                    0e:fd:05:8f:b2:2d:fb:44:3f:6a:83:b3:13:6f:6d:
                    87:72:01:d3:93:84:e3:20:34:5c:51:88:ff:1e:b4:
                    8f:77:67:4e:c9:af:c1:24:fe:29:22:55:0f:0e:58:
                    f6:f9:92:f8:c4:60:3b:2e:17:79:59:ce:d4:34:1d:
                    24:f2:f4:1e:4e:9b:13:ff:71:da:7f:38:3f:cf:57:
                    bb:40:40:32:6c:57:aa:1d:e6:5f:ba:fd:94:df:9d:
                    92:cc:5b
                Exponent: 65537 (0x10001)
        X509v3 extensions:
            X509v3 Basic Constraints: 
                CA:FALSE
            Netscape Comment: 
                Easy-RSA Generated Certificate
            X509v3 Subject Key Identifier: 
                14:39:18:71:88:99:15:58:9F:6F:E7:A9:11:D6:7A:07:2D:89:40:C0
            X509v3 Authority Key Identifier: 
                keyid:EF:38:8D:14:50:58:A7:5B:4D:9C:17:72:FC:DF:B9:AC:A7:51:B0:10
                DirName:/C=US/ST=CA/L=SanFrancisco/O=Pixglo, Inc./OU=VPN-CIE/CN=tunnel.pixglo.com/name=Bala Chandrasekaran/emailAddress=bala@pixglo.com
                serial:A6:DB:C6:83:80:E6:A0:79

            X509v3 Extended Key Usage: 
                TLS Web Client Authentication
            X509v3 Key Usage: 
                Digital Signature
    Signature Algorithm: sha1WithRSAEncryption
         9e:3e:9a:21:44:1e:48:8b:f0:c9:2a:5d:ad:bb:e5:22:42:ed:
         d3:e8:8d:56:91:51:03:91:74:2a:81:23:cc:64:aa:5a:e2:6a:
         e3:f3:a8:18:d9:31:23:47:29:a5:ba:34:71:4b:cf:16:87:90:
         bf:0b:c4:19:bf:d2:7b:a1:74:0f:d1:7e:15:a3:d8:93:53:e8:
         af:18:60:13:2b:d4:5d:ec:2e:51:22:c0:0d:2f:14:d0:81:8c:
         6c:f2:11:16:cd:b9:27:b9:e5:f7:fe:72:0e:c6:d1:86:f0:40:
         63:21:d0:8e:a9:a4:15:46:52:a2:6c:3b:fb:08:b6:95:a2:b6:
         db:e2:83:e1:45:2f:d7:fc:52:48:a3:00:18:0b:cd:bf:11:12:
         14:74:f9:7d:43:f0:00:ed:e4:52:c5:71:1d:6f:2b:e0:5d:fd:
         a4:ba:16:3e:5b:f2:f2:93:08:16:1b:b3:60:54:5f:f5:98:5e:
         1f:e6:29:11:f2:60:79:70:1b:ae:2a:e7:7a:de:ae:9b:2b:5a:
         e1:b7:1f:42:53:d2:f8:4b:d7:99:c3:12:08:39:14:64:eb:b8:
         c6:7f:de:b7:d3:74:2c:0f:fa:84:0d:7c:f2:45:fe:c2:66:19:
         61:f0:2b:54:e7:71:ea:8c:26:67:b9:bf:ba:3c:3b:eb:a9:c5:
         ba:23:37:44:1b:d5:de:99:1e:7d:95:39:9e:57:70:a5:70:7e:
         76:0d:ae:79:0d:e1:20:0a:f4:b8:e1:4f:e5:9f:a3:f2:64:a3:
         ba:53:2a:96:6f:a9:f3:01:dd:2a:7b:14:a8:1e:21:89:b4:d0:
         ed:d5:66:38:e5:20:05:8a:70:bd:86:b8:ea:bf:38:0b:61:ca:
         c2:44:e4:dd:54:ae:d8:14:df:97:6e:76:26:72:62:6a:16:cf:
         4c:d9:65:68:05:7a:1e:44:7f:74:32:e3:3c:21:99:52:40:be:
         c6:7f:6d:66:6b:a5:c2:ae:d7:7d:1d:e0:ac:cd:ed:80:1d:b2:
         d0:1a:c4:08:01:23:40:28:0f:e6:e3:8e:e9:e6:f5:8f:29:67:
         34:75:22:4d:f6:d2:d4:3f:d1:10:c8:db:cc:01:4e:2c:73:af:
         4f:f3:14:bf:fb:9b:f9:5b:4e:20:ec:46:d1:dd:59:69:22:53:
         c2:75:30:b8:53:8b:7d:6d:dc:d2:44:ff:86:8d:7e:39:12:5e:
         71:20:79:54:b5:70:79:d8:0b:dd:8a:f8:6b:04:09:27:62:43:
         9f:59:af:5f:6e:43:2b:15:59:3c:2a:d6:fa:03:8f:4d:e9:13:
         2e:0e:4e:c0:3a:95:89:1e:27:c5:7a:77:f8:1c:a5:b2:c7:2b:
         26:e4:6d:ef:4e:50:56:cf
-----BEGIN CERTIFICATE-----
MIIHSDCCBTCgAwIBAgICANEwDQYJKoZIhvcNAQEFBQAwgbQxCzAJBgNVBAYTAlVT
MQswCQYDVQQIEwJDQTEVMBMGA1UEBxMMU2FuRnJhbmNpc2NvMRUwEwYDVQQKEwxQ
aXhnbG8sIEluYy4xEDAOBgNVBAsTB1ZQTi1DSUUxGjAYBgNVBAMTEXR1bm5lbC5w
aXhnbG8uY29tMRwwGgYDVQQpExNCYWxhIENoYW5kcmFzZWthcmFuMR4wHAYJKoZI
hvcNAQkBFg9iYWxhQHBpeGdsby5jb20wHhcNMTgwMjE0MDYyNzA0WhcNMjgwMjEy
MDYyNzA0WjCBqTELMAkGA1UEBhMCVVMxCzAJBgNVBAgTAkNBMRUwEwYDVQQHEwxT
YW5GcmFuY2lzY28xFTATBgNVBAoTDFBpeGdsbywgSW5jLjEQMA4GA1UECxMHVlBO
LUNJRTEPMA0GA1UEAxMGY2llMjA4MRwwGgYDVQQpExNCYWxhIENoYW5kcmFzZWth
cmFuMR4wHAYJKoZIhvcNAQkBFg9iYWxhQHBpeGdsby5jb20wggIiMA0GCSqGSIb3
DQEBAQUAA4ICDwAwggIKAoICAQDdS/7GvIRD4lOxHMLvHhpwG6YJQtuUf4/qpa61
EHaqB0jPpXQjRxKz9to26sq+zPj6KvC3K3SFk8OQ9uG4jzyIRCTF5ugmuZmNfDot
Nufobu/ANNbA4MNSoXdX3nhqd2JSy3v1QoSeAtDelUoAQMeGXKCPCr10QSOwkUc6
YL6Imv0GHRGtk3Twp7a0WLYsqhtpmnNPpbuFT11V+Tp5fxAe/xFSece016kCfonw
JN486SSziHMBJUz6Rd4GYE+pmLWTSdNiKSsk4rh0OGGHFu4LKEg9MyGtENhOw+aF
+coRdJCuVOKcwD3yqWkjccgDGV13RECg98RHtqBOoYuyCBSwOhFBT/vU2yYecfHL
hccY/gaAjEO4Js80uMiFLEHOwxdSjud1Y/o56P1CUraNf1BTchpfJuXVAc0sE9p+
y4EXaDuZLrz9rOe61hFy4vkoWFpqgEkqyB7BNImx2SusktcaGCMwXuTUolCyUUcs
6SJCNJUlo4+MP1SKV8tLdca5jV7R+SwDGR6vg1NxmTpN4hmFeB0Lfz1CEtDbCO6X
N2W3n3SLuA79BY+yLftEP2qDsxNvbYdyAdOThOMgNFxRiP8etI93Z07Jr8Ek/iki
VQ8OWPb5kvjEYDsuF3lZztQ0HSTy9B5OmxP/cdp/OD/PV7tAQDJsV6od5l+6/ZTf
nZLMWwIDAQABo4IBazCCAWcwCQYDVR0TBAIwADAtBglghkgBhvhCAQ0EIBYeRWFz
eS1SU0EgR2VuZXJhdGVkIENlcnRpZmljYXRlMB0GA1UdDgQWBBQUORhxiJkVWJ9v
56kR1noHLYlAwDCB6QYDVR0jBIHhMIHegBTvOI0UUFinW02cF3L837msp1GwEKGB
uqSBtzCBtDELMAkGA1UEBhMCVVMxCzAJBgNVBAgTAkNBMRUwEwYDVQQHEwxTYW5G
cmFuY2lzY28xFTATBgNVBAoTDFBpeGdsbywgSW5jLjEQMA4GA1UECxMHVlBOLUNJ
RTEaMBgGA1UEAxMRdHVubmVsLnBpeGdsby5jb20xHDAaBgNVBCkTE0JhbGEgQ2hh
bmRyYXNla2FyYW4xHjAcBgkqhkiG9w0BCQEWD2JhbGFAcGl4Z2xvLmNvbYIJAKbb
xoOA5qB5MBMGA1UdJQQMMAoGCCsGAQUFBwMCMAsGA1UdDwQEAwIHgDANBgkqhkiG
9w0BAQUFAAOCAgEAnj6aIUQeSIvwySpdrbvlIkLt0+iNVpFRA5F0KoEjzGSqWuJq
4/OoGNkxI0cppbo0cUvPFoeQvwvEGb/Se6F0D9F+FaPYk1PorxhgEyvUXewuUSLA
DS8U0IGMbPIRFs25J7nl9/5yDsbRhvBAYyHQjqmkFUZSomw7+wi2laK22+KD4UUv
1/xSSKMAGAvNvxESFHT5fUPwAO3kUsVxHW8r4F39pLoWPlvy8pMIFhuzYFRf9Zhe
H+YpEfJgeXAbrirnet6umyta4bcfQlPS+EvXmcMSCDkUZOu4xn/et9N0LA/6hA18
8kX+wmYZYfArVOdx6owmZ7m/ujw766nFuiM3RBvV3pkefZU5nldwpXB+dg2ueQ3h
IAr0uOFP5Z+j8mSjulMqlm+p8wHdKnsUqB4hibTQ7dVmOOUgBYpwvYa46r84C2HK
wkTk3VSu2BTfl252JnJiahbPTNllaAV6HkR/dDLjPCGZUkC+xn9tZmulwq7XfR3g
rM3tgB2y0BrECAEjQCgP5uOO6eb1jylnNHUiTfbS1D/REMjbzAFOLHOvT/MUv/ub
+VtOIOxG0d1ZaSJTwnUwuFOLfW3c0kT/ho1+ORJecSB5VLVwedgL3Yr4awQJJ2JD
n1mvX25DKxVZPCrW+gOPTekTLg5OwDqViR4nxXp3+BylsscrJuRt705QVs8=
-----END CERTIFICATE-----
