Certificate:
    Data:
        Version: 3 (0x2)
        Serial Number: 211 (0xd3)
    Signature Algorithm: sha1WithRSAEncryption
        Issuer: C=US, ST=CA, L=SanFrancisco, O=Pixglo, Inc., OU=VPN-CIE, CN=tunnel.pixglo.com/name=Bala Chandrasekaran/emailAddress=bala@pixglo.com
        Validity
            Not Before: Feb 14 06:27:05 2018 GMT
            Not After : Feb 12 06:27:05 2028 GMT
        Subject: C=US, ST=CA, L=SanFrancisco, O=Pixglo, Inc., OU=VPN-CIE, CN=cie210/name=Bala Chandrasekaran/emailAddress=bala@pixglo.com
        Subject Public Key Info:
            Public Key Algorithm: rsaEncryption
                Public-Key: (4096 bit)
                Modulus:
                    00:b8:ee:9f:06:e0:27:93:7b:eb:e2:27:2c:cb:56:
                    96:08:21:a1:d0:91:39:7f:cb:2e:67:0e:d5:72:77:
                    5b:ca:79:9c:aa:9f:04:a3:84:44:4c:fe:f4:b9:aa:
                    95:61:e4:68:2c:33:f5:35:88:cc:76:92:0f:3f:d7:
                    58:1f:a4:27:01:d9:a7:31:bd:e9:92:42:a0:39:84:
                    74:45:ec:8d:b2:7c:88:dd:6a:bd:da:66:2f:76:8f:
                    eb:0b:43:27:ed:88:51:76:1d:d8:1b:7d:a5:11:39:
                    6f:b6:7a:18:ec:bd:fe:4f:53:ff:71:c1:93:6e:a0:
                    63:45:03:9c:61:08:4e:63:47:94:0c:b5:61:6e:e3:
                    69:d9:b6:45:30:6e:92:e3:18:39:6d:e8:57:7f:15:
                    70:cb:c0:4d:0f:b7:50:e1:3b:9b:20:a6:d0:9e:fc:
                    71:89:0a:d6:8b:15:8a:48:5f:3d:f4:2d:19:df:6b:
                    f8:a4:0e:67:bd:94:f7:83:35:d0:8e:dd:74:8e:19:
                    58:a6:88:4e:b3:5b:f6:85:39:01:aa:80:69:05:a1:
                    e8:b2:6a:8e:4c:70:23:1a:79:17:12:6c:f7:c0:e6:
                    a7:e8:a8:1d:0c:83:2b:cd:8e:38:d8:5d:15:88:c5:
                    5b:91:79:19:2a:01:46:2e:71:b7:31:3e:cf:b6:98:
                    b3:2e:3a:b9:f0:ad:06:bb:e2:4b:e4:33:9a:c7:c1:
                    3a:a8:f3:78:12:9c:7a:bc:81:55:95:5a:6f:a1:39:
                    be:92:57:f9:e7:84:41:bb:ee:4e:bc:b6:a1:57:13:
                    ca:e0:6e:da:8f:34:8c:4b:ef:54:8f:cc:91:4e:39:
                    09:6f:3d:d9:43:c8:c7:b6:b4:8e:ed:38:51:c8:2a:
                    2f:45:1c:c4:4f:43:a8:35:76:8d:c9:8d:48:8c:a5:
                    94:3e:be:66:88:43:0c:2c:3f:95:b6:e9:43:35:29:
                    81:fa:b6:84:d1:ff:9b:7f:01:4b:38:17:59:4e:a9:
                    19:4a:50:75:90:9d:22:e4:56:67:03:fa:95:ba:0b:
                    b5:91:c8:b2:09:1d:85:17:25:4c:39:ec:02:90:c9:
                    35:3a:e7:5a:a8:f7:2c:91:c6:54:6a:ac:8c:a0:b0:
                    f7:07:0a:87:5a:f0:75:e6:39:98:f0:c2:a4:fd:64:
                    a4:5e:30:e1:53:b9:f3:a3:9a:4c:2e:67:86:9d:c9:
                    10:aa:4e:93:36:f1:69:5b:66:02:79:b3:3f:66:bb:
                    f8:31:d0:36:22:00:8d:18:3c:78:42:39:c4:f1:4f:
                    b7:67:46:42:b6:08:b7:e0:ce:8f:27:51:f4:fd:82:
                    5d:b5:99:ca:c4:b0:2a:e1:7e:31:f1:08:cf:49:ea:
                    32:41:79
                Exponent: 65537 (0x10001)
        X509v3 extensions:
            X509v3 Basic Constraints: 
                CA:FALSE
            Netscape Comment: 
                Easy-RSA Generated Certificate
            X509v3 Subject Key Identifier: 
                27:D6:D9:67:31:BA:6B:CB:BD:1D:55:41:39:EF:29:59:FF:9B:88:A7
            X509v3 Authority Key Identifier: 
                keyid:EF:38:8D:14:50:58:A7:5B:4D:9C:17:72:FC:DF:B9:AC:A7:51:B0:10
                DirName:/C=US/ST=CA/L=SanFrancisco/O=Pixglo, Inc./OU=VPN-CIE/CN=tunnel.pixglo.com/name=Bala Chandrasekaran/emailAddress=bala@pixglo.com
                serial:A6:DB:C6:83:80:E6:A0:79

            X509v3 Extended Key Usage: 
                TLS Web Client Authentication
            X509v3 Key Usage: 
                Digital Signature
    Signature Algorithm: sha1WithRSAEncryption
         19:14:8d:5f:55:1f:ce:dd:c6:23:78:03:5a:16:26:5a:22:24:
         d5:63:ab:c0:6d:e0:18:7c:76:ad:5a:16:7e:d5:61:73:1a:ae:
         15:54:86:1b:5f:d9:fa:10:7e:6a:50:27:54:8f:6b:d3:d2:3d:
         79:d9:85:0b:fc:2c:e3:c1:5e:e9:10:95:cd:e0:0d:d3:75:2d:
         65:50:30:73:f5:4d:42:f0:25:04:2e:2e:37:2a:d2:41:6d:b9:
         6c:88:82:0c:44:bc:89:27:7f:8c:ca:81:25:45:de:dd:6b:5d:
         12:13:a2:72:8e:f0:62:04:7f:ab:a8:f8:c3:50:7c:21:a4:f0:
         e2:58:07:b8:83:79:71:f9:ed:a3:bc:08:15:dd:84:1c:22:35:
         a2:b2:c3:77:17:58:43:c6:3f:3f:82:c9:b1:5c:3e:1d:d2:90:
         e6:f0:cd:06:b5:e8:39:15:12:72:b6:e3:e7:6f:d4:06:4a:5d:
         04:50:04:38:6e:35:25:d9:4e:f3:ed:ba:0d:0c:0e:ff:40:76:
         51:bf:01:5a:6d:05:6e:e2:f7:45:a9:37:44:0e:c3:26:4f:43:
         2f:b6:93:59:3d:4d:eb:fb:65:e8:3b:6d:ad:1b:4f:ff:20:dd:
         3e:32:cc:46:30:e9:a3:3d:3d:33:0a:ad:52:27:03:d7:08:a4:
         8a:f7:47:2b:b4:5e:03:16:ad:81:f6:ee:21:2e:1e:df:cc:91:
         51:c8:44:e5:95:a0:43:94:f9:92:1c:08:54:8c:17:d7:ce:a1:
         67:4f:78:f4:39:b4:34:e8:4d:ce:85:b1:e3:fc:a3:ac:9e:95:
         c4:c7:7a:06:53:fd:f1:db:58:9c:d5:20:73:b1:7a:b2:41:c4:
         63:85:6d:67:05:24:b7:1d:73:73:8e:12:78:72:7b:8b:04:56:
         35:5b:06:e9:7e:e2:fa:f0:cf:d3:38:c5:a8:c6:eb:7d:94:4e:
         59:49:36:b6:c2:d7:3c:be:14:71:a5:8a:3b:4f:d7:a6:dc:b1:
         09:3d:4a:f7:1c:dc:74:cd:79:4f:e2:ab:75:13:d5:01:dc:d3:
         3b:02:15:29:d1:85:f3:73:89:a8:8f:d1:56:76:1c:15:57:a0:
         04:c4:fa:77:fa:d9:2c:ab:39:64:8c:4a:f5:77:33:4a:ef:0a:
         88:2f:73:a4:64:2d:66:79:bf:78:b7:39:93:6f:5a:ed:60:27:
         fb:97:b1:5e:f5:b3:19:35:81:8c:87:1b:d3:e5:58:cb:90:56:
         1b:44:15:43:ae:ab:c8:b3:0d:59:aa:01:f1:7e:f7:c4:6a:66:
         20:95:45:10:85:c3:da:ac:60:9a:4e:31:73:0c:3d:86:23:2b:
         1c:44:c8:2c:01:52:45:f8
-----BEGIN CERTIFICATE-----
MIIHSDCCBTCgAwIBAgICANMwDQYJKoZIhvcNAQEFBQAwgbQxCzAJBgNVBAYTAlVT
MQswCQYDVQQIEwJDQTEVMBMGA1UEBxMMU2FuRnJhbmNpc2NvMRUwEwYDVQQKEwxQ
aXhnbG8sIEluYy4xEDAOBgNVBAsTB1ZQTi1DSUUxGjAYBgNVBAMTEXR1bm5lbC5w
aXhnbG8uY29tMRwwGgYDVQQpExNCYWxhIENoYW5kcmFzZWthcmFuMR4wHAYJKoZI
hvcNAQkBFg9iYWxhQHBpeGdsby5jb20wHhcNMTgwMjE0MDYyNzA1WhcNMjgwMjEy
MDYyNzA1WjCBqTELMAkGA1UEBhMCVVMxCzAJBgNVBAgTAkNBMRUwEwYDVQQHEwxT
YW5GcmFuY2lzY28xFTATBgNVBAoTDFBpeGdsbywgSW5jLjEQMA4GA1UECxMHVlBO
LUNJRTEPMA0GA1UEAxMGY2llMjEwMRwwGgYDVQQpExNCYWxhIENoYW5kcmFzZWth
cmFuMR4wHAYJKoZIhvcNAQkBFg9iYWxhQHBpeGdsby5jb20wggIiMA0GCSqGSIb3
DQEBAQUAA4ICDwAwggIKAoICAQC47p8G4CeTe+viJyzLVpYIIaHQkTl/yy5nDtVy
d1vKeZyqnwSjhERM/vS5qpVh5GgsM/U1iMx2kg8/11gfpCcB2acxvemSQqA5hHRF
7I2yfIjdar3aZi92j+sLQyftiFF2HdgbfaUROW+2ehjsvf5PU/9xwZNuoGNFA5xh
CE5jR5QMtWFu42nZtkUwbpLjGDlt6Fd/FXDLwE0Pt1DhO5sgptCe/HGJCtaLFYpI
Xz30LRnfa/ikDme9lPeDNdCO3XSOGVimiE6zW/aFOQGqgGkFoeiyao5McCMaeRcS
bPfA5qfoqB0MgyvNjjjYXRWIxVuReRkqAUYucbcxPs+2mLMuOrnwrQa74kvkM5rH
wTqo83gSnHq8gVWVWm+hOb6SV/nnhEG77k68tqFXE8rgbtqPNIxL71SPzJFOOQlv
PdlDyMe2tI7tOFHIKi9FHMRPQ6g1do3JjUiMpZQ+vmaIQwwsP5W26UM1KYH6toTR
/5t/AUs4F1lOqRlKUHWQnSLkVmcD+pW6C7WRyLIJHYUXJUw57AKQyTU651qo9yyR
xlRqrIygsPcHCoda8HXmOZjwwqT9ZKReMOFTufOjmkwuZ4adyRCqTpM28WlbZgJ5
sz9mu/gx0DYiAI0YPHhCOcTxT7dnRkK2CLfgzo8nUfT9gl21mcrEsCrhfjHxCM9J
6jJBeQIDAQABo4IBazCCAWcwCQYDVR0TBAIwADAtBglghkgBhvhCAQ0EIBYeRWFz
eS1SU0EgR2VuZXJhdGVkIENlcnRpZmljYXRlMB0GA1UdDgQWBBQn1tlnMbpry70d
VUE57ylZ/5uIpzCB6QYDVR0jBIHhMIHegBTvOI0UUFinW02cF3L837msp1GwEKGB
uqSBtzCBtDELMAkGA1UEBhMCVVMxCzAJBgNVBAgTAkNBMRUwEwYDVQQHEwxTYW5G
cmFuY2lzY28xFTATBgNVBAoTDFBpeGdsbywgSW5jLjEQMA4GA1UECxMHVlBOLUNJ
RTEaMBgGA1UEAxMRdHVubmVsLnBpeGdsby5jb20xHDAaBgNVBCkTE0JhbGEgQ2hh
bmRyYXNla2FyYW4xHjAcBgkqhkiG9w0BCQEWD2JhbGFAcGl4Z2xvLmNvbYIJAKbb
xoOA5qB5MBMGA1UdJQQMMAoGCCsGAQUFBwMCMAsGA1UdDwQEAwIHgDANBgkqhkiG
9w0BAQUFAAOCAgEAGRSNX1Ufzt3GI3gDWhYmWiIk1WOrwG3gGHx2rVoWftVhcxqu
FVSGG1/Z+hB+alAnVI9r09I9edmFC/ws48Fe6RCVzeAN03UtZVAwc/VNQvAlBC4u
NyrSQW25bIiCDES8iSd/jMqBJUXe3WtdEhOico7wYgR/q6j4w1B8IaTw4lgHuIN5
cfnto7wIFd2EHCI1orLDdxdYQ8Y/P4LJsVw+HdKQ5vDNBrXoORUScrbj52/UBkpd
BFAEOG41JdlO8+26DQwO/0B2Ub8BWm0FbuL3Rak3RA7DJk9DL7aTWT1N6/tl6Dtt
rRtP/yDdPjLMRjDpoz09MwqtUicD1wikivdHK7ReAxatgfbuIS4e38yRUchE5ZWg
Q5T5khwIVIwX186hZ0949Dm0NOhNzoWx4/yjrJ6VxMd6BlP98dtYnNUgc7F6skHE
Y4VtZwUktx1zc44SeHJ7iwRWNVsG6X7i+vDP0zjFqMbrfZROWUk2tsLXPL4UcaWK
O0/XptyxCT1K9xzcdM15T+KrdRPVAdzTOwIVKdGF83OJqI/RVnYcFVegBMT6d/rZ
LKs5ZIxK9XczSu8KiC9zpGQtZnm/eLc5k29a7WAn+5exXvWzGTWBjIcb0+VYy5BW
G0QVQ66ryLMNWaoB8X73xGpmIJVFEIXD2qxgmk4xcww9hiMrHETILAFSRfg=
-----END CERTIFICATE-----
