Certificate:
    Data:
        Version: 3 (0x2)
        Serial Number: 214 (0xd6)
    Signature Algorithm: sha1WithRSAEncryption
        Issuer: C=US, ST=CA, L=SanFrancisco, O=Pixglo, Inc., OU=VPN-CIE, CN=tunnel.pixglo.com/name=Bala Chandrasekaran/emailAddress=bala@pixglo.com
        Validity
            Not Before: Feb 14 06:28:48 2018 GMT
            Not After : Feb 12 06:28:48 2028 GMT
        Subject: C=US, ST=CA, L=SanFrancisco, O=Pixglo, Inc., OU=VPN-CIE, CN=cie213/name=Bala Chandrasekaran/emailAddress=bala@pixglo.com
        Subject Public Key Info:
            Public Key Algorithm: rsaEncryption
                Public-Key: (4096 bit)
                Modulus:
                    00:c7:2b:9e:df:0f:06:d9:ba:fb:bb:45:74:f6:ae:
                    11:27:ce:8d:08:7f:93:7a:77:ed:6e:11:89:25:0d:
                    df:b1:4d:75:bd:91:fe:cc:0c:d0:03:5b:a0:fb:d1:
                    67:f2:2c:73:5d:9d:26:40:9f:f4:06:d7:75:33:65:
                    4a:13:c0:4b:4b:c7:ab:bf:ca:bb:14:1e:86:70:76:
                    ee:53:80:f2:5e:26:47:dc:5b:0c:de:f2:2d:85:7e:
                    ca:35:a4:e9:a9:0a:37:f9:bb:63:43:bf:aa:d1:e3:
                    78:4a:8e:ef:22:21:6a:8b:10:84:a3:e8:45:8b:3b:
                    78:27:09:d1:be:ed:e9:08:72:1d:d1:c0:69:b2:48:
                    af:69:2d:38:c8:bf:43:5f:4d:78:62:78:82:c7:59:
                    ac:3e:a1:f9:aa:09:cb:91:f9:86:4d:ed:8a:22:36:
                    22:d8:c8:74:c9:39:0b:2a:14:c4:67:76:78:12:9b:
                    b4:28:08:78:03:6e:38:bb:39:51:19:eb:c4:13:bc:
                    89:07:6c:13:a6:12:f4:e5:68:d9:88:74:ec:c3:46:
                    be:da:a9:63:66:19:4a:f4:72:fb:13:34:a2:35:00:
                    09:a6:1b:65:18:43:d4:77:d1:fa:9c:a6:98:bf:7a:
                    d8:93:22:bf:92:b4:fd:33:12:50:dd:4e:80:eb:ac:
                    ee:3a:48:2f:d5:95:65:bf:10:3e:84:3a:e0:3a:ab:
                    6e:7c:a5:cb:21:08:5e:1f:9a:72:bf:6e:47:0e:79:
                    7c:fc:79:17:f0:a9:4d:09:1d:57:44:cd:c5:69:8f:
                    a9:97:ad:dc:60:f9:f4:c9:1b:72:ba:a1:71:43:e0:
                    5e:30:e0:cc:5b:87:79:85:71:39:f3:de:25:fc:33:
                    34:26:7b:b0:55:ef:fa:3c:db:aa:d7:05:6c:55:95:
                    d0:d2:de:9f:1b:23:b6:85:6a:dd:50:01:78:0e:0e:
                    21:ec:e4:02:bf:6f:66:4f:7b:fc:9b:97:dc:66:b8:
                    71:97:0e:a2:91:7c:c5:55:1d:48:07:64:b7:40:6f:
                    da:f2:e7:f6:88:97:de:63:a5:a1:a7:43:14:67:a8:
                    1f:fc:ab:24:33:95:ba:4d:fc:45:d3:db:82:c4:10:
                    8c:fb:72:55:38:ff:d4:75:d2:75:4b:1a:51:9d:a3:
                    9a:ed:ca:90:1e:4f:13:a2:c2:bf:04:38:01:34:1b:
                    0e:36:3b:d4:21:f7:d9:82:87:4d:52:62:ee:bb:cc:
                    a7:e2:16:4b:7d:e1:6e:8e:99:56:c7:1f:05:d1:a3:
                    19:d7:7b:1e:1e:5a:02:2e:ed:53:bb:54:aa:de:73:
                    0e:50:dc:b1:f5:05:2e:eb:2f:67:ef:fc:d6:ff:54:
                    07:5b:8b
                Exponent: 65537 (0x10001)
        X509v3 extensions:
            X509v3 Basic Constraints: 
                CA:FALSE
            Netscape Comment: 
                Easy-RSA Generated Certificate
            X509v3 Subject Key Identifier: 
                65:96:E1:CD:81:69:3A:88:EF:AC:E8:87:78:9E:19:D3:73:52:BE:3D
            X509v3 Authority Key Identifier: 
                keyid:EF:38:8D:14:50:58:A7:5B:4D:9C:17:72:FC:DF:B9:AC:A7:51:B0:10
                DirName:/C=US/ST=CA/L=SanFrancisco/O=Pixglo, Inc./OU=VPN-CIE/CN=tunnel.pixglo.com/name=Bala Chandrasekaran/emailAddress=bala@pixglo.com
                serial:A6:DB:C6:83:80:E6:A0:79

            X509v3 Extended Key Usage: 
                TLS Web Client Authentication
            X509v3 Key Usage: 
                Digital Signature
    Signature Algorithm: sha1WithRSAEncryption
         57:0e:6c:e8:0d:49:52:7c:d9:ea:4d:4f:2d:5f:4e:3e:2b:e9:
         e5:bc:2f:5e:f1:ec:90:96:14:03:f9:5b:cc:fc:47:d8:3f:e8:
         e6:8c:c0:1a:49:2a:58:b8:2f:05:0f:8b:57:0c:9e:62:8d:2c:
         8e:05:d9:72:2c:0a:f0:ec:0a:c9:90:46:60:55:62:91:a9:9b:
         8c:de:eb:bf:c0:86:3f:4f:b6:c8:ef:d1:1e:77:24:40:68:0c:
         e9:12:5e:dc:2d:b1:7f:4b:1e:8a:d5:f1:44:27:9a:04:55:0a:
         1a:32:3f:6d:8b:5c:66:f6:fb:1e:51:76:3c:e9:a6:04:1d:4a:
         bc:6d:95:aa:e8:3f:12:41:08:55:6c:e5:8e:d1:44:c0:d9:a0:
         a7:a3:1d:e7:6f:46:cb:a6:98:e2:6c:d8:97:75:cb:f9:dd:c2:
         5d:05:0a:3e:3a:1f:76:a4:90:e3:7f:f6:0f:ca:c1:57:50:b1:
         c3:df:42:fd:96:4b:ec:ed:fc:f4:36:00:6d:40:cd:68:45:eb:
         60:20:7e:1f:e0:f9:f9:3e:ae:e2:57:d1:0c:6e:01:dd:0b:74:
         c3:d1:ae:67:38:57:b5:e5:8e:5b:8b:26:9e:11:67:6a:d1:bd:
         da:5c:68:ea:6c:de:75:0c:31:1a:c8:96:90:58:6a:ca:cd:d0:
         f7:04:5c:4e:e8:f1:fa:95:f7:25:ae:ba:86:ff:df:7c:2a:20:
         52:0c:bd:3b:56:b8:37:2d:cc:4d:af:1d:0c:cd:57:b4:5f:b5:
         e8:73:dc:6f:ea:b5:15:07:d2:38:f8:d7:07:6a:52:94:b5:b8:
         b5:98:d4:9c:c7:81:0b:b1:37:15:72:28:fc:30:9b:f6:4d:13:
         07:77:a6:5d:c7:13:d7:07:16:fe:67:d7:6c:36:eb:e1:05:ca:
         4b:29:97:09:3c:04:08:d4:eb:a7:b7:48:7d:9c:80:eb:64:e0:
         ee:49:e9:44:79:49:5f:50:2c:89:18:0d:0b:1d:31:08:e8:1a:
         c4:43:d4:9c:22:89:39:9f:09:dd:00:46:c5:54:be:50:60:18:
         08:5e:97:84:38:47:60:86:c3:9d:27:6d:fb:73:5f:f5:11:5d:
         e9:7f:16:58:a3:b0:e9:1e:2c:58:c6:ad:44:e4:a7:b2:7f:1d:
         63:ef:42:2d:74:f3:52:02:5b:72:3a:fa:d9:d4:32:f2:33:95:
         43:4f:1b:68:bd:f4:87:36:d5:10:57:c2:9a:72:b5:0f:0b:dd:
         cb:ed:a1:5b:9c:77:e1:c3:9d:84:17:d0:10:f3:b9:43:27:0b:
         bd:20:00:2c:3c:e0:52:62:ce:53:62:7d:9d:34:e1:f6:d8:2f:
         77:7e:93:e4:ec:49:cb:5a
-----BEGIN CERTIFICATE-----
MIIHSDCCBTCgAwIBAgICANYwDQYJKoZIhvcNAQEFBQAwgbQxCzAJBgNVBAYTAlVT
MQswCQYDVQQIEwJDQTEVMBMGA1UEBxMMU2FuRnJhbmNpc2NvMRUwEwYDVQQKEwxQ
aXhnbG8sIEluYy4xEDAOBgNVBAsTB1ZQTi1DSUUxGjAYBgNVBAMTEXR1bm5lbC5w
aXhnbG8uY29tMRwwGgYDVQQpExNCYWxhIENoYW5kcmFzZWthcmFuMR4wHAYJKoZI
hvcNAQkBFg9iYWxhQHBpeGdsby5jb20wHhcNMTgwMjE0MDYyODQ4WhcNMjgwMjEy
MDYyODQ4WjCBqTELMAkGA1UEBhMCVVMxCzAJBgNVBAgTAkNBMRUwEwYDVQQHEwxT
YW5GcmFuY2lzY28xFTATBgNVBAoTDFBpeGdsbywgSW5jLjEQMA4GA1UECxMHVlBO
LUNJRTEPMA0GA1UEAxMGY2llMjEzMRwwGgYDVQQpExNCYWxhIENoYW5kcmFzZWth
cmFuMR4wHAYJKoZIhvcNAQkBFg9iYWxhQHBpeGdsby5jb20wggIiMA0GCSqGSIb3
DQEBAQUAA4ICDwAwggIKAoICAQDHK57fDwbZuvu7RXT2rhEnzo0If5N6d+1uEYkl
Dd+xTXW9kf7MDNADW6D70WfyLHNdnSZAn/QG13UzZUoTwEtLx6u/yrsUHoZwdu5T
gPJeJkfcWwze8i2Ffso1pOmpCjf5u2NDv6rR43hKju8iIWqLEISj6EWLO3gnCdG+
7ekIch3RwGmySK9pLTjIv0NfTXhieILHWaw+ofmqCcuR+YZN7YoiNiLYyHTJOQsq
FMRndngSm7QoCHgDbji7OVEZ68QTvIkHbBOmEvTlaNmIdOzDRr7aqWNmGUr0cvsT
NKI1AAmmG2UYQ9R30fqcppi/etiTIr+StP0zElDdToDrrO46SC/VlWW/ED6EOuA6
q258pcshCF4fmnK/bkcOeXz8eRfwqU0JHVdEzcVpj6mXrdxg+fTJG3K6oXFD4F4w
4Mxbh3mFcTnz3iX8MzQme7BV7/o826rXBWxVldDS3p8bI7aFat1QAXgODiHs5AK/
b2ZPe/ybl9xmuHGXDqKRfMVVHUgHZLdAb9ry5/aIl95jpaGnQxRnqB/8qyQzlbpN
/EXT24LEEIz7clU4/9R10nVLGlGdo5rtypAeTxOiwr8EOAE0Gw42O9Qh99mCh01S
Yu67zKfiFkt94W6OmVbHHwXRoxnXex4eWgIu7VO7VKrecw5Q3LH1BS7rL2fv/Nb/
VAdbiwIDAQABo4IBazCCAWcwCQYDVR0TBAIwADAtBglghkgBhvhCAQ0EIBYeRWFz
eS1SU0EgR2VuZXJhdGVkIENlcnRpZmljYXRlMB0GA1UdDgQWBBRlluHNgWk6iO+s
6Id4nhnTc1K+PTCB6QYDVR0jBIHhMIHegBTvOI0UUFinW02cF3L837msp1GwEKGB
uqSBtzCBtDELMAkGA1UEBhMCVVMxCzAJBgNVBAgTAkNBMRUwEwYDVQQHEwxTYW5G
cmFuY2lzY28xFTATBgNVBAoTDFBpeGdsbywgSW5jLjEQMA4GA1UECxMHVlBOLUNJ
RTEaMBgGA1UEAxMRdHVubmVsLnBpeGdsby5jb20xHDAaBgNVBCkTE0JhbGEgQ2hh
bmRyYXNla2FyYW4xHjAcBgkqhkiG9w0BCQEWD2JhbGFAcGl4Z2xvLmNvbYIJAKbb
xoOA5qB5MBMGA1UdJQQMMAoGCCsGAQUFBwMCMAsGA1UdDwQEAwIHgDANBgkqhkiG
9w0BAQUFAAOCAgEAVw5s6A1JUnzZ6k1PLV9OPivp5bwvXvHskJYUA/lbzPxH2D/o
5ozAGkkqWLgvBQ+LVwyeYo0sjgXZciwK8OwKyZBGYFVikambjN7rv8CGP0+2yO/R
HnckQGgM6RJe3C2xf0seitXxRCeaBFUKGjI/bYtcZvb7HlF2POmmBB1KvG2Vqug/
EkEIVWzljtFEwNmgp6Md529Gy6aY4mzYl3XL+d3CXQUKPjofdqSQ43/2D8rBV1Cx
w99C/ZZL7O389DYAbUDNaEXrYCB+H+D5+T6u4lfRDG4B3Qt0w9GuZzhXteWOW4sm
nhFnatG92lxo6mzedQwxGsiWkFhqys3Q9wRcTujx+pX3Ja66hv/ffCogUgy9O1a4
Ny3MTa8dDM1XtF+16HPcb+q1FQfSOPjXB2pSlLW4tZjUnMeBC7E3FXIo/DCb9k0T
B3emXccT1wcW/mfXbDbr4QXKSymXCTwECNTrp7dIfZyA62Tg7knpRHlJX1AsiRgN
Cx0xCOgaxEPUnCKJOZ8J3QBGxVS+UGAYCF6XhDhHYIbDnSdt+3Nf9RFd6X8WWKOw
6R4sWMatROSnsn8dY+9CLXTzUgJbcjr62dQy8jOVQ08baL30hzbVEFfCmnK1Dwvd
y+2hW5x34cOdhBfQEPO5QycLvSAALDzgUmLOU2J9nTTh9tgvd36T5OxJy1o=
-----END CERTIFICATE-----
