Certificate:
    Data:
        Version: 3 (0x2)
        Serial Number: 219 (0xdb)
    Signature Algorithm: sha1WithRSAEncryption
        Issuer: C=US, ST=CA, L=SanFrancisco, O=Pixglo, Inc., OU=VPN-CIE, CN=tunnel.pixglo.com/name=Bala Chandrasekaran/emailAddress=bala@pixglo.com
        Validity
            Not Before: Feb 14 06:28:57 2018 GMT
            Not After : Feb 12 06:28:57 2028 GMT
        Subject: C=US, ST=CA, L=SanFrancisco, O=Pixglo, Inc., OU=VPN-CIE, CN=cie218/name=Bala Chandrasekaran/emailAddress=bala@pixglo.com
        Subject Public Key Info:
            Public Key Algorithm: rsaEncryption
                Public-Key: (4096 bit)
                Modulus:
                    00:aa:84:63:2d:4d:d4:4e:b9:d4:13:2f:3a:4c:12:
                    e9:a9:0b:2e:55:c7:fe:1e:84:9f:e1:73:73:52:0a:
                    b4:93:91:c4:af:ce:93:96:4a:dd:e7:36:d6:cb:ce:
                    8c:87:92:7b:52:3e:84:3c:98:47:ac:1c:5b:66:5a:
                    a6:71:1a:49:06:97:b6:1b:56:e1:b7:c2:22:aa:2f:
                    60:14:8a:5c:6f:3f:83:2a:e4:6a:83:89:3c:d0:13:
                    1b:fd:68:7b:99:e4:fd:93:2e:59:d7:82:8d:c7:85:
                    10:56:e2:c0:ca:04:30:c8:0e:c2:4a:a9:19:b3:8b:
                    a1:62:84:fc:e0:76:34:8b:a6:c6:c8:d1:33:63:d8:
                    ee:7a:17:ea:0f:f9:96:bd:72:4f:1a:ef:ab:b6:d8:
                    54:eb:ae:dd:2b:5f:95:d5:2a:22:1b:ad:36:c1:3c:
                    f8:01:79:2d:22:34:05:1a:e7:d2:46:38:78:c1:c7:
                    ad:66:55:bd:45:10:8c:de:b2:86:26:57:67:ca:a7:
                    c2:99:f8:0f:00:8f:cd:80:bb:a1:f1:4a:d7:91:75:
                    cf:8c:a4:09:ba:54:7a:4e:22:53:12:45:b8:96:c2:
                    09:bb:66:54:49:9a:94:cc:88:df:4c:f5:cf:2d:fe:
                    6f:fc:73:4c:9c:06:e8:0f:28:f5:4c:61:93:6e:5e:
                    b8:9c:9d:1a:f3:9f:6f:9a:35:9c:25:70:96:c1:b3:
                    f3:a4:21:d8:37:4e:3a:94:bf:02:69:07:ec:eb:99:
                    c8:fc:7a:34:7a:f8:3d:3d:c5:72:0a:62:6e:5e:0a:
                    3d:d8:8b:82:6c:cb:06:fd:1a:9c:1d:b3:ee:02:c0:
                    06:e3:41:05:23:f4:ed:89:d8:39:7f:0f:72:7e:34:
                    e5:30:a5:a8:bb:86:89:07:7d:a3:26:f7:d5:3d:33:
                    5d:c8:4a:68:62:78:d0:2b:94:e2:a5:77:47:30:a7:
                    e6:95:9d:eb:fe:be:f7:e1:eb:4c:1c:2d:ac:de:44:
                    3b:48:42:36:f2:c2:2e:61:0a:c3:f3:56:16:ff:f1:
                    9a:dc:da:86:69:63:ea:08:08:42:5d:32:52:56:8f:
                    6d:a1:a7:fe:d5:f0:23:f5:1f:3d:87:b6:bd:68:a1:
                    83:00:83:2c:68:7c:27:03:2a:75:69:ed:da:ba:e5:
                    28:44:a0:76:02:e9:a2:fb:44:57:67:70:65:0c:fb:
                    49:e7:39:89:39:d4:1e:19:27:14:78:1c:d8:c0:6e:
                    9a:51:04:f3:cf:de:c7:eb:11:83:cc:d7:25:6a:b8:
                    17:f2:00:75:6c:b4:4c:f2:a3:23:ae:c1:31:a8:73:
                    87:41:60:38:a5:c6:63:06:d3:18:99:4d:51:7a:0c:
                    4c:38:df
                Exponent: 65537 (0x10001)
        X509v3 extensions:
            X509v3 Basic Constraints: 
                CA:FALSE
            Netscape Comment: 
                Easy-RSA Generated Certificate
            X509v3 Subject Key Identifier: 
                6A:BE:22:1C:7B:FF:18:8F:63:53:86:1E:74:B0:29:18:EB:C7:E9:66
            X509v3 Authority Key Identifier: 
                keyid:EF:38:8D:14:50:58:A7:5B:4D:9C:17:72:FC:DF:B9:AC:A7:51:B0:10
                DirName:/C=US/ST=CA/L=SanFrancisco/O=Pixglo, Inc./OU=VPN-CIE/CN=tunnel.pixglo.com/name=Bala Chandrasekaran/emailAddress=bala@pixglo.com
                serial:A6:DB:C6:83:80:E6:A0:79

            X509v3 Extended Key Usage: 
                TLS Web Client Authentication
            X509v3 Key Usage: 
                Digital Signature
    Signature Algorithm: sha1WithRSAEncryption
         94:1c:c6:6f:6f:7c:fa:5b:0e:d2:b5:30:70:34:f6:7b:cd:a8:
         87:2d:86:6c:26:be:42:48:9a:6b:80:70:bc:8a:3c:d2:50:8f:
         05:f8:63:12:27:25:d1:24:d7:27:62:bf:b8:b0:d0:27:b3:44:
         2c:b7:94:c1:33:20:e7:84:8f:69:54:27:d8:85:72:b3:c1:89:
         d1:95:b3:e7:22:76:35:a9:bc:78:90:07:44:c6:ac:b2:b6:e2:
         ef:60:10:ab:8d:db:00:e8:fe:2d:47:22:df:78:20:48:2a:4f:
         3c:12:bb:06:34:46:69:34:59:b2:3e:43:d8:63:99:7a:78:37:
         d3:f6:ac:48:05:bb:f8:cd:21:7d:08:14:10:a3:52:3d:7a:0f:
         7c:7c:67:93:52:c7:68:59:9c:1e:e3:67:2e:1c:c3:08:5d:fd:
         28:9e:85:88:b2:2b:63:fc:0d:17:cf:41:f2:90:3e:22:ac:60:
         40:a0:d3:9a:30:07:81:19:c8:86:04:e4:75:33:eb:ed:55:bb:
         8f:9a:19:67:b8:b0:c6:ca:88:22:75:03:b6:56:c0:83:e1:9b:
         13:d4:8f:d3:77:7d:09:da:c5:e4:58:d4:3a:c4:1a:87:38:0b:
         ec:c6:bd:26:4c:41:c9:22:ff:81:5c:bf:f1:72:01:d9:ec:69:
         a1:ab:12:cb:ea:97:38:74:8c:96:40:3e:85:b6:29:d8:ec:3f:
         ca:18:07:29:cb:26:84:a3:0f:e3:31:5a:09:10:dd:bf:0b:e3:
         5e:93:a4:92:bf:82:26:36:30:3e:47:a2:fd:7d:b8:09:97:44:
         97:ec:04:87:3b:4e:d3:b8:a7:2d:f9:d9:d8:68:4a:eb:f9:ad:
         12:81:14:e0:45:cd:08:5b:76:39:9f:cf:c3:e7:b3:cf:7c:eb:
         02:48:44:51:f9:da:21:62:2c:5c:24:e8:01:a7:15:28:9a:de:
         5d:26:f7:c4:3b:67:43:68:9c:f3:10:90:42:62:42:8a:0b:3d:
         5c:63:59:82:d2:6b:1d:95:ef:f9:02:03:38:5f:b0:5d:79:ef:
         a5:f4:5b:69:ed:7c:22:33:9c:97:7d:e5:ce:dd:9b:76:97:fc:
         37:0d:2e:bd:b4:bb:61:0c:85:ec:89:a6:a2:df:81:b4:9f:b4:
         76:75:98:8b:8f:ca:52:f3:2d:86:97:8d:7f:f2:32:ba:33:c1:
         e3:84:79:ac:8d:12:c5:2c:20:40:1a:bc:76:a7:be:e7:0a:b9:
         f4:0b:d6:b2:4c:8e:bb:99:b0:81:86:22:d8:94:15:de:49:86:
         c7:4d:1d:27:7a:43:71:1b:19:bc:dd:4c:5a:5a:99:53:61:dc:
         e8:6b:5b:89:e2:b5:ee:76
-----BEGIN CERTIFICATE-----
MIIHSDCCBTCgAwIBAgICANswDQYJKoZIhvcNAQEFBQAwgbQxCzAJBgNVBAYTAlVT
MQswCQYDVQQIEwJDQTEVMBMGA1UEBxMMU2FuRnJhbmNpc2NvMRUwEwYDVQQKEwxQ
aXhnbG8sIEluYy4xEDAOBgNVBAsTB1ZQTi1DSUUxGjAYBgNVBAMTEXR1bm5lbC5w
aXhnbG8uY29tMRwwGgYDVQQpExNCYWxhIENoYW5kcmFzZWthcmFuMR4wHAYJKoZI
hvcNAQkBFg9iYWxhQHBpeGdsby5jb20wHhcNMTgwMjE0MDYyODU3WhcNMjgwMjEy
MDYyODU3WjCBqTELMAkGA1UEBhMCVVMxCzAJBgNVBAgTAkNBMRUwEwYDVQQHEwxT
YW5GcmFuY2lzY28xFTATBgNVBAoTDFBpeGdsbywgSW5jLjEQMA4GA1UECxMHVlBO
LUNJRTEPMA0GA1UEAxMGY2llMjE4MRwwGgYDVQQpExNCYWxhIENoYW5kcmFzZWth
cmFuMR4wHAYJKoZIhvcNAQkBFg9iYWxhQHBpeGdsby5jb20wggIiMA0GCSqGSIb3
DQEBAQUAA4ICDwAwggIKAoICAQCqhGMtTdROudQTLzpMEumpCy5Vx/4ehJ/hc3NS
CrSTkcSvzpOWSt3nNtbLzoyHkntSPoQ8mEesHFtmWqZxGkkGl7YbVuG3wiKqL2AU
ilxvP4Mq5GqDiTzQExv9aHuZ5P2TLlnXgo3HhRBW4sDKBDDIDsJKqRmzi6FihPzg
djSLpsbI0TNj2O56F+oP+Za9ck8a76u22FTrrt0rX5XVKiIbrTbBPPgBeS0iNAUa
59JGOHjBx61mVb1FEIzesoYmV2fKp8KZ+A8Aj82Au6HxSteRdc+MpAm6VHpOIlMS
RbiWwgm7ZlRJmpTMiN9M9c8t/m/8c0ycBugPKPVMYZNuXricnRrzn2+aNZwlcJbB
s/OkIdg3TjqUvwJpB+zrmcj8ejR6+D09xXIKYm5eCj3Yi4Jsywb9Gpwds+4CwAbj
QQUj9O2J2Dl/D3J+NOUwpai7hokHfaMm99U9M13ISmhieNArlOKld0cwp+aVnev+
vvfh60wcLazeRDtIQjbywi5hCsPzVhb/8Zrc2oZpY+oICEJdMlJWj22hp/7V8CP1
Hz2Htr1ooYMAgyxofCcDKnVp7dq65ShEoHYC6aL7RFdncGUM+0nnOYk51B4ZJxR4
HNjAbppRBPPP3sfrEYPM1yVquBfyAHVstEzyoyOuwTGoc4dBYDilxmMG0xiZTVF6
DEw43wIDAQABo4IBazCCAWcwCQYDVR0TBAIwADAtBglghkgBhvhCAQ0EIBYeRWFz
eS1SU0EgR2VuZXJhdGVkIENlcnRpZmljYXRlMB0GA1UdDgQWBBRqviIce/8Yj2NT
hh50sCkY68fpZjCB6QYDVR0jBIHhMIHegBTvOI0UUFinW02cF3L837msp1GwEKGB
uqSBtzCBtDELMAkGA1UEBhMCVVMxCzAJBgNVBAgTAkNBMRUwEwYDVQQHEwxTYW5G
cmFuY2lzY28xFTATBgNVBAoTDFBpeGdsbywgSW5jLjEQMA4GA1UECxMHVlBOLUNJ
RTEaMBgGA1UEAxMRdHVubmVsLnBpeGdsby5jb20xHDAaBgNVBCkTE0JhbGEgQ2hh
bmRyYXNla2FyYW4xHjAcBgkqhkiG9w0BCQEWD2JhbGFAcGl4Z2xvLmNvbYIJAKbb
xoOA5qB5MBMGA1UdJQQMMAoGCCsGAQUFBwMCMAsGA1UdDwQEAwIHgDANBgkqhkiG
9w0BAQUFAAOCAgEAlBzGb298+lsO0rUwcDT2e82ohy2GbCa+Qkiaa4BwvIo80lCP
BfhjEicl0STXJ2K/uLDQJ7NELLeUwTMg54SPaVQn2IVys8GJ0ZWz5yJ2Nam8eJAH
RMassrbi72AQq43bAOj+LUci33ggSCpPPBK7BjRGaTRZsj5D2GOZeng30/asSAW7
+M0hfQgUEKNSPXoPfHxnk1LHaFmcHuNnLhzDCF39KJ6FiLIrY/wNF89B8pA+Iqxg
QKDTmjAHgRnIhgTkdTPr7VW7j5oZZ7iwxsqIInUDtlbAg+GbE9SP03d9CdrF5FjU
OsQahzgL7Ma9JkxBySL/gVy/8XIB2expoasSy+qXOHSMlkA+hbYp2Ow/yhgHKcsm
hKMP4zFaCRDdvwvjXpOkkr+CJjYwPkei/X24CZdEl+wEhztO07inLfnZ2GhK6/mt
EoEU4EXNCFt2OZ/Pw+ezz3zrAkhEUfnaIWIsXCToAacVKJreXSb3xDtnQ2ic8xCQ
QmJCigs9XGNZgtJrHZXv+QIDOF+wXXnvpfRbae18IjOcl33lzt2bdpf8Nw0uvbS7
YQyF7Immot+BtJ+0dnWYi4/KUvMthpeNf/IyujPB44R5rI0SxSwgQBq8dqe+5wq5
9AvWskyOu5mwgYYi2JQV3kmGx00dJ3pDcRsZvN1MWlqZU2Hc6GtbieK17nY=
-----END CERTIFICATE-----
