Certificate:
    Data:
        Version: 3 (0x2)
        Serial Number: 220 (0xdc)
    Signature Algorithm: sha1WithRSAEncryption
        Issuer: C=US, ST=CA, L=SanFrancisco, O=Pixglo, Inc., OU=VPN-CIE, CN=tunnel.pixglo.com/name=Bala Chandrasekaran/emailAddress=bala@pixglo.com
        Validity
            Not Before: Feb 14 06:28:57 2018 GMT
            Not After : Feb 12 06:28:57 2028 GMT
        Subject: C=US, ST=CA, L=SanFrancisco, O=Pixglo, Inc., OU=VPN-CIE, CN=cie219/name=Bala Chandrasekaran/emailAddress=bala@pixglo.com
        Subject Public Key Info:
            Public Key Algorithm: rsaEncryption
                Public-Key: (4096 bit)
                Modulus:
                    00:af:3a:85:4a:af:d6:45:96:0e:e4:56:5b:92:f5:
                    ae:b7:eb:43:34:61:68:80:97:45:62:10:50:65:69:
                    d1:5f:54:d4:54:17:9f:da:53:4c:d1:fe:46:45:a0:
                    5f:06:71:fc:c4:38:17:fb:c9:e8:03:cc:88:a1:95:
                    51:a5:52:cc:e0:e8:c3:ad:aa:0c:e9:2c:7b:0c:1b:
                    e9:04:20:b6:15:06:d8:64:0c:12:07:6c:c0:d4:bf:
                    ec:3f:47:20:10:e1:78:0e:e7:57:e9:ec:a3:1c:b2:
                    34:70:6b:2f:e0:8f:84:61:b2:0d:1d:ac:7d:0a:4e:
                    19:8b:43:af:73:5c:b5:1c:e3:03:b0:9e:90:be:40:
                    0b:ce:a2:b8:11:1f:3a:de:3b:55:5d:bc:86:65:0a:
                    05:bb:ef:ec:29:0f:41:cd:d2:4b:28:39:13:88:ee:
                    29:93:4b:fb:d0:cc:03:89:40:4e:a6:1d:2d:a5:8a:
                    58:a8:d4:1b:a4:07:13:ea:2c:56:dd:f5:be:ce:88:
                    9e:4e:64:a8:7f:a3:f0:ae:56:1a:f6:03:3e:66:e2:
                    48:cc:cc:ab:4d:39:72:79:76:74:19:45:26:e4:b6:
                    94:d4:44:5d:a6:3e:27:76:af:db:e4:e5:31:b8:ee:
                    71:d2:33:5d:89:2d:c9:51:57:b9:7d:5d:0b:26:1e:
                    9a:2f:bb:f6:7d:7f:49:98:1c:5b:f3:74:5b:9d:89:
                    96:83:7a:68:b6:c5:ce:b0:d1:d1:c4:08:1d:55:fa:
                    25:ae:4c:13:76:fa:1c:c4:95:a3:10:e8:63:64:5d:
                    d3:25:71:70:69:9c:f6:b7:a3:bb:e3:a3:6a:fe:57:
                    77:94:31:5e:77:08:ef:8e:73:b8:62:f9:d8:ef:28:
                    93:5c:d7:c7:2a:ad:e7:be:58:a7:b4:32:79:09:f0:
                    4c:63:52:4a:de:cc:f9:3b:1e:a4:3b:58:1d:12:50:
                    87:e1:82:46:2d:cd:d8:b7:54:a0:ea:3f:03:5b:a1:
                    fa:2f:ce:e0:eb:88:24:f6:93:d1:94:31:c6:e6:e1:
                    fa:6a:2f:9d:93:ee:e4:e3:48:c0:11:ee:25:2e:d0:
                    82:71:9f:56:80:a2:b2:2e:57:a9:8c:79:28:9e:77:
                    00:44:bd:0c:aa:fb:2a:2d:10:ef:75:4b:f5:f1:29:
                    7d:64:2a:5a:3f:fb:1e:9e:32:43:f6:3c:35:8c:be:
                    33:15:93:73:a8:17:21:c8:d7:b2:ec:7e:44:97:ff:
                    42:47:d7:d2:5e:e1:01:25:58:b3:df:de:66:5c:82:
                    fb:1c:a8:da:81:3a:7e:bf:33:fe:0a:32:64:89:c4:
                    a1:4b:6a:e5:dd:09:47:c1:e0:fe:97:32:c6:18:0b:
                    63:a0:85
                Exponent: 65537 (0x10001)
        X509v3 extensions:
            X509v3 Basic Constraints: 
                CA:FALSE
            Netscape Comment: 
                Easy-RSA Generated Certificate
            X509v3 Subject Key Identifier: 
                36:F8:D3:FD:3C:2C:22:A0:D7:28:25:8D:E5:CC:6A:84:BA:87:CD:B3
            X509v3 Authority Key Identifier: 
                keyid:EF:38:8D:14:50:58:A7:5B:4D:9C:17:72:FC:DF:B9:AC:A7:51:B0:10
                DirName:/C=US/ST=CA/L=SanFrancisco/O=Pixglo, Inc./OU=VPN-CIE/CN=tunnel.pixglo.com/name=Bala Chandrasekaran/emailAddress=bala@pixglo.com
                serial:A6:DB:C6:83:80:E6:A0:79

            X509v3 Extended Key Usage: 
                TLS Web Client Authentication
            X509v3 Key Usage: 
                Digital Signature
    Signature Algorithm: sha1WithRSAEncryption
         27:87:ea:31:4b:06:3c:2e:9f:d6:51:e0:7f:a8:ab:fb:13:5e:
         90:cb:86:c3:bc:72:2e:e8:9e:d1:2f:c9:3d:38:a1:33:8a:c9:
         86:04:57:48:e5:ad:20:ea:a8:11:08:c3:81:d5:75:86:59:06:
         1e:79:e4:cb:a0:d0:1d:e4:9d:82:b5:2b:66:59:bc:e0:e4:d9:
         9c:ff:22:a9:f2:e4:f9:3d:87:27:09:3f:69:05:19:48:1d:c8:
         d5:0b:a1:c1:69:ee:88:5a:09:64:3f:9d:1f:83:8a:e4:01:53:
         55:b2:83:d2:b8:29:6b:61:6c:ca:07:65:2c:51:b6:01:51:5e:
         07:0b:f2:fe:24:12:59:7b:fb:12:67:4c:d0:68:b8:99:ae:68:
         c8:0b:70:7c:76:3c:a1:10:d3:0a:a7:28:7b:ea:9d:2f:ae:27:
         e7:c0:d2:cc:04:54:51:84:0d:a0:20:2d:3e:94:68:df:43:bf:
         85:f9:92:c0:eb:d9:fe:13:1d:ad:ee:b4:7f:c8:07:e7:a1:26:
         86:c0:1a:7a:e1:78:5d:84:9f:38:fa:45:01:49:5b:db:e9:a4:
         8f:a2:f5:a1:d4:e1:e6:b2:0f:89:d2:f4:a8:b4:09:f1:2e:9f:
         bf:05:2f:33:bc:01:82:c6:d7:bf:c8:5c:99:8f:ca:34:80:e0:
         fd:f6:df:02:81:b5:33:49:ce:9f:1d:e2:79:09:ab:5f:7f:6e:
         6f:55:0b:6a:3c:79:8f:76:a6:4e:3f:67:69:f4:c7:f4:73:b2:
         12:ec:dc:57:7d:22:53:c9:dd:b4:f1:ae:09:00:3c:18:a1:53:
         f2:04:78:64:1d:fa:66:d5:82:f6:bd:3f:89:2e:44:0f:91:bb:
         0a:28:0d:3d:86:95:0d:7a:b2:e9:ff:a4:c7:4b:18:27:85:bd:
         e3:be:2c:aa:cd:b4:73:4f:70:1f:be:d2:51:3c:46:52:f5:d7:
         ec:67:e3:43:9a:d3:e5:6f:4e:a7:bd:df:11:15:40:c3:12:67:
         60:12:af:97:03:25:0b:52:34:f7:00:3e:c5:06:66:a5:fc:18:
         b6:8f:3d:c0:5d:78:f0:c5:96:b9:7f:c7:a9:42:3d:a3:98:aa:
         25:f5:d4:10:97:01:0d:6e:5f:2c:44:ec:f1:2f:92:c1:13:4b:
         89:74:26:5f:14:6d:da:b8:0f:f2:5f:3c:bd:98:c2:d2:c2:e4:
         3e:af:68:99:49:56:40:98:56:4d:be:fa:59:1b:78:e3:ca:8b:
         d7:c8:2e:14:a5:5b:ad:a4:0e:a0:f1:70:01:61:f1:80:64:09:
         05:61:14:cd:e2:0e:39:a8:da:d6:97:7c:83:7b:a4:35:a3:3e:
         b4:6d:9b:52:06:2c:ab:ea
-----BEGIN CERTIFICATE-----
MIIHSDCCBTCgAwIBAgICANwwDQYJKoZIhvcNAQEFBQAwgbQxCzAJBgNVBAYTAlVT
MQswCQYDVQQIEwJDQTEVMBMGA1UEBxMMU2FuRnJhbmNpc2NvMRUwEwYDVQQKEwxQ
aXhnbG8sIEluYy4xEDAOBgNVBAsTB1ZQTi1DSUUxGjAYBgNVBAMTEXR1bm5lbC5w
aXhnbG8uY29tMRwwGgYDVQQpExNCYWxhIENoYW5kcmFzZWthcmFuMR4wHAYJKoZI
hvcNAQkBFg9iYWxhQHBpeGdsby5jb20wHhcNMTgwMjE0MDYyODU3WhcNMjgwMjEy
MDYyODU3WjCBqTELMAkGA1UEBhMCVVMxCzAJBgNVBAgTAkNBMRUwEwYDVQQHEwxT
YW5GcmFuY2lzY28xFTATBgNVBAoTDFBpeGdsbywgSW5jLjEQMA4GA1UECxMHVlBO
LUNJRTEPMA0GA1UEAxMGY2llMjE5MRwwGgYDVQQpExNCYWxhIENoYW5kcmFzZWth
cmFuMR4wHAYJKoZIhvcNAQkBFg9iYWxhQHBpeGdsby5jb20wggIiMA0GCSqGSIb3
DQEBAQUAA4ICDwAwggIKAoICAQCvOoVKr9ZFlg7kVluS9a6360M0YWiAl0ViEFBl
adFfVNRUF5/aU0zR/kZFoF8GcfzEOBf7yegDzIihlVGlUszg6MOtqgzpLHsMG+kE
ILYVBthkDBIHbMDUv+w/RyAQ4XgO51fp7KMcsjRway/gj4Rhsg0drH0KThmLQ69z
XLUc4wOwnpC+QAvOorgRHzreO1VdvIZlCgW77+wpD0HN0ksoOROI7imTS/vQzAOJ
QE6mHS2lilio1BukBxPqLFbd9b7OiJ5OZKh/o/CuVhr2Az5m4kjMzKtNOXJ5dnQZ
RSbktpTURF2mPid2r9vk5TG47nHSM12JLclRV7l9XQsmHpovu/Z9f0mYHFvzdFud
iZaDemi2xc6w0dHECB1V+iWuTBN2+hzElaMQ6GNkXdMlcXBpnPa3o7vjo2r+V3eU
MV53CO+Oc7hi+djvKJNc18cqree+WKe0MnkJ8ExjUkrezPk7HqQ7WB0SUIfhgkYt
zdi3VKDqPwNbofovzuDriCT2k9GUMcbm4fpqL52T7uTjSMAR7iUu0IJxn1aAorIu
V6mMeSiedwBEvQyq+yotEO91S/XxKX1kKlo/+x6eMkP2PDWMvjMVk3OoFyHI17Ls
fkSX/0JH19Je4QElWLPf3mZcgvscqNqBOn6/M/4KMmSJxKFLauXdCUfB4P6XMsYY
C2OghQIDAQABo4IBazCCAWcwCQYDVR0TBAIwADAtBglghkgBhvhCAQ0EIBYeRWFz
eS1SU0EgR2VuZXJhdGVkIENlcnRpZmljYXRlMB0GA1UdDgQWBBQ2+NP9PCwioNco
JY3lzGqEuofNszCB6QYDVR0jBIHhMIHegBTvOI0UUFinW02cF3L837msp1GwEKGB
uqSBtzCBtDELMAkGA1UEBhMCVVMxCzAJBgNVBAgTAkNBMRUwEwYDVQQHEwxTYW5G
cmFuY2lzY28xFTATBgNVBAoTDFBpeGdsbywgSW5jLjEQMA4GA1UECxMHVlBOLUNJ
RTEaMBgGA1UEAxMRdHVubmVsLnBpeGdsby5jb20xHDAaBgNVBCkTE0JhbGEgQ2hh
bmRyYXNla2FyYW4xHjAcBgkqhkiG9w0BCQEWD2JhbGFAcGl4Z2xvLmNvbYIJAKbb
xoOA5qB5MBMGA1UdJQQMMAoGCCsGAQUFBwMCMAsGA1UdDwQEAwIHgDANBgkqhkiG
9w0BAQUFAAOCAgEAJ4fqMUsGPC6f1lHgf6ir+xNekMuGw7xyLuie0S/JPTihM4rJ
hgRXSOWtIOqoEQjDgdV1hlkGHnnky6DQHeSdgrUrZlm84OTZnP8iqfLk+T2HJwk/
aQUZSB3I1QuhwWnuiFoJZD+dH4OK5AFTVbKD0rgpa2FsygdlLFG2AVFeBwvy/iQS
WXv7EmdM0Gi4ma5oyAtwfHY8oRDTCqcoe+qdL64n58DSzARUUYQNoCAtPpRo30O/
hfmSwOvZ/hMdre60f8gH56EmhsAaeuF4XYSfOPpFAUlb2+mkj6L1odTh5rIPidL0
qLQJ8S6fvwUvM7wBgsbXv8hcmY/KNIDg/fbfAoG1M0nOnx3ieQmrX39ub1ULajx5
j3amTj9nafTH9HOyEuzcV30iU8ndtPGuCQA8GKFT8gR4ZB36ZtWC9r0/iS5ED5G7
CigNPYaVDXqy6f+kx0sYJ4W9474sqs20c09wH77SUTxGUvXX7GfjQ5rT5W9Op73f
ERVAwxJnYBKvlwMlC1I09wA+xQZmpfwYto89wF148MWWuX/HqUI9o5iqJfXUEJcB
DW5fLETs8S+SwRNLiXQmXxRt2rgP8l88vZjC0sLkPq9omUlWQJhWTb76WRt448qL
18guFKVbraQOoPFwAWHxgGQJBWEUzeIOOaja1pd8g3ukNaM+tG2bUgYsq+o=
-----END CERTIFICATE-----
