Certificate:
    Data:
        Version: 3 (0x2)
        Serial Number: 221 (0xdd)
    Signature Algorithm: sha1WithRSAEncryption
        Issuer: C=US, ST=CA, L=SanFrancisco, O=Pixglo, Inc., OU=VPN-CIE, CN=tunnel.pixglo.com/name=Bala Chandrasekaran/emailAddress=bala@pixglo.com
        Validity
            Not Before: Feb 14 06:28:58 2018 GMT
            Not After : Feb 12 06:28:58 2028 GMT
        Subject: C=US, ST=CA, L=SanFrancisco, O=Pixglo, Inc., OU=VPN-CIE, CN=cie220/name=Bala Chandrasekaran/emailAddress=bala@pixglo.com
        Subject Public Key Info:
            Public Key Algorithm: rsaEncryption
                Public-Key: (4096 bit)
                Modulus:
                    00:df:5f:04:e9:3d:48:1a:24:b9:58:33:08:56:bd:
                    bf:ac:41:e4:5d:fc:6b:41:55:59:fb:0f:20:13:9f:
                    49:e6:d4:f5:84:8f:d7:8f:d8:2d:50:a2:da:a7:1a:
                    a8:66:04:08:a3:36:9b:db:1b:eb:a5:a5:cb:88:6a:
                    02:a9:92:52:a8:b4:f8:9d:bc:92:3a:f4:93:92:3b:
                    39:20:9d:14:1f:ed:93:3c:ba:1a:b0:78:2f:ff:e9:
                    6f:c4:3e:0d:1b:e5:38:51:1e:4f:f7:98:70:3f:9f:
                    91:8a:72:94:a4:f9:d0:63:52:e9:e6:7a:bd:15:d8:
                    61:ef:31:5c:e6:23:c6:4d:68:0f:da:3f:be:6f:15:
                    72:c8:eb:1a:c7:14:d1:86:e4:33:9b:0a:64:74:26:
                    22:d5:f2:bc:11:ac:e6:7a:98:c1:9c:01:11:0e:3f:
                    a3:9e:37:c3:58:b9:5d:b7:d5:ab:82:ef:85:13:d3:
                    99:af:be:0a:a3:48:89:d5:d0:55:11:5c:39:13:30:
                    46:bf:2b:84:e6:bc:39:fc:03:69:8e:33:ed:e9:1a:
                    12:97:5d:ec:e9:ab:f1:b0:ca:b6:4a:aa:47:30:bd:
                    1a:8d:f9:21:5d:b7:1c:94:fc:9f:56:f7:35:aa:a6:
                    84:24:b7:6c:1a:95:0f:79:32:20:0f:79:45:44:18:
                    cd:b9:44:87:d3:18:07:56:e7:fd:cf:85:7d:c4:dd:
                    19:47:a9:2b:28:ec:42:1f:88:06:5f:6a:a8:94:c4:
                    74:96:13:56:5b:c7:5d:e9:32:90:f1:ba:41:85:96:
                    c5:b4:47:6b:7d:3f:bd:49:fc:74:f8:cc:db:f4:a9:
                    f3:e2:54:a8:fc:02:3b:ea:11:eb:09:3c:09:80:c0:
                    ee:19:7a:e5:01:5e:43:8f:8b:8d:57:cf:b2:54:83:
                    fe:b9:6d:ee:21:f0:61:b1:05:91:03:55:33:0d:89:
                    0a:af:bb:1d:ee:8f:67:aa:e0:1a:cf:86:55:42:ee:
                    4b:cc:87:55:d9:d9:bb:db:16:82:23:24:e8:15:0c:
                    0d:6d:7b:cc:eb:93:e6:4d:95:24:d1:4b:54:dc:0f:
                    db:c0:8f:98:4f:f0:4d:c1:0a:f2:92:d3:bc:a6:25:
                    75:d5:82:cf:c3:f1:0d:ae:c5:04:12:1a:0b:0f:f0:
                    e1:6a:e1:44:1b:49:0a:9c:11:c6:d7:3d:77:dd:25:
                    b2:a4:f3:c3:55:3d:f2:e6:3a:bd:da:5e:9b:cc:00:
                    bb:df:66:b7:b7:1d:4e:37:47:22:3e:b5:42:a6:2b:
                    3e:b5:d5:5a:00:af:22:33:3d:fc:a5:36:c4:a7:75:
                    4b:08:9a:2b:0b:87:ef:68:2c:1c:92:db:5a:b0:06:
                    0b:f5:57
                Exponent: 65537 (0x10001)
        X509v3 extensions:
            X509v3 Basic Constraints: 
                CA:FALSE
            Netscape Comment: 
                Easy-RSA Generated Certificate
            X509v3 Subject Key Identifier: 
                82:28:33:D9:38:04:6E:F4:2B:4F:DC:C3:2A:AF:8A:F5:97:05:69:EA
            X509v3 Authority Key Identifier: 
                keyid:EF:38:8D:14:50:58:A7:5B:4D:9C:17:72:FC:DF:B9:AC:A7:51:B0:10
                DirName:/C=US/ST=CA/L=SanFrancisco/O=Pixglo, Inc./OU=VPN-CIE/CN=tunnel.pixglo.com/name=Bala Chandrasekaran/emailAddress=bala@pixglo.com
                serial:A6:DB:C6:83:80:E6:A0:79

            X509v3 Extended Key Usage: 
                TLS Web Client Authentication
            X509v3 Key Usage: 
                Digital Signature
    Signature Algorithm: sha1WithRSAEncryption
         e0:43:7f:99:2f:a2:7a:ec:36:84:1e:f1:db:e3:af:12:44:d7:
         5f:24:e8:3a:c5:89:55:9d:35:b1:76:12:02:5b:7f:4a:ef:50:
         67:26:c3:79:2c:3b:e8:1e:92:a3:9f:1c:2e:64:43:a7:3f:1e:
         5d:93:fa:9a:5c:16:01:74:19:29:86:f3:9d:58:ab:43:0a:93:
         6d:65:0e:e1:fc:26:8d:c0:a0:3b:fb:d3:1a:4b:23:fc:c1:40:
         cb:cb:a5:a4:4d:8c:52:21:a5:94:24:5f:0b:56:a1:d3:27:a6:
         b7:ee:f5:f3:df:0d:d9:73:61:ce:9a:63:93:51:5b:c3:3e:b1:
         dd:bf:c8:4f:58:17:6e:2c:7f:61:c8:7d:c3:5d:14:2d:ef:48:
         ec:6b:e9:a9:72:fd:2c:f1:d0:05:45:38:66:22:b5:67:30:11:
         5c:71:e0:9b:1c:da:d8:b0:03:62:cf:e3:93:46:64:c6:57:7f:
         d8:e0:4e:04:a2:63:be:f9:b2:0b:2c:c9:b2:b8:56:c4:27:e6:
         f1:a3:fa:b0:a4:23:9e:59:5a:96:b3:b1:b9:7a:7e:09:86:47:
         fe:ff:81:5d:13:c4:dc:1a:9e:f5:33:cc:ec:70:00:44:43:7e:
         01:c9:fa:ce:6e:f3:0c:a8:bd:a9:36:28:8d:dd:63:84:5d:d8:
         eb:c0:cd:6c:85:14:4a:9f:81:ed:99:4f:bb:f3:4f:ae:b6:36:
         0f:db:7f:be:7f:e5:5d:4e:34:a0:cc:bf:2d:9c:21:cf:12:95:
         93:22:73:d8:32:0b:e9:ca:e4:0b:5b:a0:0b:2e:d5:82:5d:a1:
         aa:5d:f6:41:53:e9:1d:a3:0f:f3:4a:62:fc:ea:1d:7e:e3:51:
         06:64:fa:6f:a6:3c:45:6c:94:04:00:83:6f:96:a1:ae:39:09:
         f1:ab:d7:39:b4:0c:33:d0:7d:bc:b0:7d:96:43:68:2d:0a:2a:
         77:aa:b8:a9:29:04:c3:34:f9:47:f4:23:6e:39:b9:d1:de:ca:
         36:de:31:92:98:19:41:26:e9:8f:cf:78:e5:4a:33:e6:d3:6c:
         bb:98:84:65:67:9d:bb:e9:fe:c4:67:67:ef:79:46:65:39:0b:
         c5:b4:ac:97:20:ea:dd:61:48:57:b8:88:5e:31:04:09:82:aa:
         20:6c:22:5c:96:9f:d9:4d:d6:42:c3:0e:2e:ce:89:37:76:e7:
         f8:e8:29:b8:7d:ec:33:b5:d5:18:be:7f:bc:23:04:ca:49:0f:
         a8:aa:49:78:c3:a0:6e:19:e3:54:de:1a:33:d5:70:2f:90:d1:
         68:91:40:94:d1:a7:3f:55:55:f7:c9:b9:d2:1c:14:6f:8a:94:
         14:92:0b:db:03:fe:e8:1e
-----BEGIN CERTIFICATE-----
MIIHSDCCBTCgAwIBAgICAN0wDQYJKoZIhvcNAQEFBQAwgbQxCzAJBgNVBAYTAlVT
MQswCQYDVQQIEwJDQTEVMBMGA1UEBxMMU2FuRnJhbmNpc2NvMRUwEwYDVQQKEwxQ
aXhnbG8sIEluYy4xEDAOBgNVBAsTB1ZQTi1DSUUxGjAYBgNVBAMTEXR1bm5lbC5w
aXhnbG8uY29tMRwwGgYDVQQpExNCYWxhIENoYW5kcmFzZWthcmFuMR4wHAYJKoZI
hvcNAQkBFg9iYWxhQHBpeGdsby5jb20wHhcNMTgwMjE0MDYyODU4WhcNMjgwMjEy
MDYyODU4WjCBqTELMAkGA1UEBhMCVVMxCzAJBgNVBAgTAkNBMRUwEwYDVQQHEwxT
YW5GcmFuY2lzY28xFTATBgNVBAoTDFBpeGdsbywgSW5jLjEQMA4GA1UECxMHVlBO
LUNJRTEPMA0GA1UEAxMGY2llMjIwMRwwGgYDVQQpExNCYWxhIENoYW5kcmFzZWth
cmFuMR4wHAYJKoZIhvcNAQkBFg9iYWxhQHBpeGdsby5jb20wggIiMA0GCSqGSIb3
DQEBAQUAA4ICDwAwggIKAoICAQDfXwTpPUgaJLlYMwhWvb+sQeRd/GtBVVn7DyAT
n0nm1PWEj9eP2C1QotqnGqhmBAijNpvbG+ulpcuIagKpklKotPidvJI69JOSOzkg
nRQf7ZM8uhqweC//6W/EPg0b5ThRHk/3mHA/n5GKcpSk+dBjUunmer0V2GHvMVzm
I8ZNaA/aP75vFXLI6xrHFNGG5DObCmR0JiLV8rwRrOZ6mMGcAREOP6OeN8NYuV23
1auC74UT05mvvgqjSInV0FURXDkTMEa/K4TmvDn8A2mOM+3pGhKXXezpq/GwyrZK
qkcwvRqN+SFdtxyU/J9W9zWqpoQkt2walQ95MiAPeUVEGM25RIfTGAdW5/3PhX3E
3RlHqSso7EIfiAZfaqiUxHSWE1Zbx13pMpDxukGFlsW0R2t9P71J/HT4zNv0qfPi
VKj8AjvqEesJPAmAwO4ZeuUBXkOPi41Xz7JUg/65be4h8GGxBZEDVTMNiQqvux3u
j2eq4BrPhlVC7kvMh1XZ2bvbFoIjJOgVDA1te8zrk+ZNlSTRS1TcD9vAj5hP8E3B
CvKS07ymJXXVgs/D8Q2uxQQSGgsP8OFq4UQbSQqcEcbXPXfdJbKk88NVPfLmOr3a
XpvMALvfZre3HU43RyI+tUKmKz611VoAryIzPfylNsSndUsImisLh+9oLByS21qw
Bgv1VwIDAQABo4IBazCCAWcwCQYDVR0TBAIwADAtBglghkgBhvhCAQ0EIBYeRWFz
eS1SU0EgR2VuZXJhdGVkIENlcnRpZmljYXRlMB0GA1UdDgQWBBSCKDPZOARu9CtP
3MMqr4r1lwVp6jCB6QYDVR0jBIHhMIHegBTvOI0UUFinW02cF3L837msp1GwEKGB
uqSBtzCBtDELMAkGA1UEBhMCVVMxCzAJBgNVBAgTAkNBMRUwEwYDVQQHEwxTYW5G
cmFuY2lzY28xFTATBgNVBAoTDFBpeGdsbywgSW5jLjEQMA4GA1UECxMHVlBOLUNJ
RTEaMBgGA1UEAxMRdHVubmVsLnBpeGdsby5jb20xHDAaBgNVBCkTE0JhbGEgQ2hh
bmRyYXNla2FyYW4xHjAcBgkqhkiG9w0BCQEWD2JhbGFAcGl4Z2xvLmNvbYIJAKbb
xoOA5qB5MBMGA1UdJQQMMAoGCCsGAQUFBwMCMAsGA1UdDwQEAwIHgDANBgkqhkiG
9w0BAQUFAAOCAgEA4EN/mS+ieuw2hB7x2+OvEkTXXyToOsWJVZ01sXYSAlt/Su9Q
ZybDeSw76B6So58cLmRDpz8eXZP6mlwWAXQZKYbznVirQwqTbWUO4fwmjcCgO/vT
Gksj/MFAy8ulpE2MUiGllCRfC1ah0yemt+71898N2XNhzppjk1Fbwz6x3b/IT1gX
bix/Ych9w10ULe9I7GvpqXL9LPHQBUU4ZiK1ZzARXHHgmxza2LADYs/jk0Zkxld/
2OBOBKJjvvmyCyzJsrhWxCfm8aP6sKQjnllalrOxuXp+CYZH/v+BXRPE3Bqe9TPM
7HAAREN+Acn6zm7zDKi9qTYojd1jhF3Y68DNbIUUSp+B7ZlPu/NPrrY2D9t/vn/l
XU40oMy/LZwhzxKVkyJz2DIL6crkC1ugCy7Vgl2hql32QVPpHaMP80pi/OodfuNR
BmT6b6Y8RWyUBACDb5ahrjkJ8avXObQMM9B9vLB9lkNoLQoqd6q4qSkEwzT5R/Qj
bjm50d7KNt4xkpgZQSbpj8945Uoz5tNsu5iEZWedu+n+xGdn73lGZTkLxbSslyDq
3WFIV7iIXjEECYKqIGwiXJaf2U3WQsMOLs6JN3bn+OgpuH3sM7XVGL5/vCMEykkP
qKpJeMOgbhnjVN4aM9VwL5DRaJFAlNGnP1VV98m50hwUb4qUFJIL2wP+6B4=
-----END CERTIFICATE-----
