Certificate:
    Data:
        Version: 3 (0x2)
        Serial Number: 223 (0xdf)
    Signature Algorithm: sha1WithRSAEncryption
        Issuer: C=US, ST=CA, L=SanFrancisco, O=Pixglo, Inc., OU=VPN-CIE, CN=tunnel.pixglo.com/name=Bala Chandrasekaran/emailAddress=bala@pixglo.com
        Validity
            Not Before: Feb 14 06:28:59 2018 GMT
            Not After : Feb 12 06:28:59 2028 GMT
        Subject: C=US, ST=CA, L=SanFrancisco, O=Pixglo, Inc., OU=VPN-CIE, CN=cie222/name=Bala Chandrasekaran/emailAddress=bala@pixglo.com
        Subject Public Key Info:
            Public Key Algorithm: rsaEncryption
                Public-Key: (4096 bit)
                Modulus:
                    00:96:3a:84:15:72:e0:0e:b4:3c:12:93:e6:25:f4:
                    46:a9:76:ca:b1:f5:d4:c6:5c:82:75:90:49:a6:c1:
                    a5:08:37:ec:e8:0c:a2:6f:69:e0:cb:3b:85:e9:fc:
                    f2:fb:25:e8:7e:df:21:9e:f2:58:15:e0:16:a3:c1:
                    59:b7:90:29:9a:a1:d2:d0:d6:c8:3d:f3:8a:8a:4a:
                    c2:23:b5:05:da:b6:11:e8:39:3d:fd:9c:43:7f:d6:
                    06:49:aa:54:39:46:9b:ac:f2:69:8b:b2:3a:c4:80:
                    72:32:ca:c4:69:00:12:0e:36:ee:8a:52:7a:ac:60:
                    ef:e0:92:43:ca:e2:01:c2:56:9a:a2:66:b2:19:fa:
                    5e:c1:db:49:a4:90:09:a6:15:0c:4c:0f:75:99:f8:
                    0f:14:b7:00:5b:52:1a:4f:17:0f:0d:21:d6:56:69:
                    b4:29:43:83:01:b1:97:94:81:28:13:07:1d:6e:c3:
                    42:6c:ba:22:55:18:5e:a5:d8:8d:8e:a6:99:32:56:
                    a5:57:32:ed:ef:74:d6:f6:f1:73:9a:7e:56:2f:d0:
                    15:1b:18:38:f2:e7:3a:f0:93:b0:19:e2:a8:74:b1:
                    a4:1f:83:39:82:4c:1f:ab:31:01:69:c5:52:10:80:
                    87:d3:1e:30:00:57:b1:14:db:08:e7:40:96:aa:ce:
                    d6:a2:bd:99:12:2e:02:dd:7a:33:12:2c:d3:b9:97:
                    fa:fd:71:f8:62:c3:bb:1a:99:c3:4e:25:36:ad:9b:
                    1a:92:2a:47:a9:90:f2:b0:ee:5b:26:a2:5b:a0:59:
                    eb:9e:61:04:d8:b9:af:a3:bb:f5:f9:bd:87:c2:66:
                    d8:84:46:c0:9c:e3:06:a2:51:ef:07:cc:f8:a0:d8:
                    16:32:72:0c:8b:06:20:e6:a3:e5:1a:d3:65:26:54:
                    5d:4d:3f:85:c4:47:5c:f5:4c:3f:1c:9c:77:7d:d0:
                    d3:8f:a3:ff:f2:38:5c:37:6f:46:03:2f:ef:a9:34:
                    2d:47:1c:fb:87:20:d2:57:77:02:97:81:4f:5e:3e:
                    75:d8:7b:c2:f1:0e:69:ba:3a:39:ed:cc:8b:26:94:
                    ae:77:b0:f2:f6:54:96:d6:14:b0:b6:1a:f6:91:47:
                    13:f6:0d:c4:8d:48:7a:cd:c1:b7:25:e0:fa:92:c7:
                    49:3d:68:90:fc:3f:b3:67:5d:84:9b:f0:e5:64:aa:
                    33:22:3d:cc:a0:81:fc:d1:98:5e:2b:80:f6:5e:28:
                    fc:9c:88:fc:02:50:f5:5e:1e:a3:e1:e2:bb:62:3c:
                    d7:aa:a7:ad:2d:28:27:d0:13:eb:cf:e4:62:c4:e8:
                    c2:aa:39:f1:fe:85:59:44:1b:d6:04:d1:83:2e:c7:
                    d3:7f:97
                Exponent: 65537 (0x10001)
        X509v3 extensions:
            X509v3 Basic Constraints: 
                CA:FALSE
            Netscape Comment: 
                Easy-RSA Generated Certificate
            X509v3 Subject Key Identifier: 
                7E:77:47:51:C6:80:99:31:D8:69:6C:A8:9B:6F:1C:B1:D0:D7:2D:E1
            X509v3 Authority Key Identifier: 
                keyid:EF:38:8D:14:50:58:A7:5B:4D:9C:17:72:FC:DF:B9:AC:A7:51:B0:10
                DirName:/C=US/ST=CA/L=SanFrancisco/O=Pixglo, Inc./OU=VPN-CIE/CN=tunnel.pixglo.com/name=Bala Chandrasekaran/emailAddress=bala@pixglo.com
                serial:A6:DB:C6:83:80:E6:A0:79

            X509v3 Extended Key Usage: 
                TLS Web Client Authentication
            X509v3 Key Usage: 
                Digital Signature
    Signature Algorithm: sha1WithRSAEncryption
         35:4f:f8:da:2d:4e:cd:b9:8f:3a:25:f5:97:d9:f6:32:cf:3a:
         ee:8f:13:9c:d9:00:70:d3:0f:da:a6:38:02:38:24:0f:3e:64:
         65:1e:5a:1e:f5:2e:65:b6:29:4c:40:86:81:ba:94:e6:e9:31:
         87:14:f5:c2:f3:6f:0c:42:ea:7c:46:ee:b8:dd:55:28:0c:3d:
         2a:1c:3e:16:bf:73:40:37:f4:0b:6e:5e:da:75:95:c8:a9:df:
         10:8e:69:39:78:94:f1:99:a4:50:87:74:f2:3a:52:4e:9e:5c:
         73:80:16:de:f8:16:3c:dd:a6:6a:1e:2c:fa:2e:13:74:58:dd:
         d1:37:3f:49:47:bb:8e:9f:44:a4:c9:d1:91:e6:88:bc:10:da:
         c0:97:8f:57:f5:54:a9:d1:f2:ad:d7:e5:59:b8:55:09:36:da:
         a2:5c:68:fe:fe:89:15:99:e0:2e:d4:68:c0:6f:97:55:7a:e0:
         cd:8d:83:f2:d3:c5:3d:fb:19:56:a6:5d:8a:ff:9b:75:a9:63:
         7c:93:69:b3:9a:aa:86:6b:2f:d2:eb:e0:02:db:a9:67:94:de:
         43:b1:1f:12:82:08:16:2b:9f:ac:f2:6f:a0:d8:10:9e:b7:65:
         00:38:23:ee:d2:62:be:16:67:c2:d9:3f:cf:53:46:0c:a7:ba:
         01:7d:55:a1:4e:04:1d:a5:24:89:ff:48:29:ca:37:bb:e4:a5:
         43:22:3a:77:59:b6:7a:36:1f:b9:43:52:da:09:ee:72:37:92:
         93:57:e4:79:80:54:72:94:6f:fd:02:6f:2c:b5:0d:ac:17:ab:
         d9:8c:a8:b7:c1:76:f0:a4:c3:c5:46:6d:06:48:90:20:26:76:
         30:34:17:cb:16:95:23:2d:7a:b8:29:2c:07:4d:f2:e1:b3:62:
         72:70:16:e5:0c:b6:b9:70:70:f4:53:76:3e:62:66:bf:4b:cd:
         d3:bc:13:fb:73:48:b2:19:41:54:bc:9f:86:8b:6e:f7:6a:08:
         1f:86:a5:05:f0:96:9b:1e:ef:37:c3:09:83:31:22:96:44:70:
         96:79:a5:90:b4:34:6a:cc:c0:0b:6d:2b:3b:4d:c8:77:30:e5:
         d3:6a:5f:7c:3c:8e:23:b8:13:6a:b2:18:09:ec:8a:1a:59:50:
         5d:04:8e:3f:ec:9d:a5:77:a6:21:9f:c6:34:da:a4:d3:e8:51:
         7f:9c:c2:ec:9c:cd:7d:08:3b:0b:1a:c5:71:1b:84:66:95:fb:
         d1:1b:ba:6b:d2:0b:07:f9:77:03:ea:d7:69:80:ff:94:2c:6d:
         0f:5e:b6:73:e3:31:0c:0d:13:87:74:e1:aa:2f:04:3b:1a:9d:
         97:03:d9:84:c4:9c:3f:52
-----BEGIN CERTIFICATE-----
MIIHSDCCBTCgAwIBAgICAN8wDQYJKoZIhvcNAQEFBQAwgbQxCzAJBgNVBAYTAlVT
MQswCQYDVQQIEwJDQTEVMBMGA1UEBxMMU2FuRnJhbmNpc2NvMRUwEwYDVQQKEwxQ
aXhnbG8sIEluYy4xEDAOBgNVBAsTB1ZQTi1DSUUxGjAYBgNVBAMTEXR1bm5lbC5w
aXhnbG8uY29tMRwwGgYDVQQpExNCYWxhIENoYW5kcmFzZWthcmFuMR4wHAYJKoZI
hvcNAQkBFg9iYWxhQHBpeGdsby5jb20wHhcNMTgwMjE0MDYyODU5WhcNMjgwMjEy
MDYyODU5WjCBqTELMAkGA1UEBhMCVVMxCzAJBgNVBAgTAkNBMRUwEwYDVQQHEwxT
YW5GcmFuY2lzY28xFTATBgNVBAoTDFBpeGdsbywgSW5jLjEQMA4GA1UECxMHVlBO
LUNJRTEPMA0GA1UEAxMGY2llMjIyMRwwGgYDVQQpExNCYWxhIENoYW5kcmFzZWth
cmFuMR4wHAYJKoZIhvcNAQkBFg9iYWxhQHBpeGdsby5jb20wggIiMA0GCSqGSIb3
DQEBAQUAA4ICDwAwggIKAoICAQCWOoQVcuAOtDwSk+Yl9Eapdsqx9dTGXIJ1kEmm
waUIN+zoDKJvaeDLO4Xp/PL7Jeh+3yGe8lgV4BajwVm3kCmaodLQ1sg984qKSsIj
tQXathHoOT39nEN/1gZJqlQ5Rpus8mmLsjrEgHIyysRpABIONu6KUnqsYO/gkkPK
4gHCVpqiZrIZ+l7B20mkkAmmFQxMD3WZ+A8UtwBbUhpPFw8NIdZWabQpQ4MBsZeU
gSgTBx1uw0JsuiJVGF6l2I2OppkyVqVXMu3vdNb28XOaflYv0BUbGDjy5zrwk7AZ
4qh0saQfgzmCTB+rMQFpxVIQgIfTHjAAV7EU2wjnQJaqztaivZkSLgLdejMSLNO5
l/r9cfhiw7samcNOJTatmxqSKkepkPKw7lsmolugWeueYQTYua+ju/X5vYfCZtiE
RsCc4waiUe8HzPig2BYycgyLBiDmo+Ua02UmVF1NP4XER1z1TD8cnHd90NOPo//y
OFw3b0YDL++pNC1HHPuHINJXdwKXgU9ePnXYe8LxDmm6OjntzIsmlK53sPL2VJbW
FLC2GvaRRxP2DcSNSHrNwbcl4PqSx0k9aJD8P7NnXYSb8OVkqjMiPcyggfzRmF4r
gPZeKPyciPwCUPVeHqPh4rtiPNeqp60tKCfQE+vP5GLE6MKqOfH+hVlEG9YE0YMu
x9N/lwIDAQABo4IBazCCAWcwCQYDVR0TBAIwADAtBglghkgBhvhCAQ0EIBYeRWFz
eS1SU0EgR2VuZXJhdGVkIENlcnRpZmljYXRlMB0GA1UdDgQWBBR+d0dRxoCZMdhp
bKibbxyx0Nct4TCB6QYDVR0jBIHhMIHegBTvOI0UUFinW02cF3L837msp1GwEKGB
uqSBtzCBtDELMAkGA1UEBhMCVVMxCzAJBgNVBAgTAkNBMRUwEwYDVQQHEwxTYW5G
cmFuY2lzY28xFTATBgNVBAoTDFBpeGdsbywgSW5jLjEQMA4GA1UECxMHVlBOLUNJ
RTEaMBgGA1UEAxMRdHVubmVsLnBpeGdsby5jb20xHDAaBgNVBCkTE0JhbGEgQ2hh
bmRyYXNla2FyYW4xHjAcBgkqhkiG9w0BCQEWD2JhbGFAcGl4Z2xvLmNvbYIJAKbb
xoOA5qB5MBMGA1UdJQQMMAoGCCsGAQUFBwMCMAsGA1UdDwQEAwIHgDANBgkqhkiG
9w0BAQUFAAOCAgEANU/42i1OzbmPOiX1l9n2Ms867o8TnNkAcNMP2qY4AjgkDz5k
ZR5aHvUuZbYpTECGgbqU5ukxhxT1wvNvDELqfEbuuN1VKAw9Khw+Fr9zQDf0C25e
2nWVyKnfEI5pOXiU8ZmkUId08jpSTp5cc4AW3vgWPN2mah4s+i4TdFjd0Tc/SUe7
jp9EpMnRkeaIvBDawJePV/VUqdHyrdflWbhVCTbaolxo/v6JFZngLtRowG+XVXrg
zY2D8tPFPfsZVqZdiv+bdaljfJNps5qqhmsv0uvgAtupZ5TeQ7EfEoIIFiufrPJv
oNgQnrdlADgj7tJivhZnwtk/z1NGDKe6AX1VoU4EHaUkif9IKco3u+SlQyI6d1m2
ejYfuUNS2gnucjeSk1fkeYBUcpRv/QJvLLUNrBer2Yyot8F28KTDxUZtBkiQICZ2
MDQXyxaVIy16uCksB03y4bNicnAW5Qy2uXBw9FN2PmJmv0vN07wT+3NIshlBVLyf
hotu92oIH4alBfCWmx7vN8MJgzEilkRwlnmlkLQ0aszAC20rO03IdzDl02pffDyO
I7gTarIYCeyKGllQXQSOP+ydpXemIZ/GNNqk0+hRf5zC7JzNfQg7CxrFcRuEZpX7
0Ru6a9ILB/l3A+rXaYD/lCxtD162c+MxDA0Th3Thqi8EOxqdlwPZhMScP1I=
-----END CERTIFICATE-----
