Certificate:
    Data:
        Version: 3 (0x2)
        Serial Number: 224 (0xe0)
    Signature Algorithm: sha1WithRSAEncryption
        Issuer: C=US, ST=CA, L=SanFrancisco, O=Pixglo, Inc., OU=VPN-CIE, CN=tunnel.pixglo.com/name=Bala Chandrasekaran/emailAddress=bala@pixglo.com
        Validity
            Not Before: Feb 14 06:29:00 2018 GMT
            Not After : Feb 12 06:29:00 2028 GMT
        Subject: C=US, ST=CA, L=SanFrancisco, O=Pixglo, Inc., OU=VPN-CIE, CN=cie223/name=Bala Chandrasekaran/emailAddress=bala@pixglo.com
        Subject Public Key Info:
            Public Key Algorithm: rsaEncryption
                Public-Key: (4096 bit)
                Modulus:
                    00:99:ca:97:c9:39:8f:2f:67:cb:8e:89:11:5c:b3:
                    a0:2a:41:90:cb:c0:08:14:3f:9b:cb:7d:00:35:ce:
                    2a:0a:45:dc:83:09:b5:0b:71:e8:51:5d:c8:96:e9:
                    a6:f1:4e:5c:b7:e6:43:e9:a1:93:bb:0c:73:1b:46:
                    37:cf:4a:c4:19:d3:1e:e4:17:58:e8:dd:2a:98:20:
                    01:bf:85:f3:f5:fc:b1:93:bd:e5:e8:69:c7:a6:14:
                    38:00:42:73:81:ee:b1:08:0d:ad:56:e7:7a:ff:b3:
                    63:11:92:6a:b1:4a:6b:76:5b:97:0c:68:30:64:4e:
                    6b:9f:62:65:16:e7:4f:7a:46:b7:08:5f:1d:66:cc:
                    79:41:85:17:75:71:aa:74:c2:16:7a:91:e9:91:64:
                    8f:9b:a0:74:19:bb:4d:4a:4e:b8:67:fd:6c:17:ed:
                    0f:a7:b5:d0:8f:8a:98:b1:f3:c9:ec:a1:16:b6:f3:
                    6b:59:5d:a4:4a:78:ec:2c:68:4a:31:59:82:32:2e:
                    8e:7a:01:d2:b4:b6:09:d6:2d:f4:cb:53:ce:42:b9:
                    b7:e2:14:17:62:31:b0:b2:e4:eb:71:2a:e4:82:41:
                    de:99:5f:08:c6:c5:18:09:68:2c:2c:e1:38:06:b4:
                    48:51:33:17:76:d2:89:dd:11:91:7f:a3:2c:a7:4b:
                    b6:46:ee:ff:30:67:ef:bf:df:9e:79:c5:c5:b0:0a:
                    89:57:0c:0c:f0:cd:72:f8:4c:a0:4f:c3:49:12:a4:
                    87:b9:c1:52:67:38:72:0c:5c:59:7b:a4:75:9f:4d:
                    18:cc:a3:f9:ee:4e:15:d1:6b:1e:da:c4:cb:ba:b3:
                    e3:db:76:48:33:f6:7f:38:eb:72:bb:76:ea:dd:e4:
                    c2:7c:98:91:b4:26:6c:1b:81:9b:c5:d5:ca:a5:ab:
                    76:72:6c:f7:38:67:2f:06:97:20:e4:80:bb:ea:8e:
                    b6:26:71:31:ec:b6:21:42:75:9d:e8:22:4f:41:f1:
                    1e:50:d8:9d:46:6c:ec:82:97:84:e0:ad:05:68:b1:
                    e4:34:f0:2f:87:49:00:71:f8:84:84:cf:63:eb:ed:
                    6b:d8:53:8d:78:09:8d:df:4f:16:ab:ef:f1:25:66:
                    8b:d2:f9:b4:c0:17:be:5e:16:c9:6f:32:cc:31:59:
                    be:ae:60:7b:62:40:9e:4e:22:15:1d:1d:fe:18:06:
                    b4:4c:ee:f7:a5:e9:80:34:f9:af:51:6e:39:89:09:
                    df:93:94:a1:1a:e5:a7:9e:db:93:e9:68:6e:cf:09:
                    ea:09:73:50:83:bb:52:ab:b8:d0:0b:67:52:f5:27:
                    8c:f2:25:e7:f6:bc:25:57:2e:4d:1b:71:bb:db:0d:
                    b9:16:79
                Exponent: 65537 (0x10001)
        X509v3 extensions:
            X509v3 Basic Constraints: 
                CA:FALSE
            Netscape Comment: 
                Easy-RSA Generated Certificate
            X509v3 Subject Key Identifier: 
                F6:65:DC:F9:66:24:8C:B0:1F:F9:08:73:E0:E3:79:4D:25:0E:FA:1D
            X509v3 Authority Key Identifier: 
                keyid:EF:38:8D:14:50:58:A7:5B:4D:9C:17:72:FC:DF:B9:AC:A7:51:B0:10
                DirName:/C=US/ST=CA/L=SanFrancisco/O=Pixglo, Inc./OU=VPN-CIE/CN=tunnel.pixglo.com/name=Bala Chandrasekaran/emailAddress=bala@pixglo.com
                serial:A6:DB:C6:83:80:E6:A0:79

            X509v3 Extended Key Usage: 
                TLS Web Client Authentication
            X509v3 Key Usage: 
                Digital Signature
    Signature Algorithm: sha1WithRSAEncryption
         73:31:ed:ff:fb:a7:b0:07:18:74:b3:1f:7d:f8:bc:64:00:78:
         e2:fc:45:1f:ce:7d:9d:f2:5b:66:9f:d0:ed:95:86:9a:59:07:
         d8:54:32:5b:cb:5d:b1:d0:1d:b0:32:6e:10:6d:b7:0c:fa:78:
         d9:db:4c:93:04:6a:dd:87:d5:20:1e:33:c0:b1:86:1d:d3:50:
         3c:c4:31:76:4d:dd:00:52:06:a5:55:fc:b7:20:37:11:78:08:
         0f:67:6c:e5:b9:6c:44:b9:12:b9:76:a3:aa:03:14:8b:10:85:
         ec:69:6d:b3:f8:5d:71:7c:75:db:70:62:da:64:69:44:e5:68:
         f9:fb:34:38:6f:81:99:29:de:f5:66:3f:1a:bc:e6:69:74:e2:
         d2:4b:fd:0d:e2:9b:2b:8e:a0:e8:e5:68:71:a6:a6:2e:78:c1:
         dd:2f:cd:3e:80:d8:2a:c7:bb:9a:99:5d:01:c6:9b:f7:5e:f4:
         f6:f3:54:c5:3a:35:d4:16:df:75:f0:c0:8a:71:11:10:97:62:
         27:61:d8:9d:ee:fe:d8:fd:bc:a9:e4:3d:e8:75:fe:fc:89:e4:
         bd:4c:6d:34:e2:c8:85:94:7a:73:6c:db:f2:ba:f1:39:59:b8:
         a4:e9:55:eb:0d:2e:93:88:7f:fb:22:5a:c3:d0:d0:dc:69:63:
         ba:3b:02:3a:f8:50:b6:23:00:c2:e3:3e:b2:15:5a:3d:04:ba:
         91:b6:12:91:46:ee:16:11:48:0b:4a:b6:0e:0b:32:fe:e2:2e:
         39:ac:4c:7b:6d:37:f8:ef:9c:4b:69:1e:34:d5:e7:45:97:bf:
         3a:ad:a4:33:3f:7a:ff:bd:2b:37:a7:40:2f:1c:35:ac:ce:0a:
         66:9e:56:5a:48:ee:1e:73:be:fa:2a:ea:52:81:3f:c1:5d:6c:
         21:26:bd:24:d2:dc:3a:2e:75:4b:9d:00:df:3b:2c:00:e0:5a:
         a2:45:50:00:2c:0c:eb:a7:34:82:dc:2a:e1:61:bd:10:9b:7e:
         d4:18:a6:7c:1e:4f:1e:6d:f5:f1:e7:23:a0:71:11:8d:47:7e:
         4a:94:63:55:21:ab:21:ef:56:13:2b:4b:30:05:f5:9d:5a:32:
         28:5d:1a:23:6a:2d:d3:11:29:8c:4a:c3:00:90:8c:ea:90:22:
         39:37:f0:26:e1:f6:9a:88:3c:37:ce:6d:df:d5:16:75:c9:1b:
         09:ef:9c:41:94:80:eb:46:4a:0d:44:cf:39:a7:4c:c6:5d:f6:
         13:d7:fd:90:4e:f2:48:78:14:ae:57:b8:7a:c9:ad:8f:3d:bd:
         c4:f6:c9:3f:75:cc:9e:c7:97:c6:7d:7c:50:9f:bf:ff:08:dd:
         07:c7:7f:5d:a6:36:2e:b6
-----BEGIN CERTIFICATE-----
MIIHSDCCBTCgAwIBAgICAOAwDQYJKoZIhvcNAQEFBQAwgbQxCzAJBgNVBAYTAlVT
MQswCQYDVQQIEwJDQTEVMBMGA1UEBxMMU2FuRnJhbmNpc2NvMRUwEwYDVQQKEwxQ
aXhnbG8sIEluYy4xEDAOBgNVBAsTB1ZQTi1DSUUxGjAYBgNVBAMTEXR1bm5lbC5w
aXhnbG8uY29tMRwwGgYDVQQpExNCYWxhIENoYW5kcmFzZWthcmFuMR4wHAYJKoZI
hvcNAQkBFg9iYWxhQHBpeGdsby5jb20wHhcNMTgwMjE0MDYyOTAwWhcNMjgwMjEy
MDYyOTAwWjCBqTELMAkGA1UEBhMCVVMxCzAJBgNVBAgTAkNBMRUwEwYDVQQHEwxT
YW5GcmFuY2lzY28xFTATBgNVBAoTDFBpeGdsbywgSW5jLjEQMA4GA1UECxMHVlBO
LUNJRTEPMA0GA1UEAxMGY2llMjIzMRwwGgYDVQQpExNCYWxhIENoYW5kcmFzZWth
cmFuMR4wHAYJKoZIhvcNAQkBFg9iYWxhQHBpeGdsby5jb20wggIiMA0GCSqGSIb3
DQEBAQUAA4ICDwAwggIKAoICAQCZypfJOY8vZ8uOiRFcs6AqQZDLwAgUP5vLfQA1
zioKRdyDCbULcehRXciW6abxTly35kPpoZO7DHMbRjfPSsQZ0x7kF1jo3SqYIAG/
hfP1/LGTveXoacemFDgAQnOB7rEIDa1W53r/s2MRkmqxSmt2W5cMaDBkTmufYmUW
5096RrcIXx1mzHlBhRd1cap0whZ6kemRZI+boHQZu01KTrhn/WwX7Q+ntdCPipix
88nsoRa282tZXaRKeOwsaEoxWYIyLo56AdK0tgnWLfTLU85CubfiFBdiMbCy5Otx
KuSCQd6ZXwjGxRgJaCws4TgGtEhRMxd20ondEZF/oyynS7ZG7v8wZ++/3555xcWw
ColXDAzwzXL4TKBPw0kSpIe5wVJnOHIMXFl7pHWfTRjMo/nuThXRax7axMu6s+Pb
dkgz9n8463K7durd5MJ8mJG0JmwbgZvF1cqlq3ZybPc4Zy8GlyDkgLvqjrYmcTHs
tiFCdZ3oIk9B8R5Q2J1GbOyCl4TgrQVoseQ08C+HSQBx+ISEz2Pr7WvYU414CY3f
Txar7/ElZovS+bTAF75eFslvMswxWb6uYHtiQJ5OIhUdHf4YBrRM7vel6YA0+a9R
bjmJCd+TlKEa5aee25PpaG7PCeoJc1CDu1KruNALZ1L1J4zyJef2vCVXLk0bcbvb
DbkWeQIDAQABo4IBazCCAWcwCQYDVR0TBAIwADAtBglghkgBhvhCAQ0EIBYeRWFz
eS1SU0EgR2VuZXJhdGVkIENlcnRpZmljYXRlMB0GA1UdDgQWBBT2Zdz5ZiSMsB/5
CHPg43lNJQ76HTCB6QYDVR0jBIHhMIHegBTvOI0UUFinW02cF3L837msp1GwEKGB
uqSBtzCBtDELMAkGA1UEBhMCVVMxCzAJBgNVBAgTAkNBMRUwEwYDVQQHEwxTYW5G
cmFuY2lzY28xFTATBgNVBAoTDFBpeGdsbywgSW5jLjEQMA4GA1UECxMHVlBOLUNJ
RTEaMBgGA1UEAxMRdHVubmVsLnBpeGdsby5jb20xHDAaBgNVBCkTE0JhbGEgQ2hh
bmRyYXNla2FyYW4xHjAcBgkqhkiG9w0BCQEWD2JhbGFAcGl4Z2xvLmNvbYIJAKbb
xoOA5qB5MBMGA1UdJQQMMAoGCCsGAQUFBwMCMAsGA1UdDwQEAwIHgDANBgkqhkiG
9w0BAQUFAAOCAgEAczHt//unsAcYdLMfffi8ZAB44vxFH859nfJbZp/Q7ZWGmlkH
2FQyW8tdsdAdsDJuEG23DPp42dtMkwRq3YfVIB4zwLGGHdNQPMQxdk3dAFIGpVX8
tyA3EXgID2ds5blsRLkSuXajqgMUixCF7Glts/hdcXx123Bi2mRpROVo+fs0OG+B
mSne9WY/GrzmaXTi0kv9DeKbK46g6OVocaamLnjB3S/NPoDYKse7mpldAcab9170
9vNUxTo11BbfdfDAinEREJdiJ2HYne7+2P28qeQ96HX+/InkvUxtNOLIhZR6c2zb
8rrxOVm4pOlV6w0uk4h/+yJaw9DQ3GljujsCOvhQtiMAwuM+shVaPQS6kbYSkUbu
FhFIC0q2Dgsy/uIuOaxMe203+O+cS2keNNXnRZe/Oq2kMz96/70rN6dALxw1rM4K
Zp5WWkjuHnO++irqUoE/wV1sISa9JNLcOi51S50A3zssAOBaokVQACwM66c0gtwq
4WG9EJt+1BimfB5PHm318ecjoHERjUd+SpRjVSGrIe9WEytLMAX1nVoyKF0aI2ot
0xEpjErDAJCM6pAiOTfwJuH2mog8N85t39UWdckbCe+cQZSA60ZKDUTPOadMxl32
E9f9kE7ySHgUrle4esmtjz29xPbJP3XMnseXxn18UJ+//wjdB8d/XaY2LrY=
-----END CERTIFICATE-----
