Certificate:
    Data:
        Version: 3 (0x2)
        Serial Number: 225 (0xe1)
    Signature Algorithm: sha1WithRSAEncryption
        Issuer: C=US, ST=CA, L=SanFrancisco, O=Pixglo, Inc., OU=VPN-CIE, CN=tunnel.pixglo.com/name=Bala Chandrasekaran/emailAddress=bala@pixglo.com
        Validity
            Not Before: Feb 14 06:29:00 2018 GMT
            Not After : Feb 12 06:29:00 2028 GMT
        Subject: C=US, ST=CA, L=SanFrancisco, O=Pixglo, Inc., OU=VPN-CIE, CN=cie224/name=Bala Chandrasekaran/emailAddress=bala@pixglo.com
        Subject Public Key Info:
            Public Key Algorithm: rsaEncryption
                Public-Key: (4096 bit)
                Modulus:
                    00:ac:11:08:99:73:43:fd:f1:8a:63:67:6e:3c:c5:
                    94:8b:3a:26:be:27:7f:1b:59:b9:27:00:7c:21:b6:
                    56:8c:bb:85:7a:6c:f7:b9:71:7e:7b:7a:2a:8d:5e:
                    e2:70:6c:20:24:e4:4e:3a:30:f0:11:78:1e:b5:98:
                    8e:dc:6d:ba:cd:b8:44:f2:b8:6e:f8:89:e0:67:74:
                    70:e9:4d:86:16:4b:65:50:7e:95:eb:00:79:10:d2:
                    b6:2f:03:14:77:86:73:29:43:29:93:84:e3:76:4d:
                    fc:1b:da:2b:4f:07:ff:cf:55:22:87:74:bf:84:f7:
                    b7:ce:ce:87:82:6e:e2:25:83:a7:e6:a2:80:f8:0b:
                    e9:f8:80:16:9d:6b:57:7e:69:bb:3f:ac:23:74:63:
                    7c:32:28:76:47:95:e6:2f:06:b5:2c:d2:ed:5f:6f:
                    02:72:b8:ef:cb:dc:3c:25:f6:ec:7c:47:98:76:6d:
                    5a:4f:f7:8f:93:b4:92:ab:1c:5f:48:94:3d:74:80:
                    d4:7c:9e:74:92:4b:c9:b8:49:f1:ff:be:d6:85:63:
                    f9:c8:d3:c4:f6:3a:e8:5b:80:36:6f:18:5e:87:84:
                    35:31:2c:69:7e:d9:25:47:f9:4c:41:53:43:7b:43:
                    87:a2:7c:75:79:79:e0:3c:45:92:1d:90:57:58:94:
                    bc:bc:38:ee:08:d8:8d:6d:c5:16:bb:79:ac:b5:28:
                    ae:79:f8:28:ef:b4:89:79:10:ab:68:40:1c:b6:b0:
                    db:9a:6b:e9:d4:2a:af:3e:bd:7b:d7:dc:d8:d1:9d:
                    37:d4:9e:a0:68:04:8a:fd:c3:b3:62:ec:e2:13:21:
                    94:51:1a:61:b3:81:20:46:4d:a2:88:24:37:27:72:
                    12:d2:d6:ec:47:20:9d:01:d6:f8:5a:f9:f6:65:fb:
                    b3:71:08:5a:fd:ad:e7:d6:e5:cf:3e:b6:95:10:10:
                    c3:51:d0:c1:3a:e6:c0:17:3a:52:f6:08:53:89:94:
                    54:c6:fa:20:6b:38:17:05:51:29:6f:a9:16:8b:f7:
                    e6:78:6a:e2:78:2d:1f:f2:36:b3:cf:48:37:b4:a3:
                    e2:fd:4b:4e:4b:73:0d:bd:27:22:7b:af:9f:8b:92:
                    71:f0:7d:13:1f:23:76:d5:2b:a5:b2:8f:ed:2c:73:
                    65:08:fc:70:68:0d:c4:24:4b:71:ba:54:78:17:20:
                    af:d9:ed:ee:a7:84:ed:d9:42:87:44:8f:58:6b:a0:
                    eb:fe:52:be:99:8a:8a:1b:41:b6:03:77:62:a1:41:
                    73:4c:26:53:27:26:aa:21:5b:15:dc:c7:69:38:85:
                    4d:56:45:36:67:95:46:ae:97:24:b7:aa:16:d5:60:
                    2c:0c:5b
                Exponent: 65537 (0x10001)
        X509v3 extensions:
            X509v3 Basic Constraints: 
                CA:FALSE
            Netscape Comment: 
                Easy-RSA Generated Certificate
            X509v3 Subject Key Identifier: 
                93:76:6A:FA:3F:2A:8C:BF:01:D0:15:2A:CD:31:6F:A1:DC:85:55:A2
            X509v3 Authority Key Identifier: 
                keyid:EF:38:8D:14:50:58:A7:5B:4D:9C:17:72:FC:DF:B9:AC:A7:51:B0:10
                DirName:/C=US/ST=CA/L=SanFrancisco/O=Pixglo, Inc./OU=VPN-CIE/CN=tunnel.pixglo.com/name=Bala Chandrasekaran/emailAddress=bala@pixglo.com
                serial:A6:DB:C6:83:80:E6:A0:79

            X509v3 Extended Key Usage: 
                TLS Web Client Authentication
            X509v3 Key Usage: 
                Digital Signature
    Signature Algorithm: sha1WithRSAEncryption
         26:be:b0:a7:34:c8:e4:cc:95:81:79:e3:c0:c9:c5:2a:51:cb:
         e2:fe:ed:8d:5b:aa:54:63:4c:7b:49:e4:e9:8d:e7:e3:ed:bb:
         b6:ee:fe:07:95:f4:26:b0:03:ff:42:ce:f1:bf:7a:14:6b:ea:
         d4:c6:70:77:6c:66:77:07:ac:ef:60:85:e7:d3:1a:c2:0b:75:
         c1:96:43:58:63:7b:c7:c4:ae:ba:84:44:e4:29:51:32:99:9d:
         a9:27:ba:f7:94:fd:26:da:c5:a3:80:ac:1d:88:44:8e:18:e3:
         5c:69:f7:49:1c:6b:c4:77:c7:26:d6:84:7f:90:2e:4c:f6:11:
         01:ae:a3:16:03:0b:19:9b:e3:43:65:7d:46:c7:a0:dd:70:6a:
         c9:98:a0:c8:7a:35:d4:d9:a3:76:08:c0:f7:42:30:aa:45:3a:
         68:23:bd:76:8d:25:f4:4c:76:31:05:09:b3:20:34:14:a2:59:
         0b:9c:f5:76:27:25:22:ed:b5:51:56:7b:be:0d:04:55:79:9d:
         90:a5:4f:93:77:3d:65:9b:06:4f:7d:7e:14:b3:45:3c:e2:7a:
         29:fe:6d:b8:69:30:5a:be:6c:38:cc:ca:f4:65:29:62:e2:6c:
         7e:d7:fb:92:b8:af:6f:d8:c2:a2:c9:ae:d7:ab:dd:ae:5b:0e:
         c4:8c:da:36:d6:1c:0d:e3:a9:d7:29:18:d0:5c:14:ab:98:57:
         c9:31:98:aa:7c:e2:34:a9:51:d9:77:5e:e0:bf:36:0c:f6:34:
         84:a9:03:05:f9:2b:42:ed:10:1b:fd:59:7b:d6:d8:90:34:8e:
         6b:91:c7:ab:f6:81:7f:35:cd:d4:a8:e2:92:2c:bf:6e:bd:55:
         62:39:f4:1e:57:ee:91:aa:46:30:69:bc:c0:fa:b6:0c:f1:59:
         82:53:ab:bb:3f:4b:a1:77:a8:95:d7:05:90:18:f4:e9:ad:45:
         62:8a:47:28:a0:d9:99:7c:66:bb:29:34:5b:8e:ca:00:cf:77:
         96:55:50:35:9a:0f:dd:89:8d:48:f3:9d:ae:db:8f:06:0c:61:
         c2:75:89:4b:9d:84:05:8a:a0:79:6d:67:eb:71:bd:24:e6:d4:
         d1:c9:68:fd:f4:0e:5f:2d:f8:23:6a:4f:ed:2e:be:71:d8:f9:
         8a:68:f2:aa:52:b2:bf:65:95:56:aa:43:66:b5:75:1f:68:58:
         63:16:50:6a:e5:f4:26:65:50:d0:c2:3c:2a:05:d2:1f:15:7f:
         d2:dc:1b:6e:c4:5c:98:66:3f:70:6b:e1:14:35:7c:b3:10:1e:
         63:24:c9:c2:cb:3c:d5:f7:f8:cb:c0:cd:5d:d0:71:1a:f7:d1:
         88:cd:8f:d0:d7:d4:2f:68
-----BEGIN CERTIFICATE-----
MIIHSDCCBTCgAwIBAgICAOEwDQYJKoZIhvcNAQEFBQAwgbQxCzAJBgNVBAYTAlVT
MQswCQYDVQQIEwJDQTEVMBMGA1UEBxMMU2FuRnJhbmNpc2NvMRUwEwYDVQQKEwxQ
aXhnbG8sIEluYy4xEDAOBgNVBAsTB1ZQTi1DSUUxGjAYBgNVBAMTEXR1bm5lbC5w
aXhnbG8uY29tMRwwGgYDVQQpExNCYWxhIENoYW5kcmFzZWthcmFuMR4wHAYJKoZI
hvcNAQkBFg9iYWxhQHBpeGdsby5jb20wHhcNMTgwMjE0MDYyOTAwWhcNMjgwMjEy
MDYyOTAwWjCBqTELMAkGA1UEBhMCVVMxCzAJBgNVBAgTAkNBMRUwEwYDVQQHEwxT
YW5GcmFuY2lzY28xFTATBgNVBAoTDFBpeGdsbywgSW5jLjEQMA4GA1UECxMHVlBO
LUNJRTEPMA0GA1UEAxMGY2llMjI0MRwwGgYDVQQpExNCYWxhIENoYW5kcmFzZWth
cmFuMR4wHAYJKoZIhvcNAQkBFg9iYWxhQHBpeGdsby5jb20wggIiMA0GCSqGSIb3
DQEBAQUAA4ICDwAwggIKAoICAQCsEQiZc0P98YpjZ248xZSLOia+J38bWbknAHwh
tlaMu4V6bPe5cX57eiqNXuJwbCAk5E46MPAReB61mI7cbbrNuETyuG74ieBndHDp
TYYWS2VQfpXrAHkQ0rYvAxR3hnMpQymThON2Tfwb2itPB//PVSKHdL+E97fOzoeC
buIlg6fmooD4C+n4gBada1d+abs/rCN0Y3wyKHZHleYvBrUs0u1fbwJyuO/L3Dwl
9ux8R5h2bVpP94+TtJKrHF9IlD10gNR8nnSSS8m4SfH/vtaFY/nI08T2OuhbgDZv
GF6HhDUxLGl+2SVH+UxBU0N7Q4eifHV5eeA8RZIdkFdYlLy8OO4I2I1txRa7eay1
KK55+CjvtIl5EKtoQBy2sNuaa+nUKq8+vXvX3NjRnTfUnqBoBIr9w7Ni7OITIZRR
GmGzgSBGTaKIJDcnchLS1uxHIJ0B1vha+fZl+7NxCFr9refW5c8+tpUQEMNR0ME6
5sAXOlL2CFOJlFTG+iBrOBcFUSlvqRaL9+Z4auJ4LR/yNrPPSDe0o+L9S05Lcw29
JyJ7r5+LknHwfRMfI3bVK6Wyj+0sc2UI/HBoDcQkS3G6VHgXIK/Z7e6nhO3ZQodE
j1hroOv+Ur6ZioobQbYDd2KhQXNMJlMnJqohWxXcx2k4hU1WRTZnlUaulyS3qhbV
YCwMWwIDAQABo4IBazCCAWcwCQYDVR0TBAIwADAtBglghkgBhvhCAQ0EIBYeRWFz
eS1SU0EgR2VuZXJhdGVkIENlcnRpZmljYXRlMB0GA1UdDgQWBBSTdmr6PyqMvwHQ
FSrNMW+h3IVVojCB6QYDVR0jBIHhMIHegBTvOI0UUFinW02cF3L837msp1GwEKGB
uqSBtzCBtDELMAkGA1UEBhMCVVMxCzAJBgNVBAgTAkNBMRUwEwYDVQQHEwxTYW5G
cmFuY2lzY28xFTATBgNVBAoTDFBpeGdsbywgSW5jLjEQMA4GA1UECxMHVlBOLUNJ
RTEaMBgGA1UEAxMRdHVubmVsLnBpeGdsby5jb20xHDAaBgNVBCkTE0JhbGEgQ2hh
bmRyYXNla2FyYW4xHjAcBgkqhkiG9w0BCQEWD2JhbGFAcGl4Z2xvLmNvbYIJAKbb
xoOA5qB5MBMGA1UdJQQMMAoGCCsGAQUFBwMCMAsGA1UdDwQEAwIHgDANBgkqhkiG
9w0BAQUFAAOCAgEAJr6wpzTI5MyVgXnjwMnFKlHL4v7tjVuqVGNMe0nk6Y3n4+27
tu7+B5X0JrAD/0LO8b96FGvq1MZwd2xmdwes72CF59Mawgt1wZZDWGN7x8SuuoRE
5ClRMpmdqSe695T9JtrFo4CsHYhEjhjjXGn3SRxrxHfHJtaEf5AuTPYRAa6jFgML
GZvjQ2V9Rseg3XBqyZigyHo11NmjdgjA90IwqkU6aCO9do0l9Ex2MQUJsyA0FKJZ
C5z1diclIu21UVZ7vg0EVXmdkKVPk3c9ZZsGT31+FLNFPOJ6Kf5tuGkwWr5sOMzK
9GUpYuJsftf7krivb9jCosmu16vdrlsOxIzaNtYcDeOp1ykY0FwUq5hXyTGYqnzi
NKlR2Xde4L82DPY0hKkDBfkrQu0QG/1Ze9bYkDSOa5HHq/aBfzXN1Kjikiy/br1V
Yjn0HlfukapGMGm8wPq2DPFZglOruz9LoXeoldcFkBj06a1FYopHKKDZmXxmuyk0
W47KAM93llVQNZoP3YmNSPOdrtuPBgxhwnWJS52EBYqgeW1n63G9JObU0clo/fQO
Xy34I2pP7S6+cdj5imjyqlKyv2WVVqpDZrV1H2hYYxZQauX0JmVQ0MI8KgXSHxV/
0twbbsRcmGY/cGvhFDV8sxAeYyTJwss81ff4y8DNXdBxGvfRiM2P0NfUL2g=
-----END CERTIFICATE-----
