Certificate:
    Data:
        Version: 3 (0x2)
        Serial Number: 226 (0xe2)
    Signature Algorithm: sha1WithRSAEncryption
        Issuer: C=US, ST=CA, L=SanFrancisco, O=Pixglo, Inc., OU=VPN-CIE, CN=tunnel.pixglo.com/name=Bala Chandrasekaran/emailAddress=bala@pixglo.com
        Validity
            Not Before: Feb 14 06:29:01 2018 GMT
            Not After : Feb 12 06:29:01 2028 GMT
        Subject: C=US, ST=CA, L=SanFrancisco, O=Pixglo, Inc., OU=VPN-CIE, CN=cie225/name=Bala Chandrasekaran/emailAddress=bala@pixglo.com
        Subject Public Key Info:
            Public Key Algorithm: rsaEncryption
                Public-Key: (4096 bit)
                Modulus:
                    00:c0:31:16:b4:59:af:10:45:74:56:5e:87:75:bb:
                    e4:23:6f:b1:f3:bb:21:08:77:09:cc:27:0a:93:50:
                    1b:72:33:f2:3f:4d:32:b1:6f:51:b4:3d:a2:26:f6:
                    1e:1f:04:4b:c2:3e:16:28:0f:34:a0:d0:28:12:ff:
                    0b:28:f9:f0:d9:b7:93:39:5b:6d:65:71:cb:ae:58:
                    73:fb:de:8b:9a:d7:75:7b:1e:1b:76:79:26:b3:5a:
                    6f:61:c0:4d:5a:c6:d0:25:33:73:b9:7b:1f:da:01:
                    6f:66:32:db:cf:dc:e4:98:c0:40:9e:b9:8d:e1:ba:
                    ef:b5:34:30:63:12:d6:b6:2e:db:2a:1c:d2:dc:14:
                    21:4a:a7:e1:46:84:4b:cd:1f:3c:7f:6a:72:ca:7c:
                    e9:e2:c9:d5:fd:09:88:a7:02:60:a2:64:e4:9a:18:
                    3f:ea:fd:3b:cc:8d:27:f1:fd:5d:b8:fe:1f:0f:4a:
                    f6:ea:36:47:27:a6:c9:78:69:e7:c9:55:83:05:4e:
                    10:a8:9f:c7:87:cf:c9:91:9b:17:61:6b:92:dc:01:
                    cb:9c:c8:d4:de:ba:f2:f6:37:c1:29:b8:3e:83:1d:
                    ee:02:77:0c:17:b6:f1:cf:fd:27:35:01:3a:19:99:
                    f1:83:12:09:8e:a7:da:28:d3:b0:a2:a7:d1:06:3b:
                    ee:50:24:5a:66:6a:14:4e:51:7a:b4:94:e4:17:67:
                    9c:71:90:dc:24:3a:b5:56:cd:bd:7a:31:84:78:3e:
                    e9:61:a9:c9:14:c0:ca:36:b0:80:0c:87:11:87:52:
                    ca:2b:ce:5b:7c:35:b0:b1:b4:65:da:10:e2:e2:35:
                    7b:ca:f1:88:bc:6e:69:32:9c:5b:93:bd:65:c4:a4:
                    1e:2e:42:5f:23:5d:89:1d:ab:c8:0d:a0:dd:65:ea:
                    6c:c1:4c:8c:04:28:c6:51:49:0d:42:ff:0a:07:94:
                    8a:49:5f:53:d9:05:48:16:75:55:71:c1:37:53:bc:
                    98:8d:28:8a:2a:93:86:3d:b9:da:39:0f:a6:20:08:
                    d7:a6:e3:9e:ac:83:83:4f:39:71:6a:2f:8b:3e:21:
                    aa:0a:5a:0b:3b:00:a3:5f:30:36:9f:5c:e5:c4:86:
                    4c:ed:21:50:58:c2:9d:31:3b:72:45:e4:52:24:03:
                    3c:61:3e:3e:91:ba:60:0a:1f:96:e2:4e:59:5f:e0:
                    a8:1b:1f:e7:83:08:15:60:bb:b4:1c:bb:d4:ed:3e:
                    f8:00:63:c9:1a:b5:1d:ab:60:10:e7:5a:ea:fe:e3:
                    68:9b:ba:41:2c:3a:aa:68:4d:56:e9:c8:7a:c7:b9:
                    23:05:cc:28:ee:bc:d7:33:0c:57:88:10:53:59:f0:
                    58:d5:21
                Exponent: 65537 (0x10001)
        X509v3 extensions:
            X509v3 Basic Constraints: 
                CA:FALSE
            Netscape Comment: 
                Easy-RSA Generated Certificate
            X509v3 Subject Key Identifier: 
                81:3E:64:6B:19:D4:69:60:5F:50:0D:6B:3C:D9:DF:D9:64:E5:8A:5A
            X509v3 Authority Key Identifier: 
                keyid:EF:38:8D:14:50:58:A7:5B:4D:9C:17:72:FC:DF:B9:AC:A7:51:B0:10
                DirName:/C=US/ST=CA/L=SanFrancisco/O=Pixglo, Inc./OU=VPN-CIE/CN=tunnel.pixglo.com/name=Bala Chandrasekaran/emailAddress=bala@pixglo.com
                serial:A6:DB:C6:83:80:E6:A0:79

            X509v3 Extended Key Usage: 
                TLS Web Client Authentication
            X509v3 Key Usage: 
                Digital Signature
    Signature Algorithm: sha1WithRSAEncryption
         78:b9:07:26:18:86:81:4d:a4:53:92:5a:7e:5e:c6:52:aa:57:
         04:59:70:0b:06:0f:f0:e5:f1:bf:c7:fb:4a:04:39:f9:91:83:
         ba:2d:6f:3b:9a:a4:44:6e:aa:d2:12:ff:30:ec:5d:1f:6a:c2:
         36:2c:9a:ba:a4:ca:b2:58:3b:af:8f:1f:f0:ba:8c:9f:09:43:
         87:bf:43:6d:79:bc:f4:3c:ae:58:77:ee:16:e4:25:34:05:8a:
         dc:b0:93:70:fe:cd:e5:c4:a0:12:16:2e:b0:8e:96:b2:ed:e7:
         ad:eb:c3:b6:d9:87:0b:0c:20:13:91:30:09:d2:f8:75:7a:e7:
         75:e9:59:e5:c0:60:23:29:e5:ad:33:a3:07:44:73:27:8e:6b:
         2a:5d:32:59:ce:f3:19:1b:e9:2f:d1:54:58:80:fd:7f:13:96:
         b6:b3:99:d3:de:93:7f:1e:62:aa:5f:39:fe:56:48:6c:0b:09:
         22:87:65:89:20:52:2b:5e:15:ca:4a:cb:e6:09:e4:1f:91:55:
         a1:15:02:56:c9:21:9f:76:5d:af:5e:98:7d:8e:a0:d6:46:fd:
         74:43:a7:25:a3:e8:8a:f0:1c:b5:f9:6e:80:9d:f0:8b:43:07:
         78:71:f0:7e:fa:0e:08:81:05:79:f7:d5:39:48:39:eb:c2:d1:
         9b:78:cb:5f:ed:f9:d2:dd:70:69:55:27:d4:01:41:10:4a:3a:
         8b:35:e7:cb:07:71:4a:64:7b:dd:0f:dd:ec:80:f5:c3:59:78:
         08:55:aa:eb:ae:29:7a:66:92:b0:e9:6c:65:56:1d:e0:a8:2f:
         c1:ad:d5:77:86:46:27:e6:f3:7f:b6:b5:1b:5a:d8:61:0e:6c:
         08:c5:19:5e:c4:56:92:72:48:3c:ba:19:04:17:59:7e:d1:a5:
         7c:af:99:d8:79:7a:0d:1d:7e:14:ef:68:fe:3a:e0:9a:b2:c6:
         a9:be:bd:e4:93:6c:f0:13:0a:5d:36:0e:02:20:d3:6a:ce:b8:
         a8:8e:9b:91:d0:c3:95:e0:66:89:42:85:fc:eb:66:d1:24:3d:
         e6:69:44:7e:c7:ff:4a:c4:fc:a3:0d:f2:63:59:8e:20:90:14:
         1f:af:52:ac:86:88:8d:43:41:d3:d4:78:0e:5b:f8:3d:c8:c5:
         37:60:aa:92:6a:b1:1a:17:f8:ff:30:f9:30:c0:52:11:64:aa:
         77:09:75:00:db:00:4d:b7:32:28:8e:fa:32:2d:bd:41:a0:26:
         8c:ef:fd:29:e6:88:f1:4b:52:cd:50:ca:99:4e:75:84:ff:8e:
         f8:0c:67:7b:c4:2c:8d:57:79:8f:d5:5c:73:9d:55:d3:0a:81:
         d9:3e:f6:42:e7:46:cb:4b
-----BEGIN CERTIFICATE-----
MIIHSDCCBTCgAwIBAgICAOIwDQYJKoZIhvcNAQEFBQAwgbQxCzAJBgNVBAYTAlVT
MQswCQYDVQQIEwJDQTEVMBMGA1UEBxMMU2FuRnJhbmNpc2NvMRUwEwYDVQQKEwxQ
aXhnbG8sIEluYy4xEDAOBgNVBAsTB1ZQTi1DSUUxGjAYBgNVBAMTEXR1bm5lbC5w
aXhnbG8uY29tMRwwGgYDVQQpExNCYWxhIENoYW5kcmFzZWthcmFuMR4wHAYJKoZI
hvcNAQkBFg9iYWxhQHBpeGdsby5jb20wHhcNMTgwMjE0MDYyOTAxWhcNMjgwMjEy
MDYyOTAxWjCBqTELMAkGA1UEBhMCVVMxCzAJBgNVBAgTAkNBMRUwEwYDVQQHEwxT
YW5GcmFuY2lzY28xFTATBgNVBAoTDFBpeGdsbywgSW5jLjEQMA4GA1UECxMHVlBO
LUNJRTEPMA0GA1UEAxMGY2llMjI1MRwwGgYDVQQpExNCYWxhIENoYW5kcmFzZWth
cmFuMR4wHAYJKoZIhvcNAQkBFg9iYWxhQHBpeGdsby5jb20wggIiMA0GCSqGSIb3
DQEBAQUAA4ICDwAwggIKAoICAQDAMRa0Wa8QRXRWXod1u+Qjb7HzuyEIdwnMJwqT
UBtyM/I/TTKxb1G0PaIm9h4fBEvCPhYoDzSg0CgS/wso+fDZt5M5W21lccuuWHP7
3oua13V7Hht2eSazWm9hwE1axtAlM3O5ex/aAW9mMtvP3OSYwECeuY3huu+1NDBj
Eta2LtsqHNLcFCFKp+FGhEvNHzx/anLKfOniydX9CYinAmCiZOSaGD/q/TvMjSfx
/V24/h8PSvbqNkcnpsl4aefJVYMFThCon8eHz8mRmxdha5LcAcucyNTeuvL2N8Ep
uD6DHe4CdwwXtvHP/Sc1AToZmfGDEgmOp9oo07Cip9EGO+5QJFpmahROUXq0lOQX
Z5xxkNwkOrVWzb16MYR4PulhqckUwMo2sIAMhxGHUsorzlt8NbCxtGXaEOLiNXvK
8Yi8bmkynFuTvWXEpB4uQl8jXYkdq8gNoN1l6mzBTIwEKMZRSQ1C/woHlIpJX1PZ
BUgWdVVxwTdTvJiNKIoqk4Y9udo5D6YgCNem456sg4NPOXFqL4s+IaoKWgs7AKNf
MDafXOXEhkztIVBYwp0xO3JF5FIkAzxhPj6RumAKH5biTllf4KgbH+eDCBVgu7Qc
u9TtPvgAY8katR2rYBDnWur+42ibukEsOqpoTVbpyHrHuSMFzCjuvNczDFeIEFNZ
8FjVIQIDAQABo4IBazCCAWcwCQYDVR0TBAIwADAtBglghkgBhvhCAQ0EIBYeRWFz
eS1SU0EgR2VuZXJhdGVkIENlcnRpZmljYXRlMB0GA1UdDgQWBBSBPmRrGdRpYF9Q
DWs82d/ZZOWKWjCB6QYDVR0jBIHhMIHegBTvOI0UUFinW02cF3L837msp1GwEKGB
uqSBtzCBtDELMAkGA1UEBhMCVVMxCzAJBgNVBAgTAkNBMRUwEwYDVQQHEwxTYW5G
cmFuY2lzY28xFTATBgNVBAoTDFBpeGdsbywgSW5jLjEQMA4GA1UECxMHVlBOLUNJ
RTEaMBgGA1UEAxMRdHVubmVsLnBpeGdsby5jb20xHDAaBgNVBCkTE0JhbGEgQ2hh
bmRyYXNla2FyYW4xHjAcBgkqhkiG9w0BCQEWD2JhbGFAcGl4Z2xvLmNvbYIJAKbb
xoOA5qB5MBMGA1UdJQQMMAoGCCsGAQUFBwMCMAsGA1UdDwQEAwIHgDANBgkqhkiG
9w0BAQUFAAOCAgEAeLkHJhiGgU2kU5Jafl7GUqpXBFlwCwYP8OXxv8f7SgQ5+ZGD
ui1vO5qkRG6q0hL/MOxdH2rCNiyauqTKslg7r48f8LqMnwlDh79DbXm89DyuWHfu
FuQlNAWK3LCTcP7N5cSgEhYusI6Wsu3nrevDttmHCwwgE5EwCdL4dXrndelZ5cBg
IynlrTOjB0RzJ45rKl0yWc7zGRvpL9FUWID9fxOWtrOZ096Tfx5iql85/lZIbAsJ
IodliSBSK14VykrL5gnkH5FVoRUCVskhn3Zdr16YfY6g1kb9dEOnJaPoivActflu
gJ3wi0MHeHHwfvoOCIEFeffVOUg568LRm3jLX+350t1waVUn1AFBEEo6izXnywdx
SmR73Q/d7ID1w1l4CFWq664pemaSsOlsZVYd4Kgvwa3Vd4ZGJ+bzf7a1G1rYYQ5s
CMUZXsRWknJIPLoZBBdZftGlfK+Z2Hl6DR1+FO9o/jrgmrLGqb695JNs8BMKXTYO
AiDTas64qI6bkdDDleBmiUKF/Otm0SQ95mlEfsf/SsT8ow3yY1mOIJAUH69SrIaI
jUNB09R4Dlv4PcjFN2CqkmqxGhf4/zD5MMBSEWSqdwl1ANsATbcyKI76Mi29QaAm
jO/9KeaI8UtSzVDKmU51hP+O+Axne8QsjVd5j9Vcc51V0wqB2T72QudGy0s=
-----END CERTIFICATE-----
