Certificate:
    Data:
        Version: 3 (0x2)
        Serial Number: 229 (0xe5)
    Signature Algorithm: sha1WithRSAEncryption
        Issuer: C=US, ST=CA, L=SanFrancisco, O=Pixglo, Inc., OU=VPN-CIE, CN=tunnel.pixglo.com/name=Bala Chandrasekaran/emailAddress=bala@pixglo.com
        Validity
            Not Before: Feb 14 06:29:03 2018 GMT
            Not After : Feb 12 06:29:03 2028 GMT
        Subject: C=US, ST=CA, L=SanFrancisco, O=Pixglo, Inc., OU=VPN-CIE, CN=cie228/name=Bala Chandrasekaran/emailAddress=bala@pixglo.com
        Subject Public Key Info:
            Public Key Algorithm: rsaEncryption
                Public-Key: (4096 bit)
                Modulus:
                    00:b4:ad:75:01:2f:fc:44:bb:6e:f8:00:e1:61:44:
                    4b:ab:e9:d6:0f:cc:ce:a1:f1:f1:60:a5:9c:16:95:
                    7e:46:0b:a0:3b:d9:f8:e4:f4:90:0a:52:96:85:90:
                    fa:c2:3a:75:fe:05:6f:16:46:e0:53:36:4f:71:fe:
                    59:56:a1:68:44:70:34:5a:c4:a9:02:e4:06:3e:c4:
                    4e:cd:4f:74:85:4b:6d:eb:24:52:91:e8:7a:58:73:
                    4b:21:64:ab:41:81:9f:b9:16:c6:4e:d8:2b:e6:77:
                    21:5f:50:b5:4b:21:9f:ec:25:4f:48:fd:2c:76:9a:
                    59:73:e0:94:51:57:d3:c0:76:06:d6:f7:04:18:fa:
                    7a:44:26:21:76:97:cb:da:08:b6:ed:fc:06:63:77:
                    b7:f2:0e:d6:0f:7e:21:1d:a5:bd:0e:f9:97:a5:98:
                    88:b9:83:3e:c0:3c:d7:d9:4d:c4:36:1d:c3:3a:c1:
                    79:5f:cd:8c:30:80:26:bf:73:e5:83:7a:ad:be:e4:
                    e1:78:c0:e2:16:1e:78:33:76:db:f5:1a:35:f5:d9:
                    28:f9:a4:70:a2:81:af:ca:c5:07:bb:19:b0:ed:a0:
                    ef:cf:80:99:c7:1d:ca:18:d6:75:2a:de:1d:06:98:
                    b0:9a:97:9d:5c:ab:d5:8f:ef:17:5f:1f:ae:4e:c3:
                    68:ce:65:6a:71:0a:a3:35:df:a5:7c:d0:b5:ea:97:
                    d9:66:06:b1:de:63:d8:6e:ca:13:94:08:d3:f0:d0:
                    0a:39:41:ae:53:2f:d4:e5:98:16:91:7a:d9:0b:5f:
                    3c:71:8e:4b:6a:2e:e2:58:79:46:a7:02:69:c0:14:
                    f3:4d:5a:22:82:24:ad:6e:77:0d:51:bf:e3:ed:93:
                    20:4b:c9:b2:70:57:43:9f:68:07:b9:d6:83:77:12:
                    17:69:1d:2e:f6:3f:e4:77:7c:97:77:d2:d7:60:33:
                    18:00:64:8f:de:28:df:01:3f:ef:de:9c:51:1e:e9:
                    85:54:08:dd:4a:2b:b7:59:6e:e6:9c:bb:1c:fe:00:
                    d0:00:0d:7d:fa:97:ff:6f:c3:7f:84:6f:bc:09:3f:
                    c6:19:85:af:5a:71:ac:2b:43:8a:9a:d5:83:f6:a4:
                    ff:98:6d:16:ef:d4:bb:de:24:92:18:85:87:9b:73:
                    6d:c9:7b:47:da:1b:db:de:1c:2b:84:e5:74:ba:01:
                    ee:66:d3:7a:02:b4:c4:a7:38:ec:e4:23:43:78:cc:
                    a1:05:49:79:3b:e1:0d:c6:a1:c4:f2:a6:f0:62:60:
                    85:08:5a:29:ed:24:0a:5a:a5:6d:d2:8e:6c:55:9f:
                    34:aa:bc:7b:e4:f3:6e:4f:73:7c:5e:d3:29:5f:0b:
                    ad:05:7b
                Exponent: 65537 (0x10001)
        X509v3 extensions:
            X509v3 Basic Constraints: 
                CA:FALSE
            Netscape Comment: 
                Easy-RSA Generated Certificate
            X509v3 Subject Key Identifier: 
                CA:0C:CA:06:2F:63:51:15:D5:21:84:FF:16:44:A4:2F:68:66:5E:35
            X509v3 Authority Key Identifier: 
                keyid:EF:38:8D:14:50:58:A7:5B:4D:9C:17:72:FC:DF:B9:AC:A7:51:B0:10
                DirName:/C=US/ST=CA/L=SanFrancisco/O=Pixglo, Inc./OU=VPN-CIE/CN=tunnel.pixglo.com/name=Bala Chandrasekaran/emailAddress=bala@pixglo.com
                serial:A6:DB:C6:83:80:E6:A0:79

            X509v3 Extended Key Usage: 
                TLS Web Client Authentication
            X509v3 Key Usage: 
                Digital Signature
    Signature Algorithm: sha1WithRSAEncryption
         01:05:a1:55:4b:e7:0a:14:a1:ff:f5:0b:c0:96:36:a8:8a:21:
         a6:7f:50:e5:c7:67:45:4b:d5:03:51:ba:98:98:78:8f:35:e4:
         4e:a8:a1:74:d7:aa:fe:ea:db:2d:cd:f7:d7:ac:91:f7:a4:d0:
         da:f2:33:67:e1:fe:b0:aa:c4:3b:e0:7b:12:f8:48:5c:9a:44:
         95:69:83:e3:3e:fa:6c:e5:c9:b9:9d:fb:2e:13:58:54:e1:c4:
         fc:45:6f:73:57:1d:12:5a:9f:76:16:10:9b:c3:a1:d1:c0:f6:
         7e:c6:62:f6:96:24:94:dd:b1:05:ac:22:c2:5d:37:9b:b1:90:
         f7:f5:85:09:a3:af:e3:72:8a:bf:1c:b5:f8:ed:c0:36:f8:27:
         84:70:e1:f5:41:9e:ee:bb:39:67:46:f7:2d:1e:e4:d6:09:f8:
         c8:14:25:08:d1:9e:c8:a7:64:fb:89:4c:ac:f1:b4:37:a3:21:
         02:f4:cd:3c:db:9b:6b:35:38:fe:fe:b4:01:3c:d6:7a:54:df:
         4f:36:1c:d5:b7:d3:61:ef:28:89:61:27:13:b1:6b:45:75:6e:
         f2:17:61:79:da:be:cf:a4:97:e7:4c:0f:72:f5:41:f6:51:0b:
         db:ba:0c:1b:81:4e:eb:dc:84:1b:26:9b:9b:d0:71:f6:89:53:
         ea:5a:0c:20:e3:18:91:3d:d5:99:9d:95:f1:15:92:a0:56:73:
         ac:55:6f:06:f4:85:91:5b:56:5f:d8:6e:ca:29:9c:96:ff:6d:
         9e:08:e5:ed:6e:1d:df:8c:50:af:ea:a6:34:a6:b0:3b:c3:15:
         86:93:a5:4d:00:33:ff:21:a7:59:5c:a4:44:c8:e4:e1:c3:5b:
         b4:05:a0:35:31:f8:f0:0f:b1:f7:c5:72:3b:bd:f0:5d:81:02:
         06:12:31:c2:0f:74:6e:d2:ea:ab:dc:3e:3d:90:2e:af:99:35:
         87:a0:21:30:9b:17:57:3c:d8:f7:d4:14:32:a5:e6:2a:c2:f6:
         2a:e2:88:82:56:fc:31:7f:17:d9:5b:10:6d:fc:4c:b8:e5:d7:
         ce:51:3c:85:ea:a3:8b:62:55:9c:6c:43:7c:a5:e6:de:ae:9e:
         af:d6:cd:d8:50:93:8b:a1:b8:bf:53:35:e7:73:4a:0a:da:95:
         9c:88:de:8e:67:f1:65:3a:89:40:92:c7:54:82:b1:f5:a5:c7:
         6d:ab:12:db:7e:63:52:9b:96:99:bd:8d:30:5d:81:05:c4:40:
         34:c7:31:f7:56:f1:96:ff:42:a6:d8:d2:91:28:f7:b1:4b:5c:
         cc:61:48:2a:35:51:df:45:89:8d:07:2a:ab:65:98:a2:ad:ab:
         8b:f3:b3:25:42:77:d7:35
-----BEGIN CERTIFICATE-----
MIIHSDCCBTCgAwIBAgICAOUwDQYJKoZIhvcNAQEFBQAwgbQxCzAJBgNVBAYTAlVT
MQswCQYDVQQIEwJDQTEVMBMGA1UEBxMMU2FuRnJhbmNpc2NvMRUwEwYDVQQKEwxQ
aXhnbG8sIEluYy4xEDAOBgNVBAsTB1ZQTi1DSUUxGjAYBgNVBAMTEXR1bm5lbC5w
aXhnbG8uY29tMRwwGgYDVQQpExNCYWxhIENoYW5kcmFzZWthcmFuMR4wHAYJKoZI
hvcNAQkBFg9iYWxhQHBpeGdsby5jb20wHhcNMTgwMjE0MDYyOTAzWhcNMjgwMjEy
MDYyOTAzWjCBqTELMAkGA1UEBhMCVVMxCzAJBgNVBAgTAkNBMRUwEwYDVQQHEwxT
YW5GcmFuY2lzY28xFTATBgNVBAoTDFBpeGdsbywgSW5jLjEQMA4GA1UECxMHVlBO
LUNJRTEPMA0GA1UEAxMGY2llMjI4MRwwGgYDVQQpExNCYWxhIENoYW5kcmFzZWth
cmFuMR4wHAYJKoZIhvcNAQkBFg9iYWxhQHBpeGdsby5jb20wggIiMA0GCSqGSIb3
DQEBAQUAA4ICDwAwggIKAoICAQC0rXUBL/xEu274AOFhREur6dYPzM6h8fFgpZwW
lX5GC6A72fjk9JAKUpaFkPrCOnX+BW8WRuBTNk9x/llWoWhEcDRaxKkC5AY+xE7N
T3SFS23rJFKR6HpYc0shZKtBgZ+5FsZO2CvmdyFfULVLIZ/sJU9I/Sx2mllz4JRR
V9PAdgbW9wQY+npEJiF2l8vaCLbt/AZjd7fyDtYPfiEdpb0O+ZelmIi5gz7APNfZ
TcQ2HcM6wXlfzYwwgCa/c+WDeq2+5OF4wOIWHngzdtv1GjX12Sj5pHCiga/KxQe7
GbDtoO/PgJnHHcoY1nUq3h0GmLCal51cq9WP7xdfH65Ow2jOZWpxCqM136V80LXq
l9lmBrHeY9huyhOUCNPw0Ao5Qa5TL9TlmBaRetkLXzxxjktqLuJYeUanAmnAFPNN
WiKCJK1udw1Rv+PtkyBLybJwV0OfaAe51oN3EhdpHS72P+R3fJd30tdgMxgAZI/e
KN8BP+/enFEe6YVUCN1KK7dZbuacuxz+ANAADX36l/9vw3+Eb7wJP8YZha9acawr
Q4qa1YP2pP+YbRbv1LveJJIYhYebc23Je0faG9veHCuE5XS6Ae5m03oCtMSnOOzk
I0N4zKEFSXk74Q3GocTypvBiYIUIWintJApapW3SjmxVnzSqvHvk825Pc3xe0ylf
C60FewIDAQABo4IBazCCAWcwCQYDVR0TBAIwADAtBglghkgBhvhCAQ0EIBYeRWFz
eS1SU0EgR2VuZXJhdGVkIENlcnRpZmljYXRlMB0GA1UdDgQWBBTKDMoGL2NRFdUh
hP8WRKQvaGZeNTCB6QYDVR0jBIHhMIHegBTvOI0UUFinW02cF3L837msp1GwEKGB
uqSBtzCBtDELMAkGA1UEBhMCVVMxCzAJBgNVBAgTAkNBMRUwEwYDVQQHEwxTYW5G
cmFuY2lzY28xFTATBgNVBAoTDFBpeGdsbywgSW5jLjEQMA4GA1UECxMHVlBOLUNJ
RTEaMBgGA1UEAxMRdHVubmVsLnBpeGdsby5jb20xHDAaBgNVBCkTE0JhbGEgQ2hh
bmRyYXNla2FyYW4xHjAcBgkqhkiG9w0BCQEWD2JhbGFAcGl4Z2xvLmNvbYIJAKbb
xoOA5qB5MBMGA1UdJQQMMAoGCCsGAQUFBwMCMAsGA1UdDwQEAwIHgDANBgkqhkiG
9w0BAQUFAAOCAgEAAQWhVUvnChSh//ULwJY2qIohpn9Q5cdnRUvVA1G6mJh4jzXk
TqihdNeq/urbLc3316yR96TQ2vIzZ+H+sKrEO+B7EvhIXJpElWmD4z76bOXJuZ37
LhNYVOHE/EVvc1cdElqfdhYQm8Oh0cD2fsZi9pYklN2xBawiwl03m7GQ9/WFCaOv
43KKvxy1+O3ANvgnhHDh9UGe7rs5Z0b3LR7k1gn4yBQlCNGeyKdk+4lMrPG0N6Mh
AvTNPNubazU4/v60ATzWelTfTzYc1bfTYe8oiWEnE7FrRXVu8hdhedq+z6SX50wP
cvVB9lEL27oMG4FO69yEGyabm9Bx9olT6loMIOMYkT3VmZ2V8RWSoFZzrFVvBvSF
kVtWX9huyimclv9tngjl7W4d34xQr+qmNKawO8MVhpOlTQAz/yGnWVykRMjk4cNb
tAWgNTH48A+x98VyO73wXYECBhIxwg90btLqq9w+PZAur5k1h6AhMJsXVzzY99QU
MqXmKsL2KuKIglb8MX8X2VsQbfxMuOXXzlE8heqji2JVnGxDfKXm3q6er9bN2FCT
i6G4v1M153NKCtqVnIjejmfxZTqJQJLHVIKx9aXHbasS235jUpuWmb2NMF2BBcRA
NMcx91bxlv9CptjSkSj3sUtczGFIKjVR30WJjQcqq2WYoq2ri/OzJUJ31zU=
-----END CERTIFICATE-----
