Certificate:
    Data:
        Version: 3 (0x2)
        Serial Number: 233 (0xe9)
    Signature Algorithm: sha1WithRSAEncryption
        Issuer: C=US, ST=CA, L=SanFrancisco, O=Pixglo, Inc., OU=VPN-CIE, CN=tunnel.pixglo.com/name=Bala Chandrasekaran/emailAddress=bala@pixglo.com
        Validity
            Not Before: Feb 14 06:29:05 2018 GMT
            Not After : Feb 12 06:29:05 2028 GMT
        Subject: C=US, ST=CA, L=SanFrancisco, O=Pixglo, Inc., OU=VPN-CIE, CN=cie232/name=Bala Chandrasekaran/emailAddress=bala@pixglo.com
        Subject Public Key Info:
            Public Key Algorithm: rsaEncryption
                Public-Key: (4096 bit)
                Modulus:
                    00:cf:a4:cc:bb:c3:f8:8d:d0:07:87:1d:78:8f:35:
                    c4:52:0b:a3:b0:58:e4:88:42:c8:38:a9:be:73:d8:
                    c3:3d:e1:c6:02:5d:9f:d7:7e:dd:28:b8:20:35:f2:
                    b2:a6:a1:dc:df:ec:10:81:13:7e:51:93:a5:ab:d5:
                    00:52:68:e1:48:36:a4:80:cc:29:15:d3:72:9c:47:
                    a4:67:ef:90:c3:1e:67:c1:15:17:4d:4c:b7:38:30:
                    ed:9f:41:c4:81:3a:28:fd:76:b3:37:36:b5:c7:47:
                    20:0c:3d:9a:86:f6:60:7f:e5:7b:25:a4:6d:de:27:
                    df:a4:06:e1:6d:8b:32:5e:9d:8e:27:80:7d:13:43:
                    60:e9:05:5d:e8:14:79:ee:1f:30:a2:91:19:07:2b:
                    d4:b1:de:54:72:be:f2:6f:10:d1:5b:4e:2f:be:f6:
                    a6:5f:39:23:40:c6:5a:06:0a:13:24:e1:f3:f0:9d:
                    42:37:bf:e3:fa:87:67:38:c1:f3:74:dd:53:30:15:
                    40:40:6b:88:ed:65:5d:42:14:bc:70:71:f8:b3:fe:
                    1d:50:d9:7b:c1:22:89:66:4b:3b:f4:10:8d:9b:1a:
                    92:a9:23:78:ab:21:06:59:e6:39:49:3b:7e:5a:12:
                    db:ec:97:06:d3:b3:3a:21:dd:c3:b8:ea:f4:71:5c:
                    1a:e6:36:99:d8:ee:83:50:0a:af:d8:57:2d:8b:71:
                    f9:76:1e:ee:bc:40:32:19:4d:e1:36:a0:78:a0:e3:
                    aa:ad:54:48:85:24:1e:57:58:60:a5:05:f3:7f:ed:
                    54:11:20:55:32:94:90:65:a7:48:1a:f2:b9:42:18:
                    f9:ac:b8:48:59:28:4e:fa:38:96:3f:8c:e5:ad:c1:
                    5d:8e:cc:fd:64:9a:43:3d:67:d5:4c:d2:de:a3:70:
                    54:4c:3d:f0:b0:a6:57:9a:ac:06:af:de:cf:f8:62:
                    a1:1c:24:58:73:9f:cc:3c:5b:9b:17:e9:53:51:92:
                    8f:f1:fa:53:e7:f7:25:11:d4:8d:62:d6:39:be:db:
                    24:9a:15:cd:11:5f:17:25:0e:a5:5b:aa:2d:2b:e8:
                    66:5d:44:a7:ad:21:2a:0e:71:23:9e:d2:8a:fa:ee:
                    ea:c6:4a:b9:b9:d9:24:41:36:78:af:4e:85:73:41:
                    88:97:29:a6:78:d0:e0:1c:93:7d:c2:5e:2b:a1:0e:
                    bd:7a:2e:50:5c:eb:95:53:a1:56:d5:1f:de:6f:2e:
                    22:42:bf:8d:b6:6b:a0:8f:dc:c5:7f:b5:d4:b4:73:
                    7a:ca:2c:bc:a1:3f:79:14:b9:05:ed:45:66:df:e1:
                    f8:e7:2d:78:0c:1e:f4:b5:6b:f2:df:6c:68:dd:48:
                    a2:54:3b
                Exponent: 65537 (0x10001)
        X509v3 extensions:
            X509v3 Basic Constraints: 
                CA:FALSE
            Netscape Comment: 
                Easy-RSA Generated Certificate
            X509v3 Subject Key Identifier: 
                A6:66:6C:3B:5B:23:B0:BA:66:54:9A:5D:17:0E:DC:46:53:B7:25:22
            X509v3 Authority Key Identifier: 
                keyid:EF:38:8D:14:50:58:A7:5B:4D:9C:17:72:FC:DF:B9:AC:A7:51:B0:10
                DirName:/C=US/ST=CA/L=SanFrancisco/O=Pixglo, Inc./OU=VPN-CIE/CN=tunnel.pixglo.com/name=Bala Chandrasekaran/emailAddress=bala@pixglo.com
                serial:A6:DB:C6:83:80:E6:A0:79

            X509v3 Extended Key Usage: 
                TLS Web Client Authentication
            X509v3 Key Usage: 
                Digital Signature
    Signature Algorithm: sha1WithRSAEncryption
         a7:5b:e0:f4:96:84:fd:6b:63:f5:06:4d:96:a5:a4:bd:f9:4e:
         9e:a0:9e:89:87:cb:c0:aa:4d:62:fc:d2:0d:19:20:cb:80:3e:
         c9:f8:20:4f:43:6a:05:a9:1f:d3:e5:26:50:f6:80:79:de:a5:
         5e:c9:0d:63:ac:f2:b1:78:22:a4:0a:14:b3:cf:4e:3f:f1:87:
         ee:07:fb:9f:dc:7e:f1:21:b7:10:03:59:d6:4e:96:82:6b:17:
         89:85:e4:6d:85:b2:cc:24:1e:4d:32:be:84:29:f6:e3:6e:0a:
         46:0b:89:ad:c8:fe:47:29:6c:2a:1e:7f:d0:92:07:87:5b:79:
         b9:ce:58:e0:ab:22:3e:99:73:d2:43:f5:49:cb:02:7e:5e:d4:
         a5:98:63:9d:cb:18:86:f1:40:a6:64:b9:48:77:e3:7a:33:54:
         41:96:d6:42:44:b4:11:94:8c:f1:42:d0:c2:c0:6f:da:b8:53:
         ef:30:b3:a6:ba:cf:80:1b:11:25:dd:df:71:9a:9d:79:3f:4d:
         0a:ac:06:b8:43:9c:1f:e9:36:b6:cc:07:d4:e9:00:f1:16:ca:
         30:c0:9a:b3:2a:da:c0:c4:2a:2a:fc:0e:b3:db:1a:6e:b7:fb:
         ec:ac:4b:d1:8c:63:26:99:e2:cd:99:58:3f:28:c2:7e:2c:bd:
         e3:6b:9e:18:83:93:6e:95:df:04:34:fe:e5:41:94:77:b9:02:
         5c:8a:c3:7d:f6:9c:8d:a0:2e:0b:08:60:9e:1b:cb:27:57:a1:
         6f:9a:b9:ee:b7:81:27:6f:87:1d:7c:cb:06:df:eb:8c:bb:10:
         f7:4d:9e:93:e6:4a:98:5f:bc:1c:d9:d5:00:b0:de:19:12:d7:
         23:00:ab:10:97:cb:76:98:09:06:a1:08:f5:4e:8b:b9:ad:3e:
         aa:ef:aa:47:b3:8c:08:35:ba:b8:4d:57:ac:92:0e:fb:ad:21:
         71:d4:ce:a6:9b:33:f9:6b:68:08:f7:91:55:3b:ce:10:d4:15:
         b6:f8:31:da:9b:30:33:16:cb:7d:38:74:b3:f2:fe:6c:6c:18:
         ad:14:9e:eb:6f:cc:98:ff:35:e8:f8:d9:bf:3d:38:74:e9:03:
         d4:b0:a5:c1:f3:a0:84:b0:98:1e:e2:07:94:b2:16:c0:39:1f:
         2d:bb:29:29:ff:c5:a6:ee:3f:35:3d:c2:61:00:95:09:c2:40:
         9f:fd:a4:de:3e:b0:c5:39:e3:0f:84:ce:2e:c3:87:20:f3:07:
         0c:fb:71:52:7a:a3:63:16:20:a3:c8:fd:0d:2a:94:e2:9e:5c:
         3e:73:f6:84:7e:0e:65:49:7e:af:49:08:86:61:4a:5b:ff:fa:
         61:52:8e:77:74:6b:bf:8a
-----BEGIN CERTIFICATE-----
MIIHSDCCBTCgAwIBAgICAOkwDQYJKoZIhvcNAQEFBQAwgbQxCzAJBgNVBAYTAlVT
MQswCQYDVQQIEwJDQTEVMBMGA1UEBxMMU2FuRnJhbmNpc2NvMRUwEwYDVQQKEwxQ
aXhnbG8sIEluYy4xEDAOBgNVBAsTB1ZQTi1DSUUxGjAYBgNVBAMTEXR1bm5lbC5w
aXhnbG8uY29tMRwwGgYDVQQpExNCYWxhIENoYW5kcmFzZWthcmFuMR4wHAYJKoZI
hvcNAQkBFg9iYWxhQHBpeGdsby5jb20wHhcNMTgwMjE0MDYyOTA1WhcNMjgwMjEy
MDYyOTA1WjCBqTELMAkGA1UEBhMCVVMxCzAJBgNVBAgTAkNBMRUwEwYDVQQHEwxT
YW5GcmFuY2lzY28xFTATBgNVBAoTDFBpeGdsbywgSW5jLjEQMA4GA1UECxMHVlBO
LUNJRTEPMA0GA1UEAxMGY2llMjMyMRwwGgYDVQQpExNCYWxhIENoYW5kcmFzZWth
cmFuMR4wHAYJKoZIhvcNAQkBFg9iYWxhQHBpeGdsby5jb20wggIiMA0GCSqGSIb3
DQEBAQUAA4ICDwAwggIKAoICAQDPpMy7w/iN0AeHHXiPNcRSC6OwWOSIQsg4qb5z
2MM94cYCXZ/Xft0ouCA18rKmodzf7BCBE35Rk6Wr1QBSaOFINqSAzCkV03KcR6Rn
75DDHmfBFRdNTLc4MO2fQcSBOij9drM3NrXHRyAMPZqG9mB/5XslpG3eJ9+kBuFt
izJenY4ngH0TQ2DpBV3oFHnuHzCikRkHK9Sx3lRyvvJvENFbTi++9qZfOSNAxloG
ChMk4fPwnUI3v+P6h2c4wfN03VMwFUBAa4jtZV1CFLxwcfiz/h1Q2XvBIolmSzv0
EI2bGpKpI3irIQZZ5jlJO35aEtvslwbTszoh3cO46vRxXBrmNpnY7oNQCq/YVy2L
cfl2Hu68QDIZTeE2oHig46qtVEiFJB5XWGClBfN/7VQRIFUylJBlp0ga8rlCGPms
uEhZKE76OJY/jOWtwV2OzP1kmkM9Z9VM0t6jcFRMPfCwplearAav3s/4YqEcJFhz
n8w8W5sX6VNRko/x+lPn9yUR1I1i1jm+2ySaFc0RXxclDqVbqi0r6GZdRKetISoO
cSOe0or67urGSrm52SRBNnivToVzQYiXKaZ40OAck33CXiuhDr16LlBc65VToVbV
H95vLiJCv422a6CP3MV/tdS0c3rKLLyhP3kUuQXtRWbf4fjnLXgMHvS1a/LfbGjd
SKJUOwIDAQABo4IBazCCAWcwCQYDVR0TBAIwADAtBglghkgBhvhCAQ0EIBYeRWFz
eS1SU0EgR2VuZXJhdGVkIENlcnRpZmljYXRlMB0GA1UdDgQWBBSmZmw7WyOwumZU
ml0XDtxGU7clIjCB6QYDVR0jBIHhMIHegBTvOI0UUFinW02cF3L837msp1GwEKGB
uqSBtzCBtDELMAkGA1UEBhMCVVMxCzAJBgNVBAgTAkNBMRUwEwYDVQQHEwxTYW5G
cmFuY2lzY28xFTATBgNVBAoTDFBpeGdsbywgSW5jLjEQMA4GA1UECxMHVlBOLUNJ
RTEaMBgGA1UEAxMRdHVubmVsLnBpeGdsby5jb20xHDAaBgNVBCkTE0JhbGEgQ2hh
bmRyYXNla2FyYW4xHjAcBgkqhkiG9w0BCQEWD2JhbGFAcGl4Z2xvLmNvbYIJAKbb
xoOA5qB5MBMGA1UdJQQMMAoGCCsGAQUFBwMCMAsGA1UdDwQEAwIHgDANBgkqhkiG
9w0BAQUFAAOCAgEAp1vg9JaE/Wtj9QZNlqWkvflOnqCeiYfLwKpNYvzSDRkgy4A+
yfggT0NqBakf0+UmUPaAed6lXskNY6zysXgipAoUs89OP/GH7gf7n9x+8SG3EANZ
1k6WgmsXiYXkbYWyzCQeTTK+hCn2424KRguJrcj+RylsKh5/0JIHh1t5uc5Y4Ksi
Pplz0kP1ScsCfl7UpZhjncsYhvFApmS5SHfjejNUQZbWQkS0EZSM8ULQwsBv2rhT
7zCzprrPgBsRJd3fcZqdeT9NCqwGuEOcH+k2tswH1OkA8RbKMMCasyrawMQqKvwO
s9sabrf77KxL0YxjJpnizZlYPyjCfiy942ueGIOTbpXfBDT+5UGUd7kCXIrDffac
jaAuCwhgnhvLJ1ehb5q57reBJ2+HHXzLBt/rjLsQ902ek+ZKmF+8HNnVALDeGRLX
IwCrEJfLdpgJBqEI9U6Lua0+qu+qR7OMCDW6uE1XrJIO+60hcdTOppsz+WtoCPeR
VTvOENQVtvgx2pswMxbLfTh0s/L+bGwYrRSe62/MmP816PjZvz04dOkD1LClwfOg
hLCYHuIHlLIWwDkfLbspKf/Fpu4/NT3CYQCVCcJAn/2k3j6wxTnjD4TOLsOHIPMH
DPtxUnqjYxYgo8j9DSqU4p5cPnP2hH4OZUl+r0kIhmFKW//6YVKOd3Rrv4o=
-----END CERTIFICATE-----
