Certificate:
    Data:
        Version: 3 (0x2)
        Serial Number: 234 (0xea)
    Signature Algorithm: sha1WithRSAEncryption
        Issuer: C=US, ST=CA, L=SanFrancisco, O=Pixglo, Inc., OU=VPN-CIE, CN=tunnel.pixglo.com/name=Bala Chandrasekaran/emailAddress=bala@pixglo.com
        Validity
            Not Before: Feb 14 06:29:06 2018 GMT
            Not After : Feb 12 06:29:06 2028 GMT
        Subject: C=US, ST=CA, L=SanFrancisco, O=Pixglo, Inc., OU=VPN-CIE, CN=cie233/name=Bala Chandrasekaran/emailAddress=bala@pixglo.com
        Subject Public Key Info:
            Public Key Algorithm: rsaEncryption
                Public-Key: (4096 bit)
                Modulus:
                    00:e3:3b:d0:04:b5:4a:cd:63:93:67:60:fe:00:85:
                    fd:b2:1b:bc:29:91:73:33:03:e7:2d:c3:21:df:9f:
                    f0:eb:d9:6c:f5:ce:8d:3d:6e:94:fc:05:e2:02:56:
                    a0:cc:e5:fb:26:d8:05:bb:8d:a6:f4:f3:ef:0b:11:
                    59:9d:f8:59:b8:aa:71:2a:db:c8:86:b2:d9:09:e1:
                    a6:84:78:d0:75:ee:b5:e6:c6:56:cb:f8:8f:cb:d3:
                    dd:f1:f7:d0:2c:a5:04:4f:df:42:7f:84:1e:fe:bc:
                    52:ad:d4:cd:e1:ed:79:a3:44:e2:98:d4:c8:e4:4f:
                    fc:17:36:05:a1:ca:da:35:0d:61:15:9a:55:44:8c:
                    c1:57:68:d2:46:28:5f:12:f6:f5:b6:29:66:08:8c:
                    56:df:68:ea:40:c8:5b:48:bb:c9:6d:bf:e7:81:d4:
                    9c:9f:fa:3c:94:c0:67:df:51:fa:52:eb:a4:3e:90:
                    08:a0:34:8f:b5:93:7b:9a:50:10:6a:d3:a5:ec:36:
                    f1:c0:00:85:6b:36:4d:35:35:60:2c:a1:39:ab:c2:
                    04:da:db:26:71:75:cc:dd:29:42:06:dc:8f:f9:31:
                    0e:9b:3b:f8:14:6d:d6:4d:4e:65:fb:79:ec:cf:90:
                    5c:52:a8:60:bc:0c:71:3b:94:10:69:1f:7f:6f:89:
                    11:6e:7f:a5:fc:b5:a5:11:94:7d:8a:53:28:d1:4e:
                    5b:62:b7:84:f3:bd:37:2f:35:19:2d:a8:8b:55:56:
                    b2:69:bc:65:e5:aa:fe:d4:f6:c3:b1:cb:8a:5e:56:
                    48:29:10:eb:2f:55:66:fa:52:2f:a7:a1:14:72:10:
                    27:49:83:43:5e:76:7f:81:12:fb:b8:a9:94:34:a4:
                    92:0e:09:9b:8b:78:d3:ce:d7:a8:f6:b2:cc:82:dd:
                    e9:71:c1:2f:5f:20:3e:56:cb:ad:8d:ed:55:41:d0:
                    7f:f5:08:2f:b5:26:51:36:23:31:c8:d0:01:0f:0b:
                    ae:3b:91:09:71:dc:8a:2a:48:5f:3c:cd:f6:cf:04:
                    a9:ee:36:a6:e3:70:ce:05:58:00:b1:d5:28:26:dc:
                    86:dd:46:4e:29:90:df:bc:f3:48:87:08:0c:b9:7f:
                    83:68:6e:75:94:85:e9:10:32:67:e4:2b:47:81:17:
                    f6:61:e3:a1:6e:01:9e:59:19:df:b9:d5:04:c4:5e:
                    38:90:b3:60:76:18:7c:b1:d7:09:7b:a3:7f:c7:e6:
                    85:6a:90:84:fe:0b:37:d4:ba:bc:48:88:c3:be:31:
                    05:0e:ae:b6:3b:46:35:e9:dd:fc:c3:ed:d7:12:22:
                    31:e6:bc:06:b8:bc:ae:4e:d3:c2:b8:05:64:69:89:
                    d2:44:8f
                Exponent: 65537 (0x10001)
        X509v3 extensions:
            X509v3 Basic Constraints: 
                CA:FALSE
            Netscape Comment: 
                Easy-RSA Generated Certificate
            X509v3 Subject Key Identifier: 
                A2:36:A3:2A:5B:08:64:E1:8D:51:56:B0:7D:0A:45:0A:A6:CC:70:E1
            X509v3 Authority Key Identifier: 
                keyid:EF:38:8D:14:50:58:A7:5B:4D:9C:17:72:FC:DF:B9:AC:A7:51:B0:10
                DirName:/C=US/ST=CA/L=SanFrancisco/O=Pixglo, Inc./OU=VPN-CIE/CN=tunnel.pixglo.com/name=Bala Chandrasekaran/emailAddress=bala@pixglo.com
                serial:A6:DB:C6:83:80:E6:A0:79

            X509v3 Extended Key Usage: 
                TLS Web Client Authentication
            X509v3 Key Usage: 
                Digital Signature
    Signature Algorithm: sha1WithRSAEncryption
         77:5c:b6:4a:c0:00:95:f1:a1:3e:37:70:f0:a0:cb:24:fc:64:
         b1:80:6f:7c:53:68:fb:07:49:47:b1:7b:ef:3f:2c:aa:6e:eb:
         4a:f4:be:d6:ec:a8:b6:50:71:65:3a:4f:06:85:5a:08:b1:7f:
         c5:98:04:df:9f:93:e0:55:62:2d:ed:db:01:62:94:f2:ec:2e:
         c9:78:b9:c6:5b:7b:fc:b9:7c:5d:4f:d3:9f:48:a1:8b:68:08:
         8f:e9:1d:80:68:bd:7a:d7:fb:ae:6e:29:92:2e:78:2a:d6:6b:
         bc:d5:b3:5a:b9:ac:10:80:d0:2c:b2:13:81:65:0a:df:d5:6d:
         3e:1b:74:16:46:a6:69:0e:57:87:23:b7:cc:ca:ea:1c:07:1f:
         c0:99:68:62:3b:8d:26:fb:d0:1d:b7:55:27:d7:4b:d9:3c:79:
         01:90:a7:bb:54:20:f4:9d:91:2e:65:4f:40:df:26:fc:92:a1:
         88:c7:a2:c1:73:b6:d8:c2:3b:e8:95:64:81:3e:6e:0b:fb:02:
         16:32:ea:ea:23:ff:fe:ab:a5:49:b7:4b:c0:bd:f8:83:12:ba:
         20:f1:20:00:11:d5:8e:e1:2f:18:c8:3b:f6:82:2c:1c:ed:0e:
         20:fe:a2:21:ca:6e:01:d2:62:8e:1b:ae:7b:83:34:41:7d:4b:
         4d:b9:83:98:59:e5:62:8e:37:02:c5:72:cc:b1:fa:36:a8:27:
         2d:c1:ac:50:e6:18:36:2a:1a:aa:52:5f:d0:d2:34:b9:2a:6e:
         69:e1:7c:40:d6:f7:b5:01:c2:05:3d:31:6e:42:d9:f4:c5:20:
         1d:8c:01:4e:1a:f0:fc:14:61:75:bb:53:1a:49:52:e1:f2:56:
         07:ac:8b:74:dc:01:15:cd:ac:60:9d:28:d7:02:72:81:bd:04:
         32:a0:40:15:d6:31:04:1e:33:e8:6a:7f:f9:3e:76:48:fd:65:
         3d:08:57:7f:90:28:59:87:0a:22:3b:e4:11:a7:fd:eb:29:48:
         7e:26:ab:8c:67:27:f7:c7:23:7f:11:9e:d2:05:99:68:0c:ef:
         c9:7f:7e:e1:63:f7:50:04:87:8b:74:62:c1:31:6f:5b:28:3f:
         8b:a3:8e:69:66:01:cf:1a:ed:12:3c:60:af:51:6d:c8:83:55:
         14:0d:5b:3d:24:64:f6:15:2e:17:94:7c:0a:fd:a8:09:a7:ed:
         05:a4:23:02:ce:7e:aa:d7:98:28:25:22:64:6f:e5:09:01:7b:
         52:87:57:70:ae:17:e3:73:b0:15:bc:15:c6:c2:64:3f:69:da:
         53:24:fc:5f:13:df:1e:dc:44:e7:45:e4:89:18:23:c9:b3:38:
         06:ed:e0:bd:52:ea:00:d3
-----BEGIN CERTIFICATE-----
MIIHSDCCBTCgAwIBAgICAOowDQYJKoZIhvcNAQEFBQAwgbQxCzAJBgNVBAYTAlVT
MQswCQYDVQQIEwJDQTEVMBMGA1UEBxMMU2FuRnJhbmNpc2NvMRUwEwYDVQQKEwxQ
aXhnbG8sIEluYy4xEDAOBgNVBAsTB1ZQTi1DSUUxGjAYBgNVBAMTEXR1bm5lbC5w
aXhnbG8uY29tMRwwGgYDVQQpExNCYWxhIENoYW5kcmFzZWthcmFuMR4wHAYJKoZI
hvcNAQkBFg9iYWxhQHBpeGdsby5jb20wHhcNMTgwMjE0MDYyOTA2WhcNMjgwMjEy
MDYyOTA2WjCBqTELMAkGA1UEBhMCVVMxCzAJBgNVBAgTAkNBMRUwEwYDVQQHEwxT
YW5GcmFuY2lzY28xFTATBgNVBAoTDFBpeGdsbywgSW5jLjEQMA4GA1UECxMHVlBO
LUNJRTEPMA0GA1UEAxMGY2llMjMzMRwwGgYDVQQpExNCYWxhIENoYW5kcmFzZWth
cmFuMR4wHAYJKoZIhvcNAQkBFg9iYWxhQHBpeGdsby5jb20wggIiMA0GCSqGSIb3
DQEBAQUAA4ICDwAwggIKAoICAQDjO9AEtUrNY5NnYP4Ahf2yG7wpkXMzA+ctwyHf
n/Dr2Wz1zo09bpT8BeICVqDM5fsm2AW7jab08+8LEVmd+Fm4qnEq28iGstkJ4aaE
eNB17rXmxlbL+I/L093x99AspQRP30J/hB7+vFKt1M3h7XmjROKY1MjkT/wXNgWh
yto1DWEVmlVEjMFXaNJGKF8S9vW2KWYIjFbfaOpAyFtIu8ltv+eB1Jyf+jyUwGff
UfpS66Q+kAigNI+1k3uaUBBq06XsNvHAAIVrNk01NWAsoTmrwgTa2yZxdczdKUIG
3I/5MQ6bO/gUbdZNTmX7eezPkFxSqGC8DHE7lBBpH39viRFuf6X8taURlH2KUyjR
Tltit4TzvTcvNRktqItVVrJpvGXlqv7U9sOxy4peVkgpEOsvVWb6Ui+noRRyECdJ
g0Nedn+BEvu4qZQ0pJIOCZuLeNPO16j2ssyC3elxwS9fID5Wy62N7VVB0H/1CC+1
JlE2IzHI0AEPC647kQlx3IoqSF88zfbPBKnuNqbjcM4FWACx1Sgm3IbdRk4pkN+8
80iHCAy5f4NobnWUhekQMmfkK0eBF/Zh46FuAZ5ZGd+51QTEXjiQs2B2GHyx1wl7
o3/H5oVqkIT+CzfUurxIiMO+MQUOrrY7RjXp3fzD7dcSIjHmvAa4vK5O08K4BWRp
idJEjwIDAQABo4IBazCCAWcwCQYDVR0TBAIwADAtBglghkgBhvhCAQ0EIBYeRWFz
eS1SU0EgR2VuZXJhdGVkIENlcnRpZmljYXRlMB0GA1UdDgQWBBSiNqMqWwhk4Y1R
VrB9CkUKpsxw4TCB6QYDVR0jBIHhMIHegBTvOI0UUFinW02cF3L837msp1GwEKGB
uqSBtzCBtDELMAkGA1UEBhMCVVMxCzAJBgNVBAgTAkNBMRUwEwYDVQQHEwxTYW5G
cmFuY2lzY28xFTATBgNVBAoTDFBpeGdsbywgSW5jLjEQMA4GA1UECxMHVlBOLUNJ
RTEaMBgGA1UEAxMRdHVubmVsLnBpeGdsby5jb20xHDAaBgNVBCkTE0JhbGEgQ2hh
bmRyYXNla2FyYW4xHjAcBgkqhkiG9w0BCQEWD2JhbGFAcGl4Z2xvLmNvbYIJAKbb
xoOA5qB5MBMGA1UdJQQMMAoGCCsGAQUFBwMCMAsGA1UdDwQEAwIHgDANBgkqhkiG
9w0BAQUFAAOCAgEAd1y2SsAAlfGhPjdw8KDLJPxksYBvfFNo+wdJR7F77z8sqm7r
SvS+1uyotlBxZTpPBoVaCLF/xZgE35+T4FViLe3bAWKU8uwuyXi5xlt7/Ll8XU/T
n0ihi2gIj+kdgGi9etf7rm4pki54KtZrvNWzWrmsEIDQLLITgWUK39VtPht0Fkam
aQ5XhyO3zMrqHAcfwJloYjuNJvvQHbdVJ9dL2Tx5AZCnu1Qg9J2RLmVPQN8m/JKh
iMeiwXO22MI76JVkgT5uC/sCFjLq6iP//qulSbdLwL34gxK6IPEgABHVjuEvGMg7
9oIsHO0OIP6iIcpuAdJijhuue4M0QX1LTbmDmFnlYo43AsVyzLH6NqgnLcGsUOYY
NioaqlJf0NI0uSpuaeF8QNb3tQHCBT0xbkLZ9MUgHYwBThrw/BRhdbtTGklS4fJW
B6yLdNwBFc2sYJ0o1wJygb0EMqBAFdYxBB4z6Gp/+T52SP1lPQhXf5AoWYcKIjvk
Eaf96ylIfiarjGcn98cjfxGe0gWZaAzvyX9+4WP3UASHi3RiwTFvWyg/i6OOaWYB
zxrtEjxgr1FtyINVFA1bPSRk9hUuF5R8Cv2oCaftBaQjAs5+qteYKCUiZG/lCQF7
UodXcK4X43OwFbwVxsJkP2naUyT8XxPfHtxE50XkiRgjybM4Bu3gvVLqANM=
-----END CERTIFICATE-----
