Certificate:
    Data:
        Version: 3 (0x2)
        Serial Number: 236 (0xec)
    Signature Algorithm: sha1WithRSAEncryption
        Issuer: C=US, ST=CA, L=SanFrancisco, O=Pixglo, Inc., OU=VPN-CIE, CN=tunnel.pixglo.com/name=Bala Chandrasekaran/emailAddress=bala@pixglo.com
        Validity
            Not Before: Feb 14 06:29:07 2018 GMT
            Not After : Feb 12 06:29:07 2028 GMT
        Subject: C=US, ST=CA, L=SanFrancisco, O=Pixglo, Inc., OU=VPN-CIE, CN=cie235/name=Bala Chandrasekaran/emailAddress=bala@pixglo.com
        Subject Public Key Info:
            Public Key Algorithm: rsaEncryption
                Public-Key: (4096 bit)
                Modulus:
                    00:e0:b9:6e:21:19:34:63:1c:24:1c:95:58:37:f3:
                    2b:d6:f0:1d:bd:d0:98:9a:ef:4c:dc:e4:27:45:e1:
                    25:23:25:3e:a2:7a:93:2b:c3:cd:90:29:39:4f:c7:
                    4a:13:63:83:b0:21:94:75:40:45:99:50:06:e2:28:
                    ab:78:9b:ce:88:61:5d:fe:cd:46:96:19:c6:c8:67:
                    05:74:9f:27:61:8c:71:d9:1d:86:62:03:d2:c6:91:
                    c3:fb:87:bb:08:84:e9:25:fc:08:6e:e8:f5:fe:6f:
                    86:48:02:3e:0d:0b:00:cb:cd:1b:49:0b:4c:5d:b0:
                    66:81:27:7a:a8:bb:48:6b:01:86:08:8d:de:5c:a1:
                    17:38:28:34:31:3e:5c:69:83:3c:6a:09:de:e7:de:
                    7a:df:f9:3a:7c:59:54:54:4d:d7:cf:ba:0a:6a:9e:
                    c7:4f:22:75:bd:0a:c6:01:87:ea:2e:4e:83:e4:1e:
                    27:02:80:16:20:f9:b9:ba:1f:a2:32:b5:ed:59:95:
                    69:0a:01:d3:9c:ce:7d:9e:b9:ae:e6:94:73:2a:40:
                    d7:6e:5e:70:40:9e:bb:c7:dd:4d:b0:54:77:20:81:
                    35:0b:bd:eb:68:13:18:1d:18:5a:6b:b6:5c:bf:ae:
                    20:50:2e:c1:c8:2c:85:b7:8d:86:cb:8b:bf:42:6f:
                    17:96:04:b9:ba:03:91:7e:3d:b4:e7:e9:41:95:aa:
                    6c:d0:48:0d:98:a0:c8:48:21:a3:6a:3b:dc:41:05:
                    be:79:10:61:76:64:96:02:1e:62:eb:11:17:62:57:
                    ac:45:d8:fb:7a:67:fc:ad:83:34:5d:7a:b4:00:20:
                    f6:5b:1c:fd:fd:5e:c2:d4:77:6b:28:b3:fb:c9:87:
                    c1:58:6e:4a:76:6f:01:6c:ba:c1:52:d9:98:49:c7:
                    74:74:40:50:21:d5:02:64:a2:3b:c8:e6:23:6e:f9:
                    e9:86:07:35:5b:19:69:d8:49:70:9f:53:66:ac:c4:
                    e5:e0:30:81:70:5c:f1:76:c6:b2:08:04:04:bd:ba:
                    81:e1:ad:c8:cc:45:77:49:a9:12:14:dc:b9:e2:9a:
                    b7:21:e1:b4:02:52:d9:e4:a3:54:41:36:b8:b9:d4:
                    a6:f8:5c:f8:90:5e:37:83:30:15:13:40:2b:9f:01:
                    7f:a2:7a:2a:ea:86:12:56:4d:7c:ca:e6:b0:1f:95:
                    13:45:0d:ed:eb:9c:72:2e:8a:66:3a:81:6b:45:8c:
                    69:1f:6a:38:02:f2:7b:49:66:b8:65:39:b7:80:a8:
                    a6:0e:b1:de:6b:d7:46:f5:8a:28:3d:ea:07:84:d7:
                    2b:24:8d:53:d9:89:93:61:0b:46:68:6b:78:06:5f:
                    a4:0f:4b
                Exponent: 65537 (0x10001)
        X509v3 extensions:
            X509v3 Basic Constraints: 
                CA:FALSE
            Netscape Comment: 
                Easy-RSA Generated Certificate
            X509v3 Subject Key Identifier: 
                17:18:57:49:D2:0B:20:86:C1:B5:EC:C4:B5:E6:AE:F7:F4:0F:61:53
            X509v3 Authority Key Identifier: 
                keyid:EF:38:8D:14:50:58:A7:5B:4D:9C:17:72:FC:DF:B9:AC:A7:51:B0:10
                DirName:/C=US/ST=CA/L=SanFrancisco/O=Pixglo, Inc./OU=VPN-CIE/CN=tunnel.pixglo.com/name=Bala Chandrasekaran/emailAddress=bala@pixglo.com
                serial:A6:DB:C6:83:80:E6:A0:79

            X509v3 Extended Key Usage: 
                TLS Web Client Authentication
            X509v3 Key Usage: 
                Digital Signature
    Signature Algorithm: sha1WithRSAEncryption
         ba:0d:0b:fb:f0:8c:e6:db:55:0d:5d:18:ef:05:b6:72:64:6a:
         71:63:f9:09:a7:3d:c6:0a:bf:65:e2:5f:82:1e:ac:1e:05:a2:
         01:41:77:35:15:ab:bf:7e:4f:93:f1:4e:8c:4c:54:14:9b:e4:
         22:ca:cf:7f:8a:30:88:89:2c:5d:cd:14:02:4e:08:35:17:0b:
         bf:86:1e:9c:18:23:70:85:c4:5b:ab:1e:92:14:a4:2e:f4:38:
         27:fc:3f:8e:89:70:2c:47:f6:f0:c7:f0:a2:67:9a:9f:1f:dc:
         a9:b8:9b:ef:b6:fd:08:09:39:b0:94:91:0d:00:7d:cd:70:3f:
         71:eb:d3:35:b1:b8:0e:ff:5b:62:12:af:58:b7:81:df:b8:c7:
         f4:41:53:8b:8f:c0:e5:ad:21:46:15:ea:5c:9c:9f:64:b6:cf:
         eb:84:8f:1c:49:f7:a6:49:40:b8:c5:53:7d:58:98:7e:22:d6:
         5b:f6:e2:80:93:5d:59:4d:8c:ac:d5:70:7f:3b:7b:2d:1a:37:
         e4:56:8c:f3:ed:0c:aa:47:a6:c7:cc:d9:a2:39:a4:6f:89:ad:
         b5:c8:8e:4c:20:73:7b:21:e7:3b:e0:07:23:ba:4c:21:88:ff:
         41:7a:b0:dd:9f:ce:7e:5b:89:22:97:6c:2b:24:ed:a8:80:40:
         6a:7b:39:44:20:36:af:7b:27:1d:7d:4e:2e:7b:55:70:ae:c5:
         43:b4:d7:fe:25:f1:56:64:a9:51:1c:04:2a:a6:0f:60:c3:86:
         b4:79:54:db:2b:89:d6:8f:9f:84:b8:61:e5:12:66:45:ea:0b:
         03:b7:60:9b:69:a8:2e:b2:84:a1:f0:67:50:28:bd:6c:c0:48:
         3d:29:88:31:55:ea:20:91:82:7e:a2:d3:ac:1e:70:32:10:1b:
         56:b4:42:40:f7:ba:f8:b4:45:92:2d:03:0d:9c:71:cd:03:13:
         57:e3:e8:11:3b:13:f3:af:cb:7e:69:51:9e:1d:68:b4:a5:67:
         af:a5:91:bc:94:23:ee:21:2d:46:31:b6:b2:be:87:62:0c:d1:
         9c:fd:f9:db:ff:fe:b0:7b:77:11:c1:91:23:1c:a0:48:dc:6e:
         42:70:97:6b:57:67:7e:63:15:bf:79:30:e8:51:49:31:2f:ea:
         f7:c5:f2:86:b5:d7:fc:5f:c3:3b:7a:f6:00:8b:14:55:57:29:
         9a:40:ea:e6:93:3e:7b:b9:e4:f2:d3:14:d8:2e:b3:17:42:72:
         ff:21:24:bc:21:d6:9c:21:f9:36:c8:7d:36:05:c3:ae:40:16:
         4f:b3:c0:26:1f:59:93:df:b8:a9:3c:bd:f2:55:5f:00:c3:a3:
         1a:87:14:c4:b8:1d:ff:7e
-----BEGIN CERTIFICATE-----
MIIHSDCCBTCgAwIBAgICAOwwDQYJKoZIhvcNAQEFBQAwgbQxCzAJBgNVBAYTAlVT
MQswCQYDVQQIEwJDQTEVMBMGA1UEBxMMU2FuRnJhbmNpc2NvMRUwEwYDVQQKEwxQ
aXhnbG8sIEluYy4xEDAOBgNVBAsTB1ZQTi1DSUUxGjAYBgNVBAMTEXR1bm5lbC5w
aXhnbG8uY29tMRwwGgYDVQQpExNCYWxhIENoYW5kcmFzZWthcmFuMR4wHAYJKoZI
hvcNAQkBFg9iYWxhQHBpeGdsby5jb20wHhcNMTgwMjE0MDYyOTA3WhcNMjgwMjEy
MDYyOTA3WjCBqTELMAkGA1UEBhMCVVMxCzAJBgNVBAgTAkNBMRUwEwYDVQQHEwxT
YW5GcmFuY2lzY28xFTATBgNVBAoTDFBpeGdsbywgSW5jLjEQMA4GA1UECxMHVlBO
LUNJRTEPMA0GA1UEAxMGY2llMjM1MRwwGgYDVQQpExNCYWxhIENoYW5kcmFzZWth
cmFuMR4wHAYJKoZIhvcNAQkBFg9iYWxhQHBpeGdsby5jb20wggIiMA0GCSqGSIb3
DQEBAQUAA4ICDwAwggIKAoICAQDguW4hGTRjHCQclVg38yvW8B290Jia70zc5CdF
4SUjJT6iepMrw82QKTlPx0oTY4OwIZR1QEWZUAbiKKt4m86IYV3+zUaWGcbIZwV0
nydhjHHZHYZiA9LGkcP7h7sIhOkl/Ahu6PX+b4ZIAj4NCwDLzRtJC0xdsGaBJ3qo
u0hrAYYIjd5coRc4KDQxPlxpgzxqCd7n3nrf+Tp8WVRUTdfPugpqnsdPInW9CsYB
h+ouToPkHicCgBYg+bm6H6Iyte1ZlWkKAdOczn2eua7mlHMqQNduXnBAnrvH3U2w
VHcggTULvetoExgdGFprtly/riBQLsHILIW3jYbLi79CbxeWBLm6A5F+PbTn6UGV
qmzQSA2YoMhIIaNqO9xBBb55EGF2ZJYCHmLrERdiV6xF2Pt6Z/ytgzRderQAIPZb
HP39XsLUd2sos/vJh8FYbkp2bwFsusFS2ZhJx3R0QFAh1QJkojvI5iNu+emGBzVb
GWnYSXCfU2asxOXgMIFwXPF2xrIIBAS9uoHhrcjMRXdJqRIU3Lnimrch4bQCUtnk
o1RBNri51Kb4XPiQXjeDMBUTQCufAX+ieirqhhJWTXzK5rAflRNFDe3rnHIuimY6
gWtFjGkfajgC8ntJZrhlObeAqKYOsd5r10b1iig96geE1yskjVPZiZNhC0Zoa3gG
X6QPSwIDAQABo4IBazCCAWcwCQYDVR0TBAIwADAtBglghkgBhvhCAQ0EIBYeRWFz
eS1SU0EgR2VuZXJhdGVkIENlcnRpZmljYXRlMB0GA1UdDgQWBBQXGFdJ0gsghsG1
7MS15q739A9hUzCB6QYDVR0jBIHhMIHegBTvOI0UUFinW02cF3L837msp1GwEKGB
uqSBtzCBtDELMAkGA1UEBhMCVVMxCzAJBgNVBAgTAkNBMRUwEwYDVQQHEwxTYW5G
cmFuY2lzY28xFTATBgNVBAoTDFBpeGdsbywgSW5jLjEQMA4GA1UECxMHVlBOLUNJ
RTEaMBgGA1UEAxMRdHVubmVsLnBpeGdsby5jb20xHDAaBgNVBCkTE0JhbGEgQ2hh
bmRyYXNla2FyYW4xHjAcBgkqhkiG9w0BCQEWD2JhbGFAcGl4Z2xvLmNvbYIJAKbb
xoOA5qB5MBMGA1UdJQQMMAoGCCsGAQUFBwMCMAsGA1UdDwQEAwIHgDANBgkqhkiG
9w0BAQUFAAOCAgEAug0L+/CM5ttVDV0Y7wW2cmRqcWP5Cac9xgq/ZeJfgh6sHgWi
AUF3NRWrv35Pk/FOjExUFJvkIsrPf4owiIksXc0UAk4INRcLv4YenBgjcIXEW6se
khSkLvQ4J/w/jolwLEf28Mfwomeanx/cqbib77b9CAk5sJSRDQB9zXA/cevTNbG4
Dv9bYhKvWLeB37jH9EFTi4/A5a0hRhXqXJyfZLbP64SPHEn3pklAuMVTfViYfiLW
W/bigJNdWU2MrNVwfzt7LRo35FaM8+0Mqkemx8zZojmkb4mttciOTCBzeyHnO+AH
I7pMIYj/QXqw3Z/OfluJIpdsKyTtqIBAans5RCA2r3snHX1OLntVcK7FQ7TX/iXx
VmSpURwEKqYPYMOGtHlU2yuJ1o+fhLhh5RJmReoLA7dgm2moLrKEofBnUCi9bMBI
PSmIMVXqIJGCfqLTrB5wMhAbVrRCQPe6+LRFki0DDZxxzQMTV+PoETsT86/LfmlR
nh1otKVnr6WRvJQj7iEtRjG2sr6HYgzRnP352//+sHt3EcGRIxygSNxuQnCXa1dn
fmMVv3kw6FFJMS/q98XyhrXX/F/DO3r2AIsUVVcpmkDq5pM+e7nk8tMU2C6zF0Jy
/yEkvCHWnCH5Nsh9NgXDrkAWT7PAJh9Zk9+4qTy98lVfAMOjGocUxLgd/34=
-----END CERTIFICATE-----
