Certificate:
    Data:
        Version: 3 (0x2)
        Serial Number: 237 (0xed)
    Signature Algorithm: sha1WithRSAEncryption
        Issuer: C=US, ST=CA, L=SanFrancisco, O=Pixglo, Inc., OU=VPN-CIE, CN=tunnel.pixglo.com/name=Bala Chandrasekaran/emailAddress=bala@pixglo.com
        Validity
            Not Before: Feb 14 06:29:08 2018 GMT
            Not After : Feb 12 06:29:08 2028 GMT
        Subject: C=US, ST=CA, L=SanFrancisco, O=Pixglo, Inc., OU=VPN-CIE, CN=cie236/name=Bala Chandrasekaran/emailAddress=bala@pixglo.com
        Subject Public Key Info:
            Public Key Algorithm: rsaEncryption
                Public-Key: (4096 bit)
                Modulus:
                    00:df:33:8d:3a:a1:9c:92:28:42:9c:87:9a:01:19:
                    21:d8:f9:cb:d6:3a:74:af:47:90:1f:63:ce:ea:56:
                    e1:25:0f:84:25:ee:09:c9:94:47:58:10:f9:f9:4e:
                    fa:a3:8e:fa:e9:3c:12:34:98:6f:33:f7:01:08:f7:
                    22:1f:e1:93:2a:bf:52:1b:34:f3:5a:18:d0:5b:4e:
                    ae:71:18:fd:bd:dc:6e:6a:e0:ef:e9:3a:63:e0:51:
                    31:16:63:c6:72:99:86:4a:ae:46:0c:4f:01:e0:ab:
                    16:c4:bb:e5:5a:93:f4:17:29:dc:e9:60:43:a4:05:
                    fb:6b:0e:94:80:71:67:2a:26:77:e0:e4:39:44:40:
                    22:b9:7e:68:1d:ed:af:2a:ba:fa:c3:4e:58:bd:e8:
                    03:3c:38:44:13:c4:10:45:5d:d2:0c:df:42:08:76:
                    f8:53:f1:a5:b1:55:80:2a:93:95:f6:7b:b9:c6:34:
                    6d:bb:b3:8a:a4:ca:8f:88:dd:d9:4a:e1:ab:d6:fb:
                    37:5f:98:25:0c:d0:2b:06:0b:99:cd:12:a0:92:dd:
                    67:e7:60:67:69:7a:35:b6:e3:91:ec:1f:e0:07:3b:
                    ed:a5:cd:9e:22:e4:eb:9d:a9:c1:0a:ef:b5:84:58:
                    c0:f2:fd:f7:1d:d3:fc:d7:fc:e9:35:13:97:47:9c:
                    78:ee:63:32:d9:c5:20:bd:58:0d:46:8b:13:58:8d:
                    c7:f8:c3:99:e1:7a:09:29:7e:b5:d6:10:1b:8b:3c:
                    50:fe:0a:b1:2d:6b:ea:cf:05:1e:b9:01:c6:f1:d8:
                    6c:0f:d6:26:22:04:e9:7f:c4:53:45:6e:91:69:c3:
                    4c:b7:d2:b8:cf:bb:75:50:f2:e4:67:8d:e3:2d:d5:
                    1b:ff:f1:c4:0e:22:60:d6:cb:dc:87:80:b4:69:da:
                    91:d9:49:f5:f0:94:87:b7:00:4a:1a:8c:58:9f:f2:
                    a8:75:d5:19:02:16:05:b5:fc:a3:fb:b2:d7:da:5f:
                    a7:0b:e5:ec:95:7a:bd:42:9e:ed:2d:a5:62:3a:d2:
                    67:f9:07:2d:7d:0b:31:93:ed:dd:b4:c8:c7:14:4d:
                    a0:ed:04:a7:7d:a5:a6:53:6f:14:c5:3e:be:1b:d9:
                    a4:6e:a7:4f:b8:16:59:d7:ea:ff:ca:3a:59:cd:fe:
                    20:ef:5e:e8:bf:0a:df:c3:61:4d:0d:84:e1:9b:4f:
                    b4:34:f4:b6:6a:a6:e4:fc:5d:29:08:33:28:d5:b8:
                    2b:5b:48:24:bc:43:63:5c:4b:ae:f1:18:8c:80:70:
                    de:58:93:3d:2d:5c:d7:b3:bb:64:95:94:50:42:e5:
                    60:57:29:53:56:88:25:64:fd:74:48:22:e8:40:e0:
                    05:0d:7d
                Exponent: 65537 (0x10001)
        X509v3 extensions:
            X509v3 Basic Constraints: 
                CA:FALSE
            Netscape Comment: 
                Easy-RSA Generated Certificate
            X509v3 Subject Key Identifier: 
                6B:4E:37:A7:70:E2:7C:C2:B2:8C:A1:DB:07:01:89:98:9F:4F:92:97
            X509v3 Authority Key Identifier: 
                keyid:EF:38:8D:14:50:58:A7:5B:4D:9C:17:72:FC:DF:B9:AC:A7:51:B0:10
                DirName:/C=US/ST=CA/L=SanFrancisco/O=Pixglo, Inc./OU=VPN-CIE/CN=tunnel.pixglo.com/name=Bala Chandrasekaran/emailAddress=bala@pixglo.com
                serial:A6:DB:C6:83:80:E6:A0:79

            X509v3 Extended Key Usage: 
                TLS Web Client Authentication
            X509v3 Key Usage: 
                Digital Signature
    Signature Algorithm: sha1WithRSAEncryption
         ca:31:3b:fe:fd:e2:5e:2e:a0:39:2d:17:6d:cc:5c:2a:d6:85:
         44:d4:d0:64:ef:d4:e6:36:9f:5e:29:05:7d:6c:05:39:64:ed:
         cf:f8:82:da:03:06:12:18:89:f2:6a:20:95:bb:9f:cc:de:dc:
         25:46:68:44:78:4e:18:db:4e:e7:57:0c:c6:e7:c1:1d:40:f2:
         b8:b7:0c:3c:ca:37:35:68:19:ca:49:f6:4d:26:db:94:37:2b:
         37:c4:1e:80:99:eb:69:ae:92:86:89:07:42:4a:ab:e2:39:a9:
         3b:f5:54:4d:a3:32:53:da:eb:48:cb:29:7f:6c:7e:64:78:14:
         af:2e:bd:32:7d:e3:da:8a:21:27:e3:8a:8b:24:0b:dc:67:db:
         59:bc:90:10:76:2f:48:89:23:00:3c:fe:87:0f:90:e6:cc:fe:
         69:4d:aa:48:9b:79:0e:aa:a4:89:fa:f5:e4:3b:c7:64:ca:ea:
         f2:eb:10:c5:3e:2b:ab:24:80:43:2f:e4:16:d8:ed:28:e2:e2:
         ec:59:4f:02:4e:06:15:cd:a7:e0:f0:49:f0:42:83:58:22:49:
         1b:1a:ef:fd:ac:57:4d:f3:d4:cb:7d:55:0b:00:5d:44:a9:2d:
         3d:37:1e:8a:40:aa:0c:c2:b5:9b:0e:e1:07:32:1c:8d:dc:73:
         41:88:27:30:98:a5:85:26:e4:04:9e:c0:10:26:c0:ad:79:b8:
         6b:f1:37:93:63:c2:26:09:c1:a4:49:6b:53:e8:bc:53:f6:c5:
         c7:f3:b4:8a:fc:09:9c:80:f4:70:9a:68:a8:38:6c:a7:74:1a:
         19:e6:3f:63:c2:87:aa:31:0d:b7:a3:2c:2e:48:9e:e4:45:9a:
         bb:82:83:a9:28:13:25:f5:4d:fc:a1:d4:3f:1c:87:13:53:71:
         c3:e4:8e:4f:25:b5:39:fa:41:6f:63:c0:a6:26:6b:43:1d:78:
         01:2e:ab:c5:18:93:48:7e:fa:4f:a8:8e:bd:14:67:c1:f2:c8:
         1b:a6:b8:c3:f2:64:fe:16:c1:61:34:db:77:46:04:58:45:67:
         8d:ab:17:6a:9e:62:fc:33:24:6f:1c:d4:29:dc:a2:ac:e1:53:
         1b:70:a7:8f:0d:ee:62:60:c6:77:a5:55:17:5d:d5:f2:76:7e:
         bc:d9:ea:b9:a3:6a:0c:e6:a1:d8:21:3f:32:69:ae:9f:1e:71:
         37:ff:77:cb:27:08:b3:59:cd:38:cc:37:b4:de:10:43:c4:99:
         a2:d4:28:84:cd:95:92:cd:7d:0e:f9:1c:70:82:76:bd:a9:4a:
         df:57:e7:b7:c8:b2:95:43:bf:34:ba:ef:fe:31:bb:94:2c:24:
         c6:ec:ab:ba:e0:d9:25:69
-----BEGIN CERTIFICATE-----
MIIHSDCCBTCgAwIBAgICAO0wDQYJKoZIhvcNAQEFBQAwgbQxCzAJBgNVBAYTAlVT
MQswCQYDVQQIEwJDQTEVMBMGA1UEBxMMU2FuRnJhbmNpc2NvMRUwEwYDVQQKEwxQ
aXhnbG8sIEluYy4xEDAOBgNVBAsTB1ZQTi1DSUUxGjAYBgNVBAMTEXR1bm5lbC5w
aXhnbG8uY29tMRwwGgYDVQQpExNCYWxhIENoYW5kcmFzZWthcmFuMR4wHAYJKoZI
hvcNAQkBFg9iYWxhQHBpeGdsby5jb20wHhcNMTgwMjE0MDYyOTA4WhcNMjgwMjEy
MDYyOTA4WjCBqTELMAkGA1UEBhMCVVMxCzAJBgNVBAgTAkNBMRUwEwYDVQQHEwxT
YW5GcmFuY2lzY28xFTATBgNVBAoTDFBpeGdsbywgSW5jLjEQMA4GA1UECxMHVlBO
LUNJRTEPMA0GA1UEAxMGY2llMjM2MRwwGgYDVQQpExNCYWxhIENoYW5kcmFzZWth
cmFuMR4wHAYJKoZIhvcNAQkBFg9iYWxhQHBpeGdsby5jb20wggIiMA0GCSqGSIb3
DQEBAQUAA4ICDwAwggIKAoICAQDfM406oZySKEKch5oBGSHY+cvWOnSvR5AfY87q
VuElD4Ql7gnJlEdYEPn5TvqjjvrpPBI0mG8z9wEI9yIf4ZMqv1IbNPNaGNBbTq5x
GP293G5q4O/pOmPgUTEWY8ZymYZKrkYMTwHgqxbEu+Vak/QXKdzpYEOkBftrDpSA
cWcqJnfg5DlEQCK5fmgd7a8quvrDTli96AM8OEQTxBBFXdIM30IIdvhT8aWxVYAq
k5X2e7nGNG27s4qkyo+I3dlK4avW+zdfmCUM0CsGC5nNEqCS3WfnYGdpejW245Hs
H+AHO+2lzZ4i5OudqcEK77WEWMDy/fcd0/zX/Ok1E5dHnHjuYzLZxSC9WA1GixNY
jcf4w5nhegkpfrXWEBuLPFD+CrEta+rPBR65Acbx2GwP1iYiBOl/xFNFbpFpw0y3
0rjPu3VQ8uRnjeMt1Rv/8cQOImDWy9yHgLRp2pHZSfXwlIe3AEoajFif8qh11RkC
FgW1/KP7stfaX6cL5eyVer1Cnu0tpWI60mf5By19CzGT7d20yMcUTaDtBKd9paZT
bxTFPr4b2aRup0+4FlnX6v/KOlnN/iDvXui/Ct/DYU0NhOGbT7Q09LZqpuT8XSkI
MyjVuCtbSCS8Q2NcS67xGIyAcN5Ykz0tXNezu2SVlFBC5WBXKVNWiCVk/XRIIuhA
4AUNfQIDAQABo4IBazCCAWcwCQYDVR0TBAIwADAtBglghkgBhvhCAQ0EIBYeRWFz
eS1SU0EgR2VuZXJhdGVkIENlcnRpZmljYXRlMB0GA1UdDgQWBBRrTjencOJ8wrKM
odsHAYmYn0+SlzCB6QYDVR0jBIHhMIHegBTvOI0UUFinW02cF3L837msp1GwEKGB
uqSBtzCBtDELMAkGA1UEBhMCVVMxCzAJBgNVBAgTAkNBMRUwEwYDVQQHEwxTYW5G
cmFuY2lzY28xFTATBgNVBAoTDFBpeGdsbywgSW5jLjEQMA4GA1UECxMHVlBOLUNJ
RTEaMBgGA1UEAxMRdHVubmVsLnBpeGdsby5jb20xHDAaBgNVBCkTE0JhbGEgQ2hh
bmRyYXNla2FyYW4xHjAcBgkqhkiG9w0BCQEWD2JhbGFAcGl4Z2xvLmNvbYIJAKbb
xoOA5qB5MBMGA1UdJQQMMAoGCCsGAQUFBwMCMAsGA1UdDwQEAwIHgDANBgkqhkiG
9w0BAQUFAAOCAgEAyjE7/v3iXi6gOS0XbcxcKtaFRNTQZO/U5jafXikFfWwFOWTt
z/iC2gMGEhiJ8moglbufzN7cJUZoRHhOGNtO51cMxufBHUDyuLcMPMo3NWgZykn2
TSbblDcrN8QegJnraa6ShokHQkqr4jmpO/VUTaMyU9rrSMspf2x+ZHgUry69Mn3j
2oohJ+OKiyQL3GfbWbyQEHYvSIkjADz+hw+Q5sz+aU2qSJt5Dqqkifr15DvHZMrq
8usQxT4rqySAQy/kFtjtKOLi7FlPAk4GFc2n4PBJ8EKDWCJJGxrv/axXTfPUy31V
CwBdRKktPTceikCqDMK1mw7hBzIcjdxzQYgnMJilhSbkBJ7AECbArXm4a/E3k2PC
JgnBpElrU+i8U/bFx/O0ivwJnID0cJpoqDhsp3QaGeY/Y8KHqjENt6MsLkie5EWa
u4KDqSgTJfVN/KHUPxyHE1Nxw+SOTyW1OfpBb2PApiZrQx14AS6rxRiTSH76T6iO
vRRnwfLIG6a4w/Jk/hbBYTTbd0YEWEVnjasXap5i/DMkbxzUKdyirOFTG3Cnjw3u
YmDGd6VVF13V8nZ+vNnquaNqDOah2CE/Mmmunx5xN/93yycIs1nNOMw3tN4QQ8SZ
otQohM2Vks19DvkccIJ2valK31fnt8iylUO/NLrv/jG7lCwkxuyruuDZJWk=
-----END CERTIFICATE-----
