Certificate:
    Data:
        Version: 3 (0x2)
        Serial Number: 238 (0xee)
    Signature Algorithm: sha1WithRSAEncryption
        Issuer: C=US, ST=CA, L=SanFrancisco, O=Pixglo, Inc., OU=VPN-CIE, CN=tunnel.pixglo.com/name=Bala Chandrasekaran/emailAddress=bala@pixglo.com
        Validity
            Not Before: Feb 14 06:29:09 2018 GMT
            Not After : Feb 12 06:29:09 2028 GMT
        Subject: C=US, ST=CA, L=SanFrancisco, O=Pixglo, Inc., OU=VPN-CIE, CN=cie237/name=Bala Chandrasekaran/emailAddress=bala@pixglo.com
        Subject Public Key Info:
            Public Key Algorithm: rsaEncryption
                Public-Key: (4096 bit)
                Modulus:
                    00:a7:2f:1d:fb:79:f0:4f:c5:be:c8:80:a9:3d:56:
                    fa:bc:22:d3:d1:ce:a1:6c:ea:4b:69:3f:19:fd:f9:
                    21:e0:78:5d:83:f9:66:06:9d:ab:ad:c1:79:d5:2a:
                    f4:90:6a:88:e2:94:48:6d:a8:cc:b5:12:7b:95:4d:
                    11:93:93:5d:c9:46:fc:ba:b9:9e:70:75:5b:41:7e:
                    40:e8:a4:60:cf:c9:8d:18:75:1c:1f:ad:e5:51:c5:
                    87:d2:12:dc:8a:af:c4:d1:b3:1c:eb:26:bf:e8:69:
                    26:58:7a:47:9a:18:9e:dd:a7:b6:81:7c:fe:a2:d3:
                    bb:36:c1:ce:ec:58:ac:ca:b9:c1:ad:d8:a3:9e:ba:
                    c6:9d:85:ec:03:16:ce:f3:5a:62:d8:95:54:14:ae:
                    95:2e:a3:e0:91:35:90:b9:a4:dd:04:4c:8d:ff:ad:
                    36:d1:0c:8a:a7:a9:74:41:bd:a3:7f:a2:70:bf:51:
                    0a:75:b3:37:49:a7:b8:39:4c:94:4b:c5:b2:15:7f:
                    79:84:00:23:51:ee:82:9b:95:7e:da:f5:0b:38:f2:
                    ac:02:86:07:d4:15:52:66:6e:2a:9f:71:1f:77:5f:
                    f6:f1:eb:0a:0d:b5:62:82:b6:79:0e:ca:6b:c6:50:
                    4d:c0:2e:94:2e:f7:fd:21:b5:68:27:94:a9:1d:90:
                    a2:ea:23:c0:fa:9f:65:ef:80:42:9a:32:3a:09:c9:
                    d7:f2:2c:ea:1a:e8:4c:72:ea:df:5f:0b:c7:b2:a5:
                    87:53:da:85:1e:18:a5:b2:bc:20:a0:05:93:61:46:
                    2b:a1:3d:ef:4b:10:71:e9:eb:3e:9a:0c:96:d7:4e:
                    57:cb:cc:68:c6:5c:f9:9f:f7:eb:12:8e:25:13:9a:
                    d3:40:6e:fc:d4:be:b9:9c:7e:0d:b7:95:a8:23:20:
                    55:c0:55:80:f7:89:82:92:a1:4f:2b:4d:81:fe:a0:
                    44:19:64:da:78:99:9b:f1:fc:ce:50:28:e6:32:61:
                    5f:9a:95:b8:6c:e3:f0:e8:e8:d3:3c:e9:41:75:67:
                    28:55:ed:57:9a:df:74:37:4b:15:2b:70:ca:43:eb:
                    f9:24:63:f0:88:e4:65:cc:1b:83:6f:19:66:f6:a0:
                    77:3b:d9:26:9e:8b:a4:11:b4:fc:a7:72:c1:db:86:
                    62:37:05:d2:03:d7:24:98:18:ab:16:fe:36:7d:3a:
                    29:5f:bb:bc:b4:38:fc:cd:26:e2:aa:4d:e0:78:49:
                    ba:db:81:eb:e5:ac:4c:bb:05:0d:01:a7:3f:58:dd:
                    2e:3f:46:f8:f0:dc:29:69:c2:b1:7a:5f:e0:18:c7:
                    41:23:e1:af:1e:db:a1:dd:0e:10:5a:eb:c2:e7:26:
                    7e:9b:3d
                Exponent: 65537 (0x10001)
        X509v3 extensions:
            X509v3 Basic Constraints: 
                CA:FALSE
            Netscape Comment: 
                Easy-RSA Generated Certificate
            X509v3 Subject Key Identifier: 
                04:BF:39:FC:E6:70:BC:12:25:9D:AE:2F:5C:8A:09:B3:7F:34:66:17
            X509v3 Authority Key Identifier: 
                keyid:EF:38:8D:14:50:58:A7:5B:4D:9C:17:72:FC:DF:B9:AC:A7:51:B0:10
                DirName:/C=US/ST=CA/L=SanFrancisco/O=Pixglo, Inc./OU=VPN-CIE/CN=tunnel.pixglo.com/name=Bala Chandrasekaran/emailAddress=bala@pixglo.com
                serial:A6:DB:C6:83:80:E6:A0:79

            X509v3 Extended Key Usage: 
                TLS Web Client Authentication
            X509v3 Key Usage: 
                Digital Signature
    Signature Algorithm: sha1WithRSAEncryption
         b0:8e:06:c2:1a:2a:88:95:65:a9:37:36:19:5d:d5:7b:80:e8:
         5e:16:2a:a1:22:61:20:00:33:64:73:75:55:69:28:5f:d5:3f:
         b3:3c:6f:ac:4b:5e:13:7d:5c:dd:33:fb:10:26:3d:cc:0d:1f:
         4d:85:fd:c2:79:82:df:fc:0a:0d:5f:b9:69:14:df:90:2a:79:
         1b:47:56:93:00:9c:e9:82:cb:31:69:02:00:71:41:2e:af:26:
         8f:35:8f:fb:2b:fc:47:5c:5b:4b:3b:31:aa:c8:23:f1:80:14:
         53:fe:b4:87:26:e1:44:27:93:18:dc:f0:b6:95:a4:fa:0d:80:
         e7:d6:ab:b4:ef:76:fe:c6:b2:02:15:64:06:78:ea:d3:5e:55:
         4f:32:30:68:4d:4d:3a:ac:57:24:28:9b:8d:ce:54:31:07:9a:
         85:7f:83:1c:f7:bc:c7:a1:38:09:48:2a:f9:19:5b:73:b9:15:
         42:54:aa:3f:31:f5:70:79:2b:d4:e6:fd:56:20:55:c7:31:b9:
         a3:d3:dc:99:6f:35:89:f8:4d:a0:8f:a4:70:87:8f:03:b1:f8:
         bb:ac:76:2f:6a:f6:9a:67:c6:86:43:e8:c8:21:90:bc:71:0a:
         e5:ed:ed:72:9e:bc:6d:c0:27:28:13:d2:69:92:8e:34:f4:ad:
         aa:65:6c:76:b5:a8:03:fb:3a:e3:eb:70:96:a2:a3:18:86:89:
         03:11:8d:c0:bf:b7:05:20:fb:c1:59:b6:52:a6:61:90:ec:91:
         c1:b8:b5:11:66:d2:fc:69:16:26:2e:17:bd:0b:6a:a9:13:83:
         dc:38:ac:dc:e5:54:5e:24:44:ce:ee:02:d8:86:78:7a:0f:7a:
         9c:39:5b:99:18:48:25:2b:f3:be:73:26:f7:61:7f:e7:bc:54:
         1e:6f:51:25:79:8b:60:5a:47:fa:52:ac:5a:9d:d2:77:5f:95:
         90:07:97:41:c7:c7:ea:57:a2:69:4d:b3:5d:98:ca:d7:fc:3b:
         02:c9:74:af:06:aa:1d:f5:91:ea:b8:0d:d5:10:d7:d2:b0:b8:
         55:90:43:36:23:4b:0f:3e:77:10:ba:f9:24:28:b5:a6:a8:2c:
         de:27:02:c5:63:9f:ac:ec:29:91:8d:17:8f:ae:ed:fc:3b:96:
         57:47:a1:e7:5b:af:67:89:64:3b:21:ef:f9:73:f4:cb:7b:1a:
         19:07:eb:3f:ec:b9:61:bc:24:38:6e:71:11:bb:d9:ef:4f:a2:
         55:d1:3f:e9:66:9e:28:7f:a8:86:21:18:d5:26:2d:92:be:60:
         ab:32:28:26:72:f6:e9:89:49:a0:2c:d3:0b:e3:6f:22:73:2d:
         05:c9:4a:bd:33:df:ec:5b
-----BEGIN CERTIFICATE-----
MIIHSDCCBTCgAwIBAgICAO4wDQYJKoZIhvcNAQEFBQAwgbQxCzAJBgNVBAYTAlVT
MQswCQYDVQQIEwJDQTEVMBMGA1UEBxMMU2FuRnJhbmNpc2NvMRUwEwYDVQQKEwxQ
aXhnbG8sIEluYy4xEDAOBgNVBAsTB1ZQTi1DSUUxGjAYBgNVBAMTEXR1bm5lbC5w
aXhnbG8uY29tMRwwGgYDVQQpExNCYWxhIENoYW5kcmFzZWthcmFuMR4wHAYJKoZI
hvcNAQkBFg9iYWxhQHBpeGdsby5jb20wHhcNMTgwMjE0MDYyOTA5WhcNMjgwMjEy
MDYyOTA5WjCBqTELMAkGA1UEBhMCVVMxCzAJBgNVBAgTAkNBMRUwEwYDVQQHEwxT
YW5GcmFuY2lzY28xFTATBgNVBAoTDFBpeGdsbywgSW5jLjEQMA4GA1UECxMHVlBO
LUNJRTEPMA0GA1UEAxMGY2llMjM3MRwwGgYDVQQpExNCYWxhIENoYW5kcmFzZWth
cmFuMR4wHAYJKoZIhvcNAQkBFg9iYWxhQHBpeGdsby5jb20wggIiMA0GCSqGSIb3
DQEBAQUAA4ICDwAwggIKAoICAQCnLx37efBPxb7IgKk9Vvq8ItPRzqFs6ktpPxn9
+SHgeF2D+WYGnautwXnVKvSQaojilEhtqMy1EnuVTRGTk13JRvy6uZ5wdVtBfkDo
pGDPyY0YdRwfreVRxYfSEtyKr8TRsxzrJr/oaSZYekeaGJ7dp7aBfP6i07s2wc7s
WKzKucGt2KOeusadhewDFs7zWmLYlVQUrpUuo+CRNZC5pN0ETI3/rTbRDIqnqXRB
vaN/onC/UQp1szdJp7g5TJRLxbIVf3mEACNR7oKblX7a9Qs48qwChgfUFVJmbiqf
cR93X/bx6woNtWKCtnkOymvGUE3ALpQu9/0htWgnlKkdkKLqI8D6n2XvgEKaMjoJ
ydfyLOoa6Exy6t9fC8eypYdT2oUeGKWyvCCgBZNhRiuhPe9LEHHp6z6aDJbXTlfL
zGjGXPmf9+sSjiUTmtNAbvzUvrmcfg23lagjIFXAVYD3iYKSoU8rTYH+oEQZZNp4
mZvx/M5QKOYyYV+albhs4/Do6NM86UF1ZyhV7Vea33Q3SxUrcMpD6/kkY/CI5GXM
G4NvGWb2oHc72Saei6QRtPyncsHbhmI3BdID1ySYGKsW/jZ9Oilfu7y0OPzNJuKq
TeB4SbrbgevlrEy7BQ0Bpz9Y3S4/Rvjw3ClpwrF6X+AYx0Ej4a8e26HdDhBa68Ln
Jn6bPQIDAQABo4IBazCCAWcwCQYDVR0TBAIwADAtBglghkgBhvhCAQ0EIBYeRWFz
eS1SU0EgR2VuZXJhdGVkIENlcnRpZmljYXRlMB0GA1UdDgQWBBQEvzn85nC8EiWd
ri9cigmzfzRmFzCB6QYDVR0jBIHhMIHegBTvOI0UUFinW02cF3L837msp1GwEKGB
uqSBtzCBtDELMAkGA1UEBhMCVVMxCzAJBgNVBAgTAkNBMRUwEwYDVQQHEwxTYW5G
cmFuY2lzY28xFTATBgNVBAoTDFBpeGdsbywgSW5jLjEQMA4GA1UECxMHVlBOLUNJ
RTEaMBgGA1UEAxMRdHVubmVsLnBpeGdsby5jb20xHDAaBgNVBCkTE0JhbGEgQ2hh
bmRyYXNla2FyYW4xHjAcBgkqhkiG9w0BCQEWD2JhbGFAcGl4Z2xvLmNvbYIJAKbb
xoOA5qB5MBMGA1UdJQQMMAoGCCsGAQUFBwMCMAsGA1UdDwQEAwIHgDANBgkqhkiG
9w0BAQUFAAOCAgEAsI4GwhoqiJVlqTc2GV3Ve4DoXhYqoSJhIAAzZHN1VWkoX9U/
szxvrEteE31c3TP7ECY9zA0fTYX9wnmC3/wKDV+5aRTfkCp5G0dWkwCc6YLLMWkC
AHFBLq8mjzWP+yv8R1xbSzsxqsgj8YAUU/60hybhRCeTGNzwtpWk+g2A59artO92
/sayAhVkBnjq015VTzIwaE1NOqxXJCibjc5UMQeahX+DHPe8x6E4CUgq+Rlbc7kV
QlSqPzH1cHkr1Ob9ViBVxzG5o9PcmW81ifhNoI+kcIePA7H4u6x2L2r2mmfGhkPo
yCGQvHEK5e3tcp68bcAnKBPSaZKONPStqmVsdrWoA/s64+twlqKjGIaJAxGNwL+3
BSD7wVm2UqZhkOyRwbi1EWbS/GkWJi4XvQtqqROD3Dis3OVUXiREzu4C2IZ4eg96
nDlbmRhIJSvzvnMm92F/57xUHm9RJXmLYFpH+lKsWp3Sd1+VkAeXQcfH6leiaU2z
XZjK1/w7Asl0rwaqHfWR6rgN1RDX0rC4VZBDNiNLDz53ELr5JCi1pqgs3icCxWOf
rOwpkY0Xj67t/DuWV0eh51uvZ4lkOyHv+XP0y3saGQfrP+y5YbwkOG5xEbvZ70+i
VdE/6WaeKH+ohiEY1SYtkr5gqzIoJnL26YlJoCzTC+NvInMtBclKvTPf7Fs=
-----END CERTIFICATE-----
