Certificate:
    Data:
        Version: 3 (0x2)
        Serial Number: 243 (0xf3)
    Signature Algorithm: sha1WithRSAEncryption
        Issuer: C=US, ST=CA, L=SanFrancisco, O=Pixglo, Inc., OU=VPN-CIE, CN=tunnel.pixglo.com/name=Bala Chandrasekaran/emailAddress=bala@pixglo.com
        Validity
            Not Before: Feb 14 06:29:12 2018 GMT
            Not After : Feb 12 06:29:12 2028 GMT
        Subject: C=US, ST=CA, L=SanFrancisco, O=Pixglo, Inc., OU=VPN-CIE, CN=cie242/name=Bala Chandrasekaran/emailAddress=bala@pixglo.com
        Subject Public Key Info:
            Public Key Algorithm: rsaEncryption
                Public-Key: (4096 bit)
                Modulus:
                    00:c6:16:52:27:e6:b9:47:a5:41:7c:a7:85:a1:47:
                    f4:d0:59:cf:6e:64:b3:5b:54:cf:6e:1b:a9:76:e5:
                    4f:83:a1:34:05:ef:a1:02:b1:67:dc:23:d7:6d:e3:
                    9e:91:ab:35:68:6f:79:0e:4c:a1:c9:fd:32:95:ca:
                    63:94:23:b2:b8:51:8c:95:74:f8:23:9f:68:1d:5e:
                    1d:e4:ba:61:63:96:99:0e:d4:6c:01:1e:95:a2:ff:
                    b8:bb:cd:f3:07:aa:3d:4a:99:4f:b3:2a:b7:f3:fd:
                    1e:03:de:7f:24:20:df:ba:49:b8:c4:07:76:33:be:
                    c6:76:ce:92:c5:ce:3b:c0:ef:7e:47:a5:ff:28:cc:
                    4b:bc:78:82:7e:ba:30:19:87:85:36:af:37:1e:91:
                    b1:68:33:3a:72:1f:2b:f8:0d:fb:4a:1b:90:f3:85:
                    1c:49:08:59:f8:fd:14:01:88:81:d6:7b:96:ac:d2:
                    17:7f:db:9a:da:04:39:c3:66:a6:1c:4e:3c:35:40:
                    2a:54:34:e1:3c:e7:33:88:d4:2c:cc:38:00:8d:16:
                    c3:45:41:c8:f0:63:76:d3:bc:ab:1c:a0:dc:35:b1:
                    5a:a3:9f:64:15:1d:28:2a:d1:62:db:9d:e5:c8:a0:
                    6e:03:2e:8f:6d:0c:cb:a8:fc:20:3e:f9:47:4c:a0:
                    f7:6d:9a:95:95:f1:bc:f6:a2:f5:7d:a5:ee:f9:f6:
                    36:98:29:fe:af:29:75:3b:87:fb:82:75:b7:4e:22:
                    72:12:0d:73:d6:99:05:e9:76:5f:85:19:1c:ca:94:
                    b0:7e:03:40:92:e7:e5:71:64:69:0c:ea:c0:36:2d:
                    ae:09:4b:70:10:60:e1:eb:d5:ad:25:1a:8f:1e:c7:
                    06:7c:83:cc:ff:46:49:19:e0:51:bc:c3:f1:db:85:
                    47:eb:d1:9a:28:a3:d2:b0:9f:a3:b7:98:6b:76:7e:
                    2d:f3:ec:96:43:2d:94:4a:9c:67:8f:fd:ba:17:15:
                    b0:6e:42:51:ae:5c:c1:40:4e:95:46:86:ba:56:57:
                    ab:48:44:8b:75:ae:35:06:79:86:79:95:58:85:3d:
                    fc:30:13:39:0a:c9:07:fa:d3:a3:38:de:fc:98:6b:
                    ff:d1:37:18:50:07:45:9f:c5:82:54:b6:cf:e6:1a:
                    56:b0:bb:df:97:9f:71:d5:21:36:53:38:5e:b3:7b:
                    d4:42:af:87:4f:80:0a:f0:c9:35:cc:a2:0f:43:c1:
                    7e:19:36:47:d4:04:18:4d:cc:8b:96:fb:38:b5:b0:
                    92:6b:db:bd:f4:53:94:89:46:76:b1:86:4f:d2:63:
                    1a:a8:2d:54:f9:4d:85:e0:cd:d2:ea:7f:f1:36:ea:
                    f9:06:b9
                Exponent: 65537 (0x10001)
        X509v3 extensions:
            X509v3 Basic Constraints: 
                CA:FALSE
            Netscape Comment: 
                Easy-RSA Generated Certificate
            X509v3 Subject Key Identifier: 
                BD:6E:98:F5:32:C8:8D:CB:B0:E0:8A:F2:22:4A:16:F1:D6:8D:93:38
            X509v3 Authority Key Identifier: 
                keyid:EF:38:8D:14:50:58:A7:5B:4D:9C:17:72:FC:DF:B9:AC:A7:51:B0:10
                DirName:/C=US/ST=CA/L=SanFrancisco/O=Pixglo, Inc./OU=VPN-CIE/CN=tunnel.pixglo.com/name=Bala Chandrasekaran/emailAddress=bala@pixglo.com
                serial:A6:DB:C6:83:80:E6:A0:79

            X509v3 Extended Key Usage: 
                TLS Web Client Authentication
            X509v3 Key Usage: 
                Digital Signature
    Signature Algorithm: sha1WithRSAEncryption
         2e:19:b0:bd:43:0d:14:24:1e:5c:a5:b1:3c:87:a6:2d:34:4d:
         34:be:36:2e:2c:63:c8:ec:76:6a:88:98:3b:f2:e2:c0:1d:1f:
         23:cd:b2:de:86:a5:26:db:58:43:f4:dc:d6:52:05:69:a0:32:
         fa:98:78:0a:b9:7d:40:a4:5d:0a:ee:cb:3d:55:ee:13:eb:44:
         2a:57:f3:15:30:86:6f:de:26:18:37:dc:fc:76:ea:a5:f9:1e:
         c5:b3:e5:1b:a5:e4:f0:7b:2e:1e:51:f4:df:b3:e4:6e:fe:1f:
         ca:51:c9:c0:d7:21:cf:c8:b5:07:23:23:b4:dd:ae:3f:e1:12:
         1f:e4:6c:77:0f:29:db:25:d4:20:93:6b:24:96:51:4a:6f:02:
         26:43:7f:f4:5b:29:61:f9:7a:fd:1d:90:d2:47:c2:29:1c:fe:
         6d:12:e9:33:e6:5a:2e:20:35:67:40:a6:d7:d0:e0:83:db:7c:
         0a:42:48:38:30:20:6e:37:db:81:38:fc:d2:b6:c0:8f:f6:bb:
         cf:ff:c0:24:6a:41:a6:50:c6:c8:3d:c4:66:2f:61:11:fd:9a:
         ed:e1:66:90:23:10:e5:b3:09:60:5f:63:e6:de:52:c6:0b:2e:
         cc:f5:95:00:ae:d8:32:6b:f7:c8:d2:f1:6e:30:46:91:1c:0b:
         0d:75:dd:4b:b2:98:f7:cc:f5:04:e4:74:d3:21:02:22:e5:a0:
         8b:fa:8e:33:86:3b:9d:50:c7:66:50:ff:0f:7a:da:6b:95:2f:
         62:b1:18:80:6d:0e:69:85:be:d4:c0:d0:39:ad:b7:0c:4f:0b:
         88:4e:e8:31:8b:67:ad:08:80:8f:4d:f4:a5:c8:e1:60:04:71:
         82:39:25:bc:69:41:1d:a2:24:0b:d3:52:8f:d9:8f:7c:65:b8:
         09:bf:bb:d1:80:8e:ea:b9:fc:64:c2:6e:0f:c9:63:d7:47:ac:
         95:b7:02:1c:49:d9:d6:3b:e9:b9:e4:bb:05:3b:10:0a:09:a4:
         19:f3:1d:0b:e8:63:6a:93:b8:44:ff:b4:80:8e:0e:ff:4f:f9:
         20:a4:ed:44:69:cc:ff:24:aa:df:9f:1a:a6:9d:cf:73:64:13:
         53:8e:e5:aa:b2:d2:58:52:d4:f1:9e:c5:d7:01:d9:45:7d:4c:
         06:4e:1e:ba:da:1c:51:69:3b:d2:35:a0:49:c9:f5:a2:09:74:
         5e:4f:82:07:ec:9b:43:40:49:0f:7b:8f:c8:a9:3e:53:9a:28:
         25:5b:d9:85:41:f5:18:7e:f2:50:38:6d:22:fd:47:74:40:76:
         32:28:af:0d:cc:12:8b:0c:14:4b:b1:b1:a5:88:3b:da:b3:43:
         da:fb:48:c0:a5:d5:83:ad
-----BEGIN CERTIFICATE-----
MIIHSDCCBTCgAwIBAgICAPMwDQYJKoZIhvcNAQEFBQAwgbQxCzAJBgNVBAYTAlVT
MQswCQYDVQQIEwJDQTEVMBMGA1UEBxMMU2FuRnJhbmNpc2NvMRUwEwYDVQQKEwxQ
aXhnbG8sIEluYy4xEDAOBgNVBAsTB1ZQTi1DSUUxGjAYBgNVBAMTEXR1bm5lbC5w
aXhnbG8uY29tMRwwGgYDVQQpExNCYWxhIENoYW5kcmFzZWthcmFuMR4wHAYJKoZI
hvcNAQkBFg9iYWxhQHBpeGdsby5jb20wHhcNMTgwMjE0MDYyOTEyWhcNMjgwMjEy
MDYyOTEyWjCBqTELMAkGA1UEBhMCVVMxCzAJBgNVBAgTAkNBMRUwEwYDVQQHEwxT
YW5GcmFuY2lzY28xFTATBgNVBAoTDFBpeGdsbywgSW5jLjEQMA4GA1UECxMHVlBO
LUNJRTEPMA0GA1UEAxMGY2llMjQyMRwwGgYDVQQpExNCYWxhIENoYW5kcmFzZWth
cmFuMR4wHAYJKoZIhvcNAQkBFg9iYWxhQHBpeGdsby5jb20wggIiMA0GCSqGSIb3
DQEBAQUAA4ICDwAwggIKAoICAQDGFlIn5rlHpUF8p4WhR/TQWc9uZLNbVM9uG6l2
5U+DoTQF76ECsWfcI9dt456RqzVob3kOTKHJ/TKVymOUI7K4UYyVdPgjn2gdXh3k
umFjlpkO1GwBHpWi/7i7zfMHqj1KmU+zKrfz/R4D3n8kIN+6SbjEB3YzvsZ2zpLF
zjvA735Hpf8ozEu8eIJ+ujAZh4U2rzcekbFoMzpyHyv4DftKG5DzhRxJCFn4/RQB
iIHWe5as0hd/25raBDnDZqYcTjw1QCpUNOE85zOI1CzMOACNFsNFQcjwY3bTvKsc
oNw1sVqjn2QVHSgq0WLbneXIoG4DLo9tDMuo/CA++UdMoPdtmpWV8bz2ovV9pe75
9jaYKf6vKXU7h/uCdbdOInISDXPWmQXpdl+FGRzKlLB+A0CS5+VxZGkM6sA2La4J
S3AQYOHr1a0lGo8exwZ8g8z/RkkZ4FG8w/HbhUfr0Zooo9Kwn6O3mGt2fi3z7JZD
LZRKnGeP/boXFbBuQlGuXMFATpVGhrpWV6tIRIt1rjUGeYZ5lViFPfwwEzkKyQf6
06M43vyYa//RNxhQB0WfxYJUts/mGlawu9+Xn3HVITZTOF6ze9RCr4dPgArwyTXM
og9DwX4ZNkfUBBhNzIuW+zi1sJJr2730U5SJRnaxhk/SYxqoLVT5TYXgzdLqf/E2
6vkGuQIDAQABo4IBazCCAWcwCQYDVR0TBAIwADAtBglghkgBhvhCAQ0EIBYeRWFz
eS1SU0EgR2VuZXJhdGVkIENlcnRpZmljYXRlMB0GA1UdDgQWBBS9bpj1MsiNy7Dg
ivIiShbx1o2TODCB6QYDVR0jBIHhMIHegBTvOI0UUFinW02cF3L837msp1GwEKGB
uqSBtzCBtDELMAkGA1UEBhMCVVMxCzAJBgNVBAgTAkNBMRUwEwYDVQQHEwxTYW5G
cmFuY2lzY28xFTATBgNVBAoTDFBpeGdsbywgSW5jLjEQMA4GA1UECxMHVlBOLUNJ
RTEaMBgGA1UEAxMRdHVubmVsLnBpeGdsby5jb20xHDAaBgNVBCkTE0JhbGEgQ2hh
bmRyYXNla2FyYW4xHjAcBgkqhkiG9w0BCQEWD2JhbGFAcGl4Z2xvLmNvbYIJAKbb
xoOA5qB5MBMGA1UdJQQMMAoGCCsGAQUFBwMCMAsGA1UdDwQEAwIHgDANBgkqhkiG
9w0BAQUFAAOCAgEALhmwvUMNFCQeXKWxPIemLTRNNL42LixjyOx2aoiYO/LiwB0f
I82y3oalJttYQ/Tc1lIFaaAy+ph4Crl9QKRdCu7LPVXuE+tEKlfzFTCGb94mGDfc
/HbqpfkexbPlG6Xk8HsuHlH037Pkbv4fylHJwNchz8i1ByMjtN2uP+ESH+Rsdw8p
2yXUIJNrJJZRSm8CJkN/9FspYfl6/R2Q0kfCKRz+bRLpM+ZaLiA1Z0Cm19Dgg9t8
CkJIODAgbjfbgTj80rbAj/a7z//AJGpBplDGyD3EZi9hEf2a7eFmkCMQ5bMJYF9j
5t5SxgsuzPWVAK7YMmv3yNLxbjBGkRwLDXXdS7KY98z1BOR00yECIuWgi/qOM4Y7
nVDHZlD/D3raa5UvYrEYgG0OaYW+1MDQOa23DE8LiE7oMYtnrQiAj030pcjhYARx
gjklvGlBHaIkC9NSj9mPfGW4Cb+70YCO6rn8ZMJuD8lj10eslbcCHEnZ1jvpueS7
BTsQCgmkGfMdC+hjapO4RP+0gI4O/0/5IKTtRGnM/ySq358app3Pc2QTU47lqrLS
WFLU8Z7F1wHZRX1MBk4eutocUWk70jWgScn1ogl0Xk+CB+ybQ0BJD3uPyKk+U5oo
JVvZhUH1GH7yUDhtIv1HdEB2MiivDcwSiwwUS7GxpYg72rND2vtIwKXVg60=
-----END CERTIFICATE-----
