Certificate:
    Data:
        Version: 3 (0x2)
        Serial Number: 247 (0xf7)
    Signature Algorithm: sha1WithRSAEncryption
        Issuer: C=US, ST=CA, L=SanFrancisco, O=Pixglo, Inc., OU=VPN-CIE, CN=tunnel.pixglo.com/name=Bala Chandrasekaran/emailAddress=bala@pixglo.com
        Validity
            Not Before: Feb 14 06:29:15 2018 GMT
            Not After : Feb 12 06:29:15 2028 GMT
        Subject: C=US, ST=CA, L=SanFrancisco, O=Pixglo, Inc., OU=VPN-CIE, CN=cie246/name=Bala Chandrasekaran/emailAddress=bala@pixglo.com
        Subject Public Key Info:
            Public Key Algorithm: rsaEncryption
                Public-Key: (4096 bit)
                Modulus:
                    00:b2:4a:fd:ea:ef:7c:62:ad:19:e2:a7:b1:a8:36:
                    0e:8d:71:ed:77:23:57:71:74:28:ed:b0:c0:01:49:
                    42:a1:68:cc:7e:61:c6:03:84:a2:04:48:20:6f:0d:
                    6c:23:b0:5f:96:1f:d7:45:5b:57:5d:e6:91:33:99:
                    96:b7:2d:39:c9:75:0b:56:61:96:e9:2b:f1:02:03:
                    f0:25:c2:2f:19:02:91:e9:26:54:48:cc:6f:ff:35:
                    63:15:b6:b9:4f:fc:e5:78:f5:41:ef:31:0b:1f:0b:
                    b9:1c:00:5c:bb:2e:da:2e:50:a7:b2:83:ca:89:fd:
                    71:16:44:77:d2:29:59:d7:72:51:fa:d1:cd:3f:79:
                    dd:36:ed:d4:00:26:fb:82:52:dd:74:2a:15:cd:33:
                    88:aa:bd:6a:87:13:e5:43:69:cd:50:83:27:1c:b0:
                    72:83:61:b7:dc:04:41:a1:bb:27:7b:5f:86:54:66:
                    1d:d9:b3:f3:4a:9e:bc:a8:d0:bd:71:e0:55:44:ec:
                    8c:25:ac:f9:e3:e7:af:61:cb:79:80:88:44:5b:ed:
                    f9:6f:f9:12:36:1d:c7:dc:ef:af:0a:bb:71:b0:09:
                    2c:f3:ac:9d:0a:56:8d:57:77:1a:c8:69:6b:c8:dc:
                    de:c0:ea:36:65:65:82:40:46:fb:9a:04:ec:fd:fc:
                    e8:b3:7b:50:8e:e7:74:49:15:2b:aa:da:a2:92:37:
                    4d:ba:2a:d7:c7:32:54:cb:42:26:25:43:95:5e:00:
                    cf:33:d3:d9:42:72:0e:9b:52:64:c9:cd:35:ac:91:
                    98:5e:b4:da:c4:79:f0:3a:c3:1c:3d:6c:e1:85:28:
                    fd:49:fa:90:92:af:e3:0a:3e:da:74:13:db:ff:8c:
                    43:49:e2:1b:7b:43:a0:08:01:c8:f1:8d:1f:b2:23:
                    88:81:63:cc:c5:9c:67:ca:d6:2b:40:d2:ab:51:80:
                    03:b7:99:1c:a6:5b:ff:33:1f:3c:2a:c7:8f:c7:f2:
                    fb:7e:37:32:c2:f0:33:a1:a7:76:9b:5f:b3:f6:2e:
                    15:b0:dd:4f:95:6b:cd:0c:3a:95:e1:fe:0c:30:ca:
                    c2:01:b2:f2:39:d8:b7:bf:6f:da:ce:d2:b7:56:db:
                    3d:ee:05:5d:32:01:ce:d7:cb:e1:5c:e8:5b:fe:eb:
                    17:43:b0:e5:cb:5c:e9:33:2b:e3:a0:1d:4e:cc:cc:
                    22:e6:9b:78:ab:b3:7f:3e:ff:e1:b6:9d:a0:cf:a5:
                    f9:71:dc:76:29:76:91:6e:39:2b:00:2d:f5:b3:42:
                    9f:af:88:18:9d:f6:7e:14:aa:ef:c2:53:a2:38:02:
                    73:fa:8b:59:dd:80:fb:ca:8c:cf:a0:62:b1:e9:4c:
                    64:71:fd
                Exponent: 65537 (0x10001)
        X509v3 extensions:
            X509v3 Basic Constraints: 
                CA:FALSE
            Netscape Comment: 
                Easy-RSA Generated Certificate
            X509v3 Subject Key Identifier: 
                E2:59:60:7E:8F:F7:25:C5:F3:29:69:8D:01:02:83:91:64:34:ED:4F
            X509v3 Authority Key Identifier: 
                keyid:EF:38:8D:14:50:58:A7:5B:4D:9C:17:72:FC:DF:B9:AC:A7:51:B0:10
                DirName:/C=US/ST=CA/L=SanFrancisco/O=Pixglo, Inc./OU=VPN-CIE/CN=tunnel.pixglo.com/name=Bala Chandrasekaran/emailAddress=bala@pixglo.com
                serial:A6:DB:C6:83:80:E6:A0:79

            X509v3 Extended Key Usage: 
                TLS Web Client Authentication
            X509v3 Key Usage: 
                Digital Signature
    Signature Algorithm: sha1WithRSAEncryption
         39:3e:6e:f2:33:cd:b5:9a:fc:7c:16:fc:0b:99:b5:c3:de:9d:
         11:1b:f0:dd:ed:e7:e7:ef:be:ec:60:53:56:75:96:58:1e:80:
         51:53:2c:10:9e:7a:3b:b3:2a:c4:0a:3e:04:e6:5b:dd:90:0d:
         40:2e:7a:7d:91:78:80:02:34:99:12:09:03:98:27:5c:1c:b5:
         ab:2c:8a:65:de:64:db:a1:ed:1a:be:56:0b:1d:ee:25:11:f7:
         b3:2c:ca:5a:24:37:4d:71:81:6a:9e:64:d5:48:50:02:56:72:
         f2:e1:2f:94:1d:da:68:19:c8:9b:31:35:91:1f:ee:ac:d8:a0:
         56:61:ce:8c:1d:88:1c:92:dc:0f:7b:96:31:ae:47:f6:96:8b:
         da:9a:97:8f:cc:b2:ec:07:e2:a6:3e:4c:f1:e9:91:1e:2b:e0:
         ff:1e:68:7a:b5:ce:0f:6d:61:98:e3:ef:de:65:ce:58:a8:20:
         51:30:07:b0:fb:bf:42:2e:46:bc:60:7e:6c:f4:3f:97:89:c9:
         ef:bb:5f:6e:76:0c:75:04:ac:5a:b2:7c:8f:eb:3c:ca:d0:03:
         a9:f9:b9:b8:46:11:1e:2f:1f:aa:2c:07:f8:da:a8:c9:57:62:
         4c:3d:64:4d:e0:70:23:09:15:29:8f:3e:3d:69:93:67:43:2e:
         29:3e:50:cf:f8:3f:8b:14:32:9a:41:32:67:19:f1:5f:88:1a:
         2a:44:a1:bb:d4:5b:9b:ae:85:ef:cb:75:b3:8e:45:fd:c7:aa:
         46:46:bb:ea:bc:c1:c2:cc:9f:25:1a:45:c9:cb:b9:0d:47:1b:
         f1:9f:81:43:cb:bd:c1:69:ae:54:f7:c1:f8:76:b4:e4:03:bb:
         63:61:f9:1a:ea:4b:68:fe:6a:00:f6:57:fc:c6:17:86:c7:1a:
         1e:17:da:fa:77:80:0f:96:6a:11:21:21:dc:ac:2f:a2:95:44:
         41:03:00:7f:ac:37:00:b4:1b:fa:0a:1b:c4:e0:fe:66:9d:b5:
         29:7c:2f:09:06:7e:ed:c5:1c:91:ce:b7:f5:ba:6d:62:93:ed:
         0b:5f:fc:61:06:d5:de:03:91:21:95:b5:9a:9b:74:90:d8:d4:
         8d:d3:2a:34:3e:f9:d0:8d:74:f6:3b:fe:c6:7d:e4:89:7d:88:
         38:0b:06:d4:aa:f3:c1:c1:50:b3:3a:ed:4a:2d:9a:41:44:a7:
         90:0d:f9:39:6e:c3:bc:1d:2d:6e:30:81:21:73:8a:60:64:58:
         0f:65:4c:aa:f7:33:44:bb:a6:50:7f:a8:ec:10:a6:9a:3e:06:
         0d:98:48:19:43:2b:12:c4:10:81:25:f0:9b:ad:76:6c:3f:cd:
         ac:69:5b:df:6a:db:20:4d
-----BEGIN CERTIFICATE-----
MIIHSDCCBTCgAwIBAgICAPcwDQYJKoZIhvcNAQEFBQAwgbQxCzAJBgNVBAYTAlVT
MQswCQYDVQQIEwJDQTEVMBMGA1UEBxMMU2FuRnJhbmNpc2NvMRUwEwYDVQQKEwxQ
aXhnbG8sIEluYy4xEDAOBgNVBAsTB1ZQTi1DSUUxGjAYBgNVBAMTEXR1bm5lbC5w
aXhnbG8uY29tMRwwGgYDVQQpExNCYWxhIENoYW5kcmFzZWthcmFuMR4wHAYJKoZI
hvcNAQkBFg9iYWxhQHBpeGdsby5jb20wHhcNMTgwMjE0MDYyOTE1WhcNMjgwMjEy
MDYyOTE1WjCBqTELMAkGA1UEBhMCVVMxCzAJBgNVBAgTAkNBMRUwEwYDVQQHEwxT
YW5GcmFuY2lzY28xFTATBgNVBAoTDFBpeGdsbywgSW5jLjEQMA4GA1UECxMHVlBO
LUNJRTEPMA0GA1UEAxMGY2llMjQ2MRwwGgYDVQQpExNCYWxhIENoYW5kcmFzZWth
cmFuMR4wHAYJKoZIhvcNAQkBFg9iYWxhQHBpeGdsby5jb20wggIiMA0GCSqGSIb3
DQEBAQUAA4ICDwAwggIKAoICAQCySv3q73xirRnip7GoNg6Nce13I1dxdCjtsMAB
SUKhaMx+YcYDhKIESCBvDWwjsF+WH9dFW1dd5pEzmZa3LTnJdQtWYZbpK/ECA/Al
wi8ZApHpJlRIzG//NWMVtrlP/OV49UHvMQsfC7kcAFy7LtouUKeyg8qJ/XEWRHfS
KVnXclH60c0/ed027dQAJvuCUt10KhXNM4iqvWqHE+VDac1QgyccsHKDYbfcBEGh
uyd7X4ZUZh3Zs/NKnryo0L1x4FVE7IwlrPnj569hy3mAiERb7flv+RI2Hcfc768K
u3GwCSzzrJ0KVo1XdxrIaWvI3N7A6jZlZYJARvuaBOz9/Oize1CO53RJFSuq2qKS
N026KtfHMlTLQiYlQ5VeAM8z09lCcg6bUmTJzTWskZhetNrEefA6wxw9bOGFKP1J
+pCSr+MKPtp0E9v/jENJ4ht7Q6AIAcjxjR+yI4iBY8zFnGfK1itA0qtRgAO3mRym
W/8zHzwqx4/H8vt+NzLC8DOhp3abX7P2LhWw3U+Va80MOpXh/gwwysIBsvI52Le/
b9rO0rdW2z3uBV0yAc7Xy+Fc6Fv+6xdDsOXLXOkzK+OgHU7MzCLmm3irs38+/+G2
naDPpflx3HYpdpFuOSsALfWzQp+viBid9n4Uqu/CU6I4AnP6i1ndgPvKjM+gYrHp
TGRx/QIDAQABo4IBazCCAWcwCQYDVR0TBAIwADAtBglghkgBhvhCAQ0EIBYeRWFz
eS1SU0EgR2VuZXJhdGVkIENlcnRpZmljYXRlMB0GA1UdDgQWBBTiWWB+j/clxfMp
aY0BAoORZDTtTzCB6QYDVR0jBIHhMIHegBTvOI0UUFinW02cF3L837msp1GwEKGB
uqSBtzCBtDELMAkGA1UEBhMCVVMxCzAJBgNVBAgTAkNBMRUwEwYDVQQHEwxTYW5G
cmFuY2lzY28xFTATBgNVBAoTDFBpeGdsbywgSW5jLjEQMA4GA1UECxMHVlBOLUNJ
RTEaMBgGA1UEAxMRdHVubmVsLnBpeGdsby5jb20xHDAaBgNVBCkTE0JhbGEgQ2hh
bmRyYXNla2FyYW4xHjAcBgkqhkiG9w0BCQEWD2JhbGFAcGl4Z2xvLmNvbYIJAKbb
xoOA5qB5MBMGA1UdJQQMMAoGCCsGAQUFBwMCMAsGA1UdDwQEAwIHgDANBgkqhkiG
9w0BAQUFAAOCAgEAOT5u8jPNtZr8fBb8C5m1w96dERvw3e3n5+++7GBTVnWWWB6A
UVMsEJ56O7MqxAo+BOZb3ZANQC56fZF4gAI0mRIJA5gnXBy1qyyKZd5k26HtGr5W
Cx3uJRH3syzKWiQ3TXGBap5k1UhQAlZy8uEvlB3aaBnImzE1kR/urNigVmHOjB2I
HJLcD3uWMa5H9paL2pqXj8yy7Afipj5M8emRHivg/x5oerXOD21hmOPv3mXOWKgg
UTAHsPu/Qi5GvGB+bPQ/l4nJ77tfbnYMdQSsWrJ8j+s8ytADqfm5uEYRHi8fqiwH
+NqoyVdiTD1kTeBwIwkVKY8+PWmTZ0MuKT5Qz/g/ixQymkEyZxnxX4gaKkShu9Rb
m66F78t1s45F/ceqRka76rzBwsyfJRpFycu5DUcb8Z+BQ8u9wWmuVPfB+Ha05AO7
Y2H5GupLaP5qAPZX/MYXhscaHhfa+neAD5ZqESEh3KwvopVEQQMAf6w3ALQb+gob
xOD+Zp21KXwvCQZ+7cUckc639bptYpPtC1/8YQbV3gORIZW1mpt0kNjUjdMqND75
0I109jv+xn3kiX2IOAsG1KrzwcFQszrtSi2aQUSnkA35OW7DvB0tbjCBIXOKYGRY
D2VMqvczRLumUH+o7BCmmj4GDZhIGUMrEsQQgSXwm612bD/NrGlb32rbIE0=
-----END CERTIFICATE-----
