Certificate:
    Data:
        Version: 3 (0x2)
        Serial Number: 249 (0xf9)
    Signature Algorithm: sha1WithRSAEncryption
        Issuer: C=US, ST=CA, L=SanFrancisco, O=Pixglo, Inc., OU=VPN-CIE, CN=tunnel.pixglo.com/name=Bala Chandrasekaran/emailAddress=bala@pixglo.com
        Validity
            Not Before: Feb 14 06:29:17 2018 GMT
            Not After : Feb 12 06:29:17 2028 GMT
        Subject: C=US, ST=CA, L=SanFrancisco, O=Pixglo, Inc., OU=VPN-CIE, CN=cie248/name=Bala Chandrasekaran/emailAddress=bala@pixglo.com
        Subject Public Key Info:
            Public Key Algorithm: rsaEncryption
                Public-Key: (4096 bit)
                Modulus:
                    00:ba:a4:a3:34:2d:e0:75:93:b0:d8:4e:4a:e3:9d:
                    70:93:ce:96:10:19:c8:45:b9:c6:43:eb:6e:4f:f0:
                    b8:06:7f:b1:e4:b6:1b:72:3b:57:9c:8a:08:d1:06:
                    a0:db:d8:c6:fd:52:16:9e:33:94:92:01:01:e5:04:
                    9d:4a:52:fb:bf:be:a9:d7:06:80:71:07:ad:39:1f:
                    3d:48:a3:c2:b4:d6:a8:82:95:db:c8:66:92:96:77:
                    fd:5b:fe:8e:fe:9b:0c:21:b5:00:9b:5f:3b:43:4c:
                    2f:01:80:d4:0e:45:97:86:64:92:2b:5f:3a:e1:80:
                    4f:0c:c5:7a:75:f9:9b:94:ed:13:4b:02:84:03:84:
                    34:56:9c:05:49:dd:9e:43:a3:a2:96:20:2f:0d:5e:
                    73:8d:88:76:4e:4d:e7:7e:b1:53:c0:fb:a4:40:fa:
                    15:cb:8c:0f:0a:d2:3a:88:52:2b:06:f7:40:10:e4:
                    f2:0f:b8:ea:90:5a:16:ee:ac:99:aa:b3:17:24:33:
                    4b:38:1c:f3:81:69:03:e1:ab:88:79:32:7a:2f:81:
                    d1:e9:cd:63:a3:2c:08:e7:b2:4e:47:db:c2:a4:df:
                    f8:e7:de:74:d5:b4:0e:f6:50:a6:b4:2d:2e:1d:a7:
                    04:a0:cd:85:a0:fe:40:86:99:80:ad:2d:5c:14:06:
                    86:ad:df:ae:f1:0e:f4:59:72:04:87:57:e0:ad:94:
                    4f:c8:3f:08:bd:6f:fb:88:91:f3:a9:b8:b3:fc:24:
                    48:7a:fc:b9:b7:17:4b:ec:11:ec:8c:4a:a2:b8:ea:
                    9f:6f:68:ba:50:47:a1:81:92:7f:6f:1d:9f:12:47:
                    aa:c3:78:4f:73:fa:16:31:36:2e:c4:8c:09:35:53:
                    58:b9:f4:19:8f:93:0f:80:92:e1:f8:51:fa:9f:ea:
                    ab:61:03:99:ba:9f:e1:ff:b8:f2:6f:ac:5b:6d:9a:
                    e0:b6:43:ec:34:ce:c2:d6:af:05:c8:34:c6:d3:4e:
                    a7:35:23:58:71:dd:dd:74:03:6c:46:82:57:db:dd:
                    e7:0e:ee:41:66:41:9a:f4:9e:05:ee:0b:90:cf:76:
                    e7:1c:81:fb:d0:d5:d3:9d:e7:2c:fb:6f:3c:0a:ff:
                    04:df:b0:0d:72:6d:72:01:42:d7:0c:2c:c7:09:4e:
                    30:74:1e:8e:85:2e:37:a6:8a:48:a1:b4:d5:ee:8e:
                    9e:6a:70:b3:5a:cc:8f:45:ce:2f:da:31:d5:4a:0f:
                    8d:fd:65:04:3c:0f:6a:8a:66:95:87:40:ab:a0:70:
                    78:7f:af:15:0e:bf:e9:64:5c:f5:ca:90:1d:59:31:
                    98:13:a5:80:d8:65:69:8c:79:b4:7d:44:41:4b:ff:
                    60:18:73
                Exponent: 65537 (0x10001)
        X509v3 extensions:
            X509v3 Basic Constraints: 
                CA:FALSE
            Netscape Comment: 
                Easy-RSA Generated Certificate
            X509v3 Subject Key Identifier: 
                3D:FB:BD:A7:F0:A0:E0:B3:0B:F6:6B:8D:6E:BE:9A:F0:8A:3F:32:66
            X509v3 Authority Key Identifier: 
                keyid:EF:38:8D:14:50:58:A7:5B:4D:9C:17:72:FC:DF:B9:AC:A7:51:B0:10
                DirName:/C=US/ST=CA/L=SanFrancisco/O=Pixglo, Inc./OU=VPN-CIE/CN=tunnel.pixglo.com/name=Bala Chandrasekaran/emailAddress=bala@pixglo.com
                serial:A6:DB:C6:83:80:E6:A0:79

            X509v3 Extended Key Usage: 
                TLS Web Client Authentication
            X509v3 Key Usage: 
                Digital Signature
    Signature Algorithm: sha1WithRSAEncryption
         95:49:a9:4b:6a:aa:bd:ce:b7:a6:1b:39:e1:36:b6:db:83:1b:
         80:29:72:b6:75:87:cc:11:bc:56:fd:da:95:89:38:e2:0c:09:
         12:30:10:71:8f:bd:94:e8:35:de:9f:b8:a5:d1:b5:37:43:ac:
         f0:56:4e:8e:3d:a2:c9:9d:0f:3f:4f:98:c1:be:50:5a:84:79:
         51:c6:1b:8f:0e:29:04:ef:6c:61:c3:1c:bd:4d:dd:a1:38:b8:
         d4:2c:8b:4e:f8:9a:38:72:15:3c:fa:43:e4:3d:03:6b:d9:52:
         8c:77:56:65:c5:59:12:b7:c8:3e:7a:5a:c0:a1:dc:69:d9:3e:
         19:2c:b2:73:af:ff:29:ac:73:c7:74:42:23:bb:8c:ee:e1:d9:
         19:c9:db:ce:ba:e7:50:fa:45:f9:86:58:5f:f9:3a:3e:30:2e:
         4b:f2:21:c0:05:2e:5d:34:20:4b:00:2b:ee:80:77:2c:cc:04:
         e5:83:e0:34:37:ab:19:70:45:7b:23:6d:d5:29:87:08:f0:7b:
         8c:e5:56:63:47:51:18:c9:0f:42:b4:61:26:be:49:e7:e4:aa:
         5a:72:f3:43:a9:d8:0d:18:b6:30:6c:e4:30:35:c7:f7:91:9d:
         9f:36:b5:60:ad:1e:07:48:78:68:e4:52:37:5f:06:0c:63:1c:
         41:27:1d:13:81:d3:31:fb:fb:24:44:07:18:50:2a:69:e9:39:
         02:68:fd:3f:70:a7:88:5d:6e:41:2c:2c:84:4b:57:62:70:d2:
         67:fd:51:16:9d:01:fb:a4:1f:d3:4d:e1:b0:5c:bd:06:86:b7:
         f0:c3:ba:f3:20:06:b2:d2:f1:9a:55:e2:f6:68:d9:15:e3:d2:
         71:d2:e4:56:72:fd:51:ee:89:fb:5c:55:19:cc:d0:72:5b:5d:
         5c:51:e6:f2:c9:d3:92:c0:a2:05:9d:7d:59:c9:d7:ce:da:3d:
         ef:ad:0d:a4:05:3a:d2:19:20:69:6b:37:b6:87:f9:eb:18:aa:
         99:20:64:71:a0:f1:c2:08:6d:de:74:84:9f:95:b9:de:fd:1d:
         55:39:af:64:a6:6c:f2:49:8a:1d:6d:12:f4:fb:a8:dc:b4:21:
         3a:83:f9:4e:bd:3c:71:18:0c:3d:7e:be:9a:11:ee:3b:7d:b2:
         b8:6a:93:32:cd:df:60:0d:fe:b5:ae:6f:4c:61:5a:a5:c0:e8:
         be:e8:5a:7f:1f:ed:dc:81:a5:1a:5b:db:d8:89:7a:ed:56:7d:
         e9:ea:15:92:62:32:ed:db:fe:9f:81:07:48:32:f1:1d:51:d8:
         49:99:12:fd:41:0d:29:c6:2e:5b:af:43:0e:a3:9a:c7:0c:4e:
         f1:9f:d9:88:b8:e8:d7:00
-----BEGIN CERTIFICATE-----
MIIHSDCCBTCgAwIBAgICAPkwDQYJKoZIhvcNAQEFBQAwgbQxCzAJBgNVBAYTAlVT
MQswCQYDVQQIEwJDQTEVMBMGA1UEBxMMU2FuRnJhbmNpc2NvMRUwEwYDVQQKEwxQ
aXhnbG8sIEluYy4xEDAOBgNVBAsTB1ZQTi1DSUUxGjAYBgNVBAMTEXR1bm5lbC5w
aXhnbG8uY29tMRwwGgYDVQQpExNCYWxhIENoYW5kcmFzZWthcmFuMR4wHAYJKoZI
hvcNAQkBFg9iYWxhQHBpeGdsby5jb20wHhcNMTgwMjE0MDYyOTE3WhcNMjgwMjEy
MDYyOTE3WjCBqTELMAkGA1UEBhMCVVMxCzAJBgNVBAgTAkNBMRUwEwYDVQQHEwxT
YW5GcmFuY2lzY28xFTATBgNVBAoTDFBpeGdsbywgSW5jLjEQMA4GA1UECxMHVlBO
LUNJRTEPMA0GA1UEAxMGY2llMjQ4MRwwGgYDVQQpExNCYWxhIENoYW5kcmFzZWth
cmFuMR4wHAYJKoZIhvcNAQkBFg9iYWxhQHBpeGdsby5jb20wggIiMA0GCSqGSIb3
DQEBAQUAA4ICDwAwggIKAoICAQC6pKM0LeB1k7DYTkrjnXCTzpYQGchFucZD625P
8LgGf7HkthtyO1ecigjRBqDb2Mb9UhaeM5SSAQHlBJ1KUvu/vqnXBoBxB605Hz1I
o8K01qiCldvIZpKWd/1b/o7+mwwhtQCbXztDTC8BgNQORZeGZJIrXzrhgE8MxXp1
+ZuU7RNLAoQDhDRWnAVJ3Z5Do6KWIC8NXnONiHZOTed+sVPA+6RA+hXLjA8K0jqI
UisG90AQ5PIPuOqQWhburJmqsxckM0s4HPOBaQPhq4h5MnovgdHpzWOjLAjnsk5H
28Kk3/jn3nTVtA72UKa0LS4dpwSgzYWg/kCGmYCtLVwUBoat367xDvRZcgSHV+Ct
lE/IPwi9b/uIkfOpuLP8JEh6/Lm3F0vsEeyMSqK46p9vaLpQR6GBkn9vHZ8SR6rD
eE9z+hYxNi7EjAk1U1i59BmPkw+AkuH4Ufqf6qthA5m6n+H/uPJvrFttmuC2Q+w0
zsLWrwXINMbTTqc1I1hx3d10A2xGglfb3ecO7kFmQZr0ngXuC5DPduccgfvQ1dOd
5yz7bzwK/wTfsA1ybXIBQtcMLMcJTjB0Ho6FLjemikihtNXujp5qcLNazI9Fzi/a
MdVKD439ZQQ8D2qKZpWHQKugcHh/rxUOv+lkXPXKkB1ZMZgTpYDYZWmMebR9REFL
/2AYcwIDAQABo4IBazCCAWcwCQYDVR0TBAIwADAtBglghkgBhvhCAQ0EIBYeRWFz
eS1SU0EgR2VuZXJhdGVkIENlcnRpZmljYXRlMB0GA1UdDgQWBBQ9+72n8KDgswv2
a41uvprwij8yZjCB6QYDVR0jBIHhMIHegBTvOI0UUFinW02cF3L837msp1GwEKGB
uqSBtzCBtDELMAkGA1UEBhMCVVMxCzAJBgNVBAgTAkNBMRUwEwYDVQQHEwxTYW5G
cmFuY2lzY28xFTATBgNVBAoTDFBpeGdsbywgSW5jLjEQMA4GA1UECxMHVlBOLUNJ
RTEaMBgGA1UEAxMRdHVubmVsLnBpeGdsby5jb20xHDAaBgNVBCkTE0JhbGEgQ2hh
bmRyYXNla2FyYW4xHjAcBgkqhkiG9w0BCQEWD2JhbGFAcGl4Z2xvLmNvbYIJAKbb
xoOA5qB5MBMGA1UdJQQMMAoGCCsGAQUFBwMCMAsGA1UdDwQEAwIHgDANBgkqhkiG
9w0BAQUFAAOCAgEAlUmpS2qqvc63phs54Ta224MbgClytnWHzBG8Vv3alYk44gwJ
EjAQcY+9lOg13p+4pdG1N0Os8FZOjj2iyZ0PP0+Ywb5QWoR5UcYbjw4pBO9sYcMc
vU3doTi41CyLTviaOHIVPPpD5D0Da9lSjHdWZcVZErfIPnpawKHcadk+GSyyc6//
Kaxzx3RCI7uM7uHZGcnbzrrnUPpF+YZYX/k6PjAuS/IhwAUuXTQgSwAr7oB3LMwE
5YPgNDerGXBFeyNt1SmHCPB7jOVWY0dRGMkPQrRhJr5J5+SqWnLzQ6nYDRi2MGzk
MDXH95Gdnza1YK0eB0h4aORSN18GDGMcQScdE4HTMfv7JEQHGFAqaek5Amj9P3Cn
iF1uQSwshEtXYnDSZ/1RFp0B+6Qf003hsFy9Boa38MO68yAGstLxmlXi9mjZFePS
cdLkVnL9Ue6J+1xVGczQcltdXFHm8snTksCiBZ19WcnXzto9760NpAU60hkgaWs3
tof56xiqmSBkcaDxwght3nSEn5W53v0dVTmvZKZs8kmKHW0S9Puo3LQhOoP5Tr08
cRgMPX6+mhHuO32yuGqTMs3fYA3+ta5vTGFapcDovuhafx/t3IGlGlvb2Il67VZ9
6eoVkmIy7dv+n4EHSDLxHVHYSZkS/UENKcYuW69DDqOaxwxO8Z/ZiLjo1wA=
-----END CERTIFICATE-----
