Certificate:
    Data:
        Version: 3 (0x2)
        Serial Number: 251 (0xfb)
    Signature Algorithm: sha1WithRSAEncryption
        Issuer: C=US, ST=CA, L=SanFrancisco, O=Pixglo, Inc., OU=VPN-CIE, CN=tunnel.pixglo.com/name=Bala Chandrasekaran/emailAddress=bala@pixglo.com
        Validity
            Not Before: Feb 14 06:29:19 2018 GMT
            Not After : Feb 12 06:29:19 2028 GMT
        Subject: C=US, ST=CA, L=SanFrancisco, O=Pixglo, Inc., OU=VPN-CIE, CN=cie250/name=Bala Chandrasekaran/emailAddress=bala@pixglo.com
        Subject Public Key Info:
            Public Key Algorithm: rsaEncryption
                Public-Key: (4096 bit)
                Modulus:
                    00:c5:e1:41:b3:1d:dd:01:e0:bb:cd:db:79:2d:43:
                    4d:a8:44:83:83:59:7c:43:21:ff:cc:54:f5:a9:56:
                    7f:01:3b:5b:52:58:d7:2d:95:ae:a7:16:02:bf:01:
                    fa:5f:c7:17:bf:4c:62:94:73:0f:ec:41:67:66:0b:
                    db:eb:06:51:06:0b:9e:6a:77:54:58:ad:fc:72:b1:
                    4d:dd:7c:0d:b1:29:8d:27:5f:9c:3a:22:5f:ce:5f:
                    5c:4a:cd:2a:b7:49:66:7a:f8:32:e8:d4:83:a9:6e:
                    56:dd:1d:13:ef:e7:77:f4:ba:a6:44:c8:7a:a0:fa:
                    aa:23:4d:76:fd:80:c9:06:f2:92:c2:64:23:52:47:
                    0f:6c:ec:55:7a:d4:e0:f7:bd:e1:a2:75:13:ba:29:
                    bb:fb:40:fc:bd:da:69:bf:7e:07:50:ff:18:2e:dc:
                    bc:4e:6f:f8:d6:66:56:03:26:c2:e2:d0:99:ec:a3:
                    8b:96:13:a7:15:eb:be:51:bf:17:73:ff:80:44:3e:
                    2b:af:24:c7:03:80:6f:f0:6b:3b:b2:db:83:46:ad:
                    1d:cc:81:f5:81:ee:b7:9a:ec:21:25:03:a2:1e:bf:
                    60:36:a9:f4:9a:3f:14:0d:53:61:63:a5:f3:18:65:
                    49:54:47:b1:6a:f0:9b:59:4f:11:7b:f8:8e:72:be:
                    dd:d1:79:2e:85:b7:6d:42:cb:75:b9:2c:67:5e:1f:
                    12:8a:16:3a:e4:73:23:f2:56:4b:e0:71:67:f1:04:
                    aa:96:60:d8:39:b7:02:99:0e:e3:8c:a6:55:9c:c3:
                    10:38:a5:95:ec:3f:4f:21:85:e2:da:82:d2:7c:a4:
                    8b:05:a7:d0:af:60:d4:01:77:ef:93:ce:be:b7:59:
                    b7:0d:6c:24:1e:cc:ca:6a:58:60:a3:9d:01:b4:d0:
                    e2:09:31:be:67:db:83:3e:f3:ce:af:20:77:da:56:
                    cb:26:49:98:0d:95:3a:5e:fa:8d:aa:70:42:82:e5:
                    52:11:fa:ba:d6:c7:0e:74:b4:d0:c7:b8:be:f0:f2:
                    50:67:be:83:29:40:52:e3:c6:f8:b8:0b:4c:51:1a:
                    0b:e9:e0:9e:fb:13:68:85:fd:0b:5a:2c:23:81:69:
                    17:dd:f3:51:b6:84:83:25:4a:3b:ec:b1:f1:73:31:
                    cd:b7:ce:df:a4:1e:a6:42:7c:3f:12:5d:71:ab:bc:
                    b9:82:b3:f7:4a:f7:ef:44:6a:bd:19:59:6e:b9:f9:
                    da:1d:ac:ff:1a:22:34:d1:96:24:9a:83:cd:a8:b5:
                    ed:88:84:fc:e3:4f:3d:25:10:b6:b1:ef:a1:0c:d6:
                    c2:00:d6:e7:b0:4f:f7:c8:0e:a7:cf:db:a1:04:c0:
                    7d:8c:57
                Exponent: 65537 (0x10001)
        X509v3 extensions:
            X509v3 Basic Constraints: 
                CA:FALSE
            Netscape Comment: 
                Easy-RSA Generated Certificate
            X509v3 Subject Key Identifier: 
                E1:45:2F:6D:F1:D3:0F:7D:3B:20:99:A3:98:43:90:30:6B:66:0A:89
            X509v3 Authority Key Identifier: 
                keyid:EF:38:8D:14:50:58:A7:5B:4D:9C:17:72:FC:DF:B9:AC:A7:51:B0:10
                DirName:/C=US/ST=CA/L=SanFrancisco/O=Pixglo, Inc./OU=VPN-CIE/CN=tunnel.pixglo.com/name=Bala Chandrasekaran/emailAddress=bala@pixglo.com
                serial:A6:DB:C6:83:80:E6:A0:79

            X509v3 Extended Key Usage: 
                TLS Web Client Authentication
            X509v3 Key Usage: 
                Digital Signature
    Signature Algorithm: sha1WithRSAEncryption
         31:ec:47:97:0c:98:e7:9e:05:ae:0f:ee:3f:d8:2f:a0:70:66:
         cd:50:bd:be:f1:7d:74:05:c7:c1:52:9f:0d:eb:ea:36:d7:5e:
         63:81:f1:f0:7e:1c:4b:32:ab:19:cc:fc:c1:c2:25:13:5e:95:
         4b:43:bc:16:90:54:df:39:33:6a:ec:b8:ca:21:89:72:32:22:
         c8:06:4b:8a:d4:1a:6d:58:90:71:d1:9a:f4:6b:c0:e9:6e:64:
         fe:2d:39:cb:8f:98:2f:a9:b0:85:bf:73:47:b2:08:78:d5:18:
         15:42:dc:80:20:5d:4b:46:57:94:da:23:83:10:03:cb:20:34:
         86:c2:6d:6f:35:f1:ad:9d:eb:9d:a5:1e:75:c4:d7:70:33:2f:
         c9:9a:51:ec:af:f6:35:c4:26:73:4c:04:f0:34:8f:c1:ed:b6:
         87:65:20:96:df:b7:08:cd:a7:c8:80:ab:9f:53:86:36:13:1b:
         d1:09:b7:2a:a0:06:9f:79:b4:05:73:c2:03:ce:76:a3:8a:cb:
         d0:36:eb:57:5c:c3:3e:b9:c2:71:f2:e3:c9:9f:30:a8:a8:91:
         df:7d:fd:40:fa:30:85:3b:c5:16:22:62:22:39:fd:25:2e:80:
         42:1a:9c:15:7f:36:69:c7:41:71:45:d0:67:1c:28:4c:e7:13:
         32:09:51:b8:85:c9:31:a1:7e:88:1b:6c:66:42:1e:30:7f:c4:
         93:5f:4b:36:b8:d8:0c:1d:98:08:b9:38:40:11:86:2b:74:8d:
         df:55:ed:8f:86:36:c6:e3:33:3f:1f:79:32:1d:73:a2:67:2b:
         ed:8a:1d:01:09:16:e2:7c:69:3f:64:d5:35:ed:2b:28:f1:58:
         0e:40:63:6f:86:34:01:d9:42:62:e2:eb:b0:bf:f5:2b:b7:96:
         80:f6:5a:bc:23:70:45:5d:52:b2:fd:fa:3e:39:0f:77:37:fe:
         07:ee:0c:61:ac:63:ae:d0:b1:dd:2c:a6:4d:d4:ed:1f:23:9b:
         65:0a:f7:35:5c:c8:91:08:3e:5b:7b:42:93:f1:31:f7:61:98:
         53:73:dd:cd:1b:08:3a:38:d3:87:86:89:3f:3e:05:6d:33:70:
         aa:b1:7c:c3:f8:ec:88:63:b5:6e:a7:ff:73:8c:22:d0:cf:71:
         bc:eb:55:b5:1a:da:1f:77:f2:4d:eb:cf:4a:10:9a:e1:75:e9:
         5d:33:1a:6b:09:a7:45:7f:01:de:d5:ac:49:6f:0e:5a:5f:6d:
         cb:cb:b0:8a:33:b6:81:70:71:3a:78:46:c4:a2:85:38:8a:6e:
         d2:4e:0f:ac:d0:54:16:be:24:37:42:23:d4:2d:1a:a6:13:95:
         79:f2:bf:bd:35:c6:d0:c6
-----BEGIN CERTIFICATE-----
MIIHSDCCBTCgAwIBAgICAPswDQYJKoZIhvcNAQEFBQAwgbQxCzAJBgNVBAYTAlVT
MQswCQYDVQQIEwJDQTEVMBMGA1UEBxMMU2FuRnJhbmNpc2NvMRUwEwYDVQQKEwxQ
aXhnbG8sIEluYy4xEDAOBgNVBAsTB1ZQTi1DSUUxGjAYBgNVBAMTEXR1bm5lbC5w
aXhnbG8uY29tMRwwGgYDVQQpExNCYWxhIENoYW5kcmFzZWthcmFuMR4wHAYJKoZI
hvcNAQkBFg9iYWxhQHBpeGdsby5jb20wHhcNMTgwMjE0MDYyOTE5WhcNMjgwMjEy
MDYyOTE5WjCBqTELMAkGA1UEBhMCVVMxCzAJBgNVBAgTAkNBMRUwEwYDVQQHEwxT
YW5GcmFuY2lzY28xFTATBgNVBAoTDFBpeGdsbywgSW5jLjEQMA4GA1UECxMHVlBO
LUNJRTEPMA0GA1UEAxMGY2llMjUwMRwwGgYDVQQpExNCYWxhIENoYW5kcmFzZWth
cmFuMR4wHAYJKoZIhvcNAQkBFg9iYWxhQHBpeGdsby5jb20wggIiMA0GCSqGSIb3
DQEBAQUAA4ICDwAwggIKAoICAQDF4UGzHd0B4LvN23ktQ02oRIODWXxDIf/MVPWp
Vn8BO1tSWNctla6nFgK/Afpfxxe/TGKUcw/sQWdmC9vrBlEGC55qd1RYrfxysU3d
fA2xKY0nX5w6Il/OX1xKzSq3SWZ6+DLo1IOpblbdHRPv53f0uqZEyHqg+qojTXb9
gMkG8pLCZCNSRw9s7FV61OD3veGidRO6Kbv7QPy92mm/fgdQ/xgu3LxOb/jWZlYD
JsLi0Jnso4uWE6cV675Rvxdz/4BEPiuvJMcDgG/wazuy24NGrR3MgfWB7rea7CEl
A6Iev2A2qfSaPxQNU2FjpfMYZUlUR7Fq8JtZTxF7+I5yvt3ReS6Ft21Cy3W5LGde
HxKKFjrkcyPyVkvgcWfxBKqWYNg5twKZDuOMplWcwxA4pZXsP08hheLagtJ8pIsF
p9CvYNQBd++Tzr63WbcNbCQezMpqWGCjnQG00OIJMb5n24M+886vIHfaVssmSZgN
lTpe+o2qcEKC5VIR+rrWxw50tNDHuL7w8lBnvoMpQFLjxvi4C0xRGgvp4J77E2iF
/QtaLCOBaRfd81G2hIMlSjvssfFzMc23zt+kHqZCfD8SXXGrvLmCs/dK9+9Ear0Z
WW65+dodrP8aIjTRliSag82ote2IhPzjTz0lELax76EM1sIA1uewT/fIDqfP26EE
wH2MVwIDAQABo4IBazCCAWcwCQYDVR0TBAIwADAtBglghkgBhvhCAQ0EIBYeRWFz
eS1SU0EgR2VuZXJhdGVkIENlcnRpZmljYXRlMB0GA1UdDgQWBBThRS9t8dMPfTsg
maOYQ5Awa2YKiTCB6QYDVR0jBIHhMIHegBTvOI0UUFinW02cF3L837msp1GwEKGB
uqSBtzCBtDELMAkGA1UEBhMCVVMxCzAJBgNVBAgTAkNBMRUwEwYDVQQHEwxTYW5G
cmFuY2lzY28xFTATBgNVBAoTDFBpeGdsbywgSW5jLjEQMA4GA1UECxMHVlBOLUNJ
RTEaMBgGA1UEAxMRdHVubmVsLnBpeGdsby5jb20xHDAaBgNVBCkTE0JhbGEgQ2hh
bmRyYXNla2FyYW4xHjAcBgkqhkiG9w0BCQEWD2JhbGFAcGl4Z2xvLmNvbYIJAKbb
xoOA5qB5MBMGA1UdJQQMMAoGCCsGAQUFBwMCMAsGA1UdDwQEAwIHgDANBgkqhkiG
9w0BAQUFAAOCAgEAMexHlwyY554Frg/uP9gvoHBmzVC9vvF9dAXHwVKfDevqNtde
Y4Hx8H4cSzKrGcz8wcIlE16VS0O8FpBU3zkzauy4yiGJcjIiyAZLitQabViQcdGa
9GvA6W5k/i05y4+YL6mwhb9zR7IIeNUYFULcgCBdS0ZXlNojgxADyyA0hsJtbzXx
rZ3rnaUedcTXcDMvyZpR7K/2NcQmc0wE8DSPwe22h2Uglt+3CM2nyICrn1OGNhMb
0Qm3KqAGn3m0BXPCA852o4rL0DbrV1zDPrnCcfLjyZ8wqKiR3339QPowhTvFFiJi
Ijn9JS6AQhqcFX82acdBcUXQZxwoTOcTMglRuIXJMaF+iBtsZkIeMH/Ek19LNrjY
DB2YCLk4QBGGK3SN31Xtj4Y2xuMzPx95Mh1zomcr7YodAQkW4nxpP2TVNe0rKPFY
DkBjb4Y0AdlCYuLrsL/1K7eWgPZavCNwRV1Ssv36PjkPdzf+B+4MYaxjrtCx3Sym
TdTtHyObZQr3NVzIkQg+W3tCk/Ex92GYU3PdzRsIOjjTh4aJPz4FbTNwqrF8w/js
iGO1bqf/c4wi0M9xvOtVtRraH3fyTevPShCa4XXpXTMaawmnRX8B3tWsSW8OWl9t
y8uwijO2gXBxOnhGxKKFOIpu0k4PrNBUFr4kN0Ij1C0aphOVefK/vTXG0MY=
-----END CERTIFICATE-----
