Certificate:
    Data:
        Version: 3 (0x2)
        Serial Number: 252 (0xfc)
    Signature Algorithm: sha1WithRSAEncryption
        Issuer: C=US, ST=CA, L=SanFrancisco, O=Pixglo, Inc., OU=VPN-CIE, CN=tunnel.pixglo.com/name=Bala Chandrasekaran/emailAddress=bala@pixglo.com
        Validity
            Not Before: Feb 14 06:29:21 2018 GMT
            Not After : Feb 12 06:29:21 2028 GMT
        Subject: C=US, ST=CA, L=SanFrancisco, O=Pixglo, Inc., OU=VPN-CIE, CN=cie251/name=Bala Chandrasekaran/emailAddress=bala@pixglo.com
        Subject Public Key Info:
            Public Key Algorithm: rsaEncryption
                Public-Key: (4096 bit)
                Modulus:
                    00:a1:20:38:95:4e:ac:1d:95:43:cb:51:16:bc:bd:
                    ee:a3:64:9c:00:53:82:1c:1d:b7:01:e6:42:39:2f:
                    c0:2b:4c:77:42:1a:f5:99:ad:84:4b:8d:cc:13:f6:
                    55:11:9e:3a:a8:ad:f2:bd:87:ea:e6:66:92:2d:8f:
                    56:3c:22:af:92:bc:d0:41:33:df:02:a0:80:ba:cc:
                    2a:35:c5:ac:b4:25:92:2e:70:46:6f:56:86:c1:cd:
                    b8:23:e7:f1:49:42:a1:13:df:22:13:4b:65:ae:cb:
                    e4:7b:82:89:4b:7a:2d:5a:7a:81:17:77:2d:1e:37:
                    1c:a3:05:54:91:42:60:e7:e8:c7:cd:f3:ff:d2:ef:
                    6f:06:04:03:f0:21:dd:e1:32:70:7a:af:f2:20:0f:
                    cc:e9:a6:0e:4f:b7:b3:2f:6b:9e:41:18:9d:73:79:
                    00:7c:b4:37:23:57:6b:06:83:b3:08:b1:af:3f:01:
                    a7:87:3a:8b:85:25:99:3e:0f:43:c6:9c:9f:c3:0e:
                    b6:ce:5d:88:e5:e8:c9:8c:e7:80:8d:fc:fd:33:31:
                    fa:81:e1:b7:fe:df:e6:e4:eb:cc:e7:1b:36:41:11:
                    a0:9a:41:d7:4a:7b:13:a2:f4:ba:bb:f4:22:4c:aa:
                    84:43:8f:1f:2e:a3:d2:38:3a:a1:67:1e:ef:f4:9e:
                    f8:45:96:00:87:32:de:7e:62:c3:73:47:36:65:78:
                    82:85:1c:f4:bb:b9:19:b3:a1:d6:3f:ac:ee:94:94:
                    e2:58:b7:e3:99:9a:a1:e3:83:fe:21:f1:0d:64:53:
                    3f:1e:cb:49:63:43:de:91:fe:84:d4:8c:c4:4f:1f:
                    ad:00:de:5b:25:fc:99:28:98:b5:b9:0d:33:20:dc:
                    57:d5:d2:b3:8e:d0:a1:65:81:4a:15:96:e4:f2:c4:
                    c4:b6:df:05:33:38:f0:5c:df:67:77:6e:94:b9:1e:
                    9b:c9:45:0a:8d:d7:4a:ca:92:65:54:56:92:6e:e8:
                    30:5f:f0:d2:ab:19:76:81:32:07:c6:b5:7e:27:19:
                    c5:79:0c:09:34:f5:1e:f4:39:ff:b0:77:be:8c:18:
                    6f:73:10:e4:6c:75:31:41:ab:13:51:b7:b8:0a:ad:
                    61:55:88:bf:35:d1:d7:fb:b3:60:8a:b6:cc:db:4f:
                    3c:e1:94:4b:aa:6c:9a:82:3e:5d:47:b4:91:03:9c:
                    de:2a:23:17:0a:24:98:30:35:b0:92:ec:98:03:66:
                    8f:d4:78:c7:33:56:a8:04:b9:ad:9c:51:e6:d5:b3:
                    39:99:b0:f5:24:ce:a8:e8:d5:2e:05:17:5d:f8:0f:
                    45:f5:b5:de:ed:24:93:fb:de:94:ea:b8:fe:39:14:
                    a2:97:a5
                Exponent: 65537 (0x10001)
        X509v3 extensions:
            X509v3 Basic Constraints: 
                CA:FALSE
            Netscape Comment: 
                Easy-RSA Generated Certificate
            X509v3 Subject Key Identifier: 
                D1:11:99:BE:02:4F:06:BC:F0:C3:E8:E8:B8:26:1F:74:14:3C:D5:07
            X509v3 Authority Key Identifier: 
                keyid:EF:38:8D:14:50:58:A7:5B:4D:9C:17:72:FC:DF:B9:AC:A7:51:B0:10
                DirName:/C=US/ST=CA/L=SanFrancisco/O=Pixglo, Inc./OU=VPN-CIE/CN=tunnel.pixglo.com/name=Bala Chandrasekaran/emailAddress=bala@pixglo.com
                serial:A6:DB:C6:83:80:E6:A0:79

            X509v3 Extended Key Usage: 
                TLS Web Client Authentication
            X509v3 Key Usage: 
                Digital Signature
    Signature Algorithm: sha1WithRSAEncryption
         b5:aa:0f:b0:6a:a5:bc:39:4f:59:c4:ca:2c:34:42:ed:36:7a:
         ce:e5:df:7b:be:a8:0d:33:c1:17:14:18:4a:a5:f9:08:7c:b3:
         d4:1d:b3:aa:25:f3:dd:63:c3:9e:c3:54:6f:d4:aa:e7:51:71:
         9d:e0:79:98:9d:62:ef:77:0d:ef:00:fa:43:42:d5:fa:0f:02:
         91:f1:ac:e8:bf:33:96:9d:59:1b:23:39:73:42:5b:6b:43:e0:
         22:37:8e:61:19:50:e5:59:e9:01:b2:ce:fe:5e:c5:88:39:6c:
         85:7f:91:1d:71:f6:a2:d7:82:47:b0:a2:22:36:98:19:b7:b8:
         9a:ad:3d:fe:02:8e:8d:3b:47:8b:97:9e:cd:e7:29:1c:70:5c:
         2a:87:ea:a2:dd:d7:8f:dc:f7:32:3f:17:fd:fc:f5:b1:fb:d0:
         af:50:ad:84:b1:42:9e:77:ff:7b:73:f0:9c:6f:39:88:8d:73:
         7d:5c:3e:c5:34:3e:1e:e5:7e:b3:fc:6e:35:e9:6c:8a:b7:31:
         f6:cc:e9:66:f2:5f:ad:b2:10:8b:9e:1c:09:e8:53:87:14:85:
         a7:37:aa:39:8a:a0:e8:ae:00:50:5a:a5:6e:51:03:4e:17:ed:
         09:68:b9:a3:cd:f4:c1:ee:1b:c2:ae:1b:92:b7:e7:c8:ca:1c:
         6b:26:8f:21:53:14:c2:b3:b6:28:22:d6:70:df:b9:ad:77:d1:
         6d:e1:de:ec:93:ae:76:9e:aa:8f:35:b1:e3:ac:2c:a9:83:67:
         d6:c6:51:42:7d:5c:fc:5a:e7:19:ea:c4:51:f5:51:91:e4:2f:
         f6:71:ce:03:ac:71:97:b8:e5:f6:c0:0c:5e:18:71:8d:c0:4b:
         45:8a:37:55:c4:6f:41:a4:11:c9:8f:eb:8b:7a:39:bd:71:fb:
         50:5e:bf:4b:0d:b1:e6:6c:87:32:9e:4e:d8:3f:38:a3:3e:7b:
         b1:06:f1:8f:77:7d:f0:48:c6:38:6d:33:2e:29:f7:69:7e:78:
         51:31:6d:08:2f:ff:50:77:64:42:f6:27:7f:09:f4:3f:67:ae:
         1d:1d:e5:72:a6:af:53:f4:a0:10:20:82:8d:32:17:ca:06:6f:
         f3:92:3b:11:c9:89:ee:51:8c:7a:74:2b:68:1a:c6:b9:9f:e7:
         a8:dd:8d:99:f5:6d:10:c1:fd:77:41:5d:0d:8f:7a:76:6e:ee:
         73:b1:da:74:18:b6:c1:1e:cd:ab:d9:0f:2c:48:88:36:25:80:
         3f:02:c3:74:07:dd:ef:b6:5d:14:62:68:83:cc:1b:63:2c:d7:
         be:fa:a0:21:72:b9:aa:e6:00:b1:48:ae:1e:bf:1f:88:48:97:
         97:ad:64:8d:f7:b7:1d:51
-----BEGIN CERTIFICATE-----
MIIHSDCCBTCgAwIBAgICAPwwDQYJKoZIhvcNAQEFBQAwgbQxCzAJBgNVBAYTAlVT
MQswCQYDVQQIEwJDQTEVMBMGA1UEBxMMU2FuRnJhbmNpc2NvMRUwEwYDVQQKEwxQ
aXhnbG8sIEluYy4xEDAOBgNVBAsTB1ZQTi1DSUUxGjAYBgNVBAMTEXR1bm5lbC5w
aXhnbG8uY29tMRwwGgYDVQQpExNCYWxhIENoYW5kcmFzZWthcmFuMR4wHAYJKoZI
hvcNAQkBFg9iYWxhQHBpeGdsby5jb20wHhcNMTgwMjE0MDYyOTIxWhcNMjgwMjEy
MDYyOTIxWjCBqTELMAkGA1UEBhMCVVMxCzAJBgNVBAgTAkNBMRUwEwYDVQQHEwxT
YW5GcmFuY2lzY28xFTATBgNVBAoTDFBpeGdsbywgSW5jLjEQMA4GA1UECxMHVlBO
LUNJRTEPMA0GA1UEAxMGY2llMjUxMRwwGgYDVQQpExNCYWxhIENoYW5kcmFzZWth
cmFuMR4wHAYJKoZIhvcNAQkBFg9iYWxhQHBpeGdsby5jb20wggIiMA0GCSqGSIb3
DQEBAQUAA4ICDwAwggIKAoICAQChIDiVTqwdlUPLURa8ve6jZJwAU4IcHbcB5kI5
L8ArTHdCGvWZrYRLjcwT9lURnjqorfK9h+rmZpItj1Y8Iq+SvNBBM98CoIC6zCo1
xay0JZIucEZvVobBzbgj5/FJQqET3yITS2Wuy+R7golLei1aeoEXdy0eNxyjBVSR
QmDn6MfN8//S728GBAPwId3hMnB6r/IgD8zppg5Pt7Mva55BGJ1zeQB8tDcjV2sG
g7MIsa8/AaeHOouFJZk+D0PGnJ/DDrbOXYjl6MmM54CN/P0zMfqB4bf+3+bk68zn
GzZBEaCaQddKexOi9Lq79CJMqoRDjx8uo9I4OqFnHu/0nvhFlgCHMt5+YsNzRzZl
eIKFHPS7uRmzodY/rO6UlOJYt+OZmqHjg/4h8Q1kUz8ey0ljQ96R/oTUjMRPH60A
3lsl/JkomLW5DTMg3FfV0rOO0KFlgUoVluTyxMS23wUzOPBc32d3bpS5HpvJRQqN
10rKkmVUVpJu6DBf8NKrGXaBMgfGtX4nGcV5DAk09R70Of+wd76MGG9zEORsdTFB
qxNRt7gKrWFViL810df7s2CKtszbTzzhlEuqbJqCPl1HtJEDnN4qIxcKJJgwNbCS
7JgDZo/UeMczVqgEua2cUebVszmZsPUkzqjo1S4FF134D0X1td7tJJP73pTquP45
FKKXpQIDAQABo4IBazCCAWcwCQYDVR0TBAIwADAtBglghkgBhvhCAQ0EIBYeRWFz
eS1SU0EgR2VuZXJhdGVkIENlcnRpZmljYXRlMB0GA1UdDgQWBBTREZm+Ak8GvPDD
6Oi4Jh90FDzVBzCB6QYDVR0jBIHhMIHegBTvOI0UUFinW02cF3L837msp1GwEKGB
uqSBtzCBtDELMAkGA1UEBhMCVVMxCzAJBgNVBAgTAkNBMRUwEwYDVQQHEwxTYW5G
cmFuY2lzY28xFTATBgNVBAoTDFBpeGdsbywgSW5jLjEQMA4GA1UECxMHVlBOLUNJ
RTEaMBgGA1UEAxMRdHVubmVsLnBpeGdsby5jb20xHDAaBgNVBCkTE0JhbGEgQ2hh
bmRyYXNla2FyYW4xHjAcBgkqhkiG9w0BCQEWD2JhbGFAcGl4Z2xvLmNvbYIJAKbb
xoOA5qB5MBMGA1UdJQQMMAoGCCsGAQUFBwMCMAsGA1UdDwQEAwIHgDANBgkqhkiG
9w0BAQUFAAOCAgEAtaoPsGqlvDlPWcTKLDRC7TZ6zuXfe76oDTPBFxQYSqX5CHyz
1B2zqiXz3WPDnsNUb9Sq51FxneB5mJ1i73cN7wD6Q0LV+g8CkfGs6L8zlp1ZGyM5
c0Jba0PgIjeOYRlQ5VnpAbLO/l7FiDlshX+RHXH2oteCR7CiIjaYGbe4mq09/gKO
jTtHi5eezecpHHBcKofqot3Xj9z3Mj8X/fz1sfvQr1CthLFCnnf/e3PwnG85iI1z
fVw+xTQ+HuV+s/xuNelsircx9szpZvJfrbIQi54cCehThxSFpzeqOYqg6K4AUFql
blEDThftCWi5o830we4bwq4bkrfnyMocayaPIVMUwrO2KCLWcN+5rXfRbeHe7JOu
dp6qjzWx46wsqYNn1sZRQn1c/FrnGerEUfVRkeQv9nHOA6xxl7jl9sAMXhhxjcBL
RYo3VcRvQaQRyY/ri3o5vXH7UF6/Sw2x5myHMp5O2D84oz57sQbxj3d98EjGOG0z
Lin3aX54UTFtCC//UHdkQvYnfwn0P2euHR3lcqavU/SgECCCjTIXygZv85I7EcmJ
7lGMenQraBrGuZ/nqN2NmfVtEMH9d0FdDY96dm7uc7HadBi2wR7Nq9kPLEiINiWA
PwLDdAfd77ZdFGJog8wbYyzXvvqgIXK5quYAsUiuHr8fiEiXl61kjfe3HVE=
-----END CERTIFICATE-----
