Certificate:
    Data:
        Version: 3 (0x2)
        Serial Number: 253 (0xfd)
    Signature Algorithm: sha1WithRSAEncryption
        Issuer: C=US, ST=CA, L=SanFrancisco, O=Pixglo, Inc., OU=VPN-CIE, CN=tunnel.pixglo.com/name=Bala Chandrasekaran/emailAddress=bala@pixglo.com
        Validity
            Not Before: Feb 14 06:29:21 2018 GMT
            Not After : Feb 12 06:29:21 2028 GMT
        Subject: C=US, ST=CA, L=SanFrancisco, O=Pixglo, Inc., OU=VPN-CIE, CN=cie252/name=Bala Chandrasekaran/emailAddress=bala@pixglo.com
        Subject Public Key Info:
            Public Key Algorithm: rsaEncryption
                Public-Key: (4096 bit)
                Modulus:
                    00:c2:4d:21:92:51:d0:e6:2a:b8:b2:ac:ea:e4:43:
                    e4:44:d4:d6:6e:7e:67:6a:02:79:0b:b4:e3:c1:67:
                    a9:00:6e:e4:76:24:8b:b2:cb:05:03:8c:a4:de:db:
                    c5:83:97:50:a6:83:62:f9:e2:5e:c8:fd:d5:f5:71:
                    dd:3a:e1:dc:c8:3d:49:f0:b5:c0:b3:40:25:a4:e2:
                    49:0e:b5:7c:0c:64:74:b6:22:e1:5f:15:89:75:a0:
                    0c:68:87:b6:a5:13:a4:3d:36:6a:df:ca:a6:85:a9:
                    8f:72:44:ef:9d:9c:b9:b4:d4:e5:1a:9e:b1:97:19:
                    c2:3d:f0:8e:2c:0e:dc:f9:87:67:0a:05:5e:ac:b9:
                    2d:b6:5d:87:bb:c2:f2:f6:1d:73:73:dc:68:08:c7:
                    4d:b5:ce:2a:89:d9:8f:b9:03:1b:fd:7c:1e:fe:8c:
                    d6:e5:23:0f:f9:0f:80:2c:4f:d1:53:ca:3b:b3:23:
                    39:49:9d:81:9f:1b:3d:fe:c7:d6:80:ea:26:f0:85:
                    d0:b1:fe:ef:e1:b5:c3:59:0b:e1:77:e2:68:d4:a4:
                    2a:bb:dd:dd:f0:34:5b:25:b7:3c:09:1a:d4:32:30:
                    c2:ed:d0:72:a0:fb:b4:64:a2:e6:7f:33:e0:31:d1:
                    13:9c:33:b5:d0:ad:25:1b:84:6e:4b:ca:75:92:2b:
                    6b:47:e0:d1:de:83:09:fa:0a:14:d9:49:eb:91:63:
                    1e:80:fc:e6:c0:30:11:10:1f:21:cd:d9:e2:b1:57:
                    2b:20:d4:8f:8f:7a:88:27:bd:5a:7a:84:bc:7b:e6:
                    82:70:2d:f0:40:0d:53:c9:38:81:08:68:6c:1e:63:
                    b0:40:77:8f:4c:48:3f:c7:08:80:a1:59:6c:c2:c9:
                    b8:e0:e8:f0:73:48:a2:83:ec:79:fa:63:a3:b8:16:
                    2d:b1:ef:cd:a0:65:af:fe:ee:1b:22:bc:c3:b3:0f:
                    44:54:ea:6c:8f:59:1f:a1:68:5a:f1:2e:b7:55:fb:
                    5f:05:bc:77:f6:f3:d0:b9:86:96:70:0b:4e:8a:7d:
                    6b:2b:cb:72:06:f7:8d:ca:41:51:41:7e:3f:03:a7:
                    f9:c9:17:d7:b2:9f:c2:b9:68:34:05:aa:16:2b:71:
                    2e:67:8d:22:79:b0:22:89:59:e9:5f:18:45:c8:0f:
                    d1:20:da:72:37:fb:f1:a8:1d:e2:1b:52:07:04:12:
                    98:a5:94:67:5b:f0:c8:9d:11:94:3e:17:55:3d:cf:
                    9f:86:3b:9e:c5:8c:92:01:f9:03:96:96:69:87:66:
                    8b:0f:a8:a5:4e:69:58:87:24:b0:bd:5b:fd:b2:b2:
                    d5:68:d2:13:da:50:35:c3:f0:ce:db:ef:4c:61:27:
                    4c:8e:a1
                Exponent: 65537 (0x10001)
        X509v3 extensions:
            X509v3 Basic Constraints: 
                CA:FALSE
            Netscape Comment: 
                Easy-RSA Generated Certificate
            X509v3 Subject Key Identifier: 
                F6:FD:A1:BD:28:65:34:31:45:6D:8B:F4:22:33:40:9A:81:FA:D7:29
            X509v3 Authority Key Identifier: 
                keyid:EF:38:8D:14:50:58:A7:5B:4D:9C:17:72:FC:DF:B9:AC:A7:51:B0:10
                DirName:/C=US/ST=CA/L=SanFrancisco/O=Pixglo, Inc./OU=VPN-CIE/CN=tunnel.pixglo.com/name=Bala Chandrasekaran/emailAddress=bala@pixglo.com
                serial:A6:DB:C6:83:80:E6:A0:79

            X509v3 Extended Key Usage: 
                TLS Web Client Authentication
            X509v3 Key Usage: 
                Digital Signature
    Signature Algorithm: sha1WithRSAEncryption
         bf:54:9d:25:fb:06:54:63:75:c1:3b:65:91:21:4d:d4:c9:70:
         20:9b:d5:fe:66:ee:ae:8a:b7:7d:16:1f:60:80:88:ed:37:40:
         f6:4f:79:bd:25:99:6e:5c:05:51:90:bd:03:eb:03:db:5d:28:
         71:7b:6b:9a:8f:9f:aa:92:c6:33:85:f9:83:36:6e:6f:71:55:
         f4:49:e8:b8:93:02:67:fa:24:5d:8e:06:78:30:cb:06:5b:26:
         d1:cf:8e:bd:3d:3d:18:16:93:ab:bb:15:61:ea:16:45:ce:6c:
         5e:cc:31:af:e4:83:15:29:2e:90:a0:18:ac:75:25:22:c2:62:
         9c:c3:f6:6e:2e:03:3c:9e:1c:4c:7d:5c:58:6d:29:7d:e2:35:
         4b:09:ba:7e:bc:4f:ed:60:dc:09:a8:12:35:63:ff:ee:e7:93:
         ff:c5:45:55:3d:8b:2d:09:9b:d4:f9:2e:47:07:46:bc:85:f2:
         19:0e:14:c7:8c:1e:b2:76:7e:ec:de:3d:32:e0:ce:4f:1c:7c:
         a8:dc:fd:09:bb:6a:a2:75:33:f4:fa:91:a7:92:73:85:ce:19:
         55:69:89:ba:cf:ef:53:f9:29:5b:59:67:1a:75:5f:d6:10:98:
         90:03:fc:fa:37:5f:5d:fe:a0:b5:bd:52:d4:be:d4:3a:8b:df:
         78:45:f4:84:0c:db:11:13:ba:80:e2:96:e1:e0:0b:d2:38:d3:
         18:43:86:ef:30:c0:0a:09:80:36:11:ea:b7:38:b9:94:f9:ba:
         0e:3a:51:9f:56:6f:eb:f9:14:53:0e:dd:b1:df:c7:41:f6:85:
         70:01:bf:fe:aa:c1:08:c5:a7:6f:1a:1b:0d:a0:32:99:f3:ae:
         d1:dd:4d:d9:86:6f:ef:4c:6b:c1:bb:a4:6f:fa:f6:7e:e1:5b:
         05:87:d8:0b:90:5f:78:3a:f4:18:1a:05:f0:23:84:97:ed:dd:
         85:ba:eb:3b:c5:77:5f:96:cb:a5:cb:17:59:60:ee:62:9a:f5:
         41:29:c0:fd:e6:7a:a9:71:18:b8:2d:df:fa:dd:24:b0:9a:81:
         1f:6b:c9:4b:33:6b:f8:98:82:e7:4d:75:04:68:59:2b:ff:a5:
         3b:ce:f0:09:0d:64:a6:8e:44:12:f6:f2:2b:a6:60:f7:a7:df:
         b2:26:75:82:53:aa:01:6a:ae:69:e5:0a:fb:17:53:a3:6b:d6:
         fa:b5:da:0e:85:7f:a7:10:8b:c2:71:f3:d2:40:a3:d4:5a:ec:
         6a:c6:40:84:c0:ee:3b:33:fc:b6:10:27:b3:e6:b3:e1:70:0e:
         72:e2:6e:6d:d9:d0:b3:0d:90:c7:9e:47:61:8b:5f:53:c3:cc:
         00:6b:dc:36:0e:d0:0a:a4
-----BEGIN CERTIFICATE-----
MIIHSDCCBTCgAwIBAgICAP0wDQYJKoZIhvcNAQEFBQAwgbQxCzAJBgNVBAYTAlVT
MQswCQYDVQQIEwJDQTEVMBMGA1UEBxMMU2FuRnJhbmNpc2NvMRUwEwYDVQQKEwxQ
aXhnbG8sIEluYy4xEDAOBgNVBAsTB1ZQTi1DSUUxGjAYBgNVBAMTEXR1bm5lbC5w
aXhnbG8uY29tMRwwGgYDVQQpExNCYWxhIENoYW5kcmFzZWthcmFuMR4wHAYJKoZI
hvcNAQkBFg9iYWxhQHBpeGdsby5jb20wHhcNMTgwMjE0MDYyOTIxWhcNMjgwMjEy
MDYyOTIxWjCBqTELMAkGA1UEBhMCVVMxCzAJBgNVBAgTAkNBMRUwEwYDVQQHEwxT
YW5GcmFuY2lzY28xFTATBgNVBAoTDFBpeGdsbywgSW5jLjEQMA4GA1UECxMHVlBO
LUNJRTEPMA0GA1UEAxMGY2llMjUyMRwwGgYDVQQpExNCYWxhIENoYW5kcmFzZWth
cmFuMR4wHAYJKoZIhvcNAQkBFg9iYWxhQHBpeGdsby5jb20wggIiMA0GCSqGSIb3
DQEBAQUAA4ICDwAwggIKAoICAQDCTSGSUdDmKriyrOrkQ+RE1NZufmdqAnkLtOPB
Z6kAbuR2JIuyywUDjKTe28WDl1Cmg2L54l7I/dX1cd064dzIPUnwtcCzQCWk4kkO
tXwMZHS2IuFfFYl1oAxoh7alE6Q9NmrfyqaFqY9yRO+dnLm01OUanrGXGcI98I4s
Dtz5h2cKBV6suS22XYe7wvL2HXNz3GgIx021ziqJ2Y+5Axv9fB7+jNblIw/5D4As
T9FTyjuzIzlJnYGfGz3+x9aA6ibwhdCx/u/htcNZC+F34mjUpCq73d3wNFsltzwJ
GtQyMMLt0HKg+7RkouZ/M+Ax0ROcM7XQrSUbhG5LynWSK2tH4NHegwn6ChTZSeuR
Yx6A/ObAMBEQHyHN2eKxVysg1I+PeognvVp6hLx75oJwLfBADVPJOIEIaGweY7BA
d49MSD/HCIChWWzCybjg6PBzSKKD7Hn6Y6O4Fi2x782gZa/+7hsivMOzD0RU6myP
WR+haFrxLrdV+18FvHf289C5hpZwC06KfWsry3IG943KQVFBfj8Dp/nJF9eyn8K5
aDQFqhYrcS5njSJ5sCKJWelfGEXID9Eg2nI3+/GoHeIbUgcEEpillGdb8MidEZQ+
F1U9z5+GO57FjJIB+QOWlmmHZosPqKVOaViHJLC9W/2ystVo0hPaUDXD8M7b70xh
J0yOoQIDAQABo4IBazCCAWcwCQYDVR0TBAIwADAtBglghkgBhvhCAQ0EIBYeRWFz
eS1SU0EgR2VuZXJhdGVkIENlcnRpZmljYXRlMB0GA1UdDgQWBBT2/aG9KGU0MUVt
i/QiM0CagfrXKTCB6QYDVR0jBIHhMIHegBTvOI0UUFinW02cF3L837msp1GwEKGB
uqSBtzCBtDELMAkGA1UEBhMCVVMxCzAJBgNVBAgTAkNBMRUwEwYDVQQHEwxTYW5G
cmFuY2lzY28xFTATBgNVBAoTDFBpeGdsbywgSW5jLjEQMA4GA1UECxMHVlBOLUNJ
RTEaMBgGA1UEAxMRdHVubmVsLnBpeGdsby5jb20xHDAaBgNVBCkTE0JhbGEgQ2hh
bmRyYXNla2FyYW4xHjAcBgkqhkiG9w0BCQEWD2JhbGFAcGl4Z2xvLmNvbYIJAKbb
xoOA5qB5MBMGA1UdJQQMMAoGCCsGAQUFBwMCMAsGA1UdDwQEAwIHgDANBgkqhkiG
9w0BAQUFAAOCAgEAv1SdJfsGVGN1wTtlkSFN1MlwIJvV/mburoq3fRYfYICI7TdA
9k95vSWZblwFUZC9A+sD210ocXtrmo+fqpLGM4X5gzZub3FV9EnouJMCZ/okXY4G
eDDLBlsm0c+OvT09GBaTq7sVYeoWRc5sXswxr+SDFSkukKAYrHUlIsJinMP2bi4D
PJ4cTH1cWG0pfeI1Swm6frxP7WDcCagSNWP/7ueT/8VFVT2LLQmb1PkuRwdGvIXy
GQ4Ux4wesnZ+7N49MuDOTxx8qNz9CbtqonUz9PqRp5Jzhc4ZVWmJus/vU/kpW1ln
GnVf1hCYkAP8+jdfXf6gtb1S1L7UOovfeEX0hAzbERO6gOKW4eAL0jjTGEOG7zDA
CgmANhHqtzi5lPm6DjpRn1Zv6/kUUw7dsd/HQfaFcAG//qrBCMWnbxobDaAymfOu
0d1N2YZv70xrwbukb/r2fuFbBYfYC5BfeDr0GBoF8COEl+3dhbrrO8V3X5bLpcsX
WWDuYpr1QSnA/eZ6qXEYuC3f+t0ksJqBH2vJSzNr+JiC5011BGhZK/+lO87wCQ1k
po5EEvbyK6Zg96ffsiZ1glOqAWquaeUK+xdTo2vW+rXaDoV/pxCLwnHz0kCj1Frs
asZAhMDuOzP8thAns+az4XAOcuJubdnQsw2Qx55HYYtfU8PMAGvcNg7QCqQ=
-----END CERTIFICATE-----
