Certificate:
    Data:
        Version: 3 (0x2)
        Serial Number: 254 (0xfe)
    Signature Algorithm: sha1WithRSAEncryption
        Issuer: C=US, ST=CA, L=SanFrancisco, O=Pixglo, Inc., OU=VPN-CIE, CN=tunnel.pixglo.com/name=Bala Chandrasekaran/emailAddress=bala@pixglo.com
        Validity
            Not Before: Feb 14 06:29:22 2018 GMT
            Not After : Feb 12 06:29:22 2028 GMT
        Subject: C=US, ST=CA, L=SanFrancisco, O=Pixglo, Inc., OU=VPN-CIE, CN=cie253/name=Bala Chandrasekaran/emailAddress=bala@pixglo.com
        Subject Public Key Info:
            Public Key Algorithm: rsaEncryption
                Public-Key: (4096 bit)
                Modulus:
                    00:cb:9f:e6:ba:59:83:86:8a:10:49:02:1b:d1:c1:
                    4f:98:bb:c1:d8:1f:43:0e:c6:fb:26:f3:eb:48:8e:
                    8c:7e:aa:55:48:01:db:45:e7:ff:b5:07:15:3d:a2:
                    88:2a:04:a6:15:dc:9c:05:92:53:d6:37:5c:8e:d8:
                    7f:c5:22:53:12:60:6b:5d:1f:c4:1b:a6:a0:f0:88:
                    c3:c9:3e:20:25:f6:1e:07:85:f5:6b:73:64:72:31:
                    36:6e:ea:cd:31:8c:a7:14:b3:d0:a8:5a:be:5c:65:
                    80:fd:f7:87:e7:21:57:13:e0:c6:97:fb:73:21:ba:
                    fe:2f:db:58:4a:4b:e1:e4:ce:22:f5:ac:4b:67:ff:
                    4e:ee:a0:0d:d4:2b:7e:b6:a6:40:ea:9e:46:f2:0e:
                    05:ce:ae:0d:75:ff:7e:7b:b1:01:10:12:b0:b9:82:
                    41:b1:c9:d2:29:d8:96:ad:34:75:4c:52:fc:8e:93:
                    8c:bf:7e:0c:2d:f0:20:85:92:e4:b2:d2:28:f9:94:
                    41:13:9b:72:5c:16:27:5b:d4:4c:0a:e8:6e:48:d0:
                    bb:77:e5:cc:8d:b0:dd:c2:cc:a6:ac:4e:8f:32:eb:
                    75:8c:b5:22:7b:49:59:04:06:a5:77:fd:93:8d:f1:
                    b8:b8:fe:49:5a:69:97:4f:50:99:a3:76:4d:c9:e0:
                    72:5b:e4:82:0b:e9:9b:e1:fe:9e:b2:20:bf:32:fa:
                    6e:51:b7:16:e6:8d:9b:ec:02:13:5a:cc:74:1d:ad:
                    e9:c7:09:3b:2f:ac:62:29:2b:b2:b1:6b:4c:3e:ba:
                    05:26:78:7b:a9:53:67:a2:7f:c8:84:1a:d1:94:3a:
                    7a:bb:9e:a4:d1:ed:45:fa:2c:08:38:eb:c0:1f:0e:
                    9c:76:a6:73:22:6a:7b:87:cc:3f:37:a2:c5:8b:67:
                    ba:6d:cb:8e:b6:6d:e5:6e:ca:6e:f5:8c:24:fa:66:
                    79:22:95:82:89:ca:c2:2d:61:2f:88:f6:7b:65:fa:
                    70:7c:34:c2:b1:fd:63:be:1e:91:18:06:83:ca:d5:
                    77:d1:ee:66:38:da:bb:14:76:5a:60:e8:85:73:bd:
                    d6:05:30:74:cb:f5:69:44:5e:ac:54:5c:1e:3b:8d:
                    e3:a8:93:40:4c:f9:5f:54:4b:2c:e2:e6:84:48:31:
                    44:e1:23:00:22:7d:2c:d7:b8:9b:ac:a1:af:43:23:
                    e7:f5:78:c4:39:f9:bd:7b:a8:b4:f5:24:8a:a6:73:
                    4f:0c:88:37:e3:08:0f:38:47:3c:29:c8:ce:64:b7:
                    12:b3:52:53:f3:0c:20:a2:04:5f:e6:ec:6f:ee:b0:
                    72:06:57:4a:11:15:26:45:ee:3c:f9:b8:d3:44:dd:
                    13:74:65
                Exponent: 65537 (0x10001)
        X509v3 extensions:
            X509v3 Basic Constraints: 
                CA:FALSE
            Netscape Comment: 
                Easy-RSA Generated Certificate
            X509v3 Subject Key Identifier: 
                CD:2A:11:12:0C:5E:35:05:AB:AE:3F:5F:0E:BB:E8:D4:83:FA:18:F1
            X509v3 Authority Key Identifier: 
                keyid:EF:38:8D:14:50:58:A7:5B:4D:9C:17:72:FC:DF:B9:AC:A7:51:B0:10
                DirName:/C=US/ST=CA/L=SanFrancisco/O=Pixglo, Inc./OU=VPN-CIE/CN=tunnel.pixglo.com/name=Bala Chandrasekaran/emailAddress=bala@pixglo.com
                serial:A6:DB:C6:83:80:E6:A0:79

            X509v3 Extended Key Usage: 
                TLS Web Client Authentication
            X509v3 Key Usage: 
                Digital Signature
    Signature Algorithm: sha1WithRSAEncryption
         29:80:17:d0:56:57:e3:54:27:57:07:ad:ce:34:08:4b:79:95:
         d5:7c:83:bf:66:c6:57:d1:74:78:ce:94:36:1e:4b:a2:78:f6:
         8f:bc:a6:16:78:e3:13:eb:cd:b9:b0:6a:3c:1e:85:56:3c:3c:
         8d:3a:78:3d:5d:ce:d5:ee:60:04:66:aa:f6:8f:45:fe:44:47:
         c2:86:80:2c:f9:7a:fb:f6:45:a9:d5:2b:e4:29:88:cc:39:56:
         ff:64:5f:93:31:55:ec:66:67:4e:5a:87:50:96:8f:4b:08:c5:
         c5:13:44:75:2d:0b:c4:e0:1e:dd:da:f4:ad:b5:d5:44:d7:8e:
         a7:3a:2d:50:02:db:f4:15:7e:a7:99:29:82:03:e1:7c:f2:ca:
         b2:12:32:f8:b7:e1:8f:4b:0d:c0:f3:24:4e:8c:91:1b:f4:aa:
         01:82:61:9f:d5:4f:52:8c:10:47:22:29:1f:8b:51:a4:6f:a6:
         08:e7:85:2c:53:16:13:b1:e7:8c:3b:33:2f:ff:a3:a4:9a:f2:
         04:12:9d:b0:d3:6d:15:c3:07:df:bc:38:48:4d:98:dd:a4:80:
         cd:d3:7c:ce:95:3d:95:21:6f:ee:b5:09:66:48:0b:31:fa:3e:
         21:ba:d7:f3:c8:50:02:37:f1:09:97:3c:24:b9:e9:8f:1a:ed:
         cb:0c:bb:e1:b6:d2:7a:cc:63:d1:a2:e9:48:83:b4:4b:48:59:
         58:3b:74:99:42:9c:0f:ec:4e:76:ab:50:42:61:76:94:79:69:
         77:68:62:14:5a:2c:b3:2d:80:d5:18:66:df:f1:05:8c:a8:96:
         24:9c:60:e3:a6:79:2c:14:f8:68:3e:dc:58:12:f1:85:71:99:
         39:c3:78:d3:16:1a:80:9b:6c:5b:3d:08:85:5f:ad:36:99:2f:
         05:53:5d:f5:95:db:66:e3:7c:5f:b9:ba:ab:98:a5:2d:99:ad:
         32:a3:75:36:e5:9f:9c:df:90:a3:03:6f:09:9d:8a:b7:04:38:
         52:9f:54:1f:79:26:1a:d7:07:2f:6c:94:99:8a:95:6f:3d:24:
         45:3e:27:36:3e:8c:00:8d:6e:63:03:97:ba:ba:96:59:4b:e8:
         f4:79:6d:05:b7:a4:ed:9d:4e:33:87:c6:7d:b8:bd:23:53:c2:
         78:9b:0b:88:41:de:10:d4:33:1a:a7:dc:89:8b:af:72:63:38:
         e8:d8:72:5c:9f:98:7d:e7:66:72:e8:73:f3:e9:f1:e6:a0:a9:
         43:8b:10:52:cb:6b:ac:a2:bc:b4:9d:b2:4f:9e:bc:25:ed:40:
         c1:40:54:e0:d0:cc:fd:dd:ac:19:86:19:c6:d5:b5:d9:65:96:
         b4:b2:79:92:fd:18:19:35
-----BEGIN CERTIFICATE-----
MIIHSDCCBTCgAwIBAgICAP4wDQYJKoZIhvcNAQEFBQAwgbQxCzAJBgNVBAYTAlVT
MQswCQYDVQQIEwJDQTEVMBMGA1UEBxMMU2FuRnJhbmNpc2NvMRUwEwYDVQQKEwxQ
aXhnbG8sIEluYy4xEDAOBgNVBAsTB1ZQTi1DSUUxGjAYBgNVBAMTEXR1bm5lbC5w
aXhnbG8uY29tMRwwGgYDVQQpExNCYWxhIENoYW5kcmFzZWthcmFuMR4wHAYJKoZI
hvcNAQkBFg9iYWxhQHBpeGdsby5jb20wHhcNMTgwMjE0MDYyOTIyWhcNMjgwMjEy
MDYyOTIyWjCBqTELMAkGA1UEBhMCVVMxCzAJBgNVBAgTAkNBMRUwEwYDVQQHEwxT
YW5GcmFuY2lzY28xFTATBgNVBAoTDFBpeGdsbywgSW5jLjEQMA4GA1UECxMHVlBO
LUNJRTEPMA0GA1UEAxMGY2llMjUzMRwwGgYDVQQpExNCYWxhIENoYW5kcmFzZWth
cmFuMR4wHAYJKoZIhvcNAQkBFg9iYWxhQHBpeGdsby5jb20wggIiMA0GCSqGSIb3
DQEBAQUAA4ICDwAwggIKAoICAQDLn+a6WYOGihBJAhvRwU+Yu8HYH0MOxvsm8+tI
jox+qlVIAdtF5/+1BxU9oogqBKYV3JwFklPWN1yO2H/FIlMSYGtdH8QbpqDwiMPJ
PiAl9h4HhfVrc2RyMTZu6s0xjKcUs9CoWr5cZYD994fnIVcT4MaX+3Mhuv4v21hK
S+HkziL1rEtn/07uoA3UK362pkDqnkbyDgXOrg11/357sQEQErC5gkGxydIp2Jat
NHVMUvyOk4y/fgwt8CCFkuSy0ij5lEETm3JcFidb1EwK6G5I0Lt35cyNsN3CzKas
To8y63WMtSJ7SVkEBqV3/ZON8bi4/klaaZdPUJmjdk3J4HJb5IIL6Zvh/p6yIL8y
+m5RtxbmjZvsAhNazHQdrenHCTsvrGIpK7Kxa0w+ugUmeHupU2eif8iEGtGUOnq7
nqTR7UX6LAg468AfDpx2pnMianuHzD83osWLZ7pty462beVuym71jCT6ZnkilYKJ
ysItYS+I9ntl+nB8NMKx/WO+HpEYBoPK1XfR7mY42rsUdlpg6IVzvdYFMHTL9WlE
XqxUXB47jeOok0BM+V9USyzi5oRIMUThIwAifSzXuJusoa9DI+f1eMQ5+b17qLT1
JIqmc08MiDfjCA84RzwpyM5ktxKzUlPzDCCiBF/m7G/usHIGV0oRFSZF7jz5uNNE
3RN0ZQIDAQABo4IBazCCAWcwCQYDVR0TBAIwADAtBglghkgBhvhCAQ0EIBYeRWFz
eS1SU0EgR2VuZXJhdGVkIENlcnRpZmljYXRlMB0GA1UdDgQWBBTNKhESDF41Bauu
P18Ou+jUg/oY8TCB6QYDVR0jBIHhMIHegBTvOI0UUFinW02cF3L837msp1GwEKGB
uqSBtzCBtDELMAkGA1UEBhMCVVMxCzAJBgNVBAgTAkNBMRUwEwYDVQQHEwxTYW5G
cmFuY2lzY28xFTATBgNVBAoTDFBpeGdsbywgSW5jLjEQMA4GA1UECxMHVlBOLUNJ
RTEaMBgGA1UEAxMRdHVubmVsLnBpeGdsby5jb20xHDAaBgNVBCkTE0JhbGEgQ2hh
bmRyYXNla2FyYW4xHjAcBgkqhkiG9w0BCQEWD2JhbGFAcGl4Z2xvLmNvbYIJAKbb
xoOA5qB5MBMGA1UdJQQMMAoGCCsGAQUFBwMCMAsGA1UdDwQEAwIHgDANBgkqhkiG
9w0BAQUFAAOCAgEAKYAX0FZX41QnVwetzjQIS3mV1XyDv2bGV9F0eM6UNh5Lonj2
j7ymFnjjE+vNubBqPB6FVjw8jTp4PV3O1e5gBGaq9o9F/kRHwoaALPl6+/ZFqdUr
5CmIzDlW/2RfkzFV7GZnTlqHUJaPSwjFxRNEdS0LxOAe3dr0rbXVRNeOpzotUALb
9BV+p5kpggPhfPLKshIy+Lfhj0sNwPMkToyRG/SqAYJhn9VPUowQRyIpH4tRpG+m
COeFLFMWE7HnjDszL/+jpJryBBKdsNNtFcMH37w4SE2Y3aSAzdN8zpU9lSFv7rUJ
ZkgLMfo+IbrX88hQAjfxCZc8JLnpjxrtywy74bbSesxj0aLpSIO0S0hZWDt0mUKc
D+xOdqtQQmF2lHlpd2hiFFossy2A1Rhm3/EFjKiWJJxg46Z5LBT4aD7cWBLxhXGZ
OcN40xYagJtsWz0IhV+tNpkvBVNd9ZXbZuN8X7m6q5ilLZmtMqN1NuWfnN+QowNv
CZ2KtwQ4Up9UH3kmGtcHL2yUmYqVbz0kRT4nNj6MAI1uYwOXurqWWUvo9HltBbek
7Z1OM4fGfbi9I1PCeJsLiEHeENQzGqfciYuvcmM46NhyXJ+Yfedmcuhz8+nx5qCp
Q4sQUstrrKK8tJ2yT568Je1AwUBU4NDM/d2sGYYZxtW12WWWtLJ5kv0YGTU=
-----END CERTIFICATE-----
