Certificate:
    Data:
        Version: 3 (0x2)
        Serial Number: 255 (0xff)
    Signature Algorithm: sha1WithRSAEncryption
        Issuer: C=US, ST=CA, L=SanFrancisco, O=Pixglo, Inc., OU=VPN-CIE, CN=tunnel.pixglo.com/name=Bala Chandrasekaran/emailAddress=bala@pixglo.com
        Validity
            Not Before: Feb 14 06:29:23 2018 GMT
            Not After : Feb 12 06:29:23 2028 GMT
        Subject: C=US, ST=CA, L=SanFrancisco, O=Pixglo, Inc., OU=VPN-CIE, CN=cie254/name=Bala Chandrasekaran/emailAddress=bala@pixglo.com
        Subject Public Key Info:
            Public Key Algorithm: rsaEncryption
                Public-Key: (4096 bit)
                Modulus:
                    00:d4:40:44:64:00:38:7f:40:d1:fe:e8:ff:20:ff:
                    b2:d8:3f:ff:02:8b:a8:27:ac:c0:da:27:c3:fc:c1:
                    b2:e1:99:9a:ea:e8:84:ee:ae:16:b5:6a:b0:bb:58:
                    24:91:74:0c:0a:c5:9e:ca:1a:fe:f4:56:80:47:45:
                    af:b2:25:80:92:5d:c9:cd:15:d4:93:a1:a1:e6:07:
                    50:a5:35:4d:15:96:a5:55:4f:ef:8b:1d:82:9c:d4:
                    63:05:38:39:fb:d9:0d:61:14:af:84:e1:10:bf:74:
                    86:c1:52:57:9d:4d:d0:a7:68:d9:1c:34:af:bf:dc:
                    93:66:bf:44:1d:61:ad:01:a1:8c:9f:09:1b:2b:b1:
                    81:40:3b:96:cc:9e:35:26:03:ee:bc:2e:35:3e:8c:
                    ee:7f:2e:f0:47:96:b4:48:f3:38:55:8e:ff:bd:42:
                    5c:2d:4e:6a:b6:4e:9e:3b:29:68:62:64:91:45:a8:
                    a9:f9:0a:a5:27:a1:04:79:ed:a7:a2:e3:85:37:0d:
                    2c:ba:85:02:60:34:e6:f7:37:a9:9a:18:03:70:bd:
                    30:da:0d:5e:ed:a5:0a:06:22:fc:14:de:f3:b0:4c:
                    47:0f:2f:3e:c4:bd:6d:52:fa:6e:41:50:26:40:7a:
                    8c:a1:a0:31:29:b3:da:1e:71:ea:7f:87:93:4a:8a:
                    ac:36:0e:a8:b8:2f:0c:0f:a0:7a:cd:33:64:bc:76:
                    49:07:4a:b7:de:58:df:0a:a9:07:fd:c1:ba:8b:8c:
                    d0:f1:d6:cf:c7:52:8c:d7:00:88:b7:74:c7:86:3e:
                    57:1f:76:56:b1:6b:70:9a:21:57:14:20:46:a2:ae:
                    19:34:aa:09:ad:8b:81:9b:50:60:2b:d3:53:1e:90:
                    97:42:f1:84:6f:6c:60:84:aa:42:f8:8f:e3:d9:de:
                    be:14:1a:8e:4a:6d:49:d2:19:95:52:91:f8:b4:9e:
                    4e:0c:e6:42:83:cc:e9:21:87:96:4f:18:92:0a:6a:
                    1a:00:f1:0e:16:2b:d6:bd:55:c9:8e:c7:0c:5e:68:
                    59:23:62:a0:21:16:a4:06:99:ed:ca:6a:83:5c:e8:
                    56:4f:53:97:8f:e1:4a:b5:a4:70:82:40:50:9d:85:
                    d8:30:79:fa:2d:5f:d5:e9:08:47:a7:fa:51:15:8b:
                    af:f7:f6:a3:f8:5f:51:f2:b2:96:25:ed:d8:27:e1:
                    ca:6c:3a:2f:a5:cb:9b:f9:7a:22:29:45:65:d7:53:
                    f4:48:ca:cc:53:ae:1e:3c:f7:73:0a:2e:49:bb:7f:
                    25:1d:b5:1c:4f:0e:82:d2:2b:46:4a:b3:5c:67:03:
                    79:60:cf:96:eb:06:e2:44:c4:7e:60:68:2b:05:69:
                    e4:9d:73
                Exponent: 65537 (0x10001)
        X509v3 extensions:
            X509v3 Basic Constraints: 
                CA:FALSE
            Netscape Comment: 
                Easy-RSA Generated Certificate
            X509v3 Subject Key Identifier: 
                3D:8B:AB:7F:DC:C6:C5:5E:75:9D:FB:BC:B3:56:1D:3F:62:53:96:0B
            X509v3 Authority Key Identifier: 
                keyid:EF:38:8D:14:50:58:A7:5B:4D:9C:17:72:FC:DF:B9:AC:A7:51:B0:10
                DirName:/C=US/ST=CA/L=SanFrancisco/O=Pixglo, Inc./OU=VPN-CIE/CN=tunnel.pixglo.com/name=Bala Chandrasekaran/emailAddress=bala@pixglo.com
                serial:A6:DB:C6:83:80:E6:A0:79

            X509v3 Extended Key Usage: 
                TLS Web Client Authentication
            X509v3 Key Usage: 
                Digital Signature
    Signature Algorithm: sha1WithRSAEncryption
         dc:6d:a2:cb:aa:a2:ec:fd:93:ce:e9:f1:8f:04:60:65:32:f8:
         c3:a5:87:24:bc:ab:1d:c5:a2:2d:8d:37:8a:57:da:26:48:ae:
         1e:d8:23:f7:bc:4c:26:c1:45:b4:52:16:29:cf:dd:58:3f:6e:
         eb:21:be:19:b0:c6:59:8e:90:db:eb:39:a3:77:30:7c:48:e1:
         5e:82:3a:e6:56:ca:9e:69:a0:22:45:93:40:b1:5b:8f:68:d1:
         ac:3f:0e:96:75:e1:47:72:11:e1:58:6e:93:bf:37:73:3d:e4:
         f4:cc:8a:d7:02:2d:87:c9:60:ca:cd:02:b6:e3:26:85:a1:a1:
         77:52:85:3b:eb:db:ef:2e:2a:a0:60:a9:8d:94:ab:17:0a:7d:
         4f:4f:d8:5b:69:ce:f2:4a:da:f5:68:c8:2b:12:72:7e:7a:23:
         05:be:96:a0:12:cc:74:d7:ba:c3:72:34:71:4b:52:5a:4c:4a:
         95:80:cc:86:c0:ae:79:28:cb:06:8f:c3:e0:c8:cd:25:bf:7c:
         98:29:08:33:97:19:f6:bd:26:72:d7:9a:72:8d:44:27:9e:c3:
         c6:35:f7:e0:2a:80:b6:63:b5:ca:b9:a8:75:e3:66:1c:5c:44:
         f6:34:24:c4:ed:67:c4:15:9f:d4:80:26:bc:75:42:99:f9:8a:
         c5:e1:6c:63:c2:2a:06:65:f4:1f:0e:ce:2d:cc:a9:33:a7:3c:
         47:94:48:ae:1f:0c:ab:67:b9:a4:93:45:65:47:16:19:f3:7f:
         ad:00:a7:2f:02:c2:12:37:a0:7f:98:34:39:6e:41:69:94:0b:
         98:8b:e7:e0:09:e0:33:e1:32:04:6a:1c:34:a3:8e:02:af:f0:
         db:f0:10:57:d0:1f:b3:e1:49:70:39:cf:0b:7c:63:47:9c:e6:
         5d:de:cc:21:10:f9:68:30:a6:c7:39:1c:e2:16:18:09:66:55:
         12:c5:0b:6b:b6:26:f8:b6:ff:1b:3c:8a:cb:b5:8a:e8:24:c3:
         0e:4c:ba:fe:5f:f6:fa:cf:6c:d4:a7:4e:58:e6:1e:7d:bb:21:
         75:08:7b:ee:a7:6e:58:8d:89:cb:f6:af:01:45:f6:27:98:34:
         90:96:43:96:03:49:4e:b7:a5:4d:90:95:76:ec:41:5e:8a:35:
         28:a0:8e:49:5b:47:fe:4b:91:59:86:4a:52:33:2b:96:61:d3:
         55:0a:1a:8a:fa:67:c5:d0:c1:5f:fe:e9:5d:23:f1:38:cb:65:
         f4:7e:ba:7f:95:19:4b:21:bc:d8:ef:6e:72:5a:5f:bd:0e:05:
         df:ed:2d:73:6b:3b:5d:42:10:4f:75:df:c8:72:ec:5b:53:ee:
         66:b4:71:ec:8f:f6:b1:02
-----BEGIN CERTIFICATE-----
MIIHSDCCBTCgAwIBAgICAP8wDQYJKoZIhvcNAQEFBQAwgbQxCzAJBgNVBAYTAlVT
MQswCQYDVQQIEwJDQTEVMBMGA1UEBxMMU2FuRnJhbmNpc2NvMRUwEwYDVQQKEwxQ
aXhnbG8sIEluYy4xEDAOBgNVBAsTB1ZQTi1DSUUxGjAYBgNVBAMTEXR1bm5lbC5w
aXhnbG8uY29tMRwwGgYDVQQpExNCYWxhIENoYW5kcmFzZWthcmFuMR4wHAYJKoZI
hvcNAQkBFg9iYWxhQHBpeGdsby5jb20wHhcNMTgwMjE0MDYyOTIzWhcNMjgwMjEy
MDYyOTIzWjCBqTELMAkGA1UEBhMCVVMxCzAJBgNVBAgTAkNBMRUwEwYDVQQHEwxT
YW5GcmFuY2lzY28xFTATBgNVBAoTDFBpeGdsbywgSW5jLjEQMA4GA1UECxMHVlBO
LUNJRTEPMA0GA1UEAxMGY2llMjU0MRwwGgYDVQQpExNCYWxhIENoYW5kcmFzZWth
cmFuMR4wHAYJKoZIhvcNAQkBFg9iYWxhQHBpeGdsby5jb20wggIiMA0GCSqGSIb3
DQEBAQUAA4ICDwAwggIKAoICAQDUQERkADh/QNH+6P8g/7LYP/8Ci6gnrMDaJ8P8
wbLhmZrq6ITurha1arC7WCSRdAwKxZ7KGv70VoBHRa+yJYCSXcnNFdSToaHmB1Cl
NU0VlqVVT++LHYKc1GMFODn72Q1hFK+E4RC/dIbBUledTdCnaNkcNK+/3JNmv0Qd
Ya0BoYyfCRsrsYFAO5bMnjUmA+68LjU+jO5/LvBHlrRI8zhVjv+9QlwtTmq2Tp47
KWhiZJFFqKn5CqUnoQR57aei44U3DSy6hQJgNOb3N6maGANwvTDaDV7tpQoGIvwU
3vOwTEcPLz7EvW1S+m5BUCZAeoyhoDEps9oecep/h5NKiqw2Dqi4LwwPoHrNM2S8
dkkHSrfeWN8KqQf9wbqLjNDx1s/HUozXAIi3dMeGPlcfdlaxa3CaIVcUIEairhk0
qgmti4GbUGAr01MekJdC8YRvbGCEqkL4j+PZ3r4UGo5KbUnSGZVSkfi0nk4M5kKD
zOkhh5ZPGJIKahoA8Q4WK9a9VcmOxwxeaFkjYqAhFqQGme3KaoNc6FZPU5eP4Uq1
pHCCQFCdhdgwefotX9XpCEen+lEVi6/39qP4X1HyspYl7dgn4cpsOi+ly5v5eiIp
RWXXU/RIysxTrh4893MKLkm7fyUdtRxPDoLSK0ZKs1xnA3lgz5brBuJExH5gaCsF
aeSdcwIDAQABo4IBazCCAWcwCQYDVR0TBAIwADAtBglghkgBhvhCAQ0EIBYeRWFz
eS1SU0EgR2VuZXJhdGVkIENlcnRpZmljYXRlMB0GA1UdDgQWBBQ9i6t/3MbFXnWd
+7yzVh0/YlOWCzCB6QYDVR0jBIHhMIHegBTvOI0UUFinW02cF3L837msp1GwEKGB
uqSBtzCBtDELMAkGA1UEBhMCVVMxCzAJBgNVBAgTAkNBMRUwEwYDVQQHEwxTYW5G
cmFuY2lzY28xFTATBgNVBAoTDFBpeGdsbywgSW5jLjEQMA4GA1UECxMHVlBOLUNJ
RTEaMBgGA1UEAxMRdHVubmVsLnBpeGdsby5jb20xHDAaBgNVBCkTE0JhbGEgQ2hh
bmRyYXNla2FyYW4xHjAcBgkqhkiG9w0BCQEWD2JhbGFAcGl4Z2xvLmNvbYIJAKbb
xoOA5qB5MBMGA1UdJQQMMAoGCCsGAQUFBwMCMAsGA1UdDwQEAwIHgDANBgkqhkiG
9w0BAQUFAAOCAgEA3G2iy6qi7P2TzunxjwRgZTL4w6WHJLyrHcWiLY03ilfaJkiu
Htgj97xMJsFFtFIWKc/dWD9u6yG+GbDGWY6Q2+s5o3cwfEjhXoI65lbKnmmgIkWT
QLFbj2jRrD8OlnXhR3IR4Vhuk783cz3k9MyK1wIth8lgys0CtuMmhaGhd1KFO+vb
7y4qoGCpjZSrFwp9T0/YW2nO8kra9WjIKxJyfnojBb6WoBLMdNe6w3I0cUtSWkxK
lYDMhsCueSjLBo/D4MjNJb98mCkIM5cZ9r0mcteaco1EJ57DxjX34CqAtmO1yrmo
deNmHFxE9jQkxO1nxBWf1IAmvHVCmfmKxeFsY8IqBmX0Hw7OLcypM6c8R5RIrh8M
q2e5pJNFZUcWGfN/rQCnLwLCEjegf5g0OW5BaZQLmIvn4AngM+EyBGocNKOOAq/w
2/AQV9Afs+FJcDnPC3xjR5zmXd7MIRD5aDCmxzkc4hYYCWZVEsULa7Ym+Lb/GzyK
y7WK6CTDDky6/l/2+s9s1KdOWOYefbshdQh77qduWI2Jy/avAUX2J5g0kJZDlgNJ
TrelTZCVduxBXoo1KKCOSVtH/kuRWYZKUjMrlmHTVQoaivpnxdDBX/7pXSPxOMtl
9H66f5UZSyG82O9uclpfvQ4F3+0tc2s7XUIQT3XfyHLsW1PuZrRx7I/2sQI=
-----END CERTIFICATE-----
